PARTICIPANT_ID	TEST_SECTION_ID	SENTENCE	USER_INPUT	KEYSTROKE_ID	PRESS_TIME	RELEASE_TIME	LETTER	KEYCODE
100654	1098293	There were frequent electricity and water shortages.	There were frequent electricity and water shortages.	52237623	1473281243424	1473281243926	SHIFT	16
100654	1098293	There were frequent electricity and water shortages.	There were frequent electricity and water shortages.	52237627	1473281243874	1473281243992	T	84
100654	1098293	There were frequent electricity and water shortages.	There were frequent electricity and water shortages.	52237630	1473281243938	1473281244079	h	72
100654	1098293	There were frequent electricity and water shortages.	There were frequent electricity and water shortages.	52237638	1473281244097	1473281244295	e	69
100654	1098293	There were frequent electricity and water shortages.	There were frequent electricity and water shortages.	52237642	1473281244218	1473281244338	r	82
100654	1098293	There were frequent electricity and water shortages.	There were frequent electricity and water shortages.	52237646	1473281244797	1473281244927	e	69
100654	1098293	There were frequent electricity and water shortages.	There were frequent electricity and water shortages.	52237691	1473281244919	1473281245076	 	32
100654	1098293	There were frequent electricity and water shortages.	There were frequent electricity and water shortages.	52237696	1473281245181	1473281245353	w	87
100654	1098293	There were frequent electricity and water shortages.	There were frequent electricity and water shortages.	52237701	1473281245258	1473281245402	e	69
100654	1098293	There were frequent electricity and water shortages.	There were frequent electricity and water shortages.	52237706	1473281245323	1473281245513	r	82
100654	1098293	There were frequent electricity and water shortages.	There were frequent electricity and water shortages.	52237710	1473281245459	1473281245608	e	69
100654	1098293	There were frequent electricity and water shortages.	There were frequent electricity and water shortages.	52237714	1473281245735	1473281245911	 	32
100654	1098293	There were frequent electricity and water shortages.	There were frequent electricity and water shortages.	52237796	1473281246058	1473281246168	f	70
100654	1098293	There were frequent electricity and water shortages.	There were frequent electricity and water shortages.	52237799	1473281246223	1473281246389	r	82
100654	1098293	There were frequent electricity and water shortages.	There were frequent electricity and water shortages.	52237802	1473281246315	1473281246501	e	69
100654	1098293	There were frequent electricity and water shortages.	There were frequent electricity and water shortages.	52237804	1473281246600	1473281246767	q	81
100654	1098293	There were frequent electricity and water shortages.	There were frequent electricity and water shortages.	52237809	1473281246958	1473281247084	u	85
100654	1098293	There were frequent electricity and water shortages.	There were frequent electricity and water shortages.	52237839	1473281247097	1473281247247	e	69
100654	1098293	There were frequent electricity and water shortages.	There were frequent electricity and water shortages.	52237842	1473281247240	1473281247356	n	78
100654	1098293	There were frequent electricity and water shortages.	There were frequent electricity and water shortages.	52237846	1473281247360	1473281247479	t	84
100654	1098293	There were frequent electricity and water shortages.	There were frequent electricity and water shortages.	52237851	1473281247473	1473281247630	 	32
100654	1098293	There were frequent electricity and water shortages.	There were frequent electricity and water shortages.	52237922	1473281247624	1473281247748	e	69
100654	1098293	There were frequent electricity and water shortages.	There were frequent electricity and water shortages.	52237927	1473281247779	1473281247933	l	76
100654	1098293	There were frequent electricity and water shortages.	There were frequent electricity and water shortages.	52237933	1473281247917	1473281248058	e	69
100654	1098293	There were frequent electricity and water shortages.	There were frequent electricity and water shortages.	52237936	1473281248126	1473281248236	c	67
100654	1098293	There were frequent electricity and water shortages.	There were frequent electricity and water shortages.	52237940	1473281248342	1473281248429	t	84
100654	1098293	There were frequent electricity and water shortages.	There were frequent electricity and water shortages.	52237943	1473281248485	1473281248583	r	82
100654	1098293	There were frequent electricity and water shortages.	There were frequent electricity and water shortages.	52237966	1473281248609	1473281248731	i	73
100654	1098293	There were frequent electricity and water shortages.	There were frequent electricity and water shortages.	52237972	1473281248711	1473281248837	c	67
100654	1098293	There were frequent electricity and water shortages.	There were frequent electricity and water shortages.	52237978	1473281248850	1473281248944	i	73
100654	1098293	There were frequent electricity and water shortages.	There were frequent electricity and water shortages.	52237984	1473281248969	1473281249094	t	84
100654	1098293	There were frequent electricity and water shortages.	There were frequent electricity and water shortages.	52238005	1473281249069	1473281249181	y	89
100654	1098293	There were frequent electricity and water shortages.	There were frequent electricity and water shortages.	52238009	1473281249161	1473281249313	 	32
100654	1098293	There were frequent electricity and water shortages.	There were frequent electricity and water shortages.	52238012	1473281249305	1473281249446	a	65
100654	1098293	There were frequent electricity and water shortages.	There were frequent electricity and water shortages.	52238020	1473281249388	1473281249510	n	78
100654	1098293	There were frequent electricity and water shortages.	There were frequent electricity and water shortages.	52238026	1473281249470	1473281249582	d	68
100654	1098293	There were frequent electricity and water shortages.	There were frequent electricity and water shortages.	52238080	1473281249529	1473281249668	 	32
100654	1098293	There were frequent electricity and water shortages.	There were frequent electricity and water shortages.	52238086	1473281249672	1473281249830	w	87
100654	1098293	There were frequent electricity and water shortages.	There were frequent electricity and water shortages.	52238092	1473281249983	1473281250146	a	65
100654	1098293	There were frequent electricity and water shortages.	There were frequent electricity and water shortages.	52238097	1473281250087	1473281250220	t	84
100654	1098293	There were frequent electricity and water shortages.	There were frequent electricity and water shortages.	52238101	1473281250248	1473281250402	e	69
100654	1098293	There were frequent electricity and water shortages.	There were frequent electricity and water shortages.	52238144	1473281250311	1473281250446	r	82
100654	1098293	There were frequent electricity and water shortages.	There were frequent electricity and water shortages.	52238145	1473281250395	1473281250537	 	32
100654	1098293	There were frequent electricity and water shortages.	There were frequent electricity and water shortages.	52238147	1473281250740	1473281250884	s	83
100654	1098293	There were frequent electricity and water shortages.	There were frequent electricity and water shortages.	52238149	1473281250849	1473281251008	h	72
100654	1098293	There were frequent electricity and water shortages.	There were frequent electricity and water shortages.	52238152	1473281250949	1473281251110	o	79
100654	1098293	There were frequent electricity and water shortages.	There were frequent electricity and water shortages.	52238156	1473281251040	1473281251153	r	82
100654	1098293	There were frequent electricity and water shortages.	There were frequent electricity and water shortages.	52238159	1473281251284	1473281251408	t	84
100654	1098293	There were frequent electricity and water shortages.	There were frequent electricity and water shortages.	52238239	1473281251398	1473281251566	a	65
100654	1098293	There were frequent electricity and water shortages.	There were frequent electricity and water shortages.	52238241	1473281251560	1473281251745	g	71
100654	1098293	There were frequent electricity and water shortages.	There were frequent electricity and water shortages.	52238245	1473281251669	1473281251899	e	69
100654	1098293	There were frequent electricity and water shortages.	There were frequent electricity and water shortages.	52238249	1473281251768	1473281251946	s	83
100654	1098293	There were frequent electricity and water shortages.	There were frequent electricity and water shortages.	52238255	1473281251998	1473281252145	.	190
100654	1098312	We all know that it does exist.	We all know that it does exist. 	52238410	1473281254900	1473281255268	SHIFT	16
100654	1098312	We all know that it does exist.	We all know that it does exist. 	52238414	1473281255126	1473281255275	W	87
100654	1098312	We all know that it does exist.	We all know that it does exist. 	52238419	1473281255296	1473281255464	e	69
100654	1098312	We all know that it does exist.	We all know that it does exist. 	52238425	1473281255490	1473281255652	 	32
100654	1098312	We all know that it does exist.	We all know that it does exist. 	52238429	1473281255743	1473281255876	a	65
100654	1098312	We all know that it does exist.	We all know that it does exist. 	52238478	1473281255830	1473281255920	l	76
100654	1098312	We all know that it does exist.	We all know that it does exist. 	52238481	1473281255961	1473281256119	l	76
100654	1098312	We all know that it does exist.	We all know that it does exist. 	52238487	1473281256064	1473281256225	 	32
100654	1098312	We all know that it does exist.	We all know that it does exist. 	52238493	1473281256249	1473281256441	k	75
100654	1098312	We all know that it does exist.	We all know that it does exist. 	52238502	1473281256364	1473281256537	n	78
100654	1098312	We all know that it does exist.	We all know that it does exist. 	52238504	1473281256489	1473281256654	o	79
100654	1098312	We all know that it does exist.	We all know that it does exist. 	52238508	1473281256592	1473281256714	w	87
100654	1098312	We all know that it does exist.	We all know that it does exist. 	52238513	1473281256733	1473281256879	 	32
100654	1098312	We all know that it does exist.	We all know that it does exist. 	52238518	1473281256844	1473281256973	t	84
100654	1098312	We all know that it does exist.	We all know that it does exist. 	52238522	1473281256953	1473281257070	h	72
100654	1098312	We all know that it does exist.	We all know that it does exist. 	52238575	1473281257007	1473281257178	a	65
100654	1098312	We all know that it does exist.	We all know that it does exist. 	52238577	1473281257118	1473281257220	t	84
100654	1098312	We all know that it does exist.	We all know that it does exist. 	52238581	1473281257399	1473281257583	 	32
100654	1098312	We all know that it does exist.	We all know that it does exist. 	52238584	1473281257571	1473281257762	i	73
100654	1098312	We all know that it does exist.	We all know that it does exist. 	52238587	1473281258028	1473281258172	t	84
100654	1098312	We all know that it does exist.	We all know that it does exist. 	52238608	1473281258157	1473281258329	 	32
100654	1098312	We all know that it does exist.	We all know that it does exist. 	52238614	1473281258368	1473281258465	d	68
100654	1098312	We all know that it does exist.	We all know that it does exist. 	52238619	1473281258480	1473281258592	o	79
100654	1098312	We all know that it does exist.	We all know that it does exist. 	52238626	1473281258549	1473281258725	e	69
100654	1098312	We all know that it does exist.	We all know that it does exist. 	52238668	1473281258649	1473281258788	s	83
100654	1098312	We all know that it does exist.	We all know that it does exist. 	52238672	1473281258718	1473281258884	 	32
100654	1098312	We all know that it does exist.	We all know that it does exist. 	52238677	1473281258877	1473281258999	e	69
100654	1098312	We all know that it does exist.	We all know that it does exist. 	52238684	1473281259125	1473281259269	x	88
100654	1098312	We all know that it does exist.	We all know that it does exist. 	52238690	1473281259326	1473281259438	i	73
100654	1098312	We all know that it does exist.	We all know that it does exist. 	52238698	1473281259514	1473281259694	s	83
100654	1098312	We all know that it does exist.	We all know that it does exist. 	52238737	1473281259600	1473281259763	t	84
100654	1098312	We all know that it does exist.	We all know that it does exist. 	52238742	1473281259832	1473281259974	.	190
100654	1098312	We all know that it does exist.	We all know that it does exist. 	52238746	1473281260157	1473281260266	 	32
100654	1098321	TXU is off, everyone else OK.	TXU is off, everyone else OK.	52238925	1473281261936	1473281263240	SHIFT	16
100654	1098321	TXU is off, everyone else OK.	TXU is off, everyone else OK.	52238920	1473281262279	1473281262417	T	84
100654	1098321	TXU is off, everyone else OK.	TXU is off, everyone else OK.	52238923	1473281262950	1473281263136	X	88
100654	1098321	TXU is off, everyone else OK.	TXU is off, everyone else OK.	52238927	1473281263142	1473281263249	U	85
100654	1098321	TXU is off, everyone else OK.	TXU is off, everyone else OK.	52238931	1473281263393	1473281263561	 	32
100654	1098321	TXU is off, everyone else OK.	TXU is off, everyone else OK.	52238935	1473281263574	1473281263709	i	73
100654	1098321	TXU is off, everyone else OK.	TXU is off, everyone else OK.	52238961	1473281263675	1473281263821	s	83
100654	1098321	TXU is off, everyone else OK.	TXU is off, everyone else OK.	52238967	1473281263750	1473281263908	 	32
100654	1098321	TXU is off, everyone else OK.	TXU is off, everyone else OK.	52238971	1473281263877	1473281264026	o	79
100654	1098321	TXU is off, everyone else OK.	TXU is off, everyone else OK.	52238975	1473281263973	1473281264076	f	70
100654	1098321	TXU is off, everyone else OK.	TXU is off, everyone else OK.	52238980	1473281264117	1473281264247	f	70
100654	1098321	TXU is off, everyone else OK.	TXU is off, everyone else OK.	52238984	1473281264272	1473281264400	,	188
100654	1098321	TXU is off, everyone else OK.	TXU is off, everyone else OK.	52238996	1473281264573	1473281264733	 	32
100654	1098321	TXU is off, everyone else OK.	TXU is off, everyone else OK.	52239001	1473281264781	1473281264887	e	69
100654	1098321	TXU is off, everyone else OK.	TXU is off, everyone else OK.	52239009	1473281264944	1473281265063	v	86
100654	1098321	TXU is off, everyone else OK.	TXU is off, everyone else OK.	52239014	1473281265086	1473281265239	e	69
100654	1098321	TXU is off, everyone else OK.	TXU is off, everyone else OK.	52239066	1473281265174	1473281265302	r	82
100654	1098321	TXU is off, everyone else OK.	TXU is off, everyone else OK.	52239071	1473281265232	1473281265325	y	89
100654	1098321	TXU is off, everyone else OK.	TXU is off, everyone else OK.	52239078	1473281265436	1473281265654	o	79
100654	1098321	TXU is off, everyone else OK.	TXU is off, everyone else OK.	52239082	1473281265534	1473281265671	n	78
100654	1098321	TXU is off, everyone else OK.	TXU is off, everyone else OK.	52239089	1473281265588	1473281265734	e	69
100654	1098321	TXU is off, everyone else OK.	TXU is off, everyone else OK.	52239097	1473281265724	1473281265894	 	32
100654	1098321	TXU is off, everyone else OK.	TXU is off, everyone else OK.	52239103	1473281265902	1473281266033	e	69
100654	1098321	TXU is off, everyone else OK.	TXU is off, everyone else OK.	52239156	1473281266073	1473281266173	l	76
100654	1098321	TXU is off, everyone else OK.	TXU is off, everyone else OK.	52239161	1473281266225	1473281266406	s	83
100654	1098321	TXU is off, everyone else OK.	TXU is off, everyone else OK.	52239165	1473281266299	1473281266484	e	69
100654	1098321	TXU is off, everyone else OK.	TXU is off, everyone else OK.	52239172	1473281266805	1473281266967	 	32
100654	1098321	TXU is off, everyone else OK.	TXU is off, everyone else OK.	52239255	1473281266933	1473281267471	SHIFT	16
100654	1098321	TXU is off, everyone else OK.	TXU is off, everyone else OK.	52239176	1473281267061	1473281267210	O	79
100654	1098321	TXU is off, everyone else OK.	TXU is off, everyone else OK.	52239253	1473281267290	1473281267406	K	75
100654	1098321	TXU is off, everyone else OK.	TXU is off, everyone else OK.	52239258	1473281267520	1473281267607	/	191
100654	1098321	TXU is off, everyone else OK.	TXU is off, everyone else OK.	52239261	1473281268080	1473281268175	BKSP	8
100654	1098321	TXU is off, everyone else OK.	TXU is off, everyone else OK.	52239264	1473281268609	1473281268708	.	190
100654	1098335	Charlie Garner will once again be Oakland's feature back.	Charlie Garner will once again be Oakland's feature back.	52239427	1473281270506	1473281270939	SHIFT	16
100654	1098335	Charlie Garner will once again be Oakland's feature back.	Charlie Garner will once again be Oakland's feature back.	52239428	1473281270839	1473281270987	C	67
100654	1098335	Charlie Garner will once again be Oakland's feature back.	Charlie Garner will once again be Oakland's feature back.	52239429	1473281270949	1473281271074	h	72
100654	1098335	Charlie Garner will once again be Oakland's feature back.	Charlie Garner will once again be Oakland's feature back.	52239430	1473281271044	1473281271231	a	65
100654	1098335	Charlie Garner will once again be Oakland's feature back.	Charlie Garner will once again be Oakland's feature back.	52239431	1473281271158	1473281271303	r	82
100654	1098335	Charlie Garner will once again be Oakland's feature back.	Charlie Garner will once again be Oakland's feature back.	52239433	1473281271389	1473281271530	l	76
100654	1098335	Charlie Garner will once again be Oakland's feature back.	Charlie Garner will once again be Oakland's feature back.	52239487	1473281271486	1473281271641	i	73
100654	1098335	Charlie Garner will once again be Oakland's feature back.	Charlie Garner will once again be Oakland's feature back.	52239488	1473281271575	1473281271721	e	69
100654	1098335	Charlie Garner will once again be Oakland's feature back.	Charlie Garner will once again be Oakland's feature back.	52239490	1473281271699	1473281271867	 	32
100654	1098335	Charlie Garner will once again be Oakland's feature back.	Charlie Garner will once again be Oakland's feature back.	52239495	1473281271884	1473281272013	w	87
100654	1098335	Charlie Garner will once again be Oakland's feature back.	Charlie Garner will once again be Oakland's feature back.	52239500	1473281272220	1473281272291	BKSP	8
100654	1098335	Charlie Garner will once again be Oakland's feature back.	Charlie Garner will once again be Oakland's feature back.	52239505	1473281272367	1473281272533	SHIFT	16
100654	1098335	Charlie Garner will once again be Oakland's feature back.	Charlie Garner will once again be Oakland's feature back.	52239512	1473281272427	1473281272550	G	71
100654	1098335	Charlie Garner will once again be Oakland's feature back.	Charlie Garner will once again be Oakland's feature back.	52239517	1473281272554	1473281272759	a	65
100654	1098335	Charlie Garner will once again be Oakland's feature back.	Charlie Garner will once again be Oakland's feature back.	52239543	1473281272664	1473281272813	r	82
100654	1098335	Charlie Garner will once again be Oakland's feature back.	Charlie Garner will once again be Oakland's feature back.	52239545	1473281272912	1473281273046	n	78
100654	1098335	Charlie Garner will once again be Oakland's feature back.	Charlie Garner will once again be Oakland's feature back.	52239549	1473281273012	1473281273157	e	69
100654	1098335	Charlie Garner will once again be Oakland's feature back.	Charlie Garner will once again be Oakland's feature back.	52239551	1473281273086	1473281273239	r	82
100654	1098335	Charlie Garner will once again be Oakland's feature back.	Charlie Garner will once again be Oakland's feature back.	52239556	1473281273185	1473281273354	 	32
100654	1098335	Charlie Garner will once again be Oakland's feature back.	Charlie Garner will once again be Oakland's feature back.	52239560	1473281273359	1473281273499	w	87
100654	1098335	Charlie Garner will once again be Oakland's feature back.	Charlie Garner will once again be Oakland's feature back.	52239583	1473281273422	1473281273537	i	73
100654	1098335	Charlie Garner will once again be Oakland's feature back.	Charlie Garner will once again be Oakland's feature back.	52239585	1473281273593	1473281273685	l	76
100654	1098335	Charlie Garner will once again be Oakland's feature back.	Charlie Garner will once again be Oakland's feature back.	52239588	1473281273747	1473281273899	l	76
100654	1098335	Charlie Garner will once again be Oakland's feature back.	Charlie Garner will once again be Oakland's feature back.	52239591	1473281273889	1473281274050	 	32
100654	1098335	Charlie Garner will once again be Oakland's feature back.	Charlie Garner will once again be Oakland's feature back.	52239595	1473281273976	1473281274192	o	79
100654	1098335	Charlie Garner will once again be Oakland's feature back.	Charlie Garner will once again be Oakland's feature back.	52239636	1473281274080	1473281274222	n	78
100654	1098335	Charlie Garner will once again be Oakland's feature back.	Charlie Garner will once again be Oakland's feature back.	52239640	1473281274177	1473281274343	c	67
100654	1098335	Charlie Garner will once again be Oakland's feature back.	Charlie Garner will once again be Oakland's feature back.	52239643	1473281274259	1473281274427	e	69
100654	1098335	Charlie Garner will once again be Oakland's feature back.	Charlie Garner will once again be Oakland's feature back.	52239647	1473281274360	1473281274514	 	32
100654	1098335	Charlie Garner will once again be Oakland's feature back.	Charlie Garner will once again be Oakland's feature back.	52239651	1473281274478	1473281274637	a	65
100654	1098335	Charlie Garner will once again be Oakland's feature back.	Charlie Garner will once again be Oakland's feature back.	52239653	1473281274643	1473281274769	g	71
100654	1098335	Charlie Garner will once again be Oakland's feature back.	Charlie Garner will once again be Oakland's feature back.	52239656	1473281274773	1473281274910	a	65
100654	1098335	Charlie Garner will once again be Oakland's feature back.	Charlie Garner will once again be Oakland's feature back.	52239675	1473281274871	1473281275101	i	73
100654	1098335	Charlie Garner will once again be Oakland's feature back.	Charlie Garner will once again be Oakland's feature back.	52239679	1473281274954	1473281275147	n	78
100654	1098335	Charlie Garner will once again be Oakland's feature back.	Charlie Garner will once again be Oakland's feature back.	52239686	1473281275040	1473281275195	 	32
100654	1098335	Charlie Garner will once again be Oakland's feature back.	Charlie Garner will once again be Oakland's feature back.	52239691	1473281275229	1473281275360	b	66
100654	1098335	Charlie Garner will once again be Oakland's feature back.	Charlie Garner will once again be Oakland's feature back.	52239694	1473281275308	1473281275461	e	69
100654	1098335	Charlie Garner will once again be Oakland's feature back.	Charlie Garner will once again be Oakland's feature back.	52239785	1473281275404	1473281275544	 	32
100654	1098335	Charlie Garner will once again be Oakland's feature back.	Charlie Garner will once again be Oakland's feature back.	52239790	1473281275532	1473281275955	SHIFT	16
100654	1098335	Charlie Garner will once again be Oakland's feature back.	Charlie Garner will once again be Oakland's feature back.	52239796	1473281275859	1473281276015	O	79
100654	1098335	Charlie Garner will once again be Oakland's feature back.	Charlie Garner will once again be Oakland's feature back.	52239800	1473281276092	1473281276277	a	65
100654	1098335	Charlie Garner will once again be Oakland's feature back.	Charlie Garner will once again be Oakland's feature back.	52239803	1473281276322	1473281276510	k	75
100654	1098335	Charlie Garner will once again be Oakland's feature back.	Charlie Garner will once again be Oakland's feature back.	52239806	1473281276584	1473281276717	l	76
100654	1098335	Charlie Garner will once again be Oakland's feature back.	Charlie Garner will once again be Oakland's feature back.	52239938	1473281276707	1473281276843	a	65
100654	1098335	Charlie Garner will once again be Oakland's feature back.	Charlie Garner will once again be Oakland's feature back.	52239945	1473281276803	1473281276925	n	78
100654	1098335	Charlie Garner will once again be Oakland's feature back.	Charlie Garner will once again be Oakland's feature back.	52239953	1473281276904	1473281277094	d	68
100654	1098335	Charlie Garner will once again be Oakland's feature back.	Charlie Garner will once again be Oakland's feature back.	52239964	1473281277571	1473281277798	;	186
100654	1098335	Charlie Garner will once again be Oakland's feature back.	Charlie Garner will once again be Oakland's feature back.	52239974	1473281278090	1473281278220	BKSP	8
100654	1098335	Charlie Garner will once again be Oakland's feature back.	Charlie Garner will once again be Oakland's feature back.	52239982	1473281278749	1473281278886	'	222
100654	1098335	Charlie Garner will once again be Oakland's feature back.	Charlie Garner will once again be Oakland's feature back.	52240080	1473281278852	1473281278990	s	83
100654	1098335	Charlie Garner will once again be Oakland's feature back.	Charlie Garner will once again be Oakland's feature back.	52240085	1473281279452	1473281279609	 	32
100654	1098335	Charlie Garner will once again be Oakland's feature back.	Charlie Garner will once again be Oakland's feature back.	52240089	1473281279638	1473281279809	f	70
100654	1098335	Charlie Garner will once again be Oakland's feature back.	Charlie Garner will once again be Oakland's feature back.	52240093	1473281279856	1473281280047	e	69
100654	1098335	Charlie Garner will once again be Oakland's feature back.	Charlie Garner will once again be Oakland's feature back.	52240099	1473281279988	1473281280210	a	65
100654	1098335	Charlie Garner will once again be Oakland's feature back.	Charlie Garner will once again be Oakland's feature back.	52240129	1473281280139	1473281280271	t	84
100654	1098335	Charlie Garner will once again be Oakland's feature back.	Charlie Garner will once again be Oakland's feature back.	52240133	1473281280297	1473281280419	u	85
100654	1098335	Charlie Garner will once again be Oakland's feature back.	Charlie Garner will once again be Oakland's feature back.	52240136	1473281280354	1473281280512	r	82
100654	1098335	Charlie Garner will once again be Oakland's feature back.	Charlie Garner will once again be Oakland's feature back.	52240142	1473281280435	1473281280606	e	69
100654	1098335	Charlie Garner will once again be Oakland's feature back.	Charlie Garner will once again be Oakland's feature back.	52240143	1473281280549	1473281280690	 	32
100654	1098335	Charlie Garner will once again be Oakland's feature back.	Charlie Garner will once again be Oakland's feature back.	52240146	1473281280706	1473281280841	b	66
100654	1098335	Charlie Garner will once again be Oakland's feature back.	Charlie Garner will once again be Oakland's feature back.	52240199	1473281280743	1473281280915	a	65
100654	1098335	Charlie Garner will once again be Oakland's feature back.	Charlie Garner will once again be Oakland's feature back.	52240207	1473281280865	1473281281011	c	67
100654	1098335	Charlie Garner will once again be Oakland's feature back.	Charlie Garner will once again be Oakland's feature back.	52240214	1473281280958	1473281281079	k	75
100654	1098335	Charlie Garner will once again be Oakland's feature back.	Charlie Garner will once again be Oakland's feature back.	52240219	1473281281171	1473281281241	.	190
100654	1098352	Call me if you have any questions.	Call me if you have any questions.	52240344	1473281283090	1473281283323	SHIFT	16
100654	1098352	Call me if you have any questions.	Call me if you have any questions.	52240350	1473281283236	1473281283390	C	67
100654	1098352	Call me if you have any questions.	Call me if you have any questions.	52240355	1473281283314	1473281283476	A	65
100654	1098352	Call me if you have any questions.	Call me if you have any questions.	52240362	1473281283410	1473281283506	l	76
100654	1098352	Call me if you have any questions.	Call me if you have any questions.	52240368	1473281283552	1473281283691	l	76
100654	1098352	Call me if you have any questions.	Call me if you have any questions.	52240372	1473281283712	1473281283843	 	32
100654	1098352	Call me if you have any questions.	Call me if you have any questions.	52240464	1473281284085	1473281284156	BKSP	8
100654	1098352	Call me if you have any questions.	Call me if you have any questions.	52240466	1473281284192	1473281284250	BKSP	8
100654	1098352	Call me if you have any questions.	Call me if you have any questions.	52240470	1473281284303	1473281284356	BKSP	8
100654	1098352	Call me if you have any questions.	Call me if you have any questions.	52240473	1473281284405	1473281284462	BKSP	8
100654	1098352	Call me if you have any questions.	Call me if you have any questions.	52240476	1473281284641	1473281284781	a	65
100654	1098352	Call me if you have any questions.	Call me if you have any questions.	52240480	1473281284789	1473281284919	l	76
100654	1098352	Call me if you have any questions.	Call me if you have any questions.	52240486	1473281284994	1473281285092	l	76
100654	1098352	Call me if you have any questions.	Call me if you have any questions.	52240491	1473281285148	1473281285293	 	32
100654	1098352	Call me if you have any questions.	Call me if you have any questions.	52240512	1473281285287	1473281285420	m	77
100654	1098352	Call me if you have any questions.	Call me if you have any questions.	52240515	1473281285383	1473281285506	e	69
100654	1098352	Call me if you have any questions.	Call me if you have any questions.	52240522	1473281285458	1473281285630	 	32
100654	1098352	Call me if you have any questions.	Call me if you have any questions.	52240530	1473281285578	1473281285757	i	73
100654	1098352	Call me if you have any questions.	Call me if you have any questions.	52240535	1473281285831	1473281285988	f	70
100654	1098352	Call me if you have any questions.	Call me if you have any questions.	52240578	1473281285934	1473281286087	 	32
100654	1098352	Call me if you have any questions.	Call me if you have any questions.	52240583	1473281286169	1473281286277	y	89
100654	1098352	Call me if you have any questions.	Call me if you have any questions.	52240590	1473281286214	1473281286442	o	79
100654	1098352	Call me if you have any questions.	Call me if you have any questions.	52240596	1473281286300	1473281286473	u	85
100654	1098352	Call me if you have any questions.	Call me if you have any questions.	52240601	1473281286420	1473281286592	 	32
100654	1098352	Call me if you have any questions.	Call me if you have any questions.	52240606	1473281286713	1473281286857	h	72
100654	1098352	Call me if you have any questions.	Call me if you have any questions.	52240619	1473281286807	1473281286946	a	65
100654	1098352	Call me if you have any questions.	Call me if you have any questions.	52240622	1473281286892	1473281287055	v	86
100654	1098352	Call me if you have any questions.	Call me if you have any questions.	52240625	1473281287003	1473281287185	e	69
100654	1098352	Call me if you have any questions.	Call me if you have any questions.	52240629	1473281287105	1473281287262	 	32
100654	1098352	Call me if you have any questions.	Call me if you have any questions.	52240636	1473281287276	1473281287415	a	65
100654	1098352	Call me if you have any questions.	Call me if you have any questions.	52240728	1473281287357	1473281287497	n	78
100654	1098352	Call me if you have any questions.	Call me if you have any questions.	52240729	1473281287462	1473281287573	d	68
100654	1098352	Call me if you have any questions.	Call me if you have any questions.	52240733	1473281287678	1473281287775	y	89
100654	1098352	Call me if you have any questions.	Call me if you have any questions.	52240737	1473281287898	1473281287983	BKSP	8
100654	1098352	Call me if you have any questions.	Call me if you have any questions.	52240742	1473281287999	1473281288088	BKSP	8
100654	1098352	Call me if you have any questions.	Call me if you have any questions.	52240744	1473281288074	1473281288196	y	89
100654	1098352	Call me if you have any questions.	Call me if you have any questions.	52240747	1473281288221	1473281288378	 	32
100654	1098352	Call me if you have any questions.	Call me if you have any questions.	52240750	1473281288897	1473281289082	q	81
100654	1098352	Call me if you have any questions.	Call me if you have any questions.	52240800	1473281289039	1473281289231	u	85
100654	1098352	Call me if you have any questions.	Call me if you have any questions.	52240801	1473281289191	1473281289352	i	73
100654	1098352	Call me if you have any questions.	Call me if you have any questions.	52240803	1473281289630	1473281289720	BKSP	8
100654	1098352	Call me if you have any questions.	Call me if you have any questions.	52240805	1473281289694	1473281289888	e	69
100654	1098352	Call me if you have any questions.	Call me if you have any questions.	52240808	1473281290057	1473281290208	s	83
100654	1098352	Call me if you have any questions.	Call me if you have any questions.	52240812	1473281290259	1473281290389	t	84
100654	1098352	Call me if you have any questions.	Call me if you have any questions.	52240883	1473281290396	1473281290637	i	73
100654	1098352	Call me if you have any questions.	Call me if you have any questions.	52240815	1473281290451	1473281290619	o	79
100654	1098352	Call me if you have any questions.	Call me if you have any questions.	52240887	1473281290483	1473281290687	n	78
100654	1098352	Call me if you have any questions.	Call me if you have any questions.	52240894	1473281290671	1473281290811	s	83
100654	1098352	Call me if you have any questions.	Call me if you have any questions.	52240900	1473281291223	1473281291384	.	190
100654	1098365	Whether that package is training or material has yet to be determined.	Whether that package is training or material has yet to be determined.	52241071	1473281293448	1473281293851	SHIFT	16
100654	1098365	Whether that package is training or material has yet to be determined.	Whether that package is training or material has yet to be determined.	52241074	1473281293749	1473281293902	W	87
100654	1098365	Whether that package is training or material has yet to be determined.	Whether that package is training or material has yet to be determined.	52241079	1473281293906	1473281294007	h	72
100654	1098365	Whether that package is training or material has yet to be determined.	Whether that package is training or material has yet to be determined.	52241083	1473281293985	1473281294121	e	69
100654	1098365	Whether that package is training or material has yet to be determined.	Whether that package is training or material has yet to be determined.	52241086	1473281294419	1473281294546	t	84
100654	1098365	Whether that package is training or material has yet to be determined.	Whether that package is training or material has yet to be determined.	52241088	1473281294595	1473281294734	e	69
100654	1098365	Whether that package is training or material has yet to be determined.	Whether that package is training or material has yet to be determined.	52241148	1473281294658	1473281294788	r	82
100654	1098365	Whether that package is training or material has yet to be determined.	Whether that package is training or material has yet to be determined.	52241153	1473281294965	1473281295040	BKSP	8
100654	1098365	Whether that package is training or material has yet to be determined.	Whether that package is training or material has yet to be determined.	52241158	1473281295076	1473281295174	BKSP	8
100654	1098365	Whether that package is training or material has yet to be determined.	Whether that package is training or material has yet to be determined.	52241162	1473281295288	1473281295383	h	72
100654	1098365	Whether that package is training or material has yet to be determined.	Whether that package is training or material has yet to be determined.	52241167	1473281295359	1473281295510	e	69
100654	1098365	Whether that package is training or material has yet to be determined.	Whether that package is training or material has yet to be determined.	52241175	1473281295422	1473281295565	r	82
100654	1098365	Whether that package is training or material has yet to be determined.	Whether that package is training or material has yet to be determined.	52241181	1473281295518	1473281295667	 	32
100654	1098365	Whether that package is training or material has yet to be determined.	Whether that package is training or material has yet to be determined.	52241186	1473281295671	1473281295786	t	84
100654	1098365	Whether that package is training or material has yet to be determined.	Whether that package is training or material has yet to be determined.	52241196	1473281295733	1473281295841	h	72
100654	1098365	Whether that package is training or material has yet to be determined.	Whether that package is training or material has yet to be determined.	52241200	1473281295813	1473281296004	a	65
100654	1098365	Whether that package is training or material has yet to be determined.	Whether that package is training or material has yet to be determined.	52241205	1473281295927	1473281296069	t	84
100654	1098365	Whether that package is training or material has yet to be determined.	Whether that package is training or material has yet to be determined.	52241208	1473281296034	1473281296163	 	32
100654	1098365	Whether that package is training or material has yet to be determined.	Whether that package is training or material has yet to be determined.	52241212	1473281296216	1473281296349	p	80
100654	1098365	Whether that package is training or material has yet to be determined.	Whether that package is training or material has yet to be determined.	52241234	1473281296287	1473281296414	a	65
100654	1098365	Whether that package is training or material has yet to be determined.	Whether that package is training or material has yet to be determined.	52241237	1473281296430	1473281296536	c	67
100654	1098365	Whether that package is training or material has yet to be determined.	Whether that package is training or material has yet to be determined.	52241242	1473281296515	1473281296651	k	75
100654	1098365	Whether that package is training or material has yet to be determined.	Whether that package is training or material has yet to be determined.	52241247	1473281296612	1473281296746	a	65
100654	1098365	Whether that package is training or material has yet to be determined.	Whether that package is training or material has yet to be determined.	52241252	1473281296781	1473281296975	g	71
100654	1098365	Whether that package is training or material has yet to be determined.	Whether that package is training or material has yet to be determined.	52241321	1473281296918	1473281297128	e	69
100654	1098365	Whether that package is training or material has yet to be determined.	Whether that package is training or material has yet to be determined.	52241325	1473281297319	1473281297474	 	32
100654	1098365	Whether that package is training or material has yet to be determined.	Whether that package is training or material has yet to be determined.	52241330	1473281298024	1473281298113	i	73
100654	1098365	Whether that package is training or material has yet to be determined.	Whether that package is training or material has yet to be determined.	52241339	1473281298073	1473281298194	s	83
100654	1098365	Whether that package is training or material has yet to be determined.	Whether that package is training or material has yet to be determined.	52241347	1473281298188	1473281298342	 	32
100654	1098365	Whether that package is training or material has yet to be determined.	Whether that package is training or material has yet to be determined.	52241397	1473281298334	1473281298436	t	84
100654	1098365	Whether that package is training or material has yet to be determined.	Whether that package is training or material has yet to be determined.	52241399	1473281298500	1473281298626	r	82
100654	1098365	Whether that package is training or material has yet to be determined.	Whether that package is training or material has yet to be determined.	52241402	1473281298614	1473281298758	a	65
100654	1098365	Whether that package is training or material has yet to be determined.	Whether that package is training or material has yet to be determined.	52241406	1473281298761	1473281298975	i	73
100654	1098365	Whether that package is training or material has yet to be determined.	Whether that package is training or material has yet to be determined.	52241410	1473281298862	1473281299041	n	78
100654	1098365	Whether that package is training or material has yet to be determined.	Whether that package is training or material has yet to be determined.	52241413	1473281299085	1473281299260	i	73
100654	1098365	Whether that package is training or material has yet to be determined.	Whether that package is training or material has yet to be determined.	52241444	1473281299162	1473281299321	n	78
100654	1098365	Whether that package is training or material has yet to be determined.	Whether that package is training or material has yet to be determined.	52241450	1473281299222	1473281299349	g	71
100654	1098365	Whether that package is training or material has yet to be determined.	Whether that package is training or material has yet to be determined.	52241454	1473281299315	1473281299480	 	32
100654	1098365	Whether that package is training or material has yet to be determined.	Whether that package is training or material has yet to be determined.	52241459	1473281299846	1473281299949	o	79
100654	1098365	Whether that package is training or material has yet to be determined.	Whether that package is training or material has yet to be determined.	52241464	1473281299939	1473281300058	r	82
100654	1098365	Whether that package is training or material has yet to be determined.	Whether that package is training or material has yet to be determined.	52241472	1473281300024	1473281300141	 	32
100654	1098365	Whether that package is training or material has yet to be determined.	Whether that package is training or material has yet to be determined.	52241476	1473281300176	1473281300313	m	77
100654	1098365	Whether that package is training or material has yet to be determined.	Whether that package is training or material has yet to be determined.	52241522	1473281300257	1473281300406	a	65
100654	1098365	Whether that package is training or material has yet to be determined.	Whether that package is training or material has yet to be determined.	52241524	1473281300567	1473281300692	t	84
100654	1098365	Whether that package is training or material has yet to be determined.	Whether that package is training or material has yet to be determined.	52241529	1473281300757	1473281300912	e	69
100654	1098365	Whether that package is training or material has yet to be determined.	Whether that package is training or material has yet to be determined.	52241535	1473281300825	1473281300974	r	82
100654	1098365	Whether that package is training or material has yet to be determined.	Whether that package is training or material has yet to be determined.	52241539	1473281301383	1473281301532	i	73
100654	1098365	Whether that package is training or material has yet to be determined.	Whether that package is training or material has yet to be determined.	52241595	1473281301485	1473281301641	a	65
100654	1098365	Whether that package is training or material has yet to be determined.	Whether that package is training or material has yet to be determined.	52241599	1473281301607	1473281301837	l	76
100654	1098365	Whether that package is training or material has yet to be determined.	Whether that package is training or material has yet to be determined.	52241601	1473281301726	1473281301914	 	32
100654	1098365	Whether that package is training or material has yet to be determined.	Whether that package is training or material has yet to be determined.	52241604	1473281302285	1473281302415	h	72
100654	1098365	Whether that package is training or material has yet to be determined.	Whether that package is training or material has yet to be determined.	52241606	1473281302373	1473281302502	a	65
100654	1098365	Whether that package is training or material has yet to be determined.	Whether that package is training or material has yet to be determined.	52241609	1473281302582	1473281302681	s	83
100654	1098365	Whether that package is training or material has yet to be determined.	Whether that package is training or material has yet to be determined.	52241637	1473281302711	1473281302875	 	32
100654	1098365	Whether that package is training or material has yet to be determined.	Whether that package is training or material has yet to be determined.	52241639	1473281302958	1473281303080	y	89
100654	1098365	Whether that package is training or material has yet to be determined.	Whether that package is training or material has yet to be determined.	52241641	1473281303053	1473281303222	e	69
100654	1098365	Whether that package is training or material has yet to be determined.	Whether that package is training or material has yet to be determined.	52241644	1473281303162	1473281303302	t	84
100654	1098365	Whether that package is training or material has yet to be determined.	Whether that package is training or material has yet to be determined.	52241663	1473281303267	1473281303421	 	32
100654	1098365	Whether that package is training or material has yet to be determined.	Whether that package is training or material has yet to be determined.	52241666	1473281303452	1473281303602	t	84
100654	1098365	Whether that package is training or material has yet to be determined.	Whether that package is training or material has yet to be determined.	52241668	1473281303535	1473281303748	o	79
100654	1098365	Whether that package is training or material has yet to be determined.	Whether that package is training or material has yet to be determined.	52241673	1473281303608	1473281303784	 	32
100654	1098365	Whether that package is training or material has yet to be determined.	Whether that package is training or material has yet to be determined.	52241676	1473281303827	1473281303955	b	66
100654	1098365	Whether that package is training or material has yet to be determined.	Whether that package is training or material has yet to be determined.	52241723	1473281303913	1473281304055	e	69
100654	1098365	Whether that package is training or material has yet to be determined.	Whether that package is training or material has yet to be determined.	52241727	1473281303999	1473281304145	 	32
100654	1098365	Whether that package is training or material has yet to be determined.	Whether that package is training or material has yet to be determined.	52241734	1473281304336	1473281304443	d	68
100654	1098365	Whether that package is training or material has yet to be determined.	Whether that package is training or material has yet to be determined.	52241742	1473281304519	1473281304723	e	69
100654	1098365	Whether that package is training or material has yet to be determined.	Whether that package is training or material has yet to be determined.	52241751	1473281304832	1473281304949	t	84
100654	1098365	Whether that package is training or material has yet to be determined.	Whether that package is training or material has yet to be determined.	52241759	1473281305023	1473281305199	e	69
100654	1098365	Whether that package is training or material has yet to be determined.	Whether that package is training or material has yet to be determined.	52241789	1473281305093	1473281305245	r	82
100654	1098365	Whether that package is training or material has yet to be determined.	Whether that package is training or material has yet to be determined.	52241793	1473281305272	1473281305420	m	77
100654	1098365	Whether that package is training or material has yet to be determined.	Whether that package is training or material has yet to be determined.	52241798	1473281305396	1473281305613	i	73
100654	1098365	Whether that package is training or material has yet to be determined.	Whether that package is training or material has yet to be determined.	52241804	1473281305495	1473281305658	n	78
100654	1098365	Whether that package is training or material has yet to be determined.	Whether that package is training or material has yet to be determined.	52241810	1473281305607	1473281305755	e	69
100654	1098365	Whether that package is training or material has yet to be determined.	Whether that package is training or material has yet to be determined.	52241816	1473281305836	1473281305986	d	68
100654	1098365	Whether that package is training or material has yet to be determined.	Whether that package is training or material has yet to be determined.	52241842	1473281306006	1473281306085	.	190
100654	1098386	Let me know what you want to do.	Let me know what you want to do.	52242001	1473281307855	1473281308279	SHIFT	16
100654	1098386	Let me know what you want to do.	Let me know what you want to do.	52241998	1473281308054	1473281308258	L	76
100654	1098386	Let me know what you want to do.	Let me know what you want to do.	52242005	1473281308228	1473281308381	E	69
100654	1098386	Let me know what you want to do.	Let me know what you want to do.	52242008	1473281308415	1473281308547	t	84
100654	1098386	Let me know what you want to do.	Let me know what you want to do.	52242012	1473281308711	1473281308857	 	32
100654	1098386	Let me know what you want to do.	Let me know what you want to do.	52242017	1473281309006	1473281309084	BKSP	8
100654	1098386	Let me know what you want to do.	Let me know what you want to do.	52242026	1473281309122	1473281309184	BKSP	8
100654	1098386	Let me know what you want to do.	Let me know what you want to do.	52242033	1473281309220	1473281309296	BKSP	8
100654	1098386	Let me know what you want to do.	Let me know what you want to do.	52242039	1473281309353	1473281309521	e	69
100654	1098386	Let me know what you want to do.	Let me know what you want to do.	52242051	1473281309455	1473281309585	t	84
100654	1098386	Let me know what you want to do.	Let me know what you want to do.	52242053	1473281309550	1473281309684	 	32
100654	1098386	Let me know what you want to do.	Let me know what you want to do.	52242055	1473281309725	1473281309851	m	77
100654	1098386	Let me know what you want to do.	Let me know what you want to do.	52242059	1473281309820	1473281309931	e	69
100654	1098386	Let me know what you want to do.	Let me know what you want to do.	52242065	1473281309887	1473281310022	 	32
100654	1098386	Let me know what you want to do.	Let me know what you want to do.	52242069	1473281310026	1473281310202	k	75
100654	1098386	Let me know what you want to do.	Let me know what you want to do.	52242095	1473281310136	1473281310312	n	78
100654	1098386	Let me know what you want to do.	Let me know what you want to do.	52242098	1473281310251	1473281310399	o	79
100654	1098386	Let me know what you want to do.	Let me know what you want to do.	52242100	1473281310350	1473281310458	w	87
100654	1098386	Let me know what you want to do.	Let me know what you want to do.	52242103	1473281310436	1473281310568	 	32
100654	1098386	Let me know what you want to do.	Let me know what you want to do.	52242111	1473281310556	1473281310682	w	87
100654	1098386	Let me know what you want to do.	Let me know what you want to do.	52242115	1473281310686	1473281310787	h	72
100654	1098386	Let me know what you want to do.	Let me know what you want to do.	52242126	1473281310797	1473281310963	a	65
100654	1098386	Let me know what you want to do.	Let me know what you want to do.	52242132	1473281310880	1473281311019	t	84
100654	1098386	Let me know what you want to do.	Let me know what you want to do.	52242135	1473281310947	1473281311075	 	32
100654	1098386	Let me know what you want to do.	Let me know what you want to do.	52242138	1473281311111	1473281311247	y	89
100654	1098386	Let me know what you want to do.	Let me know what you want to do.	52242195	1473281311160	1473281311386	o	79
100654	1098386	Let me know what you want to do.	Let me know what you want to do.	52242201	1473281311250	1473281311413	u	85
100654	1098386	Let me know what you want to do.	Let me know what you want to do.	52242205	1473281311332	1473281311493	 	32
100654	1098386	Let me know what you want to do.	Let me know what you want to do.	52242209	1473281311587	1473281311711	w	87
100654	1098386	Let me know what you want to do.	Let me know what you want to do.	52242212	1473281311750	1473281311898	a	65
100654	1098386	Let me know what you want to do.	Let me know what you want to do.	52242223	1473281311856	1473281311960	n	78
100654	1098386	Let me know what you want to do.	Let me know what you want to do.	52242224	1473281311947	1473281312044	t	84
100654	1098386	Let me know what you want to do.	Let me know what you want to do.	52242225	1473281312032	1473281312148	 	32
100654	1098386	Let me know what you want to do.	Let me know what you want to do.	52242227	1473281312123	1473281312254	t	84
100654	1098386	Let me know what you want to do.	Let me know what you want to do.	52242231	1473281312187	1473281312391	o	79
100654	1098386	Let me know what you want to do.	Let me know what you want to do.	52242314	1473281312284	1473281312431	 	32
100654	1098386	Let me know what you want to do.	Let me know what you want to do.	52242316	1473281312522	1473281312651	d	68
100654	1098386	Let me know what you want to do.	Let me know what you want to do.	52242318	1473281312617	1473281312803	o	79
100654	1098386	Let me know what you want to do.	Let me know what you want to do.	52242321	1473281312699	1473281312810	 	32
100654	1098386	Let me know what you want to do.	Let me know what you want to do.	52242323	1473281312994	1473281313089	]	221
100654	1098386	Let me know what you want to do.	Let me know what you want to do.	52242325	1473281313399	1473281313483	BKSP	8
100654	1098386	Let me know what you want to do.	Let me know what you want to do.	52242328	1473281313523	1473281313614	BKSP	8
100654	1098386	Let me know what you want to do.	Let me know what you want to do.	52242332	1473281314075	1473281314172	/	191
100654	1098386	Let me know what you want to do.	Let me know what you want to do.	52242401	1473281314608	1473281314681	.	190
100654	1098386	Let me know what you want to do.	Let me know what you want to do.	52242403	1473281314792	1473281314914	BKSP	8
100654	1098386	Let me know what you want to do.	Let me know what you want to do.	52242406	1473281314965	1473281315053	BKSP	8
100654	1098386	Let me know what you want to do.	Let me know what you want to do.	52242407	1473281315512	1473281315608	.	190
100654	1098400	I would like to be on the list if possible.	I would like to be on the list if possible.	52242513	1473281317013	1473281317471	SHIFT	16
100654	1098400	I would like to be on the list if possible.	I would like to be on the list if possible.	52242509	1473281317273	1473281317435	I	73
100654	1098400	I would like to be on the list if possible.	I would like to be on the list if possible.	52242516	1473281317460	1473281317620	 	32
100654	1098400	I would like to be on the list if possible.	I would like to be on the list if possible.	52242520	1473281317629	1473281317750	o	87
100654	1098400	I would like to be on the list if possible.	I would like to be on the list if possible.	52242556	1473281317715	1473281317829	u	85
100654	1098400	I would like to be on the list if possible.	I would like to be on the list if possible.	52242560	1473281317885	1473281317984	l	76
100654	1098400	I would like to be on the list if possible.	I would like to be on the list if possible.	52242563	1473281317956	1473281318090	d	68
100654	1098400	I would like to be on the list if possible.	I would like to be on the list if possible.	52242565	1473281318032	1473281318195	 	32
100654	1098400	I would like to be on the list if possible.	I would like to be on the list if possible.	52242568	1473281318139	1473281318309	l	76
100654	1098400	I would like to be on the list if possible.	I would like to be on the list if possible.	52242588	1473281318224	1473281318356	i	73
100654	1098400	I would like to be on the list if possible.	I would like to be on the list if possible.	52242591	1473281318408	1473281318524	k	75
100654	1098400	I would like to be on the list if possible.	I would like to be on the list if possible.	52242596	1473281318489	1473281318634	e	69
100654	1098400	I would like to be on the list if possible.	I would like to be on the list if possible.	52242604	1473281318561	1473281318720	 	32
100654	1098400	I would like to be on the list if possible.	I would like to be on the list if possible.	52242613	1473281318731	1473281318848	t	84
100654	1098400	I would like to be on the list if possible.	I would like to be on the list if possible.	52242654	1473281318773	1473281319017	o	79
100654	1098400	I would like to be on the list if possible.	I would like to be on the list if possible.	52242659	1473281318864	1473281319040	 	32
100654	1098400	I would like to be on the list if possible.	I would like to be on the list if possible.	52242665	1473281319122	1473281319234	b	66
100654	1098400	I would like to be on the list if possible.	I would like to be on the list if possible.	52242669	1473281319208	1473281319359	e	69
100654	1098400	I would like to be on the list if possible.	I would like to be on the list if possible.	52242674	1473281319322	1473281319479	 	32
100654	1098400	I would like to be on the list if possible.	I would like to be on the list if possible.	52242700	1473281319459	1473281319682	o	79
100654	1098400	I would like to be on the list if possible.	I would like to be on the list if possible.	52242705	1473281319547	1473281319721	n	78
100654	1098400	I would like to be on the list if possible.	I would like to be on the list if possible.	52242709	1473281319619	1473281319777	 	32
100654	1098400	I would like to be on the list if possible.	I would like to be on the list if possible.	52242715	1473281319733	1473281319886	t	84
100654	1098400	I would like to be on the list if possible.	I would like to be on the list if possible.	52242723	1473281319811	1473281319930	h	72
100654	1098400	I would like to be on the list if possible.	I would like to be on the list if possible.	52242730	1473281320067	1473281320125	i	73
100654	1098400	I would like to be on the list if possible.	I would like to be on the list if possible.	52242768	1473281320362	1473281320447	BKSP	8
100654	1098400	I would like to be on the list if possible.	I would like to be on the list if possible.	52242770	1473281320454	1473281320585	e	69
100654	1098400	I would like to be on the list if possible.	I would like to be on the list if possible.	52242773	1473281320548	1473281320697	 	32
100654	1098400	I would like to be on the list if possible.	I would like to be on the list if possible.	52242779	1473281320737	1473281320864	l	76
100654	1098400	I would like to be on the list if possible.	I would like to be on the list if possible.	52242783	1473281320835	1473281320991	i	73
100654	1098400	I would like to be on the list if possible.	I would like to be on the list if possible.	52242787	1473281321044	1473281321224	s	83
100654	1098400	I would like to be on the list if possible.	I would like to be on the list if possible.	52242873	1473281321130	1473281321283	t	84
100654	1098400	I would like to be on the list if possible.	I would like to be on the list if possible.	52242876	1473281321213	1473281321375	 	32
100654	1098400	I would like to be on the list if possible.	I would like to be on the list if possible.	52242880	1473281321321	1473281321430	o	79
100654	1098400	I would like to be on the list if possible.	I would like to be on the list if possible.	52242885	1473281321613	1473281321691	BKSP	8
100654	1098400	I would like to be on the list if possible.	I would like to be on the list if possible.	52242889	1473281321807	1473281321873	u	85
100654	1098400	I would like to be on the list if possible.	I would like to be on the list if possible.	52242892	1473281321863	1473281321971	f	70
100654	1098400	I would like to be on the list if possible.	I would like to be on the list if possible.	52242895	1473281322038	1473281322183	 	32
100654	1098400	I would like to be on the list if possible.	I would like to be on the list if possible.	52242899	1473281322304	1473281322372	BKSP	8
100654	1098400	I would like to be on the list if possible.	I would like to be on the list if possible.	52242902	1473281322413	1473281322478	BKSP	8
100654	1098400	I would like to be on the list if possible.	I would like to be on the list if possible.	52242905	1473281322510	1473281322576	BKSP	8
100654	1098400	I would like to be on the list if possible.	I would like to be on the list if possible.	52242909	1473281322628	1473281322671	BKSP	8
100654	1098400	I would like to be on the list if possible.	I would like to be on the list if possible.	52242913	1473281322820	1473281322888	i	73
100654	1098400	I would like to be on the list if possible.	I would like to be on the list if possible.	52242946	1473281323070	1473281323115	BKSP	8
100654	1098400	I would like to be on the list if possible.	I would like to be on the list if possible.	52242949	1473281323489	1473281323649	 	32
100654	1098400	I would like to be on the list if possible.	I would like to be on the list if possible.	52242956	1473281323629	1473281323760	i	73
100654	1098400	I would like to be on the list if possible.	I would like to be on the list if possible.	52242963	1473281323748	1473281323878	f	70
100654	1098400	I would like to be on the list if possible.	I would like to be on the list if possible.	52242968	1473281323908	1473281324066	 	32
100654	1098400	I would like to be on the list if possible.	I would like to be on the list if possible.	52242975	1473281324143	1473281324271	p	80
100654	1098400	I would like to be on the list if possible.	I would like to be on the list if possible.	52242988	1473281324342	1473281324452	o	79
100654	1098400	I would like to be on the list if possible.	I would like to be on the list if possible.	52242993	1473281324612	1473281324719	s	83
100654	1098400	I would like to be on the list if possible.	I would like to be on the list if possible.	52242995	1473281324776	1473281324917	s	83
100654	1098400	I would like to be on the list if possible.	I would like to be on the list if possible.	52242998	1473281324853	1473281325062	i	73
100654	1098400	I would like to be on the list if possible.	I would like to be on the list if possible.	52243086	1473281324995	1473281325188	b	66
100654	1098400	I would like to be on the list if possible.	I would like to be on the list if possible.	52243089	1473281325113	1473281325263	l	76
100654	1098400	I would like to be on the list if possible.	I would like to be on the list if possible.	52243094	1473281325778	1473281325853	BKSP	8
100654	1098400	I would like to be on the list if possible.	I would like to be on the list if possible.	52243100	1473281325900	1473281326007	BKSP	8
100654	1098400	I would like to be on the list if possible.	I would like to be on the list if possible.	52243109	1473281326585	1473281326724	b	66
100654	1098400	I would like to be on the list if possible.	I would like to be on the list if possible.	52243114	1473281326657	1473281326789	l	76
100654	1098400	I would like to be on the list if possible.	I would like to be on the list if possible.	52243120	1473281326758	1473281326882	e	69
100654	1098400	I would like to be on the list if possible.	I would like to be on the list if possible.	52243122	1473281326947	1473281327051	.	190
100654	1098415	I'm looking forward to the long weekend!	I'm looking forward to the long weekend!	52243274	1473281328422	1473281328753	SHIFT	16
100654	1098415	I'm looking forward to the long weekend!	I'm looking forward to the long weekend!	52243279	1473281328682	1473281328848	I	73
100654	1098415	I'm looking forward to the long weekend!	I'm looking forward to the long weekend!	52243284	1473281329238	1473281329386	'	222
100654	1098415	I'm looking forward to the long weekend!	I'm looking forward to the long weekend!	52243288	1473281329857	1473281330037	m	77
100654	1098415	I'm looking forward to the long weekend!	I'm looking forward to the long weekend!	52243293	1473281329974	1473281330147	 	32
100654	1098415	I'm looking forward to the long weekend!	I'm looking forward to the long weekend!	52243337	1473281330088	1473281330205	l	76
100654	1098415	I'm looking forward to the long weekend!	I'm looking forward to the long weekend!	52243342	1473281330279	1473281330356	o	79
100654	1098415	I'm looking forward to the long weekend!	I'm looking forward to the long weekend!	52243347	1473281330435	1473281330552	o	79
100654	1098415	I'm looking forward to the long weekend!	I'm looking forward to the long weekend!	52243351	1473281330696	1473281330786	k	75
100654	1098415	I'm looking forward to the long weekend!	I'm looking forward to the long weekend!	52243356	1473281330947	1473281331119	i	73
100654	1098415	I'm looking forward to the long weekend!	I'm looking forward to the long weekend!	52243385	1473281331018	1473281331176	n	78
100654	1098415	I'm looking forward to the long weekend!	I'm looking forward to the long weekend!	52243387	1473281331125	1473281331249	g	71
100654	1098415	I'm looking forward to the long weekend!	I'm looking forward to the long weekend!	52243392	1473281331216	1473281331375	 	32
100654	1098415	I'm looking forward to the long weekend!	I'm looking forward to the long weekend!	52243395	1473281331378	1473281331502	f	70
100654	1098415	I'm looking forward to the long weekend!	I'm looking forward to the long weekend!	52243398	1473281331480	1473281331592	o	79
100654	1098415	I'm looking forward to the long weekend!	I'm looking forward to the long weekend!	52243467	1473281331564	1473281331694	r	82
100654	1098415	I'm looking forward to the long weekend!	I'm looking forward to the long weekend!	52243475	1473281331868	1473281332003	w	87
100654	1098415	I'm looking forward to the long weekend!	I'm looking forward to the long weekend!	52243479	1473281332101	1473281332291	a	65
100654	1098415	I'm looking forward to the long weekend!	I'm looking forward to the long weekend!	52243483	1473281332343	1473281332452	r	82
100654	1098415	I'm looking forward to the long weekend!	I'm looking forward to the long weekend!	52243487	1473281332527	1473281332680	d	68
100654	1098415	I'm looking forward to the long weekend!	I'm looking forward to the long weekend!	52243508	1473281332629	1473281332777	 	32
100654	1098415	I'm looking forward to the long weekend!	I'm looking forward to the long weekend!	52243511	1473281332865	1473281332999	t	84
100654	1098415	I'm looking forward to the long weekend!	I'm looking forward to the long weekend!	52243515	1473281332938	1473281333130	o	79
100654	1098415	I'm looking forward to the long weekend!	I'm looking forward to the long weekend!	52243518	1473281333021	1473281333158	 	32
100654	1098415	I'm looking forward to the long weekend!	I'm looking forward to the long weekend!	52243522	1473281333121	1473281333250	t	84
100654	1098415	I'm looking forward to the long weekend!	I'm looking forward to the long weekend!	52243534	1473281333216	1473281333351	h	72
100654	1098415	I'm looking forward to the long weekend!	I'm looking forward to the long weekend!	52243536	1473281333303	1473281333452	e	69
100654	1098415	I'm looking forward to the long weekend!	I'm looking forward to the long weekend!	52243538	1473281333390	1473281333544	 	32
100654	1098415	I'm looking forward to the long weekend!	I'm looking forward to the long weekend!	52243540	1473281333512	1473281333611	l	76
100654	1098415	I'm looking forward to the long weekend!	I'm looking forward to the long weekend!	52243543	1473281333673	1473281333901	o	79
100654	1098415	I'm looking forward to the long weekend!	I'm looking forward to the long weekend!	52243560	1473281333781	1473281333934	n	78
100654	1098415	I'm looking forward to the long weekend!	I'm looking forward to the long weekend!	52243562	1473281333874	1473281334006	g	71
100654	1098415	I'm looking forward to the long weekend!	I'm looking forward to the long weekend!	52243567	1473281334011	1473281334184	 	32
100654	1098415	I'm looking forward to the long weekend!	I'm looking forward to the long weekend!	52243573	1473281334198	1473281334391	w	87
100654	1098415	I'm looking forward to the long weekend!	I'm looking forward to the long weekend!	52243579	1473281334301	1473281334425	e	69
100654	1098415	I'm looking forward to the long weekend!	I'm looking forward to the long weekend!	52243583	1473281334511	1473281334634	e	69
100654	1098415	I'm looking forward to the long weekend!	I'm looking forward to the long weekend!	52243587	1473281334713	1473281334845	k	75
100654	1098415	I'm looking forward to the long weekend!	I'm looking forward to the long weekend!	52243677	1473281335085	1473281335212	e	69
100654	1098415	I'm looking forward to the long weekend!	I'm looking forward to the long weekend!	52243679	1473281335205	1473281335314	n	78
100654	1098415	I'm looking forward to the long weekend!	I'm looking forward to the long weekend!	52243680	1473281335299	1473281335436	d	68
100654	1098415	I'm looking forward to the long weekend!	I'm looking forward to the long weekend!	52243682	1473281335457	1473281335523	.	190
100654	1098415	I'm looking forward to the long weekend!	I'm looking forward to the long weekend!	52243684	1473281335850	1473281335949	BKSP	8
100654	1098415	I'm looking forward to the long weekend!	I'm looking forward to the long weekend!	52243687	1473281336735	1473281336900	!	49
100654	1098425	It will also protect the interest of the businessman.	It will also protect the interest of the businessman.	52243812	1473281338523	1473281338668	I	73
100654	1098425	It will also protect the interest of the businessman.	It will also protect the interest of the businessman.	52243817	1473281338639	1473281338764	t	84
100654	1098425	It will also protect the interest of the businessman.	It will also protect the interest of the businessman.	52243821	1473281338693	1473281338862	 	32
100654	1098425	It will also protect the interest of the businessman.	It will also protect the interest of the businessman.	52243825	1473281338868	1473281339016	w	87
100654	1098425	It will also protect the interest of the businessman.	It will also protect the interest of the businessman.	52243865	1473281338949	1473281339075	i	73
100654	1098425	It will also protect the interest of the businessman.	It will also protect the interest of the businessman.	52243869	1473281339128	1473281339217	l	76
100654	1098425	It will also protect the interest of the businessman.	It will also protect the interest of the businessman.	52243875	1473281339293	1473281339414	l	76
100654	1098425	It will also protect the interest of the businessman.	It will also protect the interest of the businessman.	52243883	1473281339431	1473281339557	 	32
100654	1098425	It will also protect the interest of the businessman.	It will also protect the interest of the businessman.	52243887	1473281339566	1473281339728	a	65
100654	1098425	It will also protect the interest of the businessman.	It will also protect the interest of the businessman.	52243911	1473281339690	1473281339811	l	76
100654	1098425	It will also protect the interest of the businessman.	It will also protect the interest of the businessman.	52243913	1473281339795	1473281339931	s	83
100654	1098425	It will also protect the interest of the businessman.	It will also protect the interest of the businessman.	52243915	1473281339935	1473281340172	o	79
100654	1098425	It will also protect the interest of the businessman.	It will also protect the interest of the businessman.	52243919	1473281340041	1473281340240	 	32
100654	1098425	It will also protect the interest of the businessman.	It will also protect the interest of the businessman.	52243923	1473281340296	1473281340400	p	80
100654	1098425	It will also protect the interest of the businessman.	It will also protect the interest of the businessman.	52243927	1473281340404	1473281340514	r	82
100654	1098425	It will also protect the interest of the businessman.	It will also protect the interest of the businessman.	52243989	1473281340529	1473281340611	o	79
100654	1098425	It will also protect the interest of the businessman.	It will also protect the interest of the businessman.	52243992	1473281340964	1473281341068	t	84
100654	1098425	It will also protect the interest of the businessman.	It will also protect the interest of the businessman.	52243995	1473281341146	1473281341258	e	69
100654	1098425	It will also protect the interest of the businessman.	It will also protect the interest of the businessman.	52243997	1473281341522	1473281341638	c	67
100654	1098425	It will also protect the interest of the businessman.	It will also protect the interest of the businessman.	52244002	1473281341742	1473281341832	t	84
100654	1098425	It will also protect the interest of the businessman.	It will also protect the interest of the businessman.	52244028	1473281341846	1473281341994	 	32
100654	1098425	It will also protect the interest of the businessman.	It will also protect the interest of the businessman.	52244029	1473281342041	1473281342149	t	84
100654	1098425	It will also protect the interest of the businessman.	It will also protect the interest of the businessman.	52244031	1473281342137	1473281342235	h	72
100654	1098425	It will also protect the interest of the businessman.	It will also protect the interest of the businessman.	52244033	1473281342239	1473281342331	e	69
100654	1098425	It will also protect the interest of the businessman.	It will also protect the interest of the businessman.	52244034	1473281342369	1473281342496	 	32
100654	1098425	It will also protect the interest of the businessman.	It will also protect the interest of the businessman.	52244048	1473281342545	1473281342748	i	73
100654	1098425	It will also protect the interest of the businessman.	It will also protect the interest of the businessman.	52244051	1473281342618	1473281342781	n	78
100654	1098425	It will also protect the interest of the businessman.	It will also protect the interest of the businessman.	52244054	1473281342764	1473281342862	t	84
100654	1098425	It will also protect the interest of the businessman.	It will also protect the interest of the businessman.	52244061	1473281342910	1473281343070	e	69
100654	1098425	It will also protect the interest of the businessman.	It will also protect the interest of the businessman.	52244110	1473281342992	1473281343141	r	82
100654	1098425	It will also protect the interest of the businessman.	It will also protect the interest of the businessman.	52244115	1473281343245	1473281343374	e	69
100654	1098425	It will also protect the interest of the businessman.	It will also protect the interest of the businessman.	52244121	1473281343478	1473281343590	s	83
100654	1098425	It will also protect the interest of the businessman.	It will also protect the interest of the businessman.	52244127	1473281343577	1473281343668	t	84
100654	1098425	It will also protect the interest of the businessman.	It will also protect the interest of the businessman.	52244133	1473281343747	1473281343897	 	32
100654	1098425	It will also protect the interest of the businessman.	It will also protect the interest of the businessman.	52244158	1473281343830	1473281343964	o	79
100654	1098425	It will also protect the interest of the businessman.	It will also protect the interest of the businessman.	52244163	1473281343920	1473281344030	f	70
100654	1098425	It will also protect the interest of the businessman.	It will also protect the interest of the businessman.	52244167	1473281344004	1473281344134	 	32
100654	1098425	It will also protect the interest of the businessman.	It will also protect the interest of the businessman.	52244171	1473281344125	1473281344229	t	84
100654	1098425	It will also protect the interest of the businessman.	It will also protect the interest of the businessman.	52244177	1473281344185	1473281344306	h	72
100654	1098425	It will also protect the interest of the businessman.	It will also protect the interest of the businessman.	52244184	1473281344311	1473281344426	e	69
100654	1098425	It will also protect the interest of the businessman.	It will also protect the interest of the businessman.	52244215	1473281344430	1473281344573	 	32
100654	1098425	It will also protect the interest of the businessman.	It will also protect the interest of the businessman.	52244219	1473281344649	1473281344815	b	66
100654	1098425	It will also protect the interest of the businessman.	It will also protect the interest of the businessman.	52244224	1473281344741	1473281344890	i	73
100654	1098425	It will also protect the interest of the businessman.	It will also protect the interest of the businessman.	52244229	1473281344850	1473281344976	s	83
100654	1098425	It will also protect the interest of the businessman.	It will also protect the interest of the businessman.	52244233	1473281345022	1473281345112	u	85
100654	1098425	It will also protect the interest of the businessman.	It will also protect the interest of the businessman.	52244320	1473281345346	1473281345428	BKSP	8
100654	1098425	It will also protect the interest of the businessman.	It will also protect the interest of the businessman.	52244324	1473281345453	1473281345536	BKSP	8
100654	1098425	It will also protect the interest of the businessman.	It will also protect the interest of the businessman.	52244328	1473281345547	1473281345620	BKSP	8
100654	1098425	It will also protect the interest of the businessman.	It will also protect the interest of the businessman.	52244331	1473281345886	1473281346002	u	85
100654	1098425	It will also protect the interest of the businessman.	It will also protect the interest of the businessman.	52244334	1473281346078	1473281346208	s	83
100654	1098425	It will also protect the interest of the businessman.	It will also protect the interest of the businessman.	52244335	1473281346215	1473281346350	i	73
100654	1098425	It will also protect the interest of the businessman.	It will also protect the interest of the businessman.	52244337	1473281346401	1473281346528	n	78
100654	1098425	It will also protect the interest of the businessman.	It will also protect the interest of the businessman.	52244343	1473281346532	1473281346633	e	69
100654	1098425	It will also protect the interest of the businessman.	It will also protect the interest of the businessman.	52244358	1473281346759	1473281346858	s	83
100654	1098425	It will also protect the interest of the businessman.	It will also protect the interest of the businessman.	52244360	1473281346915	1473281347040	s	83
100654	1098425	It will also protect the interest of the businessman.	It will also protect the interest of the businessman.	52244363	1473281347028	1473281347187	 	32
100654	1098425	It will also protect the interest of the businessman.	It will also protect the interest of the businessman.	52244369	1473281347224	1473281347330	m	77
100654	1098425	It will also protect the interest of the businessman.	It will also protect the interest of the businessman.	52244375	1473281347342	1473281347450	a	65
100654	1098425	It will also protect the interest of the businessman.	It will also protect the interest of the businessman.	52244526	1473281347568	1473281347648	BKSP	8
100654	1098425	It will also protect the interest of the businessman.	It will also protect the interest of the businessman.	52244530	1473281347689	1473281347929	BKSP	8
100654	1098425	It will also protect the interest of the businessman.	It will also protect the interest of the businessman.	52244532	1473281348020	1473281348125	BKSP	8
100654	1098425	It will also protect the interest of the businessman.	It will also protect the interest of the businessman.	52244535	1473281348497	1473281348601	m	77
100654	1098425	It will also protect the interest of the businessman.	It will also protect the interest of the businessman.	52244541	1473281348616	1473281348765	a	65
100654	1098425	It will also protect the interest of the businessman.	It will also protect the interest of the businessman.	52244544	1473281348733	1473281348832	n	78
100654	1098425	It will also protect the interest of the businessman.	It will also protect the interest of the businessman.	52244549	1473281348988	1473281349035	/	191
100654	1098425	It will also protect the interest of the businessman.	It will also protect the interest of the businessman.	52244553	1473281349469	1473281349569	BKSP	8
100654	1098425	It will also protect the interest of the businessman.	It will also protect the interest of the businessman.	52244557	1473281350256	1473281350346	.	190
100654	1098444	It would lessen that anxiety that the officers are faced with.	It would lessen that anxiety that the officers are faced with.	52244653	1473281351688	1473281351972	SHIFT	16
100654	1098444	It would lessen that anxiety that the officers are faced with.	It would lessen that anxiety that the officers are faced with.	52244657	1473281351897	1473281351999	I	73
100654	1098444	It would lessen that anxiety that the officers are faced with.	It would lessen that anxiety that the officers are faced with.	52244663	1473281352004	1473281352125	t	84
100654	1098444	It would lessen that anxiety that the officers are faced with.	It would lessen that anxiety that the officers are faced with.	52244670	1473281352060	1473281352198	 	32
100654	1098444	It would lessen that anxiety that the officers are faced with.	It would lessen that anxiety that the officers are faced with.	52244678	1473281352206	1473281352319	w	87
100654	1098444	It would lessen that anxiety that the officers are faced with.	It would lessen that anxiety that the officers are faced with.	52244721	1473281352233	1473281352394	o	79
100654	1098444	It would lessen that anxiety that the officers are faced with.	It would lessen that anxiety that the officers are faced with.	52244726	1473281352304	1473281352425	u	85
100654	1098444	It would lessen that anxiety that the officers are faced with.	It would lessen that anxiety that the officers are faced with.	52244731	1473281352473	1473281352595	l	76
100654	1098444	It would lessen that anxiety that the officers are faced with.	It would lessen that anxiety that the officers are faced with.	52244736	1473281352573	1473281352719	d	68
100654	1098444	It would lessen that anxiety that the officers are faced with.	It would lessen that anxiety that the officers are faced with.	52244741	1473281352678	1473281352823	 	32
100654	1098444	It would lessen that anxiety that the officers are faced with.	It would lessen that anxiety that the officers are faced with.	52244746	1473281353147	1473281353267	l	76
100654	1098444	It would lessen that anxiety that the officers are faced with.	It would lessen that anxiety that the officers are faced with.	52244780	1473281353255	1473281353334	e	69
100654	1098444	It would lessen that anxiety that the officers are faced with.	It would lessen that anxiety that the officers are faced with.	52244785	1473281353471	1473281353577	s	83
100654	1098444	It would lessen that anxiety that the officers are faced with.	It would lessen that anxiety that the officers are faced with.	52244792	1473281353647	1473281353769	s	83
100654	1098444	It would lessen that anxiety that the officers are faced with.	It would lessen that anxiety that the officers are faced with.	52244798	1473281353815	1473281353939	e	69
100654	1098444	It would lessen that anxiety that the officers are faced with.	It would lessen that anxiety that the officers are faced with.	52244806	1473281354030	1473281354233	n	78
100654	1098444	It would lessen that anxiety that the officers are faced with.	It would lessen that anxiety that the officers are faced with.	52244815	1473281354120	1473281354292	 	32
100654	1098444	It would lessen that anxiety that the officers are faced with.	It would lessen that anxiety that the officers are faced with.	52244816	1473281354285	1473281354405	t	84
100654	1098444	It would lessen that anxiety that the officers are faced with.	It would lessen that anxiety that the officers are faced with.	52244817	1473281354381	1473281354495	h	72
100654	1098444	It would lessen that anxiety that the officers are faced with.	It would lessen that anxiety that the officers are faced with.	52244818	1473281354442	1473281354625	a	65
100654	1098444	It would lessen that anxiety that the officers are faced with.	It would lessen that anxiety that the officers are faced with.	52244902	1473281354528	1473281354667	t	84
100654	1098444	It would lessen that anxiety that the officers are faced with.	It would lessen that anxiety that the officers are faced with.	52244904	1473281354618	1473281354768	 	32
100654	1098444	It would lessen that anxiety that the officers are faced with.	It would lessen that anxiety that the officers are faced with.	52244906	1473281354912	1473281355079	a	65
100654	1098444	It would lessen that anxiety that the officers are faced with.	It would lessen that anxiety that the officers are faced with.	52244908	1473281355188	1473281355339	x	88
100654	1098444	It would lessen that anxiety that the officers are faced with.	It would lessen that anxiety that the officers are faced with.	52244910	1473281355542	1473281355623	BKSP	8
100654	1098444	It would lessen that anxiety that the officers are faced with.	It would lessen that anxiety that the officers are faced with.	52244912	1473281355719	1473281355832	n	78
100654	1098444	It would lessen that anxiety that the officers are faced with.	It would lessen that anxiety that the officers are faced with.	52244915	1473281355971	1473281356131	x	88
100654	1098444	It would lessen that anxiety that the officers are faced with.	It would lessen that anxiety that the officers are faced with.	52244920	1473281356339	1473281356428	i	73
100654	1098444	It would lessen that anxiety that the officers are faced with.	It would lessen that anxiety that the officers are faced with.	52244964	1473281356421	1473281356567	e	69
100654	1098444	It would lessen that anxiety that the officers are faced with.	It would lessen that anxiety that the officers are faced with.	52244968	1473281356659	1473281356756	t	84
100654	1098444	It would lessen that anxiety that the officers are faced with.	It would lessen that anxiety that the officers are faced with.	52244969	1473281357138	1473281357307	y	89
100654	1098444	It would lessen that anxiety that the officers are faced with.	It would lessen that anxiety that the officers are faced with.	52244974	1473281357285	1473281357445	 	32
100654	1098444	It would lessen that anxiety that the officers are faced with.	It would lessen that anxiety that the officers are faced with.	52244981	1473281357517	1473281357639	t	84
100654	1098444	It would lessen that anxiety that the officers are faced with.	It would lessen that anxiety that the officers are faced with.	52245016	1473281357577	1473281357711	h	72
100654	1098444	It would lessen that anxiety that the officers are faced with.	It would lessen that anxiety that the officers are faced with.	52245018	1473281357658	1473281357829	a	65
100654	1098444	It would lessen that anxiety that the officers are faced with.	It would lessen that anxiety that the officers are faced with.	52245020	1473281357731	1473281357880	t	84
100654	1098444	It would lessen that anxiety that the officers are faced with.	It would lessen that anxiety that the officers are faced with.	52245023	1473281357822	1473281357972	 	32
100654	1098444	It would lessen that anxiety that the officers are faced with.	It would lessen that anxiety that the officers are faced with.	52245026	1473281358165	1473281358301	t	84
100654	1098444	It would lessen that anxiety that the officers are faced with.	It would lessen that anxiety that the officers are faced with.	52245040	1473281358269	1473281358395	h	72
100654	1098444	It would lessen that anxiety that the officers are faced with.	It would lessen that anxiety that the officers are faced with.	52245042	1473281358373	1473281358514	e	69
100654	1098444	It would lessen that anxiety that the officers are faced with.	It would lessen that anxiety that the officers are faced with.	52245044	1473281358467	1473281358624	 	32
100654	1098444	It would lessen that anxiety that the officers are faced with.	It would lessen that anxiety that the officers are faced with.	52245047	1473281358589	1473281358738	o	79
100654	1098444	It would lessen that anxiety that the officers are faced with.	It would lessen that anxiety that the officers are faced with.	52245051	1473281358731	1473281358819	f	70
100654	1098444	It would lessen that anxiety that the officers are faced with.	It would lessen that anxiety that the officers are faced with.	52245054	1473281358876	1473281358994	f	70
100654	1098444	It would lessen that anxiety that the officers are faced with.	It would lessen that anxiety that the officers are faced with.	52245098	1473281359103	1473281359289	e	69
100654	1098444	It would lessen that anxiety that the officers are faced with.	It would lessen that anxiety that the officers are faced with.	52245101	1473281359707	1473281359797	BKSP	8
100654	1098444	It would lessen that anxiety that the officers are faced with.	It would lessen that anxiety that the officers are faced with.	52245105	1473281359948	1473281360038	i	73
100654	1098444	It would lessen that anxiety that the officers are faced with.	It would lessen that anxiety that the officers are faced with.	52245107	1473281360050	1473281360164	c	67
100654	1098444	It would lessen that anxiety that the officers are faced with.	It would lessen that anxiety that the officers are faced with.	52245111	1473281360222	1473281360403	e	69
100654	1098444	It would lessen that anxiety that the officers are faced with.	It would lessen that anxiety that the officers are faced with.	52245138	1473281360321	1473281360466	r	82
100654	1098444	It would lessen that anxiety that the officers are faced with.	It would lessen that anxiety that the officers are faced with.	52245143	1473281360522	1473281360684	s	83
100654	1098444	It would lessen that anxiety that the officers are faced with.	It would lessen that anxiety that the officers are faced with.	52245150	1473281360658	1473281360812	 	32
100654	1098444	It would lessen that anxiety that the officers are faced with.	It would lessen that anxiety that the officers are faced with.	52245156	1473281360841	1473281361008	a	65
100654	1098444	It would lessen that anxiety that the officers are faced with.	It would lessen that anxiety that the officers are faced with.	52245159	1473281360936	1473281361155	r	82
100654	1098444	It would lessen that anxiety that the officers are faced with.	It would lessen that anxiety that the officers are faced with.	52245261	1473281361041	1473281361209	e	69
100654	1098444	It would lessen that anxiety that the officers are faced with.	It would lessen that anxiety that the officers are faced with.	52245266	1473281361132	1473281361277	 	32
100654	1098444	It would lessen that anxiety that the officers are faced with.	It would lessen that anxiety that the officers are faced with.	52245271	1473281361637	1473281361780	f	70
100654	1098444	It would lessen that anxiety that the officers are faced with.	It would lessen that anxiety that the officers are faced with.	52245275	1473281361756	1473281361963	a	65
100654	1098444	It would lessen that anxiety that the officers are faced with.	It would lessen that anxiety that the officers are faced with.	52245279	1473281361902	1473281362104	c	67
100654	1098444	It would lessen that anxiety that the officers are faced with.	It would lessen that anxiety that the officers are faced with.	52245283	1473281362052	1473281362219	e	69
100654	1098444	It would lessen that anxiety that the officers are faced with.	It would lessen that anxiety that the officers are faced with.	52245289	1473281362295	1473281362426	d	68
100654	1098444	It would lessen that anxiety that the officers are faced with.	It would lessen that anxiety that the officers are faced with.	52245259	1473281362359	1473281362508	 	32
100654	1098444	It would lessen that anxiety that the officers are faced with.	It would lessen that anxiety that the officers are faced with.	52245263	1473281362482	1473281362623	w	87
100654	1098444	It would lessen that anxiety that the officers are faced with.	It would lessen that anxiety that the officers are faced with.	52245267	1473281362552	1473281362655	i	73
100654	1098444	It would lessen that anxiety that the officers are faced with.	It would lessen that anxiety that the officers are faced with.	52245270	1473281362665	1473281362802	t	84
100654	1098444	It would lessen that anxiety that the officers are faced with.	It would lessen that anxiety that the officers are faced with.	52245274	1473281362721	1473281362831	h	72
100654	1098444	It would lessen that anxiety that the officers are faced with.	It would lessen that anxiety that the officers are faced with.	52245276	1473281362961	1473281363042	.	190
100654	1098458	Tonight is my anniversary.	Tonight is my anniversary.	52245369	1473281364990	1473281365235	SHIFT	16
100654	1098458	Tonight is my anniversary.	Tonight is my anniversary.	52245374	1473281365154	1473281365283	T	84
100654	1098458	Tonight is my anniversary.	Tonight is my anniversary.	52245380	1473281365273	1473281365417	o	79
100654	1098458	Tonight is my anniversary.	Tonight is my anniversary.	52245383	1473281365665	1473281365821	n	78
100654	1098458	Tonight is my anniversary.	Tonight is my anniversary.	52245385	1473281365774	1473281365926	i	73
100654	1098458	Tonight is my anniversary.	Tonight is my anniversary.	52245405	1473281365906	1473281366031	g	71
100654	1098458	Tonight is my anniversary.	Tonight is my anniversary.	52245407	1473281365965	1473281366096	h	72
100654	1098458	Tonight is my anniversary.	Tonight is my anniversary.	52245410	1473281366106	1473281366228	t	84
100654	1098458	Tonight is my anniversary.	Tonight is my anniversary.	52245413	1473281366203	1473281366397	 	32
100654	1098458	Tonight is my anniversary.	Tonight is my anniversary.	52245416	1473281366330	1473281366516	i	73
100654	1098458	Tonight is my anniversary.	Tonight is my anniversary.	52245421	1473281366596	1473281366747	s	83
100654	1098458	Tonight is my anniversary.	Tonight is my anniversary.	52245451	1473281366690	1473281366843	 	32
100654	1098458	Tonight is my anniversary.	Tonight is my anniversary.	52245452	1473281366889	1473281366977	a	65
100654	1098458	Tonight is my anniversary.	Tonight is my anniversary.	52245454	1473281367220	1473281367286	BKSP	8
100654	1098458	Tonight is my anniversary.	Tonight is my anniversary.	52245456	1473281367392	1473281367493	m	77
100654	1098458	Tonight is my anniversary.	Tonight is my anniversary.	52245459	1473281367468	1473281367566	y	89
100654	1098458	Tonight is my anniversary.	Tonight is my anniversary.	52245462	1473281367578	1473281367695	 	32
100654	1098458	Tonight is my anniversary.	Tonight is my anniversary.	52245507	1473281367667	1473281367791	a	65
100654	1098458	Tonight is my anniversary.	Tonight is my anniversary.	52245512	1473281367779	1473281367871	n	78
100654	1098458	Tonight is my anniversary.	Tonight is my anniversary.	52245516	1473281368024	1473281368124	i	73
100654	1098458	Tonight is my anniversary.	Tonight is my anniversary.	52245519	1473281368369	1473281368445	BKSP	8
100654	1098458	Tonight is my anniversary.	Tonight is my anniversary.	52245524	1473281368548	1473281368711	n	78
100654	1098458	Tonight is my anniversary.	Tonight is my anniversary.	52245527	1473281368653	1473281368811	i	73
100654	1098458	Tonight is my anniversary.	Tonight is my anniversary.	52245530	1473281369193	1473281369319	e	69
100654	1098458	Tonight is my anniversary.	Tonight is my anniversary.	52245585	1473281369511	1473281369595	BKSP	8
100654	1098458	Tonight is my anniversary.	Tonight is my anniversary.	52245588	1473281369640	1473281369775	v	86
100654	1098458	Tonight is my anniversary.	Tonight is my anniversary.	52245593	1473281369859	1473281370039	e	69
100654	1098458	Tonight is my anniversary.	Tonight is my anniversary.	52245600	1473281369940	1473281370089	r	82
100654	1098458	Tonight is my anniversary.	Tonight is my anniversary.	52245604	1473281370151	1473281370282	s	83
100654	1098458	Tonight is my anniversary.	Tonight is my anniversary.	52245606	1473281370356	1473281370523	a	65
100654	1098458	Tonight is my anniversary.	Tonight is my anniversary.	52245625	1473281370461	1473281370605	r	82
100654	1098458	Tonight is my anniversary.	Tonight is my anniversary.	52245627	1473281370638	1473281370736	y	89
100654	1098458	Tonight is my anniversary.	Tonight is my anniversary.	52245631	1473281371272	1473281371385	.	190
100654	1098465	I was a bit rusty but I didn't want to miss the elections back home.	I was a bit rusty but I didn't want to miss the elections back home.	52245734	1473281372781	1473281373074	SHIFT	16
100654	1098465	I was a bit rusty but I didn't want to miss the elections back home.	I was a bit rusty but I didn't want to miss the elections back home.	52245738	1473281372995	1473281373166	I	73
100654	1098465	I was a bit rusty but I didn't want to miss the elections back home.	I was a bit rusty but I didn't want to miss the elections back home.	52245741	1473281373114	1473281373257	 	32
100654	1098465	I was a bit rusty but I didn't want to miss the elections back home.	I was a bit rusty but I didn't want to miss the elections back home.	52245743	1473281373238	1473281373345	w	87
100654	1098465	I was a bit rusty but I didn't want to miss the elections back home.	I was a bit rusty but I didn't want to miss the elections back home.	52245745	1473281373416	1473281373611	a	65
100654	1098465	I was a bit rusty but I didn't want to miss the elections back home.	I was a bit rusty but I didn't want to miss the elections back home.	52245774	1473281373480	1473281373675	s	83
100654	1098465	I was a bit rusty but I didn't want to miss the elections back home.	I was a bit rusty but I didn't want to miss the elections back home.	52245778	1473281373627	1473281373780	 	32
100654	1098465	I was a bit rusty but I didn't want to miss the elections back home.	I was a bit rusty but I didn't want to miss the elections back home.	52245781	1473281373843	1473281373989	a	65
100654	1098465	I was a bit rusty but I didn't want to miss the elections back home.	I was a bit rusty but I didn't want to miss the elections back home.	52245784	1473281373966	1473281374116	 	32
100654	1098465	I was a bit rusty but I didn't want to miss the elections back home.	I was a bit rusty but I didn't want to miss the elections back home.	52245787	1473281374252	1473281374431	b	66
100654	1098465	I was a bit rusty but I didn't want to miss the elections back home.	I was a bit rusty but I didn't want to miss the elections back home.	52245805	1473281374342	1473281374510	i	73
100654	1098465	I was a bit rusty but I didn't want to miss the elections back home.	I was a bit rusty but I didn't want to miss the elections back home.	52245808	1473281374457	1473281374588	t	84
100654	1098465	I was a bit rusty but I didn't want to miss the elections back home.	I was a bit rusty but I didn't want to miss the elections back home.	52245812	1473281374557	1473281374720	 	32
100654	1098465	I was a bit rusty but I didn't want to miss the elections back home.	I was a bit rusty but I didn't want to miss the elections back home.	52245815	1473281374850	1473281374994	r	82
100654	1098465	I was a bit rusty but I didn't want to miss the elections back home.	I was a bit rusty but I didn't want to miss the elections back home.	52245818	1473281375002	1473281375131	u	85
100654	1098465	I was a bit rusty but I didn't want to miss the elections back home.	I was a bit rusty but I didn't want to miss the elections back home.	52245861	1473281375103	1473281375275	s	83
100654	1098465	I was a bit rusty but I didn't want to miss the elections back home.	I was a bit rusty but I didn't want to miss the elections back home.	52245862	1473281375287	1473281375405	t	84
100654	1098465	I was a bit rusty but I didn't want to miss the elections back home.	I was a bit rusty but I didn't want to miss the elections back home.	52245863	1473281375474	1473281375649	y	89
100654	1098465	I was a bit rusty but I didn't want to miss the elections back home.	I was a bit rusty but I didn't want to miss the elections back home.	52245864	1473281375582	1473281375754	 	32
100654	1098465	I was a bit rusty but I didn't want to miss the elections back home.	I was a bit rusty but I didn't want to miss the elections back home.	52245866	1473281376080	1473281376199	b	66
100654	1098465	I was a bit rusty but I didn't want to miss the elections back home.	I was a bit rusty but I didn't want to miss the elections back home.	52245870	1473281376251	1473281376384	u	85
100654	1098465	I was a bit rusty but I didn't want to miss the elections back home.	I was a bit rusty but I didn't want to miss the elections back home.	52245896	1473281376392	1473281376511	t	84
100654	1098465	I was a bit rusty but I didn't want to miss the elections back home.	I was a bit rusty but I didn't want to miss the elections back home.	52245898	1473281376459	1473281376636	 	32
100654	1098465	I was a bit rusty but I didn't want to miss the elections back home.	I was a bit rusty but I didn't want to miss the elections back home.	52245902	1473281376639	1473281376830	i	73
100654	1098465	I was a bit rusty but I didn't want to miss the elections back home.	I was a bit rusty but I didn't want to miss the elections back home.	52245906	1473281376732	1473281376857	 	32
100654	1098465	I was a bit rusty but I didn't want to miss the elections back home.	I was a bit rusty but I didn't want to miss the elections back home.	52245910	1473281376991	1473281377071	BKSP	8
100654	1098465	I was a bit rusty but I didn't want to miss the elections back home.	I was a bit rusty but I didn't want to miss the elections back home.	52245916	1473281377105	1473281377259	BKSP	8
100654	1098465	I was a bit rusty but I didn't want to miss the elections back home.	I was a bit rusty but I didn't want to miss the elections back home.	52245921	1473281377326	1473281377561	SHIFT	16
100654	1098465	I was a bit rusty but I didn't want to miss the elections back home.	I was a bit rusty but I didn't want to miss the elections back home.	52246023	1473281377485	1473281377611	I	85
100654	1098465	I was a bit rusty but I didn't want to miss the elections back home.	I was a bit rusty but I didn't want to miss the elections back home.	52246027	1473281377615	1473281377767	 	32
100654	1098465	I was a bit rusty but I didn't want to miss the elections back home.	I was a bit rusty but I didn't want to miss the elections back home.	52246033	1473281377754	1473281377877	d	68
100654	1098465	I was a bit rusty but I didn't want to miss the elections back home.	I was a bit rusty but I didn't want to miss the elections back home.	52246039	1473281378216	1473281378283	BKSP	8
100654	1098465	I was a bit rusty but I didn't want to miss the elections back home.	I was a bit rusty but I didn't want to miss the elections back home.	52246042	1473281378316	1473281378392	BKSP	8
100654	1098465	I was a bit rusty but I didn't want to miss the elections back home.	I was a bit rusty but I didn't want to miss the elections back home.	52246045	1473281378435	1473281378477	BKSP	8
100654	1098465	I was a bit rusty but I didn't want to miss the elections back home.	I was a bit rusty but I didn't want to miss the elections back home.	52246048	1473281378511	1473281378591	BKSP	8
100654	1098465	I was a bit rusty but I didn't want to miss the elections back home.	I was a bit rusty but I didn't want to miss the elections back home.	52246051	1473281378621	1473281378686	BKSP	8
100654	1098465	I was a bit rusty but I didn't want to miss the elections back home.	I was a bit rusty but I didn't want to miss the elections back home.	52246054	1473281378817	1473281378957	SHIFT	16
100654	1098465	I was a bit rusty but I didn't want to miss the elections back home.	I was a bit rusty but I didn't want to miss the elections back home.	52246056	1473281379028	1473281379202	 	32
100654	1098465	I was a bit rusty but I didn't want to miss the elections back home.	I was a bit rusty but I didn't want to miss the elections back home.	52246061	1473281379186	1473281379459	SHIFT	16
100654	1098465	I was a bit rusty but I didn't want to miss the elections back home.	I was a bit rusty but I didn't want to miss the elections back home.	52246063	1473281379341	1473281379550	I	73
100654	1098465	I was a bit rusty but I didn't want to miss the elections back home.	I was a bit rusty but I didn't want to miss the elections back home.	52246113	1473281379475	1473281379652	 	32
100654	1098465	I was a bit rusty but I didn't want to miss the elections back home.	I was a bit rusty but I didn't want to miss the elections back home.	52246116	1473281379722	1473281379849	d	68
100654	1098465	I was a bit rusty but I didn't want to miss the elections back home.	I was a bit rusty but I didn't want to miss the elections back home.	52246119	1473281379831	1473281379921	i	73
100654	1098465	I was a bit rusty but I didn't want to miss the elections back home.	I was a bit rusty but I didn't want to miss the elections back home.	52246122	1473281379913	1473281380012	d	68
100654	1098465	I was a bit rusty but I didn't want to miss the elections back home.	I was a bit rusty but I didn't want to miss the elections back home.	52246125	1473281380684	1473281380788	n	78
100654	1098465	I was a bit rusty but I didn't want to miss the elections back home.	I was a bit rusty but I didn't want to miss the elections back home.	52246127	1473281381149	1473281381256	'	222
100654	1098465	I was a bit rusty but I didn't want to miss the elections back home.	I was a bit rusty but I didn't want to miss the elections back home.	52246133	1473281381230	1473281381378	t	84
100654	1098465	I was a bit rusty but I didn't want to miss the elections back home.	I was a bit rusty but I didn't want to miss the elections back home.	52246135	1473281381386	1473281381576	 	32
100654	1098465	I was a bit rusty but I didn't want to miss the elections back home.	I was a bit rusty but I didn't want to miss the elections back home.	52246138	1473281381508	1473281381657	w	87
100654	1098465	I was a bit rusty but I didn't want to miss the elections back home.	I was a bit rusty but I didn't want to miss the elections back home.	52246140	1473281381721	1473281381872	a	65
100654	1098465	I was a bit rusty but I didn't want to miss the elections back home.	I was a bit rusty but I didn't want to miss the elections back home.	52246142	1473281381865	1473281381994	n	78
100654	1098465	I was a bit rusty but I didn't want to miss the elections back home.	I was a bit rusty but I didn't want to miss the elections back home.	52246151	1473281381970	1473281382091	t	84
100654	1098465	I was a bit rusty but I didn't want to miss the elections back home.	I was a bit rusty but I didn't want to miss the elections back home.	52246154	1473281382063	1473281382217	 	32
100654	1098465	I was a bit rusty but I didn't want to miss the elections back home.	I was a bit rusty but I didn't want to miss the elections back home.	52246158	1473281382175	1473281382318	t	84
100654	1098465	I was a bit rusty but I didn't want to miss the elections back home.	I was a bit rusty but I didn't want to miss the elections back home.	52246163	1473281382246	1473281382437	o	79
100654	1098465	I was a bit rusty but I didn't want to miss the elections back home.	I was a bit rusty but I didn't want to miss the elections back home.	52246167	1473281382307	1473281382470	 	32
100654	1098465	I was a bit rusty but I didn't want to miss the elections back home.	I was a bit rusty but I didn't want to miss the elections back home.	52246174	1473281382488	1473281382693	m	77
100654	1098465	I was a bit rusty but I didn't want to miss the elections back home.	I was a bit rusty but I didn't want to miss the elections back home.	52246185	1473281382603	1473281382762	i	73
100654	1098465	I was a bit rusty but I didn't want to miss the elections back home.	I was a bit rusty but I didn't want to miss the elections back home.	52246187	1473281382686	1473281382807	s	83
100654	1098465	I was a bit rusty but I didn't want to miss the elections back home.	I was a bit rusty but I didn't want to miss the elections back home.	52246189	1473281382847	1473281382971	s	83
100654	1098465	I was a bit rusty but I didn't want to miss the elections back home.	I was a bit rusty but I didn't want to miss the elections back home.	52246191	1473281382976	1473281383116	 	32
100654	1098465	I was a bit rusty but I didn't want to miss the elections back home.	I was a bit rusty but I didn't want to miss the elections back home.	52246193	1473281383072	1473281383215	t	84
100654	1098465	I was a bit rusty but I didn't want to miss the elections back home.	I was a bit rusty but I didn't want to miss the elections back home.	52246196	1473281383150	1473281383284	h	72
100654	1098465	I was a bit rusty but I didn't want to miss the elections back home.	I was a bit rusty but I didn't want to miss the elections back home.	52246208	1473281383240	1473281383375	e	69
100654	1098465	I was a bit rusty but I didn't want to miss the elections back home.	I was a bit rusty but I didn't want to miss the elections back home.	52246210	1473281383308	1473281383450	 	32
100654	1098465	I was a bit rusty but I didn't want to miss the elections back home.	I was a bit rusty but I didn't want to miss the elections back home.	52246212	1473281383464	1473281383587	e	69
100654	1098465	I was a bit rusty but I didn't want to miss the elections back home.	I was a bit rusty but I didn't want to miss the elections back home.	52246215	1473281383609	1473281383745	l	76
100654	1098465	I was a bit rusty but I didn't want to miss the elections back home.	I was a bit rusty but I didn't want to miss the elections back home.	52246217	1473281383678	1473281383791	e	69
100654	1098465	I was a bit rusty but I didn't want to miss the elections back home.	I was a bit rusty but I didn't want to miss the elections back home.	52246219	1473281383874	1473281383972	c	67
100654	1098465	I was a bit rusty but I didn't want to miss the elections back home.	I was a bit rusty but I didn't want to miss the elections back home.	52246228	1473281384088	1473281384206	i	84
100654	1098465	I was a bit rusty but I didn't want to miss the elections back home.	I was a bit rusty but I didn't want to miss the elections back home.	52246232	1473281384162	1473281384321	o	79
100654	1098465	I was a bit rusty but I didn't want to miss the elections back home.	I was a bit rusty but I didn't want to miss the elections back home.	52246237	1473281384198	1473281384395	n	78
100654	1098465	I was a bit rusty but I didn't want to miss the elections back home.	I was a bit rusty but I didn't want to miss the elections back home.	52246262	1473281384355	1473281384493	s	83
100654	1098465	I was a bit rusty but I didn't want to miss the elections back home.	I was a bit rusty but I didn't want to miss the elections back home.	52246267	1473281384552	1473281384738	 	32
100654	1098465	I was a bit rusty but I didn't want to miss the elections back home.	I was a bit rusty but I didn't want to miss the elections back home.	52246270	1473281384957	1473281385084	b	66
100654	1098465	I was a bit rusty but I didn't want to miss the elections back home.	I was a bit rusty but I didn't want to miss the elections back home.	52246273	1473281385025	1473281385174	a	65
100654	1098465	I was a bit rusty but I didn't want to miss the elections back home.	I was a bit rusty but I didn't want to miss the elections back home.	52246278	1473281385155	1473281385311	c	67
100654	1098465	I was a bit rusty but I didn't want to miss the elections back home.	I was a bit rusty but I didn't want to miss the elections back home.	52246288	1473281385235	1473281385447	k	75
100654	1098465	I was a bit rusty but I didn't want to miss the elections back home.	I was a bit rusty but I didn't want to miss the elections back home.	52246289	1473281385346	1473281385498	 	32
100654	1098465	I was a bit rusty but I didn't want to miss the elections back home.	I was a bit rusty but I didn't want to miss the elections back home.	52246291	1473281385506	1473281385669	h	72
100654	1098465	I was a bit rusty but I didn't want to miss the elections back home.	I was a bit rusty but I didn't want to miss the elections back home.	52246295	1473281385611	1473281385837	o	79
100654	1098465	I was a bit rusty but I didn't want to miss the elections back home.	I was a bit rusty but I didn't want to miss the elections back home.	52246299	1473281385755	1473281385898	m	77
100654	1098465	I was a bit rusty but I didn't want to miss the elections back home.	I was a bit rusty but I didn't want to miss the elections back home.	52246378	1473281385841	1473281385946	e	69
100654	1098465	I was a bit rusty but I didn't want to miss the elections back home.	I was a bit rusty but I didn't want to miss the elections back home.	52246381	1473281386003	1473281386119	/	191
100654	1098465	I was a bit rusty but I didn't want to miss the elections back home.	I was a bit rusty but I didn't want to miss the elections back home.	52246386	1473281386529	1473281386652	BKSP	8
100654	1098465	I was a bit rusty but I didn't want to miss the elections back home.	I was a bit rusty but I didn't want to miss the elections back home.	52246392	1473281387460	1473281387502	.	190
100654	1098479	Let me know if you have more questions.	Let me know if you have more questions.	52246463	1473281389050	1473281389380	SHIFT	16
100654	1098479	Let me know if you have more questions.	Let me know if you have more questions.	52246466	1473281389283	1473281389455	L	76
100654	1098479	Let me know if you have more questions.	Let me know if you have more questions.	52246469	1473281389407	1473281389541	e	69
100654	1098479	Let me know if you have more questions.	Let me know if you have more questions.	52246472	1473281389544	1473281389683	t	84
100654	1098479	Let me know if you have more questions.	Let me know if you have more questions.	52246478	1473281389632	1473281389774	 	32
100654	1098479	Let me know if you have more questions.	Let me know if you have more questions.	52246481	1473281389785	1473281389923	m	77
100654	1098479	Let me know if you have more questions.	Let me know if you have more questions.	52246488	1473281389876	1473281390003	e	69
100654	1098479	Let me know if you have more questions.	Let me know if you have more questions.	52246489	1473281389948	1473281390086	 	32
100654	1098479	Let me know if you have more questions.	Let me know if you have more questions.	52246490	1473281390076	1473281390243	k	75
100654	1098479	Let me know if you have more questions.	Let me know if you have more questions.	52246491	1473281390168	1473281390358	n	78
100654	1098479	Let me know if you have more questions.	Let me know if you have more questions.	52246493	1473281390305	1473281390439	o	79
100654	1098479	Let me know if you have more questions.	Let me know if you have more questions.	52246537	1473281390377	1473281390508	w	87
100654	1098479	Let me know if you have more questions.	Let me know if you have more questions.	52246540	1473281390468	1473281390632	 	32
100654	1098479	Let me know if you have more questions.	Let me know if you have more questions.	52246543	1473281390850	1473281390989	i	73
100654	1098479	Let me know if you have more questions.	Let me know if you have more questions.	52246547	1473281390931	1473281391059	f	70
100654	1098479	Let me know if you have more questions.	Let me know if you have more questions.	52246551	1473281391041	1473281391183	 	32
100654	1098479	Let me know if you have more questions.	Let me know if you have more questions.	52246553	1473281391262	1473281391389	y	89
100654	1098479	Let me know if you have more questions.	Let me know if you have more questions.	52246562	1473281391340	1473281391562	o	79
100654	1098479	Let me know if you have more questions.	Let me know if you have more questions.	52246565	1473281391417	1473281391598	u	85
100654	1098479	Let me know if you have more questions.	Let me know if you have more questions.	52246570	1473281391516	1473281391667	 	32
100654	1098479	Let me know if you have more questions.	Let me know if you have more questions.	52246575	1473281391688	1473281391821	h	72
100654	1098479	Let me know if you have more questions.	Let me know if you have more questions.	52246580	1473281391742	1473281391929	a	65
100654	1098479	Let me know if you have more questions.	Let me know if you have more questions.	52246596	1473281391833	1473281392014	v	86
100654	1098479	Let me know if you have more questions.	Let me know if you have more questions.	52246602	1473281391940	1473281392109	e	69
100654	1098479	Let me know if you have more questions.	Let me know if you have more questions.	52246606	1473281392026	1473281392129	 	32
100654	1098479	Let me know if you have more questions.	Let me know if you have more questions.	52246611	1473281392177	1473281392359	m	77
100654	1098479	Let me know if you have more questions.	Let me know if you have more questions.	52246646	1473281392287	1473281392417	r	79
100654	1098479	Let me know if you have more questions.	Let me know if you have more questions.	52246648	1473281392387	1473281392535	e	69
100654	1098479	Let me know if you have more questions.	Let me know if you have more questions.	52246651	1473281392510	1473281392641	 	32
100654	1098479	Let me know if you have more questions.	Let me know if you have more questions.	52246654	1473281392701	1473281392882	q	81
100654	1098479	Let me know if you have more questions.	Let me know if you have more questions.	52246657	1473281392874	1473281393041	u	85
100654	1098479	Let me know if you have more questions.	Let me know if you have more questions.	52246659	1473281393161	1473281393318	e	69
100654	1098479	Let me know if you have more questions.	Let me know if you have more questions.	52246663	1473281393393	1473281393550	s	83
100654	1098479	Let me know if you have more questions.	Let me know if you have more questions.	52246664	1473281393474	1473281393615	t	84
100654	1098479	Let me know if you have more questions.	Let me know if you have more questions.	52246711	1473281393511	1473281393767	i	73
100654	1098479	Let me know if you have more questions.	Let me know if you have more questions.	52246666	1473281393580	1473281393759	o	79
100654	1098479	Let me know if you have more questions.	Let me know if you have more questions.	52246714	1473281393630	1473281393789	n	78
100654	1098479	Let me know if you have more questions.	Let me know if you have more questions.	52246717	1473281393799	1473281393923	s	83
100654	1098479	Let me know if you have more questions.	Let me know if you have more questions.	52246719	1473281394278	1473281394329	.	190
100654	1098486	Very truly yours, Acme Costume Co.	Very truly yours, Acme Costume Co.	52246793	1473281395717	1473281396248	SHIFT	16
100654	1098486	Very truly yours, Acme Costume Co.	Very truly yours, Acme Costume Co.	52246801	1473281396290	1473281396762	SHIFT	16
100654	1098486	Very truly yours, Acme Costume Co.	Very truly yours, Acme Costume Co.	52246798	1473281396648	1473281396755	V	86
100654	1098486	Very truly yours, Acme Costume Co.	Very truly yours, Acme Costume Co.	52246805	1473281396800	1473281396960	e	69
100654	1098486	Very truly yours, Acme Costume Co.	Very truly yours, Acme Costume Co.	52246807	1473281396884	1473281397024	r	82
100654	1098486	Very truly yours, Acme Costume Co.	Very truly yours, Acme Costume Co.	52246809	1473281396992	1473281397151	y	89
100654	1098486	Very truly yours, Acme Costume Co.	Very truly yours, Acme Costume Co.	52246864	1473281397089	1473281397254	 	32
100654	1098486	Very truly yours, Acme Costume Co.	Very truly yours, Acme Costume Co.	52246867	1473281397418	1473281397515	t	84
100654	1098486	Very truly yours, Acme Costume Co.	Very truly yours, Acme Costume Co.	52246874	1473281397568	1473281397706	r	82
100654	1098486	Very truly yours, Acme Costume Co.	Very truly yours, Acme Costume Co.	52246879	1473281397694	1473281397820	u	85
100654	1098486	Very truly yours, Acme Costume Co.	Very truly yours, Acme Costume Co.	52246882	1473281398249	1473281398407	l	76
100654	1098486	Very truly yours, Acme Costume Co.	Very truly yours, Acme Costume Co.	52246888	1473281398494	1473281398632	y	89
100654	1098486	Very truly yours, Acme Costume Co.	Very truly yours, Acme Costume Co.	52246931	1473281398709	1473281398869	 	32
100654	1098486	Very truly yours, Acme Costume Co.	Very truly yours, Acme Costume Co.	52246934	1473281399577	1473281399703	y	89
100654	1098486	Very truly yours, Acme Costume Co.	Very truly yours, Acme Costume Co.	52246941	1473281399653	1473281399869	o	79
100654	1098486	Very truly yours, Acme Costume Co.	Very truly yours, Acme Costume Co.	52246947	1473281399737	1473281399880	u	85
100654	1098486	Very truly yours, Acme Costume Co.	Very truly yours, Acme Costume Co.	52246939	1473281399834	1473281399868	CTRL	17
100654	1098486	Very truly yours, Acme Costume Co.	Very truly yours, Acme Costume Co.	52246943	1473281399869	1473281399874	CTRL	17
100654	1098486	Very truly yours, Acme Costume Co.	Very truly yours, Acme Costume Co.	52246951	1473281399883	1473281400018	r	82
100654	1098486	Very truly yours, Acme Costume Co.	Very truly yours, Acme Costume Co.	52247002	1473281400104	1473281400241	s	83
100654	1098486	Very truly yours, Acme Costume Co.	Very truly yours, Acme Costume Co.	52247003	1473281400536	1473281400625	,	188
100654	1098486	Very truly yours, Acme Costume Co.	Very truly yours, Acme Costume Co.	52247006	1473281400982	1473281401147	 	32
100654	1098486	Very truly yours, Acme Costume Co.	Very truly yours, Acme Costume Co.	52247010	1473281401214	1473281401343	a	65
100654	1098486	Very truly yours, Acme Costume Co.	Very truly yours, Acme Costume Co.	52247013	1473281401624	1473281401701	BKSP	8
100654	1098486	Very truly yours, Acme Costume Co.	Very truly yours, Acme Costume Co.	52247016	1473281401767	1473281401983	SHIFT	16
100654	1098486	Very truly yours, Acme Costume Co.	Very truly yours, Acme Costume Co.	52247049	1473281401848	1473281401990	A	65
100654	1098486	Very truly yours, Acme Costume Co.	Very truly yours, Acme Costume Co.	52247053	1473281402022	1473281402158	c	67
100654	1098486	Very truly yours, Acme Costume Co.	Very truly yours, Acme Costume Co.	52247055	1473281402612	1473281402766	m	77
100654	1098486	Very truly yours, Acme Costume Co.	Very truly yours, Acme Costume Co.	52247057	1473281402707	1473281402861	e	69
100654	1098486	Very truly yours, Acme Costume Co.	Very truly yours, Acme Costume Co.	52247059	1473281402900	1473281403103	 	32
100654	1098486	Very truly yours, Acme Costume Co.	Very truly yours, Acme Costume Co.	52247060	1473281403187	1473281403749	SHIFT	16
100654	1098486	Very truly yours, Acme Costume Co.	Very truly yours, Acme Costume Co.	52247082	1473281403654	1473281403800	C	67
100654	1098486	Very truly yours, Acme Costume Co.	Very truly yours, Acme Costume Co.	52247084	1473281403816	1473281403929	o	79
100654	1098486	Very truly yours, Acme Costume Co.	Very truly yours, Acme Costume Co.	52247087	1473281403908	1473281404103	s	83
100654	1098486	Very truly yours, Acme Costume Co.	Very truly yours, Acme Costume Co.	52247090	1473281404049	1473281404177	t	84
100654	1098486	Very truly yours, Acme Costume Co.	Very truly yours, Acme Costume Co.	52247093	1473281404341	1473281404463	u	85
100654	1098486	Very truly yours, Acme Costume Co.	Very truly yours, Acme Costume Co.	52247095	1473281404557	1473281404674	m	77
100654	1098486	Very truly yours, Acme Costume Co.	Very truly yours, Acme Costume Co.	52247163	1473281404643	1473281404794	e	69
100654	1098486	Very truly yours, Acme Costume Co.	Very truly yours, Acme Costume Co.	52247166	1473281405255	1473281405411	 	32
100654	1098486	Very truly yours, Acme Costume Co.	Very truly yours, Acme Costume Co.	52247171	1473281405400	1473281406006	SHIFT	16
100654	1098486	Very truly yours, Acme Costume Co.	Very truly yours, Acme Costume Co.	52247173	1473281405852	1473281406014	C	67
100654	1098486	Very truly yours, Acme Costume Co.	Very truly yours, Acme Costume Co.	52247176	1473281406028	1473281406156	o	79
100654	1098486	Very truly yours, Acme Costume Co.	Very truly yours, Acme Costume Co.	52247179	1473281406929	1473281407045	.	190
