PARTICIPANT_ID	TEST_SECTION_ID	SENTENCE	USER_INPUT	KEYSTROKE_ID	PRESS_TIME	RELEASE_TIME	LETTER	KEYCODE
103985	1137216	If not can I call you?	If not can I call you?	54090617	1473327338594	1473327338759	SHIFT	16
103985	1137216	If not can I call you?	If not can I call you?	54090619	1473327338714	1473327338786	I	73
103985	1137216	If not can I call you?	If not can I call you?	54090623	1473327338849	1473327338949	f	70
103985	1137216	If not can I call you?	If not can I call you?	54090626	1473327338928	1473327339015	 	32
103985	1137216	If not can I call you?	If not can I call you?	54090630	1473327339311	1473327339438	n	78
103985	1137216	If not can I call you?	If not can I call you?	54090642	1473327339381	1473327339479	o	79
103985	1137216	If not can I call you?	If not can I call you?	54090645	1473327339443	1473327339566	t	84
103985	1137216	If not can I call you?	If not can I call you?	54090647	1473327339569	1473327339660	 	32
103985	1137216	If not can I call you?	If not can I call you?	54090650	1473327339721	1473327339835	c	67
103985	1137216	If not can I call you?	If not can I call you?	54090653	1473327339793	1473327339916	a	65
103985	1137216	If not can I call you?	If not can I call you?	54090683	1473327339876	1473327339958	n	78
103985	1137216	If not can I call you?	If not can I call you?	54090686	1473327340002	1473327340086	 	32
103985	1137216	If not can I call you?	If not can I call you?	54090689	1473327340167	1473327340328	SHIFT	16
103985	1137216	If not can I call you?	If not can I call you?	54090695	1473327340256	1473327340336	I	73
103985	1137216	If not can I call you?	If not can I call you?	54090699	1473327340389	1473327340492	 	32
103985	1137216	If not can I call you?	If not can I call you?	54090703	1473327340552	1473327340689	c	67
103985	1137216	If not can I call you?	If not can I call you?	54090722	1473327340632	1473327340758	a	65
103985	1137216	If not can I call you?	If not can I call you?	54090726	1473327340716	1473327340790	l	76
103985	1137216	If not can I call you?	If not can I call you?	54090729	1473327340866	1473327340952	l	76
103985	1137216	If not can I call you?	If not can I call you?	54090733	1473327340963	1473327341064	 	32
103985	1137216	If not can I call you?	If not can I call you?	54090734	1473327341142	1473327341263	y	89
103985	1137216	If not can I call you?	If not can I call you?	54090753	1473327341198	1473327341323	o	79
103985	1137216	If not can I call you?	If not can I call you?	54090754	1473327341272	1473327341371	u	85
103985	1137216	If not can I call you?	If not can I call you?	54090756	1473327341564	1473327341808	SHIFT	16
103985	1137216	If not can I call you?	If not can I call you?	54090762	1473327341640	1473327341815	?	191
103985	1137223	I'm very sorry about that mix up.	I'm very sorry about that mix up.	54090870	1473327344934	1473327345079	SHIFT	16
103985	1137223	I'm very sorry about that mix up.	I'm very sorry about that mix up.	54090872	1473327345052	1473327345141	I	73
103985	1137223	I'm very sorry about that mix up.	I'm very sorry about that mix up.	54090874	1473327345344	1473327345475	'	222
103985	1137223	I'm very sorry about that mix up.	I'm very sorry about that mix up.	54090876	1473327345599	1473327345681	m	77
103985	1137223	I'm very sorry about that mix up.	I'm very sorry about that mix up.	54090878	1473327345739	1473327345825	 	32
103985	1137223	I'm very sorry about that mix up.	I'm very sorry about that mix up.	54090880	1473327346061	1473327346147	v	86
103985	1137223	I'm very sorry about that mix up.	I'm very sorry about that mix up.	54090909	1473327346165	1473327346290	e	69
103985	1137223	I'm very sorry about that mix up.	I'm very sorry about that mix up.	54090911	1473327346278	1473327346387	r	82
103985	1137223	I'm very sorry about that mix up.	I'm very sorry about that mix up.	54090914	1473327346580	1473327346698	y	89
103985	1137223	I'm very sorry about that mix up.	I'm very sorry about that mix up.	54090921	1473327346765	1473327346868	 	32
103985	1137223	I'm very sorry about that mix up.	I'm very sorry about that mix up.	54090926	1473327346890	1473327346999	s	83
103985	1137223	I'm very sorry about that mix up.	I'm very sorry about that mix up.	54090942	1473327347032	1473327347121	o	79
103985	1137223	I'm very sorry about that mix up.	I'm very sorry about that mix up.	54090946	1473327347141	1473327347209	r	82
103985	1137223	I'm very sorry about that mix up.	I'm very sorry about that mix up.	54090953	1473327347289	1473327347379	r	82
103985	1137223	I'm very sorry about that mix up.	I'm very sorry about that mix up.	54090958	1473327347490	1473327347587	y	89
103985	1137223	I'm very sorry about that mix up.	I'm very sorry about that mix up.	54090983	1473327347569	1473327347666	 	32
103985	1137223	I'm very sorry about that mix up.	I'm very sorry about that mix up.	54090987	1473327347904	1473327348001	a	65
103985	1137223	I'm very sorry about that mix up.	I'm very sorry about that mix up.	54090990	1473327348040	1473327348139	b	66
103985	1137223	I'm very sorry about that mix up.	I'm very sorry about that mix up.	54090993	1473327348129	1473327348231	o	79
103985	1137223	I'm very sorry about that mix up.	I'm very sorry about that mix up.	54090995	1473327348191	1473327348296	u	85
103985	1137223	I'm very sorry about that mix up.	I'm very sorry about that mix up.	54090997	1473327348309	1473327348411	t	84
103985	1137223	I'm very sorry about that mix up.	I'm very sorry about that mix up.	54091003	1473327348424	1473327348498	 	32
103985	1137223	I'm very sorry about that mix up.	I'm very sorry about that mix up.	54091005	1473327348546	1473327348653	t	84
103985	1137223	I'm very sorry about that mix up.	I'm very sorry about that mix up.	54091011	1473327348623	1473327348705	h	72
103985	1137223	I'm very sorry about that mix up.	I'm very sorry about that mix up.	54091016	1473327348821	1473327348942	a	65
103985	1137223	I'm very sorry about that mix up.	I'm very sorry about that mix up.	54091052	1473327348897	1473327349002	t	84
103985	1137223	I'm very sorry about that mix up.	I'm very sorry about that mix up.	54091056	1473327348994	1473327349068	 	32
103985	1137223	I'm very sorry about that mix up.	I'm very sorry about that mix up.	54091061	1473327349153	1473327349254	m	77
103985	1137223	I'm very sorry about that mix up.	I'm very sorry about that mix up.	54091065	1473327349224	1473327349339	i	73
103985	1137223	I'm very sorry about that mix up.	I'm very sorry about that mix up.	54091069	1473327349444	1473327349496	s	83
103985	1137223	I'm very sorry about that mix up.	I'm very sorry about that mix up.	54091109	1473327349468	1473327349550	 	32
103985	1137223	I'm very sorry about that mix up.	I'm very sorry about that mix up.	54091111	1473327349785	1473327349874	BKSP	8
103985	1137223	I'm very sorry about that mix up.	I'm very sorry about that mix up.	54091113	1473327349941	1473327350017	BKSP	8
103985	1137223	I'm very sorry about that mix up.	I'm very sorry about that mix up.	54091114	1473327350014	1473327350113	x	88
103985	1137223	I'm very sorry about that mix up.	I'm very sorry about that mix up.	54091116	1473327350120	1473327350196	 	32
103985	1137223	I'm very sorry about that mix up.	I'm very sorry about that mix up.	54091118	1473327350282	1473327350380	u	85
103985	1137223	I'm very sorry about that mix up.	I'm very sorry about that mix up.	54091121	1473327350363	1473327350446	p	80
103985	1137223	I'm very sorry about that mix up.	I'm very sorry about that mix up.	54091124	1473327350637	1473327350735	.	190
103985	1137231	I have the option of starting Jim Miller or picking up Chris Weinke.	I have the option of starting Jim Miller or picking up Chris Weinke.	54091255	1473327353576	1473327353717	SHIFT	16
103985	1137231	I have the option of starting Jim Miller or picking up Chris Weinke.	I have the option of starting Jim Miller or picking up Chris Weinke.	54091257	1473327353667	1473327353741	I	73
103985	1137231	I have the option of starting Jim Miller or picking up Chris Weinke.	I have the option of starting Jim Miller or picking up Chris Weinke.	54091259	1473327353767	1473327353863	 	32
103985	1137231	I have the option of starting Jim Miller or picking up Chris Weinke.	I have the option of starting Jim Miller or picking up Chris Weinke.	54091261	1473327353906	1473327354003	h	72
103985	1137231	I have the option of starting Jim Miller or picking up Chris Weinke.	I have the option of starting Jim Miller or picking up Chris Weinke.	54091263	1473327353992	1473327354090	a	65
103985	1137231	I have the option of starting Jim Miller or picking up Chris Weinke.	I have the option of starting Jim Miller or picking up Chris Weinke.	54091264	1473327354114	1473327354236	v	86
103985	1137231	I have the option of starting Jim Miller or picking up Chris Weinke.	I have the option of starting Jim Miller or picking up Chris Weinke.	54091268	1473327354194	1473327354305	e	69
103985	1137231	I have the option of starting Jim Miller or picking up Chris Weinke.	I have the option of starting Jim Miller or picking up Chris Weinke.	54091270	1473327354241	1473327354313	 	32
103985	1137231	I have the option of starting Jim Miller or picking up Chris Weinke.	I have the option of starting Jim Miller or picking up Chris Weinke.	54091273	1473327354400	1473327354519	t	84
103985	1137231	I have the option of starting Jim Miller or picking up Chris Weinke.	I have the option of starting Jim Miller or picking up Chris Weinke.	54091276	1473327354477	1473327354552	h	72
103985	1137231	I have the option of starting Jim Miller or picking up Chris Weinke.	I have the option of starting Jim Miller or picking up Chris Weinke.	54091278	1473327354579	1473327354671	e	69
103985	1137231	I have the option of starting Jim Miller or picking up Chris Weinke.	I have the option of starting Jim Miller or picking up Chris Weinke.	54091290	1473327354636	1473327354721	 	32
103985	1137231	I have the option of starting Jim Miller or picking up Chris Weinke.	I have the option of starting Jim Miller or picking up Chris Weinke.	54091293	1473327354759	1473327354841	o	79
103985	1137231	I have the option of starting Jim Miller or picking up Chris Weinke.	I have the option of starting Jim Miller or picking up Chris Weinke.	54091298	1473327354923	1473327355009	p	80
103985	1137231	I have the option of starting Jim Miller or picking up Chris Weinke.	I have the option of starting Jim Miller or picking up Chris Weinke.	54091303	1473327355017	1473327355126	t	84
103985	1137231	I have the option of starting Jim Miller or picking up Chris Weinke.	I have the option of starting Jim Miller or picking up Chris Weinke.	54091309	1473327355107	1473327355223	i	73
103985	1137231	I have the option of starting Jim Miller or picking up Chris Weinke.	I have the option of starting Jim Miller or picking up Chris Weinke.	54091322	1473327355196	1473327355335	o	79
103985	1137231	I have the option of starting Jim Miller or picking up Chris Weinke.	I have the option of starting Jim Miller or picking up Chris Weinke.	54091324	1473327355297	1473327355384	n	78
103985	1137231	I have the option of starting Jim Miller or picking up Chris Weinke.	I have the option of starting Jim Miller or picking up Chris Weinke.	54091325	1473327355386	1473327355478	 	32
103985	1137231	I have the option of starting Jim Miller or picking up Chris Weinke.	I have the option of starting Jim Miller or picking up Chris Weinke.	54091327	1473327355519	1473327355602	o	79
103985	1137231	I have the option of starting Jim Miller or picking up Chris Weinke.	I have the option of starting Jim Miller or picking up Chris Weinke.	54091328	1473327355650	1473327355758	f	70
103985	1137231	I have the option of starting Jim Miller or picking up Chris Weinke.	I have the option of starting Jim Miller or picking up Chris Weinke.	54091357	1473327355733	1473327355824	 	32
103985	1137231	I have the option of starting Jim Miller or picking up Chris Weinke.	I have the option of starting Jim Miller or picking up Chris Weinke.	54091359	1473327355884	1473327355959	s	83
103985	1137231	I have the option of starting Jim Miller or picking up Chris Weinke.	I have the option of starting Jim Miller or picking up Chris Weinke.	54091361	1473327355972	1473327356095	t	84
103985	1137231	I have the option of starting Jim Miller or picking up Chris Weinke.	I have the option of starting Jim Miller or picking up Chris Weinke.	54091364	1473327356073	1473327356210	a	65
103985	1137231	I have the option of starting Jim Miller or picking up Chris Weinke.	I have the option of starting Jim Miller or picking up Chris Weinke.	54091367	1473327356186	1473327356278	r	82
103985	1137231	I have the option of starting Jim Miller or picking up Chris Weinke.	I have the option of starting Jim Miller or picking up Chris Weinke.	54091370	1473327356363	1473327356460	t	84
103985	1137231	I have the option of starting Jim Miller or picking up Chris Weinke.	I have the option of starting Jim Miller or picking up Chris Weinke.	54091376	1473327356404	1473327356530	i	73
103985	1137231	I have the option of starting Jim Miller or picking up Chris Weinke.	I have the option of starting Jim Miller or picking up Chris Weinke.	54091378	1473327356477	1473327356590	n	78
103985	1137231	I have the option of starting Jim Miller or picking up Chris Weinke.	I have the option of starting Jim Miller or picking up Chris Weinke.	54091381	1473327356576	1473327356681	g	71
103985	1137231	I have the option of starting Jim Miller or picking up Chris Weinke.	I have the option of starting Jim Miller or picking up Chris Weinke.	54091385	1473327356648	1473327356727	 	32
103985	1137231	I have the option of starting Jim Miller or picking up Chris Weinke.	I have the option of starting Jim Miller or picking up Chris Weinke.	54091393	1473327356752	1473327356891	SHIFT	16
103985	1137231	I have the option of starting Jim Miller or picking up Chris Weinke.	I have the option of starting Jim Miller or picking up Chris Weinke.	54091388	1473327356815	1473327356884	J	74
103985	1137231	I have the option of starting Jim Miller or picking up Chris Weinke.	I have the option of starting Jim Miller or picking up Chris Weinke.	54091397	1473327356955	1473327357052	i	73
103985	1137231	I have the option of starting Jim Miller or picking up Chris Weinke.	I have the option of starting Jim Miller or picking up Chris Weinke.	54091420	1473327357115	1473327357206	m	77
103985	1137231	I have the option of starting Jim Miller or picking up Chris Weinke.	I have the option of starting Jim Miller or picking up Chris Weinke.	54091423	1473327357267	1473327357346	 	32
103985	1137231	I have the option of starting Jim Miller or picking up Chris Weinke.	I have the option of starting Jim Miller or picking up Chris Weinke.	54091426	1473327357373	1473327357517	SHIFT	16
103985	1137231	I have the option of starting Jim Miller or picking up Chris Weinke.	I have the option of starting Jim Miller or picking up Chris Weinke.	54091428	1473327357449	1473327357529	M	77
103985	1137231	I have the option of starting Jim Miller or picking up Chris Weinke.	I have the option of starting Jim Miller or picking up Chris Weinke.	54091430	1473327357535	1473327357626	i	73
103985	1137231	I have the option of starting Jim Miller or picking up Chris Weinke.	I have the option of starting Jim Miller or picking up Chris Weinke.	54091434	1473327357710	1473327357774	l	76
103985	1137231	I have the option of starting Jim Miller or picking up Chris Weinke.	I have the option of starting Jim Miller or picking up Chris Weinke.	54091460	1473327357852	1473327357947	l	76
103985	1137231	I have the option of starting Jim Miller or picking up Chris Weinke.	I have the option of starting Jim Miller or picking up Chris Weinke.	54091462	1473327357926	1473327358026	e	69
103985	1137231	I have the option of starting Jim Miller or picking up Chris Weinke.	I have the option of starting Jim Miller or picking up Chris Weinke.	54091465	1473327357980	1473327358070	r	82
103985	1137231	I have the option of starting Jim Miller or picking up Chris Weinke.	I have the option of starting Jim Miller or picking up Chris Weinke.	54091469	1473327358074	1473327358155	 	32
103985	1137231	I have the option of starting Jim Miller or picking up Chris Weinke.	I have the option of starting Jim Miller or picking up Chris Weinke.	54091474	1473327358179	1473327358281	o	79
103985	1137231	I have the option of starting Jim Miller or picking up Chris Weinke.	I have the option of starting Jim Miller or picking up Chris Weinke.	54091494	1473327358290	1473327358411	r	82
103985	1137231	I have the option of starting Jim Miller or picking up Chris Weinke.	I have the option of starting Jim Miller or picking up Chris Weinke.	54091498	1473327358386	1473327358466	 	32
103985	1137231	I have the option of starting Jim Miller or picking up Chris Weinke.	I have the option of starting Jim Miller or picking up Chris Weinke.	54091502	1473327358526	1473327358613	p	80
103985	1137231	I have the option of starting Jim Miller or picking up Chris Weinke.	I have the option of starting Jim Miller or picking up Chris Weinke.	54091505	1473327358689	1473327358770	i	73
103985	1137231	I have the option of starting Jim Miller or picking up Chris Weinke.	I have the option of starting Jim Miller or picking up Chris Weinke.	54091508	1473327358793	1473327358870	c	67
103985	1137231	I have the option of starting Jim Miller or picking up Chris Weinke.	I have the option of starting Jim Miller or picking up Chris Weinke.	54091515	1473327358876	1473327358943	k	75
103985	1137231	I have the option of starting Jim Miller or picking up Chris Weinke.	I have the option of starting Jim Miller or picking up Chris Weinke.	54091517	1473327359022	1473327359121	i	73
103985	1137231	I have the option of starting Jim Miller or picking up Chris Weinke.	I have the option of starting Jim Miller or picking up Chris Weinke.	54091519	1473327359092	1473327359185	n	78
103985	1137231	I have the option of starting Jim Miller or picking up Chris Weinke.	I have the option of starting Jim Miller or picking up Chris Weinke.	54091521	1473327359159	1473327359267	g	71
103985	1137231	I have the option of starting Jim Miller or picking up Chris Weinke.	I have the option of starting Jim Miller or picking up Chris Weinke.	54091544	1473327359243	1473327359325	 	32
103985	1137231	I have the option of starting Jim Miller or picking up Chris Weinke.	I have the option of starting Jim Miller or picking up Chris Weinke.	54091546	1473327359351	1473327359469	u	85
103985	1137231	I have the option of starting Jim Miller or picking up Chris Weinke.	I have the option of starting Jim Miller or picking up Chris Weinke.	54091548	1473327359412	1473327359508	p	80
103985	1137231	I have the option of starting Jim Miller or picking up Chris Weinke.	I have the option of starting Jim Miller or picking up Chris Weinke.	54091551	1473327359531	1473327359637	 	32
103985	1137231	I have the option of starting Jim Miller or picking up Chris Weinke.	I have the option of starting Jim Miller or picking up Chris Weinke.	54091553	1473327359885	1473327360103	SHIFT	16
103985	1137231	I have the option of starting Jim Miller or picking up Chris Weinke.	I have the option of starting Jim Miller or picking up Chris Weinke.	54091555	1473327360040	1473327360154	C	67
103985	1137231	I have the option of starting Jim Miller or picking up Chris Weinke.	I have the option of starting Jim Miller or picking up Chris Weinke.	54091557	1473327360273	1473327360365	h	72
103985	1137231	I have the option of starting Jim Miller or picking up Chris Weinke.	I have the option of starting Jim Miller or picking up Chris Weinke.	54091578	1473327360398	1473327360519	r	82
103985	1137231	I have the option of starting Jim Miller or picking up Chris Weinke.	I have the option of starting Jim Miller or picking up Chris Weinke.	54091582	1473327360535	1473327360678	i	73
103985	1137231	I have the option of starting Jim Miller or picking up Chris Weinke.	I have the option of starting Jim Miller or picking up Chris Weinke.	54091585	1473327360722	1473327360846	s	83
103985	1137231	I have the option of starting Jim Miller or picking up Chris Weinke.	I have the option of starting Jim Miller or picking up Chris Weinke.	54091587	1473327360906	1473327360983	 	32
103985	1137231	I have the option of starting Jim Miller or picking up Chris Weinke.	I have the option of starting Jim Miller or picking up Chris Weinke.	54091590	1473327361292	1473327361443	SHIFT	16
103985	1137231	I have the option of starting Jim Miller or picking up Chris Weinke.	I have the option of starting Jim Miller or picking up Chris Weinke.	54091630	1473327361337	1473327361462	W	87
103985	1137231	I have the option of starting Jim Miller or picking up Chris Weinke.	I have the option of starting Jim Miller or picking up Chris Weinke.	54091632	1473327361588	1473327361660	i	73
103985	1137231	I have the option of starting Jim Miller or picking up Chris Weinke.	I have the option of starting Jim Miller or picking up Chris Weinke.	54091635	1473327361915	1473327361992	BKSP	8
103985	1137231	I have the option of starting Jim Miller or picking up Chris Weinke.	I have the option of starting Jim Miller or picking up Chris Weinke.	54091638	1473327361999	1473327362096	e	69
103985	1137231	I have the option of starting Jim Miller or picking up Chris Weinke.	I have the option of starting Jim Miller or picking up Chris Weinke.	54091641	1473327362104	1473327362170	i	73
103985	1137231	I have the option of starting Jim Miller or picking up Chris Weinke.	I have the option of starting Jim Miller or picking up Chris Weinke.	54091644	1473327362235	1473327362343	n	78
103985	1137231	I have the option of starting Jim Miller or picking up Chris Weinke.	I have the option of starting Jim Miller or picking up Chris Weinke.	54091648	1473327362554	1473327362614	k	75
103985	1137231	I have the option of starting Jim Miller or picking up Chris Weinke.	I have the option of starting Jim Miller or picking up Chris Weinke.	54091663	1473327362643	1473327362724	e	69
103985	1137231	I have the option of starting Jim Miller or picking up Chris Weinke.	I have the option of starting Jim Miller or picking up Chris Weinke.	54091665	1473327362922	1473327363024	.	190
103985	1137236	Have I mentioned how much I love Houston traffic?	Have I mentioned how much I love Houston traffic?	54091759	1473327365897	1473327366042	SHIFT	16
103985	1137236	Have I mentioned how much I love Houston traffic?	Have I mentioned how much I love Houston traffic?	54091760	1473327366012	1473327366100	H	72
103985	1137236	Have I mentioned how much I love Houston traffic?	Have I mentioned how much I love Houston traffic?	54091761	1473327366182	1473327366265	a	65
103985	1137236	Have I mentioned how much I love Houston traffic?	Have I mentioned how much I love Houston traffic?	54091762	1473327366302	1473327366416	v	86
103985	1137236	Have I mentioned how much I love Houston traffic?	Have I mentioned how much I love Houston traffic?	54091763	1473327366389	1473327366495	e	69
103985	1137236	Have I mentioned how much I love Houston traffic?	Have I mentioned how much I love Houston traffic?	54091774	1473327366459	1473327366531	 	32
103985	1137236	Have I mentioned how much I love Houston traffic?	Have I mentioned how much I love Houston traffic?	54091776	1473327366642	1473327366788	SHIFT	16
103985	1137236	Have I mentioned how much I love Houston traffic?	Have I mentioned how much I love Houston traffic?	54091775	1473327366698	1473327366767	I	73
103985	1137236	Have I mentioned how much I love Houston traffic?	Have I mentioned how much I love Houston traffic?	54091778	1473327366829	1473327366901	 	32
103985	1137236	Have I mentioned how much I love Houston traffic?	Have I mentioned how much I love Houston traffic?	54091780	1473327367020	1473327367101	m	77
103985	1137236	Have I mentioned how much I love Houston traffic?	Have I mentioned how much I love Houston traffic?	54091782	1473327367119	1473327367192	e	69
103985	1137236	Have I mentioned how much I love Houston traffic?	Have I mentioned how much I love Houston traffic?	54091785	1473327367211	1473327367303	n	78
103985	1137236	Have I mentioned how much I love Houston traffic?	Have I mentioned how much I love Houston traffic?	54091802	1473327367313	1473327367425	t	84
103985	1137236	Have I mentioned how much I love Houston traffic?	Have I mentioned how much I love Houston traffic?	54091803	1473327367390	1473327367539	i	73
103985	1137236	Have I mentioned how much I love Houston traffic?	Have I mentioned how much I love Houston traffic?	54091805	1473327367481	1473327367637	o	79
103985	1137236	Have I mentioned how much I love Houston traffic?	Have I mentioned how much I love Houston traffic?	54091806	1473327367591	1473327367709	n	78
103985	1137236	Have I mentioned how much I love Houston traffic?	Have I mentioned how much I love Houston traffic?	54091808	1473327367751	1473327367830	e	69
103985	1137236	Have I mentioned how much I love Houston traffic?	Have I mentioned how much I love Houston traffic?	54091813	1473327367926	1473327368011	d	68
103985	1137236	Have I mentioned how much I love Houston traffic?	Have I mentioned how much I love Houston traffic?	54091814	1473327368005	1473327368078	 	32
103985	1137236	Have I mentioned how much I love Houston traffic?	Have I mentioned how much I love Houston traffic?	54091825	1473327368217	1473327368312	y	72
103985	1137236	Have I mentioned how much I love Houston traffic?	Have I mentioned how much I love Houston traffic?	54091826	1473327368274	1473327368389	o	79
103985	1137236	Have I mentioned how much I love Houston traffic?	Have I mentioned how much I love Houston traffic?	54091827	1473327368395	1473327368508	w	87
103985	1137236	Have I mentioned how much I love Houston traffic?	Have I mentioned how much I love Houston traffic?	54091828	1473327368483	1473327368565	 	32
103985	1137236	Have I mentioned how much I love Houston traffic?	Have I mentioned how much I love Houston traffic?	54091829	1473327368604	1473327368677	m	77
103985	1137236	Have I mentioned how much I love Houston traffic?	Have I mentioned how much I love Houston traffic?	54091830	1473327368785	1473327368860	u	85
103985	1137236	Have I mentioned how much I love Houston traffic?	Have I mentioned how much I love Houston traffic?	54091831	1473327368877	1473327368961	c	67
103985	1137236	Have I mentioned how much I love Houston traffic?	Have I mentioned how much I love Houston traffic?	54091892	1473327368968	1473327369029	h	72
103985	1137236	Have I mentioned how much I love Houston traffic?	Have I mentioned how much I love Houston traffic?	54091893	1473327369171	1473327369736	BKSP	8
103985	1137236	Have I mentioned how much I love Houston traffic?	Have I mentioned how much I love Houston traffic?	54091894	1473327369855	1473327369919	BKSP	8
103985	1137236	Have I mentioned how much I love Houston traffic?	Have I mentioned how much I love Houston traffic?	54091895	1473327370012	1473327370079	BKSP	8
103985	1137236	Have I mentioned how much I love Houston traffic?	Have I mentioned how much I love Houston traffic?	54091896	1473327370154	1473327370222	BKSP	8
103985	1137236	Have I mentioned how much I love Houston traffic?	Have I mentioned how much I love Houston traffic?	54091897	1473327370304	1473327370367	BKSP	8
103985	1137236	Have I mentioned how much I love Houston traffic?	Have I mentioned how much I love Houston traffic?	54091898	1473327370555	1473327370662	BKSP	8
103985	1137236	Have I mentioned how much I love Houston traffic?	Have I mentioned how much I love Houston traffic?	54091901	1473327370832	1473327370916	o	79
103985	1137236	Have I mentioned how much I love Houston traffic?	Have I mentioned how much I love Houston traffic?	54091902	1473327370923	1473327371012	w	87
103985	1137236	Have I mentioned how much I love Houston traffic?	Have I mentioned how much I love Houston traffic?	54091907	1473327371034	1473327371105	 	32
103985	1137236	Have I mentioned how much I love Houston traffic?	Have I mentioned how much I love Houston traffic?	54091910	1473327371320	1473327371400	m	77
103985	1137236	Have I mentioned how much I love Houston traffic?	Have I mentioned how much I love Houston traffic?	54091914	1473327371509	1473327371582	u	85
103985	1137236	Have I mentioned how much I love Houston traffic?	Have I mentioned how much I love Houston traffic?	54091915	1473327371592	1473327371689	c	67
103985	1137236	Have I mentioned how much I love Houston traffic?	Have I mentioned how much I love Houston traffic?	54091916	1473327371676	1473327371748	h	72
103985	1137236	Have I mentioned how much I love Houston traffic?	Have I mentioned how much I love Houston traffic?	54091917	1473327371797	1473327371870	 	32
103985	1137236	Have I mentioned how much I love Houston traffic?	Have I mentioned how much I love Houston traffic?	54091929	1473327371975	1473327372130	SHIFT	16
103985	1137236	Have I mentioned how much I love Houston traffic?	Have I mentioned how much I love Houston traffic?	54091918	1473327372038	1473327372118	I	73
103985	1137236	Have I mentioned how much I love Houston traffic?	Have I mentioned how much I love Houston traffic?	54091931	1473327372170	1473327372263	 	32
103985	1137236	Have I mentioned how much I love Houston traffic?	Have I mentioned how much I love Houston traffic?	54091932	1473327372276	1473327372364	l	76
103985	1137236	Have I mentioned how much I love Houston traffic?	Have I mentioned how much I love Houston traffic?	54091933	1473327372444	1473327372543	o	79
103985	1137236	Have I mentioned how much I love Houston traffic?	Have I mentioned how much I love Houston traffic?	54091934	1473327372506	1473327372623	v	86
103985	1137236	Have I mentioned how much I love Houston traffic?	Have I mentioned how much I love Houston traffic?	54091960	1473327372582	1473327372713	e	69
103985	1137236	Have I mentioned how much I love Houston traffic?	Have I mentioned how much I love Houston traffic?	54091965	1473327372679	1473327372761	 	32
103985	1137236	Have I mentioned how much I love Houston traffic?	Have I mentioned how much I love Houston traffic?	54091970	1473327372996	1473327373153	SHIFT	16
103985	1137236	Have I mentioned how much I love Houston traffic?	Have I mentioned how much I love Houston traffic?	54091974	1473327373088	1473327373168	H	72
103985	1137236	Have I mentioned how much I love Houston traffic?	Have I mentioned how much I love Houston traffic?	54091977	1473327373242	1473327373394	o	79
103985	1137236	Have I mentioned how much I love Houston traffic?	Have I mentioned how much I love Houston traffic?	54091978	1473327373344	1473327373458	u	85
103985	1137236	Have I mentioned how much I love Houston traffic?	Have I mentioned how much I love Houston traffic?	54092003	1473327373417	1473327373538	s	83
103985	1137236	Have I mentioned how much I love Houston traffic?	Have I mentioned how much I love Houston traffic?	54092005	1473327373497	1473327373577	e	69
103985	1137236	Have I mentioned how much I love Houston traffic?	Have I mentioned how much I love Houston traffic?	54092009	1473327373919	1473327373995	BKSP	8
103985	1137236	Have I mentioned how much I love Houston traffic?	Have I mentioned how much I love Houston traffic?	54092012	1473327373991	1473327374110	t	84
103985	1137236	Have I mentioned how much I love Houston traffic?	Have I mentioned how much I love Houston traffic?	54092013	1473327374117	1473327374245	o	79
103985	1137236	Have I mentioned how much I love Houston traffic?	Have I mentioned how much I love Houston traffic?	54092014	1473327374215	1473327374312	n	78
103985	1137236	Have I mentioned how much I love Houston traffic?	Have I mentioned how much I love Houston traffic?	54092015	1473327374421	1473327374527	 	32
103985	1137236	Have I mentioned how much I love Houston traffic?	Have I mentioned how much I love Houston traffic?	54092048	1473327374784	1473327374888	t	84
103985	1137236	Have I mentioned how much I love Houston traffic?	Have I mentioned how much I love Houston traffic?	54092052	1473327374981	1473327375095	r	82
103985	1137236	Have I mentioned how much I love Houston traffic?	Have I mentioned how much I love Houston traffic?	54092055	1473327375010	1473327375154	a	65
103985	1137236	Have I mentioned how much I love Houston traffic?	Have I mentioned how much I love Houston traffic?	54092058	1473327375215	1473327375284	f	70
103985	1137236	Have I mentioned how much I love Houston traffic?	Have I mentioned how much I love Houston traffic?	54092061	1473327375361	1473327375461	f	70
103985	1137236	Have I mentioned how much I love Houston traffic?	Have I mentioned how much I love Houston traffic?	54092100	1473327375451	1473327375538	i	73
103985	1137236	Have I mentioned how much I love Houston traffic?	Have I mentioned how much I love Houston traffic?	54092104	1473327375557	1473327375640	c	67
103985	1137236	Have I mentioned how much I love Houston traffic?	Have I mentioned how much I love Houston traffic?	54092110	1473327375917	1473327376190	SHIFT	16
103985	1137236	Have I mentioned how much I love Houston traffic?	Have I mentioned how much I love Houston traffic?	54092107	1473327375997	1473327376176	?	191
103985	1137251	Hope that you have a great TG.	Hope that you have a great TG.	54092226	1473327379800	1473327379954	SHIFT	16
103985	1137251	Hope that you have a great TG.	Hope that you have a great TG.	54092231	1473327379904	1473327379988	H	72
103985	1137251	Hope that you have a great TG.	Hope that you have a great TG.	54092235	1473327380050	1473327380138	o	79
103985	1137251	Hope that you have a great TG.	Hope that you have a great TG.	54092238	1473327380224	1473327380310	p	80
103985	1137251	Hope that you have a great TG.	Hope that you have a great TG.	54092241	1473327380318	1473327380399	e	69
103985	1137251	Hope that you have a great TG.	Hope that you have a great TG.	54092243	1473327380414	1473327380503	 	32
103985	1137251	Hope that you have a great TG.	Hope that you have a great TG.	54092246	1473327380524	1473327380628	t	84
103985	1137251	Hope that you have a great TG.	Hope that you have a great TG.	54092248	1473327380610	1473327380701	h	72
103985	1137251	Hope that you have a great TG.	Hope that you have a great TG.	54092250	1473327380705	1473327380836	a	65
103985	1137251	Hope that you have a great TG.	Hope that you have a great TG.	54092252	1473327380755	1473327380867	t	84
103985	1137251	Hope that you have a great TG.	Hope that you have a great TG.	54092261	1473327380843	1473327380920	 	32
103985	1137251	Hope that you have a great TG.	Hope that you have a great TG.	54092264	1473327381000	1473327381099	y	89
103985	1137251	Hope that you have a great TG.	Hope that you have a great TG.	54092267	1473327381039	1473327381136	o	79
103985	1137251	Hope that you have a great TG.	Hope that you have a great TG.	54092268	1473327381104	1473327381217	u	85
103985	1137251	Hope that you have a great TG.	Hope that you have a great TG.	54092269	1473327381181	1473327381294	 	32
103985	1137251	Hope that you have a great TG.	Hope that you have a great TG.	54092270	1473327381356	1473327381453	h	72
103985	1137251	Hope that you have a great TG.	Hope that you have a great TG.	54092406	1473327381442	1473327381582	a	65
103985	1137251	Hope that you have a great TG.	Hope that you have a great TG.	54092408	1473327381593	1473327381723	v	86
103985	1137251	Hope that you have a great TG.	Hope that you have a great TG.	54092410	1473327381681	1473327381798	e	69
103985	1137251	Hope that you have a great TG.	Hope that you have a great TG.	54092412	1473327381783	1473327381891	 	32
103985	1137251	Hope that you have a great TG.	Hope that you have a great TG.	54092414	1473327381934	1473327382055	a	65
103985	1137251	Hope that you have a great TG.	Hope that you have a great TG.	54092417	1473327382075	1473327382173	 	32
103985	1137251	Hope that you have a great TG.	Hope that you have a great TG.	54092291	1473327382190	1473327382286	g	71
103985	1137251	Hope that you have a great TG.	Hope that you have a great TG.	54092293	1473327382389	1473327382515	r	82
103985	1137251	Hope that you have a great TG.	Hope that you have a great TG.	54092295	1473327382443	1473327382558	e	69
103985	1137251	Hope that you have a great TG.	Hope that you have a great TG.	54092296	1473327382525	1473327382616	a	65
103985	1137251	Hope that you have a great TG.	Hope that you have a great TG.	54092298	1473327382697	1473327382810	d	68
103985	1137251	Hope that you have a great TG.	Hope that you have a great TG.	54092371	1473327382826	1473327382932	 	32
103985	1137251	Hope that you have a great TG.	Hope that you have a great TG.	54092379	1473327383055	1473327383576	SHIFT	16
103985	1137251	Hope that you have a great TG.	Hope that you have a great TG.	54092374	1473327383184	1473327383325	T	84
103985	1137251	Hope that you have a great TG.	Hope that you have a great TG.	54092383	1473327383662	1473327383733	BKSP	8
103985	1137251	Hope that you have a great TG.	Hope that you have a great TG.	54092385	1473327383810	1473327383876	BKSP	8
103985	1137251	Hope that you have a great TG.	Hope that you have a great TG.	54092388	1473327383954	1473327384040	BKSP	8
103985	1137251	Hope that you have a great TG.	Hope that you have a great TG.	54092391	1473327384138	1473327384256	t	84
103985	1137251	Hope that you have a great TG.	Hope that you have a great TG.	54092394	1473327384490	1473327384591	 	32
103985	1137251	Hope that you have a great TG.	Hope that you have a great TG.	54092404	1473327384669	1473327385189	SHIFT	16
103985	1137251	Hope that you have a great TG.	Hope that you have a great TG.	54092396	1473327384816	1473327384937	T	84
103985	1137251	Hope that you have a great TG.	Hope that you have a great TG.	54092403	1473327385053	1473327385174	G	71
103985	1137251	Hope that you have a great TG.	Hope that you have a great TG.	54092405	1473327385398	1473327385485	.	190
103985	1137260	If it needs to be paid, we will need to add the day to the deal.	If it needs to be paid, we will need to add the day to the deal.	54092607	1473327389327	1473327389496	SHIFT	16
103985	1137260	If it needs to be paid, we will need to add the day to the deal.	If it needs to be paid, we will need to add the day to the deal.	54092611	1473327389445	1473327389520	I	73
103985	1137260	If it needs to be paid, we will need to add the day to the deal.	If it needs to be paid, we will need to add the day to the deal.	54092613	1473327389589	1473327389683	f	70
103985	1137260	If it needs to be paid, we will need to add the day to the deal.	If it needs to be paid, we will need to add the day to the deal.	54092615	1473327389727	1473327389806	 	32
103985	1137260	If it needs to be paid, we will need to add the day to the deal.	If it needs to be paid, we will need to add the day to the deal.	54092619	1473327389858	1473327389943	i	73
103985	1137260	If it needs to be paid, we will need to add the day to the deal.	If it needs to be paid, we will need to add the day to the deal.	54092622	1473327390002	1473327390155	t	84
103985	1137260	If it needs to be paid, we will need to add the day to the deal.	If it needs to be paid, we will need to add the day to the deal.	54092637	1473327390392	1473327390473	 	32
103985	1137260	If it needs to be paid, we will need to add the day to the deal.	If it needs to be paid, we will need to add the day to the deal.	54092638	1473327390602	1473327390714	n	78
103985	1137260	If it needs to be paid, we will need to add the day to the deal.	If it needs to be paid, we will need to add the day to the deal.	54092639	1473327390771	1473327390854	r	69
103985	1137260	If it needs to be paid, we will need to add the day to the deal.	If it needs to be paid, we will need to add the day to the deal.	54092641	1473327390935	1473327391021	e	69
103985	1137260	If it needs to be paid, we will need to add the day to the deal.	If it needs to be paid, we will need to add the day to the deal.	54092631	1473327391109	1473327391221	d	68
103985	1137260	If it needs to be paid, we will need to add the day to the deal.	If it needs to be paid, we will need to add the day to the deal.	54092633	1473327391187	1473327391295	s	83
103985	1137260	If it needs to be paid, we will need to add the day to the deal.	If it needs to be paid, we will need to add the day to the deal.	54092635	1473327391295	1473327391360	 	32
103985	1137260	If it needs to be paid, we will need to add the day to the deal.	If it needs to be paid, we will need to add the day to the deal.	54092636	1473327391402	1473327391532	t	84
103985	1137260	If it needs to be paid, we will need to add the day to the deal.	If it needs to be paid, we will need to add the day to the deal.	54092702	1473327391491	1473327391562	o	79
103985	1137260	If it needs to be paid, we will need to add the day to the deal.	If it needs to be paid, we will need to add the day to the deal.	54092704	1473327391709	1473327391782	BKSP	8
103985	1137260	If it needs to be paid, we will need to add the day to the deal.	If it needs to be paid, we will need to add the day to the deal.	54092707	1473327391854	1473327391923	BKSP	8
103985	1137260	If it needs to be paid, we will need to add the day to the deal.	If it needs to be paid, we will need to add the day to the deal.	54092709	1473327391985	1473327392059	BKSP	8
103985	1137260	If it needs to be paid, we will need to add the day to the deal.	If it needs to be paid, we will need to add the day to the deal.	54092712	1473327392117	1473327392191	BKSP	8
103985	1137260	If it needs to be paid, we will need to add the day to the deal.	If it needs to be paid, we will need to add the day to the deal.	54092715	1473327392253	1473327392320	BKSP	8
103985	1137260	If it needs to be paid, we will need to add the day to the deal.	If it needs to be paid, we will need to add the day to the deal.	54092718	1473327392407	1473327392467	BKSP	8
103985	1137260	If it needs to be paid, we will need to add the day to the deal.	If it needs to be paid, we will need to add the day to the deal.	54092721	1473327392552	1473327392608	BKSP	8
103985	1137260	If it needs to be paid, we will need to add the day to the deal.	If it needs to be paid, we will need to add the day to the deal.	54092724	1473327392630	1473327392720	e	69
103985	1137260	If it needs to be paid, we will need to add the day to the deal.	If it needs to be paid, we will need to add the day to the deal.	54092726	1473327392854	1473327392978	d	68
103985	1137260	If it needs to be paid, we will need to add the day to the deal.	If it needs to be paid, we will need to add the day to the deal.	54092728	1473327392945	1473327393057	s	83
103985	1137260	If it needs to be paid, we will need to add the day to the deal.	If it needs to be paid, we will need to add the day to the deal.	54092730	1473327393091	1473327393163	 	32
103985	1137260	If it needs to be paid, we will need to add the day to the deal.	If it needs to be paid, we will need to add the day to the deal.	54092732	1473327393203	1473327393324	t	84
103985	1137260	If it needs to be paid, we will need to add the day to the deal.	If it needs to be paid, we will need to add the day to the deal.	54092743	1473327393277	1473327393356	o	79
103985	1137260	If it needs to be paid, we will need to add the day to the deal.	If it needs to be paid, we will need to add the day to the deal.	54092745	1473327393391	1473327393492	 	32
103985	1137260	If it needs to be paid, we will need to add the day to the deal.	If it needs to be paid, we will need to add the day to the deal.	54092749	1473327393496	1473327393604	b	66
103985	1137260	If it needs to be paid, we will need to add the day to the deal.	If it needs to be paid, we will need to add the day to the deal.	54092751	1473327393605	1473327393719	e	69
103985	1137260	If it needs to be paid, we will need to add the day to the deal.	If it needs to be paid, we will need to add the day to the deal.	54092753	1473327393703	1473327393798	 	32
103985	1137260	If it needs to be paid, we will need to add the day to the deal.	If it needs to be paid, we will need to add the day to the deal.	54092755	1473327393874	1473327393976	p	80
103985	1137260	If it needs to be paid, we will need to add the day to the deal.	If it needs to be paid, we will need to add the day to the deal.	54092759	1473327393963	1473327394069	a	65
103985	1137260	If it needs to be paid, we will need to add the day to the deal.	If it needs to be paid, we will need to add the day to the deal.	54092761	1473327394068	1473327394156	i	73
103985	1137260	If it needs to be paid, we will need to add the day to the deal.	If it needs to be paid, we will need to add the day to the deal.	54092765	1473327394166	1473327394259	d	68
103985	1137260	If it needs to be paid, we will need to add the day to the deal.	If it needs to be paid, we will need to add the day to the deal.	54092770	1473327394325	1473327394403	,	188
103985	1137260	If it needs to be paid, we will need to add the day to the deal.	If it needs to be paid, we will need to add the day to the deal.	54092775	1473327394442	1473327394550	 	32
103985	1137260	If it needs to be paid, we will need to add the day to the deal.	If it needs to be paid, we will need to add the day to the deal.	54092779	1473327394653	1473327394786	w	87
103985	1137260	If it needs to be paid, we will need to add the day to the deal.	If it needs to be paid, we will need to add the day to the deal.	54092819	1473327394740	1473327394835	e	69
103985	1137260	If it needs to be paid, we will need to add the day to the deal.	If it needs to be paid, we will need to add the day to the deal.	54092820	1473327394879	1473327394973	 	32
103985	1137260	If it needs to be paid, we will need to add the day to the deal.	If it needs to be paid, we will need to add the day to the deal.	54092821	1473327394986	1473327395095	w	87
103985	1137260	If it needs to be paid, we will need to add the day to the deal.	If it needs to be paid, we will need to add the day to the deal.	54092822	1473327395060	1473327395137	i	73
103985	1137260	If it needs to be paid, we will need to add the day to the deal.	If it needs to be paid, we will need to add the day to the deal.	54092823	1473327395213	1473327395284	l	76
103985	1137260	If it needs to be paid, we will need to add the day to the deal.	If it needs to be paid, we will need to add the day to the deal.	54092824	1473327395354	1473327395432	l	76
103985	1137260	If it needs to be paid, we will need to add the day to the deal.	If it needs to be paid, we will need to add the day to the deal.	54092793	1473327395418	1473327395557	 	32
103985	1137260	If it needs to be paid, we will need to add the day to the deal.	If it needs to be paid, we will need to add the day to the deal.	54092798	1473327395531	1473327395644	n	78
103985	1137260	If it needs to be paid, we will need to add the day to the deal.	If it needs to be paid, we will need to add the day to the deal.	54092802	1473327395612	1473327395711	e	69
103985	1137260	If it needs to be paid, we will need to add the day to the deal.	If it needs to be paid, we will need to add the day to the deal.	54092804	1473327395784	1473327395888	e	69
103985	1137260	If it needs to be paid, we will need to add the day to the deal.	If it needs to be paid, we will need to add the day to the deal.	54092808	1473327395978	1473327396057	d	68
103985	1137260	If it needs to be paid, we will need to add the day to the deal.	If it needs to be paid, we will need to add the day to the deal.	54092812	1473327396070	1473327396141	 	32
103985	1137260	If it needs to be paid, we will need to add the day to the deal.	If it needs to be paid, we will need to add the day to the deal.	54092825	1473327396173	1473327396288	t	84
103985	1137260	If it needs to be paid, we will need to add the day to the deal.	If it needs to be paid, we will need to add the day to the deal.	54092828	1473327396231	1473327396321	o	79
103985	1137260	If it needs to be paid, we will need to add the day to the deal.	If it needs to be paid, we will need to add the day to the deal.	54092831	1473327396347	1473327396457	 	32
103985	1137260	If it needs to be paid, we will need to add the day to the deal.	If it needs to be paid, we will need to add the day to the deal.	54092832	1473327396460	1473327396559	a	65
103985	1137260	If it needs to be paid, we will need to add the day to the deal.	If it needs to be paid, we will need to add the day to the deal.	54092835	1473327396625	1473327396701	d	68
103985	1137260	If it needs to be paid, we will need to add the day to the deal.	If it needs to be paid, we will need to add the day to the deal.	54092858	1473327396772	1473327396857	d	68
103985	1137260	If it needs to be paid, we will need to add the day to the deal.	If it needs to be paid, we will need to add the day to the deal.	54092862	1473327396864	1473327396946	 	32
103985	1137260	If it needs to be paid, we will need to add the day to the deal.	If it needs to be paid, we will need to add the day to the deal.	54092864	1473327396961	1473327397057	t	84
103985	1137260	If it needs to be paid, we will need to add the day to the deal.	If it needs to be paid, we will need to add the day to the deal.	54092868	1473327397046	1473327397128	h	72
103985	1137260	If it needs to be paid, we will need to add the day to the deal.	If it needs to be paid, we will need to add the day to the deal.	54092871	1473327397129	1473327397203	e	69
103985	1137260	If it needs to be paid, we will need to add the day to the deal.	If it needs to be paid, we will need to add the day to the deal.	54092939	1473327397211	1473327397313	 	32
103985	1137260	If it needs to be paid, we will need to add the day to the deal.	If it needs to be paid, we will need to add the day to the deal.	54092940	1473327397315	1473327397416	d	68
103985	1137260	If it needs to be paid, we will need to add the day to the deal.	If it needs to be paid, we will need to add the day to the deal.	54092943	1473327397393	1473327397477	a	65
103985	1137260	If it needs to be paid, we will need to add the day to the deal.	If it needs to be paid, we will need to add the day to the deal.	54092946	1473327397528	1473327397628	y	89
103985	1137260	If it needs to be paid, we will need to add the day to the deal.	If it needs to be paid, we will need to add the day to the deal.	54092949	1473327397633	1473327397722	 	32
103985	1137260	If it needs to be paid, we will need to add the day to the deal.	If it needs to be paid, we will need to add the day to the deal.	54093298	1473327397750	1473327397863	t	84
103985	1137260	If it needs to be paid, we will need to add the day to the deal.	If it needs to be paid, we will need to add the day to the deal.	54093300	1473327397814	1473327397904	o	79
103985	1137260	If it needs to be paid, we will need to add the day to the deal.	If it needs to be paid, we will need to add the day to the deal.	54093302	1473327397918	1473327398007	 	32
103985	1137260	If it needs to be paid, we will need to add the day to the deal.	If it needs to be paid, we will need to add the day to the deal.	54093304	1473327397973	1473327398091	t	84
103985	1137260	If it needs to be paid, we will need to add the day to the deal.	If it needs to be paid, we will need to add the day to the deal.	54093306	1473327398104	1473327398193	h	72
103985	1137260	If it needs to be paid, we will need to add the day to the deal.	If it needs to be paid, we will need to add the day to the deal.	54092911	1473327398155	1473327398253	e	69
103985	1137260	If it needs to be paid, we will need to add the day to the deal.	If it needs to be paid, we will need to add the day to the deal.	54092913	1473327398291	1473327398387	 	32
103985	1137260	If it needs to be paid, we will need to add the day to the deal.	If it needs to be paid, we will need to add the day to the deal.	54092915	1473327398399	1473327398466	d	68
103985	1137260	If it needs to be paid, we will need to add the day to the deal.	If it needs to be paid, we will need to add the day to the deal.	54092917	1473327398557	1473327398667	e	69
103985	1137260	If it needs to be paid, we will need to add the day to the deal.	If it needs to be paid, we will need to add the day to the deal.	54092920	1473327398628	1473327398721	a	65
103985	1137260	If it needs to be paid, we will need to add the day to the deal.	If it needs to be paid, we will need to add the day to the deal.	54093045	1473327398689	1473327398762	l	76
103985	1137260	If it needs to be paid, we will need to add the day to the deal.	If it needs to be paid, we will need to add the day to the deal.	54093050	1473327398901	1473327398941	ALT	18
103985	1137275	Please let me know if you have any questions.	Please let me know if you have any questions.	54093385	1473327409299	1473327409451	SHIFT	16
103985	1137275	Please let me know if you have any questions.	Please let me know if you have any questions.	54093388	1473327409427	1473327409512	P	80
103985	1137275	Please let me know if you have any questions.	Please let me know if you have any questions.	54093391	1473327409603	1473327409696	l	76
103985	1137275	Please let me know if you have any questions.	Please let me know if you have any questions.	54093393	1473327409677	1473327409732	e	69
103985	1137275	Please let me know if you have any questions.	Please let me know if you have any questions.	54093395	1473327409698	1473327409945	a	65
103985	1137275	Please let me know if you have any questions.	Please let me know if you have any questions.	54093318	1473327409837	1473327410027	s	83
103985	1137275	Please let me know if you have any questions.	Please let me know if you have any questions.	54093321	1473327409937	1473327410057	e	69
103985	1137275	Please let me know if you have any questions.	Please let me know if you have any questions.	54093324	1473327410059	1473327410149	 	32
103985	1137275	Please let me know if you have any questions.	Please let me know if you have any questions.	54093329	1473327410169	1473327410271	l	76
103985	1137275	Please let me know if you have any questions.	Please let me know if you have any questions.	54093332	1473327410245	1473327410365	e	69
103985	1137275	Please let me know if you have any questions.	Please let me know if you have any questions.	54093337	1473327410332	1473327410440	t	84
103985	1137275	Please let me know if you have any questions.	Please let me know if you have any questions.	54093357	1473327410432	1473327410532	 	32
103985	1137275	Please let me know if you have any questions.	Please let me know if you have any questions.	54093359	1473327410532	1473327410639	m	77
103985	1137275	Please let me know if you have any questions.	Please let me know if you have any questions.	54093361	1473327410634	1473327410741	e	69
103985	1137275	Please let me know if you have any questions.	Please let me know if you have any questions.	54093364	1473327410725	1473327410826	 	32
103985	1137275	Please let me know if you have any questions.	Please let me know if you have any questions.	54093367	1473327410801	1473327410878	k	75
103985	1137275	Please let me know if you have any questions.	Please let me know if you have any questions.	54093370	1473327410945	1473327411048	n	78
103985	1137275	Please let me know if you have any questions.	Please let me know if you have any questions.	54093461	1473327410990	1473327411099	o	79
103985	1137275	Please let me know if you have any questions.	Please let me know if you have any questions.	54093462	1473327411098	1473327411195	w	87
103985	1137275	Please let me know if you have any questions.	Please let me know if you have any questions.	54093463	1473327411175	1473327411268	 	32
103985	1137275	Please let me know if you have any questions.	Please let me know if you have any questions.	54093464	1473327411263	1473327411352	i	73
103985	1137275	Please let me know if you have any questions.	Please let me know if you have any questions.	54093465	1473327411363	1473327411460	f	70
103985	1137275	Please let me know if you have any questions.	Please let me know if you have any questions.	54093412	1473327411444	1473327411527	 	32
103985	1137275	Please let me know if you have any questions.	Please let me know if you have any questions.	54093415	1473327411598	1473327411697	y	89
103985	1137275	Please let me know if you have any questions.	Please let me know if you have any questions.	54093419	1473327411636	1473327411753	o	79
103985	1137275	Please let me know if you have any questions.	Please let me know if you have any questions.	54093422	1473327411717	1473327411835	u	85
103985	1137275	Please let me know if you have any questions.	Please let me know if you have any questions.	54093424	1473327411812	1473327411944	 	32
103985	1137275	Please let me know if you have any questions.	Please let me know if you have any questions.	54093426	1473327411992	1473327412096	h	72
103985	1137275	Please let me know if you have any questions.	Please let me know if you have any questions.	54093444	1473327412134	1473327412283	a	65
103985	1137275	Please let me know if you have any questions.	Please let me know if you have any questions.	54093446	1473327412295	1473327412426	v	86
103985	1137275	Please let me know if you have any questions.	Please let me know if you have any questions.	54093449	1473327412398	1473327412510	e	69
103985	1137275	Please let me know if you have any questions.	Please let me know if you have any questions.	54093450	1473327412491	1473327412583	 	32
103985	1137275	Please let me know if you have any questions.	Please let me know if you have any questions.	54093452	1473327412663	1473327412780	a	65
103985	1137275	Please let me know if you have any questions.	Please let me know if you have any questions.	54093428	1473327412765	1473327412866	n	78
103985	1137275	Please let me know if you have any questions.	Please let me know if you have any questions.	54093430	1473327412928	1473327413035	y	89
103985	1137275	Please let me know if you have any questions.	Please let me know if you have any questions.	54093432	1473327413013	1473327413111	 	32
103985	1137275	Please let me know if you have any questions.	Please let me know if you have any questions.	54093498	1473327413256	1473327413371	q	87
103985	1137275	Please let me know if you have any questions.	Please let me know if you have any questions.	54093501	1473327413338	1473327413451	u	85
103985	1137275	Please let me know if you have any questions.	Please let me know if you have any questions.	54093503	1473327413503	1473327413609	e	69
103985	1137275	Please let me know if you have any questions.	Please let me know if you have any questions.	54093507	1473327413591	1473327413646	s	83
103985	1137275	Please let me know if you have any questions.	Please let me know if you have any questions.	54093509	1473327413791	1473327413868	BKSP	8
103985	1137275	Please let me know if you have any questions.	Please let me know if you have any questions.	54093512	1473327413944	1473327414013	BKSP	8
103985	1137275	Please let me know if you have any questions.	Please let me know if you have any questions.	54093515	1473327414081	1473327414140	BKSP	8
103985	1137275	Please let me know if you have any questions.	Please let me know if you have any questions.	54093519	1473327414212	1473327414289	BKSP	8
103985	1137275	Please let me know if you have any questions.	Please let me know if you have any questions.	54093522	1473327414356	1473327414423	BKSP	8
103985	1137275	Please let me know if you have any questions.	Please let me know if you have any questions.	54093524	1473327414471	1473327414578	q	81
103985	1137275	Please let me know if you have any questions.	Please let me know if you have any questions.	54093526	1473327414616	1473327414699	u	85
103985	1137275	Please let me know if you have any questions.	Please let me know if you have any questions.	54093529	1473327414714	1473327414838	e	69
103985	1137275	Please let me know if you have any questions.	Please let me know if you have any questions.	54093528	1473327414784	1473327414908	s	83
103985	1137275	Please let me know if you have any questions.	Please let me know if you have any questions.	54093531	1473327414866	1473327414992	t	84
103985	1137275	Please let me know if you have any questions.	Please let me know if you have any questions.	54093533	1473327414938	1473327415073	i	73
103985	1137275	Please let me know if you have any questions.	Please let me know if you have any questions.	54093534	1473327415029	1473327415254	o	79
103985	1137275	Please let me know if you have any questions.	Please let me know if you have any questions.	54093535	1473327415181	1473327415334	n	78
103985	1137275	Please let me know if you have any questions.	Please let me know if you have any questions.	54093536	1473327415342	1473327415449	s	83
103985	1137285	Mom, that sounds fine to me.	Mom, that sounds fine to me.	54093639	1473327418943	1473327419092	SHIFT	16
103985	1137285	Mom, that sounds fine to me.	Mom, that sounds fine to me.	54093642	1473327419027	1473327419110	M	77
103985	1137285	Mom, that sounds fine to me.	Mom, that sounds fine to me.	54093645	1473327419170	1473327419291	o	79
103985	1137285	Mom, that sounds fine to me.	Mom, that sounds fine to me.	54093647	1473327419260	1473327419362	m	77
103985	1137285	Mom, that sounds fine to me.	Mom, that sounds fine to me.	54093651	1473327419485	1473327419568	,	188
103985	1137285	Mom, that sounds fine to me.	Mom, that sounds fine to me.	54093656	1473327419613	1473327419708	 	32
103985	1137285	Mom, that sounds fine to me.	Mom, that sounds fine to me.	54093670	1473327420020	1473327420121	t	84
103985	1137285	Mom, that sounds fine to me.	Mom, that sounds fine to me.	54093672	1473327420117	1473327420218	h	72
103985	1137285	Mom, that sounds fine to me.	Mom, that sounds fine to me.	54093673	1473327420201	1473327420333	a	65
103985	1137285	Mom, that sounds fine to me.	Mom, that sounds fine to me.	54093676	1473327420280	1473327420386	t	84
103985	1137285	Mom, that sounds fine to me.	Mom, that sounds fine to me.	54093690	1473327420355	1473327420445	 	32
103985	1137285	Mom, that sounds fine to me.	Mom, that sounds fine to me.	54093692	1473327420493	1473327420591	s	83
103985	1137285	Mom, that sounds fine to me.	Mom, that sounds fine to me.	54093696	1473327420554	1473327420670	o	79
103985	1137285	Mom, that sounds fine to me.	Mom, that sounds fine to me.	54093699	1473327420616	1473327420710	u	85
103985	1137285	Mom, that sounds fine to me.	Mom, that sounds fine to me.	54093702	1473327420783	1473327420881	n	78
103985	1137285	Mom, that sounds fine to me.	Mom, that sounds fine to me.	54093705	1473327420848	1473327420946	d	68
103985	1137285	Mom, that sounds fine to me.	Mom, that sounds fine to me.	54093706	1473327420906	1473327421012	s	83
103985	1137285	Mom, that sounds fine to me.	Mom, that sounds fine to me.	54093707	1473327421001	1473327421086	 	32
103985	1137285	Mom, that sounds fine to me.	Mom, that sounds fine to me.	54093709	1473327421116	1473327421223	f	70
103985	1137285	Mom, that sounds fine to me.	Mom, that sounds fine to me.	54093711	1473327421208	1473327421330	i	73
103985	1137285	Mom, that sounds fine to me.	Mom, that sounds fine to me.	54093743	1473327421305	1473327421419	n	78
103985	1137285	Mom, that sounds fine to me.	Mom, that sounds fine to me.	54093746	1473327421697	1473327421804	e	69
103985	1137285	Mom, that sounds fine to me.	Mom, that sounds fine to me.	54093747	1473327422105	1473327422197	 	32
103985	1137285	Mom, that sounds fine to me.	Mom, that sounds fine to me.	54093751	1473327422258	1473327422371	t	84
103985	1137285	Mom, that sounds fine to me.	Mom, that sounds fine to me.	54093756	1473327422328	1473327422411	o	79
103985	1137285	Mom, that sounds fine to me.	Mom, that sounds fine to me.	54093761	1473327422422	1473327422507	 	32
103985	1137285	Mom, that sounds fine to me.	Mom, that sounds fine to me.	54093782	1473327422578	1473327422652	m	77
103985	1137285	Mom, that sounds fine to me.	Mom, that sounds fine to me.	54093784	1473327422645	1473327422743	e	69
103985	1137285	Mom, that sounds fine to me.	Mom, that sounds fine to me.	54093787	1473327422815	1473327422895	.	190
103985	1137291	Jordan is taking her last job, corporate development.	Jordan is taking her last job, corporate development.	54093907	1473327425952	1473327426107	SHIFT	16
103985	1137291	Jordan is taking her last job, corporate development.	Jordan is taking her last job, corporate development.	54093910	1473327426057	1473327426126	J	74
103985	1137291	Jordan is taking her last job, corporate development.	Jordan is taking her last job, corporate development.	54093912	1473327426187	1473327426276	o	79
103985	1137291	Jordan is taking her last job, corporate development.	Jordan is taking her last job, corporate development.	54093914	1473327426263	1473327426359	r	82
103985	1137291	Jordan is taking her last job, corporate development.	Jordan is taking her last job, corporate development.	54093916	1473327426432	1473327426550	d	68
103985	1137291	Jordan is taking her last job, corporate development.	Jordan is taking her last job, corporate development.	54093924	1473327426517	1473327426631	a	65
103985	1137291	Jordan is taking her last job, corporate development.	Jordan is taking her last job, corporate development.	54093927	1473327426630	1473327426703	n	78
103985	1137291	Jordan is taking her last job, corporate development.	Jordan is taking her last job, corporate development.	54093930	1473327426738	1473327426840	 	32
103985	1137291	Jordan is taking her last job, corporate development.	Jordan is taking her last job, corporate development.	54093932	1473327426835	1473327426938	i	73
103985	1137291	Jordan is taking her last job, corporate development.	Jordan is taking her last job, corporate development.	54093934	1473327426908	1473327427004	s	83
103985	1137291	Jordan is taking her last job, corporate development.	Jordan is taking her last job, corporate development.	54093936	1473327427007	1473327427099	 	32
103985	1137291	Jordan is taking her last job, corporate development.	Jordan is taking her last job, corporate development.	54093947	1473327427097	1473327427221	t	84
103985	1137291	Jordan is taking her last job, corporate development.	Jordan is taking her last job, corporate development.	54093951	1473327427168	1473327427296	a	65
103985	1137291	Jordan is taking her last job, corporate development.	Jordan is taking her last job, corporate development.	54093956	1473327427259	1473327427322	k	75
103985	1137291	Jordan is taking her last job, corporate development.	Jordan is taking her last job, corporate development.	54093960	1473327427395	1473327427497	i	73
103985	1137291	Jordan is taking her last job, corporate development.	Jordan is taking her last job, corporate development.	54093966	1473327427464	1473327427567	n	78
103985	1137291	Jordan is taking her last job, corporate development.	Jordan is taking her last job, corporate development.	54093974	1473327427526	1473327427628	g	71
103985	1137291	Jordan is taking her last job, corporate development.	Jordan is taking her last job, corporate development.	54093975	1473327427606	1473327427693	 	32
103985	1137291	Jordan is taking her last job, corporate development.	Jordan is taking her last job, corporate development.	54093977	1473327427742	1473327427847	h	72
103985	1137291	Jordan is taking her last job, corporate development.	Jordan is taking her last job, corporate development.	54093980	1473327427816	1473327427933	e	69
103985	1137291	Jordan is taking her last job, corporate development.	Jordan is taking her last job, corporate development.	54093983	1473327427871	1473327427988	r	82
103985	1137291	Jordan is taking her last job, corporate development.	Jordan is taking her last job, corporate development.	54093995	1473327427982	1473327428069	 	32
103985	1137291	Jordan is taking her last job, corporate development.	Jordan is taking her last job, corporate development.	54093999	1473327428087	1473327428208	l	76
103985	1137291	Jordan is taking her last job, corporate development.	Jordan is taking her last job, corporate development.	54094006	1473327428193	1473327428364	a	65
103985	1137291	Jordan is taking her last job, corporate development.	Jordan is taking her last job, corporate development.	54094012	1473327428278	1473327428424	s	83
103985	1137291	Jordan is taking her last job, corporate development.	Jordan is taking her last job, corporate development.	54094018	1473327428409	1473327428537	t	84
103985	1137291	Jordan is taking her last job, corporate development.	Jordan is taking her last job, corporate development.	54094038	1473327428505	1473327428570	 	32
103985	1137291	Jordan is taking her last job, corporate development.	Jordan is taking her last job, corporate development.	54094041	1473327428639	1473327428758	j	74
103985	1137291	Jordan is taking her last job, corporate development.	Jordan is taking her last job, corporate development.	54094044	1473327428722	1473327428839	o	79
103985	1137291	Jordan is taking her last job, corporate development.	Jordan is taking her last job, corporate development.	54094048	1473327428854	1473327428952	b	66
103985	1137291	Jordan is taking her last job, corporate development.	Jordan is taking her last job, corporate development.	54094051	1473327429026	1473327429097	,	188
103985	1137291	Jordan is taking her last job, corporate development.	Jordan is taking her last job, corporate development.	54094053	1473327429124	1473327429225	 	32
103985	1137291	Jordan is taking her last job, corporate development.	Jordan is taking her last job, corporate development.	54094071	1473327429449	1473327429527	c	67
103985	1137291	Jordan is taking her last job, corporate development.	Jordan is taking her last job, corporate development.	54094073	1473327429516	1473327429613	o	79
103985	1137291	Jordan is taking her last job, corporate development.	Jordan is taking her last job, corporate development.	54094078	1473327429676	1473327429773	r	82
103985	1137291	Jordan is taking her last job, corporate development.	Jordan is taking her last job, corporate development.	54094081	1473327429758	1473327429833	p	80
103985	1137291	Jordan is taking her last job, corporate development.	Jordan is taking her last job, corporate development.	54094084	1473327429927	1473327430011	o	79
103985	1137291	Jordan is taking her last job, corporate development.	Jordan is taking her last job, corporate development.	54094092	1473327429988	1473327430099	r	82
103985	1137291	Jordan is taking her last job, corporate development.	Jordan is taking her last job, corporate development.	54094094	1473327430058	1473327430172	a	65
103985	1137291	Jordan is taking her last job, corporate development.	Jordan is taking her last job, corporate development.	54094097	1473327430177	1473327430303	t	84
103985	1137291	Jordan is taking her last job, corporate development.	Jordan is taking her last job, corporate development.	54094100	1473327430278	1473327430379	e	69
103985	1137291	Jordan is taking her last job, corporate development.	Jordan is taking her last job, corporate development.	54094103	1473327430395	1473327430477	 	32
103985	1137291	Jordan is taking her last job, corporate development.	Jordan is taking her last job, corporate development.	54094106	1473327430521	1473327430603	d	68
103985	1137291	Jordan is taking her last job, corporate development.	Jordan is taking her last job, corporate development.	54094122	1473327430698	1473327430778	e	69
103985	1137291	Jordan is taking her last job, corporate development.	Jordan is taking her last job, corporate development.	54094124	1473327430841	1473327430941	v	86
103985	1137291	Jordan is taking her last job, corporate development.	Jordan is taking her last job, corporate development.	54094127	1473327430901	1473327431019	e	69
103985	1137291	Jordan is taking her last job, corporate development.	Jordan is taking her last job, corporate development.	54094129	1473327431030	1473327431119	l	76
103985	1137291	Jordan is taking her last job, corporate development.	Jordan is taking her last job, corporate development.	54094132	1473327431209	1473327431284	o	79
103985	1137291	Jordan is taking her last job, corporate development.	Jordan is taking her last job, corporate development.	54094148	1473327431362	1473327431456	p	80
103985	1137291	Jordan is taking her last job, corporate development.	Jordan is taking her last job, corporate development.	54094150	1473327431627	1473327431691	m	77
103985	1137291	Jordan is taking her last job, corporate development.	Jordan is taking her last job, corporate development.	54094151	1473327431707	1473327431784	e	69
103985	1137291	Jordan is taking her last job, corporate development.	Jordan is taking her last job, corporate development.	54094152	1473327431810	1473327431882	n	78
103985	1137291	Jordan is taking her last job, corporate development.	Jordan is taking her last job, corporate development.	54094153	1473327431885	1473327431983	t	84
103985	1137291	Jordan is taking her last job, corporate development.	Jordan is taking her last job, corporate development.	54094157	1473327432022	1473327432090	.	190
103985	1137297	How is it going?	How is it going?	54094268	1473327435129	1473327435264	SHIFT	16
103985	1137297	How is it going?	How is it going?	54094272	1473327435224	1473327435292	H	72
103985	1137297	How is it going?	How is it going?	54094274	1473327435358	1473327435459	o	79
103985	1137297	How is it going?	How is it going?	54094277	1473327435461	1473327435564	w	87
103985	1137297	How is it going?	How is it going?	54094280	1473327435540	1473327435622	 	32
103985	1137297	How is it going?	How is it going?	54094283	1473327435648	1473327435727	i	73
103985	1137297	How is it going?	How is it going?	54094286	1473327435740	1473327435844	s	83
103985	1137297	How is it going?	How is it going?	54094287	1473327435826	1473327435920	 	32
103985	1137297	How is it going?	How is it going?	54094288	1473327435935	1473327436018	i	73
103985	1137297	How is it going?	How is it going?	54094290	1473327436052	1473327436171	t	84
103985	1137297	How is it going?	How is it going?	54094299	1473327436150	1473327436242	 	32
103985	1137297	How is it going?	How is it going?	54094300	1473327436382	1473327436483	g	71
103985	1137297	How is it going?	How is it going?	54094302	1473327436446	1473327436629	o	79
103985	1137297	How is it going?	How is it going?	54094304	1473327436559	1473327436729	i	73
103985	1137297	How is it going?	How is it going?	54094308	1473327436633	1473327436769	n	78
103985	1137297	How is it going?	How is it going?	54094329	1473327436764	1473327436863	g	71
103985	1137297	How is it going?	How is it going?	54094333	1473327437223	1473327437420	SHIFT	16
103985	1137297	How is it going?	How is it going?	54094331	1473327437278	1473327437416	?	191
103985	1137301	Disney was great and I've been to eight baseball games.	Disney was great and I've been to eight baseball games.	54094473	1473327440973	1473327441245	SHIFT	16
103985	1137301	Disney was great and I've been to eight baseball games.	Disney was great and I've been to eight baseball games.	54094475	1473327441204	1473327441328	D	68
103985	1137301	Disney was great and I've been to eight baseball games.	Disney was great and I've been to eight baseball games.	54094477	1473327441377	1473327441466	i	73
103985	1137301	Disney was great and I've been to eight baseball games.	Disney was great and I've been to eight baseball games.	54094479	1473327441474	1473327441579	s	83
103985	1137301	Disney was great and I've been to eight baseball games.	Disney was great and I've been to eight baseball games.	54094481	1473327441651	1473327441757	n	78
103985	1137301	Disney was great and I've been to eight baseball games.	Disney was great and I've been to eight baseball games.	54094510	1473327441745	1473327441838	e	69
103985	1137301	Disney was great and I've been to eight baseball games.	Disney was great and I've been to eight baseball games.	54094512	1473327441937	1473327442058	y	89
103985	1137301	Disney was great and I've been to eight baseball games.	Disney was great and I've been to eight baseball games.	54094516	1473327442044	1473327442133	 	32
103985	1137301	Disney was great and I've been to eight baseball games.	Disney was great and I've been to eight baseball games.	54094518	1473327442275	1473327442400	w	87
103985	1137301	Disney was great and I've been to eight baseball games.	Disney was great and I've been to eight baseball games.	54094520	1473327442371	1473327442592	a	65
103985	1137301	Disney was great and I've been to eight baseball games.	Disney was great and I've been to eight baseball games.	54094529	1473327442502	1473327442613	s	83
103985	1137301	Disney was great and I've been to eight baseball games.	Disney was great and I've been to eight baseball games.	54094530	1473327442610	1473327442697	 	32
103985	1137301	Disney was great and I've been to eight baseball games.	Disney was great and I've been to eight baseball games.	54094532	1473327442787	1473327442887	g	71
103985	1137301	Disney was great and I've been to eight baseball games.	Disney was great and I've been to eight baseball games.	54094533	1473327442992	1473327443092	r	82
103985	1137301	Disney was great and I've been to eight baseball games.	Disney was great and I've been to eight baseball games.	54094535	1473327443045	1473327443172	e	69
103985	1137301	Disney was great and I've been to eight baseball games.	Disney was great and I've been to eight baseball games.	54094539	1473327443132	1473327443263	a	65
103985	1137301	Disney was great and I've been to eight baseball games.	Disney was great and I've been to eight baseball games.	54094541	1473327443233	1473327443320	t	84
103985	1137301	Disney was great and I've been to eight baseball games.	Disney was great and I've been to eight baseball games.	54094545	1473327443311	1473327443394	 	32
103985	1137301	Disney was great and I've been to eight baseball games.	Disney was great and I've been to eight baseball games.	54094548	1473327443428	1473327443519	a	65
103985	1137301	Disney was great and I've been to eight baseball games.	Disney was great and I've been to eight baseball games.	54094553	1473327443506	1473327443590	n	78
103985	1137301	Disney was great and I've been to eight baseball games.	Disney was great and I've been to eight baseball games.	54094555	1473327443610	1473327443701	d	68
103985	1137301	Disney was great and I've been to eight baseball games.	Disney was great and I've been to eight baseball games.	54094588	1473327443674	1473327443775	 	32
103985	1137301	Disney was great and I've been to eight baseball games.	Disney was great and I've been to eight baseball games.	54094592	1473327443899	1473327444038	SHIFT	16
103985	1137301	Disney was great and I've been to eight baseball games.	Disney was great and I've been to eight baseball games.	54094595	1473327443976	1473327444055	I	73
103985	1137301	Disney was great and I've been to eight baseball games.	Disney was great and I've been to eight baseball games.	54094598	1473327444275	1473327444417	'	222
103985	1137301	Disney was great and I've been to eight baseball games.	Disney was great and I've been to eight baseball games.	54094601	1473327444413	1473327444513	v	86
103985	1137301	Disney was great and I've been to eight baseball games.	Disney was great and I've been to eight baseball games.	54094605	1473327444481	1473327444601	e	69
103985	1137301	Disney was great and I've been to eight baseball games.	Disney was great and I've been to eight baseball games.	54094613	1473327444597	1473327444683	 	32
103985	1137301	Disney was great and I've been to eight baseball games.	Disney was great and I've been to eight baseball games.	54094616	1473327444809	1473327444932	b	66
103985	1137301	Disney was great and I've been to eight baseball games.	Disney was great and I've been to eight baseball games.	54094619	1473327444901	1473327445005	e	69
103985	1137301	Disney was great and I've been to eight baseball games.	Disney was great and I've been to eight baseball games.	54094623	1473327445076	1473327445167	e	69
103985	1137301	Disney was great and I've been to eight baseball games.	Disney was great and I've been to eight baseball games.	54094627	1473327445128	1473327445220	n	78
103985	1137301	Disney was great and I've been to eight baseball games.	Disney was great and I've been to eight baseball games.	54094632	1473327445234	1473327445308	 	32
103985	1137301	Disney was great and I've been to eight baseball games.	Disney was great and I've been to eight baseball games.	54094645	1473327445313	1473327445444	t	84
103985	1137301	Disney was great and I've been to eight baseball games.	Disney was great and I've been to eight baseball games.	54094647	1473327445374	1473327445477	o	79
103985	1137301	Disney was great and I've been to eight baseball games.	Disney was great and I've been to eight baseball games.	54094649	1473327445483	1473327445589	 	32
103985	1137301	Disney was great and I've been to eight baseball games.	Disney was great and I've been to eight baseball games.	54094651	1473327445610	1473327445754	e	69
103985	1137301	Disney was great and I've been to eight baseball games.	Disney was great and I've been to eight baseball games.	54094654	1473327445846	1473327445944	i	73
103985	1137301	Disney was great and I've been to eight baseball games.	Disney was great and I've been to eight baseball games.	54094673	1473327445948	1473327446054	g	71
103985	1137301	Disney was great and I've been to eight baseball games.	Disney was great and I've been to eight baseball games.	54094675	1473327446100	1473327446179	h	72
103985	1137301	Disney was great and I've been to eight baseball games.	Disney was great and I've been to eight baseball games.	54094677	1473327446164	1473327446274	t	84
103985	1137301	Disney was great and I've been to eight baseball games.	Disney was great and I've been to eight baseball games.	54094679	1473327446288	1473327446385	 	32
103985	1137301	Disney was great and I've been to eight baseball games.	Disney was great and I've been to eight baseball games.	54094682	1473327446559	1473327446695	b	66
103985	1137301	Disney was great and I've been to eight baseball games.	Disney was great and I've been to eight baseball games.	54094706	1473327446640	1473327446793	a	65
103985	1137301	Disney was great and I've been to eight baseball games.	Disney was great and I've been to eight baseball games.	54094710	1473327446709	1473327446817	s	83
103985	1137301	Disney was great and I've been to eight baseball games.	Disney was great and I've been to eight baseball games.	54094712	1473327446896	1473327446995	e	69
103985	1137301	Disney was great and I've been to eight baseball games.	Disney was great and I've been to eight baseball games.	54094714	1473327447099	1473327447212	b	66
103985	1137301	Disney was great and I've been to eight baseball games.	Disney was great and I've been to eight baseball games.	54094716	1473327447175	1473327447290	a	65
103985	1137301	Disney was great and I've been to eight baseball games.	Disney was great and I've been to eight baseball games.	54094717	1473327447297	1473327447380	l	76
103985	1137301	Disney was great and I've been to eight baseball games.	Disney was great and I've been to eight baseball games.	54094725	1473327447443	1473327447536	l	76
103985	1137301	Disney was great and I've been to eight baseball games.	Disney was great and I've been to eight baseball games.	54094728	1473327447530	1473327447642	 	32
103985	1137301	Disney was great and I've been to eight baseball games.	Disney was great and I've been to eight baseball games.	54094731	1473327447676	1473327447805	g	71
103985	1137301	Disney was great and I've been to eight baseball games.	Disney was great and I've been to eight baseball games.	54094734	1473327447748	1473327447843	a	65
103985	1137301	Disney was great and I've been to eight baseball games.	Disney was great and I've been to eight baseball games.	54094743	1473327447830	1473327447908	m	77
103985	1137301	Disney was great and I've been to eight baseball games.	Disney was great and I've been to eight baseball games.	54094744	1473327447918	1473327448044	e	69
103985	1137301	Disney was great and I've been to eight baseball games.	Disney was great and I've been to eight baseball games.	54094745	1473327448002	1473327448103	s	83
103985	1137301	Disney was great and I've been to eight baseball games.	Disney was great and I've been to eight baseball games.	54094746	1473327448072	1473327448159	.	190
103985	1137312	I see some volume reversing in the system.	I see some volume reversing in the system	54094898	1473327451646	1473327451785	SHIFT	16
103985	1137312	I see some volume reversing in the system.	I see some volume reversing in the system	54094899	1473327451747	1473327451818	I	73
103985	1137312	I see some volume reversing in the system.	I see some volume reversing in the system	54094900	1473327451866	1473327451965	 	32
103985	1137312	I see some volume reversing in the system.	I see some volume reversing in the system	54094901	1473327451979	1473327452095	s	83
103985	1137312	I see some volume reversing in the system.	I see some volume reversing in the system	54094902	1473327452094	1473327452173	e	69
103985	1137312	I see some volume reversing in the system.	I see some volume reversing in the system	54094904	1473327452264	1473327452378	e	69
103985	1137312	I see some volume reversing in the system.	I see some volume reversing in the system	54094910	1473327452364	1473327452427	 	32
103985	1137312	I see some volume reversing in the system.	I see some volume reversing in the system	54094913	1473327452501	1473327452594	s	83
103985	1137312	I see some volume reversing in the system.	I see some volume reversing in the system	54094917	1473327452533	1473327452682	o	79
103985	1137312	I see some volume reversing in the system.	I see some volume reversing in the system	54094920	1473327452640	1473327452727	m	77
103985	1137312	I see some volume reversing in the system.	I see some volume reversing in the system	54094922	1473327452720	1473327452812	e	69
103985	1137312	I see some volume reversing in the system.	I see some volume reversing in the system	54094960	1473327452808	1473327452890	 	32
103985	1137312	I see some volume reversing in the system.	I see some volume reversing in the system	54094961	1473327452929	1473327453035	v	86
103985	1137312	I see some volume reversing in the system.	I see some volume reversing in the system	54094962	1473327452994	1473327453072	o	79
103985	1137312	I see some volume reversing in the system.	I see some volume reversing in the system	54094964	1473327453173	1473327453211	.	190
103985	1137312	I see some volume reversing in the system.	I see some volume reversing in the system	54094966	1473327453280	1473327453377	u	85
103985	1137312	I see some volume reversing in the system.	I see some volume reversing in the system	54094968	1473327453681	1473327453747	BKSP	8
103985	1137312	I see some volume reversing in the system.	I see some volume reversing in the system	54094971	1473327453816	1473327453893	BKSP	8
103985	1137312	I see some volume reversing in the system.	I see some volume reversing in the system	54094974	1473327454040	1473327454109	l	76
103985	1137312	I see some volume reversing in the system.	I see some volume reversing in the system	54094987	1473327454191	1473327454251	u	85
103985	1137312	I see some volume reversing in the system.	I see some volume reversing in the system	54094988	1473327454351	1473327454428	m	77
103985	1137312	I see some volume reversing in the system.	I see some volume reversing in the system	54094989	1473327454422	1473327454509	e	69
103985	1137312	I see some volume reversing in the system.	I see some volume reversing in the system	54094991	1473327454512	1473327454594	 	32
103985	1137312	I see some volume reversing in the system.	I see some volume reversing in the system	54094993	1473327454622	1473327454740	r	82
103985	1137312	I see some volume reversing in the system.	I see some volume reversing in the system	54095015	1473327454681	1473327454792	e	69
103985	1137312	I see some volume reversing in the system.	I see some volume reversing in the system	54095021	1473327454883	1473327454999	v	86
103985	1137312	I see some volume reversing in the system.	I see some volume reversing in the system	54095025	1473327454948	1473327455076	e	69
103985	1137312	I see some volume reversing in the system.	I see some volume reversing in the system	54095028	1473327455137	1473327455239	r	82
103985	1137312	I see some volume reversing in the system.	I see some volume reversing in the system	54095032	1473327455306	1473327455430	s	83
103985	1137312	I see some volume reversing in the system.	I see some volume reversing in the system	54095072	1473327455406	1473327455656	i	73
103985	1137312	I see some volume reversing in the system.	I see some volume reversing in the system	54095073	1473327455595	1473327455765	n	78
103985	1137312	I see some volume reversing in the system.	I see some volume reversing in the system	54095075	1473327456688	1473327456773	g	71
103985	1137312	I see some volume reversing in the system.	I see some volume reversing in the system	54095076	1473327456797	1473327456888	 	32
103985	1137312	I see some volume reversing in the system.	I see some volume reversing in the system	54095078	1473327457006	1473327457123	i	73
103985	1137312	I see some volume reversing in the system.	I see some volume reversing in the system	54095090	1473327457111	1473327457186	n	78
103985	1137312	I see some volume reversing in the system.	I see some volume reversing in the system	54095094	1473327457210	1473327457298	 	32
103985	1137312	I see some volume reversing in the system.	I see some volume reversing in the system	54095099	1473327457302	1473327457422	t	84
103985	1137312	I see some volume reversing in the system.	I see some volume reversing in the system	54095105	1473327457384	1473327457482	h	72
103985	1137312	I see some volume reversing in the system.	I see some volume reversing in the system	54095108	1473327457475	1473327457564	e	69
103985	1137312	I see some volume reversing in the system.	I see some volume reversing in the system	54095118	1473327457523	1473327457611	 	32
103985	1137312	I see some volume reversing in the system.	I see some volume reversing in the system	54095120	1473327457704	1473327457803	s	83
103985	1137312	I see some volume reversing in the system.	I see some volume reversing in the system	54095122	1473327457826	1473327457950	y	89
103985	1137312	I see some volume reversing in the system.	I see some volume reversing in the system	54095124	1473327457932	1473327458087	s	83
103985	1137312	I see some volume reversing in the system.	I see some volume reversing in the system	54095126	1473327458090	1473327458231	t	84
103985	1137312	I see some volume reversing in the system.	I see some volume reversing in the system	54095127	1473327458170	1473327458283	e	69
103985	1137312	I see some volume reversing in the system.	I see some volume reversing in the system	54095128	1473327458248	1473327458348	m	77
103985	1137318	When it is used we try and do as many paths as possible.	When it is used we try and do as many paths as possible.	54095279	1473327461512	1473327461620	SHIFT	16
103985	1137318	When it is used we try and do as many paths as possible.	When it is used we try and do as many paths as possible.	54095281	1473327461559	1473327461685	W	87
103985	1137318	When it is used we try and do as many paths as possible.	When it is used we try and do as many paths as possible.	54095287	1473327461736	1473327461814	h	72
103985	1137318	When it is used we try and do as many paths as possible.	When it is used we try and do as many paths as possible.	54095291	1473327461800	1473327461910	e	69
103985	1137318	When it is used we try and do as many paths as possible.	When it is used we try and do as many paths as possible.	54095294	1473327462094	1473327462209	n	78
103985	1137318	When it is used we try and do as many paths as possible.	When it is used we try and do as many paths as possible.	54095297	1473327462265	1473327462353	 	32
103985	1137318	When it is used we try and do as many paths as possible.	When it is used we try and do as many paths as possible.	54095305	1473327462368	1473327462462	i	73
103985	1137318	When it is used we try and do as many paths as possible.	When it is used we try and do as many paths as possible.	54095308	1473327462489	1473327462598	t	84
103985	1137318	When it is used we try and do as many paths as possible.	When it is used we try and do as many paths as possible.	54095310	1473327462580	1473327462667	 	32
103985	1137318	When it is used we try and do as many paths as possible.	When it is used we try and do as many paths as possible.	54095313	1473327462701	1473327462789	i	73
103985	1137318	When it is used we try and do as many paths as possible.	When it is used we try and do as many paths as possible.	54095316	1473327462823	1473327462921	s	83
103985	1137318	When it is used we try and do as many paths as possible.	When it is used we try and do as many paths as possible.	54095339	1473327462908	1473327462983	 	32
103985	1137318	When it is used we try and do as many paths as possible.	When it is used we try and do as many paths as possible.	54095344	1473327463040	1473327463134	u	85
103985	1137318	When it is used we try and do as many paths as possible.	When it is used we try and do as many paths as possible.	54095347	1473327463181	1473327463290	s	83
103985	1137318	When it is used we try and do as many paths as possible.	When it is used we try and do as many paths as possible.	54095350	1473327463354	1473327463440	e	69
103985	1137318	When it is used we try and do as many paths as possible.	When it is used we try and do as many paths as possible.	54095353	1473327463536	1473327463623	d	68
103985	1137318	When it is used we try and do as many paths as possible.	When it is used we try and do as many paths as possible.	54095357	1473327463640	1473327463737	 	32
103985	1137318	When it is used we try and do as many paths as possible.	When it is used we try and do as many paths as possible.	54095374	1473327463832	1473327463970	w	87
103985	1137318	When it is used we try and do as many paths as possible.	When it is used we try and do as many paths as possible.	54095377	1473327463892	1473327464037	e	69
103985	1137318	When it is used we try and do as many paths as possible.	When it is used we try and do as many paths as possible.	54095381	1473327464064	1473327464166	 	32
103985	1137318	When it is used we try and do as many paths as possible.	When it is used we try and do as many paths as possible.	54095386	1473327464178	1473327464277	t	84
103985	1137318	When it is used we try and do as many paths as possible.	When it is used we try and do as many paths as possible.	54095391	1473327464360	1473327464446	r	82
103985	1137318	When it is used we try and do as many paths as possible.	When it is used we try and do as many paths as possible.	54095406	1473327464555	1473327464646	y	89
103985	1137318	When it is used we try and do as many paths as possible.	When it is used we try and do as many paths as possible.	54095408	1473327464635	1473327464722	 	32
103985	1137318	When it is used we try and do as many paths as possible.	When it is used we try and do as many paths as possible.	54095410	1473327464882	1473327464976	a	65
103985	1137318	When it is used we try and do as many paths as possible.	When it is used we try and do as many paths as possible.	54095412	1473327464988	1473327465072	n	78
103985	1137318	When it is used we try and do as many paths as possible.	When it is used we try and do as many paths as possible.	54095415	1473327465080	1473327465164	d	68
103985	1137318	When it is used we try and do as many paths as possible.	When it is used we try and do as many paths as possible.	54095440	1473327465151	1473327465237	 	32
103985	1137318	When it is used we try and do as many paths as possible.	When it is used we try and do as many paths as possible.	54095441	1473327465411	1473327465516	d	68
103985	1137318	When it is used we try and do as many paths as possible.	When it is used we try and do as many paths as possible.	54095442	1473327465499	1473327465581	o	79
103985	1137318	When it is used we try and do as many paths as possible.	When it is used we try and do as many paths as possible.	54095443	1473327465617	1473327465719	 	32
103985	1137318	When it is used we try and do as many paths as possible.	When it is used we try and do as many paths as possible.	54095444	1473327465868	1473327466044	a	65
103985	1137318	When it is used we try and do as many paths as possible.	When it is used we try and do as many paths as possible.	54095451	1473327465948	1473327466069	s	83
103985	1137318	When it is used we try and do as many paths as possible.	When it is used we try and do as many paths as possible.	54095452	1473327466067	1473327466150	 	32
103985	1137318	When it is used we try and do as many paths as possible.	When it is used we try and do as many paths as possible.	54095453	1473327466218	1473327466317	m	77
103985	1137318	When it is used we try and do as many paths as possible.	When it is used we try and do as many paths as possible.	54095454	1473327466314	1473327466411	a	65
103985	1137318	When it is used we try and do as many paths as possible.	When it is used we try and do as many paths as possible.	54095456	1473327466418	1473327466510	n	78
103985	1137318	When it is used we try and do as many paths as possible.	When it is used we try and do as many paths as possible.	54095460	1473327466515	1473327466629	y	89
103985	1137318	When it is used we try and do as many paths as possible.	When it is used we try and do as many paths as possible.	54095483	1473327466624	1473327466710	 	32
103985	1137318	When it is used we try and do as many paths as possible.	When it is used we try and do as many paths as possible.	54095485	1473327466731	1473327466843	p	80
103985	1137318	When it is used we try and do as many paths as possible.	When it is used we try and do as many paths as possible.	54095487	1473327466813	1473327466946	a	65
103985	1137318	When it is used we try and do as many paths as possible.	When it is used we try and do as many paths as possible.	54095489	1473327466992	1473327467094	t	84
103985	1137318	When it is used we try and do as many paths as possible.	When it is used we try and do as many paths as possible.	54095492	1473327467095	1473327467191	h	72
103985	1137318	When it is used we try and do as many paths as possible.	When it is used we try and do as many paths as possible.	54095495	1473327467212	1473327467327	s	83
103985	1137318	When it is used we try and do as many paths as possible.	When it is used we try and do as many paths as possible.	54095501	1473327467373	1473327467475	 	32
103985	1137318	When it is used we try and do as many paths as possible.	When it is used we try and do as many paths as possible.	54095503	1473327467506	1473327467670	a	65
103985	1137318	When it is used we try and do as many paths as possible.	When it is used we try and do as many paths as possible.	54095507	1473327467580	1473327467715	s	83
103985	1137318	When it is used we try and do as many paths as possible.	When it is used we try and do as many paths as possible.	54095509	1473327467713	1473327467810	 	32
103985	1137318	When it is used we try and do as many paths as possible.	When it is used we try and do as many paths as possible.	54095541	1473327467809	1473327467905	p	80
103985	1137318	When it is used we try and do as many paths as possible.	When it is used we try and do as many paths as possible.	54095543	1473327467981	1473327468065	o	79
103985	1137318	When it is used we try and do as many paths as possible.	When it is used we try and do as many paths as possible.	54095545	1473327468067	1473327468159	s	83
103985	1137318	When it is used we try and do as many paths as possible.	When it is used we try and do as many paths as possible.	54095546	1473327468244	1473327468354	s	83
103985	1137318	When it is used we try and do as many paths as possible.	When it is used we try and do as many paths as possible.	54095547	1473327468315	1473327468405	i	73
103985	1137318	When it is used we try and do as many paths as possible.	When it is used we try and do as many paths as possible.	54095548	1473327468436	1473327468537	b	66
103985	1137318	When it is used we try and do as many paths as possible.	When it is used we try and do as many paths as possible.	54095562	1473327468524	1473327468601	l	76
103985	1137318	When it is used we try and do as many paths as possible.	When it is used we try and do as many paths as possible.	54095565	1473327468638	1473327468723	e	69
103985	1137318	When it is used we try and do as many paths as possible.	When it is used we try and do as many paths as possible.	54095568	1473327468734	1473327468812	.	190
103985	1137327	Ladies, here's the revised September purchase.	Ladies, here's the revised September purchase.	54095683	1473327472411	1473327472550	SHIFT	16
103985	1137327	Ladies, here's the revised September purchase.	Ladies, here's the revised September purchase.	54095686	1473327472495	1473327472580	L	76
103985	1137327	Ladies, here's the revised September purchase.	Ladies, here's the revised September purchase.	54095689	1473327472750	1473327472859	a	65
103985	1137327	Ladies, here's the revised September purchase.	Ladies, here's the revised September purchase.	54095694	1473327472967	1473327473068	d	68
103985	1137327	Ladies, here's the revised September purchase.	Ladies, here's the revised September purchase.	54095698	1473327473081	1473327473169	i	73
103985	1137327	Ladies, here's the revised September purchase.	Ladies, here's the revised September purchase.	54095702	1473327473199	1473327473322	e	69
103985	1137327	Ladies, here's the revised September purchase.	Ladies, here's the revised September purchase.	54095729	1473327473282	1473327473395	s	83
103985	1137327	Ladies, here's the revised September purchase.	Ladies, here's the revised September purchase.	54095731	1473327473505	1473327473573	,	188
103985	1137327	Ladies, here's the revised September purchase.	Ladies, here's the revised September purchase.	54095733	1473327473605	1473327473707	 	32
103985	1137327	Ladies, here's the revised September purchase.	Ladies, here's the revised September purchase.	54095736	1473327473797	1473327473939	SHIFT	16
103985	1137327	Ladies, here's the revised September purchase.	Ladies, here's the revised September purchase.	54095738	1473327473887	1473327473972	H	72
103985	1137327	Ladies, here's the revised September purchase.	Ladies, here's the revised September purchase.	54095741	1473327474046	1473327474203	e	69
103985	1137327	Ladies, here's the revised September purchase.	Ladies, here's the revised September purchase.	54095798	1473327474115	1473327474288	r	82
103985	1137327	Ladies, here's the revised September purchase.	Ladies, here's the revised September purchase.	54095800	1473327474274	1473327474377	e	69
103985	1137327	Ladies, here's the revised September purchase.	Ladies, here's the revised September purchase.	54095801	1473327474381	1473327474512	'	222
103985	1137327	Ladies, here's the revised September purchase.	Ladies, here's the revised September purchase.	54095802	1473327474916	1473327474981	BKSP	8
103985	1137327	Ladies, here's the revised September purchase.	Ladies, here's the revised September purchase.	54095803	1473327475056	1473327475121	BKSP	8
103985	1137327	Ladies, here's the revised September purchase.	Ladies, here's the revised September purchase.	54095804	1473327475200	1473327475270	BKSP	8
103985	1137327	Ladies, here's the revised September purchase.	Ladies, here's the revised September purchase.	54095806	1473327475346	1473327475395	BKSP	8
103985	1137327	Ladies, here's the revised September purchase.	Ladies, here's the revised September purchase.	54095809	1473327475478	1473327475526	BKSP	8
103985	1137327	Ladies, here's the revised September purchase.	Ladies, here's the revised September purchase.	54095812	1473327475692	1473327475759	h	72
103985	1137327	Ladies, here's the revised September purchase.	Ladies, here's the revised September purchase.	54095815	1473327475759	1473327475856	e	69
103985	1137327	Ladies, here's the revised September purchase.	Ladies, here's the revised September purchase.	54095843	1473327475831	1473327475961	r	82
103985	1137327	Ladies, here's the revised September purchase.	Ladies, here's the revised September purchase.	54095847	1473327475927	1473327476027	e	69
103985	1137327	Ladies, here's the revised September purchase.	Ladies, here's the revised September purchase.	54095850	1473327476093	1473327476209	'	222
103985	1137327	Ladies, here's the revised September purchase.	Ladies, here's the revised September purchase.	54095854	1473327476236	1473327476345	s	83
103985	1137327	Ladies, here's the revised September purchase.	Ladies, here's the revised September purchase.	54095856	1473327476423	1473327476520	 	32
103985	1137327	Ladies, here's the revised September purchase.	Ladies, here's the revised September purchase.	54095862	1473327476792	1473327476896	t	84
103985	1137327	Ladies, here's the revised September purchase.	Ladies, here's the revised September purchase.	54095881	1473327476874	1473327476949	h	72
103985	1137327	Ladies, here's the revised September purchase.	Ladies, here's the revised September purchase.	54095883	1473327476954	1473327477062	e	69
103985	1137327	Ladies, here's the revised September purchase.	Ladies, here's the revised September purchase.	54095885	1473327477021	1473327477119	 	32
103985	1137327	Ladies, here's the revised September purchase.	Ladies, here's the revised September purchase.	54095887	1473327477204	1473327477314	v	86
103985	1137327	Ladies, here's the revised September purchase.	Ladies, here's the revised September purchase.	54095889	1473327477284	1473327477401	e	69
103985	1137327	Ladies, here's the revised September purchase.	Ladies, here's the revised September purchase.	54095891	1473327477527	1473327477586	BKSP	8
103985	1137327	Ladies, here's the revised September purchase.	Ladies, here's the revised September purchase.	54095892	1473327477665	1473327477744	BKSP	8
103985	1137327	Ladies, here's the revised September purchase.	Ladies, here's the revised September purchase.	54095925	1473327477723	1473327477824	r	82
103985	1137327	Ladies, here's the revised September purchase.	Ladies, here's the revised September purchase.	54095927	1473327477776	1473327477883	e	69
103985	1137327	Ladies, here's the revised September purchase.	Ladies, here's the revised September purchase.	54095930	1473327477962	1473327478080	v	86
103985	1137327	Ladies, here's the revised September purchase.	Ladies, here's the revised September purchase.	54095933	1473327478083	1473327478165	i	73
103985	1137327	Ladies, here's the revised September purchase.	Ladies, here's the revised September purchase.	54095935	1473327478233	1473327478327	s	83
103985	1137327	Ladies, here's the revised September purchase.	Ladies, here's the revised September purchase.	54095938	1473327478399	1473327478483	e	69
103985	1137327	Ladies, here's the revised September purchase.	Ladies, here's the revised September purchase.	54095937	1473327478581	1473327478669	d	68
103985	1137327	Ladies, here's the revised September purchase.	Ladies, here's the revised September purchase.	54095939	1473327478680	1473327478770	 	32
103985	1137327	Ladies, here's the revised September purchase.	Ladies, here's the revised September purchase.	54095941	1473327479024	1473327479168	SHIFT	16
103985	1137327	Ladies, here's the revised September purchase.	Ladies, here's the revised September purchase.	54095943	1473327479079	1473327479185	S	83
103985	1137327	Ladies, here's the revised September purchase.	Ladies, here's the revised September purchase.	54095945	1473327479257	1473327479362	e	69
103985	1137327	Ladies, here's the revised September purchase.	Ladies, here's the revised September purchase.	54095969	1473327479349	1473327479428	p	80
103985	1137327	Ladies, here's the revised September purchase.	Ladies, here's the revised September purchase.	54095971	1473327479468	1473327479560	t	84
103985	1137327	Ladies, here's the revised September purchase.	Ladies, here's the revised September purchase.	54095974	1473327479601	1473327479737	e	69
103985	1137327	Ladies, here's the revised September purchase.	Ladies, here's the revised September purchase.	54095978	1473327479772	1473327479874	m	77
103985	1137327	Ladies, here's the revised September purchase.	Ladies, here's the revised September purchase.	54095982	1473327479917	1473327480026	b	66
103985	1137327	Ladies, here's the revised September purchase.	Ladies, here's the revised September purchase.	54095987	1473327480107	1473327480209	e	69
103985	1137327	Ladies, here's the revised September purchase.	Ladies, here's the revised September purchase.	54096031	1473327480180	1473327480296	r	82
103985	1137327	Ladies, here's the revised September purchase.	Ladies, here's the revised September purchase.	54096034	1473327480387	1473327480475	 	32
103985	1137327	Ladies, here's the revised September purchase.	Ladies, here's the revised September purchase.	54096035	1473327480576	1473327480670	p	80
103985	1137327	Ladies, here's the revised September purchase.	Ladies, here's the revised September purchase.	54096036	1473327480713	1473327480819	u	85
103985	1137327	Ladies, here's the revised September purchase.	Ladies, here's the revised September purchase.	54096037	1473327480836	1473327480929	r	82
103985	1137327	Ladies, here's the revised September purchase.	Ladies, here's the revised September purchase.	54096038	1473327481104	1473327481214	s	83
103985	1137327	Ladies, here's the revised September purchase.	Ladies, here's the revised September purchase.	54096061	1473327481451	1473327481528	BKSP	8
103985	1137327	Ladies, here's the revised September purchase.	Ladies, here's the revised September purchase.	54096067	1473327481521	1473327481639	c	67
103985	1137327	Ladies, here's the revised September purchase.	Ladies, here's the revised September purchase.	54096071	1473327481663	1473327481740	h	72
103985	1137327	Ladies, here's the revised September purchase.	Ladies, here's the revised September purchase.	54096075	1473327481728	1473327481863	a	65
103985	1137327	Ladies, here's the revised September purchase.	Ladies, here's the revised September purchase.	54096078	1473327481789	1473327481898	s	83
103985	1137327	Ladies, here's the revised September purchase.	Ladies, here's the revised September purchase.	54096080	1473327481954	1473327482063	e	69
103985	1137327	Ladies, here's the revised September purchase.	Ladies, here's the revised September purchase.	54096081	1473327482086	1473327482178	.	190
103985	1137339	The fighting erupted after a private quarrel.	The fighting erupted after a private quarrel.	54096270	1473327486472	1473327486665	SHIFT	16
103985	1137339	The fighting erupted after a private quarrel.	The fighting erupted after a private quarrel.	54096271	1473327486623	1473327486737	T	84
103985	1137339	The fighting erupted after a private quarrel.	The fighting erupted after a private quarrel.	54096273	1473327486810	1473327486899	h	72
103985	1137339	The fighting erupted after a private quarrel.	The fighting erupted after a private quarrel.	54096277	1473327486890	1473327487001	e	69
103985	1137339	The fighting erupted after a private quarrel.	The fighting erupted after a private quarrel.	54096281	1473327486987	1473327487067	 	32
103985	1137339	The fighting erupted after a private quarrel.	The fighting erupted after a private quarrel.	54096285	1473327487093	1473327487190	f	70
103985	1137339	The fighting erupted after a private quarrel.	The fighting erupted after a private quarrel.	54096290	1473327487153	1473327487247	i	73
103985	1137339	The fighting erupted after a private quarrel.	The fighting erupted after a private quarrel.	54096292	1473327487284	1473327487362	g	71
103985	1137339	The fighting erupted after a private quarrel.	The fighting erupted after a private quarrel.	54096296	1473327487334	1473327487422	h	72
103985	1137339	The fighting erupted after a private quarrel.	The fighting erupted after a private quarrel.	54096298	1473327487473	1473327487566	t	84
103985	1137339	The fighting erupted after a private quarrel.	The fighting erupted after a private quarrel.	54096302	1473327487522	1473327487650	i	73
103985	1137339	The fighting erupted after a private quarrel.	The fighting erupted after a private quarrel.	54096312	1473327487601	1473327487718	n	78
103985	1137339	The fighting erupted after a private quarrel.	The fighting erupted after a private quarrel.	54096313	1473327487693	1473327487781	g	71
103985	1137339	The fighting erupted after a private quarrel.	The fighting erupted after a private quarrel.	54096314	1473327487772	1473327487873	 	32
103985	1137339	The fighting erupted after a private quarrel.	The fighting erupted after a private quarrel.	54096315	1473327487905	1473327487994	e	69
103985	1137339	The fighting erupted after a private quarrel.	The fighting erupted after a private quarrel.	54096317	1473327487958	1473327488089	r	82
103985	1137339	The fighting erupted after a private quarrel.	The fighting erupted after a private quarrel.	54096319	1473327488116	1473327488218	u	85
103985	1137339	The fighting erupted after a private quarrel.	The fighting erupted after a private quarrel.	54096365	1473327488228	1473327488346	p	80
103985	1137339	The fighting erupted after a private quarrel.	The fighting erupted after a private quarrel.	54096367	1473327488379	1473327488524	t	84
103985	1137339	The fighting erupted after a private quarrel.	The fighting erupted after a private quarrel.	54096368	1473327488495	1473327488600	e	69
103985	1137339	The fighting erupted after a private quarrel.	The fighting erupted after a private quarrel.	54096369	1473327488706	1473327488793	d	68
103985	1137339	The fighting erupted after a private quarrel.	The fighting erupted after a private quarrel.	54096392	1473327488791	1473327488876	 	32
103985	1137339	The fighting erupted after a private quarrel.	The fighting erupted after a private quarrel.	54096395	1473327488914	1473327489038	a	65
103985	1137339	The fighting erupted after a private quarrel.	The fighting erupted after a private quarrel.	54096398	1473327489002	1473327489108	f	70
103985	1137339	The fighting erupted after a private quarrel.	The fighting erupted after a private quarrel.	54096402	1473327489202	1473327489292	t	84
103985	1137339	The fighting erupted after a private quarrel.	The fighting erupted after a private quarrel.	54096405	1473327489275	1473327489447	e	69
103985	1137339	The fighting erupted after a private quarrel.	The fighting erupted after a private quarrel.	54096391	1473327489390	1473327489510	r	82
103985	1137339	The fighting erupted after a private quarrel.	The fighting erupted after a private quarrel.	54096394	1473327489571	1473327489663	 	32
103985	1137339	The fighting erupted after a private quarrel.	The fighting erupted after a private quarrel.	54096397	1473327489700	1473327489820	a	65
103985	1137339	The fighting erupted after a private quarrel.	The fighting erupted after a private quarrel.	54096399	1473327489824	1473327489912	 	32
103985	1137339	The fighting erupted after a private quarrel.	The fighting erupted after a private quarrel.	54096403	1473327489980	1473327490091	p	80
103985	1137339	The fighting erupted after a private quarrel.	The fighting erupted after a private quarrel.	54096457	1473327490089	1473327490192	r	82
103985	1137339	The fighting erupted after a private quarrel.	The fighting erupted after a private quarrel.	54096458	1473327490196	1473327490289	i	73
103985	1137339	The fighting erupted after a private quarrel.	The fighting erupted after a private quarrel.	54096459	1473327490323	1473327490453	v	86
103985	1137339	The fighting erupted after a private quarrel.	The fighting erupted after a private quarrel.	54096460	1473327490417	1473327490528	a	65
103985	1137339	The fighting erupted after a private quarrel.	The fighting erupted after a private quarrel.	54096462	1473327490595	1473327490729	t	84
103985	1137339	The fighting erupted after a private quarrel.	The fighting erupted after a private quarrel.	54096506	1473327490673	1473327490779	e	69
103985	1137339	The fighting erupted after a private quarrel.	The fighting erupted after a private quarrel.	54096509	1473327490753	1473327490852	 	32
103985	1137339	The fighting erupted after a private quarrel.	The fighting erupted after a private quarrel.	54096512	1473327490978	1473327491080	q	81
103985	1137339	The fighting erupted after a private quarrel.	The fighting erupted after a private quarrel.	54096516	1473327491067	1473327491147	u	85
103985	1137339	The fighting erupted after a private quarrel.	The fighting erupted after a private quarrel.	54096520	1473327491187	1473327491302	a	65
103985	1137339	The fighting erupted after a private quarrel.	The fighting erupted after a private quarrel.	54096701	1473327491267	1473327491369	r	82
103985	1137339	The fighting erupted after a private quarrel.	The fighting erupted after a private quarrel.	54096704	1473327491438	1473327491552	r	82
103985	1137339	The fighting erupted after a private quarrel.	The fighting erupted after a private quarrel.	54096708	1473327491581	1473327491700	e	69
103985	1137339	The fighting erupted after a private quarrel.	The fighting erupted after a private quarrel.	54096711	1473327491721	1473327491827	l	76
103985	1137339	The fighting erupted after a private quarrel.	The fighting erupted after a private quarrel.	54096715	1473327492014	1473327492022	ALT	18
