PARTICIPANT_ID	TEST_SECTION_ID	SENTENCE	USER_INPUT	KEYSTROKE_ID	PRESS_TIME	RELEASE_TIME	LETTER	KEYCODE
104966	1146745	That would be a fitting memorial to those who died.	That would be a fitting memorial to those who died.	54539291	1473344045515	1473344045850	SHIFT	16
104966	1146745	That would be a fitting memorial to those who died.	That would be a fitting memorial to those who died.	54539293	1473344045785	1473344046004	NA	84
104966	1146745	That would be a fitting memorial to those who died.	That would be a fitting memorial to those who died.	54539296	1473344045909	1473344046037	NA	72
104966	1146745	That would be a fitting memorial to those who died.	That would be a fitting memorial to those who died.	54539300	1473344046097	1473344046254	NA	65
104966	1146745	That would be a fitting memorial to those who died.	That would be a fitting memorial to those who died.	54539303	1473344046219	1473344046379	NA	84
104966	1146745	That would be a fitting memorial to those who died.	That would be a fitting memorial to those who died.	54539348	1473344046345	1473344046502	NA	32
104966	1146745	That would be a fitting memorial to those who died.	That would be a fitting memorial to those who died.	54539349	1473344046774	1473344046902	NA	87
104966	1146745	That would be a fitting memorial to those who died.	That would be a fitting memorial to those who died.	54539350	1473344046838	1473344046964	NA	79
104966	1146745	That would be a fitting memorial to those who died.	That would be a fitting memorial to those who died.	54539351	1473344046930	1473344047027	NA	85
104966	1146745	That would be a fitting memorial to those who died.	That would be a fitting memorial to those who died.	54539352	1473344047148	1473344047334	NA	76
104966	1146745	That would be a fitting memorial to those who died.	That would be a fitting memorial to those who died.	54539380	1473344047270	1473344047398	NA	68
104966	1146745	That would be a fitting memorial to those who died.	That would be a fitting memorial to those who died.	54539384	1473344047343	1473344047491	NA	32
104966	1146745	That would be a fitting memorial to those who died.	That would be a fitting memorial to those who died.	54539386	1473344047581	1473344047664	NA	66
104966	1146745	That would be a fitting memorial to those who died.	That would be a fitting memorial to those who died.	54539391	1473344047801	1473344047891	NA	69
104966	1146745	That would be a fitting memorial to those who died.	That would be a fitting memorial to those who died.	54539394	1473344047943	1473344048016	NA	32
104966	1146745	That would be a fitting memorial to those who died.	That would be a fitting memorial to those who died.	54539397	1473344048227	1473344048413	NA	65
104966	1146745	That would be a fitting memorial to those who died.	That would be a fitting memorial to those who died.	54539439	1473344048379	1473344048507	NA	32
104966	1146745	That would be a fitting memorial to those who died.	That would be a fitting memorial to those who died.	54539440	1473344048722	1473344048753	NA	70
104966	1146745	That would be a fitting memorial to those who died.	That would be a fitting memorial to those who died.	54539441	1473344048934	1473344049052	NA	73
104966	1146745	That would be a fitting memorial to those who died.	That would be a fitting memorial to those who died.	54539442	1473344049088	1473344049152	NA	84
104966	1146745	That would be a fitting memorial to those who died.	That would be a fitting memorial to those who died.	54539443	1473344049244	1473344049428	NA	84
104966	1146745	That would be a fitting memorial to those who died.	That would be a fitting memorial to those who died.	54539444	1473344049488	1473344049613	NA	73
104966	1146745	That would be a fitting memorial to those who died.	That would be a fitting memorial to those who died.	54539522	1473344049824	1473344049926	NA	78
104966	1146745	That would be a fitting memorial to those who died.	That would be a fitting memorial to those who died.	54539525	1473344049987	1473344050111	NA	71
104966	1146745	That would be a fitting memorial to those who died.	That would be a fitting memorial to those who died.	54539528	1473344050414	1473344050508	NA	77
104966	1146745	That would be a fitting memorial to those who died.	That would be a fitting memorial to those who died.	54539531	1473344051054	1473344051148		8
104966	1146745	That would be a fitting memorial to those who died.	That would be a fitting memorial to those who died.	54539535	1473344051359	1473344051454	NA	32
104966	1146745	That would be a fitting memorial to those who died.	That would be a fitting memorial to those who died.	54539650	1473344051635	1473344051730	NA	77
104966	1146745	That would be a fitting memorial to those who died.	That would be a fitting memorial to those who died.	54539655	1473344051825	1473344051919	NA	69
104966	1146745	That would be a fitting memorial to those who died.	That would be a fitting memorial to those who died.	54539657	1473344051949	1473344052044	NA	77
104966	1146745	That would be a fitting memorial to those who died.	That would be a fitting memorial to those who died.	54539659	1473344052894	1473344052988	NA	79
104966	1146745	That would be a fitting memorial to those who died.	That would be a fitting memorial to those who died.	54539663	1473344053170	1473344053296	NA	82
104966	1146745	That would be a fitting memorial to those who died.	That would be a fitting memorial to those who died.	54539720	1473344053263	1473344053368	NA	73
104966	1146745	That would be a fitting memorial to those who died.	That would be a fitting memorial to those who died.	54539721	1473344053579	1473344053705	NA	65
104966	1146745	That would be a fitting memorial to those who died.	That would be a fitting memorial to those who died.	54539723	1473344053709	1473344053798	NA	76
104966	1146745	That would be a fitting memorial to those who died.	That would be a fitting memorial to those who died.	54539726	1473344053982	1473344054058	NA	32
104966	1146745	That would be a fitting memorial to those who died.	That would be a fitting memorial to those who died.	54539729	1473344054179	1473344054274	NA	84
104966	1146745	That would be a fitting memorial to those who died.	That would be a fitting memorial to those who died.	54539732	1473344054276	1473344054428	NA	79
104966	1146745	That would be a fitting memorial to those who died.	That would be a fitting memorial to those who died.	54539752	1473344054458	1473344054552	NA	32
104966	1146745	That would be a fitting memorial to those who died.	That would be a fitting memorial to those who died.	54539757	1473344054582	1473344054738	NA	84
104966	1146745	That would be a fitting memorial to those who died.	That would be a fitting memorial to those who died.	54539761	1473344054704	1473344054833	NA	72
104966	1146745	That would be a fitting memorial to those who died.	That would be a fitting memorial to those who died.	54539763	1473344054768	1473344054928	NA	79
104966	1146745	That would be a fitting memorial to those who died.	That would be a fitting memorial to those who died.	54539824	1473344054923	1473344055068	NA	83
104966	1146745	That would be a fitting memorial to those who died.	That would be a fitting memorial to those who died.	54539830	1473344055111	1473344055211	NA	69
104966	1146745	That would be a fitting memorial to those who died.	That would be a fitting memorial to those who died.	54539838	1473344055346	1473344055420	NA	32
104966	1146745	That would be a fitting memorial to those who died.	That would be a fitting memorial to those who died.	54539846	1473344056230	1473344056240	NA	87
104966	1146745	That would be a fitting memorial to those who died.	That would be a fitting memorial to those who died.	54539926	1473344056310	1473344056433	NA	32
104966	1146745	That would be a fitting memorial to those who died.	That would be a fitting memorial to those who died.	54539928	1473344056978	1473344057073	NA	68
104966	1146745	That would be a fitting memorial to those who died.	That would be a fitting memorial to those who died.	54539931	1473344057104	1473344057228	NA	73
104966	1146745	That would be a fitting memorial to those who died.	That would be a fitting memorial to those who died.	54539933	1473344057318	1473344057383	NA	69
104966	1146745	That would be a fitting memorial to those who died.	That would be a fitting memorial to those who died.	54539934	1473344057715	1473344057809	NA	68
104966	1146745	That would be a fitting memorial to those who died.	That would be a fitting memorial to those who died.	54540047	1473344057931	1473344057996	NA	190
104966	1146763	Anything exciting going on today?	Anything exciting going on today?	54540239	1473344062169	1473344062380	SHIFT	16
104966	1146763	Anything exciting going on today?	Anything exciting going on today?	54540242	1473344062316	1473344062503	NA	65
104966	1146763	Anything exciting going on today?	Anything exciting going on today?	54540245	1473344063216	1473344063266	NA	78
104966	1146763	Anything exciting going on today?	Anything exciting going on today?	54540247	1473344063507	1473344063572	NA	89
104966	1146763	Anything exciting going on today?	Anything exciting going on today?	54540249	1473344063754	1473344063918	NA	84
104966	1146763	Anything exciting going on today?	Anything exciting going on today?	54540285	1473344063982	1473344064104	NA	73
104966	1146763	Anything exciting going on today?	Anything exciting going on today?	54540292	1473344064224	1473344064319	NA	78
104966	1146763	Anything exciting going on today?	Anything exciting going on today?	54540301	1473344064409	1473344064565	NA	71
104966	1146763	Anything exciting going on today?	Anything exciting going on today?	54540312	1473344064567	1473344064689	NA	32
104966	1146763	Anything exciting going on today?	Anything exciting going on today?	54540321	1473344064809	1473344064904	NA	69
104966	1146763	Anything exciting going on today?	Anything exciting going on today?	54540356	1473344065085	1473344065180	NA	88
104966	1146763	Anything exciting going on today?	Anything exciting going on today?	54540358	1473344065301	1473344065425	NA	67
104966	1146763	Anything exciting going on today?	Anything exciting going on today?	54540360	1473344065495	1473344065620	NA	73
104966	1146763	Anything exciting going on today?	Anything exciting going on today?	54540362	1473344065710	1473344065866	NA	84
104966	1146763	Anything exciting going on today?	Anything exciting going on today?	54540423	1473344065832	1473344065929	NA	73
104966	1146763	Anything exciting going on today?	Anything exciting going on today?	54540426	1473344066050	1473344066146	NA	78
104966	1146763	Anything exciting going on today?	Anything exciting going on today?	54540429	1473344066204	1473344066360	NA	71
104966	1146763	Anything exciting going on today?	Anything exciting going on today?	54540433	1473344066362	1473344066456	NA	32
104966	1146763	Anything exciting going on today?	Anything exciting going on today?	54540435	1473344066756	1473344066893	NA	71
104966	1146763	Anything exciting going on today?	Anything exciting going on today?	54540453	1473344066829	1473344067023	NA	79
104966	1146763	Anything exciting going on today?	Anything exciting going on today?	54540451	1473344066923	1473344067018	NA	73
104966	1146763	Anything exciting going on today?	Anything exciting going on today?	54540456	1473344067170	1473344067327	NA	78
104966	1146763	Anything exciting going on today?	Anything exciting going on today?	54540460	1473344067293	1473344067391	NA	71
104966	1146763	Anything exciting going on today?	Anything exciting going on today?	54540464	1473344067357	1473344067484	NA	32
104966	1146763	Anything exciting going on today?	Anything exciting going on today?	54540470	1473344067544	1473344067639	NA	79
104966	1146763	Anything exciting going on today?	Anything exciting going on today?	54540517	1473344067759	1473344067915	NA	78
104966	1146763	Anything exciting going on today?	Anything exciting going on today?	54540520	1473344067851	1473344067978	NA	32
104966	1146763	Anything exciting going on today?	Anything exciting going on today?	54540524	1473344068129	1473344068254	NA	84
104966	1146763	Anything exciting going on today?	Anything exciting going on today?	54540528	1473344068257	1473344068348	NA	79
104966	1146763	Anything exciting going on today?	Anything exciting going on today?	54540532	1473344068408	1473344068533	NA	68
104966	1146763	Anything exciting going on today?	Anything exciting going on today?	54540665	1473344068623	1473344068720	NA	65
104966	1146763	Anything exciting going on today?	Anything exciting going on today?	54540670	1473344068685	1473344068782	NA	89
104966	1146763	Anything exciting going on today?	Anything exciting going on today?	54540681	1473344068995	1473344069334	SHIFT	16
104966	1146763	Anything exciting going on today?	Anything exciting going on today?	54540677	1473344069176	1473344069241	NA	191
104966	1146779	Thanks again for thinking of me.	Thanks again for thinking of me.	54540929	1473344073625	1473344074053	SHIFT	16
104966	1146779	Thanks again for thinking of me.	Thanks again for thinking of me.	54540931	1473344073958	1473344074237	NA	84
104966	1146779	Thanks again for thinking of me.	Thanks again for thinking of me.	54541086	1473344074935	1473344078010	NA	72
104966	1146779	Thanks again for thinking of me.	Thanks again for thinking of me.	54540941	1473344075181	1473344075307	NA	65
104966	1146779	Thanks again for thinking of me.	Thanks again for thinking of me.	54540946	1473344075242	1473344075401	NA	78
104966	1146779	Thanks again for thinking of me.	Thanks again for thinking of me.	54540967	1473344075367	1473344075527	NA	75
104966	1146779	Thanks again for thinking of me.	Thanks again for thinking of me.	54540969	1473344075522	1473344075649	NA	83
104966	1146779	Thanks again for thinking of me.	Thanks again for thinking of me.	54540972	1473344075652	1473344075774	NA	32
104966	1146779	Thanks again for thinking of me.	Thanks again for thinking of me.	54540977	1473344075924	1473344076080	NA	65
104966	1146779	Thanks again for thinking of me.	Thanks again for thinking of me.	54540982	1473344076082	1473344076204	NA	71
104966	1146779	Thanks again for thinking of me.	Thanks again for thinking of me.	54540987	1473344076294	1473344076419	NA	65
104966	1146779	Thanks again for thinking of me.	Thanks again for thinking of me.	54541023	1473344076426	1473344076513	NA	73
104966	1146779	Thanks again for thinking of me.	Thanks again for thinking of me.	54541025	1473344076697	1473344076850	NA	78
104966	1146779	Thanks again for thinking of me.	Thanks again for thinking of me.	54541030	1473344076853	1473344076974	NA	32
104966	1146779	Thanks again for thinking of me.	Thanks again for thinking of me.	54541032	1473344077034	1473344077132	NA	70
104966	1146779	Thanks again for thinking of me.	Thanks again for thinking of me.	54541034	1473344077158	1473344077298	NA	79
104966	1146779	Thanks again for thinking of me.	Thanks again for thinking of me.	54541072	1473344077287	1473344077418	NA	82
104966	1146779	Thanks again for thinking of me.	Thanks again for thinking of me.	54541076	1473344077566	1473344077690	NA	32
104966	1146779	Thanks again for thinking of me.	Thanks again for thinking of me.	54541080	1473344077781	1473344077937	NA	84
104966	1146779	Thanks again for thinking of me.	Thanks again for thinking of me.	54541091	1473344077976	1473344078073	NA	73
104966	1146779	Thanks again for thinking of me.	Thanks again for thinking of me.	54541096	1473344078224	1473344078379	NA	78
104966	1146779	Thanks again for thinking of me.	Thanks again for thinking of me.	54541137	1473344078386	1473344078503	NA	75
104966	1146779	Thanks again for thinking of me.	Thanks again for thinking of me.	54541139	1473344078775	1473344078870	NA	73
104966	1146779	Thanks again for thinking of me.	Thanks again for thinking of me.	54541141	1473344078990	1473344079085	NA	78
104966	1146779	Thanks again for thinking of me.	Thanks again for thinking of me.	54541144	1473344079145	1473344079270	NA	71
104966	1146779	Thanks again for thinking of me.	Thanks again for thinking of me.	54541148	1473344079542	1473344079667	NA	32
104966	1146779	Thanks again for thinking of me.	Thanks again for thinking of me.	54541187	1473344079757	1473344079885	NA	79
104966	1146779	Thanks again for thinking of me.	Thanks again for thinking of me.	54541189	1473344079880	1473344080007	NA	70
104966	1146779	Thanks again for thinking of me.	Thanks again for thinking of me.	54541190	1473344080009	1473344080131	NA	32
104966	1146779	Thanks again for thinking of me.	Thanks again for thinking of me.	54541191	1473344080221	1473344080347	NA	77
104966	1146779	Thanks again for thinking of me.	Thanks again for thinking of me.	54541293	1473344080313	1473344080410	NA	69
104966	1146779	Thanks again for thinking of me.	Thanks again for thinking of me.	54541295	1473344080651	1473344080716	NA	190
104966	1146793	Do we know what we need?	Do we know what we need?	54541477	1473344085032	1473344085398	SHIFT	16
104966	1146793	Do we know what we need?	Do we know what we need?	54541480	1473344085304	1473344085461	NA	68
104966	1146793	Do we know what we need?	Do we know what we need?	54541484	1473344085581	1473344085767	NA	79
104966	1146793	Do we know what we need?	Do we know what we need?	54541488	1473344085769	1473344085891	NA	32
104966	1146793	Do we know what we need?	Do we know what we need?	54541492	1473344086072	1473344086227	NA	69
104966	1146793	Do we know what we need?	Do we know what we need?	54541496	1473344086318	1473344086412	NA	32
104966	1146793	Do we know what we need?	Do we know what we need?	54541534	1473344086836	1473344086900		8
104966	1146793	Do we know what we need?	Do we know what we need?	54541536	1473344087021	1473344087115		8
104966	1146793	Do we know what we need?	Do we know what we need?	54541538	1473344087296	1473344087452	NA	87
104966	1146793	Do we know what we need?	Do we know what we need?	54541540	1473344087481	1473344087606	NA	69
104966	1146793	Do we know what we need?	Do we know what we need?	54541544	1473344087727	1473344087822	NA	32
104966	1146793	Do we know what we need?	Do we know what we need?	54541564	1473344087972	1473344088067	NA	75
104966	1146793	Do we know what we need?	Do we know what we need?	54541566	1473344088127	1473344088253	NA	78
104966	1146793	Do we know what we need?	Do we know what we need?	54541567	1473344088219	1473344088416	NA	79
104966	1146793	Do we know what we need?	Do we know what we need?	54541570	1473344088405	1473344088501	NA	87
104966	1146793	Do we know what we need?	Do we know what we need?	54541571	1473344088531	1473344088656	NA	32
104966	1146793	Do we know what we need?	Do we know what we need?	54541652	1473344089079	1473344089206	NA	84
104966	1146793	Do we know what we need?	Do we know what we need?	54541732	1473344089171	1473344091013	NA	72
104966	1146793	Do we know what we need?	Do we know what we need?	54541657	1473344089267	1473344089392	NA	65
104966	1146793	Do we know what we need?	Do we know what we need?	54541662	1473344089785	1473344089880		8
104966	1146793	Do we know what we need?	Do we know what we need?	54541668	1473344090001	1473344090065		8
104966	1146793	Do we know what we need?	Do we know what we need?	54541719	1473344090186	1473344090250		8
104966	1146793	Do we know what we need?	Do we know what we need?	54541726	1473344090552	1473344090707	NA	87
104966	1146793	Do we know what we need?	Do we know what we need?	54541738	1473344091103	1473344091259	NA	65
104966	1146793	Do we know what we need?	Do we know what we need?	54541744	1473344091318	1473344091443	NA	84
104966	1146793	Do we know what we need?	Do we know what we need?	54541772	1473344091594	1473344091719	NA	32
104966	1146793	Do we know what we need?	Do we know what we need?	54541774	1473344091809	1473344091935	NA	87
104966	1146793	Do we know what we need?	Do we know what we need?	54541776	1473344091937	1473344092059	NA	69
104966	1146793	Do we know what we need?	Do we know what we need?	54541779	1473344092089	1473344092183	NA	32
104966	1146793	Do we know what we need?	Do we know what we need?	54541782	1473344092334	1473344092399	NA	78
104966	1146793	Do we know what we need?	Do we know what we need?	54541945	1473344092428	1473344092523	NA	69
104966	1146793	Do we know what we need?	Do we know what we need?	54541948	1473344092613	1473344092708	NA	69
104966	1146793	Do we know what we need?	Do we know what we need?	54541951	1473344092859	1473344092953	NA	68
104966	1146793	Do we know what we need?	Do we know what we need?	54541955	1473344093286	1473344093626	SHIFT	16
104966	1146793	Do we know what we need?	Do we know what we need?	54541953	1473344093438	1473344093563	NA	191
104966	1146806	Fuel is retained in kind from the shippers.	Fuel is retained in kind from the shippers.	54542191	1473344098891	1473344100220	SHIFT	16
104966	1146806	Fuel is retained in kind from the shippers.	Fuel is retained in kind from the shippers.	54542192	1473344100126	1473344100283	NA	70
104966	1146806	Fuel is retained in kind from the shippers.	Fuel is retained in kind from the shippers.	54542193	1473344100676	1473344100831	NA	85
104966	1146806	Fuel is retained in kind from the shippers.	Fuel is retained in kind from the shippers.	54542194	1473344100892	1473344101016	NA	69
104966	1146806	Fuel is retained in kind from the shippers.	Fuel is retained in kind from the shippers.	54542195	1473344101228	1473344101413	NA	76
104966	1146806	Fuel is retained in kind from the shippers.	Fuel is retained in kind from the shippers.	54542196	1473344101443	1473344101598	NA	32
104966	1146806	Fuel is retained in kind from the shippers.	Fuel is retained in kind from the shippers.	54542245	1473344101658	1473344101783	NA	73
104966	1146806	Fuel is retained in kind from the shippers.	Fuel is retained in kind from the shippers.	54542247	1473344101813	1473344101970	NA	83
104966	1146806	Fuel is retained in kind from the shippers.	Fuel is retained in kind from the shippers.	54542250	1473344102028	1473344102153	NA	32
104966	1146806	Fuel is retained in kind from the shippers.	Fuel is retained in kind from the shippers.	54542253	1473344102364	1473344102465	NA	82
104966	1146806	Fuel is retained in kind from the shippers.	Fuel is retained in kind from the shippers.	54542256	1473344102495	1473344102680	NA	69
104966	1146806	Fuel is retained in kind from the shippers.	Fuel is retained in kind from the shippers.	54542310	1473344103409	1473344103504	NA	84
104966	1146806	Fuel is retained in kind from the shippers.	Fuel is retained in kind from the shippers.	54542312	1473344103654	1473344103841	NA	65
104966	1146806	Fuel is retained in kind from the shippers.	Fuel is retained in kind from the shippers.	54542315	1473344103807	1473344103904	NA	73
104966	1146806	Fuel is retained in kind from the shippers.	Fuel is retained in kind from the shippers.	54542316	1473344104085	1473344104180	NA	78
104966	1146806	Fuel is retained in kind from the shippers.	Fuel is retained in kind from the shippers.	54542317	1473344104240	1473344104334	NA	69
104966	1146806	Fuel is retained in kind from the shippers.	Fuel is retained in kind from the shippers.	54542369	1473344104516	1473344104610	NA	68
104966	1146806	Fuel is retained in kind from the shippers.	Fuel is retained in kind from the shippers.	54542374	1473344104731	1473344104856	NA	32
104966	1146806	Fuel is retained in kind from the shippers.	Fuel is retained in kind from the shippers.	54542376	1473344104916	1473344105010	NA	73
104966	1146806	Fuel is retained in kind from the shippers.	Fuel is retained in kind from the shippers.	54542379	1473344105161	1473344105317	NA	78
104966	1146806	Fuel is retained in kind from the shippers.	Fuel is retained in kind from the shippers.	54542384	1473344105319	1473344105442	NA	32
104966	1146806	Fuel is retained in kind from the shippers.	Fuel is retained in kind from the shippers.	54542412	1473344105531	1473344105626	NA	75
104966	1146806	Fuel is retained in kind from the shippers.	Fuel is retained in kind from the shippers.	54542418	1473344105746	1473344105841	NA	73
104966	1146806	Fuel is retained in kind from the shippers.	Fuel is retained in kind from the shippers.	54542420	1473344105992	1473344106087	NA	78
104966	1146806	Fuel is retained in kind from the shippers.	Fuel is retained in kind from the shippers.	54542423	1473344106208	1473344106363	NA	68
104966	1146806	Fuel is retained in kind from the shippers.	Fuel is retained in kind from the shippers.	54542459	1473344106329	1473344106487	NA	32
104966	1146806	Fuel is retained in kind from the shippers.	Fuel is retained in kind from the shippers.	54542460	1473344106728	1473344106823	NA	70
104966	1146806	Fuel is retained in kind from the shippers.	Fuel is retained in kind from the shippers.	54542461	1473344106943	1473344107100	NA	82
104966	1146806	Fuel is retained in kind from the shippers.	Fuel is retained in kind from the shippers.	54542462	1473344107065	1473344107132	NA	79
104966	1146806	Fuel is retained in kind from the shippers.	Fuel is retained in kind from the shippers.	54542463	1473344107313	1473344107500	NA	77
104966	1146806	Fuel is retained in kind from the shippers.	Fuel is retained in kind from the shippers.	54542482	1473344107435	1473344107532	NA	32
104966	1146806	Fuel is retained in kind from the shippers.	Fuel is retained in kind from the shippers.	54542483	1473344107592	1473344107687	NA	84
104966	1146806	Fuel is retained in kind from the shippers.	Fuel is retained in kind from the shippers.	54542525	1473344107747	1473344108341	NA	72
104966	1146806	Fuel is retained in kind from the shippers.	Fuel is retained in kind from the shippers.	54542485	1473344107840	1473344107936	NA	69
104966	1146806	Fuel is retained in kind from the shippers.	Fuel is retained in kind from the shippers.	54542486	1473344107996	1473344108061	NA	32
104966	1146806	Fuel is retained in kind from the shippers.	Fuel is retained in kind from the shippers.	54542487	1473344108121	1473344108215	NA	83
104966	1146806	Fuel is retained in kind from the shippers.	Fuel is retained in kind from the shippers.	54542529	1473344108307	1473344108496	NA	73
104966	1146806	Fuel is retained in kind from the shippers.	Fuel is retained in kind from the shippers.	54542532	1473344108461	1473344108571	NA	80
104966	1146806	Fuel is retained in kind from the shippers.	Fuel is retained in kind from the shippers.	54542535	1473344108692	1473344108817	NA	80
104966	1146806	Fuel is retained in kind from the shippers.	Fuel is retained in kind from the shippers.	54542537	1473344109089	1473344109274	NA	69
104966	1146806	Fuel is retained in kind from the shippers.	Fuel is retained in kind from the shippers.	54542637	1473344109282	1473344109368	NA	82
104966	1146806	Fuel is retained in kind from the shippers.	Fuel is retained in kind from the shippers.	54542641	1473344109431	1473344109556	NA	83
104966	1146806	Fuel is retained in kind from the shippers.	Fuel is retained in kind from the shippers.	54542647	1473344109677	1473344109741	NA	190
104966	1146821	I'll get you one.	I'll get you one.	54542889	1473344115858	1473344116501	SHIFT	16
104966	1146821	I'll get you one.	I'll get you one.	54542888	1473344116315	1473344116409	NA	73
104966	1146821	I'll get you one.	I'll get you one.	54542890	1473344116632	1473344116777	NA	222
104966	1146821	I'll get you one.	I'll get you one.	54542891	1473344117054	1473344117143	NA	76
104966	1146821	I'll get you one.	I'll get you one.	54542893	1473344117235	1473344117389	NA	76
104966	1146821	I'll get you one.	I'll get you one.	54542896	1473344117600	1473344117729	NA	32
104966	1146821	I'll get you one.	I'll get you one.	54542944	1473344117920	1473344118015	NA	71
104966	1146821	I'll get you one.	I'll get you one.	54542946	1473344118045	1473344118273	NA	69
104966	1146821	I'll get you one.	I'll get you one.	54542949	1473344118275	1473344118385	NA	84
104966	1146821	I'll get you one.	I'll get you one.	54542952	1473344118808	1473344118918	NA	32
104966	1146821	I'll get you one.	I'll get you one.	54542957	1473344119038	1473344119102	NA	89
104966	1146821	I'll get you one.	I'll get you one.	54543014	1473344119223	1473344119348	NA	79
104966	1146821	I'll get you one.	I'll get you one.	54543018	1473344119284	1473344119442	NA	85
104966	1146821	I'll get you one.	I'll get you one.	54543022	1473344119804	1473344119959	NA	32
104966	1146821	I'll get you one.	I'll get you one.	54543025	1473344120110	1473344120205	NA	79
104966	1146821	I'll get you one.	I'll get you one.	54543029	1473344120356	1473344120450	NA	78
104966	1146821	I'll get you one.	I'll get you one.	54543125	1473344120571	1473344120666	NA	69
104966	1146821	I'll get you one.	I'll get you one.	54543128	1473344120816	1473344120881	NA	190
104966	1146834	I didn t mean to get you so bent out of shape.	I didn t mean to get you so bent out of shape.	54543366	1473344125841	1473344126393	SHIFT	16
104966	1146834	I didn t mean to get you so bent out of shape.	I didn t mean to get you so bent out of shape.	54543360	1473344126205	1473344126330	NA	73
104966	1146834	I didn t mean to get you so bent out of shape.	I didn t mean to get you so bent out of shape.	54543374	1473344127274	1473344127398	NA	32
104966	1146834	I didn t mean to get you so bent out of shape.	I didn t mean to get you so bent out of shape.	54543378	1473344127612	1473344127704	NA	68
104966	1146834	I didn t mean to get you so bent out of shape.	I didn t mean to get you so bent out of shape.	54543383	1473344127764	1473344127862	NA	73
104966	1146834	I didn t mean to get you so bent out of shape.	I didn t mean to get you so bent out of shape.	54543444	1473344127857	1473344127983	NA	68
104966	1146834	I didn t mean to get you so bent out of shape.	I didn t mean to get you so bent out of shape.	54543451	1473344128165	1473344128259	NA	78
104966	1146834	I didn t mean to get you so bent out of shape.	I didn t mean to get you so bent out of shape.	54543457	1473344128380	1473344128505	NA	222
104966	1146834	I didn t mean to get you so bent out of shape.	I didn t mean to get you so bent out of shape.	54543463	1473344128837	1473344128932	NA	84
104966	1146834	I didn t mean to get you so bent out of shape.	I didn t mean to get you so bent out of shape.	54543467	1473344129447	1473344129541		8
104966	1146834	I didn t mean to get you so bent out of shape.	I didn t mean to get you so bent out of shape.	54543469	1473344129662	1473344129726		8
104966	1146834	I didn t mean to get you so bent out of shape.	I didn t mean to get you so bent out of shape.	54543541	1473344130210	1473344130335	NA	32
104966	1146834	I didn t mean to get you so bent out of shape.	I didn t mean to get you so bent out of shape.	54543547	1473344130667	1473344130768	NA	84
104966	1146834	I didn t mean to get you so bent out of shape.	I didn t mean to get you so bent out of shape.	54543550	1473344131131	1473344131256	NA	32
104966	1146834	I didn t mean to get you so bent out of shape.	I didn t mean to get you so bent out of shape.	54543554	1473344131437	1473344131531	NA	77
104966	1146834	I didn t mean to get you so bent out of shape.	I didn t mean to get you so bent out of shape.	54543555	1473344131564	1473344131625	NA	69
104966	1146834	I didn t mean to get you so bent out of shape.	I didn t mean to get you so bent out of shape.	54543579	1473344131655	1473344131841	NA	65
104966	1146834	I didn t mean to get you so bent out of shape.	I didn t mean to get you so bent out of shape.	54543580	1473344131891	1473344131996	NA	78
104966	1146834	I didn t mean to get you so bent out of shape.	I didn t mean to get you so bent out of shape.	54543582	1473344131998	1473344132120	NA	32
104966	1146834	I didn t mean to get you so bent out of shape.	I didn t mean to get you so bent out of shape.	54543585	1473344132180	1473344132306	NA	84
104966	1146834	I didn t mean to get you so bent out of shape.	I didn t mean to get you so bent out of shape.	54543625	1473344132242	1473344132369	NA	79
104966	1146834	I didn t mean to get you so bent out of shape.	I didn t mean to get you so bent out of shape.	54543629	1473344132372	1473344132447	NA	32
104966	1146834	I didn t mean to get you so bent out of shape.	I didn t mean to get you so bent out of shape.	54543633	1473344132507	1473344132572	NA	71
104966	1146834	I didn t mean to get you so bent out of shape.	I didn t mean to get you so bent out of shape.	54543636	1473344132632	1473344132787	NA	69
104966	1146834	I didn t mean to get you so bent out of shape.	I didn t mean to get you so bent out of shape.	54543641	1473344132877	1473344132942	NA	84
104966	1146834	I didn t mean to get you so bent out of shape.	I didn t mean to get you so bent out of shape.	54543646	1473344133274	1473344133368	NA	32
104966	1146834	I didn t mean to get you so bent out of shape.	I didn t mean to get you so bent out of shape.	54543708	1473344133550	1473344133584	NA	89
104966	1146834	I didn t mean to get you so bent out of shape.	I didn t mean to get you so bent out of shape.	54543709	1473344133706	1473344133800	NA	79
104966	1146834	I didn t mean to get you so bent out of shape.	I didn t mean to get you so bent out of shape.	54543711	1473344133766	1473344133954	NA	85
104966	1146834	I didn t mean to get you so bent out of shape.	I didn t mean to get you so bent out of shape.	54543715	1473344134682	1473344134780	NA	32
104966	1146834	I didn t mean to get you so bent out of shape.	I didn t mean to get you so bent out of shape.	54543718	1473344134928	1473344135052	NA	83
104966	1146834	I didn t mean to get you so bent out of shape.	I didn t mean to get you so bent out of shape.	54543737	1473344135082	1473344135207	NA	79
104966	1146834	I didn t mean to get you so bent out of shape.	I didn t mean to get you so bent out of shape.	54543738	1473344135210	1473344135301	NA	32
104966	1146834	I didn t mean to get you so bent out of shape.	I didn t mean to get you so bent out of shape.	54543739	1473344135422	1473344135463	NA	66
104966	1146834	I didn t mean to get you so bent out of shape.	I didn t mean to get you so bent out of shape.	54543740	1473344135613	1473344135768	NA	69
104966	1146834	I didn t mean to get you so bent out of shape.	I didn t mean to get you so bent out of shape.	54543741	1473344135798	1473344135893	NA	78
104966	1146834	I didn t mean to get you so bent out of shape.	I didn t mean to get you so bent out of shape.	54543862	1473344136134	1473344136229	NA	68
104966	1146834	I didn t mean to get you so bent out of shape.	I didn t mean to get you so bent out of shape.	54543864	1473344137261	1473344137386		8
104966	1146834	I didn t mean to get you so bent out of shape.	I didn t mean to get you so bent out of shape.	54543867	1473344137658	1473344137722	NA	84
104966	1146834	I didn t mean to get you so bent out of shape.	I didn t mean to get you so bent out of shape.	54543869	1473344138754	1473344138849	NA	32
104966	1146834	I didn t mean to get you so bent out of shape.	I didn t mean to get you so bent out of shape.	54543872	1473344139121	1473344139248	NA	79
104966	1146834	I didn t mean to get you so bent out of shape.	I didn t mean to get you so bent out of shape.	54543939	1473344139213	1473344139370	NA	85
104966	1146834	I didn t mean to get you so bent out of shape.	I didn t mean to get you so bent out of shape.	54543943	1473344139437	1473344139562	NA	84
104966	1146834	I didn t mean to get you so bent out of shape.	I didn t mean to get you so bent out of shape.	54543946	1473344139564	1473344139687	NA	32
104966	1146834	I didn t mean to get you so bent out of shape.	I didn t mean to get you so bent out of shape.	54543950	1473344139837	1473344139962	NA	79
104966	1146834	I didn t mean to get you so bent out of shape.	I didn t mean to get you so bent out of shape.	54543955	1473344140308	1473344140456	NA	70
104966	1146834	I didn t mean to get you so bent out of shape.	I didn t mean to get you so bent out of shape.	54543960	1473344140576	1473344140671	NA	32
104966	1146834	I didn t mean to get you so bent out of shape.	I didn t mean to get you so bent out of shape.	54544003	1473344140852	1473344140886	NA	83
104966	1146834	I didn t mean to get you so bent out of shape.	I didn t mean to get you so bent out of shape.	54544007	1473344141585	1473344141741	NA	65
104966	1146834	I didn t mean to get you so bent out of shape.	I didn t mean to get you so bent out of shape.	54544009	1473344141677	1473344141804	NA	80
104966	1146834	I didn t mean to get you so bent out of shape.	I didn t mean to get you so bent out of shape.	54544012	1473344141925	1473344142050	NA	69
104966	1146834	I didn t mean to get you so bent out of shape.	I didn t mean to get you so bent out of shape.	54544106	1473344142170	1473344142266	NA	190
104966	1146853	What period does the max rate assumption cover?	What period does the max rate assumption cover?	54544291	1473344148010	1473344148287	SHIFT	16
104966	1146853	What period does the max rate assumption cover?	What period does the max rate assumption cover?	54544293	1473344148223	1473344148381	NA	87
104966	1146853	What period does the max rate assumption cover?	What period does the max rate assumption cover?	54544443	1473344148383	1473344151325	NA	72
104966	1146853	What period does the max rate assumption cover?	What period does the max rate assumption cover?	54544300	1473344148565	1473344148751	NA	65
104966	1146853	What period does the max rate assumption cover?	What period does the max rate assumption cover?	54544307	1473344148753	1473344148875	NA	84
104966	1146853	What period does the max rate assumption cover?	What period does the max rate assumption cover?	54544312	1473344148905	1473344149030	NA	32
104966	1146853	What period does the max rate assumption cover?	What period does the max rate assumption cover?	54544331	1473344149090	1473344149309	NA	80
104966	1146853	What period does the max rate assumption cover?	What period does the max rate assumption cover?	54544333	1473344149182	1473344149340	NA	69
104966	1146853	What period does the max rate assumption cover?	What period does the max rate assumption cover?	54544335	1473344149304	1473344149435	NA	82
104966	1146853	What period does the max rate assumption cover?	What period does the max rate assumption cover?	54544337	1473344149343	1473344149529	NA	73
104966	1146853	What period does the max rate assumption cover?	What period does the max rate assumption cover?	54544361	1473344149464	1473344149622	NA	79
104966	1146853	What period does the max rate assumption cover?	What period does the max rate assumption cover?	54544362	1473344149682	1473344149838	NA	68
104966	1146853	What period does the max rate assumption cover?	What period does the max rate assumption cover?	54544364	1473344149804	1473344149961	NA	32
104966	1146853	What period does the max rate assumption cover?	What period does the max rate assumption cover?	54544367	1473344150173	1473344150267	NA	68
104966	1146853	What period does the max rate assumption cover?	What period does the max rate assumption cover?	54544371	1473344150358	1473344150516	NA	79
104966	1146853	What period does the max rate assumption cover?	What period does the max rate assumption cover?	54544429	1473344150511	1473344150639	NA	69
104966	1146853	What period does the max rate assumption cover?	What period does the max rate assumption cover?	54544432	1473344150604	1473344150823	NA	83
104966	1146853	What period does the max rate assumption cover?	What period does the max rate assumption cover?	54544437	1473344150825	1473344150917	NA	32
104966	1146853	What period does the max rate assumption cover?	What period does the max rate assumption cover?	54544440	1473344151098	1473344151232	NA	84
104966	1146853	What period does the max rate assumption cover?	What period does the max rate assumption cover?	54544446	1473344151385	1473344151510	NA	69
104966	1146853	What period does the max rate assumption cover?	What period does the max rate assumption cover?	54544488	1473344151516	1473344151634	NA	32
104966	1146853	What period does the max rate assumption cover?	What period does the max rate assumption cover?	54544492	1473344151876	1473344151970	NA	77
104966	1146853	What period does the max rate assumption cover?	What period does the max rate assumption cover?	54544494	1473344152091	1473344152216	NA	65
104966	1146853	What period does the max rate assumption cover?	What period does the max rate assumption cover?	54544498	1473344152397	1473344152491	NA	88
104966	1146853	What period does the max rate assumption cover?	What period does the max rate assumption cover?	54544501	1473344152642	1473344152737	NA	32
104966	1146853	What period does the max rate assumption cover?	What period does the max rate assumption cover?	54544563	1473344152857	1473344152982	NA	82
104966	1146853	What period does the max rate assumption cover?	What period does the max rate assumption cover?	54544567	1473344153012	1473344153198	NA	65
104966	1146853	What period does the max rate assumption cover?	What period does the max rate assumption cover?	54544571	1473344153200	1473344153325	NA	84
104966	1146853	What period does the max rate assumption cover?	What period does the max rate assumption cover?	54544574	1473344153320	1473344153446	NA	69
104966	1146853	What period does the max rate assumption cover?	What period does the max rate assumption cover?	54544578	1473344154114	1473344154238	NA	32
104966	1146853	What period does the max rate assumption cover?	What period does the max rate assumption cover?	54544630	1473344154390	1473344154484	NA	65
104966	1146853	What period does the max rate assumption cover?	What period does the max rate assumption cover?	54544636	1473344154604	1473344154669	NA	83
104966	1146853	What period does the max rate assumption cover?	What period does the max rate assumption cover?	54544641	1473344154789	1473344154884	NA	83
104966	1146853	What period does the max rate assumption cover?	What period does the max rate assumption cover?	54544646	1473344155013	1473344155137	NA	85
104966	1146853	What period does the max rate assumption cover?	What period does the max rate assumption cover?	54544649	1473344155409	1473344155504	NA	77
104966	1146853	What period does the max rate assumption cover?	What period does the max rate assumption cover?	54544692	1473344155655	1473344155780	NA	80
104966	1146853	What period does the max rate assumption cover?	What period does the max rate assumption cover?	54544696	1473344155870	1473344155996	NA	84
104966	1146853	What period does the max rate assumption cover?	What period does the max rate assumption cover?	54544700	1473344155962	1473344156120	NA	73
104966	1146853	What period does the max rate assumption cover?	What period does the max rate assumption cover?	54544705	1473344156086	1473344156183	NA	79
104966	1146853	What period does the max rate assumption cover?	What period does the max rate assumption cover?	54544709	1473344156304	1473344156459	NA	78
104966	1146853	What period does the max rate assumption cover?	What period does the max rate assumption cover?	54544767	1473344156640	1473344156735	NA	83
104966	1146853	What period does the max rate assumption cover?	What period does the max rate assumption cover?	54544768	1473344157312	1473344157405		8
104966	1146853	What period does the max rate assumption cover?	What period does the max rate assumption cover?	54544772	1473344157692	1473344157786	NA	32
104966	1146853	What period does the max rate assumption cover?	What period does the max rate assumption cover?	54544777	1473344158027	1473344158124	NA	67
104966	1146853	What period does the max rate assumption cover?	What period does the max rate assumption cover?	54544888	1473344158089	1473344158197	NA	79
104966	1146853	What period does the max rate assumption cover?	What period does the max rate assumption cover?	54544890	1473344158257	1473344158352	NA	86
104966	1146853	What period does the max rate assumption cover?	What period does the max rate assumption cover?	54544892	1473344158472	1473344158629	NA	69
104966	1146853	What period does the max rate assumption cover?	What period does the max rate assumption cover?	54544893	1473344158595	1473344158722	NA	82
104966	1146853	What period does the max rate assumption cover?	What period does the max rate assumption cover?	54544895	1473344158903	1473344158968	NA	190
104966	1146853	What period does the max rate assumption cover?	What period does the max rate assumption cover?	54544899	1473344159912	1473344160004		8
104966	1146853	What period does the max rate assumption cover?	What period does the max rate assumption cover?	54545029	1473344160275	1473344160645	SHIFT	16
104966	1146853	What period does the max rate assumption cover?	What period does the max rate assumption cover?	54545024	1473344160427	1473344160522	NA	191
104966	1146873	Your best bet is to drop him and go after another.	Your best bet is to drop him and go after another.	54545249	1473344166763	1473344167315	SHIFT	16
104966	1146873	Your best bet is to drop him and go after another.	Your best bet is to drop him and go after another.	54545246	1473344167188	1473344167252	NA	89
104966	1146873	Your best bet is to drop him and go after another.	Your best bet is to drop him and go after another.	54545252	1473344167406	1473344167532	NA	79
104966	1146873	Your best bet is to drop him and go after another.	Your best bet is to drop him and go after another.	54545256	1473344167497	1473344167624	NA	85
104966	1146873	Your best bet is to drop him and go after another.	Your best bet is to drop him and go after another.	54545260	1473344167654	1473344167840	NA	82
104966	1146873	Your best bet is to drop him and go after another.	Your best bet is to drop him and go after another.	54545264	1473344167870	1473344167997	NA	32
104966	1146873	Your best bet is to drop him and go after another.	Your best bet is to drop him and go after another.	54545303	1473344168176	1473344168240	NA	66
104966	1146873	Your best bet is to drop him and go after another.	Your best bet is to drop him and go after another.	54545306	1473344168360	1473344168487	NA	69
104966	1146873	Your best bet is to drop him and go after another.	Your best bet is to drop him and go after another.	54545310	1473344168453	1473344168610	NA	83
104966	1146873	Your best bet is to drop him and go after another.	Your best bet is to drop him and go after another.	54545313	1473344168640	1473344168795	NA	84
104966	1146873	Your best bet is to drop him and go after another.	Your best bet is to drop him and go after another.	54545315	1473344168798	1473344168889	NA	32
104966	1146873	Your best bet is to drop him and go after another.	Your best bet is to drop him and go after another.	54545386	1473344169040	1473344169074	NA	66
104966	1146873	Your best bet is to drop him and go after another.	Your best bet is to drop him and go after another.	54545391	1473344169195	1473344169350	NA	69
104966	1146873	Your best bet is to drop him and go after another.	Your best bet is to drop him and go after another.	54545395	1473344169352	1473344169474	NA	84
104966	1146873	Your best bet is to drop him and go after another.	Your best bet is to drop him and go after another.	54545397	1473344169716	1473344169841	NA	32
104966	1146873	Your best bet is to drop him and go after another.	Your best bet is to drop him and go after another.	54545399	1473344170477	1473344170572	NA	73
104966	1146873	Your best bet is to drop him and go after another.	Your best bet is to drop him and go after another.	54545423	1473344170692	1473344170849	NA	83
104966	1146873	Your best bet is to drop him and go after another.	Your best bet is to drop him and go after another.	54545425	1473344170815	1473344170912	NA	32
104966	1146873	Your best bet is to drop him and go after another.	Your best bet is to drop him and go after another.	54545428	1473344171093	1473344171248	NA	84
104966	1146873	Your best bet is to drop him and go after another.	Your best bet is to drop him and go after another.	54545430	1473344171278	1473344171402	NA	79
104966	1146873	Your best bet is to drop him and go after another.	Your best bet is to drop him and go after another.	54545434	1473344171463	1473344171557	NA	32
104966	1146873	Your best bet is to drop him and go after another.	Your best bet is to drop him and go after another.	54545514	1473344172041	1473344172197	NA	68
104966	1146873	Your best bet is to drop him and go after another.	Your best bet is to drop him and go after another.	54545517	1473344172257	1473344172393	NA	82
104966	1146873	Your best bet is to drop him and go after another.	Your best bet is to drop him and go after another.	54545521	1473344172395	1473344172578	NA	79
104966	1146873	Your best bet is to drop him and go after another.	Your best bet is to drop him and go after another.	54545523	1473344172607	1473344172763	NA	80
104966	1146873	Your best bet is to drop him and go after another.	Your best bet is to drop him and go after another.	54545526	1473344173004	1473344173129	NA	32
104966	1146873	Your best bet is to drop him and go after another.	Your best bet is to drop him and go after another.	54545872	1473344173250	1473344177810	NA	72
104966	1146873	Your best bet is to drop him and go after another.	Your best bet is to drop him and go after another.	54545567	1473344173341	1473344173469	NA	73
104966	1146873	Your best bet is to drop him and go after another.	Your best bet is to drop him and go after another.	54545571	1473344173620	1473344173745	NA	77
104966	1146873	Your best bet is to drop him and go after another.	Your best bet is to drop him and go after another.	54545573	1473344173804	1473344173929	NA	32
104966	1146873	Your best bet is to drop him and go after another.	Your best bet is to drop him and go after another.	54545574	1473344174027	1473344174146	NA	65
104966	1146873	Your best bet is to drop him and go after another.	Your best bet is to drop him and go after another.	54545625	1473344174112	1473344174239	NA	78
104966	1146873	Your best bet is to drop him and go after another.	Your best bet is to drop him and go after another.	54545626	1473344174299	1473344174461	NA	68
104966	1146873	Your best bet is to drop him and go after another.	Your best bet is to drop him and go after another.	54545627	1473344174391	1473344174554	NA	32
104966	1146873	Your best bet is to drop him and go after another.	Your best bet is to drop him and go after another.	54545628	1473344174760	1473344174885	NA	71
104966	1146873	Your best bet is to drop him and go after another.	Your best bet is to drop him and go after another.	54545629	1473344174915	1473344174979	NA	79
104966	1146873	Your best bet is to drop him and go after another.	Your best bet is to drop him and go after another.	54545630	1473344175463	1473344175558	NA	32
104966	1146873	Your best bet is to drop him and go after another.	Your best bet is to drop him and go after another.	54545672	1473344175678	1473344175834	NA	65
104966	1146873	Your best bet is to drop him and go after another.	Your best bet is to drop him and go after another.	54545673	1473344175770	1473344175867	NA	70
104966	1146873	Your best bet is to drop him and go after another.	Your best bet is to drop him and go after another.	54545675	1473344176018	1473344176112	NA	84
104966	1146873	Your best bet is to drop him and go after another.	Your best bet is to drop him and go after another.	54545677	1473344176142	1473344176268	NA	69
104966	1146873	Your best bet is to drop him and go after another.	Your best bet is to drop him and go after another.	54545678	1473344176270	1473344176422	NA	82
104966	1146873	Your best bet is to drop him and go after another.	Your best bet is to drop him and go after another.	54545725	1473344176512	1473344176607	NA	32
104966	1146873	Your best bet is to drop him and go after another.	Your best bet is to drop him and go after another.	54545728	1473344176939	1473344177095	NA	65
104966	1146873	Your best bet is to drop him and go after another.	Your best bet is to drop him and go after another.	54545734	1473344177215	1473344177310	NA	78
104966	1146873	Your best bet is to drop him and go after another.	Your best bet is to drop him and go after another.	54545739	1473344177400	1473344177555	NA	79
104966	1146873	Your best bet is to drop him and go after another.	Your best bet is to drop him and go after another.	54545747	1473344177615	1473344177710	NA	84
104966	1146873	Your best bet is to drop him and go after another.	Your best bet is to drop him and go after another.	54545879	1473344177802	1473344177929	NA	69
104966	1146873	Your best bet is to drop him and go after another.	Your best bet is to drop him and go after another.	54545885	1473344177931	1473344178053	NA	82
104966	1146873	Your best bet is to drop him and go after another.	Your best bet is to drop him and go after another.	54545891	1473344178264	1473344178359	NA	190
104966	1146896	Please stay on top of the security issue.	Please stay on top of the security issue.	54546156	1473344184355	1473344184816	SHIFT	16
104966	1146896	Please stay on top of the security issue.	Please stay on top of the security issue.	54546154	1473344184658	1473344184753	NA	80
104966	1146896	Please stay on top of the security issue.	Please stay on top of the security issue.	54546158	1473344184936	1473344185061	NA	76
104966	1146896	Please stay on top of the security issue.	Please stay on top of the security issue.	54546159	1473344185121	1473344185187	NA	69
104966	1146896	Please stay on top of the security issue.	Please stay on top of the security issue.	54546160	1473344185153	1473344185312	NA	65
104966	1146896	Please stay on top of the security issue.	Please stay on top of the security issue.	54546242	1473344185217	1473344185375	NA	83
104966	1146896	Please stay on top of the security issue.	Please stay on top of the security issue.	54546244	1473344185278	1473344185468	NA	69
104966	1146896	Please stay on top of the security issue.	Please stay on top of the security issue.	54546248	1473344185862	1473344185987	NA	32
104966	1146896	Please stay on top of the security issue.	Please stay on top of the security issue.	54546251	1473344186168	1473344186262	NA	83
104966	1146896	Please stay on top of the security issue.	Please stay on top of the security issue.	54546254	1473344186322	1473344186447	NA	84
104966	1146896	Please stay on top of the security issue.	Please stay on top of the security issue.	54546255	1473344186538	1473344186662	NA	65
104966	1146896	Please stay on top of the security issue.	Please stay on top of the security issue.	54546257	1473344186722	1473344186817	NA	89
104966	1146896	Please stay on top of the security issue.	Please stay on top of the security issue.	54546302	1473344186892	1473344186986	NA	32
104966	1146896	Please stay on top of the security issue.	Please stay on top of the security issue.	54546306	1473344187076	1473344187141	NA	79
104966	1146896	Please stay on top of the security issue.	Please stay on top of the security issue.	54546314	1473344187322	1473344187417	NA	78
104966	1146896	Please stay on top of the security issue.	Please stay on top of the security issue.	54546318	1473344187567	1473344187662	NA	32
104966	1146896	Please stay on top of the security issue.	Please stay on top of the security issue.	54546325	1473344187934	1473344188090	NA	84
104966	1146896	Please stay on top of the security issue.	Please stay on top of the security issue.	54546405	1473344188056	1473344188153	NA	79
104966	1146896	Please stay on top of the security issue.	Please stay on top of the security issue.	54546410	1473344188364	1473344188459	NA	80
104966	1146896	Please stay on top of the security issue.	Please stay on top of the security issue.	54546415	1473344188943	1473344189068	NA	32
104966	1146896	Please stay on top of the security issue.	Please stay on top of the security issue.	54546420	1473344189189	1473344189346	NA	79
104966	1146896	Please stay on top of the security issue.	Please stay on top of the security issue.	54546426	1473344189341	1473344189469	NA	70
104966	1146896	Please stay on top of the security issue.	Please stay on top of the security issue.	54546432	1473344189471	1473344189562	NA	32
104966	1146896	Please stay on top of the security issue.	Please stay on top of the security issue.	54546474	1473344189629	1473344189718	NA	84
104966	1146896	Please stay on top of the security issue.	Please stay on top of the security issue.	54546482	1473344189778	1473344189937	NA	69
104966	1146896	Please stay on top of the security issue.	Please stay on top of the security issue.	54546485	1473344189903	1473344190030	NA	32
104966	1146896	Please stay on top of the security issue.	Please stay on top of the security issue.	54546488	1473344190241	1473344190428	NA	83
104966	1146896	Please stay on top of the security issue.	Please stay on top of the security issue.	54546597	1473344190394	1473344190521	NA	69
104966	1146896	Please stay on top of the security issue.	Please stay on top of the security issue.	54546600	1473344190944	1473344191039	NA	67
104966	1146896	Please stay on top of the security issue.	Please stay on top of the security issue.	54546603	1473344191523	1473344191656	NA	85
104966	1146896	Please stay on top of the security issue.	Please stay on top of the security issue.	54546608	1473344192049	1473344192235	NA	82
104966	1146896	Please stay on top of the security issue.	Please stay on top of the security issue.	54546614	1473344192304	1473344192460	NA	73
104966	1146896	Please stay on top of the security issue.	Please stay on top of the security issue.	54546617	1473344192522	1473344192614	NA	84
104966	1146896	Please stay on top of the security issue.	Please stay on top of the security issue.	54546652	1473344192674	1473344192830	NA	89
104966	1146896	Please stay on top of the security issue.	Please stay on top of the security issue.	54546657	1473344192859	1473344192954	NA	32
104966	1146896	Please stay on top of the security issue.	Please stay on top of the security issue.	54546661	1473344193075	1473344193169	NA	73
104966	1146896	Please stay on top of the security issue.	Please stay on top of the security issue.	54546665	1473344193229	1473344193294	NA	83
104966	1146896	Please stay on top of the security issue.	Please stay on top of the security issue.	54546668	1473344193414	1473344193509	NA	83
104966	1146896	Please stay on top of the security issue.	Please stay on top of the security issue.	54546790	1473344193514	1473344193634	NA	85
104966	1146896	Please stay on top of the security issue.	Please stay on top of the security issue.	54546796	1473344193724	1473344193818	NA	69
104966	1146896	Please stay on top of the security issue.	Please stay on top of the security issue.	54546801	1473344194000	1473344194065	NA	190
104966	1146910	Tiger Woods is set to answer your questions.	Tiger Woods is set to answer your questions.	54547021	1473344198750	1473344199232	SHIFT	16
104966	1146910	Tiger Woods is set to answer your questions.	Tiger Woods is set to answer your questions.	54547023	1473344199114	1473344199265	NA	84
104966	1146910	Tiger Woods is set to answer your questions.	Tiger Woods is set to answer your questions.	54547025	1473344199421	1473344199550	NA	73
104966	1146910	Tiger Woods is set to answer your questions.	Tiger Woods is set to answer your questions.	54547028	1473344199580	1473344199646	NA	71
104966	1146910	Tiger Woods is set to answer your questions.	Tiger Woods is set to answer your questions.	54547033	1473344199735	1473344199928	NA	69
104966	1146910	Tiger Woods is set to answer your questions.	Tiger Woods is set to answer your questions.	54547160	1473344199894	1473344200021	NA	84
104966	1146910	Tiger Woods is set to answer your questions.	Tiger Woods is set to answer your questions.	54547162	1473344200749	1473344200843		8
104966	1146910	Tiger Woods is set to answer your questions.	Tiger Woods is set to answer your questions.	54547164	1473344200994	1473344201089	NA	82
104966	1146910	Tiger Woods is set to answer your questions.	Tiger Woods is set to answer your questions.	54547167	1473344201361	1473344201455	NA	32
104966	1146910	Tiger Woods is set to answer your questions.	Tiger Woods is set to answer your questions.	54547171	1473344201549	1473344201644	NA	87
104966	1146910	Tiger Woods is set to answer your questions.	Tiger Woods is set to answer your questions.	54547177	1473344202310	1473344202405		8
104966	1146910	Tiger Woods is set to answer your questions.	Tiger Woods is set to answer your questions.	54547243	1473344202435	1473344202712	SHIFT	16
104966	1146910	Tiger Woods is set to answer your questions.	Tiger Woods is set to answer your questions.	54547248	1473344202617	1473344202775	NA	87
104966	1146910	Tiger Woods is set to answer your questions.	Tiger Woods is set to answer your questions.	54547255	1473344202865	1473344202930	NA	79
104966	1146910	Tiger Woods is set to answer your questions.	Tiger Woods is set to answer your questions.	54547259	1473344203050	1473344203145	NA	79
104966	1146910	Tiger Woods is set to answer your questions.	Tiger Woods is set to answer your questions.	54547263	1473344203205	1473344203330	NA	68
104966	1146910	Tiger Woods is set to answer your questions.	Tiger Woods is set to answer your questions.	54547266	1473344203420	1473344203545	NA	83
104966	1146910	Tiger Woods is set to answer your questions.	Tiger Woods is set to answer your questions.	54547300	1473344203650	1473344203774	NA	32
104966	1146910	Tiger Woods is set to answer your questions.	Tiger Woods is set to answer your questions.	54547303	1473344203865	1473344203993	NA	73
104966	1146910	Tiger Woods is set to answer your questions.	Tiger Woods is set to answer your questions.	54547306	1473344203987	1473344204145	NA	83
104966	1146910	Tiger Woods is set to answer your questions.	Tiger Woods is set to answer your questions.	54547309	1473344204147	1473344204299	NA	32
104966	1146910	Tiger Woods is set to answer your questions.	Tiger Woods is set to answer your questions.	54547312	1473344204329	1473344204454	NA	83
104966	1146910	Tiger Woods is set to answer your questions.	Tiger Woods is set to answer your questions.	54547346	1473344204484	1473344204579	NA	69
104966	1146910	Tiger Woods is set to answer your questions.	Tiger Woods is set to answer your questions.	54547349	1473344204729	1473344204854	NA	84
104966	1146910	Tiger Woods is set to answer your questions.	Tiger Woods is set to answer your questions.	54547352	1473344204975	1473344205084	NA	32
104966	1146910	Tiger Woods is set to answer your questions.	Tiger Woods is set to answer your questions.	54547359	1473344205174	1473344205299	NA	84
104966	1146910	Tiger Woods is set to answer your questions.	Tiger Woods is set to answer your questions.	54547363	1473344205359	1473344205514	NA	79
104966	1146910	Tiger Woods is set to answer your questions.	Tiger Woods is set to answer your questions.	54547427	1473344205604	1473344205699	NA	32
104966	1146910	Tiger Woods is set to answer your questions.	Tiger Woods is set to answer your questions.	54547429	1473344205850	1473344205975	NA	65
104966	1146910	Tiger Woods is set to answer your questions.	Tiger Woods is set to answer your questions.	54547432	1473344206004	1473344206099	NA	78
104966	1146910	Tiger Woods is set to answer your questions.	Tiger Woods is set to answer your questions.	54547435	1473344206344	1473344206499	NA	87
104966	1146910	Tiger Woods is set to answer your questions.	Tiger Woods is set to answer your questions.	54547439	1473344206529	1473344206746	NA	69
104966	1146910	Tiger Woods is set to answer your questions.	Tiger Woods is set to answer your questions.	54547523	1473344206711	1473344206869	NA	82
104966	1146910	Tiger Woods is set to answer your questions.	Tiger Woods is set to answer your questions.	54547528	1473344207292	1473344207357		8
104966	1146910	Tiger Woods is set to answer your questions.	Tiger Woods is set to answer your questions.	54547531	1473344207477	1473344207512		8
104966	1146910	Tiger Woods is set to answer your questions.	Tiger Woods is set to answer your questions.	54547535	1473344207662	1473344207727		8
104966	1146910	Tiger Woods is set to answer your questions.	Tiger Woods is set to answer your questions.	54547538	1473344208062	1473344208248	NA	83
104966	1146910	Tiger Woods is set to answer your questions.	Tiger Woods is set to answer your questions.	54547542	1473344208338	1473344208433	NA	78
104966	1146910	Tiger Woods is set to answer your questions.	Tiger Woods is set to answer your questions.	54547627	1473344208523	1473344208739	NA	69
104966	1146910	Tiger Woods is set to answer your questions.	Tiger Woods is set to answer your questions.	54547630	1473344209055	1473344209120		8
104966	1146910	Tiger Woods is set to answer your questions.	Tiger Woods is set to answer your questions.	54547633	1473344209240	1473344209305		8
104966	1146910	Tiger Woods is set to answer your questions.	Tiger Woods is set to answer your questions.	54547635	1473344209667	1473344209762	NA	87
104966	1146910	Tiger Woods is set to answer your questions.	Tiger Woods is set to answer your questions.	54547637	1473344210064	1473344210159	NA	69
104966	1146910	Tiger Woods is set to answer your questions.	Tiger Woods is set to answer your questions.	54547685	1473344210370	1473344210465	NA	82
104966	1146910	Tiger Woods is set to answer your questions.	Tiger Woods is set to answer your questions.	54547688	1473344210827	1473344210922	NA	32
104966	1146910	Tiger Woods is set to answer your questions.	Tiger Woods is set to answer your questions.	54547693	1473344211163	1473344211228	NA	89
104966	1146910	Tiger Woods is set to answer your questions.	Tiger Woods is set to answer your questions.	54547699	1473344211318	1473344211444	NA	79
104966	1146910	Tiger Woods is set to answer your questions.	Tiger Woods is set to answer your questions.	54547778	1473344211382	1473344211537	NA	85
104966	1146910	Tiger Woods is set to answer your questions.	Tiger Woods is set to answer your questions.	54547787	1473344211597	1473344211752	NA	82
104966	1146910	Tiger Woods is set to answer your questions.	Tiger Woods is set to answer your questions.	54547793	1473344211813	1473344211938	NA	32
104966	1146910	Tiger Woods is set to answer your questions.	Tiger Woods is set to answer your questions.	54547800	1473344212331	1473344212456	NA	81
104966	1146910	Tiger Woods is set to answer your questions.	Tiger Woods is set to answer your questions.	54547810	1473344212458	1473344212613	NA	85
104966	1146910	Tiger Woods is set to answer your questions.	Tiger Woods is set to answer your questions.	54547848	1473344212608	1473344212706	NA	69
104966	1146910	Tiger Woods is set to answer your questions.	Tiger Woods is set to answer your questions.	54547852	1473344212671	1473344212829	NA	83
104966	1146910	Tiger Woods is set to answer your questions.	Tiger Woods is set to answer your questions.	54547856	1473344212889	1473344213015	NA	84
104966	1146910	Tiger Woods is set to answer your questions.	Tiger Woods is set to answer your questions.	54547861	1473344212920	1473344213049	NA	73
104966	1146910	Tiger Woods is set to answer your questions.	Tiger Woods is set to answer your questions.	54547864	1473344213018	1473344213111	NA	79
104966	1146910	Tiger Woods is set to answer your questions.	Tiger Woods is set to answer your questions.	54547868	1473344213262	1473344213357	NA	78
104966	1146910	Tiger Woods is set to answer your questions.	Tiger Woods is set to answer your questions.	54548006	1473344213387	1473344213481	NA	83
104966	1146910	Tiger Woods is set to answer your questions.	Tiger Woods is set to answer your questions.	54548012	1473344213643	1473344213708	NA	190
104966	1146938	Theresa, don't worry about it.	Theresa, don't worry about it.	54548257	1473344218089	1473344218491	SHIFT	16
104966	1146938	Theresa, don't worry about it.	Theresa, don't worry about it.	54548261	1473344218363	1473344218520	NA	84
104966	1146938	Theresa, don't worry about it.	Theresa, don't worry about it.	54548269	1473344218916	1473344219041	NA	69
104966	1146938	Theresa, don't worry about it.	Theresa, don't worry about it.	54548274	1473344219071	1473344219199	NA	82
104966	1146938	Theresa, don't worry about it.	Theresa, don't worry about it.	54548330	1473344219194	1473344219325	NA	69
104966	1146938	Theresa, don't worry about it.	Theresa, don't worry about it.	54548335	1473344219294	1473344219445	NA	83
104966	1146938	Theresa, don't worry about it.	Theresa, don't worry about it.	54548339	1473344219505	1473344219660	NA	65
104966	1146938	Theresa, don't worry about it.	Theresa, don't worry about it.	54548345	1473344219902	1473344220027	NA	188
104966	1146938	Theresa, don't worry about it.	Theresa, don't worry about it.	54548352	1473344220117	1473344220181	NA	32
104966	1146938	Theresa, don't worry about it.	Theresa, don't worry about it.	54548353	1473344220362	1473344220489	NA	68
104966	1146938	Theresa, don't worry about it.	Theresa, don't worry about it.	54548443	1473344220454	1473344220552	NA	79
104966	1146938	Theresa, don't worry about it.	Theresa, don't worry about it.	54548446	1473344220853	1473344220948	NA	78
104966	1146938	Theresa, don't worry about it.	Theresa, don't worry about it.	54548447	1473344221402	1473344221497	NA	222
104966	1146938	Theresa, don't worry about it.	Theresa, don't worry about it.	54548449	1473344221677	1473344221803	NA	84
104966	1146938	Theresa, don't worry about it.	Theresa, don't worry about it.	54548452	1473344221832	1473344221927	NA	32
104966	1146938	Theresa, don't worry about it.	Theresa, don't worry about it.	54548455	1473344221987	1473344222112	NA	87
104966	1146938	Theresa, don't worry about it.	Theresa, don't worry about it.	54548546	1473344222118	1473344222206	NA	79
104966	1146938	Theresa, don't worry about it.	Theresa, don't worry about it.	54548552	1473344222296	1473344222391	NA	82
104966	1146938	Theresa, don't worry about it.	Theresa, don't worry about it.	54548557	1473344222663	1473344222757	NA	82
104966	1146938	Theresa, don't worry about it.	Theresa, don't worry about it.	54548564	1473344223211	1473344223283	NA	89
104966	1146938	Theresa, don't worry about it.	Theresa, don't worry about it.	54548571	1473344223585	1473344223694	NA	32
104966	1146938	Theresa, don't worry about it.	Theresa, don't worry about it.	54548583	1473344223815	1473344223940	NA	65
104966	1146938	Theresa, don't worry about it.	Theresa, don't worry about it.	54548586	1473344223942	1473344224005	NA	66
104966	1146938	Theresa, don't worry about it.	Theresa, don't worry about it.	54548589	1473344224034	1473344224138	NA	79
104966	1146938	Theresa, don't worry about it.	Theresa, don't worry about it.	54548593	1473344224126	1473344224260	NA	85
104966	1146938	Theresa, don't worry about it.	Theresa, don't worry about it.	54548789	1473344224250	1473344224377	NA	84
104966	1146938	Theresa, don't worry about it.	Theresa, don't worry about it.	54548792	1473344224380	1473344224472	NA	32
104966	1146938	Theresa, don't worry about it.	Theresa, don't worry about it.	54548795	1473344224531	1473344224663	NA	73
104966	1146938	Theresa, don't worry about it.	Theresa, don't worry about it.	54548798	1473344224654	1473344224751	NA	84
104966	1146938	Theresa, don't worry about it.	Theresa, don't worry about it.	54548801	1473344224932	1473344225007	NA	190
104966	1146955	I worked on the grade level promotion.	I worked on the grade level promotion.	54549010	1473344230144	1473344230648	SHIFT	16
104966	1146955	I worked on the grade level promotion.	I worked on the grade level promotion.	54549008	1473344230487	1473344230643	NA	73
104966	1146955	I worked on the grade level promotion.	I worked on the grade level promotion.	54549012	1473344230705	1473344230799	NA	32
104966	1146955	I worked on the grade level promotion.	I worked on the grade level promotion.	54549015	1473344230889	1473344231016	NA	87
104966	1146955	I worked on the grade level promotion.	I worked on the grade level promotion.	54549019	1473344230951	1473344231078	NA	79
104966	1146955	I worked on the grade level promotion.	I worked on the grade level promotion.	54549022	1473344231320	1473344231505	NA	82
104966	1146955	I worked on the grade level promotion.	I worked on the grade level promotion.	54549062	1473344231535	1473344231660	NA	75
104966	1146955	I worked on the grade level promotion.	I worked on the grade level promotion.	54549069	1473344231750	1473344231820	NA	69
104966	1146955	I worked on the grade level promotion.	I worked on the grade level promotion.	54549076	1473344232001	1473344232095	NA	68
104966	1146955	I worked on the grade level promotion.	I worked on the grade level promotion.	54549082	1473344232276	1473344232401	NA	32
104966	1146955	I worked on the grade level promotion.	I worked on the grade level promotion.	54549087	1473344232461	1473344232526	NA	79
104966	1146955	I worked on the grade level promotion.	I worked on the grade level promotion.	54549115	1473344232676	1473344232864	NA	78
104966	1146955	I worked on the grade level promotion.	I worked on the grade level promotion.	54549119	1473344232799	1473344232896	NA	32
104966	1146955	I worked on the grade level promotion.	I worked on the grade level promotion.	54549125	1473344232956	1473344233082	NA	84
104966	1146955	I worked on the grade level promotion.	I worked on the grade level promotion.	54549190	1473344233172	1473344233331	NA	69
104966	1146955	I worked on the grade level promotion.	I worked on the grade level promotion.	54549194	1473344233297	1473344233394	NA	32
104966	1146955	I worked on the grade level promotion.	I worked on the grade level promotion.	54549196	1473344233635	1473344233730	NA	71
104966	1146955	I worked on the grade level promotion.	I worked on the grade level promotion.	54549200	1473344233850	1473344233975	NA	82
104966	1146955	I worked on the grade level promotion.	I worked on the grade level promotion.	54549204	1473344234005	1473344234160	NA	65
104966	1146955	I worked on the grade level promotion.	I worked on the grade level promotion.	54549207	1473344234250	1473344234316	NA	68
104966	1146955	I worked on the grade level promotion.	I worked on the grade level promotion.	54549265	1473344234496	1473344234560	NA	69
104966	1146955	I worked on the grade level promotion.	I worked on the grade level promotion.	54549269	1473344234681	1473344234799	NA	32
104966	1146955	I worked on the grade level promotion.	I worked on the grade level promotion.	54549277	1473344235078	1473344235203	NA	76
104966	1146955	I worked on the grade level promotion.	I worked on the grade level promotion.	54549284	1473344235263	1473344235327	NA	69
104966	1146955	I worked on the grade level promotion.	I worked on the grade level promotion.	54549288	1473344235478	1473344235543	NA	86
104966	1146955	I worked on the grade level promotion.	I worked on the grade level promotion.	54549354	1473344235663	1473344235788	NA	69
104966	1146955	I worked on the grade level promotion.	I worked on the grade level promotion.	54549362	1473344235939	1473344236003	NA	76
104966	1146955	I worked on the grade level promotion.	I worked on the grade level promotion.	54549367	1473344236365	1473344236474	NA	32
104966	1146955	I worked on the grade level promotion.	I worked on the grade level promotion.	54549372	1473344236656	1473344236818	NA	80
104966	1146955	I worked on the grade level promotion.	I worked on the grade level promotion.	54549427	1473344236808	1473344236935	NA	82
104966	1146955	I worked on the grade level promotion.	I worked on the grade level promotion.	54549429	1473344236995	1473344237090	NA	79
104966	1146955	I worked on the grade level promotion.	I worked on the grade level promotion.	54549431	1473344237241	1473344237369	NA	77
104966	1146955	I worked on the grade level promotion.	I worked on the grade level promotion.	54549433	1473344237426	1473344237531	NA	79
104966	1146955	I worked on the grade level promotion.	I worked on the grade level promotion.	54549435	1473344237773	1473344237899	NA	84
104966	1146955	I worked on the grade level promotion.	I worked on the grade level promotion.	54549602	1473344237835	1473344237993	NA	73
104966	1146955	I worked on the grade level promotion.	I worked on the grade level promotion.	54549608	1473344237959	1473344238056	NA	79
104966	1146955	I worked on the grade level promotion.	I worked on the grade level promotion.	54549609	1473344238207	1473344238271	NA	78
104966	1146955	I worked on the grade level promotion.	I worked on the grade level promotion.	54549616	1473344238422	1473344238517	NA	190
104966	1146976	Next time ask Jim to call me.	Next time ask Jim to call me.	54549909	1473344244238	1473344244548	SHIFT	16
104966	1146976	Next time ask Jim to call me.	Next time ask Jim to call me.	54549906	1473344244421	1473344244515	NA	78
104966	1146976	Next time ask Jim to call me.	Next time ask Jim to call me.	54549911	1473344244673	1473344244768	NA	69
104966	1146976	Next time ask Jim to call me.	Next time ask Jim to call me.	54549913	1473344244919	1473344245013	NA	88
104966	1146976	Next time ask Jim to call me.	Next time ask Jim to call me.	54549916	1473344245134	1473344245259	NA	84
104966	1146976	Next time ask Jim to call me.	Next time ask Jim to call me.	54549918	1473344245379	1473344245475	NA	32
104966	1146976	Next time ask Jim to call me.	Next time ask Jim to call me.	54549943	1473344245534	1473344245690	NA	84
104966	1146976	Next time ask Jim to call me.	Next time ask Jim to call me.	54549947	1473344245626	1473344245723	NA	73
104966	1146976	Next time ask Jim to call me.	Next time ask Jim to call me.	54549951	1473344245874	1473344246002	NA	77
104966	1146976	Next time ask Jim to call me.	Next time ask Jim to call me.	54549954	1473344245997	1473344246154	NA	69
104966	1146976	Next time ask Jim to call me.	Next time ask Jim to call me.	54549957	1473344246183	1473344246308	NA	32
104966	1146976	Next time ask Jim to call me.	Next time ask Jim to call me.	54550089	1473344246490	1473344246646	NA	65
104966	1146976	Next time ask Jim to call me.	Next time ask Jim to call me.	54550092	1473344246612	1473344246800	NA	83
104966	1146976	Next time ask Jim to call me.	Next time ask Jim to call me.	54550096	1473344246802	1473344246924	NA	75
104966	1146976	Next time ask Jim to call me.	Next time ask Jim to call me.	54550100	1473344247347	1473344247442	NA	32
104966	1146976	Next time ask Jim to call me.	Next time ask Jim to call me.	54550140	1473344247623	1473344249328	SHIFT	16
104966	1146976	Next time ask Jim to call me.	Next time ask Jim to call me.	54550105	1473344249170	1473344249235	NA	74
104966	1146976	Next time ask Jim to call me.	Next time ask Jim to call me.	54550145	1473344249539	1473344249603	NA	73
104966	1146976	Next time ask Jim to call me.	Next time ask Jim to call me.	54550150	1473344249784	1473344249947	NA	77
104966	1146976	Next time ask Jim to call me.	Next time ask Jim to call me.	54550154	1473344249977	1473344250102	NA	32
104966	1146976	Next time ask Jim to call me.	Next time ask Jim to call me.	54550158	1473344250223	1473344250379	NA	84
104966	1146976	Next time ask Jim to call me.	Next time ask Jim to call me.	54550191	1473344250345	1473344250487	NA	79
104966	1146976	Next time ask Jim to call me.	Next time ask Jim to call me.	54550196	1473344250453	1473344250611	NA	32
104966	1146976	Next time ask Jim to call me.	Next time ask Jim to call me.	54550202	1473344250701	1473344250766	NA	67
104966	1146976	Next time ask Jim to call me.	Next time ask Jim to call me.	54550206	1473344250886	1473344250981	NA	65
104966	1146976	Next time ask Jim to call me.	Next time ask Jim to call me.	54550210	1473344250983	1473344251045	NA	76
104966	1146976	Next time ask Jim to call me.	Next time ask Jim to call me.	54550213	1473344251165	1473344251260	NA	76
104966	1146976	Next time ask Jim to call me.	Next time ask Jim to call me.	54550446	1473344251320	1473344251415	NA	32
104966	1146976	Next time ask Jim to call me.	Next time ask Jim to call me.	54550453	1473344251565	1473344251660	NA	77
104966	1146976	Next time ask Jim to call me.	Next time ask Jim to call me.	54550459	1473344252023	1473344252148	NA	69
104966	1146976	Next time ask Jim to call me.	Next time ask Jim to call me.	54550464	1473344252298	1473344252364	NA	190
104966	1146995	If so Whitt is done.	If so Whitt is done.	54550714	1473344257445	1473344257785	SHIFT	16
104966	1146995	If so Whitt is done.	If so Whitt is done.	54550712	1473344257597	1473344257722	NA	73
104966	1146995	If so Whitt is done.	If so Whitt is done.	54550716	1473344257905	1473344258091	NA	70
104966	1146995	If so Whitt is done.	If so Whitt is done.	54550721	1473344258093	1473344258185	NA	32
104966	1146995	If so Whitt is done.	If so Whitt is done.	54550727	1473344258336	1473344258492	NA	83
104966	1146995	If so Whitt is done.	If so Whitt is done.	54550801	1473344258458	1473344258647	NA	79
104966	1146995	If so Whitt is done.	If so Whitt is done.	54550805	1473344258613	1473344258710	NA	32
104966	1146995	If so Whitt is done.	If so Whitt is done.	54550812	1473344259042	1473344259106	NA	87
104966	1146995	If so Whitt is done.	If so Whitt is done.	54550816	1473344259499	1473344259594		8
104966	1146995	If so Whitt is done.	If so Whitt is done.	54550825	1473344259684	1473344259870	SHIFT	16
104966	1146995	If so Whitt is done.	If so Whitt is done.	54550833	1473344259836	1473344259933	NA	87
104966	1146995	If so Whitt is done.	If so Whitt is done.	54550943	1473344260299	1473344260364	NA	73
104966	1146995	If so Whitt is done.	If so Whitt is done.	54550948	1473344260726	1473344260790	NA	84
104966	1146995	If so Whitt is done.	If so Whitt is done.	54550955	1473344260911	1473344261006	NA	84
104966	1146995	If so Whitt is done.	If so Whitt is done.	54550958	1473344261187	1473344261281	NA	32
104966	1146995	If so Whitt is done.	If so Whitt is done.	54550960	1473344261432	1473344261497	NA	73
104966	1146995	If so Whitt is done.	If so Whitt is done.	54551007	1473344261557	1473344261682	NA	83
104966	1146995	If so Whitt is done.	If so Whitt is done.	54551010	1473344261711	1473344261806	NA	32
104966	1146995	If so Whitt is done.	If so Whitt is done.	54551016	1473344261926	1473344262052	NA	68
104966	1146995	If so Whitt is done.	If so Whitt is done.	54551021	1473344262054	1473344262146	NA	79
104966	1146995	If so Whitt is done.	If so Whitt is done.	54551024	1473344262297	1473344262391	NA	78
104966	1146995	If so Whitt is done.	If so Whitt is done.	54551218	1473344262512	1473344262637	NA	69
104966	1146995	If so Whitt is done.	If so Whitt is done.	54551221	1473344262727	1473344262791	NA	190
