PARTICIPANT_ID	TEST_SECTION_ID	SENTENCE	USER_INPUT	KEYSTROKE_ID	PRESS_TIME	RELEASE_TIME	LETTER	KEYCODE
106059	1158058	I have been in contact with him, and he is familiar with the issues.	I have been in cantact with him, he is familiar witt the issues.	55073850	1473349338041	1473349338207	SHIFT	16
106059	1158058	I have been in contact with him, and he is familiar with the issues.	I have been in cantact with him, he is familiar witt the issues.	55073856	1473349338131	1473349338247	I	73
106059	1158058	I have been in contact with him, and he is familiar with the issues.	I have been in cantact with him, he is familiar witt the issues.	55073865	1473349338235	1473349338343	 	32
106059	1158058	I have been in contact with him, and he is familiar with the issues.	I have been in cantact with him, he is familiar witt the issues.	55073871	1473349338376	1473349338485	h	72
106059	1158058	I have been in contact with him, and he is familiar with the issues.	I have been in cantact with him, he is familiar witt the issues.	55073876	1473349338480	1473349338615	a	65
106059	1158058	I have been in contact with him, and he is familiar with the issues.	I have been in cantact with him, he is familiar witt the issues.	55073883	1473349338624	1473349338720	v	86
106059	1158058	I have been in contact with him, and he is familiar with the issues.	I have been in cantact with him, he is familiar witt the issues.	55074013	1473349338736	1473349338856	e	69
106059	1158058	I have been in contact with him, and he is familiar with the issues.	I have been in cantact with him, he is familiar witt the issues.	55074022	1473349338845	1473349338948	 	32
106059	1158058	I have been in contact with him, and he is familiar with the issues.	I have been in cantact with him, he is familiar witt the issues.	55074026	1473349339007	1473349339115	v	86
106059	1158058	I have been in contact with him, and he is familiar with the issues.	I have been in cantact with him, he is familiar witt the issues.	55074033	1473349339287	1473349339383	e	69
106059	1158058	I have been in contact with him, and he is familiar with the issues.	I have been in cantact with him, he is familiar witt the issues.	55074035	1473349339482	1473349339530	BKSP	8
106059	1158058	I have been in contact with him, and he is familiar with the issues.	I have been in cantact with him, he is familiar witt the issues.	55074043	1473349339585	1473349339641	BKSP	8
106059	1158058	I have been in contact with him, and he is familiar with the issues.	I have been in cantact with him, he is familiar witt the issues.	55074052	1473349339739	1473349339811	b	66
106059	1158058	I have been in contact with him, and he is familiar with the issues.	I have been in cantact with him, he is familiar witt the issues.	55074097	1473349339853	1473349339961	e	69
106059	1158058	I have been in contact with him, and he is familiar with the issues.	I have been in cantact with him, he is familiar witt the issues.	55074106	1473349340032	1473349340104	e	69
106059	1158058	I have been in contact with him, and he is familiar with the issues.	I have been in cantact with him, he is familiar witt the issues.	55074116	1473349340133	1473349340237	n	78
106059	1158058	I have been in contact with him, and he is familiar with the issues.	I have been in cantact with him, he is familiar witt the issues.	55074131	1473349340257	1473349340333	 	32
106059	1158058	I have been in contact with him, and he is familiar with the issues.	I have been in cantact with him, he is familiar witt the issues.	55074144	1473349340381	1473349340493	i	73
106059	1158058	I have been in contact with him, and he is familiar with the issues.	I have been in cantact with him, he is familiar witt the issues.	55074191	1473349340469	1473349340577	n	78
106059	1158058	I have been in contact with him, and he is familiar with the issues.	I have been in cantact with him, he is familiar witt the issues.	55074199	1473349340509	1473349340609	 	32
106059	1158058	I have been in contact with him, and he is familiar with the issues.	I have been in cantact with him, he is familiar witt the issues.	55074206	1473349340713	1473349340813	c	67
106059	1158058	I have been in contact with him, and he is familiar with the issues.	I have been in cantact with him, he is familiar witt the issues.	55074212	1473349340842	1473349340970	a	65
106059	1158058	I have been in contact with him, and he is familiar with the issues.	I have been in cantact with him, he is familiar witt the issues.	55074222	1473349340946	1473349341038	n	78
106059	1158058	I have been in contact with him, and he is familiar with the issues.	I have been in cantact with him, he is familiar witt the issues.	55074235	1473349341050	1473349341126	t	84
106059	1158058	I have been in contact with him, and he is familiar with the issues.	I have been in cantact with him, he is familiar witt the issues.	55074269	1473349341177	1473349341325	a	65
106059	1158058	I have been in contact with him, and he is familiar with the issues.	I have been in cantact with him, he is familiar witt the issues.	55074273	1473349341289	1473349341373	c	67
106059	1158058	I have been in contact with him, and he is familiar with the issues.	I have been in cantact with him, he is familiar witt the issues.	55074281	1473349341457	1473349341532	t	84
106059	1158058	I have been in contact with him, and he is familiar with the issues.	I have been in cantact with him, he is familiar witt the issues.	55074291	1473349341509	1473349341597	 	32
106059	1158058	I have been in contact with him, and he is familiar with the issues.	I have been in cantact with him, he is familiar witt the issues.	55074299	1473349341689	1473349341837	w	87
106059	1158058	I have been in contact with him, and he is familiar with the issues.	I have been in cantact with him, he is familiar witt the issues.	55074348	1473349341856	1473349341968	i	73
106059	1158058	I have been in contact with him, and he is familiar with the issues.	I have been in cantact with him, he is familiar witt the issues.	55074359	1473349341976	1473349342080	t	84
106059	1158058	I have been in contact with him, and he is familiar with the issues.	I have been in cantact with him, he is familiar witt the issues.	55074369	1473349342068	1473349342168	h	72
106059	1158058	I have been in contact with him, and he is familiar with the issues.	I have been in cantact with him, he is familiar witt the issues.	55074382	1473349342116	1473349342224	 	32
106059	1158058	I have been in contact with him, and he is familiar with the issues.	I have been in cantact with him, he is familiar witt the issues.	55074392	1473349342414	1473349342498	h	72
106059	1158058	I have been in contact with him, and he is familiar with the issues.	I have been in cantact with him, he is familiar witt the issues.	55074495	1473349342528	1473349342647	i	73
106059	1158058	I have been in contact with him, and he is familiar with the issues.	I have been in cantact with him, he is familiar witt the issues.	55074500	1473349342659	1473349342843	m	77
106059	1158058	I have been in contact with him, and he is familiar with the issues.	I have been in cantact with him, he is familiar witt the issues.	55074507	1473349343117	1473349343237	,	188
106059	1158058	I have been in contact with him, and he is familiar with the issues.	I have been in cantact with him, he is familiar witt the issues.	55074513	1473349343229	1473349343329	 	32
106059	1158058	I have been in contact with him, and he is familiar with the issues.	I have been in cantact with him, he is familiar witt the issues.	55074522	1473349343710	1473349343833	h	72
106059	1158058	I have been in contact with him, and he is familiar with the issues.	I have been in cantact with him, he is familiar witt the issues.	55074682	1473349343830	1473349343929	e	69
106059	1158058	I have been in contact with him, and he is familiar with the issues.	I have been in cantact with him, he is familiar witt the issues.	55074688	1473349343919	1473349344062	 	32
106059	1158058	I have been in contact with him, and he is familiar with the issues.	I have been in cantact with him, he is familiar witt the issues.	55074696	1473349344162	1473349344187	i	73
106059	1158058	I have been in contact with him, and he is familiar with the issues.	I have been in cantact with him, he is familiar witt the issues.	55074701	1473349344224	1473349344340	s	83
106059	1158058	I have been in contact with him, and he is familiar with the issues.	I have been in cantact with him, he is familiar witt the issues.	55074705	1473349344352	1473349344424	 	32
106059	1158058	I have been in contact with him, and he is familiar with the issues.	I have been in cantact with him, he is familiar witt the issues.	55074712	1473349345101	1473349345133	f	70
106059	1158058	I have been in contact with him, and he is familiar with the issues.	I have been in cantact with him, he is familiar witt the issues.	55074836	1473349345172	1473349345256	a	65
106059	1158058	I have been in contact with him, and he is familiar with the issues.	I have been in cantact with him, he is familiar witt the issues.	55074840	1473349345421	1473349345489	BKSP	8
106059	1158058	I have been in contact with him, and he is familiar with the issues.	I have been in cantact with him, he is familiar witt the issues.	55074846	1473349345554	1473349345626	BKSP	8
106059	1158058	I have been in contact with him, and he is familiar with the issues.	I have been in cantact with him, he is familiar witt the issues.	55074857	1473349345814	1473349345910	f	70
106059	1158058	I have been in contact with him, and he is familiar with the issues.	I have been in cantact with him, he is familiar witt the issues.	55074875	1473349345931	1473349346071	a	65
106059	1158058	I have been in contact with him, and he is familiar with the issues.	I have been in cantact with him, he is familiar witt the issues.	55074889	1473349346048	1473349346187	m	77
106059	1158058	I have been in contact with him, and he is familiar with the issues.	I have been in cantact with him, he is familiar witt the issues.	55074905	1473349346245	1473349346313	i	73
106059	1158058	I have been in contact with him, and he is familiar with the issues.	I have been in cantact with him, he is familiar witt the issues.	55075017	1473349346486	1473349346546	l	76
106059	1158058	I have been in contact with him, and he is familiar with the issues.	I have been in cantact with him, he is familiar witt the issues.	55075026	1473349346563	1473349346646	i	73
106059	1158058	I have been in contact with him, and he is familiar with the issues.	I have been in cantact with him, he is familiar witt the issues.	55075033	1473349347098	1473349347224	a	65
106059	1158058	I have been in contact with him, and he is familiar with the issues.	I have been in cantact with him, he is familiar witt the issues.	55075042	1473349347206	1473349347310	r	82
106059	1158058	I have been in contact with him, and he is familiar with the issues.	I have been in cantact with him, he is familiar witt the issues.	55075054	1473349347322	1473349347450	 	32
106059	1158058	I have been in contact with him, and he is familiar with the issues.	I have been in cantact with him, he is familiar witt the issues.	55075133	1473349347560	1473349347712	w	87
106059	1158058	I have been in contact with him, and he is familiar with the issues.	I have been in cantact with him, he is familiar witt the issues.	55075140	1473349347799	1473349347951	i	73
106059	1158058	I have been in contact with him, and he is familiar with the issues.	I have been in cantact with him, he is familiar witt the issues.	55075161	1473349347921	1473349348058	t	84
106059	1158058	I have been in contact with him, and he is familiar with the issues.	I have been in cantact with him, he is familiar witt the issues.	55075165	1473349348088	1473349348190	 	32
106059	1158058	I have been in contact with him, and he is familiar with the issues.	I have been in cantact with him, he is familiar witt the issues.	55075181	1473349348236	1473349348355	h	72
106059	1158058	I have been in contact with him, and he is familiar with the issues.	I have been in cantact with him, he is familiar witt the issues.	55075270	1473349348591	1473349348631	BKSP	8
106059	1158058	I have been in contact with him, and he is familiar with the issues.	I have been in cantact with him, he is familiar witt the issues.	55075278	1473349348698	1473349348810	BKSP	8
106059	1158058	I have been in contact with him, and he is familiar with the issues.	I have been in cantact with him, he is familiar witt the issues.	55075285	1473349348935	1473349349013	t	84
106059	1158058	I have been in contact with him, and he is familiar with the issues.	I have been in cantact with him, he is familiar witt the issues.	55075288	1473349348978	1473349349118	 	32
106059	1158058	I have been in contact with him, and he is familiar with the issues.	I have been in cantact with him, he is familiar witt the issues.	55075295	1473349349161	1473349349275	h	84
106059	1158058	I have been in contact with him, and he is familiar with the issues.	I have been in cantact with him, he is familiar witt the issues.	55075401	1473349349273	1473349349396	e	69
106059	1158058	I have been in contact with him, and he is familiar with the issues.	I have been in cantact with him, he is familiar witt the issues.	55075405	1473349349317	1473349349420	 	32
106059	1158058	I have been in contact with him, and he is familiar with the issues.	I have been in cantact with him, he is familiar witt the issues.	55075409	1473349349847	1473349349939	i	73
106059	1158058	I have been in contact with him, and he is familiar with the issues.	I have been in cantact with him, he is familiar witt the issues.	55075414	1473349349940	1473349349999	s	83
106059	1158058	I have been in contact with him, and he is familiar with the issues.	I have been in cantact with him, he is familiar witt the issues.	55075420	1473349350071	1473349350122	s	83
106059	1158058	I have been in contact with him, and he is familiar with the issues.	I have been in cantact with him, he is familiar witt the issues.	55075429	1473349350139	1473349350211	u	85
106059	1158058	I have been in contact with him, and he is familiar with the issues.	I have been in cantact with him, he is familiar witt the issues.	55075568	1473349350281	1473349350433	e	69
106059	1158058	I have been in contact with him, and he is familiar with the issues.	I have been in cantact with him, he is familiar witt the issues.	55075576	1473349350413	1473349350557	s	83
106059	1158058	I have been in contact with him, and he is familiar with the issues.	I have been in cantact with him, he is familiar witt the issues.	55075587	1473349350750	1473349350870	SHIFT	16
106059	1158058	I have been in contact with him, and he is familiar with the issues.	I have been in cantact with him, he is familiar witt the issues.	55075603	1473349351043	1473349351155	.	190
106059	1158107	Opposition leaders have urged him to call off the visit.	Oppositon leaders have urfed him to call off the visti.	55077321	1473349362408	1473349362679	SHIFT	16
106059	1158107	Opposition leaders have urged him to call off the visit.	Oppositon leaders have urfed him to call off the visti.	55077313	1473349362496	1473349362599	P	80
106059	1158107	Opposition leaders have urged him to call off the visit.	Oppositon leaders have urfed him to call off the visti.	55077329	1473349362607	1473349362739	O	79
106059	1158107	Opposition leaders have urged him to call off the visit.	Oppositon leaders have urfed him to call off the visti.	55077335	1473349362971	1473349363027	BKSP	8
106059	1158107	Opposition leaders have urged him to call off the visit.	Oppositon leaders have urfed him to call off the visti.	55077344	1473349363071	1473349363122	BKSP	8
106059	1158107	Opposition leaders have urged him to call off the visit.	Oppositon leaders have urfed him to call off the visti.	55077350	1473349363233	1473349363473	SHIFT	16
106059	1158107	Opposition leaders have urged him to call off the visit.	Oppositon leaders have urfed him to call off the visti.	55077355	1473349363330	1473349363501	P	80
106059	1158107	Opposition leaders have urged him to call off the visit.	Oppositon leaders have urfed him to call off the visti.	55077367	1473349363920	1473349363976	BKSP	8
106059	1158107	Opposition leaders have urged him to call off the visit.	Oppositon leaders have urfed him to call off the visti.	55077376	1473349364248	1473349364492	SHIFT	16
106059	1158107	Opposition leaders have urged him to call off the visit.	Oppositon leaders have urfed him to call off the visti.	55077389	1473349364377	1473349364508	O	79
106059	1158107	Opposition leaders have urged him to call off the visit.	Oppositon leaders have urfed him to call off the visti.	55077402	1473349364583	1473349364687	p	80
106059	1158107	Opposition leaders have urged him to call off the visit.	Oppositon leaders have urfed him to call off the visti.	55077522	1473349364766	1473349364834	p	80
106059	1158107	Opposition leaders have urged him to call off the visit.	Oppositon leaders have urfed him to call off the visti.	55077531	1473349364955	1473349365070	i	73
106059	1158107	Opposition leaders have urged him to call off the visit.	Oppositon leaders have urfed him to call off the visti.	55077541	1473349365395	1473349365491	BKSP	8
106059	1158107	Opposition leaders have urged him to call off the visit.	Oppositon leaders have urfed him to call off the visti.	55077549	1473349365783	1473349365878	o	79
106059	1158107	Opposition leaders have urged him to call off the visit.	Oppositon leaders have urfed him to call off the visti.	55077562	1473349365879	1473349365970	s	83
106059	1158107	Opposition leaders have urged him to call off the visit.	Oppositon leaders have urfed him to call off the visti.	55077572	1473349366001	1473349366125	i	73
106059	1158107	Opposition leaders have urged him to call off the visit.	Oppositon leaders have urfed him to call off the visti.	55077606	1473349366110	1473349366193	t	84
106059	1158107	Opposition leaders have urged him to call off the visit.	Oppositon leaders have urfed him to call off the visti.	55077610	1473349366242	1473349366414	o	79
106059	1158107	Opposition leaders have urged him to call off the visit.	Oppositon leaders have urfed him to call off the visti.	55077619	1473349366382	1473349366502	n	78
106059	1158107	Opposition leaders have urged him to call off the visit.	Oppositon leaders have urfed him to call off the visti.	55077626	1473349366462	1473349366546	 	32
106059	1158107	Opposition leaders have urged him to call off the visit.	Oppositon leaders have urfed him to call off the visti.	55077632	1473349366634	1473349366698	l	76
106059	1158107	Opposition leaders have urged him to call off the visit.	Oppositon leaders have urfed him to call off the visti.	55077742	1473349366682	1473349366842	e	69
106059	1158107	Opposition leaders have urged him to call off the visit.	Oppositon leaders have urfed him to call off the visti.	55077754	1473349366891	1473349366911	a	65
106059	1158107	Opposition leaders have urged him to call off the visit.	Oppositon leaders have urfed him to call off the visti.	55077762	1473349366929	1473349366996	s	83
106059	1158107	Opposition leaders have urged him to call off the visit.	Oppositon leaders have urfed him to call off the visti.	55077769	1473349367326	1473349367446	BKSP	8
106059	1158107	Opposition leaders have urged him to call off the visit.	Oppositon leaders have urfed him to call off the visti.	55077777	1473349367422	1473349367518	d	68
106059	1158107	Opposition leaders have urged him to call off the visit.	Oppositon leaders have urfed him to call off the visti.	55077787	1473349367606	1473349367723	e	69
106059	1158107	Opposition leaders have urged him to call off the visit.	Oppositon leaders have urfed him to call off the visti.	55077830	1473349367698	1473349367810	r	82
106059	1158107	Opposition leaders have urged him to call off the visit.	Oppositon leaders have urfed him to call off the visti.	55077836	1473349367814	1473349367954	s	83
106059	1158107	Opposition leaders have urged him to call off the visit.	Oppositon leaders have urfed him to call off the visti.	55077844	1473349367976	1473349368091	 	32
106059	1158107	Opposition leaders have urged him to call off the visit.	Oppositon leaders have urfed him to call off the visti.	55077855	1473349368115	1473349368235	h	72
106059	1158107	Opposition leaders have urged him to call off the visit.	Oppositon leaders have urfed him to call off the visti.	55077861	1473349368183	1473349368343	a	65
106059	1158107	Opposition leaders have urged him to call off the visit.	Oppositon leaders have urfed him to call off the visti.	55077958	1473349368323	1473349368431	v	86
106059	1158107	Opposition leaders have urged him to call off the visit.	Oppositon leaders have urfed him to call off the visti.	55077966	1473349368447	1473349368576	e	69
106059	1158107	Opposition leaders have urged him to call off the visit.	Oppositon leaders have urfed him to call off the visti.	55077974	1473349368572	1473349368643	 	32
106059	1158107	Opposition leaders have urged him to call off the visit.	Oppositon leaders have urfed him to call off the visti.	55077985	1473349368950	1473349369102	u	85
106059	1158107	Opposition leaders have urged him to call off the visit.	Oppositon leaders have urfed him to call off the visti.	55077993	1473349369039	1473349369146	r	82
106059	1158107	Opposition leaders have urged him to call off the visit.	Oppositon leaders have urfed him to call off the visti.	55078004	1473349369234	1473349369346	f	70
106059	1158107	Opposition leaders have urged him to call off the visit.	Oppositon leaders have urfed him to call off the visti.	55078071	1473349369398	1473349369490	e	69
106059	1158107	Opposition leaders have urged him to call off the visit.	Oppositon leaders have urfed him to call off the visti.	55078081	1473349369533	1473349369637	d	68
106059	1158107	Opposition leaders have urged him to call off the visit.	Oppositon leaders have urfed him to call off the visti.	55078092	1473349369732	1473349369844	 	32
106059	1158107	Opposition leaders have urged him to call off the visit.	Oppositon leaders have urfed him to call off the visti.	55078099	1473349370132	1473349370300	h	72
106059	1158107	Opposition leaders have urged him to call off the visit.	Oppositon leaders have urfed him to call off the visti.	55078173	1473349370280	1473349370448	i	73
106059	1158107	Opposition leaders have urged him to call off the visit.	Oppositon leaders have urfed him to call off the visti.	55078176	1473349370440	1473349370592	m	77
106059	1158107	Opposition leaders have urged him to call off the visit.	Oppositon leaders have urfed him to call off the visti.	55078179	1473349370536	1473349370608	 	32
106059	1158107	Opposition leaders have urged him to call off the visit.	Oppositon leaders have urfed him to call off the visti.	55078184	1473349370888	1473349370983	t	84
106059	1158107	Opposition leaders have urged him to call off the visit.	Oppositon leaders have urfed him to call off the visti.	55078187	1473349370995	1473349371075	 	79
106059	1158107	Opposition leaders have urged him to call off the visit.	Oppositon leaders have urfed him to call off the visti.	55078222	1473349371224	1473349371357	c	67
106059	1158107	Opposition leaders have urged him to call off the visit.	Oppositon leaders have urfed him to call off the visti.	55078234	1473349371336	1473349371436	a	65
106059	1158107	Opposition leaders have urged him to call off the visit.	Oppositon leaders have urfed him to call off the visti.	55078245	1473349371412	1473349371480	l	76
106059	1158107	Opposition leaders have urged him to call off the visit.	Oppositon leaders have urfed him to call off the visti.	55078256	1473349371551	1473349371619	l	76
106059	1158107	Opposition leaders have urged him to call off the visit.	Oppositon leaders have urfed him to call off the visti.	55078371	1473349371607	1473349371687	 	32
106059	1158107	Opposition leaders have urged him to call off the visit.	Oppositon leaders have urfed him to call off the visti.	55078374	1473349371717	1473349371797	f	70
106059	1158107	Opposition leaders have urged him to call off the visit.	Oppositon leaders have urfed him to call off the visti.	55078378	1473349371798	1473349371905	o	79
106059	1158107	Opposition leaders have urged him to call off the visit.	Oppositon leaders have urfed him to call off the visti.	55078381	1473349371922	1473349371986	f	70
106059	1158107	Opposition leaders have urged him to call off the visit.	Oppositon leaders have urfed him to call off the visti.	55078385	1473349372473	1473349372513	BKSP	8
106059	1158107	Opposition leaders have urged him to call off the visit.	Oppositon leaders have urfed him to call off the visti.	55078389	1473349372565	1473349372605	BKSP	8
106059	1158107	Opposition leaders have urged him to call off the visit.	Oppositon leaders have urfed him to call off the visti.	55078392	1473349372667	1473349372699	BKSP	8
106059	1158107	Opposition leaders have urged him to call off the visit.	Oppositon leaders have urfed him to call off the visti.	55078395	1473349372854	1473349372990	o	79
106059	1158107	Opposition leaders have urged him to call off the visit.	Oppositon leaders have urfed him to call off the visti.	55078398	1473349372978	1473349373050	f	70
106059	1158107	Opposition leaders have urged him to call off the visit.	Oppositon leaders have urfed him to call off the visti.	55078403	1473349373115	1473349373179	f	70
106059	1158107	Opposition leaders have urged him to call off the visit.	Oppositon leaders have urfed him to call off the visti.	55078411	1473349373163	1473349373265	 	32
106059	1158107	Opposition leaders have urged him to call off the visit.	Oppositon leaders have urfed him to call off the visti.	55078419	1473349373263	1473349373369	t	84
106059	1158107	Opposition leaders have urged him to call off the visit.	Oppositon leaders have urfed him to call off the visti.	55078499	1473349373299	1473349373411	h	72
106059	1158107	Opposition leaders have urged him to call off the visit.	Oppositon leaders have urfed him to call off the visti.	55078506	1473349373367	1473349373463	e	69
106059	1158107	Opposition leaders have urged him to call off the visit.	Oppositon leaders have urfed him to call off the visti.	55078514	1473349373431	1473349373531	 	32
106059	1158107	Opposition leaders have urged him to call off the visit.	Oppositon leaders have urfed him to call off the visti.	55078520	1473349373732	1473349373820	v	86
106059	1158107	Opposition leaders have urged him to call off the visit.	Oppositon leaders have urfed him to call off the visti.	55078527	1473349373846	1473349373934	i	73
106059	1158107	Opposition leaders have urged him to call off the visit.	Oppositon leaders have urfed him to call off the visti.	55078533	1473349373915	1473349374042	s	83
106059	1158107	Opposition leaders have urged him to call off the visit.	Oppositon leaders have urfed him to call off the visti.	55078581	1473349374043	1473349374121	i	84
106059	1158107	Opposition leaders have urged him to call off the visit.	Oppositon leaders have urfed him to call off the visti.	55078587	1473349374543	1473349374626	.	190
106059	1158172	I haven't adapted really.	I haven't adapted really.	55079679	1473349382284	1473349382492	SHIFT	16
106059	1158172	I haven't adapted really.	I haven't adapted really.	55079670	1473349382416	1473349382484	I	73
106059	1158172	I haven't adapted really.	I haven't adapted really.	55079685	1473349382512	1473349382604	 	32
106059	1158172	I haven't adapted really.	I haven't adapted really.	55079695	1473349382695	1473349382803	h	72
106059	1158172	I haven't adapted really.	I haven't adapted really.	55079705	1473349382832	1473349382960	a	65
106059	1158172	I haven't adapted really.	I haven't adapted really.	55079714	1473349382976	1473349383060	v	86
106059	1158172	I haven't adapted really.	I haven't adapted really.	55079904	1473349383110	1473349383234	e	69
106059	1158172	I haven't adapted really.	I haven't adapted really.	55079911	1473349383230	1473349383322	n	78
106059	1158172	I haven't adapted really.	I haven't adapted really.	55079922	1473349383737	1473349383785	t	84
106059	1158172	I haven't adapted really.	I haven't adapted really.	55079933	1473349383923	1473349383960	;	186
106059	1158172	I haven't adapted really.	I haven't adapted really.	55079943	1473349384132	1473349384200	BKSP	8
106059	1158172	I haven't adapted really.	I haven't adapted really.	55079950	1473349384269	1473349384361	BKSP	8
106059	1158172	I haven't adapted really.	I haven't adapted really.	55079962	1473349384463	1473349384591	'	222
106059	1158172	I haven't adapted really.	I haven't adapted really.	55080128	1473349384603	1473349384675	t	84
106059	1158172	I haven't adapted really.	I haven't adapted really.	55080134	1473349384840	1473349384945	 	32
106059	1158172	I haven't adapted really.	I haven't adapted really.	55080143	1473349385453	1473349385537	a	65
106059	1158172	I haven't adapted really.	I haven't adapted really.	55080157	1473349385563	1473349385611	f	70
106059	1158172	I haven't adapted really.	I haven't adapted really.	55080170	1473349385816	1473349385900	BKSP	8
106059	1158172	I haven't adapted really.	I haven't adapted really.	55080180	1473349385949	1473349386061	d	68
106059	1158172	I haven't adapted really.	I haven't adapted really.	55080338	1473349386053	1473349386121	a	65
106059	1158172	I haven't adapted really.	I haven't adapted really.	55080345	1473349386238	1473349386349	p	80
106059	1158172	I haven't adapted really.	I haven't adapted really.	55080359	1473349386774	1473349386846	t	84
106059	1158172	I haven't adapted really.	I haven't adapted really.	55080366	1473349386908	1473349387008	e	69
106059	1158172	I haven't adapted really.	I haven't adapted really.	55080375	1473349387087	1473349387159	d	68
106059	1158172	I haven't adapted really.	I haven't adapted really.	55080382	1473349387176	1473349387288	 	32
106059	1158172	I haven't adapted really.	I haven't adapted really.	55080406	1473349387315	1473349387447	r	82
106059	1158172	I haven't adapted really.	I haven't adapted really.	55080410	1473349387427	1473349387563	e	69
106059	1158172	I haven't adapted really.	I haven't adapted really.	55080416	1473349387584	1473349387727	a	65
106059	1158172	I haven't adapted really.	I haven't adapted really.	55080426	1473349387720	1473349387788	l	76
106059	1158172	I haven't adapted really.	I haven't adapted really.	55080441	1473349387833	1473349387893	l	76
106059	1158172	I haven't adapted really.	I haven't adapted really.	55080498	1473349387956	1473349388024	y	89
106059	1158172	I haven't adapted really.	I haven't adapted really.	55080509	1473349388213	1473349388277	.	190
106059	1158211	Or are you going to be tied up with dinner?	Or are tou gong to be tied up wuth dinner?	55084676	1473349420372	1473349420632	SHIFT	16
106059	1158211	Or are you going to be tied up with dinner?	Or are tou gong to be tied up wuth dinner?	55084680	1473349420552	1473349420700	I	73
106059	1158211	Or are you going to be tied up with dinner?	Or are tou gong to be tied up wuth dinner?	55084683	1473349420657	1473349420780	r	82
106059	1158211	Or are you going to be tied up with dinner?	Or are tou gong to be tied up wuth dinner?	55084690	1473349420836	1473349420883	 	32
106059	1158211	Or are you going to be tied up with dinner?	Or are tou gong to be tied up wuth dinner?	55084694	1473349421048	1473349421100	BKSP	8
106059	1158211	Or are you going to be tied up with dinner?	Or are tou gong to be tied up wuth dinner?	55084698	1473349421149	1473349421202	BKSP	8
106059	1158211	Or are you going to be tied up with dinner?	Or are tou gong to be tied up wuth dinner?	55084704	1473349421248	1473349421287	BKSP	8
106059	1158211	Or are you going to be tied up with dinner?	Or are tou gong to be tied up wuth dinner?	55084712	1473349421344	1473349421384	BKSP	8
106059	1158211	Or are you going to be tied up with dinner?	Or are tou gong to be tied up wuth dinner?	55084723	1473349421462	1473349421694	SHIFT	16
106059	1158211	Or are you going to be tied up with dinner?	Or are tou gong to be tied up wuth dinner?	55084731	1473349421595	1473349421754	O	79
106059	1158211	Or are you going to be tied up with dinner?	Or are tou gong to be tied up wuth dinner?	55084742	1473349421830	1473349421930	 	32
106059	1158211	Or are you going to be tied up with dinner?	Or are tou gong to be tied up wuth dinner?	55084951	1473349422147	1473349422223	BKSP	8
106059	1158211	Or are you going to be tied up with dinner?	Or are tou gong to be tied up wuth dinner?	55084957	1473349422371	1473349422447	 	32
106059	1158211	Or are you going to be tied up with dinner?	Or are tou gong to be tied up wuth dinner?	55084964	1473349422573	1473349422663	a	65
106059	1158211	Or are you going to be tied up with dinner?	Or are tou gong to be tied up wuth dinner?	55084971	1473349422788	1473349422848	BKSP	8
106059	1158211	Or are you going to be tied up with dinner?	Or are tou gong to be tied up wuth dinner?	55084984	1473349422881	1473349422949	BKSP	8
106059	1158211	Or are you going to be tied up with dinner?	Or are tou gong to be tied up wuth dinner?	55084994	1473349423448	1473349423588	r	82
106059	1158211	Or are you going to be tied up with dinner?	Or are tou gong to be tied up wuth dinner?	55085006	1473349423628	1473349423715	 	32
106059	1158211	Or are you going to be tied up with dinner?	Or are tou gong to be tied up wuth dinner?	55085019	1473349424086	1473349424218	a	65
106059	1158211	Or are you going to be tied up with dinner?	Or are tou gong to be tied up wuth dinner?	55085023	1473349424227	1473349424311	r	82
106059	1158211	Or are you going to be tied up with dinner?	Or are tou gong to be tied up wuth dinner?	55085032	1473349424302	1473349424422	e	69
106059	1158211	Or are you going to be tied up with dinner?	Or are tou gong to be tied up wuth dinner?	55085039	1473349424402	1473349424514	 	32
106059	1158211	Or are you going to be tied up with dinner?	Or are tou gong to be tied up wuth dinner?	55085051	1473349424533	1473349424625	t	84
106059	1158211	Or are you going to be tied up with dinner?	Or are tou gong to be tied up wuth dinner?	55085248	1473349424605	1473349424714	o	79
106059	1158211	Or are you going to be tied up with dinner?	Or are tou gong to be tied up wuth dinner?	55085260	1473349424685	1473349424809	u	85
106059	1158211	Or are you going to be tied up with dinner?	Or are tou gong to be tied up wuth dinner?	55085266	1473349424742	1473349424841	 	32
106059	1158211	Or are you going to be tied up with dinner?	Or are tou gong to be tied up wuth dinner?	55085272	1473349425484	1473349425540	f	70
106059	1158211	Or are you going to be tied up with dinner?	Or are tou gong to be tied up wuth dinner?	55085279	1473349425770	1473349425825	BKSP	8
106059	1158211	Or are you going to be tied up with dinner?	Or are tou gong to be tied up wuth dinner?	55085284	1473349425900	1473349425983	g	71
106059	1158211	Or are you going to be tied up with dinner?	Or are tou gong to be tied up wuth dinner?	55085357	1473349425980	1473349426151	o	79
106059	1158211	Or are you going to be tied up with dinner?	Or are tou gong to be tied up wuth dinner?	55085370	1473349426277	1473349426457	n	78
106059	1158211	Or are you going to be tied up with dinner?	Or are tou gong to be tied up wuth dinner?	55085378	1473349426385	1473349426478	g	71
106059	1158211	Or are you going to be tied up with dinner?	Or are tou gong to be tied up wuth dinner?	55085391	1473349426465	1473349426581	 	32
106059	1158211	Or are you going to be tied up with dinner?	Or are tou gong to be tied up wuth dinner?	55085397	1473349426620	1473349426708	t	84
106059	1158211	Or are you going to be tied up with dinner?	Or are tou gong to be tied up wuth dinner?	55085399	1473349426712	1473349426780	o	79
106059	1158211	Or are you going to be tied up with dinner?	Or are tou gong to be tied up wuth dinner?	55085416	1473349426782	1473349426872	 	32
106059	1158211	Or are you going to be tied up with dinner?	Or are tou gong to be tied up wuth dinner?	55085425	1473349426911	1473349427039	b	66
106059	1158211	Or are you going to be tied up with dinner?	Or are tou gong to be tied up wuth dinner?	55085436	1473349426999	1473349427107	e	69
106059	1158211	Or are you going to be tied up with dinner?	Or are tou gong to be tied up wuth dinner?	55085449	1473349427091	1473349427207	 	32
106059	1158211	Or are you going to be tied up with dinner?	Or are tou gong to be tied up wuth dinner?	55085461	1473349427278	1473349427378	t	84
106059	1158211	Or are you going to be tied up with dinner?	Or are tou gong to be tied up wuth dinner?	55085527	1473349427398	1473349427511	i	73
106059	1158211	Or are you going to be tied up with dinner?	Or are tou gong to be tied up wuth dinner?	55085535	1473349427478	1473349427542	e	69
106059	1158211	Or are you going to be tied up with dinner?	Or are tou gong to be tied up wuth dinner?	55085541	1473349427625	1473349427717	d	68
106059	1158211	Or are you going to be tied up with dinner?	Or are tou gong to be tied up wuth dinner?	55085546	1473349427718	1473349427837	 	32
106059	1158211	Or are you going to be tied up with dinner?	Or are tou gong to be tied up wuth dinner?	55085553	1473349427984	1473349428140	u	85
106059	1158211	Or are you going to be tied up with dinner?	Or are tou gong to be tied up wuth dinner?	55085624	1473349428156	1473349428216	p	80
106059	1158211	Or are you going to be tied up with dinner?	Or are tou gong to be tied up wuth dinner?	55085630	1473349428204	1473349428252	 	32
106059	1158211	Or are you going to be tied up with dinner?	Or are tou gong to be tied up wuth dinner?	55085633	1473349428447	1473349428614	w	87
106059	1158211	Or are you going to be tied up with dinner?	Or are tou gong to be tied up wuth dinner?	55085637	1473349428741	1473349428865	u	85
106059	1158211	Or are you going to be tied up with dinner?	Or are tou gong to be tied up wuth dinner?	55085647	1473349428881	1473349429001	t	84
106059	1158211	Or are you going to be tied up with dinner?	Or are tou gong to be tied up wuth dinner?	55085765	1473349428974	1473349429053	h	72
106059	1158211	Or are you going to be tied up with dinner?	Or are tou gong to be tied up wuth dinner?	55085774	1473349429042	1473349429137	 	32
106059	1158211	Or are you going to be tied up with dinner?	Or are tou gong to be tied up wuth dinner?	55085785	1473349429410	1473349429538	d	68
106059	1158211	Or are you going to be tied up with dinner?	Or are tou gong to be tied up wuth dinner?	55085795	1473349429534	1473349429638	i	73
106059	1158211	Or are you going to be tied up with dinner?	Or are tou gong to be tied up wuth dinner?	55085803	1473349429839	1473349429947	n	78
106059	1158211	Or are you going to be tied up with dinner?	Or are tou gong to be tied up wuth dinner?	55085814	1473349429994	1473349430054	n	78
106059	1158211	Or are you going to be tied up with dinner?	Or are tou gong to be tied up wuth dinner?	55085898	1473349430373	1473349430494	e	69
106059	1158211	Or are you going to be tied up with dinner?	Or are tou gong to be tied up wuth dinner?	55085901	1473349430457	1473349430569	r	82
106059	1158211	Or are you going to be tied up with dinner?	Or are tou gong to be tied up wuth dinner?	55085908	1473349430662	1473349430934	SHIFT	16
106059	1158211	Or are you going to be tied up with dinner?	Or are tou gong to be tied up wuth dinner?	55085906	1473349430842	1473349430926	?	191
106059	1158321	The evacuees later boarded a British airliner bound for Gatwick.	The vacuees later boarded a British airliner bound for Gatwicj,	55086467	1473349435754	1473349435930	SHIFT	16
106059	1158321	The evacuees later boarded a British airliner bound for Gatwick.	The vacuees later boarded a British airliner bound for Gatwicj,	55086473	1473349435897	1473349436012	T	84
106059	1158321	The evacuees later boarded a British airliner bound for Gatwick.	The vacuees later boarded a British airliner bound for Gatwicj,	55086480	1473349435945	1473349436040	h	72
106059	1158321	The evacuees later boarded a British airliner bound for Gatwick.	The vacuees later boarded a British airliner bound for Gatwicj,	55086486	1473349436021	1473349436112	e	69
106059	1158321	The evacuees later boarded a British airliner bound for Gatwick.	The vacuees later boarded a British airliner bound for Gatwicj,	55086494	1473349436085	1473349436176	 	32
106059	1158321	The evacuees later boarded a British airliner bound for Gatwick.	The vacuees later boarded a British airliner bound for Gatwicj,	55086500	1473349436333	1473349436452	e	69
106059	1158321	The evacuees later boarded a British airliner bound for Gatwick.	The vacuees later boarded a British airliner bound for Gatwicj,	55086674	1473349437060	1473349437139	BKSP	8
106059	1158321	The evacuees later boarded a British airliner bound for Gatwick.	The vacuees later boarded a British airliner bound for Gatwicj,	55086679	1473349437156	1473349437247	v	86
106059	1158321	The evacuees later boarded a British airliner bound for Gatwick.	The vacuees later boarded a British airliner bound for Gatwicj,	55086686	1473349437273	1473349437384	a	65
106059	1158321	The evacuees later boarded a British airliner bound for Gatwick.	The vacuees later boarded a British airliner bound for Gatwicj,	55086692	1473349438014	1473349438110	c	67
106059	1158321	The evacuees later boarded a British airliner bound for Gatwick.	The vacuees later boarded a British airliner bound for Gatwicj,	55086701	1473349438140	1473349438219	u	85
106059	1158321	The evacuees later boarded a British airliner bound for Gatwick.	The vacuees later boarded a British airliner bound for Gatwicj,	55086709	1473349438628	1473349438715	e	69
106059	1158321	The evacuees later boarded a British airliner bound for Gatwick.	The vacuees later boarded a British airliner bound for Gatwicj,	55086760	1473349438762	1473349438897	e	69
106059	1158321	The evacuees later boarded a British airliner bound for Gatwick.	The vacuees later boarded a British airliner bound for Gatwicj,	55086765	1473349438890	1473349439021	s	83
106059	1158321	The evacuees later boarded a British airliner bound for Gatwick.	The vacuees later boarded a British airliner bound for Gatwicj,	55086776	1473349439022	1473349439125	 	32
106059	1158321	The evacuees later boarded a British airliner bound for Gatwick.	The vacuees later boarded a British airliner bound for Gatwicj,	55086788	1473349439272	1473349439403	l	76
106059	1158321	The evacuees later boarded a British airliner bound for Gatwick.	The vacuees later boarded a British airliner bound for Gatwicj,	55086850	1473349439372	1473349439507	a	65
106059	1158321	The evacuees later boarded a British airliner bound for Gatwick.	The vacuees later boarded a British airliner bound for Gatwicj,	55086857	1473349439484	1473349439563	t	84
106059	1158321	The evacuees later boarded a British airliner bound for Gatwick.	The vacuees later boarded a British airliner bound for Gatwicj,	55086867	1473349439580	1473349439712	e	69
106059	1158321	The evacuees later boarded a British airliner bound for Gatwick.	The vacuees later boarded a British airliner bound for Gatwicj,	55086874	1473349439672	1473349439787	r	82
106059	1158321	The evacuees later boarded a British airliner bound for Gatwick.	The vacuees later boarded a British airliner bound for Gatwicj,	55086884	1473349439744	1473349439859	 	32
106059	1158321	The evacuees later boarded a British airliner bound for Gatwick.	The vacuees later boarded a British airliner bound for Gatwicj,	55086897	1473349439988	1473349440087	b	66
106059	1158321	The evacuees later boarded a British airliner bound for Gatwick.	The vacuees later boarded a British airliner bound for Gatwicj,	55086925	1473349440096	1473349440199	o	79
106059	1158321	The evacuees later boarded a British airliner bound for Gatwick.	The vacuees later boarded a British airliner bound for Gatwicj,	55086933	1473349440168	1473349440279	a	65
106059	1158321	The evacuees later boarded a British airliner bound for Gatwick.	The vacuees later boarded a British airliner bound for Gatwicj,	55086939	1473349440232	1473349440347	r	82
106059	1158321	The evacuees later boarded a British airliner bound for Gatwick.	The vacuees later boarded a British airliner bound for Gatwicj,	55086946	1473349440409	1473349440497	d	68
106059	1158321	The evacuees later boarded a British airliner bound for Gatwick.	The vacuees later boarded a British airliner bound for Gatwicj,	55086956	1473349440556	1473349440639	e	69
106059	1158321	The evacuees later boarded a British airliner bound for Gatwick.	The vacuees later boarded a British airliner bound for Gatwicj,	55087022	1473349440696	1473349440781	d	68
106059	1158321	The evacuees later boarded a British airliner bound for Gatwick.	The vacuees later boarded a British airliner bound for Gatwicj,	55087027	1473349440760	1473349440863	 	32
106059	1158321	The evacuees later boarded a British airliner bound for Gatwick.	The vacuees later boarded a British airliner bound for Gatwicj,	55087033	1473349441015	1473349441118	a	65
106059	1158321	The evacuees later boarded a British airliner bound for Gatwick.	The vacuees later boarded a British airliner bound for Gatwicj,	55087041	1473349441127	1473349441246	 	32
106059	1158321	The evacuees later boarded a British airliner bound for Gatwick.	The vacuees later boarded a British airliner bound for Gatwicj,	55087091	1473349441268	1473349441628	SHIFT	16
106059	1158321	The evacuees later boarded a British airliner bound for Gatwick.	The vacuees later boarded a British airliner bound for Gatwicj,	55087047	1473349441545	1473349441620	B	66
106059	1158321	The evacuees later boarded a British airliner bound for Gatwick.	The vacuees later boarded a British airliner bound for Gatwicj,	55087094	1473349441716	1473349441821	r	82
106059	1158321	The evacuees later boarded a British airliner bound for Gatwick.	The vacuees later boarded a British airliner bound for Gatwicj,	55087103	1473349441817	1473349441884	i	73
106059	1158321	The evacuees later boarded a British airliner bound for Gatwick.	The vacuees later boarded a British airliner bound for Gatwicj,	55087111	1473349441909	1473349442004	t	84
106059	1158321	The evacuees later boarded a British airliner bound for Gatwick.	The vacuees later boarded a British airliner bound for Gatwicj,	55087119	1473349442034	1473349442113	i	73
106059	1158321	The evacuees later boarded a British airliner bound for Gatwick.	The vacuees later boarded a British airliner bound for Gatwicj,	55087133	1473349442114	1473349442229	s	83
106059	1158321	The evacuees later boarded a British airliner bound for Gatwick.	The vacuees later boarded a British airliner bound for Gatwicj,	55087251	1473349442198	1473349442285	h	72
106059	1158321	The evacuees later boarded a British airliner bound for Gatwick.	The vacuees later boarded a British airliner bound for Gatwicj,	55087259	1473349442341	1473349442420	 	32
106059	1158321	The evacuees later boarded a British airliner bound for Gatwick.	The vacuees later boarded a British airliner bound for Gatwicj,	55087268	1473349442568	1473349442655	a	65
106059	1158321	The evacuees later boarded a British airliner bound for Gatwick.	The vacuees later boarded a British airliner bound for Gatwicj,	55087276	1473349443118	1473349443189	i	73
106059	1158321	The evacuees later boarded a British airliner bound for Gatwick.	The vacuees later boarded a British airliner bound for Gatwicj,	55087284	1473349443238	1473349443333	r	82
106059	1158321	The evacuees later boarded a British airliner bound for Gatwick.	The vacuees later boarded a British airliner bound for Gatwicj,	55087290	1473349443361	1473349443456	l	76
106059	1158321	The evacuees later boarded a British airliner bound for Gatwick.	The vacuees later boarded a British airliner bound for Gatwicj,	55087304	1473349443519	1473349443642	i	73
106059	1158321	The evacuees later boarded a British airliner bound for Gatwick.	The vacuees later boarded a British airliner bound for Gatwicj,	55087312	1473349443631	1473349443754	n	78
106059	1158321	The evacuees later boarded a British airliner bound for Gatwick.	The vacuees later boarded a British airliner bound for Gatwicj,	55087320	1473349443759	1473349443874	e	69
106059	1158321	The evacuees later boarded a British airliner bound for Gatwick.	The vacuees later boarded a British airliner bound for Gatwicj,	55087328	1473349443835	1473349443958	r	82
106059	1158321	The evacuees later boarded a British airliner bound for Gatwick.	The vacuees later boarded a British airliner bound for Gatwicj,	55087391	1473349443955	1473349444070	 	32
106059	1158321	The evacuees later boarded a British airliner bound for Gatwick.	The vacuees later boarded a British airliner bound for Gatwicj,	55087403	1473349444157	1473349444244	b	66
106059	1158321	The evacuees later boarded a British airliner bound for Gatwick.	The vacuees later boarded a British airliner bound for Gatwicj,	55087415	1473349444241	1473349444332	o	79
106059	1158321	The evacuees later boarded a British airliner bound for Gatwick.	The vacuees later boarded a British airliner bound for Gatwicj,	55087425	1473349444345	1473349444372	u	85
106059	1158321	The evacuees later boarded a British airliner bound for Gatwick.	The vacuees later boarded a British airliner bound for Gatwicj,	55087439	1473349444468	1473349444595	n	78
106059	1158321	The evacuees later boarded a British airliner bound for Gatwick.	The vacuees later boarded a British airliner bound for Gatwicj,	55087467	1473349444564	1473349444623	d	68
106059	1158321	The evacuees later boarded a British airliner bound for Gatwick.	The vacuees later boarded a British airliner bound for Gatwicj,	55087475	1473349444666	1473349444741	 	32
106059	1158321	The evacuees later boarded a British airliner bound for Gatwick.	The vacuees later boarded a British airliner bound for Gatwicj,	55087484	1473349444792	1473349444879	f	70
106059	1158321	The evacuees later boarded a British airliner bound for Gatwick.	The vacuees later boarded a British airliner bound for Gatwicj,	55087492	1473349444892	1473349444991	o	79
106059	1158321	The evacuees later boarded a British airliner bound for Gatwick.	The vacuees later boarded a British airliner bound for Gatwicj,	55087502	1473349444964	1473349445049	r	82
106059	1158321	The evacuees later boarded a British airliner bound for Gatwick.	The vacuees later boarded a British airliner bound for Gatwicj,	55087670	1473349445044	1473349445151	 	32
106059	1158321	The evacuees later boarded a British airliner bound for Gatwick.	The vacuees later boarded a British airliner bound for Gatwicj,	55087675	1473349445309	1473349445585	SHIFT	16
106059	1158321	The evacuees later boarded a British airliner bound for Gatwick.	The vacuees later boarded a British airliner bound for Gatwicj,	55087684	1473349445542	1473349445649	G	71
106059	1158321	The evacuees later boarded a British airliner bound for Gatwick.	The vacuees later boarded a British airliner bound for Gatwicj,	55087694	1473349445716	1473349445768	a	65
106059	1158321	The evacuees later boarded a British airliner bound for Gatwick.	The vacuees later boarded a British airliner bound for Gatwicj,	55087705	1473349445791	1473349445886	t	84
106059	1158321	The evacuees later boarded a British airliner bound for Gatwick.	The vacuees later boarded a British airliner bound for Gatwicj,	55087713	1473349446330	1473349446386	w	87
106059	1158321	The evacuees later boarded a British airliner bound for Gatwick.	The vacuees later boarded a British airliner bound for Gatwicj,	55087723	1473349446534	1473349446632	i	73
106059	1158321	The evacuees later boarded a British airliner bound for Gatwick.	The vacuees later boarded a British airliner bound for Gatwicj,	55087939	1473349446718	1473349446830	s	83
106059	1158321	The evacuees later boarded a British airliner bound for Gatwick.	The vacuees later boarded a British airliner bound for Gatwicj,	55087947	1473349446782	1473349446873	h	72
106059	1158321	The evacuees later boarded a British airliner bound for Gatwick.	The vacuees later boarded a British airliner bound for Gatwicj,	55087955	1473349447093	1473349447160	BKSP	8
106059	1158321	The evacuees later boarded a British airliner bound for Gatwick.	The vacuees later boarded a British airliner bound for Gatwicj,	55087963	1473349447208	1473349447263	BKSP	8
106059	1158321	The evacuees later boarded a British airliner bound for Gatwick.	The vacuees later boarded a British airliner bound for Gatwicj,	55087970	1473349447298	1473349447405	c	67
106059	1158321	The evacuees later boarded a British airliner bound for Gatwick.	The vacuees later boarded a British airliner bound for Gatwicj,	55087975	1473349447374	1473349447461	j	74
106059	1158321	The evacuees later boarded a British airliner bound for Gatwick.	The vacuees later boarded a British airliner bound for Gatwicj,	55087982	1473349448522	1473349448581	,	188
106059	1158366	Please call tomorrow if possible.	Poeaase call tomorrow if possige	55088720	1473349453315	1473349453547	SHIFT	16
106059	1158366	Please call tomorrow if possible.	Poeaase call tomorrow if possige	55088724	1473349453457	1473349453568	P	80
106059	1158366	Please call tomorrow if possible.	Poeaase call tomorrow if possige	55088729	1473349453714	1473349453821	e	69
106059	1158366	Please call tomorrow if possible.	Poeaase call tomorrow if possige	55088735	1473349454002	1473349454062	BKSP	8
106059	1158366	Please call tomorrow if possible.	Poeaase call tomorrow if possige	55088746	1473349454207	1473349454286	o	79
106059	1158366	Please call tomorrow if possible.	Poeaase call tomorrow if possige	55088755	1473349454323	1473349454450	e	69
106059	1158366	Please call tomorrow if possible.	Poeaase call tomorrow if possige	55088768	1473349454483	1473349454547	a	65
106059	1158366	Please call tomorrow if possible.	Poeaase call tomorrow if possige	55088884	1473349454994	1473349455065	a	65
106059	1158366	Please call tomorrow if possible.	Poeaase call tomorrow if possige	55088889	1473349455124	1473349455252	s	83
106059	1158366	Please call tomorrow if possible.	Poeaase call tomorrow if possige	55088900	1473349455285	1473349455413	e	69
106059	1158366	Please call tomorrow if possible.	Poeaase call tomorrow if possige	55088909	1473349455370	1473349455514	 	32
106059	1158366	Please call tomorrow if possible.	Poeaase call tomorrow if possige	55088917	1473349455685	1473349455802	c	67
106059	1158366	Please call tomorrow if possible.	Poeaase call tomorrow if possige	55089040	1473349455793	1473349455925	a	65
106059	1158366	Please call tomorrow if possible.	Poeaase call tomorrow if possige	55089050	1473349455917	1473349455993	l	76
106059	1158366	Please call tomorrow if possible.	Poeaase call tomorrow if possige	55089061	1473349456053	1473349456150	l	76
106059	1158366	Please call tomorrow if possible.	Poeaase call tomorrow if possige	55089069	1473349456129	1473349456213	 	32
106059	1158366	Please call tomorrow if possible.	Poeaase call tomorrow if possige	55089076	1473349456413	1473349456512	t	84
106059	1158366	Please call tomorrow if possible.	Poeaase call tomorrow if possige	55089086	1473349456563	1473349456686	o	79
106059	1158366	Please call tomorrow if possible.	Poeaase call tomorrow if possige	55089196	1473349456646	1473349456830	m	77
106059	1158366	Please call tomorrow if possible.	Poeaase call tomorrow if possige	55089199	1473349456831	1473349456922	o	79
106059	1158366	Please call tomorrow if possible.	Poeaase call tomorrow if possige	55089209	1473349457024	1473349457080	o	79
106059	1158366	Please call tomorrow if possible.	Poeaase call tomorrow if possige	55089216	1473349457545	1473349457617	BKSP	8
106059	1158366	Please call tomorrow if possible.	Poeaase call tomorrow if possige	55089224	1473349457691	1473349457763	r	82
106059	1158366	Please call tomorrow if possible.	Poeaase call tomorrow if possige	55089228	1473349457809	1473349457889	r	82
106059	1158366	Please call tomorrow if possible.	Poeaase call tomorrow if possige	55089386	1473349457882	1473349458005	o	79
106059	1158366	Please call tomorrow if possible.	Poeaase call tomorrow if possige	55089394	1473349458051	1473349458087	 	32
106059	1158366	Please call tomorrow if possible.	Poeaase call tomorrow if possige	55089405	1473349458084	1473349458215	w	87
106059	1158366	Please call tomorrow if possible.	Poeaase call tomorrow if possige	55089416	1473349458278	1473349458346	 	32
106059	1158366	Please call tomorrow if possible.	Poeaase call tomorrow if possige	55089423	1473349458627	1473349458675	BKSP	8
106059	1158366	Please call tomorrow if possible.	Poeaase call tomorrow if possige	55089427	1473349458721	1473349458769	BKSP	8
106059	1158366	Please call tomorrow if possible.	Poeaase call tomorrow if possige	55089433	1473349458885	1473349459073	BKSP	8
106059	1158366	Please call tomorrow if possible.	Poeaase call tomorrow if possige	55089441	1473349459362	1473349459454	w	87
106059	1158366	Please call tomorrow if possible.	Poeaase call tomorrow if possige	55089447	1473349459458	1473349459594	 	32
106059	1158366	Please call tomorrow if possible.	Poeaase call tomorrow if possige	55089523	1473349459626	1473349459765	i	73
106059	1158366	Please call tomorrow if possible.	Poeaase call tomorrow if possige	55089526	1473349460128	1473349460231	f	70
106059	1158366	Please call tomorrow if possible.	Poeaase call tomorrow if possige	55089531	1473349460232	1473349460359	 	32
106059	1158366	Please call tomorrow if possible.	Poeaase call tomorrow if possige	55089535	1473349460575	1473349460707	p	80
106059	1158366	Please call tomorrow if possible.	Poeaase call tomorrow if possige	55089541	1473349460729	1473349460845	o	79
106059	1158366	Please call tomorrow if possible.	Poeaase call tomorrow if possige	55089574	1473349460846	1473349460933	s	83
106059	1158366	Please call tomorrow if possible.	Poeaase call tomorrow if possige	55089580	1473349460982	1473349461077	s	83
106059	1158366	Please call tomorrow if possible.	Poeaase call tomorrow if possige	55089590	1473349461105	1473349461187	i	73
106059	1158366	Please call tomorrow if possible.	Poeaase call tomorrow if possige	55089601	1473349461185	1473349461281	g	71
106059	1158366	Please call tomorrow if possible.	Poeaase call tomorrow if possige	55089612	1473349461320	1473349461400	e	69
106059	1158402	Thanks for all you are doing.	Thanks for all you are doing.	55090407	1473349467085	1473349467278	SHIFT	16
106059	1158402	Thanks for all you are doing.	Thanks for all you are doing.	55090411	1473349467246	1473349467368	T	84
106059	1158402	Thanks for all you are doing.	Thanks for all you are doing.	55090418	1473349467330	1473349467422	h	72
106059	1158402	Thanks for all you are doing.	Thanks for all you are doing.	55090426	1473349467435	1473349467569	a	65
106059	1158402	Thanks for all you are doing.	Thanks for all you are doing.	55090434	1473349467542	1473349467655	n	78
106059	1158402	Thanks for all you are doing.	Thanks for all you are doing.	55090442	1473349467671	1473349467830	k	75
106059	1158402	Thanks for all you are doing.	Thanks for all you are doing.	55090475	1473349467814	1473349467903	s	83
106059	1158402	Thanks for all you are doing.	Thanks for all you are doing.	55090482	1473349467904	1473349468019	 	32
106059	1158402	Thanks for all you are doing.	Thanks for all you are doing.	55090492	1473349468058	1473349468149	f	70
106059	1158402	Thanks for all you are doing.	Thanks for all you are doing.	55090499	1473349468169	1473349468281	o	79
106059	1158402	Thanks for all you are doing.	Thanks for all you are doing.	55090511	1473349468241	1473349468325	r	82
106059	1158402	Thanks for all you are doing.	Thanks for all you are doing.	55090527	1473349468368	1473349468488	 	32
106059	1158402	Thanks for all you are doing.	Thanks for all you are doing.	55090590	1473349468509	1473349468640	a	65
106059	1158402	Thanks for all you are doing.	Thanks for all you are doing.	55090597	1473349468625	1473349468725	l	76
106059	1158402	Thanks for all you are doing.	Thanks for all you are doing.	55090604	1473349468783	1473349468855	l	76
106059	1158402	Thanks for all you are doing.	Thanks for all you are doing.	55090614	1473349468850	1473349468918	 	32
106059	1158402	Thanks for all you are doing.	Thanks for all you are doing.	55090622	1473349469280	1473349469364	y	89
106059	1158402	Thanks for all you are doing.	Thanks for all you are doing.	55090646	1473349469380	1473349469500	o	79
106059	1158402	Thanks for all you are doing.	Thanks for all you are doing.	55090653	1473349469464	1473349469589	u	85
106059	1158402	Thanks for all you are doing.	Thanks for all you are doing.	55090655	1473349469532	1473349469616	 	32
106059	1158402	Thanks for all you are doing.	Thanks for all you are doing.	55090661	1473349469679	1473349469822	a	65
106059	1158402	Thanks for all you are doing.	Thanks for all you are doing.	55090736	1473349469779	1473349469915	r	82
106059	1158402	Thanks for all you are doing.	Thanks for all you are doing.	55090745	1473349469899	1473349469994	e	69
106059	1158402	Thanks for all you are doing.	Thanks for all you are doing.	55090751	1473349469955	1473349470099	 	32
106059	1158402	Thanks for all you are doing.	Thanks for all you are doing.	55090753	1473349470367	1473349470455	d	68
106059	1158402	Thanks for all you are doing.	Thanks for all you are doing.	55090760	1473349470591	1473349470678	o	79
106059	1158402	Thanks for all you are doing.	Thanks for all you are doing.	55090927	1473349470651	1473349470827	i	73
106059	1158402	Thanks for all you are doing.	Thanks for all you are doing.	55090935	1473349470795	1473349470906	n	78
106059	1158402	Thanks for all you are doing.	Thanks for all you are doing.	55090943	1473349470839	1473349470910	g	71
106059	1158402	Thanks for all you are doing.	Thanks for all you are doing.	55090953	1473349471414	1473349471469	,	188
106059	1158402	Thanks for all you are doing.	Thanks for all you are doing.	55090955	1473349471806	1473349471933	BKSP	8
106059	1158402	Thanks for all you are doing.	Thanks for all you are doing.	55090962	1473349472037	1473349472109	.	190
106059	1158429	Please call me if you have any questions.	Please call me if you have any questions.	55094483	1473349503661	1473349503909	SHIFT	16
106059	1158429	Please call me if you have any questions.	Please call me if you have any questions.	55094486	1473349503801	1473349503925	P	80
106059	1158429	Please call me if you have any questions.	Please call me if you have any questions.	55094491	1473349503982	1473349504158	l	76
106059	1158429	Please call me if you have any questions.	Please call me if you have any questions.	55094497	1473349504094	1473349504234	e	69
106059	1158429	Please call me if you have any questions.	Please call me if you have any questions.	55094503	1473349504437	1473349504573	s	83
106059	1158429	Please call me if you have any questions.	Please call me if you have any questions.	55094511	1473349504824	1473349504916	BKSP	8
106059	1158429	Please call me if you have any questions.	Please call me if you have any questions.	55094518	1473349504924	1473349505032	a	65
106059	1158429	Please call me if you have any questions.	Please call me if you have any questions.	55094539	1473349504976	1473349505088	s	83
106059	1158429	Please call me if you have any questions.	Please call me if you have any questions.	55094546	1473349505116	1473349505212	e	69
106059	1158429	Please call me if you have any questions.	Please call me if you have any questions.	55094554	1473349505204	1473349505344	 	32
106059	1158429	Please call me if you have any questions.	Please call me if you have any questions.	55094561	1473349505348	1473349505462	c	67
106059	1158429	Please call me if you have any questions.	Please call me if you have any questions.	55094566	1473349505461	1473349505592	a	65
106059	1158429	Please call me if you have any questions.	Please call me if you have any questions.	55094598	1473349505560	1473349505644	l	76
106059	1158429	Please call me if you have any questions.	Please call me if you have any questions.	55094599	1473349505707	1473349505756	l	76
106059	1158429	Please call me if you have any questions.	Please call me if you have any questions.	55094602	1473349505736	1473349505839	 	32
106059	1158429	Please call me if you have any questions.	Please call me if you have any questions.	55094607	1473349505874	1473349505994	m	77
106059	1158429	Please call me if you have any questions.	Please call me if you have any questions.	55094614	1473349505922	1473349506042	e	69
106059	1158429	Please call me if you have any questions.	Please call me if you have any questions.	55094620	1473349506043	1473349506146	 	32
106059	1158429	Please call me if you have any questions.	Please call me if you have any questions.	55094639	1473349506167	1473349506279	i	73
106059	1158429	Please call me if you have any questions.	Please call me if you have any questions.	55094647	1473349506243	1473349506363	f	70
106059	1158429	Please call me if you have any questions.	Please call me if you have any questions.	55094656	1473349506355	1473349506439	 	32
106059	1158429	Please call me if you have any questions.	Please call me if you have any questions.	55094662	1473349506478	1473349506582	y	89
106059	1158429	Please call me if you have any questions.	Please call me if you have any questions.	55094711	1473349506566	1473349506653	o	79
106059	1158429	Please call me if you have any questions.	Please call me if you have any questions.	55094715	1473349506617	1473349506741	u	85
106059	1158429	Please call me if you have any questions.	Please call me if you have any questions.	55094718	1473349506710	1473349506813	 	32
106059	1158429	Please call me if you have any questions.	Please call me if you have any questions.	55094723	1473349506921	1473349507053	h	72
106059	1158429	Please call me if you have any questions.	Please call me if you have any questions.	55094733	1473349507049	1473349507193	a	65
106059	1158429	Please call me if you have any questions.	Please call me if you have any questions.	55094774	1473349507189	1473349507301	v	86
106059	1158429	Please call me if you have any questions.	Please call me if you have any questions.	55094779	1473349507313	1473349507425	e	69
106059	1158429	Please call me if you have any questions.	Please call me if you have any questions.	55094782	1473349507385	1473349507501	 	32
106059	1158429	Please call me if you have any questions.	Please call me if you have any questions.	55094785	1473349507477	1473349507625	a	65
106059	1158429	Please call me if you have any questions.	Please call me if you have any questions.	55094789	1473349507589	1473349507692	n	78
106059	1158429	Please call me if you have any questions.	Please call me if you have any questions.	55094834	1473349507678	1473349507737	y	89
106059	1158429	Please call me if you have any questions.	Please call me if you have any questions.	55094844	1473349507760	1473349507879	 	32
106059	1158429	Please call me if you have any questions.	Please call me if you have any questions.	55094858	1473349507914	1473349507986	w	87
106059	1158429	Please call me if you have any questions.	Please call me if you have any questions.	55094877	1473349508207	1473349508283	BKSP	8
106059	1158429	Please call me if you have any questions.	Please call me if you have any questions.	55094891	1473349508291	1473349508435	q	81
106059	1158429	Please call me if you have any questions.	Please call me if you have any questions.	55094901	1473349508427	1473349508549	u	85
106059	1158429	Please call me if you have any questions.	Please call me if you have any questions.	55094926	1473349508547	1473349508651	e	69
106059	1158429	Please call me if you have any questions.	Please call me if you have any questions.	55094930	1473349508679	1473349508831	s	83
106059	1158429	Please call me if you have any questions.	Please call me if you have any questions.	55094936	1473349508820	1473349508895	t	84
106059	1158429	Please call me if you have any questions.	Please call me if you have any questions.	55094941	1473349508929	1473349509113	i	73
106059	1158429	Please call me if you have any questions.	Please call me if you have any questions.	55094976	1473349509005	1473349509149	o	79
106059	1158429	Please call me if you have any questions.	Please call me if you have any questions.	55094978	1473349509097	1473349509184	n	78
106059	1158429	Please call me if you have any questions.	Please call me if you have any questions.	55094982	1473349509141	1473349509253	s	83
106059	1158429	Please call me if you have any questions.	Please call me if you have any questions.	55094986	1473349509325	1473349509409	,	188
106059	1158429	Please call me if you have any questions.	Please call me if you have any questions.	55094993	1473349509637	1473349509725	BKSP	8
106059	1158429	Please call me if you have any questions.	Please call me if you have any questions.	55095004	1473349509859	1473349509879	.	190
106059	1158511	He left the Jets  win over Miami in the second half on October.	He left the Hets win over Miami in the second half on Octiber.	55095435	1473349513546	1473349514091	SHIFT	16
106059	1158511	He left the Jets  win over Miami in the second half on October.	He left the Hets win over Miami in the second half on Octiber.	55095440	1473349514014	1473349514167	H	72
106059	1158511	He left the Jets  win over Miami in the second half on October.	He left the Hets win over Miami in the second half on Octiber.	55095443	1473349514111	1473349514223	e	69
106059	1158511	He left the Jets  win over Miami in the second half on October.	He left the Hets win over Miami in the second half on Octiber.	55095449	1473349514215	1473349514327	 	32
106059	1158511	He left the Jets  win over Miami in the second half on October.	He left the Hets win over Miami in the second half on Octiber.	55095452	1473349514444	1473349514560	l	76
106059	1158511	He left the Jets  win over Miami in the second half on October.	He left the Hets win over Miami in the second half on Octiber.	55095489	1473349514552	1473349514668	e	69
106059	1158511	He left the Jets  win over Miami in the second half on October.	He left the Hets win over Miami in the second half on Octiber.	55095493	1473349514692	1473349514764	f	70
106059	1158511	He left the Jets  win over Miami in the second half on October.	He left the Hets win over Miami in the second half on Octiber.	55095502	1473349514825	1473349514913	t	84
106059	1158511	He left the Jets  win over Miami in the second half on October.	He left the Hets win over Miami in the second half on Octiber.	55095512	1473349514905	1473349515009	 	32
106059	1158511	He left the Jets  win over Miami in the second half on October.	He left the Hets win over Miami in the second half on Octiber.	55095520	1473349515204	1473349515312	t	84
106059	1158511	He left the Jets  win over Miami in the second half on October.	He left the Hets win over Miami in the second half on Octiber.	55095583	1473349515288	1473349515396	h	72
106059	1158511	He left the Jets  win over Miami in the second half on October.	He left the Hets win over Miami in the second half on Octiber.	55095587	1473349515352	1473349515464	e	69
106059	1158511	He left the Jets  win over Miami in the second half on October.	He left the Hets win over Miami in the second half on Octiber.	55095593	1473349515432	1473349515516	 	32
106059	1158511	He left the Jets  win over Miami in the second half on October.	He left the Hets win over Miami in the second half on Octiber.	55095598	1473349515556	1473349515736	SHIFT	16
106059	1158511	He left the Jets  win over Miami in the second half on October.	He left the Hets win over Miami in the second half on Octiber.	55095602	1473349515700	1473349515789	H	72
106059	1158511	He left the Jets  win over Miami in the second half on October.	He left the Hets win over Miami in the second half on Octiber.	55095614	1473349515776	1473349515892	e	69
106059	1158511	He left the Jets  win over Miami in the second half on October.	He left the Hets win over Miami in the second half on Octiber.	55095623	1473349516093	1473349516200	t	84
106059	1158511	He left the Jets  win over Miami in the second half on October.	He left the Hets win over Miami in the second half on Octiber.	55095684	1473349516197	1473349516309	s	83
106059	1158511	He left the Jets  win over Miami in the second half on October.	He left the Hets win over Miami in the second half on Octiber.	55095693	1473349516350	1473349516473	 	32
106059	1158511	He left the Jets  win over Miami in the second half on October.	He left the Hets win over Miami in the second half on Octiber.	55095706	1473349516527	1473349516627	w	87
106059	1158511	He left the Jets  win over Miami in the second half on October.	He left the Hets win over Miami in the second half on Octiber.	55095712	1473349516769	1473349516908	i	73
106059	1158511	He left the Jets  win over Miami in the second half on October.	He left the Hets win over Miami in the second half on Octiber.	55095718	1473349516885	1473349517008	n	78
106059	1158511	He left the Jets  win over Miami in the second half on October.	He left the Hets win over Miami in the second half on Octiber.	55095758	1473349516973	1473349517065	 	32
106059	1158511	He left the Jets  win over Miami in the second half on October.	He left the Hets win over Miami in the second half on Octiber.	55095765	1473349517173	1473349517297	o	79
106059	1158511	He left the Jets  win over Miami in the second half on October.	He left the Hets win over Miami in the second half on Octiber.	55095773	1473349517257	1473349517357	v	86
106059	1158511	He left the Jets  win over Miami in the second half on October.	He left the Hets win over Miami in the second half on Octiber.	55095782	1473349517385	1473349517533	e	69
106059	1158511	He left the Jets  win over Miami in the second half on October.	He left the Hets win over Miami in the second half on Octiber.	55095789	1473349517513	1473349517621	r	82
106059	1158511	He left the Jets  win over Miami in the second half on October.	He left the Hets win over Miami in the second half on Octiber.	55095837	1473349517553	1473349517685	 	32
106059	1158511	He left the Jets  win over Miami in the second half on October.	He left the Hets win over Miami in the second half on Octiber.	55095843	1473349517717	1473349517888	SHIFT	16
106059	1158511	He left the Jets  win over Miami in the second half on October.	He left the Hets win over Miami in the second half on Octiber.	55095857	1473349517809	1473349517957	M	77
106059	1158511	He left the Jets  win over Miami in the second half on October.	He left the Hets win over Miami in the second half on Octiber.	55095870	1473349517937	1473349518005	i	73
106059	1158511	He left the Jets  win over Miami in the second half on October.	He left the Hets win over Miami in the second half on Octiber.	55095886	1473349518041	1473349518125	a	65
106059	1158511	He left the Jets  win over Miami in the second half on October.	He left the Hets win over Miami in the second half on Octiber.	55095901	1473349518183	1473349518335	m	77
106059	1158511	He left the Jets  win over Miami in the second half on October.	He left the Hets win over Miami in the second half on Octiber.	55095950	1473349518315	1473349518447	i	73
106059	1158511	He left the Jets  win over Miami in the second half on October.	He left the Hets win over Miami in the second half on Octiber.	55095961	1473349518468	1473349518548	 	32
106059	1158511	He left the Jets  win over Miami in the second half on October.	He left the Hets win over Miami in the second half on Octiber.	55095970	1473349518859	1473349518966	i	73
106059	1158511	He left the Jets  win over Miami in the second half on October.	He left the Hets win over Miami in the second half on Octiber.	55095978	1473349518947	1473349519058	n	78
106059	1158511	He left the Jets  win over Miami in the second half on October.	He left the Hets win over Miami in the second half on Octiber.	55095985	1473349519030	1473349519099	 	32
106059	1158511	He left the Jets  win over Miami in the second half on October.	He left the Hets win over Miami in the second half on Octiber.	55095994	1473349519122	1473349519230	t	84
106059	1158511	He left the Jets  win over Miami in the second half on October.	He left the Hets win over Miami in the second half on Octiber.	55096072	1473349519194	1473349519286	e	72
106059	1158511	He left the Jets  win over Miami in the second half on October.	He left the Hets win over Miami in the second half on Octiber.	55096080	1473349519310	1473349519394	 	32
106059	1158511	He left the Jets  win over Miami in the second half on October.	He left the Hets win over Miami in the second half on Octiber.	55096093	1473349519732	1473349519836	s	83
106059	1158511	He left the Jets  win over Miami in the second half on October.	He left the Hets win over Miami in the second half on Octiber.	55096102	1473349519885	1473349520001	e	69
106059	1158511	He left the Jets  win over Miami in the second half on October.	He left the Hets win over Miami in the second half on Octiber.	55096114	1473349520142	1473349520258	d	68
106059	1158511	He left the Jets  win over Miami in the second half on October.	He left the Hets win over Miami in the second half on Octiber.	55096122	1473349520285	1473349520381	o	79
106059	1158511	He left the Jets  win over Miami in the second half on October.	He left the Hets win over Miami in the second half on Octiber.	55096175	1473349520564	1473349520620	BKSP	8
106059	1158511	He left the Jets  win over Miami in the second half on October.	He left the Hets win over Miami in the second half on Octiber.	55096180	1473349520669	1473349520732	BKSP	8
106059	1158511	He left the Jets  win over Miami in the second half on October.	He left the Hets win over Miami in the second half on Octiber.	55096186	1473349520745	1473349520852	c	67
106059	1158511	He left the Jets  win over Miami in the second half on October.	He left the Hets win over Miami in the second half on Octiber.	55096193	1473349520865	1473349520992	o	79
106059	1158511	He left the Jets  win over Miami in the second half on October.	He left the Hets win over Miami in the second half on Octiber.	55096205	1473349520953	1473349521097	n	78
106059	1158511	He left the Jets  win over Miami in the second half on October.	He left the Hets win over Miami in the second half on Octiber.	55096217	1473349521093	1473349521176	d	68
106059	1158511	He left the Jets  win over Miami in the second half on October.	He left the Hets win over Miami in the second half on Octiber.	55096228	1473349521299	1473349521439	 	32
106059	1158511	He left the Jets  win over Miami in the second half on October.	He left the Hets win over Miami in the second half on Octiber.	55096316	1473349522201	1473349522353	a	65
106059	1158511	He left the Jets  win over Miami in the second half on October.	He left the Hets win over Miami in the second half on Octiber.	55096319	1473349522665	1473349522724	BKSP	8
106059	1158511	He left the Jets  win over Miami in the second half on October.	He left the Hets win over Miami in the second half on Octiber.	55096321	1473349522754	1473349522850	h	72
106059	1158511	He left the Jets  win over Miami in the second half on October.	He left the Hets win over Miami in the second half on Octiber.	55096325	1473349522830	1473349522977	a	65
106059	1158511	He left the Jets  win over Miami in the second half on October.	He left the Hets win over Miami in the second half on Octiber.	55096329	1473349522922	1473349523030	l	76
106059	1158511	He left the Jets  win over Miami in the second half on October.	He left the Hets win over Miami in the second half on Octiber.	55096336	1473349523128	1473349523227	f	70
106059	1158511	He left the Jets  win over Miami in the second half on October.	He left the Hets win over Miami in the second half on Octiber.	55096398	1473349523247	1473349523358	 	32
106059	1158511	He left the Jets  win over Miami in the second half on October.	He left the Hets win over Miami in the second half on Octiber.	55096405	1473349523674	1473349523789	o	79
106059	1158511	He left the Jets  win over Miami in the second half on October.	He left the Hets win over Miami in the second half on Octiber.	55096417	1473349523782	1473349523938	n	78
106059	1158511	He left the Jets  win over Miami in the second half on October.	He left the Hets win over Miami in the second half on Octiber.	55096423	1473349523882	1473349523969	 	32
106059	1158511	He left the Jets  win over Miami in the second half on October.	He left the Hets win over Miami in the second half on Octiber.	55096467	1473349524036	1473349524247	SHIFT	16
106059	1158511	He left the Jets  win over Miami in the second half on October.	He left the Hets win over Miami in the second half on Octiber.	55096434	1473349524164	1473349524243	O	79
106059	1158511	He left the Jets  win over Miami in the second half on October.	He left the Hets win over Miami in the second half on Octiber.	55096470	1473349524267	1473349524367	c	67
106059	1158511	He left the Jets  win over Miami in the second half on October.	He left the Hets win over Miami in the second half on Octiber.	55096481	1473349524452	1473349524523	t	84
106059	1158511	He left the Jets  win over Miami in the second half on October.	He left the Hets win over Miami in the second half on Octiber.	55096490	1473349524588	1473349524699	i	73
106059	1158511	He left the Jets  win over Miami in the second half on October.	He left the Hets win over Miami in the second half on Octiber.	55096500	1473349524712	1473349524788	b	66
106059	1158511	He left the Jets  win over Miami in the second half on October.	He left the Hets win over Miami in the second half on Octiber.	55096510	1473349524852	1473349524971	e	69
106059	1158511	He left the Jets  win over Miami in the second half on October.	He left the Hets win over Miami in the second half on Octiber.	55096549	1473349524928	1473349525027	r	82
106059	1158511	He left the Jets  win over Miami in the second half on October.	He left the Hets win over Miami in the second half on Octiber.	55096552	1473349525576	1473349525635	.	190
106059	1158545	Do you have that information yet?.	Do you have that information yet?	55097160	1473349531992	1473349532214	SHIFT	16
106059	1158545	Do you have that information yet?.	Do you have that information yet?	55097163	1473349532135	1473349532298	D	68
106059	1158545	Do you have that information yet?.	Do you have that information yet?	55097166	1473349532287	1473349532383	o	79
106059	1158545	Do you have that information yet?.	Do you have that information yet?	55097171	1473349532375	1473349532462	 	32
106059	1158545	Do you have that information yet?.	Do you have that information yet?	55097176	1473349532561	1473349532633	y	89
106059	1158545	Do you have that information yet?.	Do you have that information yet?	55097181	1473349532649	1473349532792	o	79
106059	1158545	Do you have that information yet?.	Do you have that information yet?	55097331	1473349533217	1473349533289	y	89
106059	1158545	Do you have that information yet?.	Do you have that information yet?	55097338	1473349533784	1473349533847	BKSP	8
106059	1158545	Do you have that information yet?.	Do you have that information yet?	55097345	1473349533973	1473349534024	u	85
106059	1158545	Do you have that information yet?.	Do you have that information yet?	55097351	1473349534069	1473349534204	 	32
106059	1158545	Do you have that information yet?.	Do you have that information yet?	55097355	1473349534279	1473349534450	h	72
106059	1158545	Do you have that information yet?.	Do you have that information yet?	55097405	1473349534407	1473349534534	a	65
106059	1158545	Do you have that information yet?.	Do you have that information yet?	55097409	1473349534861	1473349534960	v	86
106059	1158545	Do you have that information yet?.	Do you have that information yet?	55097416	1473349534990	1473349535137	e	69
106059	1158545	Do you have that information yet?.	Do you have that information yet?	55097422	1473349535078	1473349535157	 	32
106059	1158545	Do you have that information yet?.	Do you have that information yet?	55097435	1473349535150	1473349535253	t	84
106059	1158545	Do you have that information yet?.	Do you have that information yet?	55097468	1473349535178	1473349535277	h	72
106059	1158545	Do you have that information yet?.	Do you have that information yet?	55097474	1473349535290	1473349535381	a	65
106059	1158545	Do you have that information yet?.	Do you have that information yet?	55097483	1473349535346	1473349535449	t	84
106059	1158545	Do you have that information yet?.	Do you have that information yet?	55097490	1473349535430	1473349535533	 	32
106059	1158545	Do you have that information yet?.	Do you have that information yet?	55097499	1473349535595	1473349535730	i	73
106059	1158545	Do you have that information yet?.	Do you have that information yet?	55097545	1473349535675	1473349535830	n	78
106059	1158545	Do you have that information yet?.	Do you have that information yet?	55097549	1473349535843	1473349535938	f	70
106059	1158545	Do you have that information yet?.	Do you have that information yet?	55097556	1473349535970	1473349536097	o	79
106059	1158545	Do you have that information yet?.	Do you have that information yet?	55097560	1473349536050	1473349536137	r	82
106059	1158545	Do you have that information yet?.	Do you have that information yet?	55097563	1473349536190	1473349536301	m	77
106059	1158545	Do you have that information yet?.	Do you have that information yet?	55097579	1473349536274	1473349536381	a	65
106059	1158545	Do you have that information yet?.	Do you have that information yet?	55097582	1473349536350	1473349536441	t	84
106059	1158545	Do you have that information yet?.	Do you have that information yet?	55097585	1473349536476	1473349536611	i	73
106059	1158545	Do you have that information yet?.	Do you have that information yet?	55097589	1473349536552	1473349536715	o	79
106059	1158545	Do you have that information yet?.	Do you have that information yet?	55097674	1473349536660	1473349536763	 	78
106059	1158545	Do you have that information yet?.	Do you have that information yet?	55097679	1473349536931	1473349537034	y	89
106059	1158545	Do you have that information yet?.	Do you have that information yet?	55097685	1473349537051	1473349537175	e	69
106059	1158545	Do you have that information yet?.	Do you have that information yet?	55097689	1473349537155	1473349537254	t	84
106059	1158545	Do you have that information yet?.	Do you have that information yet?	55097698	1473349537372	1473349537724	SHIFT	16
106059	1158545	Do you have that information yet?.	Do you have that information yet?	55097692	1473349537585	1473349537657	?	191
106059	1158573	John, can you give Konni a call?	JOhn, can you give KNni a call>	55098103	1473349541402	1473349542078	SHIFT	16
106059	1158573	John, can you give Konni a call?	JOhn, can you give KNni a call>	55098100	1473349541935	1473349542014	J	74
106059	1158573	John, can you give Konni a call?	JOhn, can you give KNni a call>	55098110	1473349542019	1473349542146	O	79
106059	1158573	John, can you give Konni a call?	JOhn, can you give KNni a call>	55098115	1473349542123	1473349542210	h	72
106059	1158573	John, can you give Konni a call?	JOhn, can you give KNni a call>	55098120	1473349542268	1473349542435	n	78
106059	1158573	John, can you give Konni a call?	JOhn, can you give KNni a call>	55098126	1473349542666	1473349542796	,	188
106059	1158573	John, can you give Konni a call?	JOhn, can you give KNni a call>	55098161	1473349542789	1473349542869	 	32
106059	1158573	John, can you give Konni a call?	JOhn, can you give KNni a call>	55098168	1473349542956	1473349543065	c	67
106059	1158573	John, can you give Konni a call?	JOhn, can you give KNni a call>	55098172	1473349543064	1473349543191	a	65
106059	1158573	John, can you give Konni a call?	JOhn, can you give KNni a call>	55098183	1473349543116	1473349543247	n	78
106059	1158573	John, can you give Konni a call?	JOhn, can you give KNni a call>	55098196	1473349543236	1473349543303	 	32
106059	1158573	John, can you give Konni a call?	JOhn, can you give KNni a call>	55098204	1473349543377	1473349543484	y	89
106059	1158573	John, can you give Konni a call?	JOhn, can you give KNni a call>	55098259	1473349543465	1473349543544	o	79
106059	1158573	John, can you give Konni a call?	JOhn, can you give KNni a call>	55098261	1473349543513	1473349543648	u	85
106059	1158573	John, can you give Konni a call?	JOhn, can you give KNni a call>	55098264	1473349543625	1473349543696	 	32
106059	1158573	John, can you give Konni a call?	JOhn, can you give KNni a call>	55098268	1473349543946	1473349544021	f	70
106059	1158573	John, can you give Konni a call?	JOhn, can you give KNni a call>	55098274	1473349544232	1473349544295	BKSP	8
106059	1158573	John, can you give Konni a call?	JOhn, can you give KNni a call>	55098280	1473349544312	1473349544403	g	71
106059	1158573	John, can you give Konni a call?	JOhn, can you give KNni a call>	55098291	1473349544458	1473349544624	i	73
106059	1158573	John, can you give Konni a call?	JOhn, can you give KNni a call>	55098434	1473349544549	1473349544672	v	86
106059	1158573	John, can you give Konni a call?	JOhn, can you give KNni a call>	55098440	1473349544649	1473349544772	e	69
106059	1158573	John, can you give Konni a call?	JOhn, can you give KNni a call>	55098445	1473349544761	1473349544876	 	32
106059	1158573	John, can you give Konni a call?	JOhn, can you give KNni a call>	55098453	1473349545117	1473349545240	m	77
106059	1158573	John, can you give Konni a call?	JOhn, can you give KNni a call>	55098460	1473349545391	1473349545459	BKSP	8
106059	1158573	John, can you give Konni a call?	JOhn, can you give KNni a call>	55098474	1473349545909	1473349546520	SHIFT	16
106059	1158573	John, can you give Konni a call?	JOhn, can you give KNni a call>	55098468	1473349546337	1473349546456	K	75
106059	1158573	John, can you give Konni a call?	JOhn, can you give KNni a call>	55098559	1473349546497	1473349546656	N	78
106059	1158573	John, can you give Konni a call?	JOhn, can you give KNni a call>	55098561	1473349546757	1473349546877	n	78
106059	1158573	John, can you give Konni a call?	JOhn, can you give KNni a call>	55098564	1473349546984	1473349547095	i	73
106059	1158573	John, can you give Konni a call?	JOhn, can you give KNni a call>	55098566	1473349547287	1473349547394	 	32
106059	1158573	John, can you give Konni a call?	JOhn, can you give KNni a call>	55098568	1473349547493	1473349547628	a	65
106059	1158573	John, can you give Konni a call?	JOhn, can you give KNni a call>	55098570	1473349547637	1473349547764	 	32
106059	1158573	John, can you give Konni a call?	JOhn, can you give KNni a call>	55098593	1473349547849	1473349547956	c	67
106059	1158573	John, can you give Konni a call?	JOhn, can you give KNni a call>	55098601	1473349547969	1473349548057	a	65
106059	1158573	John, can you give Konni a call?	JOhn, can you give KNni a call>	55098609	1473349548025	1473349548129	l	76
106059	1158573	John, can you give Konni a call?	JOhn, can you give KNni a call>	55098613	1473349548181	1473349548240	l	76
106059	1158573	John, can you give Konni a call?	JOhn, can you give KNni a call>	55098619	1473349548516	1473349548563	>	190
106059	1158588	I'm not planning on doing anything this week.	I'm not planning on ding antthing this week.\\	55099149	1473349551725	1473349551868	I	73
106059	1158588	I'm not planning on doing anything this week.	I'm not planning on ding antthing this week.\\	55099162	1473349551901	1473349551960	m	77
106059	1158588	I'm not planning on doing anything this week.	I'm not planning on ding antthing this week.\\	55099170	1473349552377	1473349552421	BKSP	8
106059	1158588	I'm not planning on doing anything this week.	I'm not planning on ding antthing this week.\\	55099183	1473349552532	1473349552564	BKSP	8
106059	1158588	I'm not planning on doing anything this week.	I'm not planning on ding antthing this week.\\	55099204	1473349553110	1473349553502	SHIFT	16
106059	1158588	I'm not planning on doing anything this week.	I'm not planning on ding antthing this week.\\	55099196	1473349553347	1473349553446	I	73
106059	1158588	I'm not planning on doing anything this week.	I'm not planning on ding antthing this week.\\	55099215	1473349554186	1473349554242	'	222
106059	1158588	I'm not planning on doing anything this week.	I'm not planning on ding antthing this week.\\	55099228	1473349554392	1473349554480	m	77
106059	1158588	I'm not planning on doing anything this week.	I'm not planning on ding antthing this week.\\	55099258	1473349554505	1473349554601	 	32
106059	1158588	I'm not planning on doing anything this week.	I'm not planning on ding antthing this week.\\	55099260	1473349554742	1473349554934	n	78
106059	1158588	I'm not planning on doing anything this week.	I'm not planning on ding antthing this week.\\	55099263	1473349554886	1473349555034	o	79
106059	1158588	I'm not planning on doing anything this week.	I'm not planning on ding antthing this week.\\	55099267	1473349555050	1473349555150	t	84
106059	1158588	I'm not planning on doing anything this week.	I'm not planning on ding antthing this week.\\	55099273	1473349555166	1473349555294	 	32
106059	1158588	I'm not planning on doing anything this week.	I'm not planning on ding antthing this week.\\	55099371	1473349555766	1473349555898	p	80
106059	1158588	I'm not planning on doing anything this week.	I'm not planning on ding antthing this week.\\	55099378	1473349555998	1473349556137	l	76
106059	1158588	I'm not planning on doing anything this week.	I'm not planning on ding antthing this week.\\	55099383	1473349556145	1473349556262	a	65
106059	1158588	I'm not planning on doing anything this week.	I'm not planning on ding antthing this week.\\	55099385	1473349556337	1473349556449	n	78
106059	1158588	I'm not planning on doing anything this week.	I'm not planning on ding antthing this week.\\	55099388	1473349556511	1473349556623	n	78
106059	1158588	I'm not planning on doing anything this week.	I'm not planning on ding antthing this week.\\	55099425	1473349556639	1473349556766	i	73
106059	1158588	I'm not planning on doing anything this week.	I'm not planning on ding antthing this week.\\	55099431	1473349556743	1473349556883	n	78
106059	1158588	I'm not planning on doing anything this week.	I'm not planning on ding antthing this week.\\	55099436	1473349556839	1473349556951	g	71
106059	1158588	I'm not planning on doing anything this week.	I'm not planning on ding antthing this week.\\	55099442	1473349556952	1473349557039	 	32
106059	1158588	I'm not planning on doing anything this week.	I'm not planning on ding antthing this week.\\	55099449	1473349557062	1473349557170	o	79
106059	1158588	I'm not planning on doing anything this week.	I'm not planning on ding antthing this week.\\	55099494	1473349557130	1473349557290	n	78
106059	1158588	I'm not planning on doing anything this week.	I'm not planning on ding antthing this week.\\	55099496	1473349557230	1473349557306	 	32
106059	1158588	I'm not planning on doing anything this week.	I'm not planning on ding antthing this week.\\	55099501	1473349557422	1473349557546	d	68
106059	1158588	I'm not planning on doing anything this week.	I'm not planning on ding antthing this week.\\	55099507	1473349557663	1473349557847	i	73
106059	1158588	I'm not planning on doing anything this week.	I'm not planning on ding antthing this week.\\	55099511	1473349557807	1473349558007	n	78
106059	1158588	I'm not planning on doing anything this week.	I'm not planning on ding antthing this week.\\	55099580	1473349557967	1473349558059	g	71
106059	1158588	I'm not planning on doing anything this week.	I'm not planning on ding antthing this week.\\	55099582	1473349558055	1473349558167	 	32
106059	1158588	I'm not planning on doing anything this week.	I'm not planning on ding antthing this week.\\	55099586	1473349558409	1473349558541	a	65
106059	1158588	I'm not planning on doing anything this week.	I'm not planning on ding antthing this week.\\	55099593	1473349558505	1473349558645	n	78
106059	1158588	I'm not planning on doing anything this week.	I'm not planning on ding antthing this week.\\	55099596	1473349558662	1473349558718	t	84
106059	1158588	I'm not planning on doing anything this week.	I'm not planning on ding antthing this week.\\	55099604	1473349558830	1473349558934	t	84
106059	1158588	I'm not planning on doing anything this week.	I'm not planning on ding antthing this week.\\	55099624	1473349558942	1473349559074	h	72
106059	1158588	I'm not planning on doing anything this week.	I'm not planning on ding antthing this week.\\	55099627	1473349559082	1473349559206	i	73
106059	1158588	I'm not planning on doing anything this week.	I'm not planning on ding antthing this week.\\	55099631	1473349559194	1473349559342	n	78
106059	1158588	I'm not planning on doing anything this week.	I'm not planning on ding antthing this week.\\	55099629	1473349559259	1473349559342	g	71
106059	1158588	I'm not planning on doing anything this week.	I'm not planning on ding antthing this week.\\	55099633	1473349559382	1473349559490	 	32
106059	1158588	I'm not planning on doing anything this week.	I'm not planning on ding antthing this week.\\	55099651	1473349559562	1473349559680	t	84
106059	1158588	I'm not planning on doing anything this week.	I'm not planning on ding antthing this week.\\	55099657	1473349559628	1473349559748	h	72
106059	1158588	I'm not planning on doing anything this week.	I'm not planning on ding antthing this week.\\	55099664	1473349559724	1473349559847	i	73
106059	1158588	I'm not planning on doing anything this week.	I'm not planning on ding antthing this week.\\	55099669	1473349559804	1473349559919	s	83
106059	1158588	I'm not planning on doing anything this week.	I'm not planning on ding antthing this week.\\	55099747	1473349559908	1473349560019	 	32
106059	1158588	I'm not planning on doing anything this week.	I'm not planning on ding antthing this week.\\	55099755	1473349560027	1473349560135	w	87
106059	1158588	I'm not planning on doing anything this week.	I'm not planning on ding antthing this week.\\	55099761	1473349560152	1473349560228	e	69
106059	1158588	I'm not planning on doing anything this week.	I'm not planning on ding antthing this week.\\	55099767	1473349560328	1473349560459	k	75
106059	1158588	I'm not planning on doing anything this week.	I'm not planning on ding antthing this week.\\	55099774	1473349560639	1473349560703	BKSP	8
106059	1158588	I'm not planning on doing anything this week.	I'm not planning on ding antthing this week.\\	55099780	1473349560742	1473349560858	e	69
106059	1158588	I'm not planning on doing anything this week.	I'm not planning on ding antthing this week.\\	55099784	1473349560870	1473349560982	k	75
106059	1158588	I'm not planning on doing anything this week.	I'm not planning on ding antthing this week.\\	55099952	1473349561371	1473349561470	.	190
106059	1158588	I'm not planning on doing anything this week.	I'm not planning on ding antthing this week.\\	55099957	1473349561565	1473349561625	\	220
106059	1158588	I'm not planning on doing anything this week.	I'm not planning on ding antthing this week.\\	55099963	1473349562012	1473349562080	BKSP	8
106059	1158588	I'm not planning on doing anything this week.	I'm not planning on ding antthing this week.\\	55099970	1473349562209	1473349562253	\	220
106059	1158588	I'm not planning on doing anything this week.	I'm not planning on ding antthing this week.\\	55099976	1473349562499	1473349562528	\	220
106059	1158617	The night promised to be long.	THe night promised to be ling.	55100350	1473349566618	1473349566798	SHIFT	16
106059	1158617	The night promised to be long.	THe night promised to be ling.	55100356	1473349566754	1473349566866	T	84
106059	1158617	The night promised to be long.	THe night promised to be ling.	55100362	1473349566786	1473349566894	H	72
106059	1158617	The night promised to be long.	THe night promised to be ling.	55100367	1473349566886	1473349567010	e	69
106059	1158617	The night promised to be long.	THe night promised to be ling.	55100373	1473349566930	1473349567034	 	32
106059	1158617	The night promised to be long.	THe night promised to be ling.	55100379	1473349567088	1473349567236	n	78
106059	1158617	The night promised to be long.	THe night promised to be ling.	55100462	1473349567244	1473349567332	i	73
106059	1158617	The night promised to be long.	THe night promised to be ling.	55100470	1473349568126	1473349568198	g	71
106059	1158617	The night promised to be long.	THe night promised to be ling.	55100477	1473349568225	1473349568333	h	72
106059	1158617	The night promised to be long.	THe night promised to be ling.	55100482	1473349568261	1473349568349	t	84
106059	1158617	The night promised to be long.	THe night promised to be ling.	55100487	1473349568370	1473349568437	 	32
106059	1158617	The night promised to be long.	THe night promised to be ling.	55100563	1473349568792	1473349568900	p	80
106059	1158617	The night promised to be long.	THe night promised to be ling.	55100566	1473349568937	1473349569037	r	82
106059	1158617	The night promised to be long.	THe night promised to be ling.	55100577	1473349569092	1473349569220	o	79
106059	1158617	The night promised to be long.	THe night promised to be ling.	55100581	1473349569208	1473349569372	m	77
106059	1158617	The night promised to be long.	THe night promised to be ling.	55100610	1473349569356	1473349569516	i	73
106059	1158617	The night promised to be long.	THe night promised to be ling.	55100615	1473349569436	1473349569556	s	83
106059	1158617	The night promised to be long.	THe night promised to be ling.	55100622	1473349569584	1473349569687	e	69
106059	1158617	The night promised to be long.	THe night promised to be ling.	55100629	1473349569729	1473349569841	d	68
106059	1158617	The night promised to be long.	THe night promised to be ling.	55100635	1473349569813	1473349569897	 	32
106059	1158617	The night promised to be long.	THe night promised to be ling.	55100640	1473349569901	1473349570008	t	84
106059	1158617	The night promised to be long.	THe night promised to be ling.	55100684	1473349569980	1473349570085	o	79
106059	1158617	The night promised to be long.	THe night promised to be ling.	55100690	1473349570016	1473349570152	 	32
106059	1158617	The night promised to be long.	THe night promised to be ling.	55100697	1473349570202	1473349570345	b	66
106059	1158617	The night promised to be long.	THe night promised to be ling.	55100701	1473349570278	1473349570406	e	69
106059	1158617	The night promised to be long.	THe night promised to be ling.	55100709	1473349570402	1473349570525	 	32
106059	1158617	The night promised to be long.	THe night promised to be ling.	55100714	1473349570561	1473349570696	l	76
106059	1158617	The night promised to be long.	THe night promised to be ling.	55100764	1473349570732	1473349570868	i	73
106059	1158617	The night promised to be long.	THe night promised to be ling.	55100768	1473349570819	1473349570963	n	78
106059	1158617	The night promised to be long.	THe night promised to be ling.	55100770	1473349570924	1473349571020	g	71
106059	1158617	The night promised to be long.	THe night promised to be ling.	55100773	1473349571154	1473349571241	.	190
106059	1158617	The night promised to be long.	THe night promised to be ling.	55100774	1473349571419	1473349571486	\	220
106059	1158617	The night promised to be long.	THe night promised to be ling.	55100801	1473349571857	1473349571929	BKSP	8
106059	1158634	How soon do you need it?	Hiw soon do you need it?	55101057	1473349574083	1473349574254	SHIFT	16
106059	1158634	How soon do you need it?	Hiw soon do you need it?	55101064	1473349574179	1473349574278	H	72
106059	1158634	How soon do you need it?	Hiw soon do you need it?	55101068	1473349574283	1473349574450	i	73
106059	1158634	How soon do you need it?	Hiw soon do you need it?	55101072	1473349574431	1473349574515	w	87
106059	1158634	How soon do you need it?	Hiw soon do you need it?	55101076	1473349574595	1473349574682	 	32
106059	1158634	How soon do you need it?	Hiw soon do you need it?	55101081	1473349575095	1473349575239	s	83
106059	1158634	How soon do you need it?	Hiw soon do you need it?	55101120	1473349575199	1473349575346	o	79
106059	1158634	How soon do you need it?	Hiw soon do you need it?	55101130	1473349575436	1473349575555	o	79
106059	1158634	How soon do you need it?	Hiw soon do you need it?	55101137	1473349575568	1473349575703	n	78
106059	1158634	How soon do you need it?	Hiw soon do you need it?	55101145	1473349575676	1473349575767	 	32
106059	1158634	How soon do you need it?	Hiw soon do you need it?	55101153	1473349575848	1473349575968	d	68
106059	1158634	How soon do you need it?	Hiw soon do you need it?	55101159	1473349575980	1473349576064	o	79
106059	1158634	How soon do you need it?	Hiw soon do you need it?	55101266	1473349576081	1473349576140	 	32
106059	1158634	How soon do you need it?	Hiw soon do you need it?	55101271	1473349576232	1473349576336	y	89
106059	1158634	How soon do you need it?	Hiw soon do you need it?	55101276	1473349576388	1473349576552	u	85
106059	1158634	How soon do you need it?	Hiw soon do you need it?	55101279	1473349576548	1473349576651	 	32
106059	1158634	How soon do you need it?	Hiw soon do you need it?	55101282	1473349576974	1473349577010	BKSP	8
106059	1158634	How soon do you need it?	Hiw soon do you need it?	55101286	1473349577069	1473349577129	BKSP	8
106059	1158634	How soon do you need it?	Hiw soon do you need it?	55101292	1473349577540	1473349577711	o	79
106059	1158634	How soon do you need it?	Hiw soon do you need it?	55101336	1473349577668	1473349577796	u	85
106059	1158634	How soon do you need it?	Hiw soon do you need it?	55101342	1473349577776	1473349577847	 	32
106059	1158634	How soon do you need it?	Hiw soon do you need it?	55101348	1473349578154	1473349578285	n	78
106059	1158634	How soon do you need it?	Hiw soon do you need it?	55101357	1473349578250	1473349578338	e	69
106059	1158634	How soon do you need it?	Hiw soon do you need it?	55101361	1473349578415	1473349578498	d	68
106059	1158634	How soon do you need it?	Hiw soon do you need it?	55101369	1473349578542	1473349578673	 	32
106059	1158634	How soon do you need it?	Hiw soon do you need it?	55101478	1473349579068	1473349579132	BKSP	8
106059	1158634	How soon do you need it?	Hiw soon do you need it?	55101481	1473349579185	1473349579277	BKSP	8
106059	1158634	How soon do you need it?	Hiw soon do you need it?	55101487	1473349579490	1473349579578	d	68
106059	1158634	How soon do you need it?	Hiw soon do you need it?	55101493	1473349579803	1473349579890	BKSP	8
106059	1158634	How soon do you need it?	Hiw soon do you need it?	55101499	1473349579910	1473349579997	e	69
106059	1158634	How soon do you need it?	Hiw soon do you need it?	55101507	1473349580056	1473349580139	d	68
106059	1158634	How soon do you need it?	Hiw soon do you need it?	55101514	1473349580132	1473349580279	 	32
106059	1158634	How soon do you need it?	Hiw soon do you need it?	55101554	1473349580248	1473349580375	i	73
106059	1158634	How soon do you need it?	Hiw soon do you need it?	55101560	1473349580328	1473349580408	t	84
106059	1158634	How soon do you need it?	Hiw soon do you need it?	55101576	1473349580665	1473349580993	SHIFT	16
106059	1158634	How soon do you need it?	Hiw soon do you need it?	55101569	1473349580874	1473349580969	?	191
106059	1158649	Check with Vince Strohmeyer.	Check with Vince Strohmeyer.	55101795	1473349582998	1473349583230	SHIFT	16
106059	1158649	Check with Vince Strohmeyer.	Check with Vince Strohmeyer.	55101800	1473349583171	1473349583278	C	67
106059	1158649	Check with Vince Strohmeyer.	Check with Vince Strohmeyer.	55101804	1473349583292	1473349583395	h	72
106059	1158649	Check with Vince Strohmeyer.	Check with Vince Strohmeyer.	55101810	1473349583359	1473349583462	e	69
106059	1158649	Check with Vince Strohmeyer.	Check with Vince Strohmeyer.	55101817	1473349583649	1473349583748	k	75
106059	1158649	Check with Vince Strohmeyer.	Check with Vince Strohmeyer.	55101821	1473349583749	1473349583845	 	32
106059	1158649	Check with Vince Strohmeyer.	Check with Vince Strohmeyer.	55101930	1473349584241	1473349584280	BKSP	8
106059	1158649	Check with Vince Strohmeyer.	Check with Vince Strohmeyer.	55101931	1473349584356	1473349584480	BKSP	8
106059	1158649	Check with Vince Strohmeyer.	Check with Vince Strohmeyer.	55101935	1473349584638	1473349584776	c	67
106059	1158649	Check with Vince Strohmeyer.	Check with Vince Strohmeyer.	55101937	1473349584773	1473349584900	k	75
106059	1158649	Check with Vince Strohmeyer.	Check with Vince Strohmeyer.	55101942	1473349584877	1473349584965	 	32
106059	1158649	Check with Vince Strohmeyer.	Check with Vince Strohmeyer.	55101946	1473349585116	1473349585224	w	87
106059	1158649	Check with Vince Strohmeyer.	Check with Vince Strohmeyer.	55101948	1473349585277	1473349585416	i	73
106059	1158649	Check with Vince Strohmeyer.	Check with Vince Strohmeyer.	55101992	1473349585415	1473349585537	h	72
106059	1158649	Check with Vince Strohmeyer.	Check with Vince Strohmeyer.	55101994	1473349585441	1473349585616	t	84
106059	1158649	Check with Vince Strohmeyer.	Check with Vince Strohmeyer.	55101998	1473349585601	1473349585725	 	32
106059	1158649	Check with Vince Strohmeyer.	Check with Vince Strohmeyer.	55102002	1473349586104	1473349586152	BKSP	8
106059	1158649	Check with Vince Strohmeyer.	Check with Vince Strohmeyer.	55102007	1473349586205	1473349586248	BKSP	8
106059	1158649	Check with Vince Strohmeyer.	Check with Vince Strohmeyer.	55102011	1473349586288	1473349586352	BKSP	8
106059	1158649	Check with Vince Strohmeyer.	Check with Vince Strohmeyer.	55102016	1473349586460	1473349586556	t	84
106059	1158649	Check with Vince Strohmeyer.	Check with Vince Strohmeyer.	55102025	1473349586516	1473349586612	h	72
106059	1158649	Check with Vince Strohmeyer.	Check with Vince Strohmeyer.	55102033	1473349586620	1473349586703	 	32
106059	1158649	Check with Vince Strohmeyer.	Check with Vince Strohmeyer.	55102062	1473349586814	1473349587150	SHIFT	16
106059	1158649	Check with Vince Strohmeyer.	Check with Vince Strohmeyer.	55102066	1473349587050	1473349587163	V	86
106059	1158649	Check with Vince Strohmeyer.	Check with Vince Strohmeyer.	55102071	1473349587198	1473349587307	i	73
106059	1158649	Check with Vince Strohmeyer.	Check with Vince Strohmeyer.	55102075	1473349587267	1473349587423	n	78
106059	1158649	Check with Vince Strohmeyer.	Check with Vince Strohmeyer.	55102078	1473349587365	1473349587475	c	67
106059	1158649	Check with Vince Strohmeyer.	Check with Vince Strohmeyer.	55102149	1473349587449	1473349587581	e	69
106059	1158649	Check with Vince Strohmeyer.	Check with Vince Strohmeyer.	55102152	1473349587599	1473349587738	 	32
106059	1158649	Check with Vince Strohmeyer.	Check with Vince Strohmeyer.	55102156	1473349588000	1473349588248	SHIFT	16
106059	1158649	Check with Vince Strohmeyer.	Check with Vince Strohmeyer.	55102160	1473349588129	1473349588300	S	83
106059	1158649	Check with Vince Strohmeyer.	Check with Vince Strohmeyer.	55102165	1473349588393	1473349588497	t	84
106059	1158649	Check with Vince Strohmeyer.	Check with Vince Strohmeyer.	55102170	1473349588614	1473349588701	r	82
106059	1158649	Check with Vince Strohmeyer.	Check with Vince Strohmeyer.	55102176	1473349588798	1473349588961	o	79
106059	1158649	Check with Vince Strohmeyer.	Check with Vince Strohmeyer.	55102289	1473349589382	1473349589481	h	72
106059	1158649	Check with Vince Strohmeyer.	Check with Vince Strohmeyer.	55102292	1473349589969	1473349590096	n	78
106059	1158649	Check with Vince Strohmeyer.	Check with Vince Strohmeyer.	55102297	1473349590740	1473349590813	BKSP	8
106059	1158649	Check with Vince Strohmeyer.	Check with Vince Strohmeyer.	55102302	1473349590933	1473349591065	m	77
106059	1158649	Check with Vince Strohmeyer.	Check with Vince Strohmeyer.	55102309	1473349591046	1473349591149	e	69
106059	1158649	Check with Vince Strohmeyer.	Check with Vince Strohmeyer.	55102315	1473349591196	1473349591311	y	89
106059	1158649	Check with Vince Strohmeyer.	Check with Vince Strohmeyer.	55102356	1473349591288	1473349591395	e	69
106059	1158649	Check with Vince Strohmeyer.	Check with Vince Strohmeyer.	55102359	1473349591360	1473349591439	r	82
106059	1158649	Check with Vince Strohmeyer.	Check with Vince Strohmeyer.	55102361	1473349592030	1473349592089	.	190
