PARTICIPANT_ID	TEST_SECTION_ID	SENTENCE	USER_INPUT	KEYSTROKE_ID	PRESS_TIME	RELEASE_TIME	LETTER	KEYCODE
109689	1197433	He disputed reports that Wheatley would be out four weeks.	He disputed reports the Whetley would be out four weeks.	56939613	1473377817213	1473377818126	SHIFT	16
109689	1197433	He disputed reports that Wheatley would be out four weeks.	He disputed reports the Whetley would be out four weeks.	56939615	1473377818620	1473377819396	SHIFT	16
109689	1197433	He disputed reports that Wheatley would be out four weeks.	He disputed reports the Whetley would be out four weeks.	56939618	1473377819347	1473377819472	NA	72
109689	1197433	He disputed reports that Wheatley would be out four weeks.	He disputed reports the Whetley would be out four weeks.	56939621	1473377819489	1473377819674	NA	69
109689	1197433	He disputed reports that Wheatley would be out four weeks.	He disputed reports the Whetley would be out four weeks.	56939626	1473377819621	1473377819826	NA	32
109689	1197433	He disputed reports that Wheatley would be out four weeks.	He disputed reports the Whetley would be out four weeks.	56939629	1473377819792	1473377819935	NA	68
109689	1197433	He disputed reports that Wheatley would be out four weeks.	He disputed reports the Whetley would be out four weeks.	56939636	1473377819919	1473377820063	NA	73
109689	1197433	He disputed reports that Wheatley would be out four weeks.	He disputed reports the Whetley would be out four weeks.	56939638	1473377820024	1473377820124	NA	83
109689	1197433	He disputed reports that Wheatley would be out four weeks.	He disputed reports the Whetley would be out four weeks.	56939644	1473377820106	1473377820280	NA	80
109689	1197433	He disputed reports that Wheatley would be out four weeks.	He disputed reports the Whetley would be out four weeks.	56939650	1473377820253	1473377820391	NA	85
109689	1197433	He disputed reports that Wheatley would be out four weeks.	He disputed reports the Whetley would be out four weeks.	56939655	1473377820368	1473377820512	NA	84
109689	1197433	He disputed reports that Wheatley would be out four weeks.	He disputed reports the Whetley would be out four weeks.	56939674	1473377820464	1473377820603	NA	69
109689	1197433	He disputed reports that Wheatley would be out four weeks.	He disputed reports the Whetley would be out four weeks.	56939676	1473377820634	1473377820763	NA	68
109689	1197433	He disputed reports that Wheatley would be out four weeks.	He disputed reports the Whetley would be out four weeks.	56939679	1473377820696	1473377820894	NA	32
109689	1197433	He disputed reports that Wheatley would be out four weeks.	He disputed reports the Whetley would be out four weeks.	56939683	1473377820831	1473377821022	NA	82
109689	1197433	He disputed reports that Wheatley would be out four weeks.	He disputed reports the Whetley would be out four weeks.	56939706	1473377820935	1473377821078	NA	69
109689	1197433	He disputed reports that Wheatley would be out four weeks.	He disputed reports the Whetley would be out four weeks.	56939708	1473377820997	1473377821168	NA	80
109689	1197433	He disputed reports that Wheatley would be out four weeks.	He disputed reports the Whetley would be out four weeks.	56939711	1473377821118	1473377821281	NA	79
109689	1197433	He disputed reports that Wheatley would be out four weeks.	He disputed reports the Whetley would be out four weeks.	56939714	1473377821228	1473377821358	NA	82
109689	1197433	He disputed reports that Wheatley would be out four weeks.	He disputed reports the Whetley would be out four weeks.	56939717	1473377821394	1473377821745	NA	84
109689	1197433	He disputed reports that Wheatley would be out four weeks.	He disputed reports the Whetley would be out four weeks.	56939720	1473377821741	1473377821749	NA	83
109689	1197433	He disputed reports that Wheatley would be out four weeks.	He disputed reports the Whetley would be out four weeks.	56939738	1473377821780	1473377821927	NA	84
109689	1197433	He disputed reports that Wheatley would be out four weeks.	He disputed reports the Whetley would be out four weeks.	56939741	1473377821862	1473377822017	NA	72
109689	1197433	He disputed reports that Wheatley would be out four weeks.	He disputed reports the Whetley would be out four weeks.	56939745	1473377821940	1473377822125	NA	69
109689	1197433	He disputed reports that Wheatley would be out four weeks.	He disputed reports the Whetley would be out four weeks.	56939749	1473377822052	1473377822234	NA	32
109689	1197433	He disputed reports that Wheatley would be out four weeks.	He disputed reports the Whetley would be out four weeks.	56939753	1473377822169	1473377822371	SHIFT	16
109689	1197433	He disputed reports that Wheatley would be out four weeks.	He disputed reports the Whetley would be out four weeks.	56939801	1473377822287	1473377822428	NA	87
109689	1197433	He disputed reports that Wheatley would be out four weeks.	He disputed reports the Whetley would be out four weeks.	56939805	1473377822487	1473377822603	NA	72
109689	1197433	He disputed reports that Wheatley would be out four weeks.	He disputed reports the Whetley would be out four weeks.	56939808	1473377822608	1473377822777	NA	69
109689	1197433	He disputed reports that Wheatley would be out four weeks.	He disputed reports the Whetley would be out four weeks.	56939811	1473377822790	1473377822992	NA	84
109689	1197433	He disputed reports that Wheatley would be out four weeks.	He disputed reports the Whetley would be out four weeks.	56939814	1473377822995	1473377823226	NA	65
109689	1197433	He disputed reports that Wheatley would be out four weeks.	He disputed reports the Whetley would be out four weeks.	56939833	1473377823207	1473377823347	NA	84
109689	1197433	He disputed reports that Wheatley would be out four weeks.	He disputed reports the Whetley would be out four weeks.	56939834	1473377823679	1473377823779		8
109689	1197433	He disputed reports that Wheatley would be out four weeks.	He disputed reports the Whetley would be out four weeks.	56939836	1473377824036	1473377824128		8
109689	1197433	He disputed reports that Wheatley would be out four weeks.	He disputed reports the Whetley would be out four weeks.	56939838	1473377824312	1473377824484	NA	76
109689	1197433	He disputed reports that Wheatley would be out four weeks.	He disputed reports the Whetley would be out four weeks.	56939845	1473377824480	1473377824629	NA	69
109689	1197433	He disputed reports that Wheatley would be out four weeks.	He disputed reports the Whetley would be out four weeks.	56939849	1473377824659	1473377824791	NA	89
109689	1197433	He disputed reports that Wheatley would be out four weeks.	He disputed reports the Whetley would be out four weeks.	56939864	1473377824735	1473377824918	NA	32
109689	1197433	He disputed reports that Wheatley would be out four weeks.	He disputed reports the Whetley would be out four weeks.	56939865	1473377824879	1473377825033	NA	87
109689	1197433	He disputed reports that Wheatley would be out four weeks.	He disputed reports the Whetley would be out four weeks.	56939866	1473377825027	1473377825176	NA	79
109689	1197433	He disputed reports that Wheatley would be out four weeks.	He disputed reports the Whetley would be out four weeks.	56939867	1473377825139	1473377825249	NA	85
109689	1197433	He disputed reports that Wheatley would be out four weeks.	He disputed reports the Whetley would be out four weeks.	56939868	1473377825246	1473377825402	NA	76
109689	1197433	He disputed reports that Wheatley would be out four weeks.	He disputed reports the Whetley would be out four weeks.	56939869	1473377825326	1473377825448	NA	68
109689	1197433	He disputed reports that Wheatley would be out four weeks.	He disputed reports the Whetley would be out four weeks.	56939870	1473377825373	1473377825551	NA	32
109689	1197433	He disputed reports that Wheatley would be out four weeks.	He disputed reports the Whetley would be out four weeks.	56939871	1473377825485	1473377825617	NA	66
109689	1197433	He disputed reports that Wheatley would be out four weeks.	He disputed reports the Whetley would be out four weeks.	56939872	1473377825566	1473377825712	NA	69
109689	1197433	He disputed reports that Wheatley would be out four weeks.	He disputed reports the Whetley would be out four weeks.	56939873	1473377825650	1473377825846	NA	32
109689	1197433	He disputed reports that Wheatley would be out four weeks.	He disputed reports the Whetley would be out four weeks.	56939883	1473377825729	1473377825877	NA	79
109689	1197433	He disputed reports that Wheatley would be out four weeks.	He disputed reports the Whetley would be out four weeks.	56939886	1473377825842	1473377825960	NA	85
109689	1197433	He disputed reports that Wheatley would be out four weeks.	He disputed reports the Whetley would be out four weeks.	56939889	1473377825928	1473377826109	NA	32
109689	1197433	He disputed reports that Wheatley would be out four weeks.	He disputed reports the Whetley would be out four weeks.	56939893	1473377826061	1473377826215	NA	70
109689	1197433	He disputed reports that Wheatley would be out four weeks.	He disputed reports the Whetley would be out four weeks.	56939896	1473377826185	1473377826385	NA	79
109689	1197433	He disputed reports that Wheatley would be out four weeks.	He disputed reports the Whetley would be out four weeks.	56939909	1473377826327	1473377826488	NA	85
109689	1197433	He disputed reports that Wheatley would be out four weeks.	He disputed reports the Whetley would be out four weeks.	56939911	1473377826435	1473377826606	NA	82
109689	1197433	He disputed reports that Wheatley would be out four weeks.	He disputed reports the Whetley would be out four weeks.	56939913	1473377826513	1473377826707	NA	32
109689	1197433	He disputed reports that Wheatley would be out four weeks.	He disputed reports the Whetley would be out four weeks.	56939915	1473377826642	1473377826815	NA	87
109689	1197433	He disputed reports that Wheatley would be out four weeks.	He disputed reports the Whetley would be out four weeks.	56939917	1473377826771	1473377826898	NA	69
109689	1197433	He disputed reports that Wheatley would be out four weeks.	He disputed reports the Whetley would be out four weeks.	56939920	1473377826961	1473377827086	NA	69
109689	1197433	He disputed reports that Wheatley would be out four weeks.	He disputed reports the Whetley would be out four weeks.	56939948	1473377827050	1473377827178	NA	75
109689	1197433	He disputed reports that Wheatley would be out four weeks.	He disputed reports the Whetley would be out four weeks.	56939950	1473377827146	1473377827280	NA	83
109689	1197433	He disputed reports that Wheatley would be out four weeks.	He disputed reports the Whetley would be out four weeks.	56939952	1473377827247	1473377827397	NA	190
109689	1197455	There were frequent electricity and water shortages.	There were frequent electricity and water shortages.	56940111	1473377833376	1473377833629	SHIFT	16
109689	1197455	There were frequent electricity and water shortages.	There were frequent electricity and water shortages.	56940113	1473377833559	1473377833742	NA	84
109689	1197455	There were frequent electricity and water shortages.	There were frequent electricity and water shortages.	56940116	1473377833705	1473377833843	NA	72
109689	1197455	There were frequent electricity and water shortages.	There were frequent electricity and water shortages.	56940120	1473377833779	1473377833914	NA	69
109689	1197455	There were frequent electricity and water shortages.	There were frequent electricity and water shortages.	56940123	1473377833870	1473377834065	NA	82
109689	1197455	There were frequent electricity and water shortages.	There were frequent electricity and water shortages.	56940146	1473377834002	1473377834215	NA	69
109689	1197455	There were frequent electricity and water shortages.	There were frequent electricity and water shortages.	56940149	1473377834150	1473377834317	NA	32
109689	1197455	There were frequent electricity and water shortages.	There were frequent electricity and water shortages.	56940153	1473377834268	1473377834515	NA	87
109689	1197455	There were frequent electricity and water shortages.	There were frequent electricity and water shortages.	56940157	1473377834465	1473377834664	NA	69
109689	1197455	There were frequent electricity and water shortages.	There were frequent electricity and water shortages.	56940160	1473377834608	1473377834800	NA	82
109689	1197455	There were frequent electricity and water shortages.	There were frequent electricity and water shortages.	56940188	1473377834742	1473377834909	NA	69
109689	1197455	There were frequent electricity and water shortages.	There were frequent electricity and water shortages.	56940191	1473377834839	1473377835027	NA	32
109689	1197455	There were frequent electricity and water shortages.	There were frequent electricity and water shortages.	56940195	1473377834952	1473377835129	NA	70
109689	1197455	There were frequent electricity and water shortages.	There were frequent electricity and water shortages.	56940199	1473377835138	1473377835304	NA	82
109689	1197455	There were frequent electricity and water shortages.	There were frequent electricity and water shortages.	56940203	1473377835249	1473377835423	NA	69
109689	1197455	There were frequent electricity and water shortages.	There were frequent electricity and water shortages.	56940224	1473377835365	1473377835542	NA	81
109689	1197455	There were frequent electricity and water shortages.	There were frequent electricity and water shortages.	56940226	1473377835488	1473377835633	NA	85
109689	1197455	There were frequent electricity and water shortages.	There were frequent electricity and water shortages.	56940229	1473377835612	1473377835743	NA	69
109689	1197455	There were frequent electricity and water shortages.	There were frequent electricity and water shortages.	56940231	1473377835716	1473377835849	NA	78
109689	1197455	There were frequent electricity and water shortages.	There were frequent electricity and water shortages.	56940232	1473377835886	1473377836032	NA	84
109689	1197455	There were frequent electricity and water shortages.	There were frequent electricity and water shortages.	56940253	1473377836018	1473377836184	NA	32
109689	1197455	There were frequent electricity and water shortages.	There were frequent electricity and water shortages.	56940256	1473377836268	1473377836428	NA	69
109689	1197455	There were frequent electricity and water shortages.	There were frequent electricity and water shortages.	56940259	1473377836456	1473377836579	NA	76
109689	1197455	There were frequent electricity and water shortages.	There were frequent electricity and water shortages.	56940261	1473377836537	1473377836701	NA	69
109689	1197455	There were frequent electricity and water shortages.	There were frequent electricity and water shortages.	56940265	1473377836728	1473377836888	NA	67
109689	1197455	There were frequent electricity and water shortages.	There were frequent electricity and water shortages.	56940269	1473377836964	1473377837075	NA	84
109689	1197455	There were frequent electricity and water shortages.	There were frequent electricity and water shortages.	56940288	1473377837107	1473377837234	NA	82
109689	1197455	There were frequent electricity and water shortages.	There were frequent electricity and water shortages.	56940291	1473377837207	1473377837339	NA	73
109689	1197455	There were frequent electricity and water shortages.	There were frequent electricity and water shortages.	56940294	1473377837335	1473377837483	NA	67
109689	1197455	There were frequent electricity and water shortages.	There were frequent electricity and water shortages.	56940298	1473377837480	1473377837603	NA	73
109689	1197455	There were frequent electricity and water shortages.	There were frequent electricity and water shortages.	56940302	1473377837617	1473377837745	NA	84
109689	1197455	There were frequent electricity and water shortages.	There were frequent electricity and water shortages.	56940322	1473377837738	1473377837850	NA	89
109689	1197455	There were frequent electricity and water shortages.	There were frequent electricity and water shortages.	56940326	1473377837806	1473377837983	NA	32
109689	1197455	There were frequent electricity and water shortages.	There were frequent electricity and water shortages.	56940330	1473377837914	1473377838068	NA	65
109689	1197455	There were frequent electricity and water shortages.	There were frequent electricity and water shortages.	56940333	1473377837997	1473377838167	NA	78
109689	1197455	There were frequent electricity and water shortages.	There were frequent electricity and water shortages.	56940336	1473377838118	1473377838230	NA	68
109689	1197455	There were frequent electricity and water shortages.	There were frequent electricity and water shortages.	56940366	1473377838193	1473377838367	NA	32
109689	1197455	There were frequent electricity and water shortages.	There were frequent electricity and water shortages.	56940370	1473377838359	1473377838468	NA	69
109689	1197455	There were frequent electricity and water shortages.	There were frequent electricity and water shortages.	56940375	1473377838546	1473377838647	NA	87
109689	1197455	There were frequent electricity and water shortages.	There were frequent electricity and water shortages.	56940382	1473377838808	1473377838915		8
109689	1197455	There were frequent electricity and water shortages.	There were frequent electricity and water shortages.	56940386	1473377838952	1473377839067		8
109689	1197455	There were frequent electricity and water shortages.	There were frequent electricity and water shortages.	56940407	1473377839039	1473377839193	NA	87
109689	1197455	There were frequent electricity and water shortages.	There were frequent electricity and water shortages.	56940408	1473377839119	1473377839297	NA	65
109689	1197455	There were frequent electricity and water shortages.	There were frequent electricity and water shortages.	56940409	1473377839215	1473377839386	NA	84
109689	1197455	There were frequent electricity and water shortages.	There were frequent electricity and water shortages.	56940410	1473377839381	1473377839570	NA	69
109689	1197455	There were frequent electricity and water shortages.	There were frequent electricity and water shortages.	56940411	1473377839504	1473377839670	NA	82
109689	1197455	There were frequent electricity and water shortages.	There were frequent electricity and water shortages.	56940418	1473377839594	1473377839780	NA	32
109689	1197455	There were frequent electricity and water shortages.	There were frequent electricity and water shortages.	56940419	1473377839726	1473377839844	NA	83
109689	1197455	There were frequent electricity and water shortages.	There were frequent electricity and water shortages.	56940420	1473377839796	1473377839946	NA	72
109689	1197455	There were frequent electricity and water shortages.	There were frequent electricity and water shortages.	56940421	1473377839881	1473377840045	NA	79
109689	1197455	There were frequent electricity and water shortages.	There were frequent electricity and water shortages.	56940422	1473377839968	1473377840068	NA	82
109689	1197455	There were frequent electricity and water shortages.	There were frequent electricity and water shortages.	56940423	1473377840115	1473377840249	NA	84
109689	1197455	There were frequent electricity and water shortages.	There were frequent electricity and water shortages.	56940460	1473377840219	1473377840399	NA	65
109689	1197455	There were frequent electricity and water shortages.	There were frequent electricity and water shortages.	56940462	1473377840368	1473377840549	NA	71
109689	1197455	There were frequent electricity and water shortages.	There were frequent electricity and water shortages.	56940464	1473377840487	1473377840671	NA	69
109689	1197455	There were frequent electricity and water shortages.	There were frequent electricity and water shortages.	56940466	1473377840600	1473377840745	NA	83
109689	1197455	There were frequent electricity and water shortages.	There were frequent electricity and water shortages.	56940468	1473377840723	1473377840875	NA	190
109689	1197467	He has developed a good on-field relationship with QB Brad Johnson.	He has developed a good on-field relationship with QB Brad Johnson.	56940737	1473377848115	1473377848583	SHIFT	16
109689	1197467	He has developed a good on-field relationship with QB Brad Johnson.	He has developed a good on-field relationship with QB Brad Johnson.	56940742	1473377848541	1473377848657	NA	72
109689	1197467	He has developed a good on-field relationship with QB Brad Johnson.	He has developed a good on-field relationship with QB Brad Johnson.	56940745	1473377848670	1473377848854	NA	69
109689	1197467	He has developed a good on-field relationship with QB Brad Johnson.	He has developed a good on-field relationship with QB Brad Johnson.	56940749	1473377848779	1473377848945	NA	32
109689	1197467	He has developed a good on-field relationship with QB Brad Johnson.	He has developed a good on-field relationship with QB Brad Johnson.	56940753	1473377848922	1473377849063	NA	72
109689	1197467	He has developed a good on-field relationship with QB Brad Johnson.	He has developed a good on-field relationship with QB Brad Johnson.	56940769	1473377849010	1473377849168	NA	65
109689	1197467	He has developed a good on-field relationship with QB Brad Johnson.	He has developed a good on-field relationship with QB Brad Johnson.	56940772	1473377849094	1473377849265	NA	83
109689	1197467	He has developed a good on-field relationship with QB Brad Johnson.	He has developed a good on-field relationship with QB Brad Johnson.	56940774	1473377849194	1473377849396	NA	32
109689	1197467	He has developed a good on-field relationship with QB Brad Johnson.	He has developed a good on-field relationship with QB Brad Johnson.	56940777	1473377849384	1473377849502	NA	68
109689	1197467	He has developed a good on-field relationship with QB Brad Johnson.	He has developed a good on-field relationship with QB Brad Johnson.	56940781	1473377849584	1473377849685	NA	69
109689	1197467	He has developed a good on-field relationship with QB Brad Johnson.	He has developed a good on-field relationship with QB Brad Johnson.	56940786	1473377849705	1473377849880	NA	86
109689	1197467	He has developed a good on-field relationship with QB Brad Johnson.	He has developed a good on-field relationship with QB Brad Johnson.	56940809	1473377849854	1473377850011	NA	69
109689	1197467	He has developed a good on-field relationship with QB Brad Johnson.	He has developed a good on-field relationship with QB Brad Johnson.	56940812	1473377850016	1473377850125	NA	76
109689	1197467	He has developed a good on-field relationship with QB Brad Johnson.	He has developed a good on-field relationship with QB Brad Johnson.	56940815	1473377850198	1473377850332	NA	79
109689	1197467	He has developed a good on-field relationship with QB Brad Johnson.	He has developed a good on-field relationship with QB Brad Johnson.	56940817	1473377850324	1473377850489	NA	80
109689	1197467	He has developed a good on-field relationship with QB Brad Johnson.	He has developed a good on-field relationship with QB Brad Johnson.	56940819	1473377850458	1473377850584	NA	69
109689	1197467	He has developed a good on-field relationship with QB Brad Johnson.	He has developed a good on-field relationship with QB Brad Johnson.	56940821	1473377850640	1473377850829	NA	68
109689	1197467	He has developed a good on-field relationship with QB Brad Johnson.	He has developed a good on-field relationship with QB Brad Johnson.	56940829	1473377850763	1473377850942	NA	32
109689	1197467	He has developed a good on-field relationship with QB Brad Johnson.	He has developed a good on-field relationship with QB Brad Johnson.	56940832	1473377850884	1473377851068	NA	65
109689	1197467	He has developed a good on-field relationship with QB Brad Johnson.	He has developed a good on-field relationship with QB Brad Johnson.	56940835	1473377851019	1473377851200	NA	32
109689	1197467	He has developed a good on-field relationship with QB Brad Johnson.	He has developed a good on-field relationship with QB Brad Johnson.	56940841	1473377851171	1473377851323	NA	71
109689	1197467	He has developed a good on-field relationship with QB Brad Johnson.	He has developed a good on-field relationship with QB Brad Johnson.	56940846	1473377851292	1473377851434	NA	79
109689	1197467	He has developed a good on-field relationship with QB Brad Johnson.	He has developed a good on-field relationship with QB Brad Johnson.	56940852	1473377851508	1473377851571	NA	79
109689	1197467	He has developed a good on-field relationship with QB Brad Johnson.	He has developed a good on-field relationship with QB Brad Johnson.	56940899	1473377851799	1473377851959	NA	68
109689	1197467	He has developed a good on-field relationship with QB Brad Johnson.	He has developed a good on-field relationship with QB Brad Johnson.	56940902	1473377852003	1473377852188	NA	32
109689	1197467	He has developed a good on-field relationship with QB Brad Johnson.	He has developed a good on-field relationship with QB Brad Johnson.	56940905	1473377852110	1473377852310	NA	79
109689	1197467	He has developed a good on-field relationship with QB Brad Johnson.	He has developed a good on-field relationship with QB Brad Johnson.	56940906	1473377852220	1473377852347	NA	78
109689	1197467	He has developed a good on-field relationship with QB Brad Johnson.	He has developed a good on-field relationship with QB Brad Johnson.	56940909	1473377852476	1473377852589	NA	173
109689	1197467	He has developed a good on-field relationship with QB Brad Johnson.	He has developed a good on-field relationship with QB Brad Johnson.	56940935	1473377852809	1473377852978	NA	70
109689	1197467	He has developed a good on-field relationship with QB Brad Johnson.	He has developed a good on-field relationship with QB Brad Johnson.	56940938	1473377853092	1473377853239	NA	73
109689	1197467	He has developed a good on-field relationship with QB Brad Johnson.	He has developed a good on-field relationship with QB Brad Johnson.	56940942	1473377853235	1473377853358	NA	69
109689	1197467	He has developed a good on-field relationship with QB Brad Johnson.	He has developed a good on-field relationship with QB Brad Johnson.	56940947	1473377853391	1473377853529	NA	76
109689	1197467	He has developed a good on-field relationship with QB Brad Johnson.	He has developed a good on-field relationship with QB Brad Johnson.	56940950	1473377853543	1473377853676	NA	68
109689	1197467	He has developed a good on-field relationship with QB Brad Johnson.	He has developed a good on-field relationship with QB Brad Johnson.	56940959	1473377853638	1473377853831	NA	32
109689	1197467	He has developed a good on-field relationship with QB Brad Johnson.	He has developed a good on-field relationship with QB Brad Johnson.	56940964	1473377853761	1473377853967	NA	82
109689	1197467	He has developed a good on-field relationship with QB Brad Johnson.	He has developed a good on-field relationship with QB Brad Johnson.	56940969	1473377853865	1473377854005	NA	69
109689	1197467	He has developed a good on-field relationship with QB Brad Johnson.	He has developed a good on-field relationship with QB Brad Johnson.	56940976	1473377853970	1473377854116	NA	76
109689	1197467	He has developed a good on-field relationship with QB Brad Johnson.	He has developed a good on-field relationship with QB Brad Johnson.	56940983	1473377854143	1473377854321	NA	65
109689	1197467	He has developed a good on-field relationship with QB Brad Johnson.	He has developed a good on-field relationship with QB Brad Johnson.	56941001	1473377854250	1473377854405	NA	84
109689	1197467	He has developed a good on-field relationship with QB Brad Johnson.	He has developed a good on-field relationship with QB Brad Johnson.	56941004	1473377854373	1473377854509	NA	73
109689	1197467	He has developed a good on-field relationship with QB Brad Johnson.	He has developed a good on-field relationship with QB Brad Johnson.	56941008	1473377854473	1473377854647	NA	79
109689	1197467	He has developed a good on-field relationship with QB Brad Johnson.	He has developed a good on-field relationship with QB Brad Johnson.	56941013	1473377854575	1473377854689	NA	78
109689	1197467	He has developed a good on-field relationship with QB Brad Johnson.	He has developed a good on-field relationship with QB Brad Johnson.	56941019	1473377854651	1473377854806	NA	83
109689	1197467	He has developed a good on-field relationship with QB Brad Johnson.	He has developed a good on-field relationship with QB Brad Johnson.	56941033	1473377854803	1473377854924	NA	72
109689	1197467	He has developed a good on-field relationship with QB Brad Johnson.	He has developed a good on-field relationship with QB Brad Johnson.	56941037	1473377854868	1473377855083	NA	73
109689	1197467	He has developed a good on-field relationship with QB Brad Johnson.	He has developed a good on-field relationship with QB Brad Johnson.	56941040	1473377855015	1473377855185	NA	80
109689	1197467	He has developed a good on-field relationship with QB Brad Johnson.	He has developed a good on-field relationship with QB Brad Johnson.	56941044	1473377855156	1473377855306	NA	32
109689	1197467	He has developed a good on-field relationship with QB Brad Johnson.	He has developed a good on-field relationship with QB Brad Johnson.	56941049	1473377855200	1473377855370	NA	87
109689	1197467	He has developed a good on-field relationship with QB Brad Johnson.	He has developed a good on-field relationship with QB Brad Johnson.	56941074	1473377855335	1473377855468	NA	73
109689	1197467	He has developed a good on-field relationship with QB Brad Johnson.	He has developed a good on-field relationship with QB Brad Johnson.	56941079	1473377855464	1473377855644	NA	84
109689	1197467	He has developed a good on-field relationship with QB Brad Johnson.	He has developed a good on-field relationship with QB Brad Johnson.	56941082	1473377855575	1473377855750	NA	72
109689	1197467	He has developed a good on-field relationship with QB Brad Johnson.	He has developed a good on-field relationship with QB Brad Johnson.	56941086	1473377855630	1473377855845	NA	32
109689	1197467	He has developed a good on-field relationship with QB Brad Johnson.	He has developed a good on-field relationship with QB Brad Johnson.	56941129	1473377855731	1473377856642	SHIFT	16
109689	1197467	He has developed a good on-field relationship with QB Brad Johnson.	He has developed a good on-field relationship with QB Brad Johnson.	56941091	1473377856124	1473377856268	NA	81
109689	1197467	He has developed a good on-field relationship with QB Brad Johnson.	He has developed a good on-field relationship with QB Brad Johnson.	56941094	1473377856323	1473377856459	NA	66
109689	1197467	He has developed a good on-field relationship with QB Brad Johnson.	He has developed a good on-field relationship with QB Brad Johnson.	56941130	1473377856540	1473377856712	NA	32
109689	1197467	He has developed a good on-field relationship with QB Brad Johnson.	He has developed a good on-field relationship with QB Brad Johnson.	56941131	1473377857054	1473377857291	SHIFT	16
109689	1197467	He has developed a good on-field relationship with QB Brad Johnson.	He has developed a good on-field relationship with QB Brad Johnson.	56941133	1473377857194	1473377857326	NA	66
109689	1197467	He has developed a good on-field relationship with QB Brad Johnson.	He has developed a good on-field relationship with QB Brad Johnson.	56941135	1473377857451	1473377857615	NA	82
109689	1197467	He has developed a good on-field relationship with QB Brad Johnson.	He has developed a good on-field relationship with QB Brad Johnson.	56941137	1473377857578	1473377857741	NA	65
109689	1197467	He has developed a good on-field relationship with QB Brad Johnson.	He has developed a good on-field relationship with QB Brad Johnson.	56941159	1473377857716	1473377857873	NA	68
109689	1197467	He has developed a good on-field relationship with QB Brad Johnson.	He has developed a good on-field relationship with QB Brad Johnson.	56941161	1473377857832	1473377857990	NA	32
109689	1197467	He has developed a good on-field relationship with QB Brad Johnson.	He has developed a good on-field relationship with QB Brad Johnson.	56941166	1473377857907	1473377858083	SHIFT	16
109689	1197467	He has developed a good on-field relationship with QB Brad Johnson.	He has developed a good on-field relationship with QB Brad Johnson.	56941171	1473377857981	1473377858113	NA	74
109689	1197467	He has developed a good on-field relationship with QB Brad Johnson.	He has developed a good on-field relationship with QB Brad Johnson.	56941177	1473377858193	1473377858349	NA	79
109689	1197467	He has developed a good on-field relationship with QB Brad Johnson.	He has developed a good on-field relationship with QB Brad Johnson.	56941180	1473377858283	1473377858405	NA	72
109689	1197467	He has developed a good on-field relationship with QB Brad Johnson.	He has developed a good on-field relationship with QB Brad Johnson.	56941183	1473377858468	1473377858605	NA	78
109689	1197467	He has developed a good on-field relationship with QB Brad Johnson.	He has developed a good on-field relationship with QB Brad Johnson.	56941213	1473377858630	1473377858763	NA	83
109689	1197467	He has developed a good on-field relationship with QB Brad Johnson.	He has developed a good on-field relationship with QB Brad Johnson.	56941214	1473377858739	1473377858880	NA	79
109689	1197467	He has developed a good on-field relationship with QB Brad Johnson.	He has developed a good on-field relationship with QB Brad Johnson.	56941215	1473377858828	1473377858966	NA	78
109689	1197467	He has developed a good on-field relationship with QB Brad Johnson.	He has developed a good on-field relationship with QB Brad Johnson.	56941217	1473377859353	1473377859491	NA	190
109689	1197478	But I believe answer will be yes.	But I believe answer will be yes.	56941422	1473377864266	1473377864671	SHIFT	16
109689	1197478	But I believe answer will be yes.	But I believe answer will be yes.	56941419	1473377864537	1473377864638	NA	66
109689	1197478	But I believe answer will be yes.	But I believe answer will be yes.	56941424	1473377864729	1473377864839	NA	85
109689	1197478	But I believe answer will be yes.	But I believe answer will be yes.	56941427	1473377864834	1473377864993	NA	84
109689	1197478	But I believe answer will be yes.	But I believe answer will be yes.	56941429	1473377864923	1473377865085	NA	32
109689	1197478	But I believe answer will be yes.	But I believe answer will be yes.	56941467	1473377865071	1473377865203	NA	73
109689	1197478	But I believe answer will be yes.	But I believe answer will be yes.	56941468	1473377865484	1473377865596		8
109689	1197478	But I believe answer will be yes.	But I believe answer will be yes.	56941469	1473377865574	1473377865756	SHIFT	16
109689	1197478	But I believe answer will be yes.	But I believe answer will be yes.	56941470	1473377865684	1473377865782	NA	73
109689	1197478	But I believe answer will be yes.	But I believe answer will be yes.	56941471	1473377865787	1473377865932	NA	32
109689	1197478	But I believe answer will be yes.	But I believe answer will be yes.	56941473	1473377865999	1473377866135	NA	66
109689	1197478	But I believe answer will be yes.	But I believe answer will be yes.	56941485	1473377866118	1473377866265	NA	69
109689	1197478	But I believe answer will be yes.	But I believe answer will be yes.	56941490	1473377866238	1473377866396	NA	76
109689	1197478	But I believe answer will be yes.	But I believe answer will be yes.	56941494	1473377866376	1473377866521	NA	73
109689	1197478	But I believe answer will be yes.	But I believe answer will be yes.	56941497	1473377866487	1473377866620	NA	69
109689	1197478	But I believe answer will be yes.	But I believe answer will be yes.	56941501	1473377866658	1473377866815	NA	86
109689	1197478	But I believe answer will be yes.	But I believe answer will be yes.	56941522	1473377866794	1473377866964	NA	69
109689	1197478	But I believe answer will be yes.	But I believe answer will be yes.	56941524	1473377866908	1473377867114	NA	32
109689	1197478	But I believe answer will be yes.	But I believe answer will be yes.	56941526	1473377867564	1473377867755	NA	65
109689	1197478	But I believe answer will be yes.	But I believe answer will be yes.	56941528	1473377867661	1473377867829	NA	78
109689	1197478	But I believe answer will be yes.	But I believe answer will be yes.	56941530	1473377867760	1473377867870	NA	83
109689	1197478	But I believe answer will be yes.	But I believe answer will be yes.	56941532	1473377867958	1473377868090	NA	87
109689	1197478	But I believe answer will be yes.	But I believe answer will be yes.	56941537	1473377868045	1473377868227	NA	69
109689	1197478	But I believe answer will be yes.	But I believe answer will be yes.	56941539	1473377868173	1473377868378	NA	82
109689	1197478	But I believe answer will be yes.	But I believe answer will be yes.	56941541	1473377868270	1473377868463	NA	32
109689	1197478	But I believe answer will be yes.	But I believe answer will be yes.	56941545	1473377868383	1473377868531	NA	87
109689	1197478	But I believe answer will be yes.	But I believe answer will be yes.	56941548	1473377868458	1473377868590	NA	73
109689	1197478	But I believe answer will be yes.	But I believe answer will be yes.	56941559	1473377868546	1473377868636	NA	76
109689	1197478	But I believe answer will be yes.	But I believe answer will be yes.	56941562	1473377868701	1473377868808	NA	76
109689	1197478	But I believe answer will be yes.	But I believe answer will be yes.	56941565	1473377868772	1473377868931	NA	32
109689	1197478	But I believe answer will be yes.	But I believe answer will be yes.	56941567	1473377868893	1473377869055	NA	66
109689	1197478	But I believe answer will be yes.	But I believe answer will be yes.	56941568	1473377868953	1473377869101	NA	69
109689	1197478	But I believe answer will be yes.	But I believe answer will be yes.	56941579	1473377869055	1473377869235	NA	32
109689	1197478	But I believe answer will be yes.	But I believe answer will be yes.	56941581	1473377869160	1473377869288	NA	89
109689	1197478	But I believe answer will be yes.	But I believe answer will be yes.	56941582	1473377869228	1473377869395	NA	69
109689	1197478	But I believe answer will be yes.	But I believe answer will be yes.	56941583	1473377869344	1473377869496	NA	83
109689	1197478	But I believe answer will be yes.	But I believe answer will be yes.	56941584	1473377869467	1473377869602	NA	190
109689	1197489	Michael said his day was rotten.	Michael said his day was rotten.	56941753	1473377874276	1473377874688	SHIFT	16
109689	1197489	Michael said his day was rotten.	Michael said his day was rotten.	56941754	1473377874584	1473377874728	NA	77
109689	1197489	Michael said his day was rotten.	Michael said his day was rotten.	56941756	1473377874743	1473377874866	NA	73
109689	1197489	Michael said his day was rotten.	Michael said his day was rotten.	56941758	1473377874861	1473377874988	NA	67
109689	1197489	Michael said his day was rotten.	Michael said his day was rotten.	56941761	1473377874945	1473377875085	NA	72
109689	1197489	Michael said his day was rotten.	Michael said his day was rotten.	56941763	1473377875099	1473377875255	NA	65
109689	1197489	Michael said his day was rotten.	Michael said his day was rotten.	56941759	1473377875185	1473377875356	NA	69
109689	1197489	Michael said his day was rotten.	Michael said his day was rotten.	56941762	1473377875269	1473377875382	NA	76
109689	1197489	Michael said his day was rotten.	Michael said his day was rotten.	56941765	1473377875370	1473377875580	NA	32
109689	1197489	Michael said his day was rotten.	Michael said his day was rotten.	56941767	1473377875501	1473377875668	NA	83
109689	1197489	Michael said his day was rotten.	Michael said his day was rotten.	56941768	1473377875610	1473377875777	NA	65
109689	1197489	Michael said his day was rotten.	Michael said his day was rotten.	56941779	1473377875746	1473377875885	NA	73
109689	1197489	Michael said his day was rotten.	Michael said his day was rotten.	56941781	1473377875856	1473377876007	NA	68
109689	1197489	Michael said his day was rotten.	Michael said his day was rotten.	56941785	1473377875926	1473377876109	NA	32
109689	1197489	Michael said his day was rotten.	Michael said his day was rotten.	56941788	1473377876025	1473377876174	NA	72
109689	1197489	Michael said his day was rotten.	Michael said his day was rotten.	56941794	1473377876106	1473377876247	NA	73
109689	1197489	Michael said his day was rotten.	Michael said his day was rotten.	56941795	1473377876153	1473377876327	NA	83
109689	1197489	Michael said his day was rotten.	Michael said his day was rotten.	56941797	1473377876260	1473377876448	NA	32
109689	1197489	Michael said his day was rotten.	Michael said his day was rotten.	56941800	1473377876386	1473377876564	NA	68
109689	1197489	Michael said his day was rotten.	Michael said his day was rotten.	56941804	1473377876545	1473377876651	NA	65
109689	1197489	Michael said his day was rotten.	Michael said his day was rotten.	56941809	1473377876598	1473377876742	NA	89
109689	1197489	Michael said his day was rotten.	Michael said his day was rotten.	56941819	1473377876703	1473377876870	NA	32
109689	1197489	Michael said his day was rotten.	Michael said his day was rotten.	56941821	1473377876808	1473377876964	NA	87
109689	1197489	Michael said his day was rotten.	Michael said his day was rotten.	56941824	1473377876930	1473377877133	NA	65
109689	1197489	Michael said his day was rotten.	Michael said his day was rotten.	56941828	1473377877059	1473377877189	NA	83
109689	1197489	Michael said his day was rotten.	Michael said his day was rotten.	56941832	1473377877141	1473377877328	NA	32
109689	1197489	Michael said his day was rotten.	Michael said his day was rotten.	56941866	1473377877279	1473377877445	NA	82
109689	1197489	Michael said his day was rotten.	Michael said his day was rotten.	56941868	1473377877419	1473377877446	NA	79
109689	1197489	Michael said his day was rotten.	Michael said his day was rotten.	56941871	1473377877507	1473377877614	NA	79
109689	1197489	Michael said his day was rotten.	Michael said his day was rotten.	56941874	1473377877813	1473377877921		8
109689	1197489	Michael said his day was rotten.	Michael said his day was rotten.	56941877	1473377877930	1473377878073	NA	84
109689	1197489	Michael said his day was rotten.	Michael said his day was rotten.	56941883	1473377878120	1473377878249	NA	84
109689	1197489	Michael said his day was rotten.	Michael said his day was rotten.	56941901	1473377878227	1473377878354	NA	69
109689	1197489	Michael said his day was rotten.	Michael said his day was rotten.	56941903	1473377878338	1473377878448	NA	78
109689	1197489	Michael said his day was rotten.	Michael said his day was rotten.	56941906	1473377878483	1473377878595	NA	190
109689	1197495	Mixed signals from Washington had convinced China.	Mixed signals from Washinton had conviced China.	56942129	1473377883634	1473377884127	SHIFT	16
109689	1197495	Mixed signals from Washington had convinced China.	Mixed signals from Washinton had conviced China.	56942132	1473377884010	1473377884140	NA	77
109689	1197495	Mixed signals from Washington had convinced China.	Mixed signals from Washinton had conviced China.	56942136	1473377884181	1473377884275	NA	73
109689	1197495	Mixed signals from Washington had convinced China.	Mixed signals from Washinton had conviced China.	56942140	1473377884272	1473377884386	NA	88
109689	1197495	Mixed signals from Washington had convinced China.	Mixed signals from Washinton had conviced China.	56942143	1473377884482	1473377884606	NA	69
109689	1197495	Mixed signals from Washington had convinced China.	Mixed signals from Washinton had conviced China.	56942146	1473377884710	1473377884876	NA	68
109689	1197495	Mixed signals from Washington had convinced China.	Mixed signals from Washinton had conviced China.	56942160	1473377884835	1473377885009	NA	32
109689	1197495	Mixed signals from Washington had convinced China.	Mixed signals from Washinton had conviced China.	56942162	1473377884941	1473377885075	NA	83
109689	1197495	Mixed signals from Washington had convinced China.	Mixed signals from Washinton had conviced China.	56942165	1473377885048	1473377885175	NA	73
109689	1197495	Mixed signals from Washington had convinced China.	Mixed signals from Washinton had conviced China.	56942167	1473377885158	1473377885300	NA	71
109689	1197495	Mixed signals from Washington had convinced China.	Mixed signals from Washinton had conviced China.	56942170	1473377885256	1473377885380	NA	78
109689	1197495	Mixed signals from Washington had convinced China.	Mixed signals from Washinton had conviced China.	56942190	1473377885354	1473377885498	NA	65
109689	1197495	Mixed signals from Washington had convinced China.	Mixed signals from Washinton had conviced China.	56942191	1473377885468	1473377885599	NA	76
109689	1197495	Mixed signals from Washington had convinced China.	Mixed signals from Washinton had conviced China.	56942193	1473377885603	1473377885713	NA	83
109689	1197495	Mixed signals from Washington had convinced China.	Mixed signals from Washinton had conviced China.	56942196	1473377885688	1473377885893	NA	32
109689	1197495	Mixed signals from Washington had convinced China.	Mixed signals from Washinton had conviced China.	56942199	1473377885938	1473377886089	NA	70
109689	1197495	Mixed signals from Washington had convinced China.	Mixed signals from Washinton had conviced China.	56942201	1473377886110	1473377886255	NA	82
109689	1197495	Mixed signals from Washington had convinced China.	Mixed signals from Washinton had conviced China.	56942208	1473377886198	1473377886352	NA	79
109689	1197495	Mixed signals from Washington had convinced China.	Mixed signals from Washinton had conviced China.	56942211	1473377886294	1473377886449	NA	77
109689	1197495	Mixed signals from Washington had convinced China.	Mixed signals from Washinton had conviced China.	56942215	1473377886370	1473377886532	NA	32
109689	1197495	Mixed signals from Washington had convinced China.	Mixed signals from Washinton had conviced China.	56942217	1473377886441	1473377886637	SHIFT	16
109689	1197495	Mixed signals from Washington had convinced China.	Mixed signals from Washinton had conviced China.	56942219	1473377886557	1473377886706	NA	87
109689	1197495	Mixed signals from Washington had convinced China.	Mixed signals from Washinton had conviced China.	56942223	1473377886766	1473377886935	NA	65
109689	1197495	Mixed signals from Washington had convinced China.	Mixed signals from Washinton had conviced China.	56942230	1473377886877	1473377887029	NA	83
109689	1197495	Mixed signals from Washington had convinced China.	Mixed signals from Washinton had conviced China.	56942232	1473377887023	1473377887165	NA	72
109689	1197495	Mixed signals from Washington had convinced China.	Mixed signals from Washinton had conviced China.	56942236	1473377887121	1473377887323	NA	73
109689	1197495	Mixed signals from Washington had convinced China.	Mixed signals from Washinton had conviced China.	56942239	1473377887249	1473377887385	NA	78
109689	1197495	Mixed signals from Washington had convinced China.	Mixed signals from Washinton had conviced China.	56942242	1473377887422	1473377887573	NA	84
109689	1197495	Mixed signals from Washington had convinced China.	Mixed signals from Washinton had conviced China.	56942280	1473377887547	1473377887701	NA	79
109689	1197495	Mixed signals from Washington had convinced China.	Mixed signals from Washinton had conviced China.	56942283	1473377887653	1473377887793	NA	78
109689	1197495	Mixed signals from Washington had convinced China.	Mixed signals from Washinton had conviced China.	56942286	1473377887762	1473377887936	NA	32
109689	1197495	Mixed signals from Washington had convinced China.	Mixed signals from Washinton had conviced China.	56942288	1473377887933	1473377888051	NA	72
109689	1197495	Mixed signals from Washington had convinced China.	Mixed signals from Washinton had conviced China.	56942290	1473377888011	1473377888161	NA	65
109689	1197495	Mixed signals from Washington had convinced China.	Mixed signals from Washinton had conviced China.	56942324	1473377888086	1473377888261	NA	83
109689	1197495	Mixed signals from Washington had convinced China.	Mixed signals from Washinton had conviced China.	56942325	1473377888196	1473377888415	NA	32
109689	1197495	Mixed signals from Washington had convinced China.	Mixed signals from Washinton had conviced China.	56942326	1473377888422	1473377888536	NA	67
109689	1197495	Mixed signals from Washington had convinced China.	Mixed signals from Washinton had conviced China.	56942327	1473377888748	1473377888844		8
109689	1197495	Mixed signals from Washington had convinced China.	Mixed signals from Washinton had conviced China.	56942328	1473377888906	1473377889024		8
109689	1197495	Mixed signals from Washington had convinced China.	Mixed signals from Washinton had conviced China.	56942329	1473377889064	1473377889169		8
109689	1197495	Mixed signals from Washington had convinced China.	Mixed signals from Washinton had conviced China.	56942353	1473377889271	1473377889440	NA	68
109689	1197495	Mixed signals from Washington had convinced China.	Mixed signals from Washinton had conviced China.	56942355	1473377889395	1473377889562	NA	32
109689	1197495	Mixed signals from Washington had convinced China.	Mixed signals from Washinton had conviced China.	56942358	1473377889569	1473377889727	NA	67
109689	1197495	Mixed signals from Washington had convinced China.	Mixed signals from Washinton had conviced China.	56942361	1473377889634	1473377889828	NA	79
109689	1197495	Mixed signals from Washington had convinced China.	Mixed signals from Washinton had conviced China.	56942392	1473377889797	1473377889941	NA	78
109689	1197495	Mixed signals from Washington had convinced China.	Mixed signals from Washinton had conviced China.	56942395	1473377890067	1473377890217	NA	86
109689	1197495	Mixed signals from Washington had convinced China.	Mixed signals from Washinton had conviced China.	56942399	1473377890192	1473377890309	NA	73
109689	1197495	Mixed signals from Washington had convinced China.	Mixed signals from Washinton had conviced China.	56942402	1473377890665	1473377890832	NA	67
109689	1197495	Mixed signals from Washington had convinced China.	Mixed signals from Washinton had conviced China.	56942405	1473377890804	1473377890935	NA	69
109689	1197495	Mixed signals from Washington had convinced China.	Mixed signals from Washinton had conviced China.	56942407	1473377891006	1473377891156	NA	68
109689	1197495	Mixed signals from Washington had convinced China.	Mixed signals from Washinton had conviced China.	56942445	1473377891112	1473377891258	NA	32
109689	1197495	Mixed signals from Washington had convinced China.	Mixed signals from Washinton had conviced China.	56942448	1473377891338	1473377891530	SHIFT	16
109689	1197495	Mixed signals from Washington had convinced China.	Mixed signals from Washinton had conviced China.	56942453	1473377891486	1473377891613	NA	67
109689	1197495	Mixed signals from Washington had convinced China.	Mixed signals from Washinton had conviced China.	56942457	1473377891839	1473377892017	NA	72
109689	1197495	Mixed signals from Washington had convinced China.	Mixed signals from Washinton had conviced China.	56942461	1473377892014	1473377892178	NA	73
109689	1197495	Mixed signals from Washington had convinced China.	Mixed signals from Washinton had conviced China.	56942465	1473377892113	1473377892299	NA	78
109689	1197495	Mixed signals from Washington had convinced China.	Mixed signals from Washinton had conviced China.	56942447	1473377892215	1473377892350	NA	65
109689	1197495	Mixed signals from Washington had convinced China.	Mixed signals from Washinton had conviced China.	56942450	1473377892567	1473377892666	NA	190
109689	1197507	Mochrie remained steady in the face of the upheaval.	Mochrie remained steady in the face of the upheaval.	56942689	1473377898495	1473377898673	SHIFT	16
109689	1197507	Mochrie remained steady in the face of the upheaval.	Mochrie remained steady in the face of the upheaval.	56942691	1473377898621	1473377898784	NA	77
109689	1197507	Mochrie remained steady in the face of the upheaval.	Mochrie remained steady in the face of the upheaval.	56942693	1473377898777	1473377898907	NA	79
109689	1197507	Mochrie remained steady in the face of the upheaval.	Mochrie remained steady in the face of the upheaval.	56942695	1473377898935	1473377899057	NA	67
109689	1197507	Mochrie remained steady in the face of the upheaval.	Mochrie remained steady in the face of the upheaval.	56942697	1473377899123	1473377899254	NA	72
109689	1197507	Mochrie remained steady in the face of the upheaval.	Mochrie remained steady in the face of the upheaval.	56942699	1473377899298	1473377899435	NA	82
109689	1197507	Mochrie remained steady in the face of the upheaval.	Mochrie remained steady in the face of the upheaval.	56942690	1473377899396	1473377899526	NA	73
109689	1197507	Mochrie remained steady in the face of the upheaval.	Mochrie remained steady in the face of the upheaval.	56942692	1473377899556	1473377899707	NA	69
109689	1197507	Mochrie remained steady in the face of the upheaval.	Mochrie remained steady in the face of the upheaval.	56942694	1473377899677	1473377899865	NA	32
109689	1197507	Mochrie remained steady in the face of the upheaval.	Mochrie remained steady in the face of the upheaval.	56942696	1473377899834	1473377900000	NA	82
109689	1197507	Mochrie remained steady in the face of the upheaval.	Mochrie remained steady in the face of the upheaval.	56942698	1473377899946	1473377900115	NA	65
109689	1197507	Mochrie remained steady in the face of the upheaval.	Mochrie remained steady in the face of the upheaval.	56942700	1473377900340	1473377900454		8
109689	1197507	Mochrie remained steady in the face of the upheaval.	Mochrie remained steady in the face of the upheaval.	56942710	1473377900446	1473377900587	NA	69
109689	1197507	Mochrie remained steady in the face of the upheaval.	Mochrie remained steady in the face of the upheaval.	56942712	1473377900557	1473377900701	NA	77
109689	1197507	Mochrie remained steady in the face of the upheaval.	Mochrie remained steady in the face of the upheaval.	56942713	1473377900713	1473377900835	NA	65
109689	1197507	Mochrie remained steady in the face of the upheaval.	Mochrie remained steady in the face of the upheaval.	56942715	1473377900852	1473377901020	NA	73
109689	1197507	Mochrie remained steady in the face of the upheaval.	Mochrie remained steady in the face of the upheaval.	56942716	1473377900976	1473377901115	NA	78
109689	1197507	Mochrie remained steady in the face of the upheaval.	Mochrie remained steady in the face of the upheaval.	56942730	1473377901111	1473377901237	NA	69
109689	1197507	Mochrie remained steady in the face of the upheaval.	Mochrie remained steady in the face of the upheaval.	56942732	1473377901284	1473377901426	NA	68
109689	1197507	Mochrie remained steady in the face of the upheaval.	Mochrie remained steady in the face of the upheaval.	56942733	1473377901405	1473377901596	NA	32
109689	1197507	Mochrie remained steady in the face of the upheaval.	Mochrie remained steady in the face of the upheaval.	56942735	1473377901522	1473377901722	NA	83
109689	1197507	Mochrie remained steady in the face of the upheaval.	Mochrie remained steady in the face of the upheaval.	56942737	1473377901676	1473377901869	NA	84
109689	1197507	Mochrie remained steady in the face of the upheaval.	Mochrie remained steady in the face of the upheaval.	56942768	1473377901821	1473377901987	NA	69
109689	1197507	Mochrie remained steady in the face of the upheaval.	Mochrie remained steady in the face of the upheaval.	56942771	1473377901957	1473377902132	NA	65
109689	1197507	Mochrie remained steady in the face of the upheaval.	Mochrie remained steady in the face of the upheaval.	56942774	1473377902101	1473377902225	NA	68
109689	1197507	Mochrie remained steady in the face of the upheaval.	Mochrie remained steady in the face of the upheaval.	56942777	1473377902157	1473377902306	NA	89
109689	1197507	Mochrie remained steady in the face of the upheaval.	Mochrie remained steady in the face of the upheaval.	56942779	1473377902394	1473377902522	NA	32
109689	1197507	Mochrie remained steady in the face of the upheaval.	Mochrie remained steady in the face of the upheaval.	56942820	1473377902420	1473377902584	NA	73
109689	1197507	Mochrie remained steady in the face of the upheaval.	Mochrie remained steady in the face of the upheaval.	56942824	1473377902501	1473377902662	NA	78
109689	1197507	Mochrie remained steady in the face of the upheaval.	Mochrie remained steady in the face of the upheaval.	56942830	1473377902718	1473377902775	NA	32
109689	1197507	Mochrie remained steady in the face of the upheaval.	Mochrie remained steady in the face of the upheaval.	56942835	1473377903246	1473377903381	NA	84
109689	1197507	Mochrie remained steady in the face of the upheaval.	Mochrie remained steady in the face of the upheaval.	56942841	1473377903347	1473377903498	NA	72
109689	1197507	Mochrie remained steady in the face of the upheaval.	Mochrie remained steady in the face of the upheaval.	56942844	1473377903440	1473377903611	NA	69
109689	1197507	Mochrie remained steady in the face of the upheaval.	Mochrie remained steady in the face of the upheaval.	56942855	1473377903545	1473377903762	NA	32
109689	1197507	Mochrie remained steady in the face of the upheaval.	Mochrie remained steady in the face of the upheaval.	56942857	1473377903728	1473377903870	NA	70
109689	1197507	Mochrie remained steady in the face of the upheaval.	Mochrie remained steady in the face of the upheaval.	56942860	1473377903824	1473377904001	NA	65
109689	1197507	Mochrie remained steady in the face of the upheaval.	Mochrie remained steady in the face of the upheaval.	56942861	1473377903934	1473377904133	NA	67
109689	1197507	Mochrie remained steady in the face of the upheaval.	Mochrie remained steady in the face of the upheaval.	56942864	1473377904076	1473377904252	NA	69
109689	1197507	Mochrie remained steady in the face of the upheaval.	Mochrie remained steady in the face of the upheaval.	56942876	1473377904167	1473377904329	NA	32
109689	1197507	Mochrie remained steady in the face of the upheaval.	Mochrie remained steady in the face of the upheaval.	56942880	1473377904337	1473377904461	NA	79
109689	1197507	Mochrie remained steady in the face of the upheaval.	Mochrie remained steady in the face of the upheaval.	56942886	1473377904422	1473377904545	NA	70
109689	1197507	Mochrie remained steady in the face of the upheaval.	Mochrie remained steady in the face of the upheaval.	56942893	1473377904510	1473377904696	NA	32
109689	1197507	Mochrie remained steady in the face of the upheaval.	Mochrie remained steady in the face of the upheaval.	56942900	1473377904630	1473377904784	NA	84
109689	1197507	Mochrie remained steady in the face of the upheaval.	Mochrie remained steady in the face of the upheaval.	56942930	1473377904733	1473377904890	NA	72
109689	1197507	Mochrie remained steady in the face of the upheaval.	Mochrie remained steady in the face of the upheaval.	56942933	1473377904798	1473377904961	NA	69
109689	1197507	Mochrie remained steady in the face of the upheaval.	Mochrie remained steady in the face of the upheaval.	56942937	1473377904885	1473377905076	NA	32
109689	1197507	Mochrie remained steady in the face of the upheaval.	Mochrie remained steady in the face of the upheaval.	56942939	1473377905089	1473377905273	NA	85
109689	1197507	Mochrie remained steady in the face of the upheaval.	Mochrie remained steady in the face of the upheaval.	56942942	1473377905331	1473377905453	NA	80
109689	1197507	Mochrie remained steady in the face of the upheaval.	Mochrie remained steady in the face of the upheaval.	56942946	1473377905481	1473377905619	NA	72
109689	1197507	Mochrie remained steady in the face of the upheaval.	Mochrie remained steady in the face of the upheaval.	56942976	1473377905586	1473377906394	NA	69
109689	1197507	Mochrie remained steady in the face of the upheaval.	Mochrie remained steady in the face of the upheaval.	56942978	1473377905725	1473377906400	NA	65
109689	1197507	Mochrie remained steady in the face of the upheaval.	Mochrie remained steady in the face of the upheaval.	56942983	1473377906396	1473377906411	NA	86
109689	1197507	Mochrie remained steady in the face of the upheaval.	Mochrie remained steady in the face of the upheaval.	56943032	1473377906483	1473377906575	NA	76
109689	1197507	Mochrie remained steady in the face of the upheaval.	Mochrie remained steady in the face of the upheaval.	56943034	1473377907252	1473377907350		8
109689	1197507	Mochrie remained steady in the face of the upheaval.	Mochrie remained steady in the face of the upheaval.	56943037	1473377907410	1473377907529		8
109689	1197507	Mochrie remained steady in the face of the upheaval.	Mochrie remained steady in the face of the upheaval.	56943040	1473377907542	1473377907647		8
109689	1197507	Mochrie remained steady in the face of the upheaval.	Mochrie remained steady in the face of the upheaval.	56943043	1473377907641	1473377907783	NA	65
109689	1197507	Mochrie remained steady in the face of the upheaval.	Mochrie remained steady in the face of the upheaval.	56943055	1473377907739	1473377907874	NA	76
109689	1197507	Mochrie remained steady in the face of the upheaval.	Mochrie remained steady in the face of the upheaval.	56943057	1473377907951	1473377908044	NA	190
109689	1197515	France would not join a US military invasion of Haiti.	France would not join a US military invasion of Haiti.	56943297	1473377913675	1473377914250	SHIFT	16
109689	1197515	France would not join a US military invasion of Haiti.	France would not join a US military invasion of Haiti.	56943298	1473377914138	1473377914270	NA	70
109689	1197515	France would not join a US military invasion of Haiti.	France would not join a US military invasion of Haiti.	56943299	1473377914323	1473377914472	NA	82
109689	1197515	France would not join a US military invasion of Haiti.	France would not join a US military invasion of Haiti.	56943300	1473377914427	1473377914569	NA	65
109689	1197515	France would not join a US military invasion of Haiti.	France would not join a US military invasion of Haiti.	56943301	1473377914539	1473377914695	NA	78
109689	1197515	France would not join a US military invasion of Haiti.	France would not join a US military invasion of Haiti.	56943302	1473377914654	1473377914824	NA	67
109689	1197515	France would not join a US military invasion of Haiti.	France would not join a US military invasion of Haiti.	56943306	1473377914876	1473377915086	NA	32
109689	1197515	France would not join a US military invasion of Haiti.	France would not join a US military invasion of Haiti.	56943309	1473377915193	1473377915336	NA	87
109689	1197515	France would not join a US military invasion of Haiti.	France would not join a US military invasion of Haiti.	56943314	1473377915310	1473377915472	NA	79
109689	1197515	France would not join a US military invasion of Haiti.	France would not join a US military invasion of Haiti.	56943332	1473377915437	1473377915557	NA	85
109689	1197515	France would not join a US military invasion of Haiti.	France would not join a US military invasion of Haiti.	56943333	1473377915551	1473377915700	NA	76
109689	1197515	France would not join a US military invasion of Haiti.	France would not join a US military invasion of Haiti.	56943336	1473377915659	1473377915802	NA	68
109689	1197515	France would not join a US military invasion of Haiti.	France would not join a US military invasion of Haiti.	56943339	1473377915752	1473377915898	NA	32
109689	1197515	France would not join a US military invasion of Haiti.	France would not join a US military invasion of Haiti.	56943341	1473377915842	1473377915998	NA	78
109689	1197515	France would not join a US military invasion of Haiti.	France would not join a US military invasion of Haiti.	56943344	1473377915946	1473377916108	NA	79
109689	1197515	France would not join a US military invasion of Haiti.	France would not join a US military invasion of Haiti.	56943346	1473377916063	1473377916231	NA	84
109689	1197515	France would not join a US military invasion of Haiti.	France would not join a US military invasion of Haiti.	56943348	1473377916138	1473377916301	NA	32
109689	1197515	France would not join a US military invasion of Haiti.	France would not join a US military invasion of Haiti.	56943350	1473377916258	1473377916420	NA	74
109689	1197515	France would not join a US military invasion of Haiti.	France would not join a US military invasion of Haiti.	56943352	1473377916396	1473377916616	NA	79
109689	1197515	France would not join a US military invasion of Haiti.	France would not join a US military invasion of Haiti.	56943365	1473377916527	1473377916686	NA	73
109689	1197515	France would not join a US military invasion of Haiti.	France would not join a US military invasion of Haiti.	56943370	1473377916593	1473377916800	NA	78
109689	1197515	France would not join a US military invasion of Haiti.	France would not join a US military invasion of Haiti.	56943375	1473377916721	1473377916900	NA	32
109689	1197515	France would not join a US military invasion of Haiti.	France would not join a US military invasion of Haiti.	56943378	1473377916859	1473377917013	NA	65
109689	1197515	France would not join a US military invasion of Haiti.	France would not join a US military invasion of Haiti.	56943383	1473377916974	1473377917140	NA	32
109689	1197515	France would not join a US military invasion of Haiti.	France would not join a US military invasion of Haiti.	56943408	1473377917110	1473377917499	SHIFT	16
109689	1197515	France would not join a US military invasion of Haiti.	France would not join a US military invasion of Haiti.	56943387	1473377917219	1473377917386	NA	85
109689	1197515	France would not join a US military invasion of Haiti.	France would not join a US military invasion of Haiti.	56943411	1473377917362	1473377917514	NA	83
109689	1197515	France would not join a US military invasion of Haiti.	France would not join a US military invasion of Haiti.	56943415	1473377917475	1473377917627	NA	32
109689	1197515	France would not join a US military invasion of Haiti.	France would not join a US military invasion of Haiti.	56943420	1473377917675	1473377917871	NA	77
109689	1197515	France would not join a US military invasion of Haiti.	France would not join a US military invasion of Haiti.	56943426	1473377917832	1473377917982	NA	73
109689	1197515	France would not join a US military invasion of Haiti.	France would not join a US military invasion of Haiti.	56943429	1473377917947	1473377918151	NA	76
109689	1197515	France would not join a US military invasion of Haiti.	France would not join a US military invasion of Haiti.	56943439	1473377918110	1473377918245	NA	73
109689	1197515	France would not join a US military invasion of Haiti.	France would not join a US military invasion of Haiti.	56943441	1473377918283	1473377918439	NA	84
109689	1197515	France would not join a US military invasion of Haiti.	France would not join a US military invasion of Haiti.	56943443	1473377918410	1473377918590	NA	65
109689	1197515	France would not join a US military invasion of Haiti.	France would not join a US military invasion of Haiti.	56943446	1473377918529	1473377918670	NA	82
109689	1197515	France would not join a US military invasion of Haiti.	France would not join a US military invasion of Haiti.	56943447	1473377918660	1473377918815	NA	89
109689	1197515	France would not join a US military invasion of Haiti.	France would not join a US military invasion of Haiti.	56943460	1473377918796	1473377918904	NA	32
109689	1197515	France would not join a US military invasion of Haiti.	France would not join a US military invasion of Haiti.	56943463	1473377918874	1473377919053	NA	73
109689	1197515	France would not join a US military invasion of Haiti.	France would not join a US military invasion of Haiti.	56943467	1473377918969	1473377919111	NA	78
109689	1197515	France would not join a US military invasion of Haiti.	France would not join a US military invasion of Haiti.	56943471	1473377919054	1473377919216	NA	86
109689	1197515	France would not join a US military invasion of Haiti.	France would not join a US military invasion of Haiti.	56943476	1473377919164	1473377919399	NA	65
109689	1197515	France would not join a US military invasion of Haiti.	France would not join a US military invasion of Haiti.	56943507	1473377919333	1473377919510	NA	83
109689	1197515	France would not join a US military invasion of Haiti.	France would not join a US military invasion of Haiti.	56943511	1473377919532	1473377919720	NA	73
109689	1197515	France would not join a US military invasion of Haiti.	France would not join a US military invasion of Haiti.	56943516	1473377919701	1473377919879	NA	79
109689	1197515	France would not join a US military invasion of Haiti.	France would not join a US military invasion of Haiti.	56943521	1473377919839	1473377920040	NA	78
109689	1197515	France would not join a US military invasion of Haiti.	France would not join a US military invasion of Haiti.	56943527	1473377920000	1473377920146	NA	32
109689	1197515	France would not join a US military invasion of Haiti.	France would not join a US military invasion of Haiti.	56943532	1473377920225	1473377920377	NA	79
109689	1197515	France would not join a US military invasion of Haiti.	France would not join a US military invasion of Haiti.	56943547	1473377920347	1473377920509	NA	70
109689	1197515	France would not join a US military invasion of Haiti.	France would not join a US military invasion of Haiti.	56943548	1473377920394	1473377920575	NA	32
109689	1197515	France would not join a US military invasion of Haiti.	France would not join a US military invasion of Haiti.	56943549	1473377920762	1473377921061	SHIFT	16
109689	1197515	France would not join a US military invasion of Haiti.	France would not join a US military invasion of Haiti.	56943551	1473377920965	1473377921084	NA	72
109689	1197515	France would not join a US military invasion of Haiti.	France would not join a US military invasion of Haiti.	56943552	1473377921209	1473377921344	NA	65
109689	1197515	France would not join a US military invasion of Haiti.	France would not join a US military invasion of Haiti.	56943554	1473377921337	1473377921490	NA	73
109689	1197515	France would not join a US military invasion of Haiti.	France would not join a US military invasion of Haiti.	56943600	1473377921483	1473377921660	NA	84
109689	1197515	France would not join a US military invasion of Haiti.	France would not join a US military invasion of Haiti.	56943603	1473377922014	1473377922137	NA	73
109689	1197515	France would not join a US military invasion of Haiti.	France would not join a US military invasion of Haiti.	56943606	1473377922673	1473377922805	NA	190
109689	1197528	What's your phone number?	What's your phone number?	56943777	1473377927780	1473377927968	SHIFT	16
109689	1197528	What's your phone number?	What's your phone number?	56943779	1473377927831	1473377927983	NA	87
109689	1197528	What's your phone number?	What's your phone number?	56943781	1473377928048	1473377928199	NA	72
109689	1197528	What's your phone number?	What's your phone number?	56943783	1473377928118	1473377928301	NA	65
109689	1197528	What's your phone number?	What's your phone number?	56943789	1473377928233	1473377928454	NA	84
109689	1197528	What's your phone number?	What's your phone number?	56943793	1473377928632	1473377928766	NA	222
109689	1197528	What's your phone number?	What's your phone number?	56943784	1473377928705	1473377928843	NA	83
109689	1197528	What's your phone number?	What's your phone number?	56943787	1473377928849	1473377928994	NA	32
109689	1197528	What's your phone number?	What's your phone number?	56943792	1473377929067	1473377929199	NA	89
109689	1197528	What's your phone number?	What's your phone number?	56943795	1473377929194	1473377929367	NA	79
109689	1197528	What's your phone number?	What's your phone number?	56943797	1473377929279	1473377929440	NA	85
109689	1197528	What's your phone number?	What's your phone number?	56943808	1473377929370	1473377929561	NA	82
109689	1197528	What's your phone number?	What's your phone number?	56943810	1473377929449	1473377929616	NA	32
109689	1197528	What's your phone number?	What's your phone number?	56943813	1473377929580	1473377929733	NA	80
109689	1197528	What's your phone number?	What's your phone number?	56943817	1473377929680	1473377929818	NA	72
109689	1197528	What's your phone number?	What's your phone number?	56943819	1473377929829	1473377929983	NA	79
109689	1197528	What's your phone number?	What's your phone number?	56943825	1473377929917	1473377930072	NA	78
109689	1197528	What's your phone number?	What's your phone number?	56943875	1473377930005	1473377931012	NA	69
109689	1197528	What's your phone number?	What's your phone number?	56943830	1473377930122	1473377930281	NA	32
109689	1197528	What's your phone number?	What's your phone number?	56943834	1473377930199	1473377930307	NA	78
109689	1197528	What's your phone number?	What's your phone number?	56943838	1473377930386	1473377930490	NA	85
109689	1197528	What's your phone number?	What's your phone number?	56943841	1473377930559	1473377930660	NA	77
109689	1197528	What's your phone number?	What's your phone number?	56943873	1473377930735	1473377930886	NA	66
109689	1197528	What's your phone number?	What's your phone number?	56943880	1473377930951	1473377931119	NA	82
109689	1197528	What's your phone number?	What's your phone number?	56943883	1473377931069	1473377931258	SHIFT	16
109689	1197528	What's your phone number?	What's your phone number?	56943885	1473377931169	1473377931290	NA	191
109689	1197532	Would you mind taking the lead on this?	Would you mind taking the lead on this?	56944039	1473377935677	1473377935853	SHIFT	16
109689	1197532	Would you mind taking the lead on this?	Would you mind taking the lead on this?	56944040	1473377935782	1473377935936	NA	87
109689	1197532	Would you mind taking the lead on this?	Would you mind taking the lead on this?	56944041	1473377935996	1473377936171	NA	79
109689	1197532	Would you mind taking the lead on this?	Would you mind taking the lead on this?	56944042	1473377936137	1473377936277	NA	85
109689	1197532	Would you mind taking the lead on this?	Would you mind taking the lead on this?	56944043	1473377936302	1473377936442	NA	76
109689	1197532	Would you mind taking the lead on this?	Would you mind taking the lead on this?	56944050	1473377936398	1473377936586	NA	68
109689	1197532	Would you mind taking the lead on this?	Would you mind taking the lead on this?	56944053	1473377936499	1473377936670	NA	32
109689	1197532	Would you mind taking the lead on this?	Would you mind taking the lead on this?	56944056	1473377936631	1473377936764	NA	89
109689	1197532	Would you mind taking the lead on this?	Would you mind taking the lead on this?	56944059	1473377936757	1473377936914	NA	79
109689	1197532	Would you mind taking the lead on this?	Would you mind taking the lead on this?	56944062	1473377936893	1473377936990	NA	85
109689	1197532	Would you mind taking the lead on this?	Would you mind taking the lead on this?	56944075	1473377936946	1473377937090	NA	32
109689	1197532	Would you mind taking the lead on this?	Would you mind taking the lead on this?	56944076	1473377937095	1473377937199	NA	77
109689	1197532	Would you mind taking the lead on this?	Would you mind taking the lead on this?	56944078	1473377937226	1473377937419	NA	73
109689	1197532	Would you mind taking the lead on this?	Would you mind taking the lead on this?	56944081	1473377937348	1473377937493	NA	78
109689	1197532	Would you mind taking the lead on this?	Would you mind taking the lead on this?	56944084	1473377937449	1473377937606	NA	68
109689	1197532	Would you mind taking the lead on this?	Would you mind taking the lead on this?	56944100	1473377937515	1473377937707	NA	32
109689	1197532	Would you mind taking the lead on this?	Would you mind taking the lead on this?	56944103	1473377937639	1473377937804	NA	84
109689	1197532	Would you mind taking the lead on this?	Would you mind taking the lead on this?	56944106	1473377937747	1473377937915	NA	65
109689	1197532	Would you mind taking the lead on this?	Would you mind taking the lead on this?	56944110	1473377937835	1473377937936	NA	75
109689	1197532	Would you mind taking the lead on this?	Would you mind taking the lead on this?	56944115	1473377938072	1473377938187	NA	73
109689	1197532	Would you mind taking the lead on this?	Would you mind taking the lead on this?	56944122	1473377938148	1473377938299	NA	78
109689	1197532	Would you mind taking the lead on this?	Would you mind taking the lead on this?	56944124	1473377938232	1473377938352	NA	71
109689	1197532	Would you mind taking the lead on this?	Would you mind taking the lead on this?	56944126	1473377938312	1473377938500	NA	32
109689	1197532	Would you mind taking the lead on this?	Would you mind taking the lead on this?	56944128	1473377938444	1473377938611	NA	84
109689	1197532	Would you mind taking the lead on this?	Would you mind taking the lead on this?	56944141	1473377938521	1473377938686	NA	72
109689	1197532	Would you mind taking the lead on this?	Would you mind taking the lead on this?	56944148	1473377938600	1473377939057	NA	69
109689	1197532	Would you mind taking the lead on this?	Would you mind taking the lead on this?	56944144	1473377938700	1473377938886	NA	32
109689	1197532	Would you mind taking the lead on this?	Would you mind taking the lead on this?	56944146	1473377938816	1473377939015	NA	76
109689	1197532	Would you mind taking the lead on this?	Would you mind taking the lead on this?	56944153	1473377939051	1473377939236	NA	65
109689	1197532	Would you mind taking the lead on this?	Would you mind taking the lead on this?	56944183	1473377939217	1473377939418	NA	68
109689	1197532	Would you mind taking the lead on this?	Would you mind taking the lead on this?	56944185	1473377939409	1473377939588	NA	32
109689	1197532	Would you mind taking the lead on this?	Would you mind taking the lead on this?	56944187	1473377939651	1473377939786	NA	78
109689	1197532	Would you mind taking the lead on this?	Would you mind taking the lead on this?	56944188	1473377939752	1473377939897	NA	32
109689	1197532	Would you mind taking the lead on this?	Would you mind taking the lead on this?	56944190	1473377939844	1473377939998	NA	84
109689	1197532	Would you mind taking the lead on this?	Would you mind taking the lead on this?	56944202	1473377939918	1473377940063	NA	72
109689	1197532	Would you mind taking the lead on this?	Would you mind taking the lead on this?	56944205	1473377940024	1473377940172	NA	73
109689	1197532	Would you mind taking the lead on this?	Would you mind taking the lead on this?	56944206	1473377940137	1473377940256	NA	83
109689	1197532	Would you mind taking the lead on this?	Would you mind taking the lead on this?	56944207	1473377940360	1473377940534	SHIFT	16
109689	1197532	Would you mind taking the lead on this?	Would you mind taking the lead on this?	56944208	1473377940423	1473377940547	NA	191
109689	1197536	Kay Mann is going to take the lead on this.	Kay Mann is going to take the lead on this.	56944337	1473377944781	1473377945130	SHIFT	16
109689	1197536	Kay Mann is going to take the lead on this.	Kay Mann is going to take the lead on this.	56944341	1473377945010	1473377945153	NA	75
109689	1197536	Kay Mann is going to take the lead on this.	Kay Mann is going to take the lead on this.	56944345	1473377945180	1473377945309	NA	65
109689	1197536	Kay Mann is going to take the lead on this.	Kay Mann is going to take the lead on this.	56944348	1473377945285	1473377945441	NA	89
109689	1197536	Kay Mann is going to take the lead on this.	Kay Mann is going to take the lead on this.	56944352	1473377945417	1473377945575	NA	32
109689	1197536	Kay Mann is going to take the lead on this.	Kay Mann is going to take the lead on this.	56944356	1473377945488	1473377945675	SHIFT	16
109689	1197536	Kay Mann is going to take the lead on this.	Kay Mann is going to take the lead on this.	56944363	1473377945601	1473377945755	NA	77
109689	1197536	Kay Mann is going to take the lead on this.	Kay Mann is going to take the lead on this.	56944364	1473377945767	1473377945907	NA	65
109689	1197536	Kay Mann is going to take the lead on this.	Kay Mann is going to take the lead on this.	56944366	1473377945879	1473377946024	NA	78
109689	1197536	Kay Mann is going to take the lead on this.	Kay Mann is going to take the lead on this.	56944369	1473377946064	1473377946184	NA	78
109689	1197536	Kay Mann is going to take the lead on this.	Kay Mann is going to take the lead on this.	56944373	1473377946167	1473377946325	NA	32
109689	1197536	Kay Mann is going to take the lead on this.	Kay Mann is going to take the lead on this.	56944388	1473377946304	1473377946422	NA	73
109689	1197536	Kay Mann is going to take the lead on this.	Kay Mann is going to take the lead on this.	56944390	1473377946386	1473377946544	NA	83
109689	1197536	Kay Mann is going to take the lead on this.	Kay Mann is going to take the lead on this.	56944393	1473377946478	1473377946654	NA	32
109689	1197536	Kay Mann is going to take the lead on this.	Kay Mann is going to take the lead on this.	56944396	1473377946607	1473377946745	NA	71
109689	1197536	Kay Mann is going to take the lead on this.	Kay Mann is going to take the lead on this.	56944399	1473377946686	1473377946852	NA	79
109689	1197536	Kay Mann is going to take the lead on this.	Kay Mann is going to take the lead on this.	56944407	1473377946769	1473377946939	NA	73
109689	1197536	Kay Mann is going to take the lead on this.	Kay Mann is going to take the lead on this.	56944409	1473377946860	1473377947022	NA	78
109689	1197536	Kay Mann is going to take the lead on this.	Kay Mann is going to take the lead on this.	56944411	1473377946972	1473377947078	NA	71
109689	1197536	Kay Mann is going to take the lead on this.	Kay Mann is going to take the lead on this.	56944413	1473377947012	1473377947198	NA	32
109689	1197536	Kay Mann is going to take the lead on this.	Kay Mann is going to take the lead on this.	56944415	1473377947315	1473377947482	NA	84
109689	1197536	Kay Mann is going to take the lead on this.	Kay Mann is going to take the lead on this.	56944431	1473377947456	1473377947603	NA	79
109689	1197536	Kay Mann is going to take the lead on this.	Kay Mann is going to take the lead on this.	56944433	1473377947565	1473377947735	NA	32
109689	1197536	Kay Mann is going to take the lead on this.	Kay Mann is going to take the lead on this.	56944435	1473377947727	1473377947889	NA	84
109689	1197536	Kay Mann is going to take the lead on this.	Kay Mann is going to take the lead on this.	56944436	1473377947849	1473377947980	NA	65
109689	1197536	Kay Mann is going to take the lead on this.	Kay Mann is going to take the lead on this.	56944437	1473377947920	1473377948077	NA	75
109689	1197536	Kay Mann is going to take the lead on this.	Kay Mann is going to take the lead on this.	56944465	1473377948025	1473377948534	NA	69
109689	1197536	Kay Mann is going to take the lead on this.	Kay Mann is going to take the lead on this.	56944451	1473377948094	1473377948276	NA	32
109689	1197536	Kay Mann is going to take the lead on this.	Kay Mann is going to take the lead on this.	56944456	1473377948212	1473377948354	NA	84
109689	1197536	Kay Mann is going to take the lead on this.	Kay Mann is going to take the lead on this.	56944460	1473377948269	1473377948408	NA	72
109689	1197536	Kay Mann is going to take the lead on this.	Kay Mann is going to take the lead on this.	56944487	1473377948375	1473377948888	NA	69
109689	1197536	Kay Mann is going to take the lead on this.	Kay Mann is going to take the lead on this.	56944478	1473377948456	1473377948648	NA	32
109689	1197536	Kay Mann is going to take the lead on this.	Kay Mann is going to take the lead on this.	56944482	1473377948619	1473377948760	NA	76
109689	1197536	Kay Mann is going to take the lead on this.	Kay Mann is going to take the lead on this.	56944493	1473377948885	1473377949046	NA	65
109689	1197536	Kay Mann is going to take the lead on this.	Kay Mann is going to take the lead on this.	56944499	1473377949003	1473377949143	NA	68
109689	1197536	Kay Mann is going to take the lead on this.	Kay Mann is going to take the lead on this.	56944510	1473377949097	1473377949251	NA	32
109689	1197536	Kay Mann is going to take the lead on this.	Kay Mann is going to take the lead on this.	56944511	1473377949217	1473377949395	NA	79
109689	1197536	Kay Mann is going to take the lead on this.	Kay Mann is going to take the lead on this.	56944512	1473377949317	1473377949453	NA	78
109689	1197536	Kay Mann is going to take the lead on this.	Kay Mann is going to take the lead on this.	56944513	1473377949361	1473377949549	NA	32
109689	1197536	Kay Mann is going to take the lead on this.	Kay Mann is going to take the lead on this.	56944514	1473377949518	1473377949686	NA	84
109689	1197536	Kay Mann is going to take the lead on this.	Kay Mann is going to take the lead on this.	56944547	1473377949610	1473377949767	NA	72
109689	1197536	Kay Mann is going to take the lead on this.	Kay Mann is going to take the lead on this.	56944549	1473377949709	1473377949866	NA	73
109689	1197536	Kay Mann is going to take the lead on this.	Kay Mann is going to take the lead on this.	56944551	1473377949816	1473377949936	NA	83
109689	1197536	Kay Mann is going to take the lead on this.	Kay Mann is going to take the lead on this.	56944554	1473377950028	1473377950208	NA	190
109689	1197542	Ruth, I'll send this spreadsheet as I update it.	Ruth, I'll send this spreadsheet as I update it.	56944717	1473377955300	1473377955938	SHIFT	16
109689	1197542	Ruth, I'll send this spreadsheet as I update it.	Ruth, I'll send this spreadsheet as I update it.	56944722	1473377956444	1473377956687	SHIFT	16
109689	1197542	Ruth, I'll send this spreadsheet as I update it.	Ruth, I'll send this spreadsheet as I update it.	56944728	1473377956605	1473377956751	NA	82
109689	1197542	Ruth, I'll send this spreadsheet as I update it.	Ruth, I'll send this spreadsheet as I update it.	56944732	1473377956774	1473377956907	NA	85
109689	1197542	Ruth, I'll send this spreadsheet as I update it.	Ruth, I'll send this spreadsheet as I update it.	56944738	1473377956879	1473377957005	NA	84
109689	1197542	Ruth, I'll send this spreadsheet as I update it.	Ruth, I'll send this spreadsheet as I update it.	56944744	1473377956962	1473377957095	NA	72
109689	1197542	Ruth, I'll send this spreadsheet as I update it.	Ruth, I'll send this spreadsheet as I update it.	56944747	1473377957137	1473377957272	NA	188
109689	1197542	Ruth, I'll send this spreadsheet as I update it.	Ruth, I'll send this spreadsheet as I update it.	56944770	1473377957243	1473377957409	NA	32
109689	1197542	Ruth, I'll send this spreadsheet as I update it.	Ruth, I'll send this spreadsheet as I update it.	56944772	1473377957388	1473377957555	SHIFT	16
109689	1197542	Ruth, I'll send this spreadsheet as I update it.	Ruth, I'll send this spreadsheet as I update it.	56944776	1473377957487	1473377957623	NA	73
109689	1197542	Ruth, I'll send this spreadsheet as I update it.	Ruth, I'll send this spreadsheet as I update it.	56944778	1473377957942	1473377958035	NA	222
109689	1197542	Ruth, I'll send this spreadsheet as I update it.	Ruth, I'll send this spreadsheet as I update it.	56944780	1473377958228	1473377958393	NA	76
109689	1197542	Ruth, I'll send this spreadsheet as I update it.	Ruth, I'll send this spreadsheet as I update it.	56944782	1473377958447	1473377958570	NA	76
109689	1197542	Ruth, I'll send this spreadsheet as I update it.	Ruth, I'll send this spreadsheet as I update it.	56944796	1473377958549	1473377958720	NA	32
109689	1197542	Ruth, I'll send this spreadsheet as I update it.	Ruth, I'll send this spreadsheet as I update it.	56944799	1473377958701	1473377958888	NA	83
109689	1197542	Ruth, I'll send this spreadsheet as I update it.	Ruth, I'll send this spreadsheet as I update it.	56944843	1473377958851	1473377960185	NA	69
109689	1197542	Ruth, I'll send this spreadsheet as I update it.	Ruth, I'll send this spreadsheet as I update it.	56944805	1473377958955	1473377959088	NA	78
109689	1197542	Ruth, I'll send this spreadsheet as I update it.	Ruth, I'll send this spreadsheet as I update it.	56944807	1473377959063	1473377959184	NA	68
109689	1197542	Ruth, I'll send this spreadsheet as I update it.	Ruth, I'll send this spreadsheet as I update it.	56944816	1473377959151	1473377959311	NA	32
109689	1197542	Ruth, I'll send this spreadsheet as I update it.	Ruth, I'll send this spreadsheet as I update it.	56944817	1473377959254	1473377959376	NA	84
109689	1197542	Ruth, I'll send this spreadsheet as I update it.	Ruth, I'll send this spreadsheet as I update it.	56944820	1473377959307	1473377959455	NA	72
109689	1197542	Ruth, I'll send this spreadsheet as I update it.	Ruth, I'll send this spreadsheet as I update it.	56944823	1473377959384	1473377959559	NA	73
109689	1197542	Ruth, I'll send this spreadsheet as I update it.	Ruth, I'll send this spreadsheet as I update it.	56944826	1473377959463	1473377959615	NA	83
109689	1197542	Ruth, I'll send this spreadsheet as I update it.	Ruth, I'll send this spreadsheet as I update it.	56944828	1473377959528	1473377959700	NA	32
109689	1197542	Ruth, I'll send this spreadsheet as I update it.	Ruth, I'll send this spreadsheet as I update it.	56944830	1473377959730	1473377959858	NA	83
109689	1197542	Ruth, I'll send this spreadsheet as I update it.	Ruth, I'll send this spreadsheet as I update it.	56944833	1473377959820	1473377959963	NA	80
109689	1197542	Ruth, I'll send this spreadsheet as I update it.	Ruth, I'll send this spreadsheet as I update it.	56944838	1473377959933	1473377960076	NA	82
109689	1197542	Ruth, I'll send this spreadsheet as I update it.	Ruth, I'll send this spreadsheet as I update it.	56944877	1473377960024	1473377961146	NA	69
109689	1197542	Ruth, I'll send this spreadsheet as I update it.	Ruth, I'll send this spreadsheet as I update it.	56944865	1473377960180	1473377960364	NA	65
109689	1197542	Ruth, I'll send this spreadsheet as I update it.	Ruth, I'll send this spreadsheet as I update it.	56944867	1473377960316	1473377960509	NA	68
109689	1197542	Ruth, I'll send this spreadsheet as I update it.	Ruth, I'll send this spreadsheet as I update it.	56944870	1473377960550	1473377960703	NA	83
109689	1197542	Ruth, I'll send this spreadsheet as I update it.	Ruth, I'll send this spreadsheet as I update it.	56944873	1473377960700	1473377960884	NA	72
109689	1197542	Ruth, I'll send this spreadsheet as I update it.	Ruth, I'll send this spreadsheet as I update it.	56944882	1473377961062	1473377961323	NA	69
109689	1197542	Ruth, I'll send this spreadsheet as I update it.	Ruth, I'll send this spreadsheet as I update it.	56944998	1473377961207	1473377963643	NA	69
109689	1197542	Ruth, I'll send this spreadsheet as I update it.	Ruth, I'll send this spreadsheet as I update it.	56944893	1473377961362	1473377961521	NA	84
109689	1197542	Ruth, I'll send this spreadsheet as I update it.	Ruth, I'll send this spreadsheet as I update it.	56944895	1473377961458	1473377961644	NA	32
109689	1197542	Ruth, I'll send this spreadsheet as I update it.	Ruth, I'll send this spreadsheet as I update it.	56944896	1473377961624	1473377961797	NA	65
109689	1197542	Ruth, I'll send this spreadsheet as I update it.	Ruth, I'll send this spreadsheet as I update it.	56944897	1473377961726	1473377961889	NA	83
109689	1197542	Ruth, I'll send this spreadsheet as I update it.	Ruth, I'll send this spreadsheet as I update it.	56944937	1473377961809	1473377961976	NA	32
109689	1197542	Ruth, I'll send this spreadsheet as I update it.	Ruth, I'll send this spreadsheet as I update it.	56944939	1473377961958	1473377962024	NA	73
109689	1197542	Ruth, I'll send this spreadsheet as I update it.	Ruth, I'll send this spreadsheet as I update it.	56944942	1473377962273	1473377962392		8
109689	1197542	Ruth, I'll send this spreadsheet as I update it.	Ruth, I'll send this spreadsheet as I update it.	56944943	1473377962281	1473377962471	SHIFT	16
109689	1197542	Ruth, I'll send this spreadsheet as I update it.	Ruth, I'll send this spreadsheet as I update it.	56944946	1473377962447	1473377962554	NA	73
109689	1197542	Ruth, I'll send this spreadsheet as I update it.	Ruth, I'll send this spreadsheet as I update it.	56944949	1473377962530	1473377962690	NA	32
109689	1197542	Ruth, I'll send this spreadsheet as I update it.	Ruth, I'll send this spreadsheet as I update it.	56944952	1473377962831	1473377962963	NA	85
109689	1197542	Ruth, I'll send this spreadsheet as I update it.	Ruth, I'll send this spreadsheet as I update it.	56944969	1473377962954	1473377963094	NA	80
109689	1197542	Ruth, I'll send this spreadsheet as I update it.	Ruth, I'll send this spreadsheet as I update it.	56944970	1473377963071	1473377963214	NA	68
109689	1197542	Ruth, I'll send this spreadsheet as I update it.	Ruth, I'll send this spreadsheet as I update it.	56944971	1473377963223	1473377963401	NA	65
109689	1197542	Ruth, I'll send this spreadsheet as I update it.	Ruth, I'll send this spreadsheet as I update it.	56944972	1473377963324	1473377963516	NA	84
109689	1197542	Ruth, I'll send this spreadsheet as I update it.	Ruth, I'll send this spreadsheet as I update it.	56945000	1473377963503	1473377963703	NA	32
109689	1197542	Ruth, I'll send this spreadsheet as I update it.	Ruth, I'll send this spreadsheet as I update it.	56945002	1473377963645	1473377963770	NA	73
109689	1197542	Ruth, I'll send this spreadsheet as I update it.	Ruth, I'll send this spreadsheet as I update it.	56945005	1473377963707	1473377963874	NA	84
109689	1197542	Ruth, I'll send this spreadsheet as I update it.	Ruth, I'll send this spreadsheet as I update it.	56945007	1473377963840	1473377963972	NA	190
109689	1197551	Look for McCardell to play well this week and catch a lot of passes.	Look for McCardell to play well this week and catch a lot of passes.	56945211	1473377969887	1473377970149	SHIFT	16
109689	1197551	Look for McCardell to play well this week and catch a lot of passes.	Look for McCardell to play well this week and catch a lot of passes.	56945213	1473377970063	1473377970160	NA	76
109689	1197551	Look for McCardell to play well this week and catch a lot of passes.	Look for McCardell to play well this week and catch a lot of passes.	56945214	1473377970245	1473377970333	NA	79
109689	1197551	Look for McCardell to play well this week and catch a lot of passes.	Look for McCardell to play well this week and catch a lot of passes.	56945216	1473377970400	1473377970545	NA	79
109689	1197551	Look for McCardell to play well this week and catch a lot of passes.	Look for McCardell to play well this week and catch a lot of passes.	56945218	1473377970513	1473377970677	NA	75
109689	1197551	Look for McCardell to play well this week and catch a lot of passes.	Look for McCardell to play well this week and catch a lot of passes.	56945221	1473377970693	1473377970862	NA	32
109689	1197551	Look for McCardell to play well this week and catch a lot of passes.	Look for McCardell to play well this week and catch a lot of passes.	56945239	1473377970881	1473377971016	NA	70
109689	1197551	Look for McCardell to play well this week and catch a lot of passes.	Look for McCardell to play well this week and catch a lot of passes.	56945243	1473377970986	1473377971132	NA	79
109689	1197551	Look for McCardell to play well this week and catch a lot of passes.	Look for McCardell to play well this week and catch a lot of passes.	56945244	1473377971083	1473377971256	NA	82
109689	1197551	Look for McCardell to play well this week and catch a lot of passes.	Look for McCardell to play well this week and catch a lot of passes.	56945245	1473377971165	1473377971362	NA	32
109689	1197551	Look for McCardell to play well this week and catch a lot of passes.	Look for McCardell to play well this week and catch a lot of passes.	56945246	1473377971290	1473377971564	SHIFT	16
109689	1197551	Look for McCardell to play well this week and catch a lot of passes.	Look for McCardell to play well this week and catch a lot of passes.	56945293	1473377971380	1473377971571	NA	77
109689	1197551	Look for McCardell to play well this week and catch a lot of passes.	Look for McCardell to play well this week and catch a lot of passes.	56945297	1473377971851	1473377971991	NA	67
109689	1197551	Look for McCardell to play well this week and catch a lot of passes.	Look for McCardell to play well this week and catch a lot of passes.	56945299	1473377972146	1473377972351	SHIFT	16
109689	1197551	Look for McCardell to play well this week and catch a lot of passes.	Look for McCardell to play well this week and catch a lot of passes.	56945301	1473377972266	1473377972439	NA	67
109689	1197551	Look for McCardell to play well this week and catch a lot of passes.	Look for McCardell to play well this week and catch a lot of passes.	56945303	1473377972522	1473377972684	NA	65
109689	1197551	Look for McCardell to play well this week and catch a lot of passes.	Look for McCardell to play well this week and catch a lot of passes.	56945307	1473377972717	1473377972879	NA	82
109689	1197551	Look for McCardell to play well this week and catch a lot of passes.	Look for McCardell to play well this week and catch a lot of passes.	56945310	1473377972900	1473377973040	NA	68
109689	1197551	Look for McCardell to play well this week and catch a lot of passes.	Look for McCardell to play well this week and catch a lot of passes.	56945404	1473377973133	1473377975112	NA	69
109689	1197551	Look for McCardell to play well this week and catch a lot of passes.	Look for McCardell to play well this week and catch a lot of passes.	56945318	1473377973287	1473377973389	NA	76
109689	1197551	Look for McCardell to play well this week and catch a lot of passes.	Look for McCardell to play well this week and catch a lot of passes.	56945321	1473377973467	1473377973580	NA	76
109689	1197551	Look for McCardell to play well this week and catch a lot of passes.	Look for McCardell to play well this week and catch a lot of passes.	56945324	1473377973558	1473377973734	NA	32
109689	1197551	Look for McCardell to play well this week and catch a lot of passes.	Look for McCardell to play well this week and catch a lot of passes.	56945328	1473377973747	1473377973883	NA	84
109689	1197551	Look for McCardell to play well this week and catch a lot of passes.	Look for McCardell to play well this week and catch a lot of passes.	56945362	1473377973852	1473377973988	NA	79
109689	1197551	Look for McCardell to play well this week and catch a lot of passes.	Look for McCardell to play well this week and catch a lot of passes.	56945364	1473377973943	1473377974103	NA	32
109689	1197551	Look for McCardell to play well this week and catch a lot of passes.	Look for McCardell to play well this week and catch a lot of passes.	56945366	1473377974105	1473377974325	NA	80
109689	1197551	Look for McCardell to play well this week and catch a lot of passes.	Look for McCardell to play well this week and catch a lot of passes.	56945368	1473377974241	1473377974428	NA	76
109689	1197551	Look for McCardell to play well this week and catch a lot of passes.	Look for McCardell to play well this week and catch a lot of passes.	56945372	1473377974448	1473377974622	NA	65
109689	1197551	Look for McCardell to play well this week and catch a lot of passes.	Look for McCardell to play well this week and catch a lot of passes.	56945395	1473377974618	1473377974746	NA	89
109689	1197551	Look for McCardell to play well this week and catch a lot of passes.	Look for McCardell to play well this week and catch a lot of passes.	56945398	1473377974711	1473377974905	NA	32
109689	1197551	Look for McCardell to play well this week and catch a lot of passes.	Look for McCardell to play well this week and catch a lot of passes.	56945401	1473377974833	1473377975022	NA	87
109689	1197551	Look for McCardell to play well this week and catch a lot of passes.	Look for McCardell to play well this week and catch a lot of passes.	56945449	1473377974961	1473377976066	NA	69
109689	1197551	Look for McCardell to play well this week and catch a lot of passes.	Look for McCardell to play well this week and catch a lot of passes.	56945405	1473377975067	1473377975185	NA	76
109689	1197551	Look for McCardell to play well this week and catch a lot of passes.	Look for McCardell to play well this week and catch a lot of passes.	56945406	1473377975215	1473377975338	NA	76
109689	1197551	Look for McCardell to play well this week and catch a lot of passes.	Look for McCardell to play well this week and catch a lot of passes.	56945407	1473377975292	1473377975435	NA	32
109689	1197551	Look for McCardell to play well this week and catch a lot of passes.	Look for McCardell to play well this week and catch a lot of passes.	56945410	1473377975364	1473377975518	NA	84
109689	1197551	Look for McCardell to play well this week and catch a lot of passes.	Look for McCardell to play well this week and catch a lot of passes.	56945413	1473377975448	1473377975614	NA	72
109689	1197551	Look for McCardell to play well this week and catch a lot of passes.	Look for McCardell to play well this week and catch a lot of passes.	56945417	1473377975536	1473377975672	NA	73
109689	1197551	Look for McCardell to play well this week and catch a lot of passes.	Look for McCardell to play well this week and catch a lot of passes.	56945422	1473377975578	1473377975720	NA	83
109689	1197551	Look for McCardell to play well this week and catch a lot of passes.	Look for McCardell to play well this week and catch a lot of passes.	56945445	1473377975711	1473377975878	NA	32
109689	1197551	Look for McCardell to play well this week and catch a lot of passes.	Look for McCardell to play well this week and catch a lot of passes.	56945447	1473377975817	1473377975975	NA	87
109689	1197551	Look for McCardell to play well this week and catch a lot of passes.	Look for McCardell to play well this week and catch a lot of passes.	56945452	1473377975927	1473377976232	NA	69
109689	1197551	Look for McCardell to play well this week and catch a lot of passes.	Look for McCardell to play well this week and catch a lot of passes.	56945578	1473377976121	1473377979696	NA	69
109689	1197551	Look for McCardell to play well this week and catch a lot of passes.	Look for McCardell to play well this week and catch a lot of passes.	56945455	1473377976240	1473377976367	NA	75
109689	1197551	Look for McCardell to play well this week and catch a lot of passes.	Look for McCardell to play well this week and catch a lot of passes.	56945464	1473377976318	1473377976490	NA	32
109689	1197551	Look for McCardell to play well this week and catch a lot of passes.	Look for McCardell to play well this week and catch a lot of passes.	56945466	1473377976441	1473377976605	NA	65
109689	1197551	Look for McCardell to play well this week and catch a lot of passes.	Look for McCardell to play well this week and catch a lot of passes.	56945470	1473377976534	1473377976728	NA	78
109689	1197551	Look for McCardell to play well this week and catch a lot of passes.	Look for McCardell to play well this week and catch a lot of passes.	56945474	1473377976612	1473377976792	NA	68
109689	1197551	Look for McCardell to play well this week and catch a lot of passes.	Look for McCardell to play well this week and catch a lot of passes.	56945478	1473377976728	1473377976908	NA	32
109689	1197551	Look for McCardell to play well this week and catch a lot of passes.	Look for McCardell to play well this week and catch a lot of passes.	56945500	1473377976879	1473377977029	NA	67
109689	1197551	Look for McCardell to play well this week and catch a lot of passes.	Look for McCardell to play well this week and catch a lot of passes.	56945503	1473377977024	1473377977194	NA	65
109689	1197551	Look for McCardell to play well this week and catch a lot of passes.	Look for McCardell to play well this week and catch a lot of passes.	56945506	1473377977145	1473377977270	NA	84
109689	1197551	Look for McCardell to play well this week and catch a lot of passes.	Look for McCardell to play well this week and catch a lot of passes.	56945508	1473377977358	1473377977501	NA	67
109689	1197551	Look for McCardell to play well this week and catch a lot of passes.	Look for McCardell to play well this week and catch a lot of passes.	56945510	1473377977515	1473377977654	NA	72
109689	1197551	Look for McCardell to play well this week and catch a lot of passes.	Look for McCardell to play well this week and catch a lot of passes.	56945523	1473377977592	1473377977777	NA	32
109689	1197551	Look for McCardell to play well this week and catch a lot of passes.	Look for McCardell to play well this week and catch a lot of passes.	56945525	1473377977727	1473377977871	NA	65
109689	1197551	Look for McCardell to play well this week and catch a lot of passes.	Look for McCardell to play well this week and catch a lot of passes.	56945526	1473377977832	1473377977974	NA	32
109689	1197551	Look for McCardell to play well this week and catch a lot of passes.	Look for McCardell to play well this week and catch a lot of passes.	56945528	1473377977924	1473377978034	NA	76
109689	1197551	Look for McCardell to play well this week and catch a lot of passes.	Look for McCardell to play well this week and catch a lot of passes.	56945529	1473377978091	1473377978224	NA	79
109689	1197551	Look for McCardell to play well this week and catch a lot of passes.	Look for McCardell to play well this week and catch a lot of passes.	56945546	1473377978180	1473377978348	NA	84
109689	1197551	Look for McCardell to play well this week and catch a lot of passes.	Look for McCardell to play well this week and catch a lot of passes.	56945549	1473377978258	1473377978432	NA	32
109689	1197551	Look for McCardell to play well this week and catch a lot of passes.	Look for McCardell to play well this week and catch a lot of passes.	56945553	1473377978509	1473377978667	NA	79
109689	1197551	Look for McCardell to play well this week and catch a lot of passes.	Look for McCardell to play well this week and catch a lot of passes.	56945556	1473377978638	1473377978795	NA	70
109689	1197551	Look for McCardell to play well this week and catch a lot of passes.	Look for McCardell to play well this week and catch a lot of passes.	56945558	1473377978726	1473377978916	NA	32
109689	1197551	Look for McCardell to play well this week and catch a lot of passes.	Look for McCardell to play well this week and catch a lot of passes.	56945568	1473377978906	1473377979068	NA	80
109689	1197551	Look for McCardell to play well this week and catch a lot of passes.	Look for McCardell to play well this week and catch a lot of passes.	56945570	1473377979066	1473377979223	NA	65
109689	1197551	Look for McCardell to play well this week and catch a lot of passes.	Look for McCardell to play well this week and catch a lot of passes.	56945572	1473377979182	1473377979306	NA	83
109689	1197551	Look for McCardell to play well this week and catch a lot of passes.	Look for McCardell to play well this week and catch a lot of passes.	56945574	1473377979349	1473377979517	NA	83
109689	1197551	Look for McCardell to play well this week and catch a lot of passes.	Look for McCardell to play well this week and catch a lot of passes.	56945587	1473377979622	1473377979762	NA	83
109689	1197551	Look for McCardell to play well this week and catch a lot of passes.	Look for McCardell to play well this week and catch a lot of passes.	56945589	1473377979713	1473377979849	NA	190
109689	1197563	I will call in 20 to 30 minutes.	I will call in 20 to 30 minutes.	56946241	1473377999575	1473378000222	SHIFT	16
109689	1197563	I will call in 20 to 30 minutes.	I will call in 20 to 30 minutes.	56946243	1473378000181	1473378000300	NA	73
109689	1197563	I will call in 20 to 30 minutes.	I will call in 20 to 30 minutes.	56946246	1473378000287	1473378000475	NA	32
109689	1197563	I will call in 20 to 30 minutes.	I will call in 20 to 30 minutes.	56946249	1473378000408	1473378000619	NA	87
109689	1197563	I will call in 20 to 30 minutes.	I will call in 20 to 30 minutes.	56946251	1473378000616	1473378000670	NA	73
109689	1197563	I will call in 20 to 30 minutes.	I will call in 20 to 30 minutes.	56946253	1473378000874	1473378000985	NA	76
109689	1197563	I will call in 20 to 30 minutes.	I will call in 20 to 30 minutes.	56946240	1473378001049	1473378001168	NA	76
109689	1197563	I will call in 20 to 30 minutes.	I will call in 20 to 30 minutes.	56946242	1473378001159	1473378001358	NA	32
109689	1197563	I will call in 20 to 30 minutes.	I will call in 20 to 30 minutes.	56946244	1473378001323	1473378001506	NA	67
109689	1197563	I will call in 20 to 30 minutes.	I will call in 20 to 30 minutes.	56946247	1473378001450	1473378001606	NA	65
109689	1197563	I will call in 20 to 30 minutes.	I will call in 20 to 30 minutes.	56946245	1473378001560	1473378001704	NA	76
109689	1197563	I will call in 20 to 30 minutes.	I will call in 20 to 30 minutes.	56946248	1473378001820	1473378002050	NA	76
109689	1197563	I will call in 20 to 30 minutes.	I will call in 20 to 30 minutes.	56946250	1473378002052	1473378002110	NA	32
109689	1197563	I will call in 20 to 30 minutes.	I will call in 20 to 30 minutes.	56946252	1473378002093	1473378002261	NA	73
109689	1197563	I will call in 20 to 30 minutes.	I will call in 20 to 30 minutes.	56946254	1473378002202	1473378002368	NA	78
109689	1197563	I will call in 20 to 30 minutes.	I will call in 20 to 30 minutes.	56946271	1473378002352	1473378002524	NA	32
109689	1197563	I will call in 20 to 30 minutes.	I will call in 20 to 30 minutes.	56946272	1473378002542	1473378002715	NA	50
109689	1197563	I will call in 20 to 30 minutes.	I will call in 20 to 30 minutes.	56946273	1473378002691	1473378002839	NA	48
109689	1197563	I will call in 20 to 30 minutes.	I will call in 20 to 30 minutes.	56946274	1473378002920	1473378003096	NA	32
109689	1197563	I will call in 20 to 30 minutes.	I will call in 20 to 30 minutes.	56946275	1473378003083	1473378003215	NA	84
109689	1197563	I will call in 20 to 30 minutes.	I will call in 20 to 30 minutes.	56946280	1473378003153	1473378003297	NA	79
109689	1197563	I will call in 20 to 30 minutes.	I will call in 20 to 30 minutes.	56946282	1473378003246	1473378003448	NA	32
109689	1197563	I will call in 20 to 30 minutes.	I will call in 20 to 30 minutes.	56946283	1473378003519	1473378003668	NA	51
109689	1197563	I will call in 20 to 30 minutes.	I will call in 20 to 30 minutes.	56946284	1473378003660	1473378003808	NA	48
109689	1197563	I will call in 20 to 30 minutes.	I will call in 20 to 30 minutes.	56946286	1473378003854	1473378004021	NA	32
109689	1197563	I will call in 20 to 30 minutes.	I will call in 20 to 30 minutes.	56946289	1473378004115	1473378004283	NA	77
109689	1197563	I will call in 20 to 30 minutes.	I will call in 20 to 30 minutes.	56946300	1473378004272	1473378004404	NA	73
109689	1197563	I will call in 20 to 30 minutes.	I will call in 20 to 30 minutes.	56946303	1473378004349	1473378004467	NA	78
109689	1197563	I will call in 20 to 30 minutes.	I will call in 20 to 30 minutes.	56946304	1473378004535	1473378004667	NA	85
109689	1197563	I will call in 20 to 30 minutes.	I will call in 20 to 30 minutes.	56946305	1473378004614	1473378004768	NA	84
109689	1197563	I will call in 20 to 30 minutes.	I will call in 20 to 30 minutes.	56946370	1473378004773	1473378004927	NA	83
109689	1197563	I will call in 20 to 30 minutes.	I will call in 20 to 30 minutes.	56946371	1473378004856	1473378005010	NA	190
109689	1197583	The two leading candidates signed a Civility Pact on Tuesday.	The two leading candidates signed a Civility Pact on Tuesday,	56946567	1473378013896	1473378014218	SHIFT	16
109689	1197583	The two leading candidates signed a Civility Pact on Tuesday.	The two leading candidates signed a Civility Pact on Tuesday,	56946568	1473378014073	1473378014271	NA	84
109689	1197583	The two leading candidates signed a Civility Pact on Tuesday.	The two leading candidates signed a Civility Pact on Tuesday,	56946569	1473378014279	1473378014447	NA	72
109689	1197583	The two leading candidates signed a Civility Pact on Tuesday.	The two leading candidates signed a Civility Pact on Tuesday,	56946610	1473378014350	1473378015569	NA	69
109689	1197583	The two leading candidates signed a Civility Pact on Tuesday.	The two leading candidates signed a Civility Pact on Tuesday,	56946572	1473378014569	1473378014741	NA	32
109689	1197583	The two leading candidates signed a Civility Pact on Tuesday.	The two leading candidates signed a Civility Pact on Tuesday,	56946574	1473378014895	1473378015034	NA	84
109689	1197583	The two leading candidates signed a Civility Pact on Tuesday.	The two leading candidates signed a Civility Pact on Tuesday,	56946598	1473378014992	1473378015157	NA	87
109689	1197583	The two leading candidates signed a Civility Pact on Tuesday.	The two leading candidates signed a Civility Pact on Tuesday,	56946600	1473378015121	1473378015257	NA	79
109689	1197583	The two leading candidates signed a Civility Pact on Tuesday.	The two leading candidates signed a Civility Pact on Tuesday,	56946602	1473378015223	1473378015379	NA	32
109689	1197583	The two leading candidates signed a Civility Pact on Tuesday.	The two leading candidates signed a Civility Pact on Tuesday,	56946605	1473378015335	1473378015484	NA	76
109689	1197583	The two leading candidates signed a Civility Pact on Tuesday.	The two leading candidates signed a Civility Pact on Tuesday,	56946689	1473378015416	1473378017522	NA	69
109689	1197583	The two leading candidates signed a Civility Pact on Tuesday.	The two leading candidates signed a Civility Pact on Tuesday,	56946606	1473378015538	1473378015763	NA	65
109689	1197583	The two leading candidates signed a Civility Pact on Tuesday.	The two leading candidates signed a Civility Pact on Tuesday,	56946609	1473378015663	1473378015786	NA	68
109689	1197583	The two leading candidates signed a Civility Pact on Tuesday.	The two leading candidates signed a Civility Pact on Tuesday,	56946612	1473378015773	1473378015982	NA	73
109689	1197583	The two leading candidates signed a Civility Pact on Tuesday.	The two leading candidates signed a Civility Pact on Tuesday,	56946614	1473378015914	1473378016074	NA	78
109689	1197583	The two leading candidates signed a Civility Pact on Tuesday.	The two leading candidates signed a Civility Pact on Tuesday,	56946633	1473378015998	1473378016136	NA	71
109689	1197583	The two leading candidates signed a Civility Pact on Tuesday.	The two leading candidates signed a Civility Pact on Tuesday,	56946635	1473378016058	1473378016289	NA	32
109689	1197583	The two leading candidates signed a Civility Pact on Tuesday.	The two leading candidates signed a Civility Pact on Tuesday,	56946638	1473378016233	1473378016401	NA	67
109689	1197583	The two leading candidates signed a Civility Pact on Tuesday.	The two leading candidates signed a Civility Pact on Tuesday,	56946641	1473378016339	1473378016487	NA	65
109689	1197583	The two leading candidates signed a Civility Pact on Tuesday.	The two leading candidates signed a Civility Pact on Tuesday,	56946644	1473378016442	1473378016602	NA	78
109689	1197583	The two leading candidates signed a Civility Pact on Tuesday.	The two leading candidates signed a Civility Pact on Tuesday,	56946647	1473378016597	1473378016782	NA	68
109689	1197583	The two leading candidates signed a Civility Pact on Tuesday.	The two leading candidates signed a Civility Pact on Tuesday,	56946650	1473378016783	1473378016893	NA	73
109689	1197583	The two leading candidates signed a Civility Pact on Tuesday.	The two leading candidates signed a Civility Pact on Tuesday,	56946676	1473378016945	1473378017064	NA	68
109689	1197583	The two leading candidates signed a Civility Pact on Tuesday.	The two leading candidates signed a Civility Pact on Tuesday,	56946681	1473378017108	1473378017312	NA	65
109689	1197583	The two leading candidates signed a Civility Pact on Tuesday.	The two leading candidates signed a Civility Pact on Tuesday,	56946685	1473378017196	1473378017386	NA	84
109689	1197583	The two leading candidates signed a Civility Pact on Tuesday.	The two leading candidates signed a Civility Pact on Tuesday,	56946725	1473378017333	1473378018298	NA	69
109689	1197583	The two leading candidates signed a Civility Pact on Tuesday.	The two leading candidates signed a Civility Pact on Tuesday,	56946679	1473378017447	1473378017620	NA	83
109689	1197583	The two leading candidates signed a Civility Pact on Tuesday.	The two leading candidates signed a Civility Pact on Tuesday,	56946682	1473378017583	1473378017772	NA	32
109689	1197583	The two leading candidates signed a Civility Pact on Tuesday.	The two leading candidates signed a Civility Pact on Tuesday,	56946687	1473378017740	1473378017871	NA	83
109689	1197583	The two leading candidates signed a Civility Pact on Tuesday.	The two leading candidates signed a Civility Pact on Tuesday,	56946690	1473378017846	1473378018001	NA	73
109689	1197583	The two leading candidates signed a Civility Pact on Tuesday.	The two leading candidates signed a Civility Pact on Tuesday,	56946693	1473378017961	1473378018108	NA	71
109689	1197583	The two leading candidates signed a Civility Pact on Tuesday.	The two leading candidates signed a Civility Pact on Tuesday,	56946723	1473378018078	1473378018240	NA	78
109689	1197583	The two leading candidates signed a Civility Pact on Tuesday.	The two leading candidates signed a Civility Pact on Tuesday,	56946863	1473378018169	1473378022220	NA	69
109689	1197583	The two leading candidates signed a Civility Pact on Tuesday.	The two leading candidates signed a Civility Pact on Tuesday,	56946727	1473378018352	1473378018500	NA	68
109689	1197583	The two leading candidates signed a Civility Pact on Tuesday.	The two leading candidates signed a Civility Pact on Tuesday,	56946728	1473378018455	1473378018643	NA	32
109689	1197583	The two leading candidates signed a Civility Pact on Tuesday.	The two leading candidates signed a Civility Pact on Tuesday,	56946730	1473378018582	1473378018775	NA	65
109689	1197583	The two leading candidates signed a Civility Pact on Tuesday.	The two leading candidates signed a Civility Pact on Tuesday,	56946751	1473378018715	1473378018868	NA	32
109689	1197583	The two leading candidates signed a Civility Pact on Tuesday.	The two leading candidates signed a Civility Pact on Tuesday,	56946752	1473378018995	1473378019231	SHIFT	16
109689	1197583	The two leading candidates signed a Civility Pact on Tuesday.	The two leading candidates signed a Civility Pact on Tuesday,	56946753	1473378019150	1473378019293	NA	67
109689	1197583	The two leading candidates signed a Civility Pact on Tuesday.	The two leading candidates signed a Civility Pact on Tuesday,	56946754	1473378019389	1473378019513	NA	73
109689	1197583	The two leading candidates signed a Civility Pact on Tuesday.	The two leading candidates signed a Civility Pact on Tuesday,	56946755	1473378019543	1473378019715	NA	86
109689	1197583	The two leading candidates signed a Civility Pact on Tuesday.	The two leading candidates signed a Civility Pact on Tuesday,	56946756	1473378019689	1473378019844	NA	73
109689	1197583	The two leading candidates signed a Civility Pact on Tuesday.	The two leading candidates signed a Civility Pact on Tuesday,	56946757	1473378019858	1473378020078	NA	76
109689	1197583	The two leading candidates signed a Civility Pact on Tuesday.	The two leading candidates signed a Civility Pact on Tuesday,	56946775	1473378020035	1473378020169	NA	73
109689	1197583	The two leading candidates signed a Civility Pact on Tuesday.	The two leading candidates signed a Civility Pact on Tuesday,	56946776	1473378020218	1473378020379	NA	84
109689	1197583	The two leading candidates signed a Civility Pact on Tuesday.	The two leading candidates signed a Civility Pact on Tuesday,	56946777	1473378020379	1473378020475	NA	89
109689	1197583	The two leading candidates signed a Civility Pact on Tuesday.	The two leading candidates signed a Civility Pact on Tuesday,	56946778	1473378020468	1473378020634	NA	32
109689	1197583	The two leading candidates signed a Civility Pact on Tuesday.	The two leading candidates signed a Civility Pact on Tuesday,	56946779	1473378020565	1473378020710	SHIFT	16
109689	1197583	The two leading candidates signed a Civility Pact on Tuesday.	The two leading candidates signed a Civility Pact on Tuesday,	56946780	1473378020644	1473378020781	NA	80
109689	1197583	The two leading candidates signed a Civility Pact on Tuesday.	The two leading candidates signed a Civility Pact on Tuesday,	56946781	1473378020814	1473378020961	NA	65
109689	1197583	The two leading candidates signed a Civility Pact on Tuesday.	The two leading candidates signed a Civility Pact on Tuesday,	56946829	1473378020925	1473378021057	NA	67
109689	1197583	The two leading candidates signed a Civility Pact on Tuesday.	The two leading candidates signed a Civility Pact on Tuesday,	56946830	1473378021140	1473378021296	NA	84
109689	1197583	The two leading candidates signed a Civility Pact on Tuesday.	The two leading candidates signed a Civility Pact on Tuesday,	56946832	1473378021231	1473378021401	NA	32
109689	1197583	The two leading candidates signed a Civility Pact on Tuesday.	The two leading candidates signed a Civility Pact on Tuesday,	56946834	1473378021373	1473378021527	NA	79
109689	1197583	The two leading candidates signed a Civility Pact on Tuesday.	The two leading candidates signed a Civility Pact on Tuesday,	56946848	1473378021461	1473378021604	NA	78
109689	1197583	The two leading candidates signed a Civility Pact on Tuesday.	The two leading candidates signed a Civility Pact on Tuesday,	56946849	1473378021517	1473378021683	NA	32
109689	1197583	The two leading candidates signed a Civility Pact on Tuesday.	The two leading candidates signed a Civility Pact on Tuesday,	56946852	1473378021645	1473378021873	SHIFT	16
109689	1197583	The two leading candidates signed a Civility Pact on Tuesday.	The two leading candidates signed a Civility Pact on Tuesday,	56946855	1473378021796	1473378021952	NA	84
109689	1197583	The two leading candidates signed a Civility Pact on Tuesday.	The two leading candidates signed a Civility Pact on Tuesday,	56946858	1473378021977	1473378022110	NA	85
109689	1197583	The two leading candidates signed a Civility Pact on Tuesday.	The two leading candidates signed a Civility Pact on Tuesday,	56946866	1473378022173	1473378022382	NA	83
109689	1197583	The two leading candidates signed a Civility Pact on Tuesday.	The two leading candidates signed a Civility Pact on Tuesday,	56946869	1473378022383	1473378022538	NA	68
109689	1197583	The two leading candidates signed a Civility Pact on Tuesday.	The two leading candidates signed a Civility Pact on Tuesday,	56946897	1473378022481	1473378022652	NA	65
109689	1197583	The two leading candidates signed a Civility Pact on Tuesday.	The two leading candidates signed a Civility Pact on Tuesday,	56946901	1473378022615	1473378022740	NA	89
109689	1197583	The two leading candidates signed a Civility Pact on Tuesday.	The two leading candidates signed a Civility Pact on Tuesday,	56946903	1473378023229	1473378023285	NA	188
