PARTICIPANT_ID	TEST_SECTION_ID	SENTENCE	USER_INPUT	KEYSTROKE_ID	PRESS_TIME	RELEASE_TIME	LETTER	KEYCODE
109986	1200284	It was great to finally meet you.	It was great to finally meet you. 	57073260	1473381163750	1473381163884	SHIFT	16
109986	1200284	It was great to finally meet you.	It was great to finally meet you. 	57073264	1473381163813	1473381163895	I	73
109986	1200284	It was great to finally meet you.	It was great to finally meet you. 	57073268	1473381163958	1473381164060	t	84
109986	1200284	It was great to finally meet you.	It was great to finally meet you. 	57073270	1473381164068	1473381164141	 	32
109986	1200284	It was great to finally meet you.	It was great to finally meet you. 	57073276	1473381164212	1473381164320	w	87
109986	1200284	It was great to finally meet you.	It was great to finally meet you. 	57073279	1473381164327	1473381164469	a	65
109986	1200284	It was great to finally meet you.	It was great to finally meet you. 	57073308	1473381164392	1473381164520	s	83
109986	1200284	It was great to finally meet you.	It was great to finally meet you. 	57073315	1473381164527	1473381164633	 	32
109986	1200284	It was great to finally meet you.	It was great to finally meet you. 	57073321	1473381164761	1473381164833	g	71
109986	1200284	It was great to finally meet you.	It was great to finally meet you. 	57073327	1473381164921	1473381165007	r	82
109986	1200284	It was great to finally meet you.	It was great to finally meet you. 	57073333	1473381165016	1473381165167	e	69
109986	1200284	It was great to finally meet you.	It was great to finally meet you. 	57073355	1473381165100	1473381165187	a	65
109986	1200284	It was great to finally meet you.	It was great to finally meet you. 	57073358	1473381165140	1473381165272	t	84
109986	1200284	It was great to finally meet you.	It was great to finally meet you. 	57073363	1473381165260	1473381165332	 	32
109986	1200284	It was great to finally meet you.	It was great to finally meet you. 	57073368	1473381165380	1473381165497	t	84
109986	1200284	It was great to finally meet you.	It was great to finally meet you. 	57073372	1473381165479	1473381165571	o	79
109986	1200284	It was great to finally meet you.	It was great to finally meet you. 	57073376	1473381165559	1473381165641	 	32
109986	1200284	It was great to finally meet you.	It was great to finally meet you. 	57073380	1473381165654	1473381165796	f	70
109986	1200284	It was great to finally meet you.	It was great to finally meet you. 	57073387	1473381165764	1473381165920	i	73
109986	1200284	It was great to finally meet you.	It was great to finally meet you. 	57073389	1473381165850	1473381165921	n	78
109986	1200284	It was great to finally meet you.	It was great to finally meet you. 	57073392	1473381165943	1473381166100	a	65
109986	1200284	It was great to finally meet you.	It was great to finally meet you. 	57073395	1473381166038	1473381166110	l	76
109986	1200284	It was great to finally meet you.	It was great to finally meet you. 	57073400	1473381166178	1473381166299	l	76
109986	1200284	It was great to finally meet you.	It was great to finally meet you. 	57073435	1473381166263	1473381166344	y	89
109986	1200284	It was great to finally meet you.	It was great to finally meet you. 	57073443	1473381166333	1473381166409	 	32
109986	1200284	It was great to finally meet you.	It was great to finally meet you. 	57073451	1473381166487	1473381166574	m	77
109986	1200284	It was great to finally meet you.	It was great to finally meet you. 	57073455	1473381166582	1473381166644	e	69
109986	1200284	It was great to finally meet you.	It was great to finally meet you. 	57073459	1473381166732	1473381166843	e	69
109986	1200284	It was great to finally meet you.	It was great to finally meet you. 	57073464	1473381166851	1473381166943	t	84
109986	1200284	It was great to finally meet you.	It was great to finally meet you. 	57073485	1473381166971	1473381167100	 	32
109986	1200284	It was great to finally meet you.	It was great to finally meet you. 	57073487	1473381167056	1473381167128	y	89
109986	1200284	It was great to finally meet you.	It was great to finally meet you. 	57073490	1473381167151	1473381167258	o	79
109986	1200284	It was great to finally meet you.	It was great to finally meet you. 	57073492	1473381167211	1473381167302	u	85
109986	1200284	It was great to finally meet you.	It was great to finally meet you. 	57073494	1473381167415	1473381167537	.	190
109986	1200284	It was great to finally meet you.	It was great to finally meet you. 	57073504	1473381167485	1473381167566	 	32
109986	1200300	Please feel free to add to it if I missed something.	Please feel free to add to it if I missed something. 	57073667	1473381170524	1473381170676	SHIFT	16
109986	1200300	Please feel free to add to it if I missed something.	Please feel free to add to it if I missed something. 	57073670	1473381170633	1473381170700	P	80
109986	1200300	Please feel free to add to it if I missed something.	Please feel free to add to it if I missed something. 	57073672	1473381170832	1473381170924	l	76
109986	1200300	Please feel free to add to it if I missed something.	Please feel free to add to it if I missed something. 	57073675	1473381170977	1473381171040	e	69
109986	1200300	Please feel free to add to it if I missed something.	Please feel free to add to it if I missed something. 	57073683	1473381171067	1473381171228	a	65
109986	1200300	Please feel free to add to it if I missed something.	Please feel free to add to it if I missed something. 	57073716	1473381171197	1473381171323	s	83
109986	1200300	Please feel free to add to it if I missed something.	Please feel free to add to it if I missed something. 	57073718	1473381171276	1473381171394	e	69
109986	1200300	Please feel free to add to it if I missed something.	Please feel free to add to it if I missed something. 	57073721	1473381171381	1473381171463	 	32
109986	1200300	Please feel free to add to it if I missed something.	Please feel free to add to it if I missed something. 	57073724	1473381171516	1473381171582	f	70
109986	1200300	Please feel free to add to it if I missed something.	Please feel free to add to it if I missed something. 	57073728	1473381171645	1473381171717	e	69
109986	1200300	Please feel free to add to it if I missed something.	Please feel free to add to it if I missed something. 	57073732	1473381171825	1473381171922	e	69
109986	1200300	Please feel free to add to it if I missed something.	Please feel free to add to it if I missed something. 	57073752	1473381171890	1473381171992	l	76
109986	1200300	Please feel free to add to it if I missed something.	Please feel free to add to it if I missed something. 	57073753	1473381171980	1473381172056	 	32
109986	1200300	Please feel free to add to it if I missed something.	Please feel free to add to it if I missed something. 	57073756	1473381172064	1473381172121	f	70
109986	1200300	Please feel free to add to it if I missed something.	Please feel free to add to it if I missed something. 	57073759	1473381172204	1473381172325	r	82
109986	1200300	Please feel free to add to it if I missed something.	Please feel free to add to it if I missed something. 	57073766	1473381172309	1473381172381	e	69
109986	1200300	Please feel free to add to it if I missed something.	Please feel free to add to it if I missed something. 	57073772	1473381172469	1473381172565	e	69
109986	1200300	Please feel free to add to it if I missed something.	Please feel free to add to it if I missed something. 	57073794	1473381172613	1473381172695	 	32
109986	1200300	Please feel free to add to it if I missed something.	Please feel free to add to it if I missed something. 	57073796	1473381172703	1473381172810	t	84
109986	1200300	Please feel free to add to it if I missed something.	Please feel free to add to it if I missed something. 	57073799	1473381172823	1473381172901	o	79
109986	1200300	Please feel free to add to it if I missed something.	Please feel free to add to it if I missed something. 	57073800	1473381172888	1473381172969	 	32
109986	1200300	Please feel free to add to it if I missed something.	Please feel free to add to it if I missed something. 	57073801	1473381172977	1473381173044	a	65
109986	1200300	Please feel free to add to it if I missed something.	Please feel free to add to it if I missed something. 	57073902	1473381173092	1473381173135	a	65
109986	1200300	Please feel free to add to it if I missed something.	Please feel free to add to it if I missed something. 	57073906	1473381173142	1473381173254	d	68
109986	1200300	Please feel free to add to it if I missed something.	Please feel free to add to it if I missed something. 	57073914	1473381173356	1473381173468	d	68
109986	1200300	Please feel free to add to it if I missed something.	Please feel free to add to it if I missed something. 	57073923	1473381173487	1473381173573	 	32
109986	1200300	Please feel free to add to it if I missed something.	Please feel free to add to it if I missed something. 	57073932	1473381173891	1473381173957	BKSP	8
109986	1200300	Please feel free to add to it if I missed something.	Please feel free to add to it if I missed something. 	57073938	1473381174025	1473381174087	BKSP	8
109986	1200300	Please feel free to add to it if I missed something.	Please feel free to add to it if I missed something. 	57073942	1473381174165	1473381174233	BKSP	8
109986	1200300	Please feel free to add to it if I missed something.	Please feel free to add to it if I missed something. 	57073943	1473381174299	1473381174368	BKSP	8
109986	1200300	Please feel free to add to it if I missed something.	Please feel free to add to it if I missed something. 	57073944	1473381174449	1473381174532	d	68
109986	1200300	Please feel free to add to it if I missed something.	Please feel free to add to it if I missed something. 	57073945	1473381174604	1473381174700	d	68
109986	1200300	Please feel free to add to it if I missed something.	Please feel free to add to it if I missed something. 	57073953	1473381174739	1473381174815	 	32
109986	1200300	Please feel free to add to it if I missed something.	Please feel free to add to it if I missed something. 	57073962	1473381174864	1473381174955	t	84
109986	1200300	Please feel free to add to it if I missed something.	Please feel free to add to it if I missed something. 	57073972	1473381174963	1473381175031	o	79
109986	1200300	Please feel free to add to it if I missed something.	Please feel free to add to it if I missed something. 	57073981	1473381175038	1473381175104	 	32
109986	1200300	Please feel free to add to it if I missed something.	Please feel free to add to it if I missed something. 	57074020	1473381175212	1473381175299	i	73
109986	1200300	Please feel free to add to it if I missed something.	Please feel free to add to it if I missed something. 	57074022	1473381175307	1473381175369	t	84
109986	1200300	Please feel free to add to it if I missed something.	Please feel free to add to it if I missed something. 	57074028	1473381175377	1473381175449	 	32
109986	1200300	Please feel free to add to it if I missed something.	Please feel free to add to it if I missed something. 	57074033	1473381175492	1473381175573	i	73
109986	1200300	Please feel free to add to it if I missed something.	Please feel free to add to it if I missed something. 	57074039	1473381175661	1473381175758	f	70
109986	1200300	Please feel free to add to it if I missed something.	Please feel free to add to it if I missed something. 	57074066	1473381175771	1473381175843	 	32
109986	1200300	Please feel free to add to it if I missed something.	Please feel free to add to it if I missed something. 	57074070	1473381175886	1473381176033	SHIFT	16
109986	1200300	Please feel free to add to it if I missed something.	Please feel free to add to it if I missed something. 	57074075	1473381175981	1473381176047	I	73
109986	1200300	Please feel free to add to it if I missed something.	Please feel free to add to it if I missed something. 	57074079	1473381176056	1473381176142	 	32
109986	1200300	Please feel free to add to it if I missed something.	Please feel free to add to it if I missed something. 	57074082	1473381176169	1473381176272	m	77
109986	1200300	Please feel free to add to it if I missed something.	Please feel free to add to it if I missed something. 	57074101	1473381176240	1473381176326	i	73
109986	1200300	Please feel free to add to it if I missed something.	Please feel free to add to it if I missed something. 	57074104	1473381176305	1473381176367	s	83
109986	1200300	Please feel free to add to it if I missed something.	Please feel free to add to it if I missed something. 	57074107	1473381176449	1473381176561	s	83
109986	1200300	Please feel free to add to it if I missed something.	Please feel free to add to it if I missed something. 	57074110	1473381176569	1473381176641	e	69
109986	1200300	Please feel free to add to it if I missed something.	Please feel free to add to it if I missed something. 	57074114	1473381176719	1473381176821	d	68
109986	1200300	Please feel free to add to it if I missed something.	Please feel free to add to it if I missed something. 	57074127	1473381176809	1473381176886	 	32
109986	1200300	Please feel free to add to it if I missed something.	Please feel free to add to it if I missed something. 	57074132	1473381176904	1473381177010	s	83
109986	1200300	Please feel free to add to it if I missed something.	Please feel free to add to it if I missed something. 	57074136	1473381177024	1473381177150	o	79
109986	1200300	Please feel free to add to it if I missed something.	Please feel free to add to it if I missed something. 	57074141	1473381177098	1473381177191	m	77
109986	1200300	Please feel free to add to it if I missed something.	Please feel free to add to it if I missed something. 	57074144	1473381177173	1473381177270	e	69
109986	1200300	Please feel free to add to it if I missed something.	Please feel free to add to it if I missed something. 	57074147	1473381177278	1473381177349	t	84
109986	1200300	Please feel free to add to it if I missed something.	Please feel free to add to it if I missed something. 	57074162	1473381177332	1473381177385	h	72
109986	1200300	Please feel free to add to it if I missed something.	Please feel free to add to it if I missed something. 	57074166	1473381177392	1473381177504	i	73
109986	1200300	Please feel free to add to it if I missed something.	Please feel free to add to it if I missed something. 	57074171	1473381177462	1473381177564	n	78
109986	1200300	Please feel free to add to it if I missed something.	Please feel free to add to it if I missed something. 	57074176	1473381177542	1473381177619	g	71
109986	1200300	Please feel free to add to it if I missed something.	Please feel free to add to it if I missed something. 	57074180	1473381177723	1473381177838	.	190
109986	1200300	Please feel free to add to it if I missed something.	Please feel free to add to it if I missed something. 	57074182	1473381177806	1473381177893	 	32
109986	1200314	I think I'm OK.	I think I'm OK. 	57074337	1473381179618	1473381179755	SHIFT	16
109986	1200314	I think I'm OK.	I think I'm OK. 	57074344	1473381179718	1473381179779	I	73
109986	1200314	I think I'm OK.	I think I'm OK. 	57074353	1473381179787	1473381179844	 	32
109986	1200314	I think I'm OK.	I think I'm OK. 	57074361	1473381179942	1473381180072	t	84
109986	1200314	I think I'm OK.	I think I'm OK. 	57074369	1473381180001	1473381180137	k	75
109986	1200314	I think I'm OK.	I think I'm OK. 	57074370	1473381180087	1473381180321	 	32
109986	1200314	I think I'm OK.	I think I'm OK. 	57074365	1473381180173	1473381180238	BKSP	8
109986	1200314	I think I'm OK.	I think I'm OK. 	57074374	1473381180295	1473381180322	BKSP	8
109986	1200314	I think I'm OK.	I think I'm OK. 	57074379	1473381180323	1473381180326	BKSP	8
109986	1200314	I think I'm OK.	I think I'm OK. 	57074383	1473381180331	1473381180332	t	84
109986	1200314	I think I'm OK.	I think I'm OK. 	57074385	1473381180335	1473381180336	h	72
109986	1200314	I think I'm OK.	I think I'm OK. 	57074390	1473381180336	1473381180337	i	73
109986	1200314	I think I'm OK.	I think I'm OK. 	57074395	1473381180338	1473381180339	n	78
109986	1200314	I think I'm OK.	I think I'm OK. 	57074403	1473381180339	1473381180340	k	75
109986	1200314	I think I'm OK.	I think I'm OK. 	57074469	1473381181009	1473381181086	 	32
109986	1200314	I think I'm OK.	I think I'm OK. 	57074479	1473381181139	1473381181282	SHIFT	16
109986	1200314	I think I'm OK.	I think I'm OK. 	57074487	1473381181219	1473381181290	I	73
109986	1200314	I think I'm OK.	I think I'm OK. 	57074494	1473381181343	1473381181446	'	222
109986	1200314	I think I'm OK.	I think I'm OK. 	57074498	1473381181428	1473381181505	m	77
109986	1200314	I think I'm OK.	I think I'm OK. 	57074581	1473381181488	1473381181581	 	32
109986	1200314	I think I'm OK.	I think I'm OK. 	57074587	1473381181663	1473381181739	o	79
109986	1200314	I think I'm OK.	I think I'm OK. 	57074591	1473381181797	1473381181884	k	75
109986	1200314	I think I'm OK.	I think I'm OK. 	57074595	1473381182191	1473381182243	BKSP	8
109986	1200314	I think I'm OK.	I think I'm OK. 	57074601	1473381182301	1473381182383	BKSP	8
109986	1200314	I think I'm OK.	I think I'm OK. 	57074610	1473381182406	1473381182767	SHIFT	16
109986	1200314	I think I'm OK.	I think I'm OK. 	57074604	1473381182516	1473381182582	O	79
109986	1200314	I think I'm OK.	I think I'm OK. 	57074607	1473381182656	1473381182727	K	75
109986	1200314	I think I'm OK.	I think I'm OK. 	57074613	1473381182840	1473381182892	y	89
109986	1200314	I think I'm OK.	I think I'm OK. 	57074649	1473381183215	1473381183281	BKSP	8
109986	1200314	I think I'm OK.	I think I'm OK. 	57074652	1473381183414	1473381183500	.	190
109986	1200314	I think I'm OK.	I think I'm OK. 	57074658	1473381183558	1473381183650	 	32
109986	1200321	Yes I am coming twice.	Yes I am coming twice.	57074874	1473381185753	1473381185926	SHIFT	16
109986	1200321	Yes I am coming twice.	Yes I am coming twice.	57074876	1473381185878	1473381185935	Y	89
109986	1200321	Yes I am coming twice.	Yes I am coming twice.	57074880	1473381185943	1473381186045	e	69
109986	1200321	Yes I am coming twice.	Yes I am coming twice.	57074882	1473381186138	1473381186244	s	83
109986	1200321	Yes I am coming twice.	Yes I am coming twice.	57074886	1473381186551	1473381186633	 	32
109986	1200321	Yes I am coming twice.	Yes I am coming twice.	57074889	1473381186681	1473381186823	SHIFT	16
109986	1200321	Yes I am coming twice.	Yes I am coming twice.	57074911	1473381186776	1473381186883	I	73
109986	1200321	Yes I am coming twice.	Yes I am coming twice.	57074914	1473381186851	1473381186918	 	32
109986	1200321	Yes I am coming twice.	Yes I am coming twice.	57074919	1473381186936	1473381187072	a	65
109986	1200321	Yes I am coming twice.	Yes I am coming twice.	57074922	1473381187061	1473381187127	m	77
109986	1200321	Yes I am coming twice.	Yes I am coming twice.	57074927	1473381187135	1473381187217	 	32
109986	1200321	Yes I am coming twice.	Yes I am coming twice.	57074929	1473381187291	1473381187438	c	67
109986	1200321	Yes I am coming twice.	Yes I am coming twice.	57074935	1473381187380	1473381187474	o	79
109986	1200321	Yes I am coming twice.	Yes I am coming twice.	57074938	1473381187454	1473381187546	m	77
109986	1200321	Yes I am coming twice.	Yes I am coming twice.	57074943	1473381187574	1473381187676	i	73
109986	1200321	Yes I am coming twice.	Yes I am coming twice.	57074951	1473381187629	1473381187737	n	78
109986	1200321	Yes I am coming twice.	Yes I am coming twice.	57074960	1473381187744	1473381187821	g	71
109986	1200321	Yes I am coming twice.	Yes I am coming twice.	57074966	1473381187838	1473381187933	 	32
109986	1200321	Yes I am coming twice.	Yes I am coming twice.	57075003	1473381188083	1473381188201	t	84
109986	1200321	Yes I am coming twice.	Yes I am coming twice.	57075011	1473381188233	1473381188336	w	87
109986	1200321	Yes I am coming twice.	Yes I am coming twice.	57075021	1473381188377	1473381188474	i	73
109986	1200321	Yes I am coming twice.	Yes I am coming twice.	57075030	1473381188587	1473381188654	c	67
109986	1200321	Yes I am coming twice.	Yes I am coming twice.	57075036	1473381188766	1473381188828	e	69
109986	1200321	Yes I am coming twice.	Yes I am coming twice.	57075039	1473381188856	1473381188948	.	190
109986	1200325	Our forces are ready to come immediately.	Our forces are ready to come immediately. 	57075180	1473381190911	1473381191108	SHIFT	16
109986	1200325	Our forces are ready to come immediately.	Our forces are ready to come immediately. 	57075182	1473381191046	1473381191148	O	79
109986	1200325	Our forces are ready to come immediately.	Our forces are ready to come immediately. 	57075185	1473381191092	1473381191183	U	85
109986	1200325	Our forces are ready to come immediately.	Our forces are ready to come immediately. 	57075186	1473381191220	1473381191297	r	82
109986	1200325	Our forces are ready to come immediately.	Our forces are ready to come immediately. 	57075188	1473381191305	1473381191397	 	32
109986	1200325	Our forces are ready to come immediately.	Our forces are ready to come immediately. 	57075190	1473381191580	1473381191662	o	79
109986	1200325	Our forces are ready to come immediately.	Our forces are ready to come immediately. 	57075298	1473381191670	1473381191682	r	82
109986	1200325	Our forces are ready to come immediately.	Our forces are ready to come immediately. 	57075300	1473381191884	1473381191946	BKSP	8
109986	1200325	Our forces are ready to come immediately.	Our forces are ready to come immediately. 	57075302	1473381192024	1473381192076	BKSP	8
109986	1200325	Our forces are ready to come immediately.	Our forces are ready to come immediately. 	57075305	1473381192158	1473381192215	BKSP	8
109986	1200325	Our forces are ready to come immediately.	Our forces are ready to come immediately. 	57075308	1473381192289	1473381192350	BKSP	8
109986	1200325	Our forces are ready to come immediately.	Our forces are ready to come immediately. 	57075311	1473381192423	1473381192499	BKSP	8
109986	1200325	Our forces are ready to come immediately.	Our forces are ready to come immediately. 	57075315	1473381192567	1473381192604	BKSP	8
109986	1200325	Our forces are ready to come immediately.	Our forces are ready to come immediately. 	57075320	1473381193066	1473381193225	SHIFT	16
109986	1200325	Our forces are ready to come immediately.	Our forces are ready to come immediately. 	57075327	1473381193152	1473381193268	O	79
109986	1200325	Our forces are ready to come immediately.	Our forces are ready to come immediately. 	57075332	1473381193231	1473381193289	u	85
109986	1200325	Our forces are ready to come immediately.	Our forces are ready to come immediately. 	57075334	1473381193356	1473381193437	r	82
109986	1200325	Our forces are ready to come immediately.	Our forces are ready to come immediately. 	57075338	1473381193460	1473381193542	 	32
109986	1200325	Our forces are ready to come immediately.	Our forces are ready to come immediately. 	57075345	1473381193635	1473381193707	f	70
109986	1200325	Our forces are ready to come immediately.	Our forces are ready to come immediately. 	57075347	1473381193745	1473381193826	o	79
109986	1200325	Our forces are ready to come immediately.	Our forces are ready to come immediately. 	57075353	1473381193815	1473381193888	r	82
109986	1200325	Our forces are ready to come immediately.	Our forces are ready to come immediately. 	57075355	1473381194050	1473381194131	c	67
109986	1200325	Our forces are ready to come immediately.	Our forces are ready to come immediately. 	57075357	1473381194233	1473381194296	e	69
109986	1200325	Our forces are ready to come immediately.	Our forces are ready to come immediately. 	57075370	1473381194338	1473381194435	s	83
109986	1200325	Our forces are ready to come immediately.	Our forces are ready to come immediately. 	57075372	1473381194443	1473381194520	 	32
109986	1200325	Our forces are ready to come immediately.	Our forces are ready to come immediately. 	57075376	1473381194533	1473381194670	a	65
109986	1200325	Our forces are ready to come immediately.	Our forces are ready to come immediately. 	57075377	1473381194613	1473381194721	r	82
109986	1200325	Our forces are ready to come immediately.	Our forces are ready to come immediately. 	57075392	1473381194683	1473381194780	e	69
109986	1200325	Our forces are ready to come immediately.	Our forces are ready to come immediately. 	57075396	1473381194748	1473381194821	 	32
109986	1200325	Our forces are ready to come immediately.	Our forces are ready to come immediately. 	57075402	1473381194887	1473381195005	r	82
109986	1200325	Our forces are ready to come immediately.	Our forces are ready to come immediately. 	57075407	1473381194972	1473381195059	e	69
109986	1200325	Our forces are ready to come immediately.	Our forces are ready to come immediately. 	57075415	1473381195067	1473381195188	a	65
109986	1200325	Our forces are ready to come immediately.	Our forces are ready to come immediately. 	57075436	1473381195176	1473381195299	d	68
109986	1200325	Our forces are ready to come immediately.	Our forces are ready to come immediately. 	57075438	1473381195282	1473381195349	y	89
109986	1200325	Our forces are ready to come immediately.	Our forces are ready to come immediately. 	57075442	1473381195356	1473381195428	 	32
109986	1200325	Our forces are ready to come immediately.	Our forces are ready to come immediately. 	57075447	1473381195476	1473381195625	t	84
109986	1200325	Our forces are ready to come immediately.	Our forces are ready to come immediately. 	57075453	1473381195556	1473381195637	o	79
109986	1200325	Our forces are ready to come immediately.	Our forces are ready to come immediately. 	57075465	1473381195626	1473381195707	 	32
109986	1200325	Our forces are ready to come immediately.	Our forces are ready to come immediately. 	57075469	1473381195695	1473381195777	c	67
109986	1200325	Our forces are ready to come immediately.	Our forces are ready to come immediately. 	57075474	1473381195800	1473381195938	o	79
109986	1200325	Our forces are ready to come immediately.	Our forces are ready to come immediately. 	57075479	1473381195881	1473381195962	m	77
109986	1200325	Our forces are ready to come immediately.	Our forces are ready to come immediately. 	57075482	1473381195940	1473381195997	e	69
109986	1200325	Our forces are ready to come immediately.	Our forces are ready to come immediately. 	57075521	1473381195985	1473381196091	 	32
109986	1200325	Our forces are ready to come immediately.	Our forces are ready to come immediately. 	57075522	1473381196180	1473381196293	i	73
109986	1200325	Our forces are ready to come immediately.	Our forces are ready to come immediately. 	57075523	1473381196274	1473381196341	m	77
109986	1200325	Our forces are ready to come immediately.	Our forces are ready to come immediately. 	57075524	1473381196414	1473381196490	m	77
109986	1200325	Our forces are ready to come immediately.	Our forces are ready to come immediately. 	57075526	1473381196498	1473381196581	e	69
109986	1200325	Our forces are ready to come immediately.	Our forces are ready to come immediately. 	57075528	1473381196649	1473381196765	d	68
109986	1200325	Our forces are ready to come immediately.	Our forces are ready to come immediately. 	57075549	1473381196738	1473381196810	i	73
109986	1200325	Our forces are ready to come immediately.	Our forces are ready to come immediately. 	57075553	1473381196858	1473381197024	a	65
109986	1200325	Our forces are ready to come immediately.	Our forces are ready to come immediately. 	57075557	1473381196997	1473381197129	t	84
109986	1200325	Our forces are ready to come immediately.	Our forces are ready to come immediately. 	57075560	1473381197087	1473381197239	e	69
109986	1200325	Our forces are ready to come immediately.	Our forces are ready to come immediately. 	57075563	1473381197157	1473381197294	l	76
109986	1200325	Our forces are ready to come immediately.	Our forces are ready to come immediately. 	57075591	1473381197252	1473381197328	y	89
109986	1200325	Our forces are ready to come immediately.	Our forces are ready to come immediately. 	57075593	1473381197446	1473381197528	.	190
109986	1200325	Our forces are ready to come immediately.	Our forces are ready to come immediately. 	57075595	1473381197491	1473381197579	 	32
109986	1200338	The meeting came days after the entry into Chernomyrdin's team.	The meeting came days after the entry into Chernomydrin's team. 	57075752	1473381200379	1473381200498	SHIFT	16
109986	1200338	The meeting came days after the entry into Chernomyrdin's team.	The meeting came days after the entry into Chernomydrin's team. 	57075754	1473381200479	1473381200551	T	84
109986	1200338	The meeting came days after the entry into Chernomyrdin's team.	The meeting came days after the entry into Chernomydrin's team. 	57075757	1473381200564	1473381200646	h	72
109986	1200338	The meeting came days after the entry into Chernomyrdin's team.	The meeting came days after the entry into Chernomydrin's team. 	57075760	1473381200616	1473381200721	e	69
109986	1200338	The meeting came days after the entry into Chernomyrdin's team.	The meeting came days after the entry into Chernomydrin's team. 	57075766	1473381200748	1473381200825	 	32
109986	1200338	The meeting came days after the entry into Chernomyrdin's team.	The meeting came days after the entry into Chernomydrin's team. 	57075772	1473381200858	1473381200937	m	77
109986	1200338	The meeting came days after the entry into Chernomyrdin's team.	The meeting came days after the entry into Chernomydrin's team. 	57075801	1473381200953	1473381201006	e	69
109986	1200338	The meeting came days after the entry into Chernomyrdin's team.	The meeting came days after the entry into Chernomydrin's team. 	57075804	1473381201098	1473381201179	e	69
109986	1200338	The meeting came days after the entry into Chernomyrdin's team.	The meeting came days after the entry into Chernomydrin's team. 	57075809	1473381201203	1473381201290	t	84
109986	1200338	The meeting came days after the entry into Chernomyrdin's team.	The meeting came days after the entry into Chernomydrin's team. 	57075814	1473381201352	1473381201470	i	73
109986	1200338	The meeting came days after the entry into Chernomyrdin's team.	The meeting came days after the entry into Chernomydrin's team. 	57075834	1473381201427	1473381201494	n	78
109986	1200338	The meeting came days after the entry into Chernomyrdin's team.	The meeting came days after the entry into Chernomydrin's team. 	57075840	1473381201502	1473381201581	g	71
109986	1200338	The meeting came days after the entry into Chernomyrdin's team.	The meeting came days after the entry into Chernomydrin's team. 	57075848	1473381201591	1473381201663	 	32
109986	1200338	The meeting came days after the entry into Chernomyrdin's team.	The meeting came days after the entry into Chernomydrin's team. 	57075852	1473381201741	1473381201878	c	67
109986	1200338	The meeting came days after the entry into Chernomyrdin's team.	The meeting came days after the entry into Chernomydrin's team. 	57075856	1473381201856	1473381202011	a	65
109986	1200338	The meeting came days after the entry into Chernomyrdin's team.	The meeting came days after the entry into Chernomydrin's team. 	57075860	1473381201996	1473381202092	m	77
109986	1200338	The meeting came days after the entry into Chernomyrdin's team.	The meeting came days after the entry into Chernomydrin's team. 	57075862	1473381202100	1473381202169	e	69
109986	1200338	The meeting came days after the entry into Chernomyrdin's team.	The meeting came days after the entry into Chernomydrin's team. 	57075865	1473381202175	1473381202257	 	32
109986	1200338	The meeting came days after the entry into Chernomyrdin's team.	The meeting came days after the entry into Chernomydrin's team. 	57075868	1473381202280	1473381202445	d	68
109986	1200338	The meeting came days after the entry into Chernomyrdin's team.	The meeting came days after the entry into Chernomydrin's team. 	57075871	1473381202390	1473381202506	a	65
109986	1200338	The meeting came days after the entry into Chernomyrdin's team.	The meeting came days after the entry into Chernomydrin's team. 	57075914	1473381202485	1473381202586	y	89
109986	1200338	The meeting came days after the entry into Chernomyrdin's team.	The meeting came days after the entry into Chernomydrin's team. 	57075921	1473381202599	1473381202702	s	83
109986	1200338	The meeting came days after the entry into Chernomyrdin's team.	The meeting came days after the entry into Chernomydrin's team. 	57075926	1473381202709	1473381202786	 	32
109986	1200338	The meeting came days after the entry into Chernomyrdin's team.	The meeting came days after the entry into Chernomydrin's team. 	57075930	1473381203023	1473381203150	a	65
109986	1200338	The meeting came days after the entry into Chernomyrdin's team.	The meeting came days after the entry into Chernomydrin's team. 	57075932	1473381203113	1473381203195	f	70
109986	1200338	The meeting came days after the entry into Chernomyrdin's team.	The meeting came days after the entry into Chernomydrin's team. 	57075938	1473381203299	1473381203359	t	84
109986	1200338	The meeting came days after the entry into Chernomyrdin's team.	The meeting came days after the entry into Chernomydrin's team. 	57075947	1473381203382	1473381203494	e	69
109986	1200338	The meeting came days after the entry into Chernomyrdin's team.	The meeting came days after the entry into Chernomydrin's team. 	57075953	1473381203467	1473381203549	r	82
109986	1200338	The meeting came days after the entry into Chernomyrdin's team.	The meeting came days after the entry into Chernomydrin's team. 	57075958	1473381203557	1473381203630	 	32
109986	1200338	The meeting came days after the entry into Chernomyrdin's team.	The meeting came days after the entry into Chernomydrin's team. 	57075963	1473381203667	1473381203758	t	84
109986	1200338	The meeting came days after the entry into Chernomyrdin's team.	The meeting came days after the entry into Chernomydrin's team. 	57075973	1473381203723	1473381203801	h	72
109986	1200338	The meeting came days after the entry into Chernomyrdin's team.	The meeting came days after the entry into Chernomydrin's team. 	57075975	1473381203778	1473381203853	e	69
109986	1200338	The meeting came days after the entry into Chernomyrdin's team.	The meeting came days after the entry into Chernomydrin's team. 	57075977	1473381203841	1473381203918	 	32
109986	1200338	The meeting came days after the entry into Chernomyrdin's team.	The meeting came days after the entry into Chernomydrin's team. 	57075980	1473381203966	1473381204053	e	69
109986	1200338	The meeting came days after the entry into Chernomyrdin's team.	The meeting came days after the entry into Chernomydrin's team. 	57075981	1473381204062	1473381204143	n	78
109986	1200338	The meeting came days after the entry into Chernomyrdin's team.	The meeting came days after the entry into Chernomydrin's team. 	57075982	1473381204166	1473381204237	t	84
109986	1200338	The meeting came days after the entry into Chernomyrdin's team.	The meeting came days after the entry into Chernomydrin's team. 	57076006	1473381204320	1473381204432	r	82
109986	1200338	The meeting came days after the entry into Chernomyrdin's team.	The meeting came days after the entry into Chernomydrin's team. 	57076010	1473381204440	1473381204507	y	89
109986	1200338	The meeting came days after the entry into Chernomyrdin's team.	The meeting came days after the entry into Chernomydrin's team. 	57076014	1473381204515	1473381204577	 	32
109986	1200338	The meeting came days after the entry into Chernomyrdin's team.	The meeting came days after the entry into Chernomydrin's team. 	57076021	1473381204719	1473381204816	i	73
109986	1200338	The meeting came days after the entry into Chernomyrdin's team.	The meeting came days after the entry into Chernomydrin's team. 	57076054	1473381204779	1473381204831	n	78
109986	1200338	The meeting came days after the entry into Chernomyrdin's team.	The meeting came days after the entry into Chernomydrin's team. 	57076057	1473381204914	1473381205015	t	84
109986	1200338	The meeting came days after the entry into Chernomyrdin's team.	The meeting came days after the entry into Chernomydrin's team. 	57076061	1473381204994	1473381205070	o	79
109986	1200338	The meeting came days after the entry into Chernomyrdin's team.	The meeting came days after the entry into Chernomydrin's team. 	57076066	1473381205083	1473381205165	 	32
109986	1200338	The meeting came days after the entry into Chernomyrdin's team.	The meeting came days after the entry into Chernomydrin's team. 	57076071	1473381205248	1473381205370	SHIFT	16
109986	1200338	The meeting came days after the entry into Chernomyrdin's team.	The meeting came days after the entry into Chernomydrin's team. 	57076076	1473381205288	1473381205400	C	67
109986	1200338	The meeting came days after the entry into Chernomyrdin's team.	The meeting came days after the entry into Chernomydrin's team. 	57076080	1473381205422	1473381205500	h	72
109986	1200338	The meeting came days after the entry into Chernomyrdin's team.	The meeting came days after the entry into Chernomydrin's team. 	57076111	1473381205537	1473381205664	e	69
109986	1200338	The meeting came days after the entry into Chernomyrdin's team.	The meeting came days after the entry into Chernomydrin's team. 	57076112	1473381205642	1473381205789	r	82
109986	1200338	The meeting came days after the entry into Chernomyrdin's team.	The meeting came days after the entry into Chernomydrin's team. 	57076114	1473381205807	1473381205874	m	77
109986	1200338	The meeting came days after the entry into Chernomyrdin's team.	The meeting came days after the entry into Chernomydrin's team. 	57076115	1473381206251	1473381206324	BKSP	8
109986	1200338	The meeting came days after the entry into Chernomyrdin's team.	The meeting came days after the entry into Chernomydrin's team. 	57076116	1473381206430	1473381206517	n	78
109986	1200338	The meeting came days after the entry into Chernomyrdin's team.	The meeting came days after the entry into Chernomydrin's team. 	57076118	1473381206550	1473381206637	o	79
109986	1200338	The meeting came days after the entry into Chernomyrdin's team.	The meeting came days after the entry into Chernomydrin's team. 	57076154	1473381206670	1473381206762	m	77
109986	1200338	The meeting came days after the entry into Chernomyrdin's team.	The meeting came days after the entry into Chernomydrin's team. 	57076157	1473381206944	1473381207022	y	89
109986	1200338	The meeting came days after the entry into Chernomyrdin's team.	The meeting came days after the entry into Chernomydrin's team. 	57076161	1473381207114	1473381207225	d	68
109986	1200338	The meeting came days after the entry into Chernomyrdin's team.	The meeting came days after the entry into Chernomydrin's team. 	57076165	1473381207263	1473381207345	r	82
109986	1200338	The meeting came days after the entry into Chernomyrdin's team.	The meeting came days after the entry into Chernomydrin's team. 	57076170	1473381207383	1473381207456	i	73
109986	1200338	The meeting came days after the entry into Chernomyrdin's team.	The meeting came days after the entry into Chernomydrin's team. 	57076186	1473381207538	1473381207615	n	78
109986	1200338	The meeting came days after the entry into Chernomyrdin's team.	The meeting came days after the entry into Chernomydrin's team. 	57076190	1473381207683	1473381207799	'	222
109986	1200338	The meeting came days after the entry into Chernomyrdin's team.	The meeting came days after the entry into Chernomydrin's team. 	57076196	1473381207827	1473381207934	s	83
109986	1200338	The meeting came days after the entry into Chernomyrdin's team.	The meeting came days after the entry into Chernomydrin's team. 	57076202	1473381207957	1473381208029	 	32
109986	1200338	The meeting came days after the entry into Chernomyrdin's team.	The meeting came days after the entry into Chernomydrin's team. 	57076207	1473381208196	1473381208298	t	84
109986	1200338	The meeting came days after the entry into Chernomyrdin's team.	The meeting came days after the entry into Chernomydrin's team. 	57076233	1473381208306	1473381208428	e	69
109986	1200338	The meeting came days after the entry into Chernomyrdin's team.	The meeting came days after the entry into Chernomydrin's team. 	57076234	1473381208406	1473381208542	a	65
109986	1200338	The meeting came days after the entry into Chernomyrdin's team.	The meeting came days after the entry into Chernomydrin's team. 	57076236	1473381208481	1473381208562	m	77
109986	1200338	The meeting came days after the entry into Chernomyrdin's team.	The meeting came days after the entry into Chernomydrin's team. 	57076238	1473381208860	1473381208946	.	190
109986	1200338	The meeting came days after the entry into Chernomyrdin's team.	The meeting came days after the entry into Chernomydrin's team. 	57076240	1473381209079	1473381209096	 	32
109986	1200353	I am hoping to complete them today or tomorrow morning.	I am hoping to complete them today or tomorrow morning. 	57076353	1473381211180	1473381211341	SHIFT	16
109986	1200353	I am hoping to complete them today or tomorrow morning.	I am hoping to complete them today or tomorrow morning. 	57076355	1473381211289	1473381211356	I	73
109986	1200353	I am hoping to complete them today or tomorrow morning.	I am hoping to complete them today or tomorrow morning. 	57076358	1473381211374	1473381211441	 	32
109986	1200353	I am hoping to complete them today or tomorrow morning.	I am hoping to complete them today or tomorrow morning. 	57076360	1473381211458	1473381211586	a	65
109986	1200353	I am hoping to complete them today or tomorrow morning.	I am hoping to complete them today or tomorrow morning. 	57076362	1473381211573	1473381211655	m	77
109986	1200353	I am hoping to complete them today or tomorrow morning.	I am hoping to complete them today or tomorrow morning. 	57076365	1473381211688	1473381211765	 	32
109986	1200353	I am hoping to complete them today or tomorrow morning.	I am hoping to complete them today or tomorrow morning. 	57076380	1473381211833	1473381211895	h	72
109986	1200353	I am hoping to complete them today or tomorrow morning.	I am hoping to complete them today or tomorrow morning. 	57076383	1473381211903	1473381212029	o	79
109986	1200353	I am hoping to complete them today or tomorrow morning.	I am hoping to complete them today or tomorrow morning. 	57076386	1473381212003	1473381212096	p	80
109986	1200353	I am hoping to complete them today or tomorrow morning.	I am hoping to complete them today or tomorrow morning. 	57076388	1473381212202	1473381212310	i	73
109986	1200353	I am hoping to complete them today or tomorrow morning.	I am hoping to complete them today or tomorrow morning. 	57076394	1473381212262	1473381212334	n	78
109986	1200353	I am hoping to complete them today or tomorrow morning.	I am hoping to complete them today or tomorrow morning. 	57076399	1473381212367	1473381212445	g	71
109986	1200353	I am hoping to complete them today or tomorrow morning.	I am hoping to complete them today or tomorrow morning. 	57076403	1473381212451	1473381212510	 	32
109986	1200353	I am hoping to complete them today or tomorrow morning.	I am hoping to complete them today or tomorrow morning. 	57076410	1473381212551	1473381212638	t	84
109986	1200353	I am hoping to complete them today or tomorrow morning.	I am hoping to complete them today or tomorrow morning. 	57076415	1473381212601	1473381212693	o	79
109986	1200353	I am hoping to complete them today or tomorrow morning.	I am hoping to complete them today or tomorrow morning. 	57076439	1473381212671	1473381212748	 	32
109986	1200353	I am hoping to complete them today or tomorrow morning.	I am hoping to complete them today or tomorrow morning. 	57076444	1473381212846	1473381213012	c	67
109986	1200353	I am hoping to complete them today or tomorrow morning.	I am hoping to complete them today or tomorrow morning. 	57076448	1473381212941	1473381213074	o	79
109986	1200353	I am hoping to complete them today or tomorrow morning.	I am hoping to complete them today or tomorrow morning. 	57076452	1473381213020	1473381213108	m	77
109986	1200353	I am hoping to complete them today or tomorrow morning.	I am hoping to complete them today or tomorrow morning. 	57076457	1473381213076	1473381213162	p	80
109986	1200353	I am hoping to complete them today or tomorrow morning.	I am hoping to complete them today or tomorrow morning. 	57076463	1473381213275	1473381213361	l	76
109986	1200353	I am hoping to complete them today or tomorrow morning.	I am hoping to complete them today or tomorrow morning. 	57076476	1473381213340	1473381213407	e	69
109986	1200353	I am hoping to complete them today or tomorrow morning.	I am hoping to complete them today or tomorrow morning. 	57076482	1473381213444	1473381213536	t	84
109986	1200353	I am hoping to complete them today or tomorrow morning.	I am hoping to complete them today or tomorrow morning. 	57076488	1473381213544	1473381213646	e	69
109986	1200353	I am hoping to complete them today or tomorrow morning.	I am hoping to complete them today or tomorrow morning. 	57076494	1473381213708	1473381213780	 	32
109986	1200353	I am hoping to complete them today or tomorrow morning.	I am hoping to complete them today or tomorrow morning. 	57076501	1473381213809	1473381213903	t	84
109986	1200353	I am hoping to complete them today or tomorrow morning.	I am hoping to complete them today or tomorrow morning. 	57076518	1473381213878	1473381213950	h	72
109986	1200353	I am hoping to complete them today or tomorrow morning.	I am hoping to complete them today or tomorrow morning. 	57076520	1473381213963	1473381214085	e	69
109986	1200353	I am hoping to complete them today or tomorrow morning.	I am hoping to complete them today or tomorrow morning. 	57076522	1473381214063	1473381214125	m	77
109986	1200353	I am hoping to complete them today or tomorrow morning.	I am hoping to complete them today or tomorrow morning. 	57076524	1473381214142	1473381214206	 	32
109986	1200353	I am hoping to complete them today or tomorrow morning.	I am hoping to complete them today or tomorrow morning. 	57076525	1473381214232	1473381214289	t	84
109986	1200353	I am hoping to complete them today or tomorrow morning.	I am hoping to complete them today or tomorrow morning. 	57076526	1473381214307	1473381214389	o	79
109986	1200353	I am hoping to complete them today or tomorrow morning.	I am hoping to complete them today or tomorrow morning. 	57076527	1473381214442	1473381214578	d	68
109986	1200353	I am hoping to complete them today or tomorrow morning.	I am hoping to complete them today or tomorrow morning. 	57076531	1473381214557	1473381214663	a	65
109986	1200353	I am hoping to complete them today or tomorrow morning.	I am hoping to complete them today or tomorrow morning. 	57076529	1473381214592	1473381214653	y	89
109986	1200353	I am hoping to complete them today or tomorrow morning.	I am hoping to complete them today or tomorrow morning. 	57076535	1473381214676	1473381214733	 	32
109986	1200353	I am hoping to complete them today or tomorrow morning.	I am hoping to complete them today or tomorrow morning. 	57076539	1473381214772	1473381214873	o	79
109986	1200353	I am hoping to complete them today or tomorrow morning.	I am hoping to complete them today or tomorrow morning. 	57076551	1473381214891	1473381214958	r	82
109986	1200353	I am hoping to complete them today or tomorrow morning.	I am hoping to complete them today or tomorrow morning. 	57076554	1473381214946	1473381215032	 	32
109986	1200353	I am hoping to complete them today or tomorrow morning.	I am hoping to complete them today or tomorrow morning. 	57076561	1473381215086	1473381215189	t	84
109986	1200353	I am hoping to complete them today or tomorrow morning.	I am hoping to complete them today or tomorrow morning. 	57076567	1473381215171	1473381215282	o	79
109986	1200353	I am hoping to complete them today or tomorrow morning.	I am hoping to complete them today or tomorrow morning. 	57076642	1473381215250	1473381215307	m	77
109986	1200353	I am hoping to complete them today or tomorrow morning.	I am hoping to complete them today or tomorrow morning. 	57076643	1473381215430	1473381215531	r	82
109986	1200353	I am hoping to complete them today or tomorrow morning.	I am hoping to complete them today or tomorrow morning. 	57076644	1473381215574	1473381215656	o	79
109986	1200353	I am hoping to complete them today or tomorrow morning.	I am hoping to complete them today or tomorrow morning. 	57076645	1473381215823	1473381215920	r	82
109986	1200353	I am hoping to complete them today or tomorrow morning.	I am hoping to complete them today or tomorrow morning. 	57076646	1473381215993	1473381216060	r	82
109986	1200353	I am hoping to complete them today or tomorrow morning.	I am hoping to complete them today or tomorrow morning. 	57076647	1473381216337	1473381216389	BKSP	8
109986	1200353	I am hoping to complete them today or tomorrow morning.	I am hoping to complete them today or tomorrow morning. 	57076648	1473381216587	1473381216644	BKSP	8
109986	1200353	I am hoping to complete them today or tomorrow morning.	I am hoping to complete them today or tomorrow morning. 	57076649	1473381216717	1473381216788	BKSP	8
109986	1200353	I am hoping to complete them today or tomorrow morning.	I am hoping to complete them today or tomorrow morning. 	57076651	1473381216842	1473381216934	BKSP	8
109986	1200353	I am hoping to complete them today or tomorrow morning.	I am hoping to complete them today or tomorrow morning. 	57076653	1473381217066	1473381217147	o	79
109986	1200353	I am hoping to complete them today or tomorrow morning.	I am hoping to complete them today or tomorrow morning. 	57076663	1473381217156	1473381217207	r	82
109986	1200353	I am hoping to complete them today or tomorrow morning.	I am hoping to complete them today or tomorrow morning. 	57076667	1473381217285	1473381217372	r	82
109986	1200353	I am hoping to complete them today or tomorrow morning.	I am hoping to complete them today or tomorrow morning. 	57076669	1473381217405	1473381217482	o	79
109986	1200353	I am hoping to complete them today or tomorrow morning.	I am hoping to complete them today or tomorrow morning. 	57076673	1473381217525	1473381217621	w	87
109986	1200353	I am hoping to complete them today or tomorrow morning.	I am hoping to complete them today or tomorrow morning. 	57076687	1473381217609	1473381217687	 	32
109986	1200353	I am hoping to complete them today or tomorrow morning.	I am hoping to complete them today or tomorrow morning. 	57076689	1473381217879	1473381217974	m	77
109986	1200353	I am hoping to complete them today or tomorrow morning.	I am hoping to complete them today or tomorrow morning. 	57076691	1473381217954	1473381218045	o	79
109986	1200353	I am hoping to complete them today or tomorrow morning.	I am hoping to complete them today or tomorrow morning. 	57076692	1473381218058	1473381218160	r	82
109986	1200353	I am hoping to complete them today or tomorrow morning.	I am hoping to complete them today or tomorrow morning. 	57076693	1473381218168	1473381218250	n	78
109986	1200353	I am hoping to complete them today or tomorrow morning.	I am hoping to complete them today or tomorrow morning. 	57076706	1473381218229	1473381218365	i	73
109986	1200353	I am hoping to complete them today or tomorrow morning.	I am hoping to complete them today or tomorrow morning. 	57076710	1473381218303	1473381218375	n	78
109986	1200353	I am hoping to complete them today or tomorrow morning.	I am hoping to complete them today or tomorrow morning. 	57076713	1473381218447	1473381218534	g	71
109986	1200353	I am hoping to complete them today or tomorrow morning.	I am hoping to complete them today or tomorrow morning. 	57076716	1473381218567	1473381218659	.	190
109986	1200353	I am hoping to complete them today or tomorrow morning.	I am hoping to complete them today or tomorrow morning. 	57076719	1473381218622	1473381218709	 	32
109986	1200364	His current status is day to day.	His current status is day to day.	57076827	1473381221082	1473381221238	SHIFT	16
109986	1200364	His current status is day to day.	His current status is day to day.	57076829	1473381221181	1473381221259	H	72
109986	1200364	His current status is day to day.	His current status is day to day.	57076830	1473381221266	1473381221348	i	73
109986	1200364	His current status is day to day.	His current status is day to day.	57076831	1473381221381	1473381221489	s	83
109986	1200364	His current status is day to day.	His current status is day to day.	57076834	1473381221515	1473381221612	 	32
109986	1200364	His current status is day to day.	His current status is day to day.	57076840	1473381221840	1473381221961	c	67
109986	1200364	His current status is day to day.	His current status is day to day.	57076871	1473381221969	1473381222041	u	85
109986	1200364	His current status is day to day.	His current status is day to day.	57076877	1473381222029	1473381222096	r	82
109986	1200364	His current status is day to day.	His current status is day to day.	57076882	1473381222185	1473381222296	r	82
109986	1200364	His current status is day to day.	His current status is day to day.	57076889	1473381222274	1473381222405	e	69
109986	1200364	His current status is day to day.	His current status is day to day.	57076914	1473381222388	1473381222467	n	78
109986	1200364	His current status is day to day.	His current status is day to day.	57076918	1473381222478	1473381222550	t	84
109986	1200364	His current status is day to day.	His current status is day to day.	57076922	1473381222538	1473381222621	 	32
109986	1200364	His current status is day to day.	His current status is day to day.	57076925	1473381222653	1473381222750	s	83
109986	1200364	His current status is day to day.	His current status is day to day.	57076933	1473381222767	1473381222879	t	84
109986	1200364	His current status is day to day.	His current status is day to day.	57076937	1473381222887	1473381223014	a	65
109986	1200364	His current status is day to day.	His current status is day to day.	57076958	1473381222992	1473381223129	t	84
109986	1200364	His current status is day to day.	His current status is day to day.	57076963	1473381223107	1473381223185	u	85
109986	1200364	His current status is day to day.	His current status is day to day.	57076966	1473381223207	1473381223298	s	83
109986	1200364	His current status is day to day.	His current status is day to day.	57076968	1473381223307	1473381223388	 	32
109986	1200364	His current status is day to day.	His current status is day to day.	57076971	1473381223426	1473381223522	i	73
109986	1200364	His current status is day to day.	His current status is day to day.	57076974	1473381223596	1473381223702	s	83
109986	1200364	His current status is day to day.	His current status is day to day.	57076996	1473381223724	1473381223792	 	32
109986	1200364	His current status is day to day.	His current status is day to day.	57077001	1473381223805	1473381223907	d	68
109986	1200364	His current status is day to day.	His current status is day to day.	57077005	1473381224199	1473381224349	a	65
109986	1200364	His current status is day to day.	His current status is day to day.	57077009	1473381224334	1473381224411	y	89
109986	1200364	His current status is day to day.	His current status is day to day.	57077023	1473381224399	1473381224471	 	32
109986	1200364	His current status is day to day.	His current status is day to day.	57077026	1473381224534	1473381224617	t	84
109986	1200364	His current status is day to day.	His current status is day to day.	57077029	1473381224623	1473381224700	o	79
109986	1200364	His current status is day to day.	His current status is day to day.	57077032	1473381224688	1473381224770	 	32
109986	1200364	His current status is day to day.	His current status is day to day.	57077033	1473381224779	1473381224943	d	68
109986	1200364	His current status is day to day.	His current status is day to day.	57077045	1473381224898	1473381225049	a	65
109986	1200364	His current status is day to day.	His current status is day to day.	57077050	1473381224997	1473381225069	y	89
109986	1200364	His current status is day to day.	His current status is day to day.	57077057	1473381225213	1473381225304	.	190
109986	1200368	I am looking forward to the salad.	I am looking forward to the salad.	57077184	1473381227168	1473381227379	SHIFT	16
109986	1200368	I am looking forward to the salad.	I am looking forward to the salad.	57077179	1473381227277	1473381227354	I	73
109986	1200368	I am looking forward to the salad.	I am looking forward to the salad.	57077189	1473381227367	1473381227424	 	32
109986	1200368	I am looking forward to the salad.	I am looking forward to the salad.	57077195	1473381227497	1473381227645	a	65
109986	1200368	I am looking forward to the salad.	I am looking forward to the salad.	57077203	1473381227621	1473381227688	m	77
109986	1200368	I am looking forward to the salad.	I am looking forward to the salad.	57077208	1473381227716	1473381227788	 	32
109986	1200368	I am looking forward to the salad.	I am looking forward to the salad.	57077287	1473381228095	1473381228247	a	65
109986	1200368	I am looking forward to the salad.	I am looking forward to the salad.	57077290	1473381228215	1473381228267	l	76
109986	1200368	I am looking forward to the salad.	I am looking forward to the salad.	57077293	1473381228360	1473381228421	o	79
109986	1200368	I am looking forward to the salad.	I am looking forward to the salad.	57077296	1473381228609	1473381228681	BKSP	8
109986	1200368	I am looking forward to the salad.	I am looking forward to the salad.	57077299	1473381228759	1473381228825	BKSP	8
109986	1200368	I am looking forward to the salad.	I am looking forward to the salad.	57077301	1473381228893	1473381228955	BKSP	8
109986	1200368	I am looking forward to the salad.	I am looking forward to the salad.	57077302	1473381228998	1473381229071	BKSP	8
109986	1200368	I am looking forward to the salad.	I am looking forward to the salad.	57077303	1473381229238	1473381229284	l	76
109986	1200368	I am looking forward to the salad.	I am looking forward to the salad.	57077304	1473381229517	1473381229594	BKSP	8
109986	1200368	I am looking forward to the salad.	I am looking forward to the salad.	57077306	1473381229602	1473381229678	 	32
109986	1200368	I am looking forward to the salad.	I am looking forward to the salad.	57077317	1473381229756	1473381229843	l	76
109986	1200368	I am looking forward to the salad.	I am looking forward to the salad.	57077318	1473381229931	1473381229998	o	79
109986	1200368	I am looking forward to the salad.	I am looking forward to the salad.	57077319	1473381230101	1473381230169	o	79
109986	1200368	I am looking forward to the salad.	I am looking forward to the salad.	57077321	1473381230136	1473381230208	k	75
109986	1200368	I am looking forward to the salad.	I am looking forward to the salad.	57077325	1473381230310	1473381230397	i	73
109986	1200368	I am looking forward to the salad.	I am looking forward to the salad.	57077340	1473381230340	1473381230462	n	78
109986	1200368	I am looking forward to the salad.	I am looking forward to the salad.	57077342	1473381230470	1473381230562	g	71
109986	1200368	I am looking forward to the salad.	I am looking forward to the salad.	57077341	1473381230510	1473381230551	 	32
109986	1200368	I am looking forward to the salad.	I am looking forward to the salad.	57077344	1473381230744	1473381230831	f	70
109986	1200368	I am looking forward to the salad.	I am looking forward to the salad.	57077346	1473381230854	1473381230937	o	79
109986	1200368	I am looking forward to the salad.	I am looking forward to the salad.	57077348	1473381230944	1473381231010	r	82
109986	1200368	I am looking forward to the salad.	I am looking forward to the salad.	57077359	1473381231073	1473381231260	w	87
109986	1200368	I am looking forward to the salad.	I am looking forward to the salad.	57077361	1473381231248	1473381231405	a	65
109986	1200368	I am looking forward to the salad.	I am looking forward to the salad.	57077363	1473381231343	1473381231440	r	82
109986	1200368	I am looking forward to the salad.	I am looking forward to the salad.	57077365	1473381231487	1473381231579	d	68
109986	1200368	I am looking forward to the salad.	I am looking forward to the salad.	57077367	1473381231592	1473381231669	 	32
109986	1200368	I am looking forward to the salad.	I am looking forward to the salad.	57077374	1473381231682	1473381231772	t	84
109986	1200368	I am looking forward to the salad.	I am looking forward to the salad.	57077378	1473381231757	1473381231840	o	79
109986	1200368	I am looking forward to the salad.	I am looking forward to the salad.	57077381	1473381231822	1473381231884	 	32
109986	1200368	I am looking forward to the salad.	I am looking forward to the salad.	57077384	1473381231862	1473381231943	t	84
109986	1200368	I am looking forward to the salad.	I am looking forward to the salad.	57077389	1473381231951	1473381232033	h	72
109986	1200368	I am looking forward to the salad.	I am looking forward to the salad.	57077424	1473381232116	1473381232243	e	69
109986	1200368	I am looking forward to the salad.	I am looking forward to the salad.	57077428	1473381232306	1473381232392	 	32
109986	1200368	I am looking forward to the salad.	I am looking forward to the salad.	57077432	1473381232461	1473381232620	s	83
109986	1200368	I am looking forward to the salad.	I am looking forward to the salad.	57077435	1473381232575	1473381232718	a	65
109986	1200368	I am looking forward to the salad.	I am looking forward to the salad.	57077456	1473381232705	1473381232787	l	76
109986	1200368	I am looking forward to the salad.	I am looking forward to the salad.	57077459	1473381232979	1473381233106	a	65
109986	1200368	I am looking forward to the salad.	I am looking forward to the salad.	57077463	1473381233116	1473381233235	d	68
109986	1200368	I am looking forward to the salad.	I am looking forward to the salad.	57077465	1473381233243	1473381233340	.	190
109986	1200376	The contract is a bit complicated.	The contract is a bit complicated.	57077608	1473381235478	1473381235591	SHIFT	16
109986	1200376	The contract is a bit complicated.	The contract is a bit complicated.	57077611	1473381235598	1473381235660	t	84
109986	1200376	The contract is a bit complicated.	The contract is a bit complicated.	57077614	1473381235673	1473381235756	h	72
109986	1200376	The contract is a bit complicated.	The contract is a bit complicated.	57077616	1473381235729	1473381235829	e	69
109986	1200376	The contract is a bit complicated.	The contract is a bit complicated.	57077617	1473381235842	1473381235926	 	32
109986	1200376	The contract is a bit complicated.	The contract is a bit complicated.	57077619	1473381236062	1473381236179	c	67
109986	1200376	The contract is a bit complicated.	The contract is a bit complicated.	57077700	1473381236132	1473381236255	o	79
109986	1200376	The contract is a bit complicated.	The contract is a bit complicated.	57077702	1473381236456	1473381236513	BKSP	8
109986	1200376	The contract is a bit complicated.	The contract is a bit complicated.	57077704	1473381236586	1473381236642	BKSP	8
109986	1200376	The contract is a bit complicated.	The contract is a bit complicated.	57077707	1473381236721	1473381236789	BKSP	8
109986	1200376	The contract is a bit complicated.	The contract is a bit complicated.	57077710	1473381236860	1473381236922	BKSP	8
109986	1200376	The contract is a bit complicated.	The contract is a bit complicated.	57077713	1473381236986	1473381237057	BKSP	8
109986	1200376	The contract is a bit complicated.	The contract is a bit complicated.	57077717	1473381237130	1473381237201	BKSP	8
109986	1200376	The contract is a bit complicated.	The contract is a bit complicated.	57077724	1473381237359	1473381237495	SHIFT	16
109986	1200376	The contract is a bit complicated.	The contract is a bit complicated.	57077728	1473381237504	1473381237595	t	84
109986	1200376	The contract is a bit complicated.	The contract is a bit complicated.	57077734	1473381237614	1473381237700	h	72
109986	1200376	The contract is a bit complicated.	The contract is a bit complicated.	57077741	1473381237708	1473381237795	e	69
109986	1200376	The contract is a bit complicated.	The contract is a bit complicated.	57077746	1473381237784	1473381237851	 	32
109986	1200376	The contract is a bit complicated.	The contract is a bit complicated.	57077753	1473381237918	1473381238014	c	67
109986	1200376	The contract is a bit complicated.	The contract is a bit complicated.	57077787	1473381237948	1473381238074	o	79
109986	1200376	The contract is a bit complicated.	The contract is a bit complicated.	57077793	1473381238267	1473381238319	BKSP	8
109986	1200376	The contract is a bit complicated.	The contract is a bit complicated.	57077800	1473381238391	1473381238459	BKSP	8
109986	1200376	The contract is a bit complicated.	The contract is a bit complicated.	57077804	1473381238531	1473381238593	BKSP	8
109986	1200376	The contract is a bit complicated.	The contract is a bit complicated.	57077810	1473381238661	1473381238728	BKSP	8
109986	1200376	The contract is a bit complicated.	The contract is a bit complicated.	57077813	1473381238791	1473381238862	BKSP	8
109986	1200376	The contract is a bit complicated.	The contract is a bit complicated.	57077816	1473381238936	1473381239012	BKSP	8
109986	1200376	The contract is a bit complicated.	The contract is a bit complicated.	57077818	1473381239161	1473381239300	SHIFT	16
109986	1200376	The contract is a bit complicated.	The contract is a bit complicated.	57077820	1473381239259	1473381239416	T	84
109986	1200376	The contract is a bit complicated.	The contract is a bit complicated.	57077822	1473381239359	1473381239431	h	72
109986	1200376	The contract is a bit complicated.	The contract is a bit complicated.	57077824	1473381239439	1473381239551	e	69
109986	1200376	The contract is a bit complicated.	The contract is a bit complicated.	57077828	1473381239539	1473381239626	 	32
109986	1200376	The contract is a bit complicated.	The contract is a bit complicated.	57077833	1473381239718	1473381239825	c	67
109986	1200376	The contract is a bit complicated.	The contract is a bit complicated.	57077825	1473381239773	1473381239905	o	79
109986	1200376	The contract is a bit complicated.	The contract is a bit complicated.	57077827	1473381239853	1473381239916	n	78
109986	1200376	The contract is a bit complicated.	The contract is a bit complicated.	57077831	1473381239973	1473381240046	t	84
109986	1200376	The contract is a bit complicated.	The contract is a bit complicated.	57077835	1473381240118	1473381240199	r	82
109986	1200376	The contract is a bit complicated.	The contract is a bit complicated.	57077838	1473381240207	1473381240294	a	65
109986	1200376	The contract is a bit complicated.	The contract is a bit complicated.	57077840	1473381240337	1473381240445	c	67
109986	1200376	The contract is a bit complicated.	The contract is a bit complicated.	57077853	1473381240492	1473381240568	t	84
109986	1200376	The contract is a bit complicated.	The contract is a bit complicated.	57077858	1473381240581	1473381240663	 	32
109986	1200376	The contract is a bit complicated.	The contract is a bit complicated.	57077865	1473381240682	1473381240773	i	73
109986	1200376	The contract is a bit complicated.	The contract is a bit complicated.	57077871	1473381240781	1473381240863	s	83
109986	1200376	The contract is a bit complicated.	The contract is a bit complicated.	57077877	1473381240871	1473381240923	 	32
109986	1200376	The contract is a bit complicated.	The contract is a bit complicated.	57077893	1473381240951	1473381241079	a	65
109986	1200376	The contract is a bit complicated.	The contract is a bit complicated.	57077895	1473381241041	1473381241123	 	32
109986	1200376	The contract is a bit complicated.	The contract is a bit complicated.	57077899	1473381241170	1473381241247	b	66
109986	1200376	The contract is a bit complicated.	The contract is a bit complicated.	57077904	1473381241255	1473381241347	i	73
109986	1200376	The contract is a bit complicated.	The contract is a bit complicated.	57077907	1473381241370	1473381241456	t	84
109986	1200376	The contract is a bit complicated.	The contract is a bit complicated.	57077912	1473381241495	1473381241581	 	32
109986	1200376	The contract is a bit complicated.	The contract is a bit complicated.	57077914	1473381241629	1473381241733	c	67
109986	1200376	The contract is a bit complicated.	The contract is a bit complicated.	57077916	1473381241714	1473381241826	o	79
109986	1200376	The contract is a bit complicated.	The contract is a bit complicated.	57077918	1473381241764	1473381241865	m	77
109986	1200376	The contract is a bit complicated.	The contract is a bit complicated.	57077941	1473381241834	1473381241900	p	80
109986	1200376	The contract is a bit complicated.	The contract is a bit complicated.	57077943	1473381241998	1473381242145	l	76
109986	1200376	The contract is a bit complicated.	The contract is a bit complicated.	57077944	1473381242113	1473381242200	i	73
109986	1200376	The contract is a bit complicated.	The contract is a bit complicated.	57077946	1473381242218	1473381242329	c	67
109986	1200376	The contract is a bit complicated.	The contract is a bit complicated.	57077949	1473381242317	1473381242449	a	65
109986	1200376	The contract is a bit complicated.	The contract is a bit complicated.	57078015	1473381242407	1473381242509	t	84
109986	1200376	The contract is a bit complicated.	The contract is a bit complicated.	57078016	1473381242662	1473381242763	d	68
109986	1200376	The contract is a bit complicated.	The contract is a bit complicated.	57078019	1473381242787	1473381242808	.	190
109986	1200376	The contract is a bit complicated.	The contract is a bit complicated.	57078022	1473381243116	1473381243168	BKSP	8
109986	1200376	The contract is a bit complicated.	The contract is a bit complicated.	57078025	1473381243220	1473381243332	BKSP	8
109986	1200376	The contract is a bit complicated.	The contract is a bit complicated.	57078028	1473381243300	1473381243382	e	69
109986	1200376	The contract is a bit complicated.	The contract is a bit complicated.	57078031	1473381243450	1473381243577	d	68
109986	1200376	The contract is a bit complicated.	The contract is a bit complicated.	57078027	1473381243565	1473381243638	.	190
109986	1200388	Amy will be here to cover.	Amy will be here to cover. 	57078153	1473381245336	1473381245442	SHIFT	16
109986	1200388	Amy will be here to cover.	Amy will be here to cover. 	57078156	1473381245401	1473381245533	A	65
109986	1200388	Amy will be here to cover.	Amy will be here to cover. 	57078163	1473381245510	1473381245557	m	77
109986	1200388	Amy will be here to cover.	Amy will be here to cover. 	57078171	1473381245695	1473381245768	y	89
109986	1200388	Amy will be here to cover.	Amy will be here to cover. 	57078176	1473381245795	1473381245868	 	32
109986	1200388	Amy will be here to cover.	Amy will be here to cover. 	57078188	1473381246039	1473381246171	w	87
109986	1200388	Amy will be here to cover.	Amy will be here to cover. 	57078181	1473381246094	1473381246156	i	73
109986	1200388	Amy will be here to cover.	Amy will be here to cover. 	57078189	1473381246259	1473381246315	l	76
109986	1200388	Amy will be here to cover.	Amy will be here to cover. 	57078190	1473381246378	1473381246480	l	76
109986	1200388	Amy will be here to cover.	Amy will be here to cover. 	57078191	1473381246453	1473381246545	 	32
109986	1200388	Amy will be here to cover.	Amy will be here to cover. 	57078194	1473381246553	1473381246601	b	66
109986	1200388	Amy will be here to cover.	Amy will be here to cover. 	57078198	1473381246662	1473381246754	e	69
109986	1200388	Amy will be here to cover.	Amy will be here to cover. 	57078221	1473381246743	1473381246856	 	32
109986	1200388	Amy will be here to cover.	Amy will be here to cover. 	57078224	1473381246808	1473381246879	h	72
109986	1200388	Amy will be here to cover.	Amy will be here to cover. 	57078230	1473381246922	1473381247039	e	69
109986	1200388	Amy will be here to cover.	Amy will be here to cover. 	57078234	1473381246992	1473381247168	r	82
109986	1200388	Amy will be here to cover.	Amy will be here to cover. 	57078235	1473381247151	1473381247264	e	69
109986	1200388	Amy will be here to cover.	Amy will be here to cover. 	57078243	1473381247201	1473381247283	 	32
109986	1200388	Amy will be here to cover.	Amy will be here to cover. 	57078246	1473381247306	1473381247393	t	84
109986	1200388	Amy will be here to cover.	Amy will be here to cover. 	57078248	1473381247401	1473381247498	o	79
109986	1200388	Amy will be here to cover.	Amy will be here to cover. 	57078249	1473381247486	1473381247552	 	32
109986	1200388	Amy will be here to cover.	Amy will be here to cover. 	57078250	1473381247576	1473381247706	c	67
109986	1200388	Amy will be here to cover.	Amy will be here to cover. 	57078268	1473381247683	1473381247767	o	79
109986	1200388	Amy will be here to cover.	Amy will be here to cover. 	57078272	1473381247775	1473381247832	v	86
109986	1200388	Amy will be here to cover.	Amy will be here to cover. 	57078276	1473381247875	1473381248001	e	69
109986	1200388	Amy will be here to cover.	Amy will be here to cover. 	57078281	1473381247975	1473381248063	r	82
109986	1200388	Amy will be here to cover.	Amy will be here to cover. 	57078295	1473381248109	1473381248236	.	190
109986	1200388	Amy will be here to cover.	Amy will be here to cover. 	57078284	1473381248164	1473381248201	 	32
109986	1200394	See, we Americans had gotten sort of distracted.	See, we Americans had gotten sort of distracted. 	57078438	1473381250474	1473381250645	SHIFT	16
109986	1200394	See, we Americans had gotten sort of distracted.	See, we Americans had gotten sort of distracted. 	57078431	1473381250544	1473381250636	S	83
109986	1200394	See, we Americans had gotten sort of distracted.	See, we Americans had gotten sort of distracted. 	57078443	1473381250693	1473381250765	e	69
109986	1200394	See, we Americans had gotten sort of distracted.	See, we Americans had gotten sort of distracted. 	57078449	1473381250878	1473381250965	e	69
109986	1200394	See, we Americans had gotten sort of distracted.	See, we Americans had gotten sort of distracted. 	57078455	1473381250973	1473381251050	,	188
109986	1200394	See, we Americans had gotten sort of distracted.	See, we Americans had gotten sort of distracted. 	57078487	1473381251018	1473381251085	 	32
109986	1200394	See, we Americans had gotten sort of distracted.	See, we Americans had gotten sort of distracted. 	57078492	1473381251182	1473381251349	w	87
109986	1200394	See, we Americans had gotten sort of distracted.	See, we Americans had gotten sort of distracted. 	57078495	1473381251322	1473381251459	e	69
109986	1200394	See, we Americans had gotten sort of distracted.	See, we Americans had gotten sort of distracted. 	57078501	1473381251477	1473381251543	 	32
109986	1200394	See, we Americans had gotten sort of distracted.	See, we Americans had gotten sort of distracted. 	57078505	1473381251672	1473381251803	SHIFT	16
109986	1200394	See, we Americans had gotten sort of distracted.	See, we Americans had gotten sort of distracted. 	57078511	1473381251726	1473381251848	A	65
109986	1200394	See, we Americans had gotten sort of distracted.	See, we Americans had gotten sort of distracted. 	57078515	1473381251886	1473381251948	m	77
109986	1200394	See, we Americans had gotten sort of distracted.	See, we Americans had gotten sort of distracted. 	57078518	1473381251971	1473381252067	e	69
109986	1200394	See, we Americans had gotten sort of distracted.	See, we Americans had gotten sort of distracted. 	57078520	1473381252045	1473381252113	r	82
109986	1200394	See, we Americans had gotten sort of distracted.	See, we Americans had gotten sort of distracted. 	57078522	1473381252140	1473381252232	i	73
109986	1200394	See, we Americans had gotten sort of distracted.	See, we Americans had gotten sort of distracted. 	57078524	1473381252240	1473381252353	c	67
109986	1200394	See, we Americans had gotten sort of distracted.	See, we Americans had gotten sort of distracted. 	57078540	1473381252330	1473381252456	a	65
109986	1200394	See, we Americans had gotten sort of distracted.	See, we Americans had gotten sort of distracted. 	57078542	1473381252444	1473381252518	n	78
109986	1200394	See, we Americans had gotten sort of distracted.	See, we Americans had gotten sort of distracted. 	57078546	1473381252569	1473381252666	s	83
109986	1200394	See, we Americans had gotten sort of distracted.	See, we Americans had gotten sort of distracted. 	57078551	1473381252689	1473381252776	 	32
109986	1200394	See, we Americans had gotten sort of distracted.	See, we Americans had gotten sort of distracted. 	57078555	1473381252858	1473381252940	h	72
109986	1200394	See, we Americans had gotten sort of distracted.	See, we Americans had gotten sort of distracted. 	57078560	1473381252958	1473381253051	a	65
109986	1200394	See, we Americans had gotten sort of distracted.	See, we Americans had gotten sort of distracted. 	57078591	1473381253114	1473381253155	a	65
109986	1200394	See, we Americans had gotten sort of distracted.	See, we Americans had gotten sort of distracted. 	57078595	1473381253507	1473381253589	BKSP	8
109986	1200394	See, we Americans had gotten sort of distracted.	See, we Americans had gotten sort of distracted. 	57078598	1473381253597	1473381253674	d	68
109986	1200394	See, we Americans had gotten sort of distracted.	See, we Americans had gotten sort of distracted. 	57078602	1473381253682	1473381253763	 	32
109986	1200394	See, we Americans had gotten sort of distracted.	See, we Americans had gotten sort of distracted. 	57078607	1473381253991	1473381254133	g	71
109986	1200394	See, we Americans had gotten sort of distracted.	See, we Americans had gotten sort of distracted. 	57078619	1473381254071	1473381254139	o	79
109986	1200394	See, we Americans had gotten sort of distracted.	See, we Americans had gotten sort of distracted. 	57078622	1473381254196	1473381254262	t	84
109986	1200394	See, we Americans had gotten sort of distracted.	See, we Americans had gotten sort of distracted. 	57078624	1473381254366	1473381254452	t	84
109986	1200394	See, we Americans had gotten sort of distracted.	See, we Americans had gotten sort of distracted. 	57078625	1473381254460	1473381254572	e	69
109986	1200394	See, we Americans had gotten sort of distracted.	See, we Americans had gotten sort of distracted. 	57078626	1473381254535	1473381254601	n	78
109986	1200394	See, we Americans had gotten sort of distracted.	See, we Americans had gotten sort of distracted. 	57078628	1473381254634	1473381254693	 	32
109986	1200394	See, we Americans had gotten sort of distracted.	See, we Americans had gotten sort of distracted. 	57078658	1473381254715	1473381254820	s	83
109986	1200394	See, we Americans had gotten sort of distracted.	See, we Americans had gotten sort of distracted. 	57078662	1473381254829	1473381254956	o	79
109986	1200394	See, we Americans had gotten sort of distracted.	See, we Americans had gotten sort of distracted. 	57078665	1473381255248	1473381255330	r	82
109986	1200394	See, we Americans had gotten sort of distracted.	See, we Americans had gotten sort of distracted. 	57078669	1473381255462	1473381255561	t	84
109986	1200394	See, we Americans had gotten sort of distracted.	See, we Americans had gotten sort of distracted. 	57078697	1473381255547	1473381255646	 	32
109986	1200394	See, we Americans had gotten sort of distracted.	See, we Americans had gotten sort of distracted. 	57078700	1473381255622	1473381255729	o	79
109986	1200394	See, we Americans had gotten sort of distracted.	See, we Americans had gotten sort of distracted. 	57078703	1473381255717	1473381255819	f	70
109986	1200394	See, we Americans had gotten sort of distracted.	See, we Americans had gotten sort of distracted. 	57078706	1473381255807	1473381255888	 	32
109986	1200394	See, we Americans had gotten sort of distracted.	See, we Americans had gotten sort of distracted. 	57078709	1473381255997	1473381256098	i	73
109986	1200394	See, we Americans had gotten sort of distracted.	See, we Americans had gotten sort of distracted. 	57078711	1473381256401	1473381256472	BKSP	8
109986	1200394	See, we Americans had gotten sort of distracted.	See, we Americans had gotten sort of distracted. 	57078712	1473381256495	1473381256592	s	83
109986	1200394	See, we Americans had gotten sort of distracted.	See, we Americans had gotten sort of distracted. 	57078733	1473381256789	1473381256866	BKSP	8
109986	1200394	See, we Americans had gotten sort of distracted.	See, we Americans had gotten sort of distracted. 	57078735	1473381256919	1473381256996	d	68
109986	1200394	See, we Americans had gotten sort of distracted.	See, we Americans had gotten sort of distracted. 	57078738	1473381257009	1473381257096	i	73
109986	1200394	See, we Americans had gotten sort of distracted.	See, we Americans had gotten sort of distracted. 	57078742	1473381257124	1473381257215	s	83
109986	1200394	See, we Americans had gotten sort of distracted.	See, we Americans had gotten sort of distracted. 	57078745	1473381257248	1473381257307	t	84
109986	1200394	See, we Americans had gotten sort of distracted.	See, we Americans had gotten sort of distracted. 	57078748	1473381257373	1473381257445	r	82
109986	1200394	See, we Americans had gotten sort of distracted.	See, we Americans had gotten sort of distracted. 	57078757	1473381257468	1473381257580	a	65
109986	1200394	See, we Americans had gotten sort of distracted.	See, we Americans had gotten sort of distracted. 	57078760	1473381257653	1473381257749	c	67
109986	1200394	See, we Americans had gotten sort of distracted.	See, we Americans had gotten sort of distracted. 	57078765	1473381257822	1473381257949	t	84
109986	1200394	See, we Americans had gotten sort of distracted.	See, we Americans had gotten sort of distracted. 	57078771	1473381257938	1473381258009	e	69
109986	1200394	See, we Americans had gotten sort of distracted.	See, we Americans had gotten sort of distracted. 	57078776	1473381258111	1473381258248	d	68
109986	1200394	See, we Americans had gotten sort of distracted.	See, we Americans had gotten sort of distracted. 	57078783	1473381258256	1473381258339	.	190
109986	1200394	See, we Americans had gotten sort of distracted.	See, we Americans had gotten sort of distracted. 	57078786	1473381258326	1473381258418	 	32
109986	1200402	The cabinet Thursday approved a revised tariff schedule.	The cabinet Thursday approved a revised tariff schedule.	57078885	1473381260137	1473381260252	SHIFT	16
109986	1200402	The cabinet Thursday approved a revised tariff schedule.	The cabinet Thursday approved a revised tariff schedule.	57078888	1473381260207	1473381260288	T	84
109986	1200402	The cabinet Thursday approved a revised tariff schedule.	The cabinet Thursday approved a revised tariff schedule.	57078894	1473381260296	1473381260378	h	72
109986	1200402	The cabinet Thursday approved a revised tariff schedule.	The cabinet Thursday approved a revised tariff schedule.	57078899	1473381260349	1473381260438	e	69
109986	1200402	The cabinet Thursday approved a revised tariff schedule.	The cabinet Thursday approved a revised tariff schedule.	57078905	1473381260446	1473381260534	 	32
109986	1200402	The cabinet Thursday approved a revised tariff schedule.	The cabinet Thursday approved a revised tariff schedule.	57078908	1473381260636	1473381260757	c	67
109986	1200402	The cabinet Thursday approved a revised tariff schedule.	The cabinet Thursday approved a revised tariff schedule.	57078921	1473381260775	1473381260922	a	65
109986	1200402	The cabinet Thursday approved a revised tariff schedule.	The cabinet Thursday approved a revised tariff schedule.	57078923	1473381260945	1473381261022	b	66
109986	1200402	The cabinet Thursday approved a revised tariff schedule.	The cabinet Thursday approved a revised tariff schedule.	57078925	1473381261000	1473381261116	i	73
109986	1200402	The cabinet Thursday approved a revised tariff schedule.	The cabinet Thursday approved a revised tariff schedule.	57078928	1473381261090	1473381261161	n	78
109986	1200402	The cabinet Thursday approved a revised tariff schedule.	The cabinet Thursday approved a revised tariff schedule.	57078931	1473381261213	1473381261301	e	69
109986	1200402	The cabinet Thursday approved a revised tariff schedule.	The cabinet Thursday approved a revised tariff schedule.	57078956	1473381261369	1473381261461	t	84
109986	1200402	The cabinet Thursday approved a revised tariff schedule.	The cabinet Thursday approved a revised tariff schedule.	57078958	1473381261489	1473381261567	 	32
109986	1200402	The cabinet Thursday approved a revised tariff schedule.	The cabinet Thursday approved a revised tariff schedule.	57078961	1473381261723	1473381261987	SHIFT	16
109986	1200402	The cabinet Thursday approved a revised tariff schedule.	The cabinet Thursday approved a revised tariff schedule.	57078964	1473381261943	1473381262047	T	84
109986	1200402	The cabinet Thursday approved a revised tariff schedule.	The cabinet Thursday approved a revised tariff schedule.	57078968	1473381262028	1473381262104	h	72
109986	1200402	The cabinet Thursday approved a revised tariff schedule.	The cabinet Thursday approved a revised tariff schedule.	57078971	1473381262217	1473381262314	u	85
109986	1200402	The cabinet Thursday approved a revised tariff schedule.	The cabinet Thursday approved a revised tariff schedule.	57079021	1473381262332	1473381262433	r	82
109986	1200402	The cabinet Thursday approved a revised tariff schedule.	The cabinet Thursday approved a revised tariff schedule.	57079023	1473381262571	1473381262653	d	68
109986	1200402	The cabinet Thursday approved a revised tariff schedule.	The cabinet Thursday approved a revised tariff schedule.	57079025	1473381262886	1473381262994	s	83
109986	1200402	The cabinet Thursday approved a revised tariff schedule.	The cabinet Thursday approved a revised tariff schedule.	57079026	1473381263325	1473381263401	BKSP	8
109986	1200402	The cabinet Thursday approved a revised tariff schedule.	The cabinet Thursday approved a revised tariff schedule.	57079028	1473381263575	1473381263646	BKSP	8
109986	1200402	The cabinet Thursday approved a revised tariff schedule.	The cabinet Thursday approved a revised tariff schedule.	57079029	1473381263669	1473381263800	s	83
109986	1200402	The cabinet Thursday approved a revised tariff schedule.	The cabinet Thursday approved a revised tariff schedule.	57079030	1473381263808	1473381263915	d	68
109986	1200402	The cabinet Thursday approved a revised tariff schedule.	The cabinet Thursday approved a revised tariff schedule.	57079050	1473381263933	1473381264110	a	65
109986	1200402	The cabinet Thursday approved a revised tariff schedule.	The cabinet Thursday approved a revised tariff schedule.	57079052	1473381264138	1473381264214	y	89
109986	1200402	The cabinet Thursday approved a revised tariff schedule.	The cabinet Thursday approved a revised tariff schedule.	57079053	1473381264228	1473381264305	 	32
109986	1200402	The cabinet Thursday approved a revised tariff schedule.	The cabinet Thursday approved a revised tariff schedule.	57079055	1473381264497	1473381264636	a	65
109986	1200402	The cabinet Thursday approved a revised tariff schedule.	The cabinet Thursday approved a revised tariff schedule.	57079077	1473381264617	1473381264683	p	80
109986	1200402	The cabinet Thursday approved a revised tariff schedule.	The cabinet Thursday approved a revised tariff schedule.	57079080	1473381264736	1473381264828	p	80
109986	1200402	The cabinet Thursday approved a revised tariff schedule.	The cabinet Thursday approved a revised tariff schedule.	57079084	1473381264836	1473381264943	r	82
109986	1200402	The cabinet Thursday approved a revised tariff schedule.	The cabinet Thursday approved a revised tariff schedule.	57079089	1473381264951	1473381265042	o	79
109986	1200402	The cabinet Thursday approved a revised tariff schedule.	The cabinet Thursday approved a revised tariff schedule.	57079092	1473381265076	1473381265147	v	86
109986	1200402	The cabinet Thursday approved a revised tariff schedule.	The cabinet Thursday approved a revised tariff schedule.	57079096	1473381265156	1473381265242	e	69
109986	1200402	The cabinet Thursday approved a revised tariff schedule.	The cabinet Thursday approved a revised tariff schedule.	57079115	1473381265315	1473381265431	d	68
109986	1200402	The cabinet Thursday approved a revised tariff schedule.	The cabinet Thursday approved a revised tariff schedule.	57079117	1473381265405	1473381265482	 	32
109986	1200402	The cabinet Thursday approved a revised tariff schedule.	The cabinet Thursday approved a revised tariff schedule.	57079119	1473381265489	1473381265606	a	65
109986	1200402	The cabinet Thursday approved a revised tariff schedule.	The cabinet Thursday approved a revised tariff schedule.	57079122	1473381265569	1473381265657	 	32
109986	1200402	The cabinet Thursday approved a revised tariff schedule.	The cabinet Thursday approved a revised tariff schedule.	57079125	1473381265734	1473381265847	r	82
109986	1200402	The cabinet Thursday approved a revised tariff schedule.	The cabinet Thursday approved a revised tariff schedule.	57079141	1473381265829	1473381265940	e	69
109986	1200402	The cabinet Thursday approved a revised tariff schedule.	The cabinet Thursday approved a revised tariff schedule.	57079143	1473381266038	1473381266135	v	86
109986	1200402	The cabinet Thursday approved a revised tariff schedule.	The cabinet Thursday approved a revised tariff schedule.	57079145	1473381266168	1473381266250	i	73
109986	1200402	The cabinet Thursday approved a revised tariff schedule.	The cabinet Thursday approved a revised tariff schedule.	57079148	1473381266258	1473381266369	s	83
109986	1200402	The cabinet Thursday approved a revised tariff schedule.	The cabinet Thursday approved a revised tariff schedule.	57079151	1473381266397	1473381266509	e	69
109986	1200402	The cabinet Thursday approved a revised tariff schedule.	The cabinet Thursday approved a revised tariff schedule.	57079154	1473381266567	1473381266694	d	68
109986	1200402	The cabinet Thursday approved a revised tariff schedule.	The cabinet Thursday approved a revised tariff schedule.	57079177	1473381266672	1473381266754	 	32
109986	1200402	The cabinet Thursday approved a revised tariff schedule.	The cabinet Thursday approved a revised tariff schedule.	57079179	1473381266887	1473381266963	t	84
109986	1200402	The cabinet Thursday approved a revised tariff schedule.	The cabinet Thursday approved a revised tariff schedule.	57079182	1473381267041	1473381267207	a	65
109986	1200402	The cabinet Thursday approved a revised tariff schedule.	The cabinet Thursday approved a revised tariff schedule.	57079186	1473381267176	1473381267263	r	82
109986	1200402	The cabinet Thursday approved a revised tariff schedule.	The cabinet Thursday approved a revised tariff schedule.	57079189	1473381267400	1473381267452	f	70
109986	1200402	The cabinet Thursday approved a revised tariff schedule.	The cabinet Thursday approved a revised tariff schedule.	57079192	1473381267460	1473381267557	i	73
109986	1200402	The cabinet Thursday approved a revised tariff schedule.	The cabinet Thursday approved a revised tariff schedule.	57079211	1473381267769	1473381267821	BKSP	8
109986	1200402	The cabinet Thursday approved a revised tariff schedule.	The cabinet Thursday approved a revised tariff schedule.	57079213	1473381267887	1473381267968	BKSP	8
109986	1200402	The cabinet Thursday approved a revised tariff schedule.	The cabinet Thursday approved a revised tariff schedule.	57079215	1473381268089	1473381268176	i	73
109986	1200402	The cabinet Thursday approved a revised tariff schedule.	The cabinet Thursday approved a revised tariff schedule.	57079219	1473381268183	1473381268260	f	70
109986	1200402	The cabinet Thursday approved a revised tariff schedule.	The cabinet Thursday approved a revised tariff schedule.	57079222	1473381268314	1473381268425	f	70
109986	1200402	The cabinet Thursday approved a revised tariff schedule.	The cabinet Thursday approved a revised tariff schedule.	57079225	1473381268433	1473381268500	 	32
109986	1200402	The cabinet Thursday approved a revised tariff schedule.	The cabinet Thursday approved a revised tariff schedule.	57079227	1473381268572	1473381268715	s	83
109986	1200402	The cabinet Thursday approved a revised tariff schedule.	The cabinet Thursday approved a revised tariff schedule.	57079234	1473381268832	1473381268924	c	67
109986	1200402	The cabinet Thursday approved a revised tariff schedule.	The cabinet Thursday approved a revised tariff schedule.	57079237	1473381268946	1473381269015	h	72
109986	1200402	The cabinet Thursday approved a revised tariff schedule.	The cabinet Thursday approved a revised tariff schedule.	57079240	1473381269047	1473381269119	e	69
109986	1200402	The cabinet Thursday approved a revised tariff schedule.	The cabinet Thursday approved a revised tariff schedule.	57079243	1473381269216	1473381269318	d	68
109986	1200402	The cabinet Thursday approved a revised tariff schedule.	The cabinet Thursday approved a revised tariff schedule.	57079266	1473381269296	1473381269353	u	85
109986	1200402	The cabinet Thursday approved a revised tariff schedule.	The cabinet Thursday approved a revised tariff schedule.	57079268	1473381269445	1473381269527	l	76
109986	1200402	The cabinet Thursday approved a revised tariff schedule.	The cabinet Thursday approved a revised tariff schedule.	57079270	1473381269570	1473381269657	e	69
109986	1200402	The cabinet Thursday approved a revised tariff schedule.	The cabinet Thursday approved a revised tariff schedule.	57079272	1473381269711	1473381269822	.	190
109986	1200408	Did you set up my corporate account for me?	Did you set up my corporate account for me?	57079328	1473381271806	1473381271902	SHIFT	16
109986	1200408	Did you set up my corporate account for me?	Did you set up my corporate account for me?	57079329	1473381271885	1473381271956	D	68
109986	1200408	Did you set up my corporate account for me?	Did you set up my corporate account for me?	57079330	1473381271965	1473381272073	i	73
109986	1200408	Did you set up my corporate account for me?	Did you set up my corporate account for me?	57079331	1473381272084	1473381272186	d	68
109986	1200408	Did you set up my corporate account for me?	Did you set up my corporate account for me?	57079332	1473381272234	1473381272326	 	32
109986	1200408	Did you set up my corporate account for me?	Did you set up my corporate account for me?	57079333	1473381272374	1473381272451	y	89
109986	1200408	Did you set up my corporate account for me?	Did you set up my corporate account for me?	57079340	1473381272458	1473381272585	o	79
109986	1200408	Did you set up my corporate account for me?	Did you set up my corporate account for me?	57079342	1473381272518	1473381272625	u	85
109986	1200408	Did you set up my corporate account for me?	Did you set up my corporate account for me?	57079345	1473381272573	1473381272645	 	32
109986	1200408	Did you set up my corporate account for me?	Did you set up my corporate account for me?	57079349	1473381272668	1473381272850	s	83
109986	1200408	Did you set up my corporate account for me?	Did you set up my corporate account for me?	57079363	1473381272768	1473381272930	e	69
109986	1200408	Did you set up my corporate account for me?	Did you set up my corporate account for me?	57079365	1473381272887	1473381273024	t	84
109986	1200408	Did you set up my corporate account for me?	Did you set up my corporate account for me?	57079367	1473381273032	1473381273124	 	32
109986	1200408	Did you set up my corporate account for me?	Did you set up my corporate account for me?	57079369	1473381273132	1473381273229	u	85
109986	1200408	Did you set up my corporate account for me?	Did you set up my corporate account for me?	57079371	1473381273177	1473381273264	p	80
109986	1200408	Did you set up my corporate account for me?	Did you set up my corporate account for me?	57079375	1473381273297	1473381273378	 	32
109986	1200408	Did you set up my corporate account for me?	Did you set up my corporate account for me?	57079396	1473381273471	1473381273533	m	77
109986	1200408	Did you set up my corporate account for me?	Did you set up my corporate account for me?	57079400	1473381273646	1473381273718	y	89
109986	1200408	Did you set up my corporate account for me?	Did you set up my corporate account for me?	57079403	1473381273736	1473381273804	 	32
109986	1200408	Did you set up my corporate account for me?	Did you set up my corporate account for me?	57079406	1473381273925	1473381274027	c	67
109986	1200408	Did you set up my corporate account for me?	Did you set up my corporate account for me?	57079408	1473381274035	1473381274097	o	79
109986	1200408	Did you set up my corporate account for me?	Did you set up my corporate account for me?	57079414	1473381274150	1473381274271	r	82
109986	1200408	Did you set up my corporate account for me?	Did you set up my corporate account for me?	57079418	1473381274279	1473381274356	p	80
109986	1200408	Did you set up my corporate account for me?	Did you set up my corporate account for me?	57079421	1473381274449	1473381274511	o	79
109986	1200408	Did you set up my corporate account for me?	Did you set up my corporate account for me?	57079422	1473381274554	1473381274646	r	82
109986	1200408	Did you set up my corporate account for me?	Did you set up my corporate account for me?	57079425	1473381274669	1473381274755	a	65
109986	1200408	Did you set up my corporate account for me?	Did you set up my corporate account for me?	57079432	1473381274773	1473381274890	t	84
109986	1200408	Did you set up my corporate account for me?	Did you set up my corporate account for me?	57079433	1473381274858	1473381274975	e	69
109986	1200408	Did you set up my corporate account for me?	Did you set up my corporate account for me?	57079434	1473381274963	1473381275049	 	32
109986	1200408	Did you set up my corporate account for me?	Did you set up my corporate account for me?	57079435	1473381275107	1473381275269	a	65
109986	1200408	Did you set up my corporate account for me?	Did you set up my corporate account for me?	57079436	1473381275312	1473381275384	c	67
109986	1200408	Did you set up my corporate account for me?	Did you set up my corporate account for me?	57079441	1473381275457	1473381275548	c	67
109986	1200408	Did you set up my corporate account for me?	Did you set up my corporate account for me?	57079443	1473381275527	1473381275623	o	79
109986	1200408	Did you set up my corporate account for me?	Did you set up my corporate account for me?	57079444	1473381275592	1473381275648	u	85
109986	1200408	Did you set up my corporate account for me?	Did you set up my corporate account for me?	57079446	1473381275770	1473381275823	n	84
109986	1200408	Did you set up my corporate account for me?	Did you set up my corporate account for me?	57079476	1473381276265	1473381276312	BKSP	8
109986	1200408	Did you set up my corporate account for me?	Did you set up my corporate account for me?	57079479	1473381276364	1473381276446	BKSP	8
109986	1200408	Did you set up my corporate account for me?	Did you set up my corporate account for me?	57079480	1473381276554	1473381276616	n	78
109986	1200408	Did you set up my corporate account for me?	Did you set up my corporate account for me?	57079482	1473381276624	1473381276701	t	84
109986	1200408	Did you set up my corporate account for me?	Did you set up my corporate account for me?	57079484	1473381276724	1473381276781	 	32
109986	1200408	Did you set up my corporate account for me?	Did you set up my corporate account for me?	57079486	1473381276833	1473381276917	f	70
109986	1200408	Did you set up my corporate account for me?	Did you set up my corporate account for me?	57079497	1473381276903	1473381276970	o	79
109986	1200408	Did you set up my corporate account for me?	Did you set up my corporate account for me?	57079498	1473381276988	1473381277065	r	82
109986	1200408	Did you set up my corporate account for me?	Did you set up my corporate account for me?	57079499	1473381277073	1473381277135	 	32
109986	1200408	Did you set up my corporate account for me?	Did you set up my corporate account for me?	57079500	1473381277142	1473381277230	m	77
109986	1200408	Did you set up my corporate account for me?	Did you set up my corporate account for me?	57079501	1473381277248	1473381277361	e	69
109986	1200408	Did you set up my corporate account for me?	Did you set up my corporate account for me?	57079502	1473381277432	1473381277514	?	191
109986	1200416	Bob, I'll take Oakland as my winner this week.	Bob, I'll take Oakland as my winner this week.	57079569	1473381279178	1473381279240	b	66
109986	1200416	Bob, I'll take Oakland as my winner this week.	Bob, I'll take Oakland as my winner this week.	57079571	1473381279263	1473381279365	o	79
109986	1200416	Bob, I'll take Oakland as my winner this week.	Bob, I'll take Oakland as my winner this week.	57079575	1473381279647	1473381279734	b	66
109986	1200416	Bob, I'll take Oakland as my winner this week.	Bob, I'll take Oakland as my winner this week.	57079579	1473381279916	1473381279978	BKSP	8
109986	1200416	Bob, I'll take Oakland as my winner this week.	Bob, I'll take Oakland as my winner this week.	57079586	1473381280041	1473381280103	BKSP	8
109986	1200416	Bob, I'll take Oakland as my winner this week.	Bob, I'll take Oakland as my winner this week.	57079592	1473381280161	1473381280223	BKSP	8
109986	1200416	Bob, I'll take Oakland as my winner this week.	Bob, I'll take Oakland as my winner this week.	57079600	1473381280316	1473381280422	SHIFT	16
109986	1200416	Bob, I'll take Oakland as my winner this week.	Bob, I'll take Oakland as my winner this week.	57079604	1473381280370	1473381280467	B	66
109986	1200416	Bob, I'll take Oakland as my winner this week.	Bob, I'll take Oakland as my winner this week.	57079607	1473381280496	1473381280577	o	79
109986	1200416	Bob, I'll take Oakland as my winner this week.	Bob, I'll take Oakland as my winner this week.	57079608	1473381280601	1473381280716	b	66
109986	1200416	Bob, I'll take Oakland as my winner this week.	Bob, I'll take Oakland as my winner this week.	57079609	1473381280724	1473381280816	,	188
109986	1200416	Bob, I'll take Oakland as my winner this week.	Bob, I'll take Oakland as my winner this week.	57079610	1473381280789	1473381280856	 	32
109986	1200416	Bob, I'll take Oakland as my winner this week.	Bob, I'll take Oakland as my winner this week.	57079612	1473381280979	1473381281115	SHIFT	16
109986	1200416	Bob, I'll take Oakland as my winner this week.	Bob, I'll take Oakland as my winner this week.	57079611	1473381281039	1473381281106	I	73
109986	1200416	Bob, I'll take Oakland as my winner this week.	Bob, I'll take Oakland as my winner this week.	57079613	1473381281174	1473381281255	'	222
109986	1200416	Bob, I'll take Oakland as my winner this week.	Bob, I'll take Oakland as my winner this week.	57079630	1473381281373	1473381281415	l	76
109986	1200416	Bob, I'll take Oakland as my winner this week.	Bob, I'll take Oakland as my winner this week.	57079632	1473381281478	1473381281586	l	76
109986	1200416	Bob, I'll take Oakland as my winner this week.	Bob, I'll take Oakland as my winner this week.	57079635	1473381281564	1473381281634	 	32
109986	1200416	Bob, I'll take Oakland as my winner this week.	Bob, I'll take Oakland as my winner this week.	57079637	1473381281663	1473381281751	t	84
109986	1200416	Bob, I'll take Oakland as my winner this week.	Bob, I'll take Oakland as my winner this week.	57079638	1473381281757	1473381281889	a	65
109986	1200416	Bob, I'll take Oakland as my winner this week.	Bob, I'll take Oakland as my winner this week.	57079659	1473381281872	1473381281944	k	75
109986	1200416	Bob, I'll take Oakland as my winner this week.	Bob, I'll take Oakland as my winner this week.	57079661	1473381281957	1473381282033	e	69
109986	1200416	Bob, I'll take Oakland as my winner this week.	Bob, I'll take Oakland as my winner this week.	57079662	1473381282051	1473381282123	 	32
109986	1200416	Bob, I'll take Oakland as my winner this week.	Bob, I'll take Oakland as my winner this week.	57079663	1473381282156	1473381282313	SHIFT	16
109986	1200416	Bob, I'll take Oakland as my winner this week.	Bob, I'll take Oakland as my winner this week.	57079665	1473381282253	1473381282323	O	79
109986	1200416	Bob, I'll take Oakland as my winner this week.	Bob, I'll take Oakland as my winner this week.	57079669	1473381282396	1473381282525	a	65
109986	1200416	Bob, I'll take Oakland as my winner this week.	Bob, I'll take Oakland as my winner this week.	57079684	1473381282506	1473381282587	k	75
109986	1200416	Bob, I'll take Oakland as my winner this week.	Bob, I'll take Oakland as my winner this week.	57079685	1473381282755	1473381282842	l	76
109986	1200416	Bob, I'll take Oakland as my winner this week.	Bob, I'll take Oakland as my winner this week.	57079686	1473381282865	1473381282961	a	65
109986	1200416	Bob, I'll take Oakland as my winner this week.	Bob, I'll take Oakland as my winner this week.	57079689	1473381282984	1473381283051	n	78
109986	1200416	Bob, I'll take Oakland as my winner this week.	Bob, I'll take Oakland as my winner this week.	57079692	1473381283089	1473381283161	d	68
109986	1200416	Bob, I'll take Oakland as my winner this week.	Bob, I'll take Oakland as my winner this week.	57079696	1473381283224	1473381283296	 	32
109986	1200416	Bob, I'll take Oakland as my winner this week.	Bob, I'll take Oakland as my winner this week.	57079725	1473381283339	1473381283475	a	65
109986	1200416	Bob, I'll take Oakland as my winner this week.	Bob, I'll take Oakland as my winner this week.	57079727	1473381283444	1473381283530	s	83
109986	1200416	Bob, I'll take Oakland as my winner this week.	Bob, I'll take Oakland as my winner this week.	57079729	1473381283553	1473381283630	 	32
109986	1200416	Bob, I'll take Oakland as my winner this week.	Bob, I'll take Oakland as my winner this week.	57079731	1473381283679	1473381283740	m	77
109986	1200416	Bob, I'll take Oakland as my winner this week.	Bob, I'll take Oakland as my winner this week.	57079733	1473381283843	1473381283919	y	89
109986	1200416	Bob, I'll take Oakland as my winner this week.	Bob, I'll take Oakland as my winner this week.	57079741	1473381283943	1473381284019	 	32
109986	1200416	Bob, I'll take Oakland as my winner this week.	Bob, I'll take Oakland as my winner this week.	57079743	1473381284092	1473381284209	w	87
109986	1200416	Bob, I'll take Oakland as my winner this week.	Bob, I'll take Oakland as my winner this week.	57079745	1473381284167	1473381284258	i	73
109986	1200416	Bob, I'll take Oakland as my winner this week.	Bob, I'll take Oakland as my winner this week.	57079746	1473381284366	1473381284433	n	78
109986	1200416	Bob, I'll take Oakland as my winner this week.	Bob, I'll take Oakland as my winner this week.	57079748	1473381284466	1473381284573	e	69
109986	1200416	Bob, I'll take Oakland as my winner this week.	Bob, I'll take Oakland as my winner this week.	57079757	1473381284546	1473381284627	r	82
109986	1200416	Bob, I'll take Oakland as my winner this week.	Bob, I'll take Oakland as my winner this week.	57079758	1473381284616	1473381284692	 	32
109986	1200416	Bob, I'll take Oakland as my winner this week.	Bob, I'll take Oakland as my winner this week.	57079759	1473381284750	1473381284849	t	84
109986	1200416	Bob, I'll take Oakland as my winner this week.	Bob, I'll take Oakland as my winner this week.	57079760	1473381284815	1473381284886	h	72
109986	1200416	Bob, I'll take Oakland as my winner this week.	Bob, I'll take Oakland as my winner this week.	57079761	1473381284872	1473381284952	i	73
109986	1200416	Bob, I'll take Oakland as my winner this week.	Bob, I'll take Oakland as my winner this week.	57079762	1473381284976	1473381285068	s	83
109986	1200416	Bob, I'll take Oakland as my winner this week.	Bob, I'll take Oakland as my winner this week.	57079778	1473381285055	1473381285132	 	32
109986	1200416	Bob, I'll take Oakland as my winner this week.	Bob, I'll take Oakland as my winner this week.	57079779	1473381285184	1473381285311	w	87
109986	1200416	Bob, I'll take Oakland as my winner this week.	Bob, I'll take Oakland as my winner this week.	57079781	1473381285279	1473381285386	e	69
109986	1200416	Bob, I'll take Oakland as my winner this week.	Bob, I'll take Oakland as my winner this week.	57079782	1473381285469	1473381285577	e	69
109986	1200416	Bob, I'll take Oakland as my winner this week.	Bob, I'll take Oakland as my winner this week.	57079783	1473381285549	1473381285620	k	75
109986	1200416	Bob, I'll take Oakland as my winner this week.	Bob, I'll take Oakland as my winner this week.	57079784	1473381285733	1473381285910	.	190
109986	1200416	Bob, I'll take Oakland as my winner this week.	Bob, I'll take Oakland as my winner this week.	57079851	1473381286303	1473381287182	BKSP	8
109986	1200416	Bob, I'll take Oakland as my winner this week.	Bob, I'll take Oakland as my winner this week.	57079855	1473381287514	1473381287581	n	78
109986	1200416	Bob, I'll take Oakland as my winner this week.	Bob, I'll take Oakland as my winner this week.	57079857	1473381287688	1473381287760	n	78
109986	1200416	Bob, I'll take Oakland as my winner this week.	Bob, I'll take Oakland as my winner this week.	57079862	1473381287823	1473381287975	e	69
109986	1200416	Bob, I'll take Oakland as my winner this week.	Bob, I'll take Oakland as my winner this week.	57079870	1473381287918	1473381288025	r	82
109986	1200416	Bob, I'll take Oakland as my winner this week.	Bob, I'll take Oakland as my winner this week.	57079879	1473381288004	1473381288080	 	32
109986	1200416	Bob, I'll take Oakland as my winner this week.	Bob, I'll take Oakland as my winner this week.	57079881	1473381288149	1473381288251	t	84
109986	1200416	Bob, I'll take Oakland as my winner this week.	Bob, I'll take Oakland as my winner this week.	57079883	1473381288217	1473381288299	h	72
109986	1200416	Bob, I'll take Oakland as my winner this week.	Bob, I'll take Oakland as my winner this week.	57079885	1473381288277	1473381288370	i	73
109986	1200416	Bob, I'll take Oakland as my winner this week.	Bob, I'll take Oakland as my winner this week.	57079886	1473381288397	1473381288479	s	83
109986	1200416	Bob, I'll take Oakland as my winner this week.	Bob, I'll take Oakland as my winner this week.	57079892	1473381288467	1473381288570	 	32
109986	1200416	Bob, I'll take Oakland as my winner this week.	Bob, I'll take Oakland as my winner this week.	57079895	1473381288586	1473381288683	w	87
109986	1200416	Bob, I'll take Oakland as my winner this week.	Bob, I'll take Oakland as my winner this week.	57079897	1473381288662	1473381288734	e	69
109986	1200416	Bob, I'll take Oakland as my winner this week.	Bob, I'll take Oakland as my winner this week.	57079900	1473381288806	1473381288908	e	69
109986	1200416	Bob, I'll take Oakland as my winner this week.	Bob, I'll take Oakland as my winner this week.	57079903	1473381288884	1473381288948	k	75
109986	1200416	Bob, I'll take Oakland as my winner this week.	Bob, I'll take Oakland as my winner this week.	57079905	1473381289116	1473381289202	s	83
109986	1200416	Bob, I'll take Oakland as my winner this week.	Bob, I'll take Oakland as my winner this week.	57079915	1473381289210	1473381289268	.	190
109986	1200416	Bob, I'll take Oakland as my winner this week.	Bob, I'll take Oakland as my winner this week.	57079916	1473381289465	1473381289521	BKSP	8
109986	1200416	Bob, I'll take Oakland as my winner this week.	Bob, I'll take Oakland as my winner this week.	57079918	1473381289565	1473381289651	BKSP	8
109986	1200416	Bob, I'll take Oakland as my winner this week.	Bob, I'll take Oakland as my winner this week.	57079920	1473381289774	1473381289841	.	190
