PARTICIPANT_ID	TEST_SECTION_ID	SENTENCE	USER_INPUT	KEYSTROKE_ID	PRESS_TIME	RELEASE_TIME	LETTER	KEYCODE
114308	1243014	Need you or John to step out.	Need you or John to step out.	59105354	1473434427724	1473434428667	CTRL	17
114308	1243014	Need you or John to step out.	Need you or John to step out.	59105359	1473434436612	1473434436725	CAPS_LOCK	20
114308	1243014	Need you or John to step out.	Need you or John to step out.	59105364	1473434436684	1473434436804	N	78
114308	1243014	Need you or John to step out.	Need you or John to step out.	59105368	1473434436780	1473434436859	CAPS_LOCK	20
114308	1243014	Need you or John to step out.	Need you or John to step out.	59105369	1473434437043	1473434437147	e	69
114308	1243014	Need you or John to step out.	Need you or John to step out.	59105372	1473434437195	1473434437347	e	69
114308	1243014	Need you or John to step out.	Need you or John to step out.	59105375	1473434437260	1473434437451	d	68
114308	1243014	Need you or John to step out.	Need you or John to step out.	59105414	1473434437388	1473434437587	 	32
114308	1243014	Need you or John to step out.	Need you or John to step out.	59105417	1473434437988	1473434438116	y	89
114308	1243014	Need you or John to step out.	Need you or John to step out.	59105420	1473434438195	1473434438364	o	79
114308	1243014	Need you or John to step out.	Need you or John to step out.	59105425	1473434438261	1473434438488	u	85
114308	1243014	Need you or John to step out.	Need you or John to step out.	59105553	1473434438379	1473434438499	 	32
114308	1243014	Need you or John to step out.	Need you or John to step out.	59105557	1473434438452	1473434438587	o	79
114308	1243014	Need you or John to step out.	Need you or John to step out.	59105560	1473434438628	1473434438719	r	82
114308	1243014	Need you or John to step out.	Need you or John to step out.	59105563	1473434438684	1473434438827	 	32
114308	1243014	Need you or John to step out.	Need you or John to step out.	59105566	1473434439140	1473434439220	CAPS_LOCK	20
114308	1243014	Need you or John to step out.	Need you or John to step out.	59105568	1473434439236	1473434439363	J	74
114308	1243014	Need you or John to step out.	Need you or John to step out.	59105570	1473434439284	1473434439379	CAPS_LOCK	20
114308	1243014	Need you or John to step out.	Need you or John to step out.	59105573	1473434439916	1473434440060	o	79
114308	1243014	Need you or John to step out.	Need you or John to step out.	59105577	1473434440075	1473434440195	h	72
114308	1243014	Need you or John to step out.	Need you or John to step out.	59105674	1473434440164	1473434440252	n	78
114308	1243014	Need you or John to step out.	Need you or John to step out.	59105678	1473434440220	1473434440371	 	32
114308	1243014	Need you or John to step out.	Need you or John to step out.	59105681	1473434440628	1473434440772	t	84
114308	1243014	Need you or John to step out.	Need you or John to step out.	59105683	1473434440724	1473434440884	o	79
114308	1243014	Need you or John to step out.	Need you or John to step out.	59105685	1473434440803	1473434440947	 	32
114308	1243014	Need you or John to step out.	Need you or John to step out.	59105686	1473434441691	1473434441779	s	83
114308	1243014	Need you or John to step out.	Need you or John to step out.	59105737	1473434442020	1473434442171	t	84
114308	1243014	Need you or John to step out.	Need you or John to step out.	59105742	1473434442108	1473434442299	e	69
114308	1243014	Need you or John to step out.	Need you or John to step out.	59105746	1473434442323	1473434442491	p	80
114308	1243014	Need you or John to step out.	Need you or John to step out.	59105749	1473434442451	1473434442595	 	32
114308	1243014	Need you or John to step out.	Need you or John to step out.	59105753	1473434442868	1473434443019	o	79
114308	1243014	Need you or John to step out.	Need you or John to step out.	59105828	1473434443500	1473434443587	u	85
114308	1243014	Need you or John to step out.	Need you or John to step out.	59105831	1473434443619	1473434443755	t	84
114308	1243014	Need you or John to step out.	Need you or John to step out.	59105839	1473434444083	1473434444195	.	190
114308	1243042	I might have something at the office.	I might have something at the office.	59106210	1473434449460	1473434449539	CAPS_LOCK	20
114308	1243042	I might have something at the office.	I might have something at the office.	59106213	1473434449563	1473434449699	I	73
114308	1243042	I might have something at the office.	I might have something at the office.	59106217	1473434449614	1473434449723	CAPS_LOCK	20
114308	1243042	I might have something at the office.	I might have something at the office.	59106221	1473434449683	1473434449819	 	32
114308	1243042	I might have something at the office.	I might have something at the office.	59106225	1473434450195	1473434450347	m	77
114308	1243042	I might have something at the office.	I might have something at the office.	59106230	1473434450275	1473434450411	i	73
114308	1243042	I might have something at the office.	I might have something at the office.	59106233	1473434450571	1473434450715	g	71
114308	1243042	I might have something at the office.	I might have something at the office.	59106257	1473434450636	1473434450830	h	72
114308	1243042	I might have something at the office.	I might have something at the office.	59106260	1473434450796	1473434450971	t	84
114308	1243042	I might have something at the office.	I might have something at the office.	59106270	1473434450939	1473434451075	 	32
114308	1243042	I might have something at the office.	I might have something at the office.	59106275	1473434451123	1473434451267	h	72
114308	1243042	I might have something at the office.	I might have something at the office.	59106278	1473434451243	1473434451379	a	65
114308	1243042	I might have something at the office.	I might have something at the office.	59106283	1473434451411	1473434451532	v	86
114308	1243042	I might have something at the office.	I might have something at the office.	59106299	1473434451547	1473434451654	e	69
114308	1243042	I might have something at the office.	I might have something at the office.	59106301	1473434451611	1473434451755	 	32
114308	1243042	I might have something at the office.	I might have something at the office.	59106307	1473434451788	1473434451923	s	83
114308	1243042	I might have something at the office.	I might have something at the office.	59106313	1473434451947	1473434452107	o	79
114308	1243042	I might have something at the office.	I might have something at the office.	59106352	1473434452051	1473434452195	m	77
114308	1243042	I might have something at the office.	I might have something at the office.	59106355	1473434452179	1473434452284	e	69
114308	1243042	I might have something at the office.	I might have something at the office.	59106366	1473434452419	1473434452539	t	84
114308	1243042	I might have something at the office.	I might have something at the office.	59106374	1473434452523	1473434452652	h	72
114308	1243042	I might have something at the office.	I might have something at the office.	59106381	1473434452611	1473434452811	i	73
114308	1243042	I might have something at the office.	I might have something at the office.	59106391	1473434452755	1473434452889	n	78
114308	1243042	I might have something at the office.	I might have something at the office.	59106393	1473434452835	1473434452971	g	71
114308	1243042	I might have something at the office.	I might have something at the office.	59106395	1473434452955	1473434453075	 	32
114308	1243042	I might have something at the office.	I might have something at the office.	59106399	1473434453147	1473434453299	a	65
114308	1243042	I might have something at the office.	I might have something at the office.	59106406	1473434453267	1473434453403	t	84
114308	1243042	I might have something at the office.	I might have something at the office.	59106466	1473434453347	1473434453491	 	32
114308	1243042	I might have something at the office.	I might have something at the office.	59106469	1473434453627	1473434453755	t	84
114308	1243042	I might have something at the office.	I might have something at the office.	59106475	1473434453771	1473434453875	h	72
114308	1243042	I might have something at the office.	I might have something at the office.	59106479	1473434453891	1473434454027	e	69
114308	1243042	I might have something at the office.	I might have something at the office.	59106485	1473434453979	1473434454115	 	32
114308	1243042	I might have something at the office.	I might have something at the office.	59106489	1473434454195	1473434454339	o	79
114308	1243042	I might have something at the office.	I might have something at the office.	59106517	1473434454523	1473434454603	f	70
114308	1243042	I might have something at the office.	I might have something at the office.	59106522	1473434454691	1473434454755	f	70
114308	1243042	I might have something at the office.	I might have something at the office.	59106528	1473434454771	1473434454891	i	73
114308	1243042	I might have something at the office.	I might have something at the office.	59106535	1473434454915	1473434455067	c	67
114308	1243042	I might have something at the office.	I might have something at the office.	59106574	1473434454979	1473434455154	e	69
114308	1243042	I might have something at the office.	I might have something at the office.	59106579	1473434455403	1473434455523	.	190
114308	1243059	Penske wouldn't come here without a good idea it would hold up.	Penske wouldn't come her without a good idea it would hold up.	59107215	1473434463563	1473434463651	CAPS_LOCK	20
114308	1243059	Penske wouldn't come here without a good idea it would hold up.	Penske wouldn't come her without a good idea it would hold up.	59107220	1473434463667	1473434463795	P	80
114308	1243059	Penske wouldn't come here without a good idea it would hold up.	Penske wouldn't come her without a good idea it would hold up.	59107227	1473434463723	1473434463818	CAPS_LOCK	20
114308	1243059	Penske wouldn't come here without a good idea it would hold up.	Penske wouldn't come her without a good idea it would hold up.	59107233	1473434464019	1473434464155	e	69
114308	1243059	Penske wouldn't come here without a good idea it would hold up.	Penske wouldn't come her without a good idea it would hold up.	59107239	1473434464195	1473434464299	n	78
114308	1243059	Penske wouldn't come here without a good idea it would hold up.	Penske wouldn't come her without a good idea it would hold up.	59107238	1473434464228	1473434464267	m	77
114308	1243059	Penske wouldn't come here without a good idea it would hold up.	Penske wouldn't come her without a good idea it would hold up.	59107240	1473434465707	1473434465787	BKSP	8
114308	1243059	Penske wouldn't come here without a good idea it would hold up.	Penske wouldn't come her without a good idea it would hold up.	59107242	1473434465931	1473434466050	s	83
114308	1243059	Penske wouldn't come here without a good idea it would hold up.	Penske wouldn't come her without a good idea it would hold up.	59107266	1473434466138	1473434466302	k	75
114308	1243059	Penske wouldn't come here without a good idea it would hold up.	Penske wouldn't come her without a good idea it would hold up.	59107268	1473434466275	1473434466411	e	69
114308	1243059	Penske wouldn't come here without a good idea it would hold up.	Penske wouldn't come her without a good idea it would hold up.	59107270	1473434466379	1473434466523	 	32
114308	1243059	Penske wouldn't come here without a good idea it would hold up.	Penske wouldn't come her without a good idea it would hold up.	59107276	1473434466619	1473434466770	w	87
114308	1243059	Penske wouldn't come here without a good idea it would hold up.	Penske wouldn't come her without a good idea it would hold up.	59107356	1473434466731	1473434466946	o	79
114308	1243059	Penske wouldn't come here without a good idea it would hold up.	Penske wouldn't come her without a good idea it would hold up.	59107360	1473434466898	1473434467043	u	85
114308	1243059	Penske wouldn't come here without a good idea it would hold up.	Penske wouldn't come her without a good idea it would hold up.	59107363	1473434467291	1473434467418	l	76
114308	1243059	Penske wouldn't come here without a good idea it would hold up.	Penske wouldn't come her without a good idea it would hold up.	59107366	1473434467443	1473434467580	d	68
114308	1243059	Penske wouldn't come here without a good idea it would hold up.	Penske wouldn't come her without a good idea it would hold up.	59107372	1473434467602	1473434467768	n	78
114308	1243059	Penske wouldn't come here without a good idea it would hold up.	Penske wouldn't come her without a good idea it would hold up.	59107621	1473434468139	1473434468290	'	222
114308	1243059	Penske wouldn't come here without a good idea it would hold up.	Penske wouldn't come her without a good idea it would hold up.	59107377	1473434468163	1473434468179	;	186
114308	1243059	Penske wouldn't come here without a good idea it would hold up.	Penske wouldn't come her without a good idea it would hold up.	59107623	1473434468427	1473434468579	t	84
114308	1243059	Penske wouldn't come here without a good idea it would hold up.	Penske wouldn't come her without a good idea it would hold up.	59107627	1473434468715	1473434468843	 	32
114308	1243059	Penske wouldn't come here without a good idea it would hold up.	Penske wouldn't come her without a good idea it would hold up.	59107630	1473434469259	1473434469347	BKSP	8
114308	1243059	Penske wouldn't come here without a good idea it would hold up.	Penske wouldn't come her without a good idea it would hold up.	59107634	1473434469419	1473434469475	BKSP	8
114308	1243059	Penske wouldn't come here without a good idea it would hold up.	Penske wouldn't come her without a good idea it would hold up.	59107637	1473434469538	1473434469603	BKSP	8
114308	1243059	Penske wouldn't come here without a good idea it would hold up.	Penske wouldn't come her without a good idea it would hold up.	59107641	1473434469651	1473434469699	BKSP	8
114308	1243059	Penske wouldn't come here without a good idea it would hold up.	Penske wouldn't come her without a good idea it would hold up.	59107643	1473434471723	1473434471819	'	222
114308	1243059	Penske wouldn't come here without a good idea it would hold up.	Penske wouldn't come her without a good idea it would hold up.	59107646	1473434471835	1473434471931	t	84
114308	1243059	Penske wouldn't come here without a good idea it would hold up.	Penske wouldn't come her without a good idea it would hold up.	59107651	1473434471963	1473434472075	 	32
114308	1243059	Penske wouldn't come here without a good idea it would hold up.	Penske wouldn't come her without a good idea it would hold up.	59107680	1473434472475	1473434472611	c	67
114308	1243059	Penske wouldn't come here without a good idea it would hold up.	Penske wouldn't come her without a good idea it would hold up.	59107683	1473434472650	1473434472851	o	79
114308	1243059	Penske wouldn't come here without a good idea it would hold up.	Penske wouldn't come her without a good idea it would hold up.	59107686	1473434472771	1473434472923	m	77
114308	1243059	Penske wouldn't come here without a good idea it would hold up.	Penske wouldn't come her without a good idea it would hold up.	59107727	1473434472866	1473434472962	e	69
114308	1243059	Penske wouldn't come here without a good idea it would hold up.	Penske wouldn't come her without a good idea it would hold up.	59107728	1473434472906	1473434473050	 	32
114308	1243059	Penske wouldn't come here without a good idea it would hold up.	Penske wouldn't come her without a good idea it would hold up.	59107732	1473434473091	1473434473227	h	72
114308	1243059	Penske wouldn't come here without a good idea it would hold up.	Penske wouldn't come her without a good idea it would hold up.	59107740	1473434473187	1473434473514	e	69
114308	1243059	Penske wouldn't come here without a good idea it would hold up.	Penske wouldn't come her without a good idea it would hold up.	59107737	1473434473291	1473434473410	r	82
114308	1243059	Penske wouldn't come here without a good idea it would hold up.	Penske wouldn't come her without a good idea it would hold up.	59107742	1473434473563	1473434473699	 	32
114308	1243059	Penske wouldn't come here without a good idea it would hold up.	Penske wouldn't come her without a good idea it would hold up.	59107745	1473434473715	1473434473819	w	87
114308	1243059	Penske wouldn't come here without a good idea it would hold up.	Penske wouldn't come her without a good idea it would hold up.	59107774	1473434473842	1473434473979	i	73
114308	1243059	Penske wouldn't come here without a good idea it would hold up.	Penske wouldn't come her without a good idea it would hold up.	59107780	1473434474034	1473434474162	t	84
114308	1243059	Penske wouldn't come here without a good idea it would hold up.	Penske wouldn't come her without a good idea it would hold up.	59107786	1473434474139	1473434474430	h	72
114308	1243059	Penske wouldn't come here without a good idea it would hold up.	Penske wouldn't come her without a good idea it would hold up.	59107830	1473434474299	1473434474506	o	79
114308	1243059	Penske wouldn't come here without a good idea it would hold up.	Penske wouldn't come her without a good idea it would hold up.	59107836	1473434474395	1473434474571	u	85
114308	1243059	Penske wouldn't come here without a good idea it would hold up.	Penske wouldn't come her without a good idea it would hold up.	59107845	1473434474530	1473434474642	t	84
114308	1243059	Penske wouldn't come here without a good idea it would hold up.	Penske wouldn't come her without a good idea it would hold up.	59107851	1473434474658	1473434474787	 	32
114308	1243059	Penske wouldn't come here without a good idea it would hold up.	Penske wouldn't come her without a good idea it would hold up.	59107856	1473434474866	1473434475011	a	65
114308	1243059	Penske wouldn't come here without a good idea it would hold up.	Penske wouldn't come her without a good idea it would hold up.	59107860	1473434474979	1473434475123	 	32
114308	1243059	Penske wouldn't come here without a good idea it would hold up.	Penske wouldn't come her without a good idea it would hold up.	59107863	1473434475435	1473434475578	g	71
114308	1243059	Penske wouldn't come here without a good idea it would hold up.	Penske wouldn't come her without a good idea it would hold up.	59107906	1473434475803	1473434475883	o	79
114308	1243059	Penske wouldn't come here without a good idea it would hold up.	Penske wouldn't come her without a good idea it would hold up.	59107913	1473434475962	1473434476034	o	79
114308	1243059	Penske wouldn't come here without a good idea it would hold up.	Penske wouldn't come her without a good idea it would hold up.	59107920	1473434476059	1473434476187	d	68
114308	1243059	Penske wouldn't come here without a good idea it would hold up.	Penske wouldn't come her without a good idea it would hold up.	59107923	1473434476106	1473434476258	 	32
114308	1243059	Penske wouldn't come here without a good idea it would hold up.	Penske wouldn't come her without a good idea it would hold up.	59107931	1473434476314	1473434476426	i	73
114308	1243059	Penske wouldn't come here without a good idea it would hold up.	Penske wouldn't come her without a good idea it would hold up.	59108086	1473434476474	1473434476634	d	68
114308	1243059	Penske wouldn't come here without a good idea it would hold up.	Penske wouldn't come her without a good idea it would hold up.	59108090	1473434476658	1473434476786	e	69
114308	1243059	Penske wouldn't come here without a good idea it would hold up.	Penske wouldn't come her without a good idea it would hold up.	59108094	1473434476963	1473434477090	a	65
114308	1243059	Penske wouldn't come here without a good idea it would hold up.	Penske wouldn't come her without a good idea it would hold up.	59108096	1473434477178	1473434477338	 	32
114308	1243059	Penske wouldn't come here without a good idea it would hold up.	Penske wouldn't come her without a good idea it would hold up.	59108098	1473434478339	1473434478458	i	73
114308	1243059	Penske wouldn't come here without a good idea it would hold up.	Penske wouldn't come her without a good idea it would hold up.	59108163	1473434478419	1473434478554	t	84
114308	1243059	Penske wouldn't come here without a good idea it would hold up.	Penske wouldn't come her without a good idea it would hold up.	59108165	1473434478538	1473434478658	 	32
114308	1243059	Penske wouldn't come here without a good idea it would hold up.	Penske wouldn't come her without a good idea it would hold up.	59108167	1473434478826	1473434478954	w	87
114308	1243059	Penske wouldn't come here without a good idea it would hold up.	Penske wouldn't come her without a good idea it would hold up.	59108169	1473434478970	1473434479162	o	79
114308	1243059	Penske wouldn't come here without a good idea it would hold up.	Penske wouldn't come her without a good idea it would hold up.	59108171	1473434479106	1473434479250	u	85
114308	1243059	Penske wouldn't come here without a good idea it would hold up.	Penske wouldn't come her without a good idea it would hold up.	59108176	1473434479402	1473434479530	l	76
114308	1243059	Penske wouldn't come here without a good idea it would hold up.	Penske wouldn't come her without a good idea it would hold up.	59108236	1473434479578	1473434479722	d	68
114308	1243059	Penske wouldn't come here without a good idea it would hold up.	Penske wouldn't come her without a good idea it would hold up.	59108239	1473434479675	1473434479834	 	32
114308	1243059	Penske wouldn't come here without a good idea it would hold up.	Penske wouldn't come her without a good idea it would hold up.	59108244	1473434479978	1473434480178	h	72
114308	1243059	Penske wouldn't come here without a good idea it would hold up.	Penske wouldn't come her without a good idea it would hold up.	59108249	1473434480082	1473434480298	o	79
114308	1243059	Penske wouldn't come here without a good idea it would hold up.	Penske wouldn't come her without a good idea it would hold up.	59108255	1473434480618	1473434480722	l	76
114308	1243059	Penske wouldn't come here without a good idea it would hold up.	Penske wouldn't come her without a good idea it would hold up.	59108319	1473434480874	1473434481027	d	68
114308	1243059	Penske wouldn't come here without a good idea it would hold up.	Penske wouldn't come her without a good idea it would hold up.	59108323	1473434480978	1473434481130	 	32
114308	1243059	Penske wouldn't come here without a good idea it would hold up.	Penske wouldn't come her without a good idea it would hold up.	59108331	1473434481291	1473434481498	u	85
114308	1243059	Penske wouldn't come here without a good idea it would hold up.	Penske wouldn't come her without a good idea it would hold up.	59108337	1473434481442	1473434481578	p	80
114308	1243059	Penske wouldn't come here without a good idea it would hold up.	Penske wouldn't come her without a good idea it would hold up.	59108345	1473434482138	1473434482258	.	190
114308	1243094	I'll send you minutes.	I'll send you minutes.	59108804	1473434487818	1473434487882	CAPS_LOCK	20
114308	1243094	I'll send you minutes.	I'll send you minutes.	59108810	1473434487866	1473434487994	I	73
114308	1243094	I'll send you minutes.	I'll send you minutes.	59108816	1473434487963	1473434488050	CAPS_LOCK	20
114308	1243094	I'll send you minutes.	I'll send you minutes.	59108824	1473434489346	1473434489458	'	222
114308	1243094	I'll send you minutes.	I'll send you minutes.	59108832	1473434489754	1473434489842	l	76
114308	1243094	I'll send you minutes.	I'll send you minutes.	59108842	1473434489890	1473434490026	l	76
114308	1243094	I'll send you minutes.	I'll send you minutes.	59108868	1473434490010	1473434490130	 	32
114308	1243094	I'll send you minutes.	I'll send you minutes.	59108876	1473434490194	1473434490394	s	83
114308	1243094	I'll send you minutes.	I'll send you minutes.	59108883	1473434490354	1473434490530	e	69
114308	1243094	I'll send you minutes.	I'll send you minutes.	59108888	1473434490506	1473434490642	n	78
114308	1243094	I'll send you minutes.	I'll send you minutes.	59108891	1473434490618	1473434490770	d	68
114308	1243094	I'll send you minutes.	I'll send you minutes.	59108944	1473434490738	1473434490874	 	32
114308	1243094	I'll send you minutes.	I'll send you minutes.	59108947	1473434490954	1473434491074	y	89
114308	1243094	I'll send you minutes.	I'll send you minutes.	59108952	1473434491050	1473434491258	o	79
114308	1243094	I'll send you minutes.	I'll send you minutes.	59108958	1473434491146	1473434491322	u	85
114308	1243094	I'll send you minutes.	I'll send you minutes.	59108963	1473434491282	1473434491410	 	32
114308	1243094	I'll send you minutes.	I'll send you minutes.	59108967	1473434491714	1473434491882	m	77
114308	1243094	I'll send you minutes.	I'll send you minutes.	59109007	1473434491842	1473434492042	i	73
114308	1243094	I'll send you minutes.	I'll send you minutes.	59109015	1473434491994	1473434492130	n	78
114308	1243094	I'll send you minutes.	I'll send you minutes.	59109026	1473434492154	1473434492274	u	85
114308	1243094	I'll send you minutes.	I'll send you minutes.	59109035	1473434492354	1473434492458	t	84
114308	1243094	I'll send you minutes.	I'll send you minutes.	59109044	1473434492522	1473434492626	e	69
114308	1243094	I'll send you minutes.	I'll send you minutes.	59109052	1473434492698	1473434492818	s	83
114308	1243094	I'll send you minutes.	I'll send you minutes.	59109062	1473434492970	1473434493082	.	190
114308	1243108	Northern forces had captured a southern mechanised brigade.	Northern forces have captured a southern merchanised brigade.	59109523	1473434498810	1473434498906	CAPS_LOCK	20
114308	1243108	Northern forces had captured a southern mechanised brigade.	Northern forces have captured a southern merchanised brigade.	59109527	1473434498890	1473434499002	N	78
114308	1243108	Northern forces had captured a southern mechanised brigade.	Northern forces have captured a southern merchanised brigade.	59109534	1473434498970	1473434499065	CAPS_LOCK	20
114308	1243108	Northern forces had captured a southern mechanised brigade.	Northern forces have captured a southern merchanised brigade.	59109542	1473434499218	1473434499346	o	79
114308	1243108	Northern forces had captured a southern mechanised brigade.	Northern forces have captured a southern merchanised brigade.	59109548	1473434499738	1473434499850	r	82
114308	1243108	Northern forces had captured a southern mechanised brigade.	Northern forces have captured a southern merchanised brigade.	59109552	1473434499881	1473434500050	t	84
114308	1243108	Northern forces had captured a southern mechanised brigade.	Northern forces have captured a southern merchanised brigade.	59109614	1473434499962	1473434500105	h	72
114308	1243108	Northern forces had captured a southern mechanised brigade.	Northern forces have captured a southern merchanised brigade.	59109618	1473434500169	1473434500266	e	69
114308	1243108	Northern forces had captured a southern mechanised brigade.	Northern forces have captured a southern merchanised brigade.	59109620	1473434500378	1473434500499	r	82
114308	1243108	Northern forces had captured a southern mechanised brigade.	Northern forces have captured a southern merchanised brigade.	59109624	1473434500657	1473434500810	n	78
114308	1243108	Northern forces had captured a southern mechanised brigade.	Northern forces have captured a southern merchanised brigade.	59109627	1473434500762	1473434500922	 	32
114308	1243108	Northern forces had captured a southern mechanised brigade.	Northern forces have captured a southern merchanised brigade.	59109630	1473434501058	1473434501186	f	70
114308	1243108	Northern forces had captured a southern mechanised brigade.	Northern forces have captured a southern merchanised brigade.	59109685	1473434501249	1473434501474	o	79
114308	1243108	Northern forces had captured a southern mechanised brigade.	Northern forces have captured a southern merchanised brigade.	59109693	1473434501569	1473434501690	r	82
114308	1243108	Northern forces had captured a southern mechanised brigade.	Northern forces have captured a southern merchanised brigade.	59109700	1473434501858	1473434502034	c	67
114308	1243108	Northern forces had captured a southern mechanised brigade.	Northern forces have captured a southern merchanised brigade.	59109703	1473434501978	1473434502185	e	69
114308	1243108	Northern forces had captured a southern mechanised brigade.	Northern forces have captured a southern merchanised brigade.	59109761	1473434502130	1473434502273	s	83
114308	1243108	Northern forces had captured a southern mechanised brigade.	Northern forces have captured a southern merchanised brigade.	59109763	1473434502297	1473434502450	 	32
114308	1243108	Northern forces had captured a southern mechanised brigade.	Northern forces have captured a southern merchanised brigade.	59109765	1473434502714	1473434502842	h	72
114308	1243108	Northern forces had captured a southern mechanised brigade.	Northern forces have captured a southern merchanised brigade.	59109767	1473434502810	1473434502938	a	65
114308	1243108	Northern forces had captured a southern mechanised brigade.	Northern forces have captured a southern merchanised brigade.	59109769	1473434502978	1473434503098	v	86
114308	1243108	Northern forces had captured a southern mechanised brigade.	Northern forces have captured a southern merchanised brigade.	59109771	1473434503113	1473434503226	e	69
114308	1243108	Northern forces had captured a southern mechanised brigade.	Northern forces have captured a southern merchanised brigade.	59109828	1473434503194	1473434503337	 	32
114308	1243108	Northern forces had captured a southern mechanised brigade.	Northern forces have captured a southern merchanised brigade.	59109833	1473434503394	1473434503506	c	67
114308	1243108	Northern forces had captured a southern mechanised brigade.	Northern forces have captured a southern merchanised brigade.	59109837	1473434503522	1473434503634	a	65
114308	1243108	Northern forces had captured a southern mechanised brigade.	Northern forces have captured a southern merchanised brigade.	59109842	1473434503810	1473434503914	p	80
114308	1243108	Northern forces had captured a southern mechanised brigade.	Northern forces have captured a southern merchanised brigade.	59109849	1473434503986	1473434504122	t	84
114308	1243108	Northern forces had captured a southern mechanised brigade.	Northern forces have captured a southern merchanised brigade.	59109853	1473434504146	1473434504258	u	85
114308	1243108	Northern forces had captured a southern mechanised brigade.	Northern forces have captured a southern merchanised brigade.	59109940	1473434504345	1473434504522	r	82
114308	1243108	Northern forces had captured a southern mechanised brigade.	Northern forces have captured a southern merchanised brigade.	59109945	1473434504458	1473434504678	e	69
114308	1243108	Northern forces had captured a southern mechanised brigade.	Northern forces have captured a southern merchanised brigade.	59109951	1473434504642	1473434504802	d	68
114308	1243108	Northern forces had captured a southern mechanised brigade.	Northern forces have captured a southern merchanised brigade.	59109957	1473434504826	1473434504985	 	32
114308	1243108	Northern forces had captured a southern mechanised brigade.	Northern forces have captured a southern merchanised brigade.	59109959	1473434505530	1473434505666	a	65
114308	1243108	Northern forces had captured a southern mechanised brigade.	Northern forces have captured a southern merchanised brigade.	59110029	1473434505634	1473434505753	 	32
114308	1243108	Northern forces had captured a southern mechanised brigade.	Northern forces have captured a southern merchanised brigade.	59110033	1473434505906	1473434506050	s	83
114308	1243108	Northern forces had captured a southern mechanised brigade.	Northern forces have captured a southern merchanised brigade.	59110038	1473434506258	1473434506418	o	79
114308	1243108	Northern forces had captured a southern mechanised brigade.	Northern forces have captured a southern merchanised brigade.	59110042	1473434506354	1473434506522	u	85
114308	1243108	Northern forces had captured a southern mechanised brigade.	Northern forces have captured a southern merchanised brigade.	59110049	1473434506537	1473434506658	t	84
114308	1243108	Northern forces had captured a southern mechanised brigade.	Northern forces have captured a southern merchanised brigade.	59110060	1473434506673	1473434506778	h	72
114308	1243108	Northern forces had captured a southern mechanised brigade.	Northern forces have captured a southern merchanised brigade.	59110165	1473434506889	1473434507058	e	69
114308	1243108	Northern forces had captured a southern mechanised brigade.	Northern forces have captured a southern merchanised brigade.	59110174	1473434506962	1473434507170	r	82
114308	1243108	Northern forces had captured a southern mechanised brigade.	Northern forces have captured a southern merchanised brigade.	59110178	1473434507234	1473434507426	n	78
114308	1243108	Northern forces had captured a southern mechanised brigade.	Northern forces have captured a southern merchanised brigade.	59110185	1473434507346	1473434507498	 	32
114308	1243108	Northern forces had captured a southern mechanised brigade.	Northern forces have captured a southern merchanised brigade.	59110189	1473434508241	1473434508346	m	77
114308	1243108	Northern forces had captured a southern mechanised brigade.	Northern forces have captured a southern merchanised brigade.	59110234	1473434508465	1473434508578	e	69
114308	1243108	Northern forces had captured a southern mechanised brigade.	Northern forces have captured a southern merchanised brigade.	59110239	1473434508706	1473434508826	r	82
114308	1243108	Northern forces had captured a southern mechanised brigade.	Northern forces have captured a southern merchanised brigade.	59110247	1473434509050	1473434509250	c	67
114308	1243108	Northern forces had captured a southern mechanised brigade.	Northern forces have captured a southern merchanised brigade.	59110253	1473434509154	1473434509313	h	72
114308	1243108	Northern forces had captured a southern mechanised brigade.	Northern forces have captured a southern merchanised brigade.	59110418	1473434509266	1473434509417	a	65
114308	1243108	Northern forces had captured a southern mechanised brigade.	Northern forces have captured a southern merchanised brigade.	59110422	1473434509737	1473434509890	n	78
114308	1243108	Northern forces had captured a southern mechanised brigade.	Northern forces have captured a southern merchanised brigade.	59110426	1473434510642	1473434510722	i	73
114308	1243108	Northern forces had captured a southern mechanised brigade.	Northern forces have captured a southern merchanised brigade.	59110436	1473434510962	1473434511058	s	83
114308	1243108	Northern forces had captured a southern mechanised brigade.	Northern forces have captured a southern merchanised brigade.	59110442	1473434511146	1473434511234	e	69
114308	1243108	Northern forces had captured a southern mechanised brigade.	Northern forces have captured a southern merchanised brigade.	59110448	1473434511305	1473434511441	d	68
114308	1243108	Northern forces had captured a southern mechanised brigade.	Northern forces have captured a southern merchanised brigade.	59110625	1473434511425	1473434511505	 	32
114308	1243108	Northern forces had captured a southern mechanised brigade.	Northern forces have captured a southern merchanised brigade.	59110628	1473434513033	1473434513145	b	66
114308	1243108	Northern forces had captured a southern mechanised brigade.	Northern forces have captured a southern merchanised brigade.	59110633	1473434513410	1473434513529	r	82
114308	1243108	Northern forces had captured a southern mechanised brigade.	Northern forces have captured a southern merchanised brigade.	59110638	1473434513610	1473434513721	i	73
114308	1243108	Northern forces had captured a southern mechanised brigade.	Northern forces have captured a southern merchanised brigade.	59110643	1473434513929	1473434514069	g	71
114308	1243108	Northern forces had captured a southern mechanised brigade.	Northern forces have captured a southern merchanised brigade.	59110687	1473434514042	1473434514193	a	65
114308	1243108	Northern forces had captured a southern mechanised brigade.	Northern forces have captured a southern merchanised brigade.	59110689	1473434514225	1473434514338	d	68
114308	1243108	Northern forces had captured a southern mechanised brigade.	Northern forces have captured a southern merchanised brigade.	59110691	1473434514401	1473434514545	e	69
114308	1243108	Northern forces had captured a southern mechanised brigade.	Northern forces have captured a southern merchanised brigade.	59110695	1473434514762	1473434514889	.	190
114308	1243143	The buses will be identified by their cities of origin.	The buses will be indetified by its cite of orgin.	59111276	1473434522986	1473434523133	CAPS_LOCK	20
114308	1243143	The buses will be identified by their cities of origin.	The buses will be indetified by its cite of orgin.	59111279	1473434523097	1473434523217	T	84
114308	1243143	The buses will be identified by their cities of origin.	The buses will be indetified by its cite of orgin.	59111284	1473434523169	1473434523289	CAPS_LOCK	20
114308	1243143	The buses will be identified by their cities of origin.	The buses will be indetified by its cite of orgin.	59111287	1473434523529	1473434523673	h	72
114308	1243143	The buses will be identified by their cities of origin.	The buses will be indetified by its cite of orgin.	59111292	1473434523633	1473434523801	e	69
114308	1243143	The buses will be identified by their cities of origin.	The buses will be indetified by its cite of orgin.	59111296	1473434523713	1473434523905	 	32
114308	1243143	The buses will be identified by their cities of origin.	The buses will be indetified by its cite of orgin.	59111304	1473434524009	1473434524201	b	66
114308	1243143	The buses will be identified by their cities of origin.	The buses will be indetified by its cite of orgin.	59111392	1473434524113	1473434524306	u	85
114308	1243143	The buses will be identified by their cities of origin.	The buses will be indetified by its cite of orgin.	59111396	1473434524265	1473434524345	s	83
114308	1243143	The buses will be identified by their cities of origin.	The buses will be indetified by its cite of orgin.	59111398	1473434524441	1473434524497	s	83
114308	1243143	The buses will be identified by their cities of origin.	The buses will be indetified by its cite of orgin.	59111401	1473434525073	1473434525129	BKSP	8
114308	1243143	The buses will be identified by their cities of origin.	The buses will be indetified by its cite of orgin.	59111404	1473434525457	1473434525673	e	69
114308	1243143	The buses will be identified by their cities of origin.	The buses will be indetified by its cite of orgin.	59111407	1473434525609	1473434525737	s	83
114308	1243143	The buses will be identified by their cities of origin.	The buses will be indetified by its cite of orgin.	59111427	1473434525713	1473434525982	 	32
114308	1243143	The buses will be identified by their cities of origin.	The buses will be indetified by its cite of orgin.	59111430	1473434525983	1473434526097	w	87
114308	1243143	The buses will be identified by their cities of origin.	The buses will be indetified by its cite of orgin.	59111433	1473434526121	1473434526256	i	73
114308	1243143	The buses will be identified by their cities of origin.	The buses will be indetified by its cite of orgin.	59111443	1473434526169	1473434526297	l	76
114308	1243143	The buses will be identified by their cities of origin.	The buses will be indetified by its cite of orgin.	59111451	1473434526353	1473434526499	l	76
114308	1243143	The buses will be identified by their cities of origin.	The buses will be indetified by its cite of orgin.	59111508	1473434526473	1473434526625	 	32
114308	1243143	The buses will be identified by their cities of origin.	The buses will be indetified by its cite of orgin.	59111512	1473434526649	1473434526785	b	66
114308	1243143	The buses will be identified by their cities of origin.	The buses will be indetified by its cite of orgin.	59111517	1473434526809	1473434526953	e	69
114308	1243143	The buses will be identified by their cities of origin.	The buses will be indetified by its cite of orgin.	59111523	1473434526929	1473434527057	 	32
114308	1243143	The buses will be identified by their cities of origin.	The buses will be indetified by its cite of orgin.	59111528	1473434527233	1473434527425	i	73
114308	1243143	The buses will be identified by their cities of origin.	The buses will be indetified by its cite of orgin.	59111638	1473434527354	1473434527513	n	78
114308	1243143	The buses will be identified by their cities of origin.	The buses will be indetified by its cite of orgin.	59111642	1473434527665	1473434527825	d	68
114308	1243143	The buses will be identified by their cities of origin.	The buses will be indetified by its cite of orgin.	59111644	1473434527785	1473434527945	e	69
114308	1243143	The buses will be identified by their cities of origin.	The buses will be indetified by its cite of orgin.	59111648	1473434528145	1473434528273	n	78
114308	1243143	The buses will be identified by their cities of origin.	The buses will be indetified by its cite of orgin.	59111653	1473434528721	1473434528841	BKSP	8
114308	1243143	The buses will be identified by their cities of origin.	The buses will be indetified by its cite of orgin.	59111659	1473434528897	1473434529033	t	84
114308	1243143	The buses will be identified by their cities of origin.	The buses will be indetified by its cite of orgin.	59111667	1473434529121	1473434529241	i	73
114308	1243143	The buses will be identified by their cities of origin.	The buses will be indetified by its cite of orgin.	59111733	1473434529321	1473434529465	f	70
114308	1243143	The buses will be identified by their cities of origin.	The buses will be indetified by its cite of orgin.	59111738	1473434529553	1473434529673	i	73
114308	1243143	The buses will be identified by their cities of origin.	The buses will be indetified by its cite of orgin.	59111741	1473434529953	1473434530057	e	69
114308	1243143	The buses will be identified by their cities of origin.	The buses will be indetified by its cite of orgin.	59111743	1473434530129	1473434530249	d	68
114308	1243143	The buses will be identified by their cities of origin.	The buses will be indetified by its cite of orgin.	59111839	1473434530233	1473434530417	 	32
114308	1243143	The buses will be identified by their cities of origin.	The buses will be indetified by its cite of orgin.	59111844	1473434530449	1473434530609	n	78
114308	1243143	The buses will be identified by their cities of origin.	The buses will be indetified by its cite of orgin.	59111847	1473434530969	1473434531097	BKSP	8
114308	1243143	The buses will be identified by their cities of origin.	The buses will be indetified by its cite of orgin.	59111853	1473434531185	1473434531329	b	66
114308	1243143	The buses will be identified by their cities of origin.	The buses will be indetified by its cite of orgin.	59111857	1473434531409	1473434531545	y	89
114308	1243143	The buses will be identified by their cities of origin.	The buses will be indetified by its cite of orgin.	59111861	1473434531489	1473434531697	 	32
114308	1243143	The buses will be identified by their cities of origin.	The buses will be indetified by its cite of orgin.	59111867	1473434531793	1473434531977	i	73
114308	1243143	The buses will be identified by their cities of origin.	The buses will be indetified by its cite of orgin.	59111932	1473434531937	1473434532088	t	84
114308	1243143	The buses will be identified by their cities of origin.	The buses will be indetified by its cite of orgin.	59111938	1473434532073	1473434532225	s	83
114308	1243143	The buses will be identified by their cities of origin.	The buses will be indetified by its cite of orgin.	59111943	1473434532153	1473434532289	 	32
114308	1243143	The buses will be identified by their cities of origin.	The buses will be indetified by its cite of orgin.	59111947	1473434532505	1473434532657	c	67
114308	1243143	The buses will be identified by their cities of origin.	The buses will be indetified by its cite of orgin.	59111949	1473434532761	1473434532976	i	73
114308	1243143	The buses will be identified by their cities of origin.	The buses will be indetified by its cite of orgin.	59112003	1473434532929	1473434533104	t	84
114308	1243143	The buses will be identified by their cities of origin.	The buses will be indetified by its cite of orgin.	59112008	1473434533120	1473434533281	e	69
114308	1243143	The buses will be identified by their cities of origin.	The buses will be indetified by its cite of orgin.	59112014	1473434533265	1473434533425	 	32
114308	1243143	The buses will be identified by their cities of origin.	The buses will be indetified by its cite of orgin.	59112019	1473434533505	1473434533649	o	79
114308	1243143	The buses will be identified by their cities of origin.	The buses will be indetified by its cite of orgin.	59112024	1473434533600	1473434533729	f	70
114308	1243143	The buses will be identified by their cities of origin.	The buses will be indetified by its cite of orgin.	59112028	1473434533752	1473434533897	 	32
114308	1243143	The buses will be identified by their cities of origin.	The buses will be indetified by its cite of orgin.	59112085	1473434533985	1473434534113	o	79
114308	1243143	The buses will be identified by their cities of origin.	The buses will be indetified by its cite of orgin.	59112088	1473434534145	1473434534289	r	82
114308	1243143	The buses will be identified by their cities of origin.	The buses will be indetified by its cite of orgin.	59112090	1473434534641	1473434534793	g	71
114308	1243143	The buses will be identified by their cities of origin.	The buses will be indetified by its cite of orgin.	59112095	1473434534737	1473434534961	i	73
114308	1243143	The buses will be identified by their cities of origin.	The buses will be indetified by its cite of orgin.	59112138	1473434534929	1473434535065	n	78
114308	1243143	The buses will be identified by their cities of origin.	The buses will be indetified by its cite of orgin.	59112143	1473434535440	1473434535568	.	190
114308	1243178	He was in great shape last night.	He was in great shape last night.	59112535	1473434541193	1473434541281	CAPS_LOCK	20
114308	1243178	He was in great shape last night.	He was in great shape last night.	59112540	1473434541304	1473434541401	H	72
114308	1243178	He was in great shape last night.	He was in great shape last night.	59112545	1473434541352	1473434541465	CAPS_LOCK	20
114308	1243178	He was in great shape last night.	He was in great shape last night.	59112551	1473434541657	1473434541785	e	69
114308	1243178	He was in great shape last night.	He was in great shape last night.	59112556	1473434541745	1473434541905	 	32
114308	1243178	He was in great shape last night.	He was in great shape last night.	59112560	1473434541968	1473434542089	w	87
114308	1243178	He was in great shape last night.	He was in great shape last night.	59112563	1473434542144	1473434542241	a	65
114308	1243178	He was in great shape last night.	He was in great shape last night.	59112567	1473434542336	1473434542465	s	83
114308	1243178	He was in great shape last night.	He was in great shape last night.	59112569	1473434542488	1473434542601	 	32
114308	1243178	He was in great shape last night.	He was in great shape last night.	59112571	1473434542576	1473434542777	i	73
114308	1243178	He was in great shape last night.	He was in great shape last night.	59112573	1473434542697	1473434542833	n	78
114308	1243178	He was in great shape last night.	He was in great shape last night.	59112617	1473434542801	1473434542928	 	32
114308	1243178	He was in great shape last night.	He was in great shape last night.	59112620	1473434543105	1473434543217	g	71
114308	1243178	He was in great shape last night.	He was in great shape last night.	59112622	1473434543369	1473434543465	r	82
114308	1243178	He was in great shape last night.	He was in great shape last night.	59112626	1473434543624	1473434543761	e	69
114308	1243178	He was in great shape last night.	He was in great shape last night.	59112631	1473434543896	1473434544057	a	65
114308	1243178	He was in great shape last night.	He was in great shape last night.	59112637	1473434544185	1473434544273	t	84
114308	1243178	He was in great shape last night.	He was in great shape last night.	59112718	1473434544352	1473434544481	 	32
114308	1243178	He was in great shape last night.	He was in great shape last night.	59112725	1473434544520	1473434544673	s	83
114308	1243178	He was in great shape last night.	He was in great shape last night.	59112732	1473434544688	1473434544777	h	72
114308	1243178	He was in great shape last night.	He was in great shape last night.	59112742	1473434544801	1473434544953	a	65
114308	1243178	He was in great shape last night.	He was in great shape last night.	59112747	1473434545385	1473434545489	p	80
114308	1243178	He was in great shape last night.	He was in great shape last night.	59112796	1473434545592	1473434545737	e	69
114308	1243178	He was in great shape last night.	He was in great shape last night.	59112797	1473434545689	1473434545857	 	32
114308	1243178	He was in great shape last night.	He was in great shape last night.	59112799	1473434545809	1473434546033	l	76
114308	1243178	He was in great shape last night.	He was in great shape last night.	59112801	1473434546048	1473434546177	a	65
114308	1243178	He was in great shape last night.	He was in great shape last night.	59112804	1473434546297	1473434546377	s	83
114308	1243178	He was in great shape last night.	He was in great shape last night.	59112843	1473434546440	1473434546584	t	84
114308	1243178	He was in great shape last night.	He was in great shape last night.	59112847	1473434546552	1473434546712	 	32
114308	1243178	He was in great shape last night.	He was in great shape last night.	59112851	1473434546897	1473434547065	n	78
114308	1243178	He was in great shape last night.	He was in great shape last night.	59112855	1473434547001	1473434547145	i	73
114308	1243178	He was in great shape last night.	He was in great shape last night.	59112858	1473434547240	1473434547377	g	71
114308	1243178	He was in great shape last night.	He was in great shape last night.	59113015	1473434547321	1473434547512	h	72
114308	1243178	He was in great shape last night.	He was in great shape last night.	59113017	1473434547456	1473434547600	t	84
114308	1243178	He was in great shape last night.	He was in great shape last night.	59113021	1473434547905	1473434548032	/	191
114308	1243178	He was in great shape last night.	He was in great shape last night.	59113024	1473434548576	1473434548681	\	8
114308	1243178	He was in great shape last night.	He was in great shape last night.	59113027	1473434549689	1473434549768	BKSP	8
114308	1243199	Go ahead and notify.	Go ahead and notify.	59113326	1473434554833	1473434554928	CAPS_LOCK	20
114308	1243199	Go ahead and notify.	Go ahead and notify.	59113334	1473434554904	1473434555016	G	71
114308	1243199	Go ahead and notify.	Go ahead and notify.	59113340	1473434554976	1473434555088	CAPS_LOCK	20
114308	1243199	Go ahead and notify.	Go ahead and notify.	59113348	1473434555321	1473434555480	o	79
114308	1243199	Go ahead and notify.	Go ahead and notify.	59113354	1473434555432	1473434555576	 	32
114308	1243199	Go ahead and notify.	Go ahead and notify.	59113358	1473434555592	1473434555737	a	65
114308	1243199	Go ahead and notify.	Go ahead and notify.	59113386	1473434555712	1473434555816	h	72
114308	1243199	Go ahead and notify.	Go ahead and notify.	59113393	1473434556168	1473434556344	e	69
114308	1243199	Go ahead and notify.	Go ahead and notify.	59113402	1473434556273	1473434556416	a	65
114308	1243199	Go ahead and notify.	Go ahead and notify.	59113410	1473434556440	1473434556584	d	68
114308	1243199	Go ahead and notify.	Go ahead and notify.	59113415	1473434556649	1473434556792	 	32
114308	1243199	Go ahead and notify.	Go ahead and notify.	59113422	1473434556816	1473434556960	a	65
114308	1243199	Go ahead and notify.	Go ahead and notify.	59113457	1473434557069	1473434557128	n	78
114308	1243199	Go ahead and notify.	Go ahead and notify.	59113460	1473434557144	1473434557296	d	68
114308	1243199	Go ahead and notify.	Go ahead and notify.	59113465	1473434557248	1473434557384	 	32
114308	1243199	Go ahead and notify.	Go ahead and notify.	59113475	1473434557545	1473434557776	n	78
114308	1243199	Go ahead and notify.	Go ahead and notify.	59113548	1473434557648	1473434557840	o	79
114308	1243199	Go ahead and notify.	Go ahead and notify.	59113550	1473434557958	1473434558008	t	84
114308	1243199	Go ahead and notify.	Go ahead and notify.	59113556	1473434558024	1473434558176	i	73
114308	1243199	Go ahead and notify.	Go ahead and notify.	59113561	1473434558201	1473434558341	f	70
114308	1243199	Go ahead and notify.	Go ahead and notify.	59113563	1473434558312	1473434558456	y	89
114308	1243208	Give it some time.	Give it some time.	59113844	1473434563041	1473434563151	CAPS_LOCK	20
114308	1243208	Give it some time.	Give it some time.	59113847	1473434563112	1473434563232	F	71
114308	1243208	Give it some time.	Give it some time.	59113850	1473434563208	1473434563304	CAPS_LOCK	20
114308	1243208	Give it some time.	Give it some time.	59113852	1473434563624	1473434563800	i	73
114308	1243208	Give it some time.	Give it some time.	59113855	1473434563696	1473434563880	v	86
114308	1243208	Give it some time.	Give it some time.	59114004	1473434563856	1473434563984	e	69
114308	1243208	Give it some time.	Give it some time.	59114006	1473434563899	1473434564096	 	32
114308	1243208	Give it some time.	Give it some time.	59114009	1473434564072	1473434564287	i	73
114308	1243208	Give it some time.	Give it some time.	59114013	1473434564232	1473434564400	t	84
114308	1243208	Give it some time.	Give it some time.	59114017	1473434564680	1473434564792	BKSP	8
114308	1243208	Give it some time.	Give it some time.	59114020	1473434564840	1473434564896	BKSP	8
114308	1243208	Give it some time.	Give it some time.	59114023	1473434564960	1473434565024	BKSP	8
114308	1243208	Give it some time.	Give it some time.	59114027	1473434565096	1473434565168	BKSP	8
114308	1243208	Give it some time.	Give it some time.	59114033	1473434565240	1473434565305	BKSP	8
114308	1243208	Give it some time.	Give it some time.	59114039	1473434565376	1473434565448	BKSP	8
114308	1243208	Give it some time.	Give it some time.	59114044	1473434565512	1473434565592	BKSP	8
114308	1243208	Give it some time.	Give it some time.	59114048	1473434566448	1473434566640	i	73
114308	1243208	Give it some time.	Give it some time.	59114078	1473434566504	1473434566675	v	86
114308	1243208	Give it some time.	Give it some time.	59114079	1473434566616	1473434566728	e	69
114308	1243208	Give it some time.	Give it some time.	59114081	1473434566650	1473434566816	 	32
114308	1243208	Give it some time.	Give it some time.	59114086	1473434566832	1473434566968	i	73
114308	1243208	Give it some time.	Give it some time.	59114090	1473434566944	1473434567072	t	84
114308	1243208	Give it some time.	Give it some time.	59114092	1473434567032	1473434567200	 	32
114308	1243208	Give it some time.	Give it some time.	59114094	1473434567545	1473434567672	s	83
114308	1243208	Give it some time.	Give it some time.	59114101	1473434567632	1473434567800	o	79
114308	1243208	Give it some time.	Give it some time.	59114103	1473434567720	1473434567888	m	77
114308	1243208	Give it some time.	Give it some time.	59114106	1473434567784	1473434567912	e	69
114308	1243208	Give it some time.	Give it some time.	59114110	1473434567992	1473434568128	 	32
114308	1243208	Give it some time.	Give it some time.	59114112	1473434568216	1473434568328	t	84
114308	1243208	Give it some time.	Give it some time.	59114139	1473434568296	1473434568496	i	73
114308	1243208	Give it some time.	Give it some time.	59114141	1473434568448	1473434568616	m	77
114308	1243208	Give it some time.	Give it some time.	59114142	1473434568600	1473434568720	e	69
114308	1243217	It will probably be tomorrow.	It will probably be tomorrow.	59114502	1473434572992	1473434573096	CAPS_LOCK	20
114308	1243217	It will probably be tomorrow.	It will probably be tomorrow.	59114508	1473434573080	1473434573200	I	73
114308	1243217	It will probably be tomorrow.	It will probably be tomorrow.	59114514	1473434573152	1473434573247	CAPS_LOCK	20
114308	1243217	It will probably be tomorrow.	It will probably be tomorrow.	59114519	1473434573440	1473434573585	t	84
114308	1243217	It will probably be tomorrow.	It will probably be tomorrow.	59114523	1473434573527	1473434573704	 	32
114308	1243217	It will probably be tomorrow.	It will probably be tomorrow.	59114532	1473434573832	1473434573992	w	87
114308	1243217	It will probably be tomorrow.	It will probably be tomorrow.	59114540	1473434574080	1473434574216	i	73
114308	1243217	It will probably be tomorrow.	It will probably be tomorrow.	59114579	1473434574128	1473434574255	l	76
114308	1243217	It will probably be tomorrow.	It will probably be tomorrow.	59114586	1473434574327	1473434574432	l	76
114308	1243217	It will probably be tomorrow.	It will probably be tomorrow.	59114590	1473434574456	1473434574576	 	32
114308	1243217	It will probably be tomorrow.	It will probably be tomorrow.	59114593	1473434574648	1473434574800	p	80
114308	1243217	It will probably be tomorrow.	It will probably be tomorrow.	59114595	1473434574840	1473434574970	r	82
114308	1243217	It will probably be tomorrow.	It will probably be tomorrow.	59114620	1473434574944	1473434575071	o	79
114308	1243217	It will probably be tomorrow.	It will probably be tomorrow.	59114624	1473434575304	1473434575408	b	66
114308	1243217	It will probably be tomorrow.	It will probably be tomorrow.	59114628	1473434575432	1473434575544	a	65
114308	1243217	It will probably be tomorrow.	It will probably be tomorrow.	59114634	1473434575504	1473434575696	b	66
114308	1243217	It will probably be tomorrow.	It will probably be tomorrow.	59114637	1473434575752	1473434575936	l	76
114308	1243217	It will probably be tomorrow.	It will probably be tomorrow.	59114672	1473434575888	1473434576015	y	89
114308	1243217	It will probably be tomorrow.	It will probably be tomorrow.	59114675	1473434576000	1473434576136	 	32
114308	1243217	It will probably be tomorrow.	It will probably be tomorrow.	59114680	1473434576175	1473434576343	b	66
114308	1243217	It will probably be tomorrow.	It will probably be tomorrow.	59114683	1473434576320	1473434576440	e	69
114308	1243217	It will probably be tomorrow.	It will probably be tomorrow.	59114684	1473434576416	1473434576536	 	32
114308	1243217	It will probably be tomorrow.	It will probably be tomorrow.	59114686	1473434576688	1473434576800	t	84
114308	1243217	It will probably be tomorrow.	It will probably be tomorrow.	59114721	1473434576927	1473434577040	o	79
114308	1243217	It will probably be tomorrow.	It will probably be tomorrow.	59114724	1473434577136	1473434577256	m	77
114308	1243217	It will probably be tomorrow.	It will probably be tomorrow.	59114729	1473434577328	1473434577424	o	79
114308	1243217	It will probably be tomorrow.	It will probably be tomorrow.	59114731	1473434577536	1473434577600	r	82
114308	1243217	It will probably be tomorrow.	It will probably be tomorrow.	59114734	1473434577680	1473434577752	r	82
114308	1243217	It will probably be tomorrow.	It will probably be tomorrow.	59114776	1473434577799	1473434577928	o	79
114308	1243217	It will probably be tomorrow.	It will probably be tomorrow.	59114779	1473434577952	1473434578096	w	87
114308	1243217	It will probably be tomorrow.	It will probably be tomorrow.	59114783	1473434578368	1473434578536	.	190
114308	1243230	Rookie Kevin Swayne will move into the starting lineup.	Rookie Kevin Swayne will move into the starting lineup.	59115225	1473434585480	1473434585602	CAPS_LOCK	20
114308	1243230	Rookie Kevin Swayne will move into the starting lineup.	Rookie Kevin Swayne will move into the starting lineup.	59115229	1473434585576	1473434585695	R	82
114308	1243230	Rookie Kevin Swayne will move into the starting lineup.	Rookie Kevin Swayne will move into the starting lineup.	59115234	1473434585672	1473434585735	CAPS_LOCK	20
114308	1243230	Rookie Kevin Swayne will move into the starting lineup.	Rookie Kevin Swayne will move into the starting lineup.	59115239	1473434586143	1473434586223	o	79
114308	1243230	Rookie Kevin Swayne will move into the starting lineup.	Rookie Kevin Swayne will move into the starting lineup.	59115243	1473434586320	1473434586471	o	79
114308	1243230	Rookie Kevin Swayne will move into the starting lineup.	Rookie Kevin Swayne will move into the starting lineup.	59115249	1473434586440	1473434586623	k	75
114308	1243230	Rookie Kevin Swayne will move into the starting lineup.	Rookie Kevin Swayne will move into the starting lineup.	59115255	1473434587039	1473434587143	i	73
114308	1243230	Rookie Kevin Swayne will move into the starting lineup.	Rookie Kevin Swayne will move into the starting lineup.	59115367	1473434587328	1473434587456	e	69
114308	1243230	Rookie Kevin Swayne will move into the starting lineup.	Rookie Kevin Swayne will move into the starting lineup.	59115371	1473434587471	1473434587656	 	32
114308	1243230	Rookie Kevin Swayne will move into the starting lineup.	Rookie Kevin Swayne will move into the starting lineup.	59115373	1473434588192	1473434588279	CAPS_LOCK	20
114308	1243230	Rookie Kevin Swayne will move into the starting lineup.	Rookie Kevin Swayne will move into the starting lineup.	59115376	1473434588255	1473434588391	K	75
114308	1243230	Rookie Kevin Swayne will move into the starting lineup.	Rookie Kevin Swayne will move into the starting lineup.	59115379	1473434588336	1473434588423	CAPS_LOCK	20
114308	1243230	Rookie Kevin Swayne will move into the starting lineup.	Rookie Kevin Swayne will move into the starting lineup.	59115383	1473434588632	1473434588767	e	69
114308	1243230	Rookie Kevin Swayne will move into the starting lineup.	Rookie Kevin Swayne will move into the starting lineup.	59115388	1473434588791	1473434588903	v	86
114308	1243230	Rookie Kevin Swayne will move into the starting lineup.	Rookie Kevin Swayne will move into the starting lineup.	59115484	1473434589120	1473434589303	i	73
114308	1243230	Rookie Kevin Swayne will move into the starting lineup.	Rookie Kevin Swayne will move into the starting lineup.	59115485	1473434589199	1473434589400	n	78
114308	1243230	Rookie Kevin Swayne will move into the starting lineup.	Rookie Kevin Swayne will move into the starting lineup.	59115486	1473434589351	1473434589527	 	32
114308	1243230	Rookie Kevin Swayne will move into the starting lineup.	Rookie Kevin Swayne will move into the starting lineup.	59115487	1473434589704	1473434589831	CAPS_LOCK	20
114308	1243230	Rookie Kevin Swayne will move into the starting lineup.	Rookie Kevin Swayne will move into the starting lineup.	59115489	1473434589816	1473434589959	S	83
114308	1243230	Rookie Kevin Swayne will move into the starting lineup.	Rookie Kevin Swayne will move into the starting lineup.	59115491	1473434589904	1473434590023	CAPS_LOCK	20
114308	1243230	Rookie Kevin Swayne will move into the starting lineup.	Rookie Kevin Swayne will move into the starting lineup.	59115493	1473434590671	1473434590799	w	87
114308	1243230	Rookie Kevin Swayne will move into the starting lineup.	Rookie Kevin Swayne will move into the starting lineup.	59115651	1473434590735	1473434590905	a	65
114308	1243230	Rookie Kevin Swayne will move into the starting lineup.	Rookie Kevin Swayne will move into the starting lineup.	59115656	1473434591911	1473434592103	y	89
114308	1243230	Rookie Kevin Swayne will move into the starting lineup.	Rookie Kevin Swayne will move into the starting lineup.	59115662	1473434592015	1473434592207	n	78
114308	1243230	Rookie Kevin Swayne will move into the starting lineup.	Rookie Kevin Swayne will move into the starting lineup.	59115668	1473434592127	1473434592271	e	69
114308	1243230	Rookie Kevin Swayne will move into the starting lineup.	Rookie Kevin Swayne will move into the starting lineup.	59115675	1473434592239	1473434592383	 	32
114308	1243230	Rookie Kevin Swayne will move into the starting lineup.	Rookie Kevin Swayne will move into the starting lineup.	59115679	1473434593127	1473434593239	w	87
114308	1243230	Rookie Kevin Swayne will move into the starting lineup.	Rookie Kevin Swayne will move into the starting lineup.	59115709	1473434593463	1473434593551	i	73
114308	1243230	Rookie Kevin Swayne will move into the starting lineup.	Rookie Kevin Swayne will move into the starting lineup.	59115714	1473434593487	1473434593599	l	76
114308	1243230	Rookie Kevin Swayne will move into the starting lineup.	Rookie Kevin Swayne will move into the starting lineup.	59115723	1473434593655	1473434593791	l	76
114308	1243230	Rookie Kevin Swayne will move into the starting lineup.	Rookie Kevin Swayne will move into the starting lineup.	59115728	1473434593775	1473434593951	 	32
114308	1243230	Rookie Kevin Swayne will move into the starting lineup.	Rookie Kevin Swayne will move into the starting lineup.	59115736	1473434594064	1473434594199	m	77
114308	1243230	Rookie Kevin Swayne will move into the starting lineup.	Rookie Kevin Swayne will move into the starting lineup.	59115802	1473434594143	1473434594287	o	79
114308	1243230	Rookie Kevin Swayne will move into the starting lineup.	Rookie Kevin Swayne will move into the starting lineup.	59115805	1473434594463	1473434594591	v	86
114308	1243230	Rookie Kevin Swayne will move into the starting lineup.	Rookie Kevin Swayne will move into the starting lineup.	59115806	1473434594608	1473434594743	e	69
114308	1243230	Rookie Kevin Swayne will move into the starting lineup.	Rookie Kevin Swayne will move into the starting lineup.	59115808	1473434594911	1473434595127	i	73
114308	1243230	Rookie Kevin Swayne will move into the starting lineup.	Rookie Kevin Swayne will move into the starting lineup.	59115810	1473434595015	1473434595191	n	78
114308	1243230	Rookie Kevin Swayne will move into the starting lineup.	Rookie Kevin Swayne will move into the starting lineup.	59115812	1473434595207	1473434595344	t	84
114308	1243230	Rookie Kevin Swayne will move into the starting lineup.	Rookie Kevin Swayne will move into the starting lineup.	59115932	1473434595311	1473434595479	o	79
114308	1243230	Rookie Kevin Swayne will move into the starting lineup.	Rookie Kevin Swayne will move into the starting lineup.	59115935	1473434595423	1473434595607	 	32
114308	1243230	Rookie Kevin Swayne will move into the starting lineup.	Rookie Kevin Swayne will move into the starting lineup.	59115939	1473434595583	1473434595711	t	84
114308	1243230	Rookie Kevin Swayne will move into the starting lineup.	Rookie Kevin Swayne will move into the starting lineup.	59115943	1473434595735	1473434595895	h	72
114308	1243230	Rookie Kevin Swayne will move into the starting lineup.	Rookie Kevin Swayne will move into the starting lineup.	59115948	1473434596247	1473434596327	BKSP	8
114308	1243230	Rookie Kevin Swayne will move into the starting lineup.	Rookie Kevin Swayne will move into the starting lineup.	59115954	1473434596383	1473434596463	BKSP	8
114308	1243230	Rookie Kevin Swayne will move into the starting lineup.	Rookie Kevin Swayne will move into the starting lineup.	59115958	1473434596519	1473434596583	BKSP	8
114308	1243230	Rookie Kevin Swayne will move into the starting lineup.	Rookie Kevin Swayne will move into the starting lineup.	59115965	1473434596663	1473434596735	BKSP	8
114308	1243230	Rookie Kevin Swayne will move into the starting lineup.	Rookie Kevin Swayne will move into the starting lineup.	59115973	1473434596807	1473434596887	BKSP	8
114308	1243230	Rookie Kevin Swayne will move into the starting lineup.	Rookie Kevin Swayne will move into the starting lineup.	59115976	1473434596943	1473434597031	BKSP	8
114308	1243230	Rookie Kevin Swayne will move into the starting lineup.	Rookie Kevin Swayne will move into the starting lineup.	59115978	1473434597087	1473434597167	BKSP	8
114308	1243230	Rookie Kevin Swayne will move into the starting lineup.	Rookie Kevin Swayne will move into the starting lineup.	59115979	1473434597736	1473434597839	 	32
114308	1243230	Rookie Kevin Swayne will move into the starting lineup.	Rookie Kevin Swayne will move into the starting lineup.	59115980	1473434598015	1473434598135	i	73
114308	1243230	Rookie Kevin Swayne will move into the starting lineup.	Rookie Kevin Swayne will move into the starting lineup.	59116041	1473434598471	1473434598575	t	84
114308	1243230	Rookie Kevin Swayne will move into the starting lineup.	Rookie Kevin Swayne will move into the starting lineup.	59116044	1473434599055	1473434599191	BKSP	8
114308	1243230	Rookie Kevin Swayne will move into the starting lineup.	Rookie Kevin Swayne will move into the starting lineup.	59116047	1473434599671	1473434599783	n	78
114308	1243230	Rookie Kevin Swayne will move into the starting lineup.	Rookie Kevin Swayne will move into the starting lineup.	59116050	1473434599815	1473434599959	t	84
114308	1243230	Rookie Kevin Swayne will move into the starting lineup.	Rookie Kevin Swayne will move into the starting lineup.	59116052	1473434599919	1473434600063	o	79
114308	1243230	Rookie Kevin Swayne will move into the starting lineup.	Rookie Kevin Swayne will move into the starting lineup.	59116080	1473434600007	1473434600183	 	32
114308	1243230	Rookie Kevin Swayne will move into the starting lineup.	Rookie Kevin Swayne will move into the starting lineup.	59116082	1473434600159	1473434600303	t	84
114308	1243230	Rookie Kevin Swayne will move into the starting lineup.	Rookie Kevin Swayne will move into the starting lineup.	59116085	1473434600287	1473434600423	h	72
114308	1243230	Rookie Kevin Swayne will move into the starting lineup.	Rookie Kevin Swayne will move into the starting lineup.	59116088	1473434600463	1473434600591	e	69
114308	1243230	Rookie Kevin Swayne will move into the starting lineup.	Rookie Kevin Swayne will move into the starting lineup.	59116092	1473434600567	1473434600719	 	32
114308	1243230	Rookie Kevin Swayne will move into the starting lineup.	Rookie Kevin Swayne will move into the starting lineup.	59116096	1473434600743	1473434600855	s	83
114308	1243230	Rookie Kevin Swayne will move into the starting lineup.	Rookie Kevin Swayne will move into the starting lineup.	59116175	1473434600895	1473434601047	t	84
114308	1243230	Rookie Kevin Swayne will move into the starting lineup.	Rookie Kevin Swayne will move into the starting lineup.	59116178	1473434601063	1473434601214	a	65
114308	1243230	Rookie Kevin Swayne will move into the starting lineup.	Rookie Kevin Swayne will move into the starting lineup.	59116182	1473434601167	1473434601287	r	82
114308	1243230	Rookie Kevin Swayne will move into the starting lineup.	Rookie Kevin Swayne will move into the starting lineup.	59116187	1473434601247	1473434601343	t	84
114308	1243230	Rookie Kevin Swayne will move into the starting lineup.	Rookie Kevin Swayne will move into the starting lineup.	59116196	1473434602079	1473434602279	i	73
114308	1243230	Rookie Kevin Swayne will move into the starting lineup.	Rookie Kevin Swayne will move into the starting lineup.	59116275	1473434602191	1473434602407	n	78
114308	1243230	Rookie Kevin Swayne will move into the starting lineup.	Rookie Kevin Swayne will move into the starting lineup.	59116278	1473434602351	1473434602471	g	71
114308	1243230	Rookie Kevin Swayne will move into the starting lineup.	Rookie Kevin Swayne will move into the starting lineup.	59116281	1473434602455	1473434602591	 	32
114308	1243230	Rookie Kevin Swayne will move into the starting lineup.	Rookie Kevin Swayne will move into the starting lineup.	59116285	1473434603423	1473434603615	l	76
114308	1243230	Rookie Kevin Swayne will move into the starting lineup.	Rookie Kevin Swayne will move into the starting lineup.	59116288	1473434603535	1473434603743	i	73
114308	1243230	Rookie Kevin Swayne will move into the starting lineup.	Rookie Kevin Swayne will move into the starting lineup.	59116334	1473434603655	1473434603846	n	78
114308	1243230	Rookie Kevin Swayne will move into the starting lineup.	Rookie Kevin Swayne will move into the starting lineup.	59116337	1473434603823	1473434603951	e	69
114308	1243230	Rookie Kevin Swayne will move into the starting lineup.	Rookie Kevin Swayne will move into the starting lineup.	59116345	1473434604359	1473434604575	u	85
114308	1243230	Rookie Kevin Swayne will move into the starting lineup.	Rookie Kevin Swayne will move into the starting lineup.	59116353	1473434604495	1473434604647	p	80
114308	1243230	Rookie Kevin Swayne will move into the starting lineup.	Rookie Kevin Swayne will move into the starting lineup.	59116360	1473434605367	1473434605487	.	190
114308	1243267	Wednesday is definitely a hot chocolate day.	Wednesday is definitely a hot chocolate day.	59116913	1473434615304	1473434615423	CAPS_LOCK	20
114308	1243267	Wednesday is definitely a hot chocolate day.	Wednesday is definitely a hot chocolate day.	59116918	1473434615439	1473434615607	W	87
114308	1243267	Wednesday is definitely a hot chocolate day.	Wednesday is definitely a hot chocolate day.	59116925	1473434615511	1473434615671	CAPS_LOCK	20
114308	1243267	Wednesday is definitely a hot chocolate day.	Wednesday is definitely a hot chocolate day.	59116933	1473434615830	1473434615942	e	69
114308	1243267	Wednesday is definitely a hot chocolate day.	Wednesday is definitely a hot chocolate day.	59116938	1473434616615	1473434616726	d	68
114308	1243267	Wednesday is definitely a hot chocolate day.	Wednesday is definitely a hot chocolate day.	59116943	1473434617142	1473434617255	n	78
114308	1243267	Wednesday is definitely a hot chocolate day.	Wednesday is definitely a hot chocolate day.	59116946	1473434617326	1473434617439	e	69
114308	1243267	Wednesday is definitely a hot chocolate day.	Wednesday is definitely a hot chocolate day.	59116975	1473434617534	1473434617671	s	83
114308	1243267	Wednesday is definitely a hot chocolate day.	Wednesday is definitely a hot chocolate day.	59116977	1473434617974	1473434618127	d	68
114308	1243267	Wednesday is definitely a hot chocolate day.	Wednesday is definitely a hot chocolate day.	59116979	1473434618111	1473434618262	a	65
114308	1243267	Wednesday is definitely a hot chocolate day.	Wednesday is definitely a hot chocolate day.	59116983	1473434618335	1473434618511	y	89
114308	1243267	Wednesday is definitely a hot chocolate day.	Wednesday is definitely a hot chocolate day.	59117062	1473434618455	1473434618662	 	32
114308	1243267	Wednesday is definitely a hot chocolate day.	Wednesday is definitely a hot chocolate day.	59117067	1473434619710	1473434619863	i	73
114308	1243267	Wednesday is definitely a hot chocolate day.	Wednesday is definitely a hot chocolate day.	59117072	1473434619806	1473434619950	s	83
114308	1243267	Wednesday is definitely a hot chocolate day.	Wednesday is definitely a hot chocolate day.	59117081	1473434619919	1473434620055	 	32
114308	1243267	Wednesday is definitely a hot chocolate day.	Wednesday is definitely a hot chocolate day.	59117088	1473434620102	1473434620319	d	68
114308	1243267	Wednesday is definitely a hot chocolate day.	Wednesday is definitely a hot chocolate day.	59117182	1473434620239	1473434620438	e	69
114308	1243267	Wednesday is definitely a hot chocolate day.	Wednesday is definitely a hot chocolate day.	59117185	1473434621486	1473434621638	f	70
114308	1243267	Wednesday is definitely a hot chocolate day.	Wednesday is definitely a hot chocolate day.	59117190	1473434621774	1473434621935	i	73
114308	1243267	Wednesday is definitely a hot chocolate day.	Wednesday is definitely a hot chocolate day.	59117195	1473434621887	1473434622102	n	78
114308	1243267	Wednesday is definitely a hot chocolate day.	Wednesday is definitely a hot chocolate day.	59117197	1473434622039	1473434622183	i	73
114308	1243267	Wednesday is definitely a hot chocolate day.	Wednesday is definitely a hot chocolate day.	59117200	1473434622951	1473434623094	t	84
114308	1243267	Wednesday is definitely a hot chocolate day.	Wednesday is definitely a hot chocolate day.	59117238	1473434623639	1473434623758	e	69
114308	1243267	Wednesday is definitely a hot chocolate day.	Wednesday is definitely a hot chocolate day.	59117243	1473434623854	1473434624022	l	76
114308	1243267	Wednesday is definitely a hot chocolate day.	Wednesday is definitely a hot chocolate day.	59117248	1473434623991	1473434624158	y	89
114308	1243267	Wednesday is definitely a hot chocolate day.	Wednesday is definitely a hot chocolate day.	59117255	1473434624134	1473434624287	 	32
114308	1243267	Wednesday is definitely a hot chocolate day.	Wednesday is definitely a hot chocolate day.	59117259	1473434624815	1473434624950	a	65
114308	1243267	Wednesday is definitely a hot chocolate day.	Wednesday is definitely a hot chocolate day.	59117293	1473434624918	1473434625062	 	32
114308	1243267	Wednesday is definitely a hot chocolate day.	Wednesday is definitely a hot chocolate day.	59117294	1473434625223	1473434625422	h	72
114308	1243267	Wednesday is definitely a hot chocolate day.	Wednesday is definitely a hot chocolate day.	59117297	1473434625304	1473434625478	o	79
114308	1243267	Wednesday is definitely a hot chocolate day.	Wednesday is definitely a hot chocolate day.	59117300	1473434625398	1473434625518	t	84
114308	1243267	Wednesday is definitely a hot chocolate day.	Wednesday is definitely a hot chocolate day.	59117303	1473434625542	1473434625654	 	32
114308	1243267	Wednesday is definitely a hot chocolate day.	Wednesday is definitely a hot chocolate day.	59117310	1473434625766	1473434625912	c	67
114308	1243267	Wednesday is definitely a hot chocolate day.	Wednesday is definitely a hot chocolate day.	59117351	1473434625862	1473434626022	h	72
114308	1243267	Wednesday is definitely a hot chocolate day.	Wednesday is definitely a hot chocolate day.	59117358	1473434625942	1473434626110	o	79
114308	1243267	Wednesday is definitely a hot chocolate day.	Wednesday is definitely a hot chocolate day.	59117365	1473434626454	1473434626598	c	67
114308	1243267	Wednesday is definitely a hot chocolate day.	Wednesday is definitely a hot chocolate day.	59117374	1473434626616	1473434626790	o	79
114308	1243267	Wednesday is definitely a hot chocolate day.	Wednesday is definitely a hot chocolate day.	59117379	1473434626734	1473434626935	l	76
114308	1243267	Wednesday is definitely a hot chocolate day.	Wednesday is definitely a hot chocolate day.	59117386	1473434626950	1473434627118	a	65
114308	1243267	Wednesday is definitely a hot chocolate day.	Wednesday is definitely a hot chocolate day.	59117420	1473434627254	1473434627398	t	84
114308	1243267	Wednesday is definitely a hot chocolate day.	Wednesday is definitely a hot chocolate day.	59117422	1473434627422	1473434627534	e	69
114308	1243267	Wednesday is definitely a hot chocolate day.	Wednesday is definitely a hot chocolate day.	59117425	1473434628014	1473434628118	 	32
114308	1243267	Wednesday is definitely a hot chocolate day.	Wednesday is definitely a hot chocolate day.	59117428	1473434628534	1473434628664	d	68
114308	1243267	Wednesday is definitely a hot chocolate day.	Wednesday is definitely a hot chocolate day.	59117476	1473434628638	1473434628806	a	65
114308	1243267	Wednesday is definitely a hot chocolate day.	Wednesday is definitely a hot chocolate day.	59117479	1473434629095	1473434629206	y	89
114308	1243289	Below is the intended version.	Below is the intended version.	59118018	1473434629759	1473434641430	.	190
114308	1243289	Below is the intended version.	Below is the intended version.	59117768	1473434634814	1473434634902	CAPS_LOCK	20
114308	1243289	Below is the intended version.	Below is the intended version.	59117772	1473434634878	1473434634990	B	66
114308	1243289	Below is the intended version.	Below is the intended version.	59117780	1473434634951	1473434635070	CAPS_LOCK	20
114308	1243289	Below is the intended version.	Below is the intended version.	59117782	1473434635270	1473434635406	e	69
114308	1243289	Below is the intended version.	Below is the intended version.	59117784	1473434635534	1473434635726	l	76
114308	1243289	Below is the intended version.	Below is the intended version.	59117786	1473434635710	1473434635886	o	79
114308	1243289	Below is the intended version.	Below is the intended version.	59117817	1473434635862	1473434635990	w	87
114308	1243289	Below is the intended version.	Below is the intended version.	59117819	1473434635942	1473434636137	 	32
114308	1243289	Below is the intended version.	Below is the intended version.	59117821	1473434636110	1473434636253	i	73
114308	1243289	Below is the intended version.	Below is the intended version.	59117823	1473434636309	1473434636453	s	83
114308	1243289	Below is the intended version.	Below is the intended version.	59117826	1473434636429	1473434636613	 	32
114308	1243289	Below is the intended version.	Below is the intended version.	59117828	1473434636670	1473434636798	t	84
114308	1243289	Below is the intended version.	Below is the intended version.	59117836	1473434636822	1473434636958	h	72
114308	1243289	Below is the intended version.	Below is the intended version.	59117838	1473434636942	1473434637086	e	69
114308	1243289	Below is the intended version.	Below is the intended version.	59117840	1473434637062	1473434637238	 	32
114308	1243289	Below is the intended version.	Below is the intended version.	59117842	1473434637190	1473434637382	i	73
114308	1243289	Below is the intended version.	Below is the intended version.	59117881	1473434637310	1473434637454	n	78
114308	1243289	Below is the intended version.	Below is the intended version.	59117882	1473434637542	1473434637654	t	84
114308	1243289	Below is the intended version.	Below is the intended version.	59117883	1473434637798	1473434637934	e	69
114308	1243289	Below is the intended version.	Below is the intended version.	59117885	1473434638046	1473434638182	n	78
114308	1243289	Below is the intended version.	Below is the intended version.	59117889	1473434638310	1473434638438	d	68
114308	1243289	Below is the intended version.	Below is the intended version.	59117895	1473434638558	1473434638719	e	69
114308	1243289	Below is the intended version.	Below is the intended version.	59117970	1473434638678	1473434638837	d	68
114308	1243289	Below is the intended version.	Below is the intended version.	59117971	1473434638886	1473434639006	 	32
114308	1243289	Below is the intended version.	Below is the intended version.	59117972	1473434639742	1473434639870	v	86
114308	1243289	Below is the intended version.	Below is the intended version.	59117973	1473434639902	1473434640070	e	69
114308	1243289	Below is the intended version.	Below is the intended version.	59117974	1473434639990	1473434640189	r	82
114308	1243289	Below is the intended version.	Below is the intended version.	59117976	1473434640310	1473434640454	s	83
114308	1243289	Below is the intended version.	Below is the intended version.	59118011	1473434640518	1473434640798	i	73
114308	1243289	Below is the intended version.	Below is the intended version.	59118013	1473434640630	1473434640814	o	79
114308	1243289	Below is the intended version.	Below is the intended version.	59118016	1473434640726	1473434640894	n	78
114308	1243302	I want to remind you about our All-Employee Meeting this Tuesday, Oct.	I wantr to remind you about our All-Employee Meeting this Tuesday, Oct.	59118588	1473434653478	1473434653558	CAPS_LOCK	20
114308	1243302	I want to remind you about our All-Employee Meeting this Tuesday, Oct.	I wantr to remind you about our All-Employee Meeting this Tuesday, Oct.	59118590	1473434653582	1473434653741	I	73
114308	1243302	I want to remind you about our All-Employee Meeting this Tuesday, Oct.	I wantr to remind you about our All-Employee Meeting this Tuesday, Oct.	59118589	1473434653630	1473434653726	CAPS_LOCK	20
114308	1243302	I want to remind you about our All-Employee Meeting this Tuesday, Oct.	I wantr to remind you about our All-Employee Meeting this Tuesday, Oct.	59118591	1473434653765	1473434653886	 	32
114308	1243302	I want to remind you about our All-Employee Meeting this Tuesday, Oct.	I wantr to remind you about our All-Employee Meeting this Tuesday, Oct.	59118592	1473434653933	1473434654038	w	87
114308	1243302	I want to remind you about our All-Employee Meeting this Tuesday, Oct.	I wantr to remind you about our All-Employee Meeting this Tuesday, Oct.	59118593	1473434654102	1473434654294	a	65
114308	1243302	I want to remind you about our All-Employee Meeting this Tuesday, Oct.	I wantr to remind you about our All-Employee Meeting this Tuesday, Oct.	59118595	1473434654398	1473434654526	n	78
114308	1243302	I want to remind you about our All-Employee Meeting this Tuesday, Oct.	I wantr to remind you about our All-Employee Meeting this Tuesday, Oct.	59118600	1473434654549	1473434654669	r	84
114308	1243302	I want to remind you about our All-Employee Meeting this Tuesday, Oct.	I wantr to remind you about our All-Employee Meeting this Tuesday, Oct.	59118605	1473434654645	1473434654766	 	32
114308	1243302	I want to remind you about our All-Employee Meeting this Tuesday, Oct.	I wantr to remind you about our All-Employee Meeting this Tuesday, Oct.	59118611	1473434654814	1473434654950	t	84
114308	1243302	I want to remind you about our All-Employee Meeting this Tuesday, Oct.	I wantr to remind you about our All-Employee Meeting this Tuesday, Oct.	59118654	1473434654918	1473434655085	o	79
114308	1243302	I want to remind you about our All-Employee Meeting this Tuesday, Oct.	I wantr to remind you about our All-Employee Meeting this Tuesday, Oct.	59118657	1473434655037	1473434655165	 	32
114308	1243302	I want to remind you about our All-Employee Meeting this Tuesday, Oct.	I wantr to remind you about our All-Employee Meeting this Tuesday, Oct.	59118660	1473434655197	1473434655366	r	82
114308	1243302	I want to remind you about our All-Employee Meeting this Tuesday, Oct.	I wantr to remind you about our All-Employee Meeting this Tuesday, Oct.	59118666	1473434655278	1473434655461	e	69
114308	1243302	I want to remind you about our All-Employee Meeting this Tuesday, Oct.	I wantr to remind you about our All-Employee Meeting this Tuesday, Oct.	59118672	1473434655510	1473434655670	m	77
114308	1243302	I want to remind you about our All-Employee Meeting this Tuesday, Oct.	I wantr to remind you about our All-Employee Meeting this Tuesday, Oct.	59118723	1473434655622	1473434655854	i	73
114308	1243302	I want to remind you about our All-Employee Meeting this Tuesday, Oct.	I wantr to remind you about our All-Employee Meeting this Tuesday, Oct.	59118728	1473434655797	1473434655926	n	78
114308	1243302	I want to remind you about our All-Employee Meeting this Tuesday, Oct.	I wantr to remind you about our All-Employee Meeting this Tuesday, Oct.	59118731	1473434655958	1473434656102	d	68
114308	1243302	I want to remind you about our All-Employee Meeting this Tuesday, Oct.	I wantr to remind you about our All-Employee Meeting this Tuesday, Oct.	59118733	1473434656086	1473434656238	 	32
114308	1243302	I want to remind you about our All-Employee Meeting this Tuesday, Oct.	I wantr to remind you about our All-Employee Meeting this Tuesday, Oct.	59118737	1473434656285	1473434656431	y	89
114308	1243302	I want to remind you about our All-Employee Meeting this Tuesday, Oct.	I wantr to remind you about our All-Employee Meeting this Tuesday, Oct.	59118760	1473434656398	1473434656614	o	79
114308	1243302	I want to remind you about our All-Employee Meeting this Tuesday, Oct.	I wantr to remind you about our All-Employee Meeting this Tuesday, Oct.	59118764	1473434656509	1473434656758	u	85
114308	1243302	I want to remind you about our All-Employee Meeting this Tuesday, Oct.	I wantr to remind you about our All-Employee Meeting this Tuesday, Oct.	59118767	1473434656670	1473434656901	 	32
114308	1243302	I want to remind you about our All-Employee Meeting this Tuesday, Oct.	I wantr to remind you about our All-Employee Meeting this Tuesday, Oct.	59118771	1473434656878	1473434657038	a	65
114308	1243302	I want to remind you about our All-Employee Meeting this Tuesday, Oct.	I wantr to remind you about our All-Employee Meeting this Tuesday, Oct.	59118781	1473434656965	1473434657206	b	66
114308	1243302	I want to remind you about our All-Employee Meeting this Tuesday, Oct.	I wantr to remind you about our All-Employee Meeting this Tuesday, Oct.	59118812	1473434657061	1473434657245	o	79
114308	1243302	I want to remind you about our All-Employee Meeting this Tuesday, Oct.	I wantr to remind you about our All-Employee Meeting this Tuesday, Oct.	59118813	1473434657165	1473434657317	u	85
114308	1243302	I want to remind you about our All-Employee Meeting this Tuesday, Oct.	I wantr to remind you about our All-Employee Meeting this Tuesday, Oct.	59118814	1473434657341	1473434657494	t	84
114308	1243302	I want to remind you about our All-Employee Meeting this Tuesday, Oct.	I wantr to remind you about our All-Employee Meeting this Tuesday, Oct.	59118815	1473434657469	1473434657606	 	32
114308	1243302	I want to remind you about our All-Employee Meeting this Tuesday, Oct.	I wantr to remind you about our All-Employee Meeting this Tuesday, Oct.	59118816	1473434657853	1473434658014	o	79
114308	1243302	I want to remind you about our All-Employee Meeting this Tuesday, Oct.	I wantr to remind you about our All-Employee Meeting this Tuesday, Oct.	59118817	1473434657950	1473434658141	u	85
114308	1243302	I want to remind you about our All-Employee Meeting this Tuesday, Oct.	I wantr to remind you about our All-Employee Meeting this Tuesday, Oct.	59118908	1473434658086	1473434658213	r	82
114308	1243302	I want to remind you about our All-Employee Meeting this Tuesday, Oct.	I wantr to remind you about our All-Employee Meeting this Tuesday, Oct.	59118910	1473434658245	1473434658397	 	32
114308	1243302	I want to remind you about our All-Employee Meeting this Tuesday, Oct.	I wantr to remind you about our All-Employee Meeting this Tuesday, Oct.	59118914	1473434658638	1473434658765	CAPS_LOCK	20
114308	1243302	I want to remind you about our All-Employee Meeting this Tuesday, Oct.	I wantr to remind you about our All-Employee Meeting this Tuesday, Oct.	59118919	1473434658886	1473434659021	A	65
114308	1243302	I want to remind you about our All-Employee Meeting this Tuesday, Oct.	I wantr to remind you about our All-Employee Meeting this Tuesday, Oct.	59118924	1473434658942	1473434659077	CAPS_LOCK	20
114308	1243302	I want to remind you about our All-Employee Meeting this Tuesday, Oct.	I wantr to remind you about our All-Employee Meeting this Tuesday, Oct.	59118931	1473434659382	1473434659469	l	76
114308	1243302	I want to remind you about our All-Employee Meeting this Tuesday, Oct.	I wantr to remind you about our All-Employee Meeting this Tuesday, Oct.	59118938	1473434659517	1473434659613	l	76
114308	1243302	I want to remind you about our All-Employee Meeting this Tuesday, Oct.	I wantr to remind you about our All-Employee Meeting this Tuesday, Oct.	59118946	1473434660269	1473434660357	-	189
114308	1243302	I want to remind you about our All-Employee Meeting this Tuesday, Oct.	I wantr to remind you about our All-Employee Meeting this Tuesday, Oct.	59119033	1473434660798	1473434660909	CAPS_LOCK	20
114308	1243302	I want to remind you about our All-Employee Meeting this Tuesday, Oct.	I wantr to remind you about our All-Employee Meeting this Tuesday, Oct.	59119038	1473434660925	1473434661029	E	69
114308	1243302	I want to remind you about our All-Employee Meeting this Tuesday, Oct.	I wantr to remind you about our All-Employee Meeting this Tuesday, Oct.	59119044	1473434660981	1473434661077	CAPS_LOCK	20
114308	1243302	I want to remind you about our All-Employee Meeting this Tuesday, Oct.	I wantr to remind you about our All-Employee Meeting this Tuesday, Oct.	59119049	1473434661853	1473434661958	m	77
114308	1243302	I want to remind you about our All-Employee Meeting this Tuesday, Oct.	I wantr to remind you about our All-Employee Meeting this Tuesday, Oct.	59119053	1473434662333	1473434662501	p	80
114308	1243302	I want to remind you about our All-Employee Meeting this Tuesday, Oct.	I wantr to remind you about our All-Employee Meeting this Tuesday, Oct.	59119056	1473434662421	1473434662581	l	76
114308	1243302	I want to remind you about our All-Employee Meeting this Tuesday, Oct.	I wantr to remind you about our All-Employee Meeting this Tuesday, Oct.	59119058	1473434662678	1473434662765	o	79
114308	1243302	I want to remind you about our All-Employee Meeting this Tuesday, Oct.	I wantr to remind you about our All-Employee Meeting this Tuesday, Oct.	59119177	1473434663589	1473434663701	y	89
114308	1243302	I want to remind you about our All-Employee Meeting this Tuesday, Oct.	I wantr to remind you about our All-Employee Meeting this Tuesday, Oct.	59119179	1473434663797	1473434663861	e	69
114308	1243302	I want to remind you about our All-Employee Meeting this Tuesday, Oct.	I wantr to remind you about our All-Employee Meeting this Tuesday, Oct.	59119183	1473434663941	1473434664029	e	69
114308	1243302	I want to remind you about our All-Employee Meeting this Tuesday, Oct.	I wantr to remind you about our All-Employee Meeting this Tuesday, Oct.	59119187	1473434664086	1473434664205	 	32
114308	1243302	I want to remind you about our All-Employee Meeting this Tuesday, Oct.	I wantr to remind you about our All-Employee Meeting this Tuesday, Oct.	59119192	1473434664862	1473434665005	CAPS_LOCK	20
114308	1243302	I want to remind you about our All-Employee Meeting this Tuesday, Oct.	I wantr to remind you about our All-Employee Meeting this Tuesday, Oct.	59119194	1473434665053	1473434665181	M	77
114308	1243302	I want to remind you about our All-Employee Meeting this Tuesday, Oct.	I wantr to remind you about our All-Employee Meeting this Tuesday, Oct.	59119249	1473434665125	1473434665253	CAPS_LOCK	20
114308	1243302	I want to remind you about our All-Employee Meeting this Tuesday, Oct.	I wantr to remind you about our All-Employee Meeting this Tuesday, Oct.	59119253	1473434665605	1473434665701	e	69
114308	1243302	I want to remind you about our All-Employee Meeting this Tuesday, Oct.	I wantr to remind you about our All-Employee Meeting this Tuesday, Oct.	59119256	1473434665765	1473434665941	e	69
114308	1243302	I want to remind you about our All-Employee Meeting this Tuesday, Oct.	I wantr to remind you about our All-Employee Meeting this Tuesday, Oct.	59119260	1473434665853	1473434666006	t	84
114308	1243302	I want to remind you about our All-Employee Meeting this Tuesday, Oct.	I wantr to remind you about our All-Employee Meeting this Tuesday, Oct.	59119264	1473434666341	1473434666493	i	73
114308	1243302	I want to remind you about our All-Employee Meeting this Tuesday, Oct.	I wantr to remind you about our All-Employee Meeting this Tuesday, Oct.	59119337	1473434666421	1473434666597	n	78
114308	1243302	I want to remind you about our All-Employee Meeting this Tuesday, Oct.	I wantr to remind you about our All-Employee Meeting this Tuesday, Oct.	59119343	1473434666613	1473434666757	g	71
114308	1243302	I want to remind you about our All-Employee Meeting this Tuesday, Oct.	I wantr to remind you about our All-Employee Meeting this Tuesday, Oct.	59119348	1473434666709	1473434666869	 	32
114308	1243302	I want to remind you about our All-Employee Meeting this Tuesday, Oct.	I wantr to remind you about our All-Employee Meeting this Tuesday, Oct.	59119354	1473434667669	1473434667781	t	84
114308	1243302	I want to remind you about our All-Employee Meeting this Tuesday, Oct.	I wantr to remind you about our All-Employee Meeting this Tuesday, Oct.	59119361	1473434667862	1473434668053	h	72
114308	1243302	I want to remind you about our All-Employee Meeting this Tuesday, Oct.	I wantr to remind you about our All-Employee Meeting this Tuesday, Oct.	59119442	1473434667989	1473434668148	i	73
114308	1243302	I want to remind you about our All-Employee Meeting this Tuesday, Oct.	I wantr to remind you about our All-Employee Meeting this Tuesday, Oct.	59119445	1473434668117	1473434668253	s	83
114308	1243302	I want to remind you about our All-Employee Meeting this Tuesday, Oct.	I wantr to remind you about our All-Employee Meeting this Tuesday, Oct.	59119447	1473434668229	1473434668373	 	32
114308	1243302	I want to remind you about our All-Employee Meeting this Tuesday, Oct.	I wantr to remind you about our All-Employee Meeting this Tuesday, Oct.	59119448	1473434668525	1473434668621	CAPS_LOCK	20
114308	1243302	I want to remind you about our All-Employee Meeting this Tuesday, Oct.	I wantr to remind you about our All-Employee Meeting this Tuesday, Oct.	59119451	1473434668645	1473434668748	T	84
114308	1243302	I want to remind you about our All-Employee Meeting this Tuesday, Oct.	I wantr to remind you about our All-Employee Meeting this Tuesday, Oct.	59119455	1473434668702	1473434668821	CAPS_LOCK	20
114308	1243302	I want to remind you about our All-Employee Meeting this Tuesday, Oct.	I wantr to remind you about our All-Employee Meeting this Tuesday, Oct.	59119460	1473434669445	1473434669541	u	85
114308	1243302	I want to remind you about our All-Employee Meeting this Tuesday, Oct.	I wantr to remind you about our All-Employee Meeting this Tuesday, Oct.	59119463	1473434669589	1473434669693	e	69
114308	1243302	I want to remind you about our All-Employee Meeting this Tuesday, Oct.	I wantr to remind you about our All-Employee Meeting this Tuesday, Oct.	59119486	1473434669789	1473434669901	s	83
114308	1243302	I want to remind you about our All-Employee Meeting this Tuesday, Oct.	I wantr to remind you about our All-Employee Meeting this Tuesday, Oct.	59119491	1473434670054	1473434670229	d	68
114308	1243302	I want to remind you about our All-Employee Meeting this Tuesday, Oct.	I wantr to remind you about our All-Employee Meeting this Tuesday, Oct.	59119495	1473434670173	1473434670349	a	65
114308	1243302	I want to remind you about our All-Employee Meeting this Tuesday, Oct.	I wantr to remind you about our All-Employee Meeting this Tuesday, Oct.	59119499	1473434670293	1473434670437	y	89
114308	1243302	I want to remind you about our All-Employee Meeting this Tuesday, Oct.	I wantr to remind you about our All-Employee Meeting this Tuesday, Oct.	59119628	1473434670405	1473434670565	 	32
114308	1243302	I want to remind you about our All-Employee Meeting this Tuesday, Oct.	I wantr to remind you about our All-Employee Meeting this Tuesday, Oct.	59119631	1473434671197	1473434671277	BKSP	8
114308	1243302	I want to remind you about our All-Employee Meeting this Tuesday, Oct.	I wantr to remind you about our All-Employee Meeting this Tuesday, Oct.	59119634	1473434671853	1473434671973	,	188
114308	1243302	I want to remind you about our All-Employee Meeting this Tuesday, Oct.	I wantr to remind you about our All-Employee Meeting this Tuesday, Oct.	59119635	1473434671933	1473434672061	 	32
114308	1243302	I want to remind you about our All-Employee Meeting this Tuesday, Oct.	I wantr to remind you about our All-Employee Meeting this Tuesday, Oct.	59119637	1473434672325	1473434672421	CAPS_LOCK	20
114308	1243302	I want to remind you about our All-Employee Meeting this Tuesday, Oct.	I wantr to remind you about our All-Employee Meeting this Tuesday, Oct.	59119639	1473434672437	1473434672533	O	79
114308	1243302	I want to remind you about our All-Employee Meeting this Tuesday, Oct.	I wantr to remind you about our All-Employee Meeting this Tuesday, Oct.	59119641	1473434672496	1473434672589	CAPS_LOCK	20
114308	1243302	I want to remind you about our All-Employee Meeting this Tuesday, Oct.	I wantr to remind you about our All-Employee Meeting this Tuesday, Oct.	59119644	1473434672957	1473434673125	c	67
114308	1243302	I want to remind you about our All-Employee Meeting this Tuesday, Oct.	I wantr to remind you about our All-Employee Meeting this Tuesday, Oct.	59119661	1473434673005	1473434673172	t	84
114308	1243302	I want to remind you about our All-Employee Meeting this Tuesday, Oct.	I wantr to remind you about our All-Employee Meeting this Tuesday, Oct.	59119664	1473434673365	1473434673501	.	190
114308	1243329	Add a Star Trek convention and sports memorabilia show to the mix.	Add a Star Trek convention and sports memorabillia show to the mix.	59120001	1473434681941	1473434682052	CAPS_LOCK	20
114308	1243329	Add a Star Trek convention and sports memorabilia show to the mix.	Add a Star Trek convention and sports memorabillia show to the mix.	59120002	1473434682029	1473434682150	A	65
114308	1243329	Add a Star Trek convention and sports memorabilia show to the mix.	Add a Star Trek convention and sports memorabillia show to the mix.	59120003	1473434682101	1473434682212	CAPS_LOCK	20
114308	1243329	Add a Star Trek convention and sports memorabilia show to the mix.	Add a Star Trek convention and sports memorabillia show to the mix.	59120004	1473434682469	1473434682524	d	68
114308	1243329	Add a Star Trek convention and sports memorabilia show to the mix.	Add a Star Trek convention and sports memorabillia show to the mix.	59120006	1473434682645	1473434682733	d	68
114308	1243329	Add a Star Trek convention and sports memorabilia show to the mix.	Add a Star Trek convention and sports memorabillia show to the mix.	59120005	1473434682669	1473434682708	x	88
114308	1243329	Add a Star Trek convention and sports memorabilia show to the mix.	Add a Star Trek convention and sports memorabillia show to the mix.	59120007	1473434682757	1473434682901	 	32
114308	1243329	Add a Star Trek convention and sports memorabilia show to the mix.	Add a Star Trek convention and sports memorabillia show to the mix.	59120087	1473434683557	1473434683597	BKSP	8
114308	1243329	Add a Star Trek convention and sports memorabilia show to the mix.	Add a Star Trek convention and sports memorabillia show to the mix.	59120090	1473434683678	1473434683757	BKSP	8
114308	1243329	Add a Star Trek convention and sports memorabilia show to the mix.	Add a Star Trek convention and sports memorabillia show to the mix.	59120092	1473434683957	1473434684074	 	32
114308	1243329	Add a Star Trek convention and sports memorabilia show to the mix.	Add a Star Trek convention and sports memorabillia show to the mix.	59120096	1473434684141	1473434684293	a	65
114308	1243329	Add a Star Trek convention and sports memorabilia show to the mix.	Add a Star Trek convention and sports memorabillia show to the mix.	59120098	1473434684245	1473434684365	 	32
114308	1243329	Add a Star Trek convention and sports memorabilia show to the mix.	Add a Star Trek convention and sports memorabillia show to the mix.	59120099	1473434684997	1473434685124	CAPS_LOCK	20
114308	1243329	Add a Star Trek convention and sports memorabilia show to the mix.	Add a Star Trek convention and sports memorabillia show to the mix.	59120101	1473434685085	1473434685228	S	83
114308	1243329	Add a Star Trek convention and sports memorabilia show to the mix.	Add a Star Trek convention and sports memorabillia show to the mix.	59120104	1473434685205	1473434685316	CAPS_LOCK	20
114308	1243329	Add a Star Trek convention and sports memorabilia show to the mix.	Add a Star Trek convention and sports memorabillia show to the mix.	59120107	1473434685821	1473434685973	t	84
114308	1243329	Add a Star Trek convention and sports memorabilia show to the mix.	Add a Star Trek convention and sports memorabillia show to the mix.	59120152	1473434686076	1473434686229	a	65
114308	1243329	Add a Star Trek convention and sports memorabilia show to the mix.	Add a Star Trek convention and sports memorabillia show to the mix.	59120155	1473434686181	1473434686349	r	82
114308	1243329	Add a Star Trek convention and sports memorabilia show to the mix.	Add a Star Trek convention and sports memorabillia show to the mix.	59120158	1473434686405	1473434686533	 	32
114308	1243329	Add a Star Trek convention and sports memorabilia show to the mix.	Add a Star Trek convention and sports memorabillia show to the mix.	59120160	1473434686749	1473434686884	CAPS_LOCK	20
114308	1243329	Add a Star Trek convention and sports memorabilia show to the mix.	Add a Star Trek convention and sports memorabillia show to the mix.	59120162	1473434686861	1473434686989	T	84
114308	1243329	Add a Star Trek convention and sports memorabilia show to the mix.	Add a Star Trek convention and sports memorabillia show to the mix.	59120165	1473434686941	1473434687052	CAPS_LOCK	20
114308	1243329	Add a Star Trek convention and sports memorabilia show to the mix.	Add a Star Trek convention and sports memorabillia show to the mix.	59120168	1473434687072	1473434687205	r	82
114308	1243329	Add a Star Trek convention and sports memorabilia show to the mix.	Add a Star Trek convention and sports memorabillia show to the mix.	59120250	1473434687292	1473434687421	e	69
114308	1243329	Add a Star Trek convention and sports memorabilia show to the mix.	Add a Star Trek convention and sports memorabillia show to the mix.	59120252	1473434688717	1473434688885	k	75
114308	1243329	Add a Star Trek convention and sports memorabilia show to the mix.	Add a Star Trek convention and sports memorabillia show to the mix.	59120255	1473434688789	1473434688948	 	32
114308	1243329	Add a Star Trek convention and sports memorabilia show to the mix.	Add a Star Trek convention and sports memorabillia show to the mix.	59120258	1473434689165	1473434689213	c	67
114308	1243329	Add a Star Trek convention and sports memorabilia show to the mix.	Add a Star Trek convention and sports memorabillia show to the mix.	59120260	1473434689709	1473434689885	o	79
114308	1243329	Add a Star Trek convention and sports memorabilia show to the mix.	Add a Star Trek convention and sports memorabillia show to the mix.	59120325	1473434689781	1473434689940	n	78
114308	1243329	Add a Star Trek convention and sports memorabilia show to the mix.	Add a Star Trek convention and sports memorabillia show to the mix.	59120329	1473434690989	1473434691085	v	86
114308	1243329	Add a Star Trek convention and sports memorabilia show to the mix.	Add a Star Trek convention and sports memorabillia show to the mix.	59120333	1473434691157	1473434691269	e	69
114308	1243329	Add a Star Trek convention and sports memorabilia show to the mix.	Add a Star Trek convention and sports memorabillia show to the mix.	59120337	1473434691413	1473434691532	n	78
114308	1243329	Add a Star Trek convention and sports memorabilia show to the mix.	Add a Star Trek convention and sports memorabillia show to the mix.	59120340	1473434691612	1473434691749	t	84
114308	1243329	Add a Star Trek convention and sports memorabilia show to the mix.	Add a Star Trek convention and sports memorabillia show to the mix.	59120343	1473434691949	1473434692228	i	73
114308	1243329	Add a Star Trek convention and sports memorabilia show to the mix.	Add a Star Trek convention and sports memorabillia show to the mix.	59120380	1473434692053	1473434692252	o	79
114308	1243329	Add a Star Trek convention and sports memorabilia show to the mix.	Add a Star Trek convention and sports memorabillia show to the mix.	59120381	1473434692141	1473434692340	n	78
114308	1243329	Add a Star Trek convention and sports memorabilia show to the mix.	Add a Star Trek convention and sports memorabillia show to the mix.	59120382	1473434692300	1473434692445	 	32
114308	1243329	Add a Star Trek convention and sports memorabilia show to the mix.	Add a Star Trek convention and sports memorabillia show to the mix.	59120383	1473434692804	1473434692949	a	65
114308	1243329	Add a Star Trek convention and sports memorabilia show to the mix.	Add a Star Trek convention and sports memorabillia show to the mix.	59120384	1473434692980	1473434693133	n	78
114308	1243329	Add a Star Trek convention and sports memorabilia show to the mix.	Add a Star Trek convention and sports memorabillia show to the mix.	59120385	1473434693029	1473434693197	d	68
114308	1243329	Add a Star Trek convention and sports memorabilia show to the mix.	Add a Star Trek convention and sports memorabillia show to the mix.	59120386	1473434693220	1473434693325	 	32
114308	1243329	Add a Star Trek convention and sports memorabilia show to the mix.	Add a Star Trek convention and sports memorabillia show to the mix.	59120440	1473434694021	1473434694172	s	83
114308	1243329	Add a Star Trek convention and sports memorabilia show to the mix.	Add a Star Trek convention and sports memorabillia show to the mix.	59120441	1473434694341	1473434694516	p	80
114308	1243329	Add a Star Trek convention and sports memorabilia show to the mix.	Add a Star Trek convention and sports memorabillia show to the mix.	59120442	1473434694429	1473434694588	o	79
114308	1243329	Add a Star Trek convention and sports memorabilia show to the mix.	Add a Star Trek convention and sports memorabillia show to the mix.	59120443	1473434694724	1473434694852	r	82
114308	1243329	Add a Star Trek convention and sports memorabilia show to the mix.	Add a Star Trek convention and sports memorabillia show to the mix.	59120445	1473434694980	1473434695132	t	84
114308	1243329	Add a Star Trek convention and sports memorabilia show to the mix.	Add a Star Trek convention and sports memorabillia show to the mix.	59120524	1473434695156	1473434695284	s	83
114308	1243329	Add a Star Trek convention and sports memorabilia show to the mix.	Add a Star Trek convention and sports memorabillia show to the mix.	59120529	1473434695308	1473434695429	 	32
114308	1243329	Add a Star Trek convention and sports memorabilia show to the mix.	Add a Star Trek convention and sports memorabillia show to the mix.	59120533	1473434696069	1473434696196	m	77
114308	1243329	Add a Star Trek convention and sports memorabilia show to the mix.	Add a Star Trek convention and sports memorabillia show to the mix.	59120538	1473434696373	1473434696516	e	69
114308	1243329	Add a Star Trek convention and sports memorabilia show to the mix.	Add a Star Trek convention and sports memorabillia show to the mix.	59120540	1473434696708	1473434696837	m	77
114308	1243329	Add a Star Trek convention and sports memorabilia show to the mix.	Add a Star Trek convention and sports memorabillia show to the mix.	59120615	1473434697373	1473434697532	o	79
114308	1243329	Add a Star Trek convention and sports memorabilia show to the mix.	Add a Star Trek convention and sports memorabillia show to the mix.	59120618	1473434697652	1473434697828	r	82
114308	1243329	Add a Star Trek convention and sports memorabilia show to the mix.	Add a Star Trek convention and sports memorabillia show to the mix.	59120620	1473434698164	1473434698309	a	65
114308	1243329	Add a Star Trek convention and sports memorabilia show to the mix.	Add a Star Trek convention and sports memorabillia show to the mix.	59120623	1473434699100	1473434699268	b	66
114308	1243329	Add a Star Trek convention and sports memorabilia show to the mix.	Add a Star Trek convention and sports memorabillia show to the mix.	59120673	1473434699244	1473434699468	i	73
114308	1243329	Add a Star Trek convention and sports memorabilia show to the mix.	Add a Star Trek convention and sports memorabillia show to the mix.	59120674	1473434699372	1473434699556	l	76
114308	1243329	Add a Star Trek convention and sports memorabilia show to the mix.	Add a Star Trek convention and sports memorabillia show to the mix.	59120676	1473434699636	1473434699788	l	76
114308	1243329	Add a Star Trek convention and sports memorabilia show to the mix.	Add a Star Trek convention and sports memorabillia show to the mix.	59120680	1473434700836	1473434700988	i	73
114308	1243329	Add a Star Trek convention and sports memorabilia show to the mix.	Add a Star Trek convention and sports memorabillia show to the mix.	59120683	1473434700940	1473434701108	a	65
114308	1243329	Add a Star Trek convention and sports memorabilia show to the mix.	Add a Star Trek convention and sports memorabillia show to the mix.	59120736	1473434701004	1473434701150	 	32
114308	1243329	Add a Star Trek convention and sports memorabilia show to the mix.	Add a Star Trek convention and sports memorabillia show to the mix.	59120739	1473434701588	1473434701732	s	83
114308	1243329	Add a Star Trek convention and sports memorabilia show to the mix.	Add a Star Trek convention and sports memorabillia show to the mix.	59120742	1473434701852	1473434702020	h	72
114308	1243329	Add a Star Trek convention and sports memorabilia show to the mix.	Add a Star Trek convention and sports memorabillia show to the mix.	59120744	1473434701916	1473434702068	o	79
114308	1243329	Add a Star Trek convention and sports memorabilia show to the mix.	Add a Star Trek convention and sports memorabillia show to the mix.	59120746	1473434702036	1473434702140	w	87
114308	1243329	Add a Star Trek convention and sports memorabilia show to the mix.	Add a Star Trek convention and sports memorabillia show to the mix.	59120748	1473434702164	1473434702284	 	32
114308	1243329	Add a Star Trek convention and sports memorabilia show to the mix.	Add a Star Trek convention and sports memorabillia show to the mix.	59120762	1473434702380	1473434702524	t	84
114308	1243329	Add a Star Trek convention and sports memorabilia show to the mix.	Add a Star Trek convention and sports memorabillia show to the mix.	59120767	1473434702508	1473434702636	o	79
114308	1243329	Add a Star Trek convention and sports memorabilia show to the mix.	Add a Star Trek convention and sports memorabillia show to the mix.	59120771	1473434702604	1473434702756	 	32
114308	1243329	Add a Star Trek convention and sports memorabilia show to the mix.	Add a Star Trek convention and sports memorabillia show to the mix.	59120777	1473434702780	1473434702903	t	84
114308	1243329	Add a Star Trek convention and sports memorabilia show to the mix.	Add a Star Trek convention and sports memorabillia show to the mix.	59120844	1473434702876	1473434703012	h	72
114308	1243329	Add a Star Trek convention and sports memorabilia show to the mix.	Add a Star Trek convention and sports memorabillia show to the mix.	59120845	1473434703028	1473434703156	e	69
114308	1243329	Add a Star Trek convention and sports memorabilia show to the mix.	Add a Star Trek convention and sports memorabillia show to the mix.	59120847	1473434703140	1473434703309	 	32
114308	1243329	Add a Star Trek convention and sports memorabilia show to the mix.	Add a Star Trek convention and sports memorabillia show to the mix.	59120849	1473434703397	1473434703596	m	77
114308	1243329	Add a Star Trek convention and sports memorabilia show to the mix.	Add a Star Trek convention and sports memorabillia show to the mix.	59120852	1473434703524	1473434703692	i	73
114308	1243329	Add a Star Trek convention and sports memorabilia show to the mix.	Add a Star Trek convention and sports memorabillia show to the mix.	59120855	1473434704044	1473434704196	c	67
114308	1243329	Add a Star Trek convention and sports memorabilia show to the mix.	Add a Star Trek convention and sports memorabillia show to the mix.	59120918	1473434704613	1473434704725	BKSP	8
114308	1243329	Add a Star Trek convention and sports memorabilia show to the mix.	Add a Star Trek convention and sports memorabillia show to the mix.	59120923	1473434704748	1473434704868	x	88
114308	1243329	Add a Star Trek convention and sports memorabilia show to the mix.	Add a Star Trek convention and sports memorabillia show to the mix.	59120926	1473434705764	1473434705932	.	190
