PARTICIPANT_ID	TEST_SECTION_ID	SENTENCE	USER_INPUT	KEYSTROKE_ID	PRESS_TIME	RELEASE_TIME	LETTER	KEYCODE
119626	1299411	Let me know if you have more questions.	Let me know if you have more questions.	61774908	1473558014527	1473558015037	SHIFT	16
119626	1299411	Let me know if you have more questions.	Let me know if you have more questions.	61774914	1473558014933	1473558015076	L	76
119626	1299411	Let me know if you have more questions.	Let me know if you have more questions.	61774917	1473558015098	1473558015191	e	69
119626	1299411	Let me know if you have more questions.	Let me know if you have more questions.	61774919	1473558015280	1473558015420	t	84
119626	1299411	Let me know if you have more questions.	Let me know if you have more questions.	61774921	1473558015354	1473558015499	 	32
119626	1299411	Let me know if you have more questions.	Let me know if you have more questions.	61774946	1473558015453	1473558015582	m	77
119626	1299411	Let me know if you have more questions.	Let me know if you have more questions.	61774949	1473558015553	1473558015684	e	69
119626	1299411	Let me know if you have more questions.	Let me know if you have more questions.	61774952	1473558015617	1473558015724	 	32
119626	1299411	Let me know if you have more questions.	Let me know if you have more questions.	61774957	1473558016015	1473558016169	k	75
119626	1299411	Let me know if you have more questions.	Let me know if you have more questions.	61774960	1473558016264	1473558016332	n	78
119626	1299411	Let me know if you have more questions.	Let me know if you have more questions.	61774963	1473558016435	1473558016574	o	79
119626	1299411	Let me know if you have more questions.	Let me know if you have more questions.	61774966	1473558016516	1473558016649	w	87
119626	1299411	Let me know if you have more questions.	Let me know if you have more questions.	61774967	1473558016579	1473558016708	 	32
119626	1299411	Let me know if you have more questions.	Let me know if you have more questions.	61774968	1473558016674	1473558016801	i	73
119626	1299411	Let me know if you have more questions.	Let me know if you have more questions.	61774969	1473558016759	1473558016881	f	70
119626	1299411	Let me know if you have more questions.	Let me know if you have more questions.	61774970	1473558016812	1473558016938	 	32
119626	1299411	Let me know if you have more questions.	Let me know if you have more questions.	61774971	1473558017027	1473558017166	y	89
119626	1299411	Let me know if you have more questions.	Let me know if you have more questions.	61774982	1473558017120	1473558017191	o	79
119626	1299411	Let me know if you have more questions.	Let me know if you have more questions.	61774985	1473558017262	1473558017341	u	85
119626	1299411	Let me know if you have more questions.	Let me know if you have more questions.	61774988	1473558017345	1473558017474	 	32
119626	1299411	Let me know if you have more questions.	Let me know if you have more questions.	61774992	1473558017436	1473558017547	h	72
119626	1299411	Let me know if you have more questions.	Let me know if you have more questions.	61774995	1473558017489	1473558017618	a	65
119626	1299411	Let me know if you have more questions.	Let me know if you have more questions.	61775016	1473558017575	1473558017686	v	86
119626	1299411	Let me know if you have more questions.	Let me know if you have more questions.	61775017	1473558017677	1473558017770	e	69
119626	1299411	Let me know if you have more questions.	Let me know if you have more questions.	61775019	1473558017739	1473558017876	 	32
119626	1299411	Let me know if you have more questions.	Let me know if you have more questions.	61775020	1473558017844	1473558017941	m	77
119626	1299411	Let me know if you have more questions.	Let me know if you have more questions.	61775022	1473558018035	1473558018183	o	79
119626	1299411	Let me know if you have more questions.	Let me know if you have more questions.	61775024	1473558018188	1473558018259	r	82
119626	1299411	Let me know if you have more questions.	Let me know if you have more questions.	61775035	1473558018362	1473558018536	e	69
119626	1299411	Let me know if you have more questions.	Let me know if you have more questions.	61775037	1473558018449	1473558018604	 	32
119626	1299411	Let me know if you have more questions.	Let me know if you have more questions.	61775040	1473558018594	1473558018720	q	81
119626	1299411	Let me know if you have more questions.	Let me know if you have more questions.	61775045	1473558018697	1473558018845	u	85
119626	1299411	Let me know if you have more questions.	Let me know if you have more questions.	61775069	1473558018811	1473558018927	e	69
119626	1299411	Let me know if you have more questions.	Let me know if you have more questions.	61775072	1473558018890	1473558019067	s	83
119626	1299411	Let me know if you have more questions.	Let me know if you have more questions.	61775074	1473558018999	1473558019153	t	84
119626	1299411	Let me know if you have more questions.	Let me know if you have more questions.	61775077	1473558019092	1473558019189	i	73
119626	1299411	Let me know if you have more questions.	Let me know if you have more questions.	61775212	1473558019236	1473558019324	o	79
119626	1299411	Let me know if you have more questions.	Let me know if you have more questions.	61775080	1473558019263	1473558019316	i	73
119626	1299411	Let me know if you have more questions.	Let me know if you have more questions.	61775215	1473558019423	1473558019543	n	78
119626	1299411	Let me know if you have more questions.	Let me know if you have more questions.	61775219	1473558019883	1473558019948	BKSP	8
119626	1299411	Let me know if you have more questions.	Let me know if you have more questions.	61775223	1473558019998	1473558020086	BKSP	8
119626	1299411	Let me know if you have more questions.	Let me know if you have more questions.	61775229	1473558020321	1473558020463	n	78
119626	1299411	Let me know if you have more questions.	Let me know if you have more questions.	61775233	1473558020905	1473558021045	s	83
119626	1299411	Let me know if you have more questions.	Let me know if you have more questions.	61775237	1473558021066	1473558021815	.	190
119626	1299421	David, Cindy and Mary will each report to the Office of the Chairman.	Davic, Cindy and Mary will each report to the Office of the Chairman.	61775366	1473558024737	1473558025020	SHIFT	16
119626	1299421	David, Cindy and Mary will each report to the Office of the Chairman.	Davic, Cindy and Mary will each report to the Office of the Chairman.	61775370	1473558024925	1473558025068	D	68
119626	1299421	David, Cindy and Mary will each report to the Office of the Chairman.	Davic, Cindy and Mary will each report to the Office of the Chairman.	61775376	1473558025039	1473558025191	a	65
119626	1299421	David, Cindy and Mary will each report to the Office of the Chairman.	Davic, Cindy and Mary will each report to the Office of the Chairman.	61775379	1473558025212	1473558025298	d	68
119626	1299421	David, Cindy and Mary will each report to the Office of the Chairman.	Davic, Cindy and Mary will each report to the Office of the Chairman.	61775386	1473558025440	1473558025605	BKSP	8
119626	1299421	David, Cindy and Mary will each report to the Office of the Chairman.	Davic, Cindy and Mary will each report to the Office of the Chairman.	61775390	1473558025588	1473558025672	v	86
119626	1299421	David, Cindy and Mary will each report to the Office of the Chairman.	Davic, Cindy and Mary will each report to the Office of the Chairman.	61775445	1473558025644	1473558025772	i	73
119626	1299421	David, Cindy and Mary will each report to the Office of the Chairman.	Davic, Cindy and Mary will each report to the Office of the Chairman.	61775448	1473558025778	1473558025953	c	67
119626	1299421	David, Cindy and Mary will each report to the Office of the Chairman.	Davic, Cindy and Mary will each report to the Office of the Chairman.	61775450	1473558026101	1473558026386	,	188
119626	1299421	David, Cindy and Mary will each report to the Office of the Chairman.	Davic, Cindy and Mary will each report to the Office of the Chairman.	61775452	1473558026652	1473558026781	 	32
119626	1299421	David, Cindy and Mary will each report to the Office of the Chairman.	Davic, Cindy and Mary will each report to the Office of the Chairman.	61775454	1473558026688	1473558027026	SHIFT	16
119626	1299421	David, Cindy and Mary will each report to the Office of the Chairman.	Davic, Cindy and Mary will each report to the Office of the Chairman.	61775456	1473558026977	1473558027093	C	67
119626	1299421	David, Cindy and Mary will each report to the Office of the Chairman.	Davic, Cindy and Mary will each report to the Office of the Chairman.	61775471	1473558027076	1473558027150	i	73
119626	1299421	David, Cindy and Mary will each report to the Office of the Chairman.	Davic, Cindy and Mary will each report to the Office of the Chairman.	61775474	1473558027220	1473558027330	n	78
119626	1299421	David, Cindy and Mary will each report to the Office of the Chairman.	Davic, Cindy and Mary will each report to the Office of the Chairman.	61775479	1473558027304	1473558027441	d	68
119626	1299421	David, Cindy and Mary will each report to the Office of the Chairman.	Davic, Cindy and Mary will each report to the Office of the Chairman.	61775483	1473558027462	1473558027595	y	89
119626	1299421	David, Cindy and Mary will each report to the Office of the Chairman.	Davic, Cindy and Mary will each report to the Office of the Chairman.	61775487	1473558027564	1473558027689	 	32
119626	1299421	David, Cindy and Mary will each report to the Office of the Chairman.	Davic, Cindy and Mary will each report to the Office of the Chairman.	61775500	1473558027649	1473558027789	a	65
119626	1299421	David, Cindy and Mary will each report to the Office of the Chairman.	Davic, Cindy and Mary will each report to the Office of the Chairman.	61775504	1473558027734	1473558027869	n	78
119626	1299421	David, Cindy and Mary will each report to the Office of the Chairman.	Davic, Cindy and Mary will each report to the Office of the Chairman.	61775507	1473558027822	1473558027957	d	68
119626	1299421	David, Cindy and Mary will each report to the Office of the Chairman.	Davic, Cindy and Mary will each report to the Office of the Chairman.	61775513	1473558027879	1473558028028	 	32
119626	1299421	David, Cindy and Mary will each report to the Office of the Chairman.	Davic, Cindy and Mary will each report to the Office of the Chairman.	61775516	1473558027999	1473558028130	m	77
119626	1299421	David, Cindy and Mary will each report to the Office of the Chairman.	Davic, Cindy and Mary will each report to the Office of the Chairman.	61775541	1473558028070	1473558028169	a	65
119626	1299421	David, Cindy and Mary will each report to the Office of the Chairman.	Davic, Cindy and Mary will each report to the Office of the Chairman.	61775544	1473558028135	1473558028631	SHIFT	16
119626	1299421	David, Cindy and Mary will each report to the Office of the Chairman.	Davic, Cindy and Mary will each report to the Office of the Chairman.	61775542	1473558028308	1473558028401	BKSP	8
119626	1299421	David, Cindy and Mary will each report to the Office of the Chairman.	Davic, Cindy and Mary will each report to the Office of the Chairman.	61775543	1473558028463	1473558028528	BKSP	8
119626	1299421	David, Cindy and Mary will each report to the Office of the Chairman.	Davic, Cindy and Mary will each report to the Office of the Chairman.	61775546	1473558028590	1473558028711	M	77
119626	1299421	David, Cindy and Mary will each report to the Office of the Chairman.	Davic, Cindy and Mary will each report to the Office of the Chairman.	61775547	1473558028715	1473558028808	a	65
119626	1299421	David, Cindy and Mary will each report to the Office of the Chairman.	Davic, Cindy and Mary will each report to the Office of the Chairman.	61775549	1473558028774	1473558028885	r	82
119626	1299421	David, Cindy and Mary will each report to the Office of the Chairman.	Davic, Cindy and Mary will each report to the Office of the Chairman.	61775553	1473558028847	1473558028958	y	89
119626	1299421	David, Cindy and Mary will each report to the Office of the Chairman.	Davic, Cindy and Mary will each report to the Office of the Chairman.	61775569	1473558028950	1473558029095	 	32
119626	1299421	David, Cindy and Mary will each report to the Office of the Chairman.	Davic, Cindy and Mary will each report to the Office of the Chairman.	61775571	1473558029008	1473558029144	w	87
119626	1299421	David, Cindy and Mary will each report to the Office of the Chairman.	Davic, Cindy and Mary will each report to the Office of the Chairman.	61775574	1473558029075	1473558029198	i	73
119626	1299421	David, Cindy and Mary will each report to the Office of the Chairman.	Davic, Cindy and Mary will each report to the Office of the Chairman.	61775578	1473558029273	1473558029368	l	76
119626	1299421	David, Cindy and Mary will each report to the Office of the Chairman.	Davic, Cindy and Mary will each report to the Office of the Chairman.	61775581	1473558029422	1473558029527	l	76
119626	1299421	David, Cindy and Mary will each report to the Office of the Chairman.	Davic, Cindy and Mary will each report to the Office of the Chairman.	61775592	1473558029469	1473558029601	 	32
119626	1299421	David, Cindy and Mary will each report to the Office of the Chairman.	Davic, Cindy and Mary will each report to the Office of the Chairman.	61775594	1473558029549	1473558029632	e	69
119626	1299421	David, Cindy and Mary will each report to the Office of the Chairman.	Davic, Cindy and Mary will each report to the Office of the Chairman.	61775597	1473558029653	1473558029809	a	65
119626	1299421	David, Cindy and Mary will each report to the Office of the Chairman.	Davic, Cindy and Mary will each report to the Office of the Chairman.	61775600	1473558029744	1473558029888	c	67
119626	1299421	David, Cindy and Mary will each report to the Office of the Chairman.	Davic, Cindy and Mary will each report to the Office of the Chairman.	61775603	1473558029814	1473558029902	h	72
119626	1299421	David, Cindy and Mary will each report to the Office of the Chairman.	Davic, Cindy and Mary will each report to the Office of the Chairman.	61775607	1473558029918	1473558030063	 	32
119626	1299421	David, Cindy and Mary will each report to the Office of the Chairman.	Davic, Cindy and Mary will each report to the Office of the Chairman.	61775640	1473558030037	1473558030117	r	82
119626	1299421	David, Cindy and Mary will each report to the Office of the Chairman.	Davic, Cindy and Mary will each report to the Office of the Chairman.	61775644	1473558030195	1473558030340	e	69
119626	1299421	David, Cindy and Mary will each report to the Office of the Chairman.	Davic, Cindy and Mary will each report to the Office of the Chairman.	61775646	1473558030256	1473558030350	p	80
119626	1299421	David, Cindy and Mary will each report to the Office of the Chairman.	Davic, Cindy and Mary will each report to the Office of the Chairman.	61775649	1473558030403	1473558030528	o	79
119626	1299421	David, Cindy and Mary will each report to the Office of the Chairman.	Davic, Cindy and Mary will each report to the Office of the Chairman.	61775652	1473558030459	1473558030542	r	82
119626	1299421	David, Cindy and Mary will each report to the Office of the Chairman.	Davic, Cindy and Mary will each report to the Office of the Chairman.	61775653	1473558030632	1473558030733	t	84
119626	1299421	David, Cindy and Mary will each report to the Office of the Chairman.	Davic, Cindy and Mary will each report to the Office of the Chairman.	61775666	1473558030685	1473558030859	 	32
119626	1299421	David, Cindy and Mary will each report to the Office of the Chairman.	Davic, Cindy and Mary will each report to the Office of the Chairman.	61775671	1473558030864	1473558031063	t	84
119626	1299421	David, Cindy and Mary will each report to the Office of the Chairman.	Davic, Cindy and Mary will each report to the Office of the Chairman.	61775679	1473558030959	1473558031083	o	79
119626	1299421	David, Cindy and Mary will each report to the Office of the Chairman.	Davic, Cindy and Mary will each report to the Office of the Chairman.	61775685	1473558031049	1473558031248	 	32
119626	1299421	David, Cindy and Mary will each report to the Office of the Chairman.	Davic, Cindy and Mary will each report to the Office of the Chairman.	61775690	1473558031219	1473558031341	t	84
119626	1299421	David, Cindy and Mary will each report to the Office of the Chairman.	Davic, Cindy and Mary will each report to the Office of the Chairman.	61775707	1473558031301	1473558031435	h	72
119626	1299421	David, Cindy and Mary will each report to the Office of the Chairman.	Davic, Cindy and Mary will each report to the Office of the Chairman.	61775710	1473558031440	1473558031557	e	69
119626	1299421	David, Cindy and Mary will each report to the Office of the Chairman.	Davic, Cindy and Mary will each report to the Office of the Chairman.	61775713	1473558031491	1473558031644	 	32
119626	1299421	David, Cindy and Mary will each report to the Office of the Chairman.	Davic, Cindy and Mary will each report to the Office of the Chairman.	61775714	1473558031596	1473558031847	SHIFT	16
119626	1299421	David, Cindy and Mary will each report to the Office of the Chairman.	Davic, Cindy and Mary will each report to the Office of the Chairman.	61775715	1473558031767	1473558031889	O	79
119626	1299421	David, Cindy and Mary will each report to the Office of the Chairman.	Davic, Cindy and Mary will each report to the Office of the Chairman.	61775716	1473558031922	1473558031965	f	70
119626	1299421	David, Cindy and Mary will each report to the Office of the Chairman.	Davic, Cindy and Mary will each report to the Office of the Chairman.	61775720	1473558032113	1473558032229	f	70
119626	1299421	David, Cindy and Mary will each report to the Office of the Chairman.	Davic, Cindy and Mary will each report to the Office of the Chairman.	61775747	1473558032212	1473558032377	i	73
119626	1299421	David, Cindy and Mary will each report to the Office of the Chairman.	Davic, Cindy and Mary will each report to the Office of the Chairman.	61775751	1473558032382	1473558032447	c	67
119626	1299421	David, Cindy and Mary will each report to the Office of the Chairman.	Davic, Cindy and Mary will each report to the Office of the Chairman.	61775754	1473558032542	1473558032643	e	69
119626	1299421	David, Cindy and Mary will each report to the Office of the Chairman.	Davic, Cindy and Mary will each report to the Office of the Chairman.	61775757	1473558032586	1473558032734	 	32
119626	1299421	David, Cindy and Mary will each report to the Office of the Chairman.	Davic, Cindy and Mary will each report to the Office of the Chairman.	61775759	1473558032700	1473558032840	o	79
119626	1299421	David, Cindy and Mary will each report to the Office of the Chairman.	Davic, Cindy and Mary will each report to the Office of the Chairman.	61775769	1473558032791	1473558032895	f	70
119626	1299421	David, Cindy and Mary will each report to the Office of the Chairman.	Davic, Cindy and Mary will each report to the Office of the Chairman.	61775773	1473558032851	1473558032992	 	32
119626	1299421	David, Cindy and Mary will each report to the Office of the Chairman.	Davic, Cindy and Mary will each report to the Office of the Chairman.	61775776	1473558032969	1473558033077	t	84
119626	1299421	David, Cindy and Mary will each report to the Office of the Chairman.	Davic, Cindy and Mary will each report to the Office of the Chairman.	61775777	1473558033031	1473558033170	h	72
119626	1299421	David, Cindy and Mary will each report to the Office of the Chairman.	Davic, Cindy and Mary will each report to the Office of the Chairman.	61775780	1473558033153	1473558033269	e	69
119626	1299421	David, Cindy and Mary will each report to the Office of the Chairman.	Davic, Cindy and Mary will each report to the Office of the Chairman.	61775803	1473558033220	1473558033380	 	32
119626	1299421	David, Cindy and Mary will each report to the Office of the Chairman.	Davic, Cindy and Mary will each report to the Office of the Chairman.	61775805	1473558033360	1473558033491	c	67
119626	1299421	David, Cindy and Mary will each report to the Office of the Chairman.	Davic, Cindy and Mary will each report to the Office of the Chairman.	61775809	1473558033768	1473558033968	SHIFT	16
119626	1299421	David, Cindy and Mary will each report to the Office of the Chairman.	Davic, Cindy and Mary will each report to the Office of the Chairman.	61775806	1473558033779	1473558033871	BKSP	8
119626	1299421	David, Cindy and Mary will each report to the Office of the Chairman.	Davic, Cindy and Mary will each report to the Office of the Chairman.	61775812	1473558033907	1473558034030	C	67
119626	1299421	David, Cindy and Mary will each report to the Office of the Chairman.	Davic, Cindy and Mary will each report to the Office of the Chairman.	61775816	1473558033973	1473558034072	h	72
119626	1299421	David, Cindy and Mary will each report to the Office of the Chairman.	Davic, Cindy and Mary will each report to the Office of the Chairman.	61775819	1473558034041	1473558034180	a	65
119626	1299421	David, Cindy and Mary will each report to the Office of the Chairman.	Davic, Cindy and Mary will each report to the Office of the Chairman.	61775856	1473558034160	1473558034288	i	73
119626	1299421	David, Cindy and Mary will each report to the Office of the Chairman.	Davic, Cindy and Mary will each report to the Office of the Chairman.	61775859	1473558034251	1473558034342	r	82
119626	1299421	David, Cindy and Mary will each report to the Office of the Chairman.	Davic, Cindy and Mary will each report to the Office of the Chairman.	61775862	1473558034406	1473558034525	m	77
119626	1299421	David, Cindy and Mary will each report to the Office of the Chairman.	Davic, Cindy and Mary will each report to the Office of the Chairman.	61775865	1473558034499	1473558034630	a	65
119626	1299421	David, Cindy and Mary will each report to the Office of the Chairman.	Davic, Cindy and Mary will each report to the Office of the Chairman.	61775870	1473558034604	1473558034689	n	78
119626	1299421	David, Cindy and Mary will each report to the Office of the Chairman.	Davic, Cindy and Mary will each report to the Office of the Chairman.	61775873	1473558034928	1473558035127	.	190
119626	1299430	Jan has a lot of detail.	Jan has a lot of detail.	61776041	1473558037709	1473558038881	SHIFT	16
119626	1299430	Jan has a lot of detail.	Jan has a lot of detail.	61776044	1473558038790	1473558038915	J	74
119626	1299430	Jan has a lot of detail.	Jan has a lot of detail.	61776047	1473558038930	1473558039056	a	65
119626	1299430	Jan has a lot of detail.	Jan has a lot of detail.	61776050	1473558038987	1473558039095	n	78
119626	1299430	Jan has a lot of detail.	Jan has a lot of detail.	61776053	1473558039072	1473558039211	 	32
119626	1299430	Jan has a lot of detail.	Jan has a lot of detail.	61776065	1473558039166	1473558039271	h	72
119626	1299430	Jan has a lot of detail.	Jan has a lot of detail.	61776069	1473558039219	1473558039346	a	65
119626	1299430	Jan has a lot of detail.	Jan has a lot of detail.	61776071	1473558039285	1473558039435	s	83
119626	1299430	Jan has a lot of detail.	Jan has a lot of detail.	61776074	1473558039351	1473558039514	 	32
119626	1299430	Jan has a lot of detail.	Jan has a lot of detail.	61776078	1473558039502	1473558039643	o	79
119626	1299430	Jan has a lot of detail.	Jan has a lot of detail.	61776080	1473558039760	1473558039879	BKSP	8
119626	1299430	Jan has a lot of detail.	Jan has a lot of detail.	61776091	1473558039845	1473558039959	a	65
119626	1299430	Jan has a lot of detail.	Jan has a lot of detail.	61776097	1473558039907	1473558040078	 	32
119626	1299430	Jan has a lot of detail.	Jan has a lot of detail.	61776094	1473558039995	1473558040070	l	76
119626	1299430	Jan has a lot of detail.	Jan has a lot of detail.	61776102	1473558040139	1473558040255	o	79
119626	1299430	Jan has a lot of detail.	Jan has a lot of detail.	61776106	1473558040201	1473558040364	f	70
119626	1299430	Jan has a lot of detail.	Jan has a lot of detail.	61776110	1473558040382	1473558040544	 	32
119626	1299430	Jan has a lot of detail.	Jan has a lot of detail.	61776115	1473558040648	1473558040736	BKSP	8
119626	1299430	Jan has a lot of detail.	Jan has a lot of detail.	61776117	1473558040800	1473558040926	BKSP	8
119626	1299430	Jan has a lot of detail.	Jan has a lot of detail.	61776119	1473558040887	1473558040975	t	84
119626	1299430	Jan has a lot of detail.	Jan has a lot of detail.	61776120	1473558040912	1473558041052	 	32
119626	1299430	Jan has a lot of detail.	Jan has a lot of detail.	61776121	1473558040998	1473558041135	o	79
119626	1299430	Jan has a lot of detail.	Jan has a lot of detail.	61776122	1473558041083	1473558041226	f	70
119626	1299430	Jan has a lot of detail.	Jan has a lot of detail.	61776135	1473558041145	1473558041294	 	32
119626	1299430	Jan has a lot of detail.	Jan has a lot of detail.	61776140	1473558041529	1473558041612	d	68
119626	1299430	Jan has a lot of detail.	Jan has a lot of detail.	61776144	1473558041684	1473558041763	e	69
119626	1299430	Jan has a lot of detail.	Jan has a lot of detail.	61776149	1473558041833	1473558041917	t	84
119626	1299430	Jan has a lot of detail.	Jan has a lot of detail.	61776153	1473558041903	1473558042047	a	65
119626	1299430	Jan has a lot of detail.	Jan has a lot of detail.	61776202	1473558041988	1473558042077	i	73
119626	1299430	Jan has a lot of detail.	Jan has a lot of detail.	61776206	1473558042135	1473558042243	l	76
119626	1299430	Jan has a lot of detail.	Jan has a lot of detail.	61776210	1473558042504	1473558042686	.	190
119626	1299438	I have some more data coming.	I have some more data coming.	61776356	1473558045081	1473558046055	SHIFT	16
119626	1299438	I have some more data coming.	I have some more data coming.	61776358	1473558046036	1473558046107	U	85
119626	1299438	I have some more data coming.	I have some more data coming.	61776360	1473558046112	1473558046205	 	32
119626	1299438	I have some more data coming.	I have some more data coming.	61776363	1473558046260	1473558046371	h	72
119626	1299438	I have some more data coming.	I have some more data coming.	61776367	1473558046503	1473558046571	BKSP	8
119626	1299438	I have some more data coming.	I have some more data coming.	61776370	1473558046637	1473558046708	BKSP	8
119626	1299438	I have some more data coming.	I have some more data coming.	61776373	1473558046786	1473558046847	BKSP	8
119626	1299438	I have some more data coming.	I have some more data coming.	61776382	1473558046830	1473558047139	SHIFT	16
119626	1299438	I have some more data coming.	I have some more data coming.	61776376	1473558046904	1473558046965	BKSP	8
119626	1299438	I have some more data coming.	I have some more data coming.	61776379	1473558046969	1473558047056	I	73
119626	1299438	I have some more data coming.	I have some more data coming.	61776380	1473558047098	1473558047204	 	32
119626	1299438	I have some more data coming.	I have some more data coming.	61776383	1473558047144	1473558047243	h	72
119626	1299438	I have some more data coming.	I have some more data coming.	61776385	1473558047229	1473558047348	a	65
119626	1299438	I have some more data coming.	I have some more data coming.	61776388	1473558047293	1473558047416	v	86
119626	1299438	I have some more data coming.	I have some more data coming.	61776391	1473558047370	1473558047472	e	69
119626	1299438	I have some more data coming.	I have some more data coming.	61776395	1473558047500	1473558047565	s	32
119626	1299438	I have some more data coming.	I have some more data coming.	61776405	1473558047587	1473558047660	o	79
119626	1299438	I have some more data coming.	I have some more data coming.	61776409	1473558047715	1473558047822	m	77
119626	1299438	I have some more data coming.	I have some more data coming.	61776413	1473558047768	1473558047899	e	69
119626	1299438	I have some more data coming.	I have some more data coming.	61776417	1473558047836	1473558047961	 	32
119626	1299438	I have some more data coming.	I have some more data coming.	61776449	1473558047941	1473558048012	o	79
119626	1299438	I have some more data coming.	I have some more data coming.	61776452	1473558048231	1473558048330	BKSP	8
119626	1299438	I have some more data coming.	I have some more data coming.	61776456	1473558048375	1473558048439	m	77
119626	1299438	I have some more data coming.	I have some more data coming.	61776460	1473558048537	1473558048670	o	79
119626	1299438	I have some more data coming.	I have some more data coming.	61776463	1473558048872	1473558048974	r	82
119626	1299438	I have some more data coming.	I have some more data coming.	61776467	1473558049064	1473558049172	e	69
119626	1299438	I have some more data coming.	I have some more data coming.	61776493	1473558049110	1473558049271	 	32
119626	1299438	I have some more data coming.	I have some more data coming.	61776498	1473558049243	1473558049347	d	68
119626	1299438	I have some more data coming.	I have some more data coming.	61776502	1473558049319	1473558049455	a	65
119626	1299438	I have some more data coming.	I have some more data coming.	61776507	1473558049427	1473558049507	t	84
119626	1299438	I have some more data coming.	I have some more data coming.	61776510	1473558049514	1473558049691	a	65
119626	1299438	I have some more data coming.	I have some more data coming.	61776514	1473558049719	1473558049887	 	32
119626	1299438	I have some more data coming.	I have some more data coming.	61776535	1473558049894	1473558050076	c	67
119626	1299438	I have some more data coming.	I have some more data coming.	61776539	1473558050027	1473558050101	o	79
119626	1299438	I have some more data coming.	I have some more data coming.	61776542	1473558050165	1473558050242	m	77
119626	1299438	I have some more data coming.	I have some more data coming.	61776545	1473558050317	1473558050385	i	73
119626	1299438	I have some more data coming.	I have some more data coming.	61776546	1473558050437	1473558050529	n	78
119626	1299438	I have some more data coming.	I have some more data coming.	61776585	1473558050485	1473558050604	g	71
119626	1299438	I have some more data coming.	I have some more data coming.	61776588	1473558050635	1473558050825	.	190
119626	1299450	If it needs to be paid, we will need to add the day to the deal.	if it needs to be paid, we will need to add the day to the deal.	61776847	1473558055733	1473558055915	i	73
119626	1299450	If it needs to be paid, we will need to add the day to the deal.	if it needs to be paid, we will need to add the day to the deal.	61776855	1473558055849	1473558056021	f	70
119626	1299450	If it needs to be paid, we will need to add the day to the deal.	if it needs to be paid, we will need to add the day to the deal.	61776862	1473558055937	1473558056114	 	32
119626	1299450	If it needs to be paid, we will need to add the day to the deal.	if it needs to be paid, we will need to add the day to the deal.	61776866	1473558056069	1473558056234	i	73
119626	1299450	If it needs to be paid, we will need to add the day to the deal.	if it needs to be paid, we will need to add the day to the deal.	61776871	1473558056402	1473558056582	t	84
119626	1299450	If it needs to be paid, we will need to add the day to the deal.	if it needs to be paid, we will need to add the day to the deal.	61776911	1473558056458	1473558056627	 	32
119626	1299450	If it needs to be paid, we will need to add the day to the deal.	if it needs to be paid, we will need to add the day to the deal.	61776915	1473558056711	1473558056853	n	78
119626	1299450	If it needs to be paid, we will need to add the day to the deal.	if it needs to be paid, we will need to add the day to the deal.	61776919	1473558056801	1473558056901	e	69
119626	1299450	If it needs to be paid, we will need to add the day to the deal.	if it needs to be paid, we will need to add the day to the deal.	61776923	1473558056942	1473558057013	e	69
119626	1299450	If it needs to be paid, we will need to add the day to the deal.	if it needs to be paid, we will need to add the day to the deal.	61776927	1473558057089	1473558057311	d	68
119626	1299450	If it needs to be paid, we will need to add the day to the deal.	if it needs to be paid, we will need to add the day to the deal.	61776932	1473558057521	1473558057706	 	32
119626	1299450	If it needs to be paid, we will need to add the day to the deal.	if it needs to be paid, we will need to add the day to the deal.	61776947	1473558057812	1473558057960	BKSP	8
119626	1299450	If it needs to be paid, we will need to add the day to the deal.	if it needs to be paid, we will need to add the day to the deal.	61776948	1473558057920	1473558058075	s	83
119626	1299450	If it needs to be paid, we will need to add the day to the deal.	if it needs to be paid, we will need to add the day to the deal.	61776950	1473558057968	1473558058152	 	32
119626	1299450	If it needs to be paid, we will need to add the day to the deal.	if it needs to be paid, we will need to add the day to the deal.	61776952	1473558058100	1473558058246	t	84
119626	1299450	If it needs to be paid, we will need to add the day to the deal.	if it needs to be paid, we will need to add the day to the deal.	61776956	1473558058165	1473558058300	o	79
119626	1299450	If it needs to be paid, we will need to add the day to the deal.	if it needs to be paid, we will need to add the day to the deal.	61776987	1473558058254	1473558058393	 	32
119626	1299450	If it needs to be paid, we will need to add the day to the deal.	if it needs to be paid, we will need to add the day to the deal.	61776991	1473558058426	1473558058566	p	80
119626	1299450	If it needs to be paid, we will need to add the day to the deal.	if it needs to be paid, we will need to add the day to the deal.	61776998	1473558058675	1473558058855	b	66
119626	1299450	If it needs to be paid, we will need to add the day to the deal.	if it needs to be paid, we will need to add the day to the deal.	61776996	1473558058685	1473558058817	BKSP	8
119626	1299450	If it needs to be paid, we will need to add the day to the deal.	if it needs to be paid, we will need to add the day to the deal.	61777000	1473558058860	1473558059007	e	69
119626	1299450	If it needs to be paid, we will need to add the day to the deal.	if it needs to be paid, we will need to add the day to the deal.	61777003	1473558058955	1473558059119	 	32
119626	1299450	If it needs to be paid, we will need to add the day to the deal.	if it needs to be paid, we will need to add the day to the deal.	61777105	1473558059029	1473558059134	p	80
119626	1299450	If it needs to be paid, we will need to add the day to the deal.	if it needs to be paid, we will need to add the day to the deal.	61777107	1473558059148	1473558059304	a	65
119626	1299450	If it needs to be paid, we will need to add the day to the deal.	if it needs to be paid, we will need to add the day to the deal.	61777110	1473558059247	1473558059409	i	73
119626	1299450	If it needs to be paid, we will need to add the day to the deal.	if it needs to be paid, we will need to add the day to the deal.	61777113	1473558059390	1473558059549	d	68
119626	1299450	If it needs to be paid, we will need to add the day to the deal.	if it needs to be paid, we will need to add the day to the deal.	61777117	1473558059570	1473558059772	,	188
119626	1299450	If it needs to be paid, we will need to add the day to the deal.	if it needs to be paid, we will need to add the day to the deal.	61777121	1473558060431	1473558060537	BKSP	8
119626	1299450	If it needs to be paid, we will need to add the day to the deal.	if it needs to be paid, we will need to add the day to the deal.	61777124	1473558060602	1473558060680	BKSP	8
119626	1299450	If it needs to be paid, we will need to add the day to the deal.	if it needs to be paid, we will need to add the day to the deal.	61777131	1473558060733	1473558060985	BKSP	8
119626	1299450	If it needs to be paid, we will need to add the day to the deal.	if it needs to be paid, we will need to add the day to the deal.	61777136	1473558061046	1473558061123	BKSP	8
119626	1299450	If it needs to be paid, we will need to add the day to the deal.	if it needs to be paid, we will need to add the day to the deal.	61777141	1473558061206	1473558061300	BKSP	8
119626	1299450	If it needs to be paid, we will need to add the day to the deal.	if it needs to be paid, we will need to add the day to the deal.	61777145	1473558061372	1473558061469	BKSP	8
119626	1299450	If it needs to be paid, we will need to add the day to the deal.	if it needs to be paid, we will need to add the day to the deal.	61777151	1473558061538	1473558061632	BKSP	8
119626	1299450	If it needs to be paid, we will need to add the day to the deal.	if it needs to be paid, we will need to add the day to the deal.	61777156	1473558061699	1473558061841	BKSP	8
119626	1299450	If it needs to be paid, we will need to add the day to the deal.	if it needs to be paid, we will need to add the day to the deal.	61777160	1473558061846	1473558061959	b	66
119626	1299450	If it needs to be paid, we will need to add the day to the deal.	if it needs to be paid, we will need to add the day to the deal.	61777144	1473558061925	1473558062104	e	69
119626	1299450	If it needs to be paid, we will need to add the day to the deal.	if it needs to be paid, we will need to add the day to the deal.	61777149	1473558062058	1473558062201	 	32
119626	1299450	If it needs to be paid, we will need to add the day to the deal.	if it needs to be paid, we will need to add the day to the deal.	61777154	1473558062132	1473558062252	p	80
119626	1299450	If it needs to be paid, we will need to add the day to the deal.	if it needs to be paid, we will need to add the day to the deal.	61777159	1473558062186	1473558062350	a	65
119626	1299450	If it needs to be paid, we will need to add the day to the deal.	if it needs to be paid, we will need to add the day to the deal.	61777162	1473558062354	1473558062499	i	73
119626	1299450	If it needs to be paid, we will need to add the day to the deal.	if it needs to be paid, we will need to add the day to the deal.	61777191	1473558062456	1473558062636	d	68
119626	1299450	If it needs to be paid, we will need to add the day to the deal.	if it needs to be paid, we will need to add the day to the deal.	61777194	1473558062518	1473558062684	 	32
119626	1299450	If it needs to be paid, we will need to add the day to the deal.	if it needs to be paid, we will need to add the day to the deal.	61777197	1473558062813	1473558062947	BKSP	8
119626	1299450	If it needs to be paid, we will need to add the day to the deal.	if it needs to be paid, we will need to add the day to the deal.	61777200	1473558062963	1473558063105	,	188
119626	1299450	If it needs to be paid, we will need to add the day to the deal.	if it needs to be paid, we will need to add the day to the deal.	61777202	1473558063222	1473558063374	w	87
119626	1299450	If it needs to be paid, we will need to add the day to the deal.	if it needs to be paid, we will need to add the day to the deal.	61777205	1473558063440	1473558063605	e	69
119626	1299450	If it needs to be paid, we will need to add the day to the deal.	if it needs to be paid, we will need to add the day to the deal.	61777207	1473558063619	1473558063729	 	32
119626	1299450	If it needs to be paid, we will need to add the day to the deal.	if it needs to be paid, we will need to add the day to the deal.	61777238	1473558063767	1473558063853	BKSP	8
119626	1299450	If it needs to be paid, we will need to add the day to the deal.	if it needs to be paid, we will need to add the day to the deal.	61777239	1473558063911	1473558063999	BKSP	8
119626	1299450	If it needs to be paid, we will need to add the day to the deal.	if it needs to be paid, we will need to add the day to the deal.	61777240	1473558064063	1473558064219	BKSP	8
119626	1299450	If it needs to be paid, we will need to add the day to the deal.	if it needs to be paid, we will need to add the day to the deal.	61777241	1473558064151	1473558064312	 	32
119626	1299450	If it needs to be paid, we will need to add the day to the deal.	if it needs to be paid, we will need to add the day to the deal.	61777242	1473558064219	1473558064368	w	87
119626	1299450	If it needs to be paid, we will need to add the day to the deal.	if it needs to be paid, we will need to add the day to the deal.	61777244	1473558064316	1473558064394	e	69
119626	1299450	If it needs to be paid, we will need to add the day to the deal.	if it needs to be paid, we will need to add the day to the deal.	61777266	1473558064449	1473558064650	e	32
119626	1299450	If it needs to be paid, we will need to add the day to the deal.	if it needs to be paid, we will need to add the day to the deal.	61777270	1473558064532	1473558064702	w	87
119626	1299450	If it needs to be paid, we will need to add the day to the deal.	if it needs to be paid, we will need to add the day to the deal.	61777273	1473558064627	1473558064728	i	73
119626	1299450	If it needs to be paid, we will need to add the day to the deal.	if it needs to be paid, we will need to add the day to the deal.	61777277	1473558064814	1473558064909	l	76
119626	1299450	If it needs to be paid, we will need to add the day to the deal.	if it needs to be paid, we will need to add the day to the deal.	61777284	1473558064955	1473558065043	l	76
119626	1299450	If it needs to be paid, we will need to add the day to the deal.	if it needs to be paid, we will need to add the day to the deal.	61777288	1473558065146	1473558065283	 	32
119626	1299450	If it needs to be paid, we will need to add the day to the deal.	if it needs to be paid, we will need to add the day to the deal.	61777372	1473558065216	1473558065374	n	78
119626	1299450	If it needs to be paid, we will need to add the day to the deal.	if it needs to be paid, we will need to add the day to the deal.	61777376	1473558065378	1473558065467	e	69
119626	1299450	If it needs to be paid, we will need to add the day to the deal.	if it needs to be paid, we will need to add the day to the deal.	61777380	1473558065559	1473558065632	e	69
119626	1299450	If it needs to be paid, we will need to add the day to the deal.	if it needs to be paid, we will need to add the day to the deal.	61777383	1473558065744	1473558066521	BKSP	8
119626	1299450	If it needs to be paid, we will need to add the day to the deal.	if it needs to be paid, we will need to add the day to the deal.	61777386	1473558066887	1473558067006	w	87
119626	1299450	If it needs to be paid, we will need to add the day to the deal.	if it needs to be paid, we will need to add the day to the deal.	61777389	1473558066977	1473558067074	i	73
119626	1299450	If it needs to be paid, we will need to add the day to the deal.	if it needs to be paid, we will need to add the day to the deal.	61777391	1473558067144	1473558067220	l	76
119626	1299450	If it needs to be paid, we will need to add the day to the deal.	if it needs to be paid, we will need to add the day to the deal.	61777401	1473558067276	1473558067343	l	76
119626	1299450	If it needs to be paid, we will need to add the day to the deal.	if it needs to be paid, we will need to add the day to the deal.	61777405	1473558067323	1473558067462	 	32
119626	1299450	If it needs to be paid, we will need to add the day to the deal.	if it needs to be paid, we will need to add the day to the deal.	61777410	1473558067447	1473558067546	n	78
119626	1299450	If it needs to be paid, we will need to add the day to the deal.	if it needs to be paid, we will need to add the day to the deal.	61777414	1473558067518	1473558067588	e	69
119626	1299450	If it needs to be paid, we will need to add the day to the deal.	if it needs to be paid, we will need to add the day to the deal.	61777417	1473558067664	1473558067749	e	69
119626	1299450	If it needs to be paid, we will need to add the day to the deal.	if it needs to be paid, we will need to add the day to the deal.	61777432	1473558067827	1473558067931	d	68
119626	1299450	If it needs to be paid, we will need to add the day to the deal.	if it needs to be paid, we will need to add the day to the deal.	61777435	1473558067903	1473558068068	 	32
119626	1299450	If it needs to be paid, we will need to add the day to the deal.	if it needs to be paid, we will need to add the day to the deal.	61777438	1473558068019	1473558068180	t	84
119626	1299450	If it needs to be paid, we will need to add the day to the deal.	if it needs to be paid, we will need to add the day to the deal.	61777443	1473558068079	1473558068219	o	79
119626	1299450	If it needs to be paid, we will need to add the day to the deal.	if it needs to be paid, we will need to add the day to the deal.	61777445	1473558068167	1473558068314	 	32
119626	1299450	If it needs to be paid, we will need to add the day to the deal.	if it needs to be paid, we will need to add the day to the deal.	61777448	1473558068233	1473558068396	a	65
119626	1299450	If it needs to be paid, we will need to add the day to the deal.	if it needs to be paid, we will need to add the day to the deal.	61777453	1473558068347	1473558068416	d	68
119626	1299450	If it needs to be paid, we will need to add the day to the deal.	if it needs to be paid, we will need to add the day to the deal.	61777456	1473558068477	1473558068596	d	68
119626	1299450	If it needs to be paid, we will need to add the day to the deal.	if it needs to be paid, we will need to add the day to the deal.	61777460	1473558068547	1473558068714	 	32
119626	1299450	If it needs to be paid, we will need to add the day to the deal.	if it needs to be paid, we will need to add the day to the deal.	61777471	1473558068675	1473558068791	t	84
119626	1299450	If it needs to be paid, we will need to add the day to the deal.	if it needs to be paid, we will need to add the day to the deal.	61777473	1473558068734	1473558068869	h	72
119626	1299450	If it needs to be paid, we will need to add the day to the deal.	if it needs to be paid, we will need to add the day to the deal.	61777474	1473558068896	1473558069030	e	69
119626	1299450	If it needs to be paid, we will need to add the day to the deal.	if it needs to be paid, we will need to add the day to the deal.	61777476	1473558068963	1473558069142	 	32
119626	1299450	If it needs to be paid, we will need to add the day to the deal.	if it needs to be paid, we will need to add the day to the deal.	61777477	1473558069115	1473558069243	d	68
119626	1299450	If it needs to be paid, we will need to add the day to the deal.	if it needs to be paid, we will need to add the day to the deal.	61777480	1473558069179	1473558069331	a	65
119626	1299450	If it needs to be paid, we will need to add the day to the deal.	if it needs to be paid, we will need to add the day to the deal.	61777482	1473558069254	1473558069342	y	89
119626	1299450	If it needs to be paid, we will need to add the day to the deal.	if it needs to be paid, we will need to add the day to the deal.	61777488	1473558069320	1473558069473	 	32
119626	1299450	If it needs to be paid, we will need to add the day to the deal.	if it needs to be paid, we will need to add the day to the deal.	61777493	1473558069413	1473558069538	t	84
119626	1299450	If it needs to be paid, we will need to add the day to the deal.	if it needs to be paid, we will need to add the day to the deal.	61777499	1473558069478	1473558069629	o	79
119626	1299450	If it needs to be paid, we will need to add the day to the deal.	if it needs to be paid, we will need to add the day to the deal.	61777542	1473558069589	1473558069734	 	32
119626	1299450	If it needs to be paid, we will need to add the day to the deal.	if it needs to be paid, we will need to add the day to the deal.	61777545	1473558069832	1473558069934	t	84
119626	1299450	If it needs to be paid, we will need to add the day to the deal.	if it needs to be paid, we will need to add the day to the deal.	61777551	1473558069911	1473558070038	h	72
119626	1299450	If it needs to be paid, we will need to add the day to the deal.	if it needs to be paid, we will need to add the day to the deal.	61777555	1473558070015	1473558070115	e	69
119626	1299450	If it needs to be paid, we will need to add the day to the deal.	if it needs to be paid, we will need to add the day to the deal.	61777558	1473558070069	1473558070225	 	32
119626	1299450	If it needs to be paid, we will need to add the day to the deal.	if it needs to be paid, we will need to add the day to the deal.	61777561	1473558070315	1473558070414	d	68
119626	1299450	If it needs to be paid, we will need to add the day to the deal.	if it needs to be paid, we will need to add the day to the deal.	61777567	1473558070481	1473558070589	e	69
119626	1299450	If it needs to be paid, we will need to add the day to the deal.	if it needs to be paid, we will need to add the day to the deal.	61777572	1473558070531	1473558070669	a	65
119626	1299450	If it needs to be paid, we will need to add the day to the deal.	if it needs to be paid, we will need to add the day to the deal.	61777577	1473558070608	1473558070705	l	76
119626	1299464	I'll come have a beer with you guys later.	i'll come have a beer with you guys later.	61778146	1473558070767	1473558082274	.	190
119626	1299464	I'll come have a beer with you guys later.	i'll come have a beer with you guys later.	61777763	1473558073936	1473558074058	i	73
119626	1299464	I'll come have a beer with you guys later.	i'll come have a beer with you guys later.	61777767	1473558074204	1473558074360	'	222
119626	1299464	I'll come have a beer with you guys later.	i'll come have a beer with you guys later.	61777770	1473558074438	1473558074535	l	76
119626	1299464	I'll come have a beer with you guys later.	i'll come have a beer with you guys later.	61777773	1473558074597	1473558074713	l	76
119626	1299464	I'll come have a beer with you guys later.	i'll come have a beer with you guys later.	61777778	1473558074721	1473558074860	 	32
119626	1299464	I'll come have a beer with you guys later.	i'll come have a beer with you guys later.	61777818	1473558075374	1473558075511	c	67
119626	1299464	I'll come have a beer with you guys later.	i'll come have a beer with you guys later.	61777820	1473558075430	1473558075548	o	79
119626	1299464	I'll come have a beer with you guys later.	i'll come have a beer with you guys later.	61777823	1473558075618	1473558075727	m	77
119626	1299464	I'll come have a beer with you guys later.	i'll come have a beer with you guys later.	61777826	1473558075699	1473558075827	e	69
119626	1299464	I'll come have a beer with you guys later.	i'll come have a beer with you guys later.	61777878	1473558075753	1473558075855	 	32
119626	1299464	I'll come have a beer with you guys later.	i'll come have a beer with you guys later.	61777879	1473558075956	1473558076044	BKSP	8
119626	1299464	I'll come have a beer with you guys later.	i'll come have a beer with you guys later.	61777880	1473558076111	1473558076210	BKSP	8
119626	1299464	I'll come have a beer with you guys later.	i'll come have a beer with you guys later.	61777882	1473558076479	1473558076639	e	69
119626	1299464	I'll come have a beer with you guys later.	i'll come have a beer with you guys later.	61777885	1473558076558	1473558076718	 	32
119626	1299464	I'll come have a beer with you guys later.	i'll come have a beer with you guys later.	61777889	1473558076706	1473558076837	h	72
119626	1299464	I'll come have a beer with you guys later.	i'll come have a beer with you guys later.	61777892	1473558076780	1473558076919	a	65
119626	1299464	I'll come have a beer with you guys later.	i'll come have a beer with you guys later.	61777918	1473558076902	1473558077013	v	86
119626	1299464	I'll come have a beer with you guys later.	i'll come have a beer with you guys later.	61777920	1473558076970	1473558077113	e	69
119626	1299464	I'll come have a beer with you guys later.	i'll come have a beer with you guys later.	61777923	1473558077117	1473558077268	a	65
119626	1299464	I'll come have a beer with you guys later.	i'll come have a beer with you guys later.	61777926	1473558077256	1473558077362	 	32
119626	1299464	I'll come have a beer with you guys later.	i'll come have a beer with you guys later.	61777930	1473558077636	1473558077716	BKSP	8
119626	1299464	I'll come have a beer with you guys later.	i'll come have a beer with you guys later.	61777933	1473558077794	1473558077921	BKSP	8
119626	1299464	I'll come have a beer with you guys later.	i'll come have a beer with you guys later.	61777936	1473558077893	1473558078012	 	32
119626	1299464	I'll come have a beer with you guys later.	i'll come have a beer with you guys later.	61777950	1473558077980	1473558078137	a	65
119626	1299464	I'll come have a beer with you guys later.	i'll come have a beer with you guys later.	61777951	1473558078091	1473558078188	 	32
119626	1299464	I'll come have a beer with you guys later.	i'll come have a beer with you guys later.	61777952	1473558078224	1473558078377	b	66
119626	1299464	I'll come have a beer with you guys later.	i'll come have a beer with you guys later.	61777956	1473558078326	1473558078434	e	69
119626	1299464	I'll come have a beer with you guys later.	i'll come have a beer with you guys later.	61777962	1473558078504	1473558078620	e	69
119626	1299464	I'll come have a beer with you guys later.	i'll come have a beer with you guys later.	61777967	1473558078684	1473558078834	r	82
119626	1299464	I'll come have a beer with you guys later.	i'll come have a beer with you guys later.	61777990	1473558078751	1473558078922	 	32
119626	1299464	I'll come have a beer with you guys later.	i'll come have a beer with you guys later.	61777993	1473558078817	1473558078964	w	87
119626	1299464	I'll come have a beer with you guys later.	i'll come have a beer with you guys later.	61777996	1473558078927	1473558079027	i	73
119626	1299464	I'll come have a beer with you guys later.	i'll come have a beer with you guys later.	61777999	1473558079042	1473558079185	t	84
119626	1299464	I'll come have a beer with you guys later.	i'll come have a beer with you guys later.	61778001	1473558079113	1473558079219	h	72
119626	1299464	I'll come have a beer with you guys later.	i'll come have a beer with you guys later.	61778004	1473558079204	1473558079418	 	32
119626	1299464	I'll come have a beer with you guys later.	i'll come have a beer with you guys later.	61778052	1473558079311	1473558079443	y	89
119626	1299464	I'll come have a beer with you guys later.	i'll come have a beer with you guys later.	61778054	1473558079389	1473558079465	i	79
119626	1299464	I'll come have a beer with you guys later.	i'll come have a beer with you guys later.	61778058	1473558079715	1473558079815	BKSP	8
119626	1299464	I'll come have a beer with you guys later.	i'll come have a beer with you guys later.	61778060	1473558079884	1473558079963	BKSP	8
119626	1299464	I'll come have a beer with you guys later.	i'll come have a beer with you guys later.	61778062	1473558080300	1473558080405	o	79
119626	1299464	I'll come have a beer with you guys later.	i'll come have a beer with you guys later.	61778065	1473558080480	1473558080619	u	85
119626	1299464	I'll come have a beer with you guys later.	i'll come have a beer with you guys later.	61778068	1473558080562	1473558080685	 	32
119626	1299464	I'll come have a beer with you guys later.	i'll come have a beer with you guys later.	61778072	1473558080839	1473558080975	g	71
119626	1299464	I'll come have a beer with you guys later.	i'll come have a beer with you guys later.	61778091	1473558080926	1473558081058	u	85
119626	1299464	I'll come have a beer with you guys later.	i'll come have a beer with you guys later.	61778096	1473558081062	1473558081153	y	89
119626	1299464	I'll come have a beer with you guys later.	i'll come have a beer with you guys later.	61778101	1473558081231	1473558081400	s	83
119626	1299464	I'll come have a beer with you guys later.	i'll come have a beer with you guys later.	61778105	1473558081503	1473558081671	 	32
119626	1299464	I'll come have a beer with you guys later.	i'll come have a beer with you guys later.	61778109	1473558081676	1473558081796	l	76
119626	1299464	I'll come have a beer with you guys later.	i'll come have a beer with you guys later.	61778138	1473558081726	1473558081881	a	65
119626	1299464	I'll come have a beer with you guys later.	i'll come have a beer with you guys later.	61778141	1473558081806	1473558081890	t	84
119626	1299464	I'll come have a beer with you guys later.	i'll come have a beer with you guys later.	61778144	1473558081976	1473558082047	e	69
119626	1299464	I'll come have a beer with you guys later.	i'll come have a beer with you guys later.	61778148	1473558082131	1473558082316	.	82
119626	1299474	However, Jeffers is too risky to start from a Fantasy perspective.	However, Jeffers is too risky to start from a Fantasy perspective	61778258	1473558085212	1473558085571	SHIFT	16
119626	1299474	However, Jeffers is too risky to start from a Fantasy perspective.	However, Jeffers is too risky to start from a Fantasy perspective	61778256	1473558085445	1473558085555	H	72
119626	1299474	However, Jeffers is too risky to start from a Fantasy perspective.	However, Jeffers is too risky to start from a Fantasy perspective	61778260	1473558085562	1473558085707	O	79
119626	1299474	However, Jeffers is too risky to start from a Fantasy perspective.	However, Jeffers is too risky to start from a Fantasy perspective	61778263	1473558085650	1473558085842	w	87
119626	1299474	However, Jeffers is too risky to start from a Fantasy perspective.	However, Jeffers is too risky to start from a Fantasy perspective	61778265	1473558085761	1473558085887	e	69
119626	1299474	However, Jeffers is too risky to start from a Fantasy perspective.	However, Jeffers is too risky to start from a Fantasy perspective	61778267	1473558085951	1473558086071	r	82
119626	1299474	However, Jeffers is too risky to start from a Fantasy perspective.	However, Jeffers is too risky to start from a Fantasy perspective	61778284	1473558086092	1473558086259	v	86
119626	1299474	However, Jeffers is too risky to start from a Fantasy perspective.	However, Jeffers is too risky to start from a Fantasy perspective	61778283	1473558086182	1473558086242	e	69
119626	1299474	However, Jeffers is too risky to start from a Fantasy perspective.	However, Jeffers is too risky to start from a Fantasy perspective	61778285	1473558086318	1473558086476	r	82
119626	1299474	However, Jeffers is too risky to start from a Fantasy perspective.	However, Jeffers is too risky to start from a Fantasy perspective	61778286	1473558086456	1473558086598	,	188
119626	1299474	However, Jeffers is too risky to start from a Fantasy perspective.	However, Jeffers is too risky to start from a Fantasy perspective	61778288	1473558086626	1473558086777	 	32
119626	1299474	However, Jeffers is too risky to start from a Fantasy perspective.	However, Jeffers is too risky to start from a Fantasy perspective	61778330	1473558086670	1473558086917	SHIFT	16
119626	1299474	However, Jeffers is too risky to start from a Fantasy perspective.	However, Jeffers is too risky to start from a Fantasy perspective	61778332	1473558086980	1473558087063	j	74
119626	1299474	However, Jeffers is too risky to start from a Fantasy perspective.	However, Jeffers is too risky to start from a Fantasy perspective	61778334	1473558087391	1473558087570	e	69
119626	1299474	However, Jeffers is too risky to start from a Fantasy perspective.	However, Jeffers is too risky to start from a Fantasy perspective	61778336	1473558087541	1473558087695	v	86
119626	1299474	However, Jeffers is too risky to start from a Fantasy perspective.	However, Jeffers is too risky to start from a Fantasy perspective	61778340	1473558087843	1473558087942	BKSP	8
119626	1299474	However, Jeffers is too risky to start from a Fantasy perspective.	However, Jeffers is too risky to start from a Fantasy perspective	61778344	1473558088127	1473558088204	f	70
119626	1299474	However, Jeffers is too risky to start from a Fantasy perspective.	However, Jeffers is too risky to start from a Fantasy perspective	61778350	1473558088282	1473558088361	f	70
119626	1299474	However, Jeffers is too risky to start from a Fantasy perspective.	However, Jeffers is too risky to start from a Fantasy perspective	61778361	1473558088459	1473558088550	e	69
119626	1299474	However, Jeffers is too risky to start from a Fantasy perspective.	However, Jeffers is too risky to start from a Fantasy perspective	61778363	1473558088622	1473558088788	r	82
119626	1299474	However, Jeffers is too risky to start from a Fantasy perspective.	However, Jeffers is too risky to start from a Fantasy perspective	61778366	1473558088690	1473558088848	s	83
119626	1299474	However, Jeffers is too risky to start from a Fantasy perspective.	However, Jeffers is too risky to start from a Fantasy perspective	61778369	1473558088762	1473558088919	 	32
119626	1299474	However, Jeffers is too risky to start from a Fantasy perspective.	However, Jeffers is too risky to start from a Fantasy perspective	61778383	1473558088896	1473558089019	i	73
119626	1299474	However, Jeffers is too risky to start from a Fantasy perspective.	However, Jeffers is too risky to start from a Fantasy perspective	61778386	1473558088944	1473558089125	s	83
119626	1299474	However, Jeffers is too risky to start from a Fantasy perspective.	However, Jeffers is too risky to start from a Fantasy perspective	61778390	1473558089030	1473558089225	 	32
119626	1299474	However, Jeffers is too risky to start from a Fantasy perspective.	However, Jeffers is too risky to start from a Fantasy perspective	61778392	1473558089144	1473558089279	t	84
119626	1299474	However, Jeffers is too risky to start from a Fantasy perspective.	However, Jeffers is too risky to start from a Fantasy perspective	61778396	1473558089230	1473558089322	o	79
119626	1299474	However, Jeffers is too risky to start from a Fantasy perspective.	However, Jeffers is too risky to start from a Fantasy perspective	61778399	1473558089368	1473558089468	o	79
119626	1299474	However, Jeffers is too risky to start from a Fantasy perspective.	However, Jeffers is too risky to start from a Fantasy perspective	61778418	1473558089495	1473558089657	 	32
119626	1299474	However, Jeffers is too risky to start from a Fantasy perspective.	However, Jeffers is too risky to start from a Fantasy perspective	61778419	1473558089568	1473558089725	r	82
119626	1299474	However, Jeffers is too risky to start from a Fantasy perspective.	However, Jeffers is too risky to start from a Fantasy perspective	61778420	1473558089697	1473558089818	s	73
119626	1299474	However, Jeffers is too risky to start from a Fantasy perspective.	However, Jeffers is too risky to start from a Fantasy perspective	61778421	1473558089944	1473558090125	k	75
119626	1299474	However, Jeffers is too risky to start from a Fantasy perspective.	However, Jeffers is too risky to start from a Fantasy perspective	61778468	1473558090079	1473558090230	y	89
119626	1299474	However, Jeffers is too risky to start from a Fantasy perspective.	However, Jeffers is too risky to start from a Fantasy perspective	61778470	1473558090179	1473558090368	 	32
119626	1299474	However, Jeffers is too risky to start from a Fantasy perspective.	However, Jeffers is too risky to start from a Fantasy perspective	61778473	1473558090375	1473558090405	t	82
119626	1299474	However, Jeffers is too risky to start from a Fantasy perspective.	However, Jeffers is too risky to start from a Fantasy perspective	61778481	1473558090415	1473558090543	o	79
119626	1299474	However, Jeffers is too risky to start from a Fantasy perspective.	However, Jeffers is too risky to start from a Fantasy perspective	61778487	1473558090835	1473558090928	BKSP	8
119626	1299474	However, Jeffers is too risky to start from a Fantasy perspective.	However, Jeffers is too risky to start from a Fantasy perspective	61778494	1473558091001	1473558091071	BKSP	8
119626	1299474	However, Jeffers is too risky to start from a Fantasy perspective.	However, Jeffers is too risky to start from a Fantasy perspective	61778497	1473558091127	1473558091269	BKSP	8
119626	1299474	However, Jeffers is too risky to start from a Fantasy perspective.	However, Jeffers is too risky to start from a Fantasy perspective	61778541	1473558091197	1473558091337	t	84
119626	1299474	However, Jeffers is too risky to start from a Fantasy perspective.	However, Jeffers is too risky to start from a Fantasy perspective	61778543	1473558091286	1473558091497	o	32
119626	1299474	However, Jeffers is too risky to start from a Fantasy perspective.	However, Jeffers is too risky to start from a Fantasy perspective	61778545	1473558091386	1473558091599	s	83
119626	1299474	However, Jeffers is too risky to start from a Fantasy perspective.	However, Jeffers is too risky to start from a Fantasy perspective	61778549	1473558091507	1473558091611	t	84
119626	1299474	However, Jeffers is too risky to start from a Fantasy perspective.	However, Jeffers is too risky to start from a Fantasy perspective	61778551	1473558092001	1473558092084	BKSP	8
119626	1299474	However, Jeffers is too risky to start from a Fantasy perspective.	However, Jeffers is too risky to start from a Fantasy perspective	61778556	1473558092165	1473558092250	BKSP	8
119626	1299474	However, Jeffers is too risky to start from a Fantasy perspective.	However, Jeffers is too risky to start from a Fantasy perspective	61778563	1473558092317	1473558092439	BKSP	8
119626	1299474	However, Jeffers is too risky to start from a Fantasy perspective.	However, Jeffers is too risky to start from a Fantasy perspective	61778566	1473558092520	1473558092712	BKSP	8
119626	1299474	However, Jeffers is too risky to start from a Fantasy perspective.	However, Jeffers is too risky to start from a Fantasy perspective	61778571	1473558092696	1473558092834	o	79
119626	1299474	However, Jeffers is too risky to start from a Fantasy perspective.	However, Jeffers is too risky to start from a Fantasy perspective	61778573	1473558092809	1473558092961	 	32
119626	1299474	However, Jeffers is too risky to start from a Fantasy perspective.	However, Jeffers is too risky to start from a Fantasy perspective	61778575	1473558092879	1473558093072	s	83
119626	1299474	However, Jeffers is too risky to start from a Fantasy perspective.	However, Jeffers is too risky to start from a Fantasy perspective	61778577	1473558092968	1473558093081	t	84
119626	1299474	However, Jeffers is too risky to start from a Fantasy perspective.	However, Jeffers is too risky to start from a Fantasy perspective	61778580	1473558093150	1473558093322	a	65
119626	1299474	However, Jeffers is too risky to start from a Fantasy perspective.	However, Jeffers is too risky to start from a Fantasy perspective	61778612	1473558093253	1473558093370	r	82
119626	1299474	However, Jeffers is too risky to start from a Fantasy perspective.	However, Jeffers is too risky to start from a Fantasy perspective	61778613	1473558093462	1473558093589	t	84
119626	1299474	However, Jeffers is too risky to start from a Fantasy perspective.	However, Jeffers is too risky to start from a Fantasy perspective	61778616	1473558093530	1473558093700	 	32
119626	1299474	However, Jeffers is too risky to start from a Fantasy perspective.	However, Jeffers is too risky to start from a Fantasy perspective	61778619	1473558093672	1473558093763	f	70
119626	1299474	However, Jeffers is too risky to start from a Fantasy perspective.	However, Jeffers is too risky to start from a Fantasy perspective	61778620	1473558093824	1473558093971	r	82
119626	1299474	However, Jeffers is too risky to start from a Fantasy perspective.	However, Jeffers is too risky to start from a Fantasy perspective	61778648	1473558093931	1473558094033	o	79
119626	1299474	However, Jeffers is too risky to start from a Fantasy perspective.	However, Jeffers is too risky to start from a Fantasy perspective	61778649	1473558094112	1473558094261	m	77
119626	1299474	However, Jeffers is too risky to start from a Fantasy perspective.	However, Jeffers is too risky to start from a Fantasy perspective	61778650	1473558094219	1473558094324	 	32
119626	1299474	However, Jeffers is too risky to start from a Fantasy perspective.	However, Jeffers is too risky to start from a Fantasy perspective	61778651	1473558094284	1473558094438	a	65
119626	1299474	However, Jeffers is too risky to start from a Fantasy perspective.	However, Jeffers is too risky to start from a Fantasy perspective	61778652	1473558094404	1473558094543	 	32
119626	1299474	However, Jeffers is too risky to start from a Fantasy perspective.	However, Jeffers is too risky to start from a Fantasy perspective	61778672	1473558094482	1473558094628	f	70
119626	1299474	However, Jeffers is too risky to start from a Fantasy perspective.	However, Jeffers is too risky to start from a Fantasy perspective	61778674	1473558094757	1473558094848	BKSP	8
119626	1299474	However, Jeffers is too risky to start from a Fantasy perspective.	However, Jeffers is too risky to start from a Fantasy perspective	61778675	1473558094796	1473558095028	SHIFT	16
119626	1299474	However, Jeffers is too risky to start from a Fantasy perspective.	However, Jeffers is too risky to start from a Fantasy perspective	61778676	1473558094953	1473558095101	F	70
119626	1299474	However, Jeffers is too risky to start from a Fantasy perspective.	However, Jeffers is too risky to start from a Fantasy perspective	61778677	1473558095050	1473558095141	a	65
119626	1299474	However, Jeffers is too risky to start from a Fantasy perspective.	However, Jeffers is too risky to start from a Fantasy perspective	61778679	1473558095163	1473558095313	n	78
119626	1299474	However, Jeffers is too risky to start from a Fantasy perspective.	However, Jeffers is too risky to start from a Fantasy perspective	61778681	1473558095341	1473558095480	t	84
119626	1299474	However, Jeffers is too risky to start from a Fantasy perspective.	However, Jeffers is too risky to start from a Fantasy perspective	61778710	1473558095454	1473558095621	a	65
119626	1299474	However, Jeffers is too risky to start from a Fantasy perspective.	However, Jeffers is too risky to start from a Fantasy perspective	61778711	1473558095554	1473558095729	s	83
119626	1299474	However, Jeffers is too risky to start from a Fantasy perspective.	However, Jeffers is too risky to start from a Fantasy perspective	61778713	1473558095671	1473558095788	y	89
119626	1299474	However, Jeffers is too risky to start from a Fantasy perspective.	However, Jeffers is too risky to start from a Fantasy perspective	61778715	1473558095748	1473558095911	 	32
119626	1299474	However, Jeffers is too risky to start from a Fantasy perspective.	However, Jeffers is too risky to start from a Fantasy perspective	61778717	1473558095839	1473558095993	SHIFT	16
119626	1299474	However, Jeffers is too risky to start from a Fantasy perspective.	However, Jeffers is too risky to start from a Fantasy perspective	61778719	1473558096216	1473558096353	p	80
119626	1299474	However, Jeffers is too risky to start from a Fantasy perspective.	However, Jeffers is too risky to start from a Fantasy perspective	61778767	1473558096302	1473558096376	r	82
119626	1299474	However, Jeffers is too risky to start from a Fantasy perspective.	However, Jeffers is too risky to start from a Fantasy perspective	61778770	1473558096457	1473558096614	e	69
119626	1299474	However, Jeffers is too risky to start from a Fantasy perspective.	However, Jeffers is too risky to start from a Fantasy perspective	61778772	1473558096556	1473558096676	s	83
119626	1299474	However, Jeffers is too risky to start from a Fantasy perspective.	However, Jeffers is too risky to start from a Fantasy perspective	61778774	1473558096743	1473558096848	BKSP	8
119626	1299474	However, Jeffers is too risky to start from a Fantasy perspective.	However, Jeffers is too risky to start from a Fantasy perspective	61778776	1473558096909	1473558096974	BKSP	8
119626	1299474	However, Jeffers is too risky to start from a Fantasy perspective.	However, Jeffers is too risky to start from a Fantasy perspective	61778777	1473558097047	1473558097188	BKSP	8
119626	1299474	However, Jeffers is too risky to start from a Fantasy perspective.	However, Jeffers is too risky to start from a Fantasy perspective	61778778	1473558097148	1473558097248	e	69
119626	1299474	However, Jeffers is too risky to start from a Fantasy perspective.	However, Jeffers is too risky to start from a Fantasy perspective	61778779	1473558097309	1473558097475	r	82
119626	1299474	However, Jeffers is too risky to start from a Fantasy perspective.	However, Jeffers is too risky to start from a Fantasy perspective	61778799	1473558097376	1473558097506	s	83
119626	1299474	However, Jeffers is too risky to start from a Fantasy perspective.	However, Jeffers is too risky to start from a Fantasy perspective	61778800	1473558097579	1473558097732	p	80
119626	1299474	However, Jeffers is too risky to start from a Fantasy perspective.	However, Jeffers is too risky to start from a Fantasy perspective	61778801	1473558097683	1473558097797	e	69
119626	1299474	However, Jeffers is too risky to start from a Fantasy perspective.	However, Jeffers is too risky to start from a Fantasy perspective	61778802	1473558098148	1473558098270	c	67
119626	1299474	However, Jeffers is too risky to start from a Fantasy perspective.	However, Jeffers is too risky to start from a Fantasy perspective	61778804	1473558098370	1473558098498	t	84
119626	1299474	However, Jeffers is too risky to start from a Fantasy perspective.	However, Jeffers is too risky to start from a Fantasy perspective	61779019	1473558098441	1473558098558	i	73
119626	1299474	However, Jeffers is too risky to start from a Fantasy perspective.	However, Jeffers is too risky to start from a Fantasy perspective	61779020	1473558098596	1473558098736	v	86
119626	1299474	However, Jeffers is too risky to start from a Fantasy perspective.	However, Jeffers is too risky to start from a Fantasy perspective	61779021	1473558098667	1473558098775	e	69
119626	1299474	However, Jeffers is too risky to start from a Fantasy perspective.	However, Jeffers is too risky to start from a Fantasy perspective	61779022	1473558100885	1473558100996	BKSP	8
119626	1299474	However, Jeffers is too risky to start from a Fantasy perspective.	However, Jeffers is too risky to start from a Fantasy perspective	61779023	1473558100941	1473558101050	w	87
119626	1299474	However, Jeffers is too risky to start from a Fantasy perspective.	However, Jeffers is too risky to start from a Fantasy perspective	61779024	1473558101832	1473558101991	BKSP	8
119626	1299474	However, Jeffers is too risky to start from a Fantasy perspective.	However, Jeffers is too risky to start from a Fantasy perspective	61779026	1473558101951	1473558102087	o	79
119626	1299474	However, Jeffers is too risky to start from a Fantasy perspective.	However, Jeffers is too risky to start from a Fantasy perspective	61779031	1473558103769	1473558103908	BKSP	8
119626	1299474	However, Jeffers is too risky to start from a Fantasy perspective.	However, Jeffers is too risky to start from a Fantasy perspective	61779035	1473558103882	1473558104271	SHIFT	16
119626	1299474	However, Jeffers is too risky to start from a Fantasy perspective.	However, Jeffers is too risky to start from a Fantasy perspective	61779237	1473558104098	1473558104297	J	74
119626	1299474	However, Jeffers is too risky to start from a Fantasy perspective.	However, Jeffers is too risky to start from a Fantasy perspective	61779239	1473558108750	1473558108913	BKSP	8
119626	1299498	Nothing new from Mom.	Nothin new from Mom.	61779403	1473558111226	1473558112288	SHIFT	16
119626	1299498	Nothing new from Mom.	Nothin new from Mom.	61779402	1473558112182	1473558112279	N	78
119626	1299498	Nothing new from Mom.	Nothin new from Mom.	61779404	1473558112374	1473558112477	o	79
119626	1299498	Nothing new from Mom.	Nothin new from Mom.	61779405	1473558112467	1473558112620	t	84
119626	1299498	Nothing new from Mom.	Nothin new from Mom.	61779407	1473558112580	1473558112657	h	72
119626	1299498	Nothing new from Mom.	Nothin new from Mom.	61779409	1473558112732	1473558112817	i	73
119626	1299498	Nothing new from Mom.	Nothin new from Mom.	61779425	1473558112892	1473558112991	n	78
119626	1299498	Nothing new from Mom.	Nothin new from Mom.	61779429	1473558112963	1473558113150	 	32
119626	1299498	Nothing new from Mom.	Nothin new from Mom.	61779432	1473558113079	1473558113200	n	78
119626	1299498	Nothing new from Mom.	Nothin new from Mom.	61779435	1473558113136	1473558113311	e	69
119626	1299498	Nothing new from Mom.	Nothin new from Mom.	61779463	1473558113204	1473558113378	w	87
119626	1299498	Nothing new from Mom.	Nothin new from Mom.	61779464	1473558113285	1473558113457	 	32
119626	1299498	Nothing new from Mom.	Nothin new from Mom.	61779465	1473558113403	1473558113505	f	70
119626	1299498	Nothing new from Mom.	Nothin new from Mom.	61779467	1473558113488	1473558113562	o	79
119626	1299498	Nothing new from Mom.	Nothin new from Mom.	61779470	1473558113575	1473558113691	r	82
119626	1299498	Nothing new from Mom.	Nothin new from Mom.	61779473	1473558113862	1473558113973	BKSP	8
119626	1299498	Nothing new from Mom.	Nothin new from Mom.	61779476	1473558114042	1473558114164	BKSP	8
119626	1299498	Nothing new from Mom.	Nothin new from Mom.	61779523	1473558114090	1473558114235	r	82
119626	1299498	Nothing new from Mom.	Nothin new from Mom.	61779522	1473558114138	1473558114210	o	79
119626	1299498	Nothing new from Mom.	Nothin new from Mom.	61779524	1473558114260	1473558114366	m	32
119626	1299498	Nothing new from Mom.	Nothin new from Mom.	61779526	1473558114404	1473558114515	 	32
119626	1299498	Nothing new from Mom.	Nothin new from Mom.	61779533	1473558114489	1473558114948	SHIFT	16
119626	1299498	Nothing new from Mom.	Nothin new from Mom.	61779528	1473558114562	1473558114666	M	77
119626	1299498	Nothing new from Mom.	Nothin new from Mom.	61779531	1473558114805	1473558114900	BKSP	8
119626	1299498	Nothing new from Mom.	Nothin new from Mom.	61779535	1473558114967	1473558115041	BKSP	8
119626	1299498	Nothing new from Mom.	Nothin new from Mom.	61779536	1473558115105	1473558115184	BKSP	8
119626	1299498	Nothing new from Mom.	Nothin new from Mom.	61779538	1473558115223	1473558115345	BKSP	8
119626	1299498	Nothing new from Mom.	Nothin new from Mom.	61779539	1473558115662	1473558115794	m	77
119626	1299498	Nothing new from Mom.	Nothin new from Mom.	61779568	1473558115781	1473558115923	 	32
119626	1299498	Nothing new from Mom.	Nothin new from Mom.	61779575	1473558115825	1473558116012	SHIFT	16
119626	1299498	Nothing new from Mom.	Nothin new from Mom.	61779573	1473558115891	1473558115986	M	77
119626	1299498	Nothing new from Mom.	Nothin new from Mom.	61779578	1473558116064	1473558116152	o	79
119626	1299498	Nothing new from Mom.	Nothin new from Mom.	61779579	1473558116253	1473558116381	m	77
119626	1299507	See client Help for more information.	See client Help for more information.	61779718	1473558119401	1473558119702	SHIFT	16
119626	1299507	See client Help for more information.	See client Help for more information.	61779723	1473558119580	1473558119779	S	83
119626	1299507	See client Help for more information.	See client Help for more information.	61779726	1473558119715	1473558119867	e	69
119626	1299507	See client Help for more information.	See client Help for more information.	61779728	1473558119959	1473558120155	e	69
119626	1299507	See client Help for more information.	See client Help for more information.	61779735	1473558120278	1473558120430	 	32
119626	1299507	See client Help for more information.	See client Help for more information.	61779738	1473558120328	1473558120506	SHIFT	16
119626	1299507	See client Help for more information.	See client Help for more information.	61779771	1473558120440	1473558120577	C	67
119626	1299507	See client Help for more information.	See client Help for more information.	61779776	1473558120537	1473558120605	l	76
119626	1299507	See client Help for more information.	See client Help for more information.	61779780	1473558120700	1473558120786	i	73
119626	1299507	See client Help for more information.	See client Help for more information.	61779784	1473558121226	1473558121305	BKSP	8
119626	1299507	See client Help for more information.	See client Help for more information.	61779790	1473558121479	1473558121587	BKSP	8
119626	1299507	See client Help for more information.	See client Help for more information.	61779797	1473558121668	1473558121799	BKSP	8
119626	1299507	See client Help for more information.	See client Help for more information.	61779803	1473558121781	1473558121920	c	67
119626	1299507	See client Help for more information.	See client Help for more information.	61779807	1473558121860	1473558121943	l	76
119626	1299507	See client Help for more information.	See client Help for more information.	61779811	1473558122004	1473558122092	i	73
119626	1299507	See client Help for more information.	See client Help for more information.	61779822	1473558122116	1473558122226	e	69
119626	1299507	See client Help for more information.	See client Help for more information.	61779824	1473558122201	1473558122319	n	78
119626	1299507	See client Help for more information.	See client Help for more information.	61779826	1473558122302	1473558122451	t	84
119626	1299507	See client Help for more information.	See client Help for more information.	61779829	1473558122350	1473558122508	 	32
119626	1299507	See client Help for more information.	See client Help for more information.	61779832	1473558122521	1473558122746	SHIFT	16
119626	1299507	See client Help for more information.	See client Help for more information.	61779845	1473558122651	1473558122754	H	72
119626	1299507	See client Help for more information.	See client Help for more information.	61779846	1473558122787	1473558122912	e	69
119626	1299507	See client Help for more information.	See client Help for more information.	61779848	1473558122889	1473558122994	l	76
119626	1299507	See client Help for more information.	See client Help for more information.	61779849	1473558123061	1473558123197	p	80
119626	1299507	See client Help for more information.	See client Help for more information.	61779850	1473558123168	1473558123313	 	32
119626	1299507	See client Help for more information.	See client Help for more information.	61779870	1473558123276	1473558123418	f	70
119626	1299507	See client Help for more information.	See client Help for more information.	61779876	1473558123564	1473558123648	BKSP	8
119626	1299507	See client Help for more information.	See client Help for more information.	61779881	1473558123842	1473558123929	f	70
119626	1299507	See client Help for more information.	See client Help for more information.	61779887	1473558123918	1473558124036	o	79
119626	1299507	See client Help for more information.	See client Help for more information.	61779894	1473558124014	1473558124159	r	82
119626	1299507	See client Help for more information.	See client Help for more information.	61779907	1473558124067	1473558124213	 	32
119626	1299507	See client Help for more information.	See client Help for more information.	61779910	1473558124141	1473558124222	m	77
119626	1299507	See client Help for more information.	See client Help for more information.	61779913	1473558124297	1473558124402	o	79
119626	1299507	See client Help for more information.	See client Help for more information.	61779915	1473558124341	1473558124427	r	82
119626	1299507	See client Help for more information.	See client Help for more information.	61779919	1473558124508	1473558124648	e	69
119626	1299507	See client Help for more information.	See client Help for more information.	61779922	1473558124575	1473558124715	 	32
119626	1299507	See client Help for more information.	See client Help for more information.	61779929	1473558124667	1473558124741	i	73
119626	1299507	See client Help for more information.	See client Help for more information.	61779931	1473558124833	1473558124894	n	78
119626	1299507	See client Help for more information.	See client Help for more information.	61779935	1473558124855	1473558124989	f	70
119626	1299507	See client Help for more information.	See client Help for more information.	61779943	1473558125005	1473558125131	o	79
119626	1299507	See client Help for more information.	See client Help for more information.	61779947	1473558125109	1473558125233	r	82
119626	1299507	See client Help for more information.	See client Help for more information.	61779984	1473558125216	1473558125353	m	77
119626	1299507	See client Help for more information.	See client Help for more information.	61779989	1473558125324	1473558125453	a	65
119626	1299507	See client Help for more information.	See client Help for more information.	61779992	1473558125406	1473558125529	t	84
119626	1299507	See client Help for more information.	See client Help for more information.	61779995	1473558125474	1473558125566	i	73
119626	1299507	See client Help for more information.	See client Help for more information.	61779998	1473558125619	1473558125704	o	79
119626	1299507	See client Help for more information.	See client Help for more information.	61780001	1473558125799	1473558125912	n	78
119626	1299512	Lynn checked with Fran and she told her coordinator.	Lynn checked with Fran and she told her coordinator.	61780185	1473558128613	1473558129964	SHIFT	16
119626	1299512	Lynn checked with Fran and she told her coordinator.	Lynn checked with Fran and she told her coordinator.	61780186	1473558130064	1473558130229	l	76
119626	1299512	Lynn checked with Fran and she told her coordinator.	Lynn checked with Fran and she told her coordinator.	61780192	1473558130352	1473558130581	SHIFT	16
119626	1299512	Lynn checked with Fran and she told her coordinator.	Lynn checked with Fran and she told her coordinator.	61780189	1473558130385	1473558130546	BKSP	8
119626	1299512	Lynn checked with Fran and she told her coordinator.	Lynn checked with Fran and she told her coordinator.	61780195	1473558130497	1473558130644	L	76
119626	1299512	Lynn checked with Fran and she told her coordinator.	Lynn checked with Fran and she told her coordinator.	61780197	1473558130649	1473558130725	y	89
119626	1299512	Lynn checked with Fran and she told her coordinator.	Lynn checked with Fran and she told her coordinator.	61780199	1473558130840	1473558130933	n	78
119626	1299512	Lynn checked with Fran and she told her coordinator.	Lynn checked with Fran and she told her coordinator.	61780200	1473558130991	1473558131120	n	78
119626	1299512	Lynn checked with Fran and she told her coordinator.	Lynn checked with Fran and she told her coordinator.	61780217	1473558131125	1473558131278	 	32
119626	1299512	Lynn checked with Fran and she told her coordinator.	Lynn checked with Fran and she told her coordinator.	61780220	1473558131311	1473558131438	c	67
119626	1299512	Lynn checked with Fran and she told her coordinator.	Lynn checked with Fran and she told her coordinator.	61780222	1473558131387	1473558131509	h	72
119626	1299512	Lynn checked with Fran and she told her coordinator.	Lynn checked with Fran and she told her coordinator.	61780224	1473558131523	1473558131605	e	69
119626	1299512	Lynn checked with Fran and she told her coordinator.	Lynn checked with Fran and she told her coordinator.	61780225	1473558131714	1473558131784	c	67
119626	1299512	Lynn checked with Fran and she told her coordinator.	Lynn checked with Fran and she told her coordinator.	61780229	1473558131767	1473558131914	k	75
119626	1299512	Lynn checked with Fran and she told her coordinator.	Lynn checked with Fran and she told her coordinator.	61780231	1473558131883	1473558131965	e	69
119626	1299512	Lynn checked with Fran and she told her coordinator.	Lynn checked with Fran and she told her coordinator.	61780235	1473558132074	1473558132130	 	68
119626	1299512	Lynn checked with Fran and she told her coordinator.	Lynn checked with Fran and she told her coordinator.	61780237	1473558132204	1473558132338	w	87
119626	1299512	Lynn checked with Fran and she told her coordinator.	Lynn checked with Fran and she told her coordinator.	61780274	1473558132307	1473558132409	i	73
119626	1299512	Lynn checked with Fran and she told her coordinator.	Lynn checked with Fran and she told her coordinator.	61780276	1473558132374	1473558132505	t	84
119626	1299512	Lynn checked with Fran and she told her coordinator.	Lynn checked with Fran and she told her coordinator.	61780278	1473558132510	1473558132644	h	72
119626	1299512	Lynn checked with Fran and she told her coordinator.	Lynn checked with Fran and she told her coordinator.	61780280	1473558132552	1473558132735	 	32
119626	1299512	Lynn checked with Fran and she told her coordinator.	Lynn checked with Fran and she told her coordinator.	61780284	1473558132881	1473558133122	SHIFT	16
119626	1299512	Lynn checked with Fran and she told her coordinator.	Lynn checked with Fran and she told her coordinator.	61780282	1473558132996	1473558133094	F	70
119626	1299512	Lynn checked with Fran and she told her coordinator.	Lynn checked with Fran and she told her coordinator.	61780287	1473558133172	1473558133301	r	82
119626	1299512	Lynn checked with Fran and she told her coordinator.	Lynn checked with Fran and she told her coordinator.	61780322	1473558133231	1473558133394	a	65
119626	1299512	Lynn checked with Fran and she told her coordinator.	Lynn checked with Fran and she told her coordinator.	61780325	1473558133351	1473558133474	n	78
119626	1299512	Lynn checked with Fran and she told her coordinator.	Lynn checked with Fran and she told her coordinator.	61780329	1473558133422	1473558133586	 	32
119626	1299512	Lynn checked with Fran and she told her coordinator.	Lynn checked with Fran and she told her coordinator.	61780336	1473558133478	1473558133757	SHIFT	16
119626	1299512	Lynn checked with Fran and she told her coordinator.	Lynn checked with Fran and she told her coordinator.	61780333	1473558133577	1473558133680	S	83
119626	1299512	Lynn checked with Fran and she told her coordinator.	Lynn checked with Fran and she told her coordinator.	61780342	1473558133905	1473558133945	BKSP	8
119626	1299512	Lynn checked with Fran and she told her coordinator.	Lynn checked with Fran and she told her coordinator.	61780348	1473558133953	1473558134046	a	65
119626	1299512	Lynn checked with Fran and she told her coordinator.	Lynn checked with Fran and she told her coordinator.	61780354	1473558134074	1473558134191	n	78
119626	1299512	Lynn checked with Fran and she told her coordinator.	Lynn checked with Fran and she told her coordinator.	61780371	1473558134358	1473558134527	d	68
119626	1299512	Lynn checked with Fran and she told her coordinator.	Lynn checked with Fran and she told her coordinator.	61780374	1473558134420	1473558134615	 	32
119626	1299512	Lynn checked with Fran and she told her coordinator.	Lynn checked with Fran and she told her coordinator.	61780375	1473558134577	1473558134698	s	83
119626	1299512	Lynn checked with Fran and she told her coordinator.	Lynn checked with Fran and she told her coordinator.	61780378	1473558134711	1473558134844	h	72
119626	1299512	Lynn checked with Fran and she told her coordinator.	Lynn checked with Fran and she told her coordinator.	61780396	1473558134801	1473558134952	e	69
119626	1299512	Lynn checked with Fran and she told her coordinator.	Lynn checked with Fran and she told her coordinator.	61780398	1473558134880	1473558135048	 	32
119626	1299512	Lynn checked with Fran and she told her coordinator.	Lynn checked with Fran and she told her coordinator.	61780399	1473558135017	1473558135116	t	84
119626	1299512	Lynn checked with Fran and she told her coordinator.	Lynn checked with Fran and she told her coordinator.	61780401	1473558135079	1473558135161	o	79
119626	1299512	Lynn checked with Fran and she told her coordinator.	Lynn checked with Fran and she told her coordinator.	61780406	1473558135223	1473558135350	l	76
119626	1299512	Lynn checked with Fran and she told her coordinator.	Lynn checked with Fran and she told her coordinator.	61780482	1473558135319	1473558135473	d	68
119626	1299512	Lynn checked with Fran and she told her coordinator.	Lynn checked with Fran and she told her coordinator.	61780485	1473558135395	1473558135546	 	32
119626	1299512	Lynn checked with Fran and she told her coordinator.	Lynn checked with Fran and she told her coordinator.	61780488	1473558135571	1473558135718	j	72
119626	1299512	Lynn checked with Fran and she told her coordinator.	Lynn checked with Fran and she told her coordinator.	61780490	1473558135624	1473558135737	e	69
119626	1299512	Lynn checked with Fran and she told her coordinator.	Lynn checked with Fran and she told her coordinator.	61780494	1473558135897	1473558135996	BKSP	8
119626	1299512	Lynn checked with Fran and she told her coordinator.	Lynn checked with Fran and she told her coordinator.	61780496	1473558136066	1473558136139	BKSP	8
119626	1299512	Lynn checked with Fran and she told her coordinator.	Lynn checked with Fran and she told her coordinator.	61780498	1473558136209	1473558136286	BKSP	8
119626	1299512	Lynn checked with Fran and she told her coordinator.	Lynn checked with Fran and she told her coordinator.	61780500	1473558136617	1473558136756	h	72
119626	1299512	Lynn checked with Fran and she told her coordinator.	Lynn checked with Fran and she told her coordinator.	61780519	1473558136699	1473558136784	e	69
119626	1299512	Lynn checked with Fran and she told her coordinator.	Lynn checked with Fran and she told her coordinator.	61780520	1473558136848	1473558136979	r	82
119626	1299512	Lynn checked with Fran and she told her coordinator.	Lynn checked with Fran and she told her coordinator.	61780521	1473558136930	1473558137070	 	32
119626	1299512	Lynn checked with Fran and she told her coordinator.	Lynn checked with Fran and she told her coordinator.	61780522	1473558137167	1473558137258	c	67
119626	1299512	Lynn checked with Fran and she told her coordinator.	Lynn checked with Fran and she told her coordinator.	61780523	1473558137341	1473558137441	o	79
119626	1299512	Lynn checked with Fran and she told her coordinator.	Lynn checked with Fran and she told her coordinator.	61780524	1473558137485	1473558137581	o	79
119626	1299512	Lynn checked with Fran and she told her coordinator.	Lynn checked with Fran and she told her coordinator.	61780534	1473558137615	1473558137705	r	82
119626	1299512	Lynn checked with Fran and she told her coordinator.	Lynn checked with Fran and she told her coordinator.	61780536	1473558137769	1473558137911	d	68
119626	1299512	Lynn checked with Fran and she told her coordinator.	Lynn checked with Fran and she told her coordinator.	61780539	1473558137825	1473558137934	i	73
119626	1299512	Lynn checked with Fran and she told her coordinator.	Lynn checked with Fran and she told her coordinator.	61780545	1473558137976	1473558138029	n	65
119626	1299512	Lynn checked with Fran and she told her coordinator.	Lynn checked with Fran and she told her coordinator.	61780586	1473558138386	1473558138460	BKSP	8
119626	1299512	Lynn checked with Fran and she told her coordinator.	Lynn checked with Fran and she told her coordinator.	61780590	1473558138524	1473558138580	BKSP	8
119626	1299512	Lynn checked with Fran and she told her coordinator.	Lynn checked with Fran and she told her coordinator.	61780594	1473558138653	1473558138758	n	78
119626	1299512	Lynn checked with Fran and she told her coordinator.	Lynn checked with Fran and she told her coordinator.	61780597	1473558138697	1473558138830	a	65
119626	1299512	Lynn checked with Fran and she told her coordinator.	Lynn checked with Fran and she told her coordinator.	61780600	1473558138834	1473558138958	t	84
119626	1299512	Lynn checked with Fran and she told her coordinator.	Lynn checked with Fran and she told her coordinator.	61780608	1473558138944	1473558139077	o	79
119626	1299512	Lynn checked with Fran and she told her coordinator.	Lynn checked with Fran and she told her coordinator.	61780602	1473558139057	1473558139191	r	82
119626	1299525	Brian Mitchell will likely serve as Duce Staley's backup.	Brian Mitchell will likely serve as Duce Staley's backup	61780764	1473558141629	1473558142154	SHIFT	16
119626	1299525	Brian Mitchell will likely serve as Duce Staley's backup.	Brian Mitchell will likely serve as Duce Staley's backup	61780768	1473558142044	1473558142200	B	66
119626	1299525	Brian Mitchell will likely serve as Duce Staley's backup.	Brian Mitchell will likely serve as Duce Staley's backup	61780773	1473558142204	1473558142347	r	82
119626	1299525	Brian Mitchell will likely serve as Duce Staley's backup.	Brian Mitchell will likely serve as Duce Staley's backup	61780778	1473558142298	1473558142409	i	73
119626	1299525	Brian Mitchell will likely serve as Duce Staley's backup.	Brian Mitchell will likely serve as Duce Staley's backup	61780781	1473558142357	1473558142514	a	65
119626	1299525	Brian Mitchell will likely serve as Duce Staley's backup.	Brian Mitchell will likely serve as Duce Staley's backup	61780793	1473558142480	1473558142596	n	78
119626	1299525	Brian Mitchell will likely serve as Duce Staley's backup.	Brian Mitchell will likely serve as Duce Staley's backup	61780795	1473558142539	1473558142706	 	32
119626	1299525	Brian Mitchell will likely serve as Duce Staley's backup.	Brian Mitchell will likely serve as Duce Staley's backup	61780797	1473558142587	1473558142834	SHIFT	16
119626	1299525	Brian Mitchell will likely serve as Duce Staley's backup.	Brian Mitchell will likely serve as Duce Staley's backup	61780799	1473558142731	1473558142843	M	77
119626	1299525	Brian Mitchell will likely serve as Duce Staley's backup.	Brian Mitchell will likely serve as Duce Staley's backup	61780801	1473558142904	1473558143012	i	73
119626	1299525	Brian Mitchell will likely serve as Duce Staley's backup.	Brian Mitchell will likely serve as Duce Staley's backup	61780803	1473558142980	1473558143068	t	84
119626	1299525	Brian Mitchell will likely serve as Duce Staley's backup.	Brian Mitchell will likely serve as Duce Staley's backup	61780805	1473558143163	1473558143259	c	67
119626	1299525	Brian Mitchell will likely serve as Duce Staley's backup.	Brian Mitchell will likely serve as Duce Staley's backup	61780815	1473558143207	1473558143341	h	72
119626	1299525	Brian Mitchell will likely serve as Duce Staley's backup.	Brian Mitchell will likely serve as Duce Staley's backup	61780817	1473558143372	1473558143490	e	69
119626	1299525	Brian Mitchell will likely serve as Duce Staley's backup.	Brian Mitchell will likely serve as Duce Staley's backup	61780821	1473558143465	1473558143567	l	76
119626	1299525	Brian Mitchell will likely serve as Duce Staley's backup.	Brian Mitchell will likely serve as Duce Staley's backup	61780824	1473558143617	1473558143718	l	76
119626	1299525	Brian Mitchell will likely serve as Duce Staley's backup.	Brian Mitchell will likely serve as Duce Staley's backup	61780827	1473558143687	1473558143842	 	32
119626	1299525	Brian Mitchell will likely serve as Duce Staley's backup.	Brian Mitchell will likely serve as Duce Staley's backup	61780843	1473558143758	1473558143884	w	87
119626	1299525	Brian Mitchell will likely serve as Duce Staley's backup.	Brian Mitchell will likely serve as Duce Staley's backup	61780847	1473558143847	1473558143941	i	73
119626	1299525	Brian Mitchell will likely serve as Duce Staley's backup.	Brian Mitchell will likely serve as Duce Staley's backup	61780850	1473558144019	1473558144107	l	76
119626	1299525	Brian Mitchell will likely serve as Duce Staley's backup.	Brian Mitchell will likely serve as Duce Staley's backup	61780855	1473558144168	1473558144261	l	76
119626	1299525	Brian Mitchell will likely serve as Duce Staley's backup.	Brian Mitchell will likely serve as Duce Staley's backup	61780864	1473558144280	1473558144400	 	32
119626	1299525	Brian Mitchell will likely serve as Duce Staley's backup.	Brian Mitchell will likely serve as Duce Staley's backup	61780888	1473558144331	1473558144439	l	76
119626	1299525	Brian Mitchell will likely serve as Duce Staley's backup.	Brian Mitchell will likely serve as Duce Staley's backup	61780890	1473558144541	1473558144612	i	73
119626	1299525	Brian Mitchell will likely serve as Duce Staley's backup.	Brian Mitchell will likely serve as Duce Staley's backup	61780892	1473558144692	1473558144820	k	75
119626	1299525	Brian Mitchell will likely serve as Duce Staley's backup.	Brian Mitchell will likely serve as Duce Staley's backup	61780894	1473558144828	1473558144959	e	69
119626	1299525	Brian Mitchell will likely serve as Duce Staley's backup.	Brian Mitchell will likely serve as Duce Staley's backup	61780896	1473558144963	1473558145125	l	76
119626	1299525	Brian Mitchell will likely serve as Duce Staley's backup.	Brian Mitchell will likely serve as Duce Staley's backup	61780897	1473558145141	1473558145289	y	89
119626	1299525	Brian Mitchell will likely serve as Duce Staley's backup.	Brian Mitchell will likely serve as Duce Staley's backup	61780920	1473558145485	1473558145670	 	32
119626	1299525	Brian Mitchell will likely serve as Duce Staley's backup.	Brian Mitchell will likely serve as Duce Staley's backup	61780921	1473558145641	1473558145779	s	83
119626	1299525	Brian Mitchell will likely serve as Duce Staley's backup.	Brian Mitchell will likely serve as Duce Staley's backup	61780924	1473558145709	1473558145821	e	69
119626	1299525	Brian Mitchell will likely serve as Duce Staley's backup.	Brian Mitchell will likely serve as Duce Staley's backup	61780927	1473558145885	1473558146001	r	82
119626	1299525	Brian Mitchell will likely serve as Duce Staley's backup.	Brian Mitchell will likely serve as Duce Staley's backup	61780930	1473558146017	1473558146157	v	86
119626	1299525	Brian Mitchell will likely serve as Duce Staley's backup.	Brian Mitchell will likely serve as Duce Staley's backup	61780964	1473558146099	1473558146279	e	69
119626	1299525	Brian Mitchell will likely serve as Duce Staley's backup.	Brian Mitchell will likely serve as Duce Staley's backup	61780966	1473558146388	1473558146533	 	32
119626	1299525	Brian Mitchell will likely serve as Duce Staley's backup.	Brian Mitchell will likely serve as Duce Staley's backup	61780968	1473558146518	1473558146663	a	65
119626	1299525	Brian Mitchell will likely serve as Duce Staley's backup.	Brian Mitchell will likely serve as Duce Staley's backup	61780971	1473558146652	1473558146783	s	83
119626	1299525	Brian Mitchell will likely serve as Duce Staley's backup.	Brian Mitchell will likely serve as Duce Staley's backup	61780973	1473558146716	1473558146854	 	32
119626	1299525	Brian Mitchell will likely serve as Duce Staley's backup.	Brian Mitchell will likely serve as Duce Staley's backup	61780975	1473558146949	1473558147159	SHIFT	16
119626	1299525	Brian Mitchell will likely serve as Duce Staley's backup.	Brian Mitchell will likely serve as Duce Staley's backup	61781012	1473558147110	1473558147239	C	67
119626	1299525	Brian Mitchell will likely serve as Duce Staley's backup.	Brian Mitchell will likely serve as Duce Staley's backup	61781013	1473558147272	1473558147371	u	85
119626	1299525	Brian Mitchell will likely serve as Duce Staley's backup.	Brian Mitchell will likely serve as Duce Staley's backup	61781015	1473558147404	1473558147450	d	68
119626	1299525	Brian Mitchell will likely serve as Duce Staley's backup.	Brian Mitchell will likely serve as Duce Staley's backup	61781019	1473558147530	1473558147615	BKSP	8
119626	1299525	Brian Mitchell will likely serve as Duce Staley's backup.	Brian Mitchell will likely serve as Duce Staley's backup	61781021	1473558147690	1473558147753	BKSP	8
119626	1299525	Brian Mitchell will likely serve as Duce Staley's backup.	Brian Mitchell will likely serve as Duce Staley's backup	61781025	1473558147805	1473558147951	SHIFT	16
119626	1299525	Brian Mitchell will likely serve as Duce Staley's backup.	Brian Mitchell will likely serve as Duce Staley's backup	61781023	1473558147818	1473558147928	BKSP	8
119626	1299525	Brian Mitchell will likely serve as Duce Staley's backup.	Brian Mitchell will likely serve as Duce Staley's backup	61781026	1473558147873	1473558147971	D	68
119626	1299525	Brian Mitchell will likely serve as Duce Staley's backup.	Brian Mitchell will likely serve as Duce Staley's backup	61781028	1473558147992	1473558148088	u	85
119626	1299525	Brian Mitchell will likely serve as Duce Staley's backup.	Brian Mitchell will likely serve as Duce Staley's backup	61781043	1473558148065	1473558148148	c	67
119626	1299525	Brian Mitchell will likely serve as Duce Staley's backup.	Brian Mitchell will likely serve as Duce Staley's backup	61781049	1473558148240	1473558148371	e	69
119626	1299525	Brian Mitchell will likely serve as Duce Staley's backup.	Brian Mitchell will likely serve as Duce Staley's backup	61781054	1473558148299	1473558148459	 	32
119626	1299525	Brian Mitchell will likely serve as Duce Staley's backup.	Brian Mitchell will likely serve as Duce Staley's backup	61781056	1473558148481	1473558148699	s	83
119626	1299525	Brian Mitchell will likely serve as Duce Staley's backup.	Brian Mitchell will likely serve as Duce Staley's backup	61781180	1473558148586	1473558148716	t	84
119626	1299525	Brian Mitchell will likely serve as Duce Staley's backup.	Brian Mitchell will likely serve as Duce Staley's backup	61781184	1473558148669	1473558148827	a	65
119626	1299525	Brian Mitchell will likely serve as Duce Staley's backup.	Brian Mitchell will likely serve as Duce Staley's backup	61781189	1473558148789	1473558148937	l	76
119626	1299525	Brian Mitchell will likely serve as Duce Staley's backup.	Brian Mitchell will likely serve as Duce Staley's backup	61781192	1473558148956	1473558149107	e	69
119626	1299525	Brian Mitchell will likely serve as Duce Staley's backup.	Brian Mitchell will likely serve as Duce Staley's backup	61781194	1473558149247	1473558149323	'	222
119626	1299525	Brian Mitchell will likely serve as Duce Staley's backup.	Brian Mitchell will likely serve as Duce Staley's backup	61781197	1473558149598	1473558149666	BKSP	8
119626	1299525	Brian Mitchell will likely serve as Duce Staley's backup.	Brian Mitchell will likely serve as Duce Staley's backup	61781199	1473558150124	1473558150158	BKSP	8
119626	1299525	Brian Mitchell will likely serve as Duce Staley's backup.	Brian Mitchell will likely serve as Duce Staley's backup	61781200	1473558150458	1473558150540	BKSP	8
119626	1299525	Brian Mitchell will likely serve as Duce Staley's backup.	Brian Mitchell will likely serve as Duce Staley's backup	61781201	1473558150610	1473558150698	BKSP	8
119626	1299525	Brian Mitchell will likely serve as Duce Staley's backup.	Brian Mitchell will likely serve as Duce Staley's backup	61781203	1473558150770	1473558150852	BKSP	8
119626	1299525	Brian Mitchell will likely serve as Duce Staley's backup.	Brian Mitchell will likely serve as Duce Staley's backup	61781205	1473558150919	1473558151060	BKSP	8
119626	1299525	Brian Mitchell will likely serve as Duce Staley's backup.	Brian Mitchell will likely serve as Duce Staley's backup	61781208	1473558150927	1473558151148	SHIFT	16
119626	1299525	Brian Mitchell will likely serve as Duce Staley's backup.	Brian Mitchell will likely serve as Duce Staley's backup	61781213	1473558151082	1473558151254	S	83
119626	1299525	Brian Mitchell will likely serve as Duce Staley's backup.	Brian Mitchell will likely serve as Duce Staley's backup	61781255	1473558151196	1473558151337	t	84
119626	1299525	Brian Mitchell will likely serve as Duce Staley's backup.	Brian Mitchell will likely serve as Duce Staley's backup	61781256	1473558151290	1473558151422	a	65
119626	1299525	Brian Mitchell will likely serve as Duce Staley's backup.	Brian Mitchell will likely serve as Duce Staley's backup	61781257	1473558151828	1473558151979	l	76
119626	1299525	Brian Mitchell will likely serve as Duce Staley's backup.	Brian Mitchell will likely serve as Duce Staley's backup	61781258	1473558151951	1473558152087	e	69
119626	1299525	Brian Mitchell will likely serve as Duce Staley's backup.	Brian Mitchell will likely serve as Duce Staley's backup	61781259	1473558152221	1473558152378	u	85
119626	1299525	Brian Mitchell will likely serve as Duce Staley's backup.	Brian Mitchell will likely serve as Duce Staley's backup	61781260	1473558152399	1473558152556	'	222
119626	1299525	Brian Mitchell will likely serve as Duce Staley's backup.	Brian Mitchell will likely serve as Duce Staley's backup	61781313	1473558152527	1473558152641	s	83
119626	1299525	Brian Mitchell will likely serve as Duce Staley's backup.	Brian Mitchell will likely serve as Duce Staley's backup	61781314	1473558152696	1473558152784	BKSP	8
119626	1299525	Brian Mitchell will likely serve as Duce Staley's backup.	Brian Mitchell will likely serve as Duce Staley's backup	61781315	1473558152863	1473558152933	BKSP	8
119626	1299525	Brian Mitchell will likely serve as Duce Staley's backup.	Brian Mitchell will likely serve as Duce Staley's backup	61781316	1473558153003	1473558153128	BKSP	8
119626	1299525	Brian Mitchell will likely serve as Duce Staley's backup.	Brian Mitchell will likely serve as Duce Staley's backup	61781318	1473558153093	1473558153235	y	89
119626	1299525	Brian Mitchell will likely serve as Duce Staley's backup.	Brian Mitchell will likely serve as Duce Staley's backup	61781320	1473558153252	1473558153462	'	222
119626	1299525	Brian Mitchell will likely serve as Duce Staley's backup.	Brian Mitchell will likely serve as Duce Staley's backup	61781323	1473558153436	1473558153631	s	83
119626	1299525	Brian Mitchell will likely serve as Duce Staley's backup.	Brian Mitchell will likely serve as Duce Staley's backup	61781327	1473558153527	1473558153708	 	32
119626	1299525	Brian Mitchell will likely serve as Duce Staley's backup.	Brian Mitchell will likely serve as Duce Staley's backup	61781333	1473558153647	1473558153967	SHIFT	16
119626	1299525	Brian Mitchell will likely serve as Duce Staley's backup.	Brian Mitchell will likely serve as Duce Staley's backup	61781354	1473558153884	1473558154004	B	66
119626	1299525	Brian Mitchell will likely serve as Duce Staley's backup.	Brian Mitchell will likely serve as Duce Staley's backup	61781355	1473558154242	1473558154361	BKSP	8
119626	1299525	Brian Mitchell will likely serve as Duce Staley's backup.	Brian Mitchell will likely serve as Duce Staley's backup	61781356	1473558154333	1473558154446	b	66
119626	1299525	Brian Mitchell will likely serve as Duce Staley's backup.	Brian Mitchell will likely serve as Duce Staley's backup	61781357	1473558154418	1473558154546	a	65
119626	1299525	Brian Mitchell will likely serve as Duce Staley's backup.	Brian Mitchell will likely serve as Duce Staley's backup	61781358	1473558154511	1473558154662	c	67
119626	1299525	Brian Mitchell will likely serve as Duce Staley's backup.	Brian Mitchell will likely serve as Duce Staley's backup	61781359	1473558154613	1473558154713	k	75
119626	1299525	Brian Mitchell will likely serve as Duce Staley's backup.	Brian Mitchell will likely serve as Duce Staley's backup	61781361	1473558154797	1473558154893	u	85
119626	1299536	The meeting was very beneficial.	The meeting was very beneficial	61781517	1473558157407	1473558157701	SHIFT	16
119626	1299536	The meeting was very beneficial.	The meeting was very beneficial	61781519	1473558157629	1473558157726	T	84
119626	1299536	The meeting was very beneficial.	The meeting was very beneficial	61781521	1473558157843	1473558157960	h	72
119626	1299536	The meeting was very beneficial.	The meeting was very beneficial	61781523	1473558157948	1473558158090	e	69
119626	1299536	The meeting was very beneficial.	The meeting was very beneficial	61781526	1473558157995	1473558158160	 	32
119626	1299536	The meeting was very beneficial.	The meeting was very beneficial	61781529	1473558158047	1473558158386	SHIFT	16
119626	1299536	The meeting was very beneficial.	The meeting was very beneficial	61781541	1473558158259	1473558158422	M	77
119626	1299536	The meeting was very beneficial.	The meeting was very beneficial	61781542	1473558158571	1473558158662	BKSP	8
119626	1299536	The meeting was very beneficial.	The meeting was very beneficial	61781543	1473558158712	1473558158821	m	77
119626	1299536	The meeting was very beneficial.	The meeting was very beneficial	61781544	1473558158802	1473558158884	e	69
119626	1299536	The meeting was very beneficial.	The meeting was very beneficial	61781546	1473558158945	1473558159039	e	69
119626	1299536	The meeting was very beneficial.	The meeting was very beneficial	61781549	1473558159114	1473558159241	t	84
119626	1299536	The meeting was very beneficial.	The meeting was very beneficial	61781571	1473558159178	1473558159262	i	73
119626	1299536	The meeting was very beneficial.	The meeting was very beneficial	61781574	1473558159311	1473558159436	n	78
119626	1299536	The meeting was very beneficial.	The meeting was very beneficial	61781576	1473558159370	1473558159495	g	71
119626	1299536	The meeting was very beneficial.	The meeting was very beneficial	61781578	1473558159441	1473558159607	 	32
119626	1299536	The meeting was very beneficial.	The meeting was very beneficial	61781580	1473558159631	1473558159786	s	83
119626	1299536	The meeting was very beneficial.	The meeting was very beneficial	61781587	1473558159725	1473558159866	a	65
119626	1299536	The meeting was very beneficial.	The meeting was very beneficial	61781591	1473558159910	1473558159989	BKSP	8
119626	1299536	The meeting was very beneficial.	The meeting was very beneficial	61781595	1473558160067	1473558160153	BKSP	8
119626	1299536	The meeting was very beneficial.	The meeting was very beneficial	61781599	1473558160160	1473558160237	w	87
119626	1299536	The meeting was very beneficial.	The meeting was very beneficial	61781603	1473558160208	1473558160363	a	65
119626	1299536	The meeting was very beneficial.	The meeting was very beneficial	61781607	1473558160322	1473558160454	s	83
119626	1299536	The meeting was very beneficial.	The meeting was very beneficial	61781611	1473558160387	1473558160485	 	32
119626	1299536	The meeting was very beneficial.	The meeting was very beneficial	61781614	1473558160535	1473558160673	b	66
119626	1299536	The meeting was very beneficial.	The meeting was very beneficial	61781624	1473558160631	1473558160722	e	69
119626	1299536	The meeting was very beneficial.	The meeting was very beneficial	61781627	1473558160805	1473558160968	r	82
119626	1299536	The meeting was very beneficial.	The meeting was very beneficial	61781633	1473558160887	1473558161002	y	89
119626	1299536	The meeting was very beneficial.	The meeting was very beneficial	61781638	1473558161020	1473558161128	 	32
119626	1299536	The meeting was very beneficial.	The meeting was very beneficial	61781643	1473558161229	1473558161371	b	66
119626	1299536	The meeting was very beneficial.	The meeting was very beneficial	61781729	1473558161328	1473558161473	e	69
119626	1299536	The meeting was very beneficial.	The meeting was very beneficial	61781731	1473558161535	1473558161662	m	78
119626	1299536	The meeting was very beneficial.	The meeting was very beneficial	61781735	1473558161627	1473558161713	e	69
119626	1299536	The meeting was very beneficial.	The meeting was very beneficial	61781738	1473558161937	1473558162078	BKSP	8
119626	1299536	The meeting was very beneficial.	The meeting was very beneficial	61781740	1473558162161	1473558162867	BKSP	8
119626	1299536	The meeting was very beneficial.	The meeting was very beneficial	61781741	1473558162973	1473558163058	BKSP	8
119626	1299536	The meeting was very beneficial.	The meeting was very beneficial	61781742	1473558163238	1473558163366	BKSP	8
119626	1299536	The meeting was very beneficial.	The meeting was very beneficial	61781743	1473558163373	1473558163489	v	86
119626	1299536	The meeting was very beneficial.	The meeting was very beneficial	61781751	1473558163441	1473558163515	e	69
119626	1299536	The meeting was very beneficial.	The meeting was very beneficial	61781753	1473558163587	1473558163738	r	82
119626	1299536	The meeting was very beneficial.	The meeting was very beneficial	61781755	1473558163660	1473558163781	y	89
119626	1299536	The meeting was very beneficial.	The meeting was very beneficial	61781757	1473558163785	1473558163893	 	32
119626	1299536	The meeting was very beneficial.	The meeting was very beneficial	61781760	1473558163957	1473558164076	b	66
119626	1299536	The meeting was very beneficial.	The meeting was very beneficial	61781785	1473558164047	1473558164136	e	69
119626	1299536	The meeting was very beneficial.	The meeting was very beneficial	61781786	1473558164163	1473558164293	n	78
119626	1299536	The meeting was very beneficial.	The meeting was very beneficial	61781788	1473558164276	1473558164404	e	69
119626	1299536	The meeting was very beneficial.	The meeting was very beneficial	61781790	1473558164487	1473558164618	f	70
119626	1299536	The meeting was very beneficial.	The meeting was very beneficial	61781794	1473558164575	1473558164714	i	73
119626	1299536	The meeting was very beneficial.	The meeting was very beneficial	61781799	1473558164748	1473558164870	c	67
119626	1299536	The meeting was very beneficial.	The meeting was very beneficial	61781798	1473558164806	1473558164897	i	73
119626	1299536	The meeting was very beneficial.	The meeting was very beneficial	61781801	1473558164875	1473558165003	a	65
119626	1299545	Thomas has no real value as a Fantasy player.	Thomas has no rel value as a Fantasyplaer.	61781964	1473558164945	1473558169508	l	76
119626	1299545	Thomas has no real value as a Fantasy player.	Thomas has no rel value as a Fantasyplaer.	61781878	1473558167355	1473558167643	SHIFT	16
119626	1299545	Thomas has no real value as a Fantasy player.	Thomas has no rel value as a Fantasyplaer.	61781881	1473558167545	1473558167681	T	84
119626	1299545	Thomas has no real value as a Fantasy player.	Thomas has no rel value as a Fantasyplaer.	61781885	1473558167685	1473558167779	h	72
119626	1299545	Thomas has no real value as a Fantasy player.	Thomas has no rel value as a Fantasyplaer.	61781888	1473558167868	1473558167959	o	79
119626	1299545	Thomas has no real value as a Fantasy player.	Thomas has no rel value as a Fantasyplaer.	61781892	1473558168048	1473558168167	m	77
119626	1299545	Thomas has no real value as a Fantasy player.	Thomas has no rel value as a Fantasyplaer.	61781900	1473558168136	1473558168260	a	65
119626	1299545	Thomas has no real value as a Fantasy player.	Thomas has no rel value as a Fantasyplaer.	61781902	1473558168195	1473558168400	s	83
119626	1299545	Thomas has no real value as a Fantasy player.	Thomas has no rel value as a Fantasyplaer.	61781905	1473558168293	1473558168477	 	32
119626	1299545	Thomas has no real value as a Fantasy player.	Thomas has no rel value as a Fantasyplaer.	61781910	1473558168481	1473558168609	h	72
119626	1299545	Thomas has no real value as a Fantasy player.	Thomas has no rel value as a Fantasyplaer.	61781914	1473558168574	1473558168692	a	65
119626	1299545	Thomas has no real value as a Fantasy player.	Thomas has no rel value as a Fantasyplaer.	61781929	1473558168617	1473558168774	s	83
119626	1299545	Thomas has no real value as a Fantasy player.	Thomas has no rel value as a Fantasyplaer.	61781933	1473558168666	1473558168810	 	32
119626	1299545	Thomas has no real value as a Fantasy player.	Thomas has no rel value as a Fantasyplaer.	61781935	1473558168744	1473558168847	n	78
119626	1299545	Thomas has no real value as a Fantasy player.	Thomas has no rel value as a Fantasyplaer.	61781938	1473558168939	1473558169061	o	79
119626	1299545	Thomas has no real value as a Fantasy player.	Thomas has no rel value as a Fantasyplaer.	61781941	1473558168989	1473558169147	 	32
119626	1299545	Thomas has no real value as a Fantasy player.	Thomas has no rel value as a Fantasyplaer.	61781944	1473558169089	1473558169176	r	82
119626	1299545	Thomas has no real value as a Fantasy player.	Thomas has no rel value as a Fantasyplaer.	61781946	1473558169276	1473558169385	e	69
119626	1299545	Thomas has no real value as a Fantasy player.	Thomas has no rel value as a Fantasyplaer.	61781963	1473558169303	1473558169476	a	65
119626	1299545	Thomas has no real value as a Fantasy player.	Thomas has no rel value as a Fantasyplaer.	61781967	1473558169450	1473558169592	 	32
119626	1299545	Thomas has no real value as a Fantasy player.	Thomas has no rel value as a Fantasyplaer.	61781970	1473558169841	1473558169944	v	86
119626	1299545	Thomas has no real value as a Fantasy player.	Thomas has no rel value as a Fantasyplaer.	61781973	1473558169898	1473558170030	a	65
119626	1299545	Thomas has no real value as a Fantasy player.	Thomas has no rel value as a Fantasyplaer.	61781978	1473558169969	1473558170064	l	76
119626	1299545	Thomas has no real value as a Fantasy player.	Thomas has no rel value as a Fantasyplaer.	61781981	1473558170181	1473558170238	u	85
119626	1299545	Thomas has no real value as a Fantasy player.	Thomas has no rel value as a Fantasyplaer.	61782015	1473558170251	1473558170358	e	69
119626	1299545	Thomas has no real value as a Fantasy player.	Thomas has no rel value as a Fantasyplaer.	61782018	1473558170822	1473558170949	 	32
119626	1299545	Thomas has no real value as a Fantasy player.	Thomas has no rel value as a Fantasyplaer.	61782019	1473558170938	1473558171106	a	65
119626	1299545	Thomas has no real value as a Fantasy player.	Thomas has no rel value as a Fantasyplaer.	61782020	1473558171041	1473558171224	s	83
119626	1299545	Thomas has no real value as a Fantasy player.	Thomas has no rel value as a Fantasyplaer.	61782067	1473558171150	1473558171262	 	32
119626	1299545	Thomas has no real value as a Fantasy player.	Thomas has no rel value as a Fantasyplaer.	61782074	1473558171272	1473558171455	a	65
119626	1299545	Thomas has no real value as a Fantasy player.	Thomas has no rel value as a Fantasyplaer.	61782077	1473558171363	1473558171558	 	32
119626	1299545	Thomas has no real value as a Fantasy player.	Thomas has no rel value as a Fantasyplaer.	61782082	1473558171526	1473558171682	f	70
119626	1299545	Thomas has no real value as a Fantasy player.	Thomas has no rel value as a Fantasyplaer.	61782085	1473558171608	1473558171766	a	65
119626	1299545	Thomas has no real value as a Fantasy player.	Thomas has no rel value as a Fantasyplaer.	61782089	1473558171962	1473558172035	BKSP	8
119626	1299545	Thomas has no real value as a Fantasy player.	Thomas has no rel value as a Fantasyplaer.	61782092	1473558172018	1473558172229	SHIFT	16
119626	1299545	Thomas has no real value as a Fantasy player.	Thomas has no rel value as a Fantasyplaer.	61782091	1473558172100	1473558172212	BKSP	8
119626	1299545	Thomas has no real value as a Fantasy player.	Thomas has no rel value as a Fantasyplaer.	61782093	1473558172197	1473558172334	F	70
119626	1299545	Thomas has no real value as a Fantasy player.	Thomas has no rel value as a Fantasyplaer.	61782094	1473558172294	1473558172397	a	65
119626	1299545	Thomas has no real value as a Fantasy player.	Thomas has no rel value as a Fantasyplaer.	61782095	1473558172385	1473558172506	n	78
119626	1299545	Thomas has no real value as a Fantasy player.	Thomas has no rel value as a Fantasyplaer.	61782096	1473558172487	1473558172626	t	84
119626	1299545	Thomas has no real value as a Fantasy player.	Thomas has no rel value as a Fantasyplaer.	61782098	1473558172582	1473558172732	a	65
119626	1299545	Thomas has no real value as a Fantasy player.	Thomas has no rel value as a Fantasyplaer.	61782127	1473558172682	1473558172834	s	83
119626	1299545	Thomas has no real value as a Fantasy player.	Thomas has no rel value as a Fantasyplaer.	61782128	1473558172949	1473558173137	y	89
119626	1299545	Thomas has no real value as a Fantasy player.	Thomas has no rel value as a Fantasyplaer.	61782131	1473558173093	1473558173297	 	32
119626	1299545	Thomas has no real value as a Fantasy player.	Thomas has no rel value as a Fantasyplaer.	61782137	1473558173418	1473558173538	l	76
119626	1299545	Thomas has no real value as a Fantasy player.	Thomas has no rel value as a Fantasyplaer.	61782140	1473558173480	1473558173612	a	65
119626	1299545	Thomas has no real value as a Fantasy player.	Thomas has no rel value as a Fantasyplaer.	61782148	1473558173583	1473558173668	e	69
119626	1299545	Thomas has no real value as a Fantasy player.	Thomas has no rel value as a Fantasyplaer.	61782150	1473558173749	1473558173883	r	82
119626	1299549	How did you make sure it was the right set?	How did you make sure it was the right set?	61782218	1473558176365	1473558176841	SHIFT	16
119626	1299549	How did you make sure it was the right set?	How did you make sure it was the right set?	61782219	1473558176752	1473558176866	H	72
119626	1299549	How did you make sure it was the right set?	How did you make sure it was the right set?	61782221	1473558176908	1473558177049	o	79
119626	1299549	How did you make sure it was the right set?	How did you make sure it was the right set?	61782223	1473558176950	1473558177160	w	87
119626	1299549	How did you make sure it was the right set?	How did you make sure it was the right set?	61782226	1473558177105	1473558177294	 	32
119626	1299549	How did you make sure it was the right set?	How did you make sure it was the right set?	61782235	1473558177227	1473558177347	d	68
119626	1299549	How did you make sure it was the right set?	How did you make sure it was the right set?	61782236	1473558177304	1473558177438	i	73
119626	1299549	How did you make sure it was the right set?	How did you make sure it was the right set?	61782237	1473558177412	1473558177537	d	68
119626	1299549	How did you make sure it was the right set?	How did you make sure it was the right set?	61782238	1473558177497	1473558177656	 	32
119626	1299549	How did you make sure it was the right set?	How did you make sure it was the right set?	61782239	1473558177627	1473558177764	y	89
119626	1299549	How did you make sure it was the right set?	How did you make sure it was the right set?	61782279	1473558177695	1473558177772	o	79
119626	1299549	How did you make sure it was the right set?	How did you make sure it was the right set?	61782280	1473558177847	1473558177938	u	85
119626	1299549	How did you make sure it was the right set?	How did you make sure it was the right set?	61782281	1473558177909	1473558178083	 	32
119626	1299549	How did you make sure it was the right set?	How did you make sure it was the right set?	61782282	1473558178014	1473558178120	m	77
119626	1299549	How did you make sure it was the right set?	How did you make sure it was the right set?	61782283	1473558178071	1473558178182	a	65
119626	1299549	How did you make sure it was the right set?	How did you make sure it was the right set?	61782284	1473558178438	1473558178597	k	75
119626	1299549	How did you make sure it was the right set?	How did you make sure it was the right set?	61782293	1473558178554	1473558178706	e	69
119626	1299549	How did you make sure it was the right set?	How did you make sure it was the right set?	61782295	1473558178603	1473558178766	 	32
119626	1299549	How did you make sure it was the right set?	How did you make sure it was the right set?	61782298	1473558178679	1473558178852	s	83
119626	1299549	How did you make sure it was the right set?	How did you make sure it was the right set?	61782302	1473558178777	1473558178885	u	85
119626	1299549	How did you make sure it was the right set?	How did you make sure it was the right set?	61782306	1473558178863	1473558178956	r	82
119626	1299549	How did you make sure it was the right set?	How did you make sure it was the right set?	61782310	1473558179037	1473558179208	e	69
119626	1299549	How did you make sure it was the right set?	How did you make sure it was the right set?	61782321	1473558179130	1473558179290	 	32
119626	1299549	How did you make sure it was the right set?	How did you make sure it was the right set?	61782322	1473558179244	1473558179404	i	73
119626	1299549	How did you make sure it was the right set?	How did you make sure it was the right set?	61782323	1473558179420	1473558179609	t	84
119626	1299549	How did you make sure it was the right set?	How did you make sure it was the right set?	61782324	1473558179633	1473558179810	 	32
119626	1299549	How did you make sure it was the right set?	How did you make sure it was the right set?	61782326	1473558179828	1473558179971	w	87
119626	1299549	How did you make sure it was the right set?	How did you make sure it was the right set?	61782335	1473558179945	1473558180100	a	65
119626	1299549	How did you make sure it was the right set?	How did you make sure it was the right set?	61782338	1473558180045	1473558180194	s	83
119626	1299549	How did you make sure it was the right set?	How did you make sure it was the right set?	61782341	1473558180116	1473558180280	 	32
119626	1299549	How did you make sure it was the right set?	How did you make sure it was the right set?	61782343	1473558180216	1473558180327	t	84
119626	1299549	How did you make sure it was the right set?	How did you make sure it was the right set?	61782346	1473558180290	1473558180404	h	72
119626	1299549	How did you make sure it was the right set?	How did you make sure it was the right set?	61782350	1473558180420	1473558180554	e	69
119626	1299549	How did you make sure it was the right set?	How did you make sure it was the right set?	61782368	1473558180473	1473558180631	 	32
119626	1299549	How did you make sure it was the right set?	How did you make sure it was the right set?	61782371	1473558180636	1473558180770	r	82
119626	1299549	How did you make sure it was the right set?	How did you make sure it was the right set?	61782375	1473558180678	1473558180812	i	73
119626	1299549	How did you make sure it was the right set?	How did you make sure it was the right set?	61782379	1473558180876	1473558180966	g	71
119626	1299549	How did you make sure it was the right set?	How did you make sure it was the right set?	61782383	1473558180935	1473558181083	h	72
119626	1299549	How did you make sure it was the right set?	How did you make sure it was the right set?	61782386	1473558181153	1473558181328	t	84
119626	1299549	How did you make sure it was the right set?	How did you make sure it was the right set?	61782399	1473558181291	1473558181490	 	32
119626	1299549	How did you make sure it was the right set?	How did you make sure it was the right set?	61782400	1473558181390	1473558181546	s	83
119626	1299549	How did you make sure it was the right set?	How did you make sure it was the right set?	61782401	1473558181477	1473558181577	e	69
119626	1299549	How did you make sure it was the right set?	How did you make sure it was the right set?	61782402	1473558181652	1473558181763	t	84
119626	1299559	But I would suspect that when Ricky can play, he'll play again.	But i would suspect that when Ricky can play, he'll play again.	61782492	1473558181774	1473558184729	SHIFT	16
119626	1299559	But I would suspect that when Ricky can play, he'll play again.	But i would suspect that when Ricky can play, he'll play again.	61782496	1473558184625	1473558184766	B	66
119626	1299559	But I would suspect that when Ricky can play, he'll play again.	But i would suspect that when Ricky can play, he'll play again.	61782501	1473558184875	1473558184908	t	85
119626	1299559	But I would suspect that when Ricky can play, he'll play again.	But i would suspect that when Ricky can play, he'll play again.	61782506	1473558184950	1473558185062	 	32
119626	1299559	But I would suspect that when Ricky can play, he'll play again.	But i would suspect that when Ricky can play, he'll play again.	61782510	1473558185410	1473558185535	i	73
119626	1299559	But I would suspect that when Ricky can play, he'll play again.	But i would suspect that when Ricky can play, he'll play again.	61782539	1473558185541	1473558185683	 	32
119626	1299559	But I would suspect that when Ricky can play, he'll play again.	But i would suspect that when Ricky can play, he'll play again.	61782540	1473558185610	1473558185765	w	87
119626	1299559	But I would suspect that when Ricky can play, he'll play again.	But i would suspect that when Ricky can play, he'll play again.	61782541	1473558185719	1473558185802	o	79
119626	1299559	But I would suspect that when Ricky can play, he'll play again.	But i would suspect that when Ricky can play, he'll play again.	61782543	1473558185863	1473558186005	l	76
119626	1299559	But I would suspect that when Ricky can play, he'll play again.	But i would suspect that when Ricky can play, he'll play again.	61782545	1473558186089	1473558186208	BKSP	8
119626	1299559	But I would suspect that when Ricky can play, he'll play again.	But i would suspect that when Ricky can play, he'll play again.	61782547	1473558186263	1473558186399	u	85
119626	1299559	But I would suspect that when Ricky can play, he'll play again.	But i would suspect that when Ricky can play, he'll play again.	61782569	1473558186968	1473558187119	l	76
119626	1299559	But I would suspect that when Ricky can play, he'll play again.	But i would suspect that when Ricky can play, he'll play again.	61782571	1473558187066	1473558187221	d	68
119626	1299559	But I would suspect that when Ricky can play, he'll play again.	But i would suspect that when Ricky can play, he'll play again.	61782573	1473558187123	1473558187286	 	32
119626	1299559	But I would suspect that when Ricky can play, he'll play again.	But i would suspect that when Ricky can play, he'll play again.	61782576	1473558187382	1473558187521	s	83
119626	1299559	But I would suspect that when Ricky can play, he'll play again.	But i would suspect that when Ricky can play, he'll play again.	61782600	1473558187478	1473558187581	u	85
119626	1299559	But I would suspect that when Ricky can play, he'll play again.	But i would suspect that when Ricky can play, he'll play again.	61782601	1473558187605	1473558187716	s	83
119626	1299559	But I would suspect that when Ricky can play, he'll play again.	But i would suspect that when Ricky can play, he'll play again.	61782602	1473558187741	1473558187931	p	80
119626	1299559	But I would suspect that when Ricky can play, he'll play again.	But i would suspect that when Ricky can play, he'll play again.	61782603	1473558187863	1473558187985	e	69
119626	1299559	But I would suspect that when Ricky can play, he'll play again.	But i would suspect that when Ricky can play, he'll play again.	61782604	1473558188131	1473558188247	c	67
119626	1299559	But I would suspect that when Ricky can play, he'll play again.	But i would suspect that when Ricky can play, he'll play again.	61782605	1473558188336	1473558188447	t	84
119626	1299559	But I would suspect that when Ricky can play, he'll play again.	But i would suspect that when Ricky can play, he'll play again.	61782616	1473558188387	1473558188598	 	32
119626	1299559	But I would suspect that when Ricky can play, he'll play again.	But i would suspect that when Ricky can play, he'll play again.	61782617	1473558188552	1473558188675	t	84
119626	1299559	But I would suspect that when Ricky can play, he'll play again.	But i would suspect that when Ricky can play, he'll play again.	61782618	1473558188679	1473558188817	h	72
119626	1299559	But I would suspect that when Ricky can play, he'll play again.	But i would suspect that when Ricky can play, he'll play again.	61782619	1473558188753	1473558188912	a	65
119626	1299559	But I would suspect that when Ricky can play, he'll play again.	But i would suspect that when Ricky can play, he'll play again.	61782620	1473558188807	1473558188988	t	84
119626	1299559	But I would suspect that when Ricky can play, he'll play again.	But i would suspect that when Ricky can play, he'll play again.	61782635	1473558188916	1473558189071	 	32
119626	1299559	But I would suspect that when Ricky can play, he'll play again.	But i would suspect that when Ricky can play, he'll play again.	61782637	1473558189022	1473558189185	w	87
119626	1299559	But I would suspect that when Ricky can play, he'll play again.	But i would suspect that when Ricky can play, he'll play again.	61782639	1473558189122	1473558189232	h	72
119626	1299559	But I would suspect that when Ricky can play, he'll play again.	But i would suspect that when Ricky can play, he'll play again.	61782641	1473558189216	1473558189366	e	69
119626	1299559	But I would suspect that when Ricky can play, he'll play again.	But i would suspect that when Ricky can play, he'll play again.	61782642	1473558189314	1473558189457	n	78
119626	1299559	But I would suspect that when Ricky can play, he'll play again.	But i would suspect that when Ricky can play, he'll play again.	61782679	1473558189396	1473558189594	 	32
119626	1299559	But I would suspect that when Ricky can play, he'll play again.	But i would suspect that when Ricky can play, he'll play again.	61782681	1473558189579	1473558189706	r	82
119626	1299559	But I would suspect that when Ricky can play, he'll play again.	But i would suspect that when Ricky can play, he'll play again.	61782686	1473558189669	1473558189803	i	73
119626	1299559	But I would suspect that when Ricky can play, he'll play again.	But i would suspect that when Ricky can play, he'll play again.	61782690	1473558189813	1473558189976	c	67
119626	1299559	But I would suspect that when Ricky can play, he'll play again.	But i would suspect that when Ricky can play, he'll play again.	61782693	1473558189921	1473558190089	k	75
119626	1299559	But I would suspect that when Ricky can play, he'll play again.	But i would suspect that when Ricky can play, he'll play again.	61782697	1473558190223	1473558190305	BKSP	8
119626	1299559	But I would suspect that when Ricky can play, he'll play again.	But i would suspect that when Ricky can play, he'll play again.	61782700	1473558190389	1473558190466	BKSP	8
119626	1299559	But I would suspect that when Ricky can play, he'll play again.	But i would suspect that when Ricky can play, he'll play again.	61782701	1473558190538	1473558190617	BKSP	8
119626	1299559	But I would suspect that when Ricky can play, he'll play again.	But i would suspect that when Ricky can play, he'll play again.	61782702	1473558190707	1473558190789	BKSP	8
119626	1299559	But I would suspect that when Ricky can play, he'll play again.	But i would suspect that when Ricky can play, he'll play again.	61782715	1473558190715	1473558190897	SHIFT	16
119626	1299559	But I would suspect that when Ricky can play, he'll play again.	But i would suspect that when Ricky can play, he'll play again.	61782714	1473558190780	1473558190855	R	82
119626	1299559	But I would suspect that when Ricky can play, he'll play again.	But i would suspect that when Ricky can play, he'll play again.	61782716	1473558190998	1473558191087	o	73
119626	1299559	But I would suspect that when Ricky can play, he'll play again.	But i would suspect that when Ricky can play, he'll play again.	61782718	1473558191038	1473558191162	c	67
119626	1299559	But I would suspect that when Ricky can play, he'll play again.	But i would suspect that when Ricky can play, he'll play again.	61782720	1473558191397	1473558191477	BKSP	8
119626	1299559	But I would suspect that when Ricky can play, he'll play again.	But i would suspect that when Ricky can play, he'll play again.	61782722	1473558191560	1473558191606	BKSP	8
119626	1299559	But I would suspect that when Ricky can play, he'll play again.	But i would suspect that when Ricky can play, he'll play again.	61782724	1473558191616	1473558191706	c	67
119626	1299559	But I would suspect that when Ricky can play, he'll play again.	But i would suspect that when Ricky can play, he'll play again.	61782746	1473558191677	1473558191812	k	75
119626	1299559	But I would suspect that when Ricky can play, he'll play again.	But i would suspect that when Ricky can play, he'll play again.	61782750	1473558191822	1473558191955	y	89
119626	1299559	But I would suspect that when Ricky can play, he'll play again.	But i would suspect that when Ricky can play, he'll play again.	61782754	1473558191935	1473558192086	 	32
119626	1299559	But I would suspect that when Ricky can play, he'll play again.	But i would suspect that when Ricky can play, he'll play again.	61782755	1473558192161	1473558192311	c	67
119626	1299559	But I would suspect that when Ricky can play, he'll play again.	But i would suspect that when Ricky can play, he'll play again.	61782767	1473558192240	1473558192392	a	65
119626	1299559	But I would suspect that when Ricky can play, he'll play again.	But i would suspect that when Ricky can play, he'll play again.	61782765	1473558192294	1473558192369	n	78
119626	1299559	But I would suspect that when Ricky can play, he'll play again.	But i would suspect that when Ricky can play, he'll play again.	61782768	1473558192397	1473558192582	 	32
119626	1299559	But I would suspect that when Ricky can play, he'll play again.	But i would suspect that when Ricky can play, he'll play again.	61782770	1473558192490	1473558192593	p	80
119626	1299559	But I would suspect that when Ricky can play, he'll play again.	But i would suspect that when Ricky can play, he'll play again.	61782773	1473558192649	1473558192778	l	76
119626	1299559	But I would suspect that when Ricky can play, he'll play again.	But i would suspect that when Ricky can play, he'll play again.	61782777	1473558192696	1473558192785	a	65
119626	1299559	But I would suspect that when Ricky can play, he'll play again.	But i would suspect that when Ricky can play, he'll play again.	61782780	1473558192807	1473558192935	y	89
119626	1299559	But I would suspect that when Ricky can play, he'll play again.	But i would suspect that when Ricky can play, he'll play again.	61782826	1473558192983	1473558193190	,	188
119626	1299559	But I would suspect that when Ricky can play, he'll play again.	But i would suspect that when Ricky can play, he'll play again.	61782832	1473558193313	1473558193464	 	32
119626	1299559	But I would suspect that when Ricky can play, he'll play again.	But i would suspect that when Ricky can play, he'll play again.	61782838	1473558193397	1473558193595	SHIFT	16
119626	1299559	But I would suspect that when Ricky can play, he'll play again.	But i would suspect that when Ricky can play, he'll play again.	61782842	1473558193526	1473558193660	H	72
119626	1299559	But I would suspect that when Ricky can play, he'll play again.	But i would suspect that when Ricky can play, he'll play again.	61782845	1473558193857	1473558193925	BKSP	8
119626	1299559	But I would suspect that when Ricky can play, he'll play again.	But i would suspect that when Ricky can play, he'll play again.	61782846	1473558194017	1473558194096	h	72
119626	1299559	But I would suspect that when Ricky can play, he'll play again.	But i would suspect that when Ricky can play, he'll play again.	61782848	1473558194101	1473558194234	e	69
119626	1299559	But I would suspect that when Ricky can play, he'll play again.	But i would suspect that when Ricky can play, he'll play again.	61782903	1473558194222	1473558194384	l	76
119626	1299559	But I would suspect that when Ricky can play, he'll play again.	But i would suspect that when Ricky can play, he'll play again.	61782905	1473558194665	1473558194767	'	222
119626	1299559	But I would suspect that when Ricky can play, he'll play again.	But i would suspect that when Ricky can play, he'll play again.	61782907	1473558194738	1473558194900	BKSP	8
119626	1299559	But I would suspect that when Ricky can play, he'll play again.	But i would suspect that when Ricky can play, he'll play again.	61782908	1473558194843	1473558194931	'	222
119626	1299559	But I would suspect that when Ricky can play, he'll play again.	But i would suspect that when Ricky can play, he'll play again.	61782909	1473558195009	1473558195167	BKSP	8
119626	1299559	But I would suspect that when Ricky can play, he'll play again.	But i would suspect that when Ricky can play, he'll play again.	61782910	1473558195154	1473558195296	'	222
119626	1299559	But I would suspect that when Ricky can play, he'll play again.	But i would suspect that when Ricky can play, he'll play again.	61782911	1473558195467	1473558195552	BKSP	8
119626	1299559	But I would suspect that when Ricky can play, he'll play again.	But i would suspect that when Ricky can play, he'll play again.	61782912	1473558195621	1473558195769	BKSP	8
119626	1299559	But I would suspect that when Ricky can play, he'll play again.	But i would suspect that when Ricky can play, he'll play again.	61782913	1473558195709	1473558195829	'	222
119626	1299559	But I would suspect that when Ricky can play, he'll play again.	But i would suspect that when Ricky can play, he'll play again.	61782914	1473558195935	1473558195997	l	76
119626	1299559	But I would suspect that when Ricky can play, he'll play again.	But i would suspect that when Ricky can play, he'll play again.	61782942	1473558196069	1473558196171	l	76
119626	1299559	But I would suspect that when Ricky can play, he'll play again.	But i would suspect that when Ricky can play, he'll play again.	61782943	1473558196331	1473558196408	BKSP	8
119626	1299559	But I would suspect that when Ricky can play, he'll play again.	But i would suspect that when Ricky can play, he'll play again.	61782944	1473558196694	1473558196790	l	76
119626	1299559	But I would suspect that when Ricky can play, he'll play again.	But i would suspect that when Ricky can play, he'll play again.	61782945	1473558196851	1473558197006	 	32
119626	1299559	But I would suspect that when Ricky can play, he'll play again.	But i would suspect that when Ricky can play, he'll play again.	61782946	1473558196946	1473558197035	p	80
119626	1299559	But I would suspect that when Ricky can play, he'll play again.	But i would suspect that when Ricky can play, he'll play again.	61782947	1473558197084	1473558197189	l	76
119626	1299559	But I would suspect that when Ricky can play, he'll play again.	But i would suspect that when Ricky can play, he'll play again.	61782948	1473558197158	1473558197295	a	65
119626	1299559	But I would suspect that when Ricky can play, he'll play again.	But i would suspect that when Ricky can play, he'll play again.	61782950	1473558197299	1473558197387	y	89
119626	1299559	But I would suspect that when Ricky can play, he'll play again.	But i would suspect that when Ricky can play, he'll play again.	61782953	1473558197398	1473558197560	 	32
119626	1299559	But I would suspect that when Ricky can play, he'll play again.	But i would suspect that when Ricky can play, he'll play again.	61782957	1473558197508	1473558197631	a	65
119626	1299559	But I would suspect that when Ricky can play, he'll play again.	But i would suspect that when Ricky can play, he'll play again.	61782962	1473558197597	1473558197737	g	71
119626	1299559	But I would suspect that when Ricky can play, he'll play again.	But i would suspect that when Ricky can play, he'll play again.	61782983	1473558197684	1473558197836	a	65
119626	1299559	But I would suspect that when Ricky can play, he'll play again.	But i would suspect that when Ricky can play, he'll play again.	61782981	1473558197741	1473558197796	i	73
119626	1299559	But I would suspect that when Ricky can play, he'll play again.	But i would suspect that when Ricky can play, he'll play again.	61782984	1473558197880	1473558197988	n	78
