PARTICIPANT_ID	TEST_SECTION_ID	SENTENCE	USER_INPUT	KEYSTROKE_ID	PRESS_TIME	RELEASE_TIME	LETTER	KEYCODE
120356	1306620	I will add this to the folder and let you know when we get into it.	I will add this to the folder and let you know when we get into it.	62119076	1473514870280	1473514870367	i	73
120356	1306620	I will add this to the folder and let you know when we get into it.	I will add this to the folder and let you know when we get into it.	62119078	1473514870701	1473514870756	BKSP	8
120356	1306620	I will add this to the folder and let you know when we get into it.	I will add this to the folder and let you know when we get into it.	62119081	1473514870878	1473514871100	SHIFT	16
120356	1306620	I will add this to the folder and let you know when we get into it.	I will add this to the folder and let you know when we get into it.	62119083	1473514871024	1473514871126	I	73
120356	1306620	I will add this to the folder and let you know when we get into it.	I will add this to the folder and let you know when we get into it.	62119085	1473514871174	1473514871309	 	32
120356	1306620	I will add this to the folder and let you know when we get into it.	I will add this to the folder and let you know when we get into it.	62119087	1473514871250	1473514871371	w	87
120356	1306620	I will add this to the folder and let you know when we get into it.	I will add this to the folder and let you know when we get into it.	62119100	1473514871367	1473514871487	i	73
120356	1306620	I will add this to the folder and let you know when we get into it.	I will add this to the folder and let you know when we get into it.	62119102	1473514871456	1473514871534	l	76
120356	1306620	I will add this to the folder and let you know when we get into it.	I will add this to the folder and let you know when we get into it.	62119104	1473514871752	1473514871870	 	32
120356	1306620	I will add this to the folder and let you know when we get into it.	I will add this to the folder and let you know when we get into it.	62119108	1473514871871	1473514871976	a	65
120356	1306620	I will add this to the folder and let you know when we get into it.	I will add this to the folder and let you know when we get into it.	62119109	1473514871929	1473514872039	d	68
120356	1306620	I will add this to the folder and let you know when we get into it.	I will add this to the folder and let you know when we get into it.	62119112	1473514872094	1473514872236	d	68
120356	1306620	I will add this to the folder and let you know when we get into it.	I will add this to the folder and let you know when we get into it.	62119119	1473514872202	1473514872309	 	32
120356	1306620	I will add this to the folder and let you know when we get into it.	I will add this to the folder and let you know when we get into it.	62119121	1473514872291	1473514872409	t	84
120356	1306620	I will add this to the folder and let you know when we get into it.	I will add this to the folder and let you know when we get into it.	62119124	1473514872407	1473514872511	h	72
120356	1306620	I will add this to the folder and let you know when we get into it.	I will add this to the folder and let you know when we get into it.	62119125	1473514872472	1473514872590	i	73
120356	1306620	I will add this to the folder and let you know when we get into it.	I will add this to the folder and let you know when we get into it.	62119127	1473514872548	1473514872657	s	83
120356	1306620	I will add this to the folder and let you know when we get into it.	I will add this to the folder and let you know when we get into it.	62119166	1473514872629	1473514872732	 	32
120356	1306620	I will add this to the folder and let you know when we get into it.	I will add this to the folder and let you know when we get into it.	62119167	1473514872799	1473514872921	t	84
120356	1306620	I will add this to the folder and let you know when we get into it.	I will add this to the folder and let you know when we get into it.	62119168	1473514872918	1473514873040	o	79
120356	1306620	I will add this to the folder and let you know when we get into it.	I will add this to the folder and let you know when we get into it.	62119169	1473514873038	1473514873125	 	32
120356	1306620	I will add this to the folder and let you know when we get into it.	I will add this to the folder and let you know when we get into it.	62119170	1473514873243	1473514873291	BKSP	8
120356	1306620	I will add this to the folder and let you know when we get into it.	I will add this to the folder and let you know when we get into it.	62119171	1473514873337	1473514873377	BKSP	8
120356	1306620	I will add this to the folder and let you know when we get into it.	I will add this to the folder and let you know when we get into it.	62119172	1473514873440	1473514873487	BKSP	8
120356	1306620	I will add this to the folder and let you know when we get into it.	I will add this to the folder and let you know when we get into it.	62119173	1473514873557	1473514873581	BKSP	8
120356	1306620	I will add this to the folder and let you know when we get into it.	I will add this to the folder and let you know when we get into it.	62119174	1473514873659	1473514873722	BKSP	8
120356	1306620	I will add this to the folder and let you know when we get into it.	I will add this to the folder and let you know when we get into it.	62119175	1473514873785	1473514873816	BKSP	8
120356	1306620	I will add this to the folder and let you know when we get into it.	I will add this to the folder and let you know when we get into it.	62119176	1473514873887	1473514873934	BKSP	8
120356	1306620	I will add this to the folder and let you know when we get into it.	I will add this to the folder and let you know when we get into it.	62119177	1473514874013	1473514874044	BKSP	8
120356	1306620	I will add this to the folder and let you know when we get into it.	I will add this to the folder and let you know when we get into it.	62119178	1473514874130	1473514874178	BKSP	8
120356	1306620	I will add this to the folder and let you know when we get into it.	I will add this to the folder and let you know when we get into it.	62119179	1473514874376	1473514874423	BKSP	8
120356	1306620	I will add this to the folder and let you know when we get into it.	I will add this to the folder and let you know when we get into it.	62119180	1473514874510	1473514874551	BKSP	8
120356	1306620	I will add this to the folder and let you know when we get into it.	I will add this to the folder and let you know when we get into it.	62119181	1473514874628	1473514874675	BKSP	8
120356	1306620	I will add this to the folder and let you know when we get into it.	I will add this to the folder and let you know when we get into it.	62119182	1473514874785	1473514874849	BKSP	8
120356	1306620	I will add this to the folder and let you know when we get into it.	I will add this to the folder and let you know when we get into it.	62119183	1473514875462	1473514875565	l	76
120356	1306620	I will add this to the folder and let you know when we get into it.	I will add this to the folder and let you know when we get into it.	62119184	1473514875588	1473514875691	 	32
120356	1306620	I will add this to the folder and let you know when we get into it.	I will add this to the folder and let you know when we get into it.	62119185	1473514875693	1473514875804	a	65
120356	1306620	I will add this to the folder and let you know when we get into it.	I will add this to the folder and let you know when we get into it.	62119189	1473514875750	1473514875852	d	68
120356	1306620	I will add this to the folder and let you know when we get into it.	I will add this to the folder and let you know when we get into it.	62119192	1473514875923	1473514876048	d	68
120356	1306620	I will add this to the folder and let you know when we get into it.	I will add this to the folder and let you know when we get into it.	62119194	1473514876044	1473514876160	 	32
120356	1306620	I will add this to the folder and let you know when we get into it.	I will add this to the folder and let you know when we get into it.	62119197	1473514876161	1473514876277	t	84
120356	1306620	I will add this to the folder and let you know when we get into it.	I will add this to the folder and let you know when we get into it.	62119201	1473514876254	1473514876411	h	72
120356	1306620	I will add this to the folder and let you know when we get into it.	I will add this to the folder and let you know when we get into it.	62119202	1473514876357	1473514876458	i	73
120356	1306620	I will add this to the folder and let you know when we get into it.	I will add this to the folder and let you know when we get into it.	62119203	1473514876411	1473514876543	s	83
120356	1306620	I will add this to the folder and let you know when we get into it.	I will add this to the folder and let you know when we get into it.	62119204	1473514876474	1473514876569	 	32
120356	1306620	I will add this to the folder and let you know when we get into it.	I will add this to the folder and let you know when we get into it.	62119205	1473514876570	1473514876688	t	84
120356	1306620	I will add this to the folder and let you know when we get into it.	I will add this to the folder and let you know when we get into it.	62119209	1473514876686	1473514876780	o	79
120356	1306620	I will add this to the folder and let you know when we get into it.	I will add this to the folder and let you know when we get into it.	62119211	1473514876757	1473514876835	 	32
120356	1306620	I will add this to the folder and let you know when we get into it.	I will add this to the folder and let you know when we get into it.	62119212	1473514876887	1473514876977	t	84
120356	1306620	I will add this to the folder and let you know when we get into it.	I will add this to the folder and let you know when we get into it.	62119213	1473514876989	1473514877092	h	72
120356	1306620	I will add this to the folder and let you know when we get into it.	I will add this to the folder and let you know when we get into it.	62119214	1473514877093	1473514877225	e	69
120356	1306620	I will add this to the folder and let you know when we get into it.	I will add this to the folder and let you know when we get into it.	62119215	1473514877148	1473514877250	 	32
120356	1306620	I will add this to the folder and let you know when we get into it.	I will add this to the folder and let you know when we get into it.	62119216	1473514877302	1473514877429	f	70
120356	1306620	I will add this to the folder and let you know when we get into it.	I will add this to the folder and let you know when we get into it.	62119217	1473514877407	1473514877564	o	79
120356	1306620	I will add this to the folder and let you know when we get into it.	I will add this to the folder and let you know when we get into it.	62119218	1473514877541	1473514877659	l	76
120356	1306620	I will add this to the folder and let you know when we get into it.	I will add this to the folder and let you know when we get into it.	62119219	1473514877714	1473514877783	d	68
120356	1306620	I will add this to the folder and let you know when we get into it.	I will add this to the folder and let you know when we get into it.	62119220	1473514877885	1473514877996	e	69
120356	1306620	I will add this to the folder and let you know when we get into it.	I will add this to the folder and let you know when we get into it.	62119221	1473514877957	1473514878082	r	82
120356	1306620	I will add this to the folder and let you know when we get into it.	I will add this to the folder and let you know when we get into it.	62119222	1473514878061	1473514878155	 	32
120356	1306620	I will add this to the folder and let you know when we get into it.	I will add this to the folder and let you know when we get into it.	62119223	1473514878182	1473514878316	a	65
120356	1306620	I will add this to the folder and let you know when we get into it.	I will add this to the folder and let you know when we get into it.	62119224	1473514878286	1473514878396	n	78
120356	1306620	I will add this to the folder and let you know when we get into it.	I will add this to the folder and let you know when we get into it.	62119225	1473514878397	1473514878521	d	68
120356	1306620	I will add this to the folder and let you know when we get into it.	I will add this to the folder and let you know when we get into it.	62119232	1473514878460	1473514878578	 	32
120356	1306620	I will add this to the folder and let you know when we get into it.	I will add this to the folder and let you know when we get into it.	62119234	1473514878553	1473514878696	l	76
120356	1306620	I will add this to the folder and let you know when we get into it.	I will add this to the folder and let you know when we get into it.	62119236	1473514878742	1473514878858	e	69
120356	1306620	I will add this to the folder and let you know when we get into it.	I will add this to the folder and let you know when we get into it.	62119238	1473514878788	1473514878922	t	84
120356	1306620	I will add this to the folder and let you know when we get into it.	I will add this to the folder and let you know when we get into it.	62119240	1473514878955	1473514879058	 	32
120356	1306620	I will add this to the folder and let you know when we get into it.	I will add this to the folder and let you know when we get into it.	62119243	1473514879438	1473514879558	y	89
120356	1306620	I will add this to the folder and let you know when we get into it.	I will add this to the folder and let you know when we get into it.	62119250	1473514879556	1473514879691	o	79
120356	1306620	I will add this to the folder and let you know when we get into it.	I will add this to the folder and let you know when we get into it.	62119251	1473514879643	1473514879737	u	85
120356	1306620	I will add this to the folder and let you know when we get into it.	I will add this to the folder and let you know when we get into it.	62119252	1473514879771	1473514879833	 	32
120356	1306620	I will add this to the folder and let you know when we get into it.	I will add this to the folder and let you know when we get into it.	62119253	1473514879862	1473514880004	k	75
120356	1306620	I will add this to the folder and let you know when we get into it.	I will add this to the folder and let you know when we get into it.	62119254	1473514879980	1473514880118	n	78
120356	1306620	I will add this to the folder and let you know when we get into it.	I will add this to the folder and let you know when we get into it.	62119287	1473514880114	1473514880214	o	79
120356	1306620	I will add this to the folder and let you know when we get into it.	I will add this to the folder and let you know when we get into it.	62119289	1473514880215	1473514880324	w	87
120356	1306620	I will add this to the folder and let you know when we get into it.	I will add this to the folder and let you know when we get into it.	62119294	1473514880280	1473514880390	 	32
120356	1306620	I will add this to the folder and let you know when we get into it.	I will add this to the folder and let you know when we get into it.	62119297	1473514880418	1473514880526	w	72
120356	1306620	I will add this to the folder and let you know when we get into it.	I will add this to the folder and let you know when we get into it.	62119301	1473514881168	1473514881215	BKSP	8
120356	1306620	I will add this to the folder and let you know when we get into it.	I will add this to the folder and let you know when we get into it.	62119305	1473514881285	1473514881341	BKSP	8
120356	1306620	I will add this to the folder and let you know when we get into it.	I will add this to the folder and let you know when we get into it.	62119309	1473514881440	1473514881555	w	87
120356	1306620	I will add this to the folder and let you know when we get into it.	I will add this to the folder and let you know when we get into it.	62119333	1473514881551	1473514881679	h	72
120356	1306620	I will add this to the folder and let you know when we get into it.	I will add this to the folder and let you know when we get into it.	62119335	1473514881836	1473514881931	e	69
120356	1306620	I will add this to the folder and let you know when we get into it.	I will add this to the folder and let you know when we get into it.	62119338	1473514882274	1473514882362	n	78
120356	1306620	I will add this to the folder and let you know when we get into it.	I will add this to the folder and let you know when we get into it.	62119339	1473514882498	1473514882593	 	32
120356	1306620	I will add this to the folder and let you know when we get into it.	I will add this to the folder and let you know when we get into it.	62119340	1473514882652	1473514882787	w	87
120356	1306620	I will add this to the folder and let you know when we get into it.	I will add this to the folder and let you know when we get into it.	62119344	1473514882732	1473514882881	e	69
120356	1306620	I will add this to the folder and let you know when we get into it.	I will add this to the folder and let you know when we get into it.	62119346	1473514882805	1473514882939	 	32
120356	1306620	I will add this to the folder and let you know when we get into it.	I will add this to the folder and let you know when we get into it.	62119348	1473514883126	1473514883269	g	71
120356	1306620	I will add this to the folder and let you know when we get into it.	I will add this to the folder and let you know when we get into it.	62119350	1473514883270	1473514883434	e	69
120356	1306620	I will add this to the folder and let you know when we get into it.	I will add this to the folder and let you know when we get into it.	62119351	1473514883363	1473514883480	t	84
120356	1306620	I will add this to the folder and let you know when we get into it.	I will add this to the folder and let you know when we get into it.	62119356	1473514883451	1473514883569	 	32
120356	1306620	I will add this to the folder and let you know when we get into it.	I will add this to the folder and let you know when we get into it.	62119357	1473514883552	1473514883677	i	73
120356	1306620	I will add this to the folder and let you know when we get into it.	I will add this to the folder and let you know when we get into it.	62119358	1473514883621	1473514883739	n	78
120356	1306620	I will add this to the folder and let you know when we get into it.	I will add this to the folder and let you know when we get into it.	62119359	1473514883740	1473514883858	t	84
120356	1306620	I will add this to the folder and let you know when we get into it.	I will add this to the folder and let you know when we get into it.	62119360	1473514883855	1473514883904	o	79
120356	1306620	I will add this to the folder and let you know when we get into it.	I will add this to the folder and let you know when we get into it.	62119361	1473514883919	1473514884007	 	32
120356	1306620	I will add this to the folder and let you know when we get into it.	I will add this to the folder and let you know when we get into it.	62119407	1473514884052	1473514884130	i	73
120356	1306620	I will add this to the folder and let you know when we get into it.	I will add this to the folder and let you know when we get into it.	62119408	1473514884131	1473514884217	t	84
120356	1306620	I will add this to the folder and let you know when we get into it.	I will add this to the folder and let you know when we get into it.	62119410	1473514884286	1473514884342	.	190
120356	1306628	French actress Juliette Binoche declared the festival open.	French actress Juliette Binoche declared the festival open.	62119491	1473514889233	1473514889447	SHIFT	16
120356	1306628	French actress Juliette Binoche declared the festival open.	French actress Juliette Binoche declared the festival open.	62119492	1473514889339	1473514889448	F	70
120356	1306628	French actress Juliette Binoche declared the festival open.	French actress Juliette Binoche declared the festival open.	62119493	1473514889567	1473514889686	r	82
120356	1306628	French actress Juliette Binoche declared the festival open.	French actress Juliette Binoche declared the festival open.	62119494	1473514889662	1473514889717	e	69
120356	1306628	French actress Juliette Binoche declared the festival open.	French actress Juliette Binoche declared the festival open.	62119495	1473514889748	1473514889851	n	78
120356	1306628	French actress Juliette Binoche declared the festival open.	French actress Juliette Binoche declared the festival open.	62119496	1473514889960	1473514890087	c	67
120356	1306628	French actress Juliette Binoche declared the festival open.	French actress Juliette Binoche declared the festival open.	62119529	1473514890031	1473514890182	e	69
120356	1306628	French actress Juliette Binoche declared the festival open.	French actress Juliette Binoche declared the festival open.	62119530	1473514890277	1473514890367	h	72
120356	1306628	French actress Juliette Binoche declared the festival open.	French actress Juliette Binoche declared the festival open.	62119531	1473514890693	1473514890748	BKSP	8
120356	1306628	French actress Juliette Binoche declared the festival open.	French actress Juliette Binoche declared the festival open.	62119532	1473514890842	1473514890954	 	32
120356	1306628	French actress Juliette Binoche declared the festival open.	French actress Juliette Binoche declared the festival open.	62119533	1473514891120	1473514891175	BKSP	8
120356	1306628	French actress Juliette Binoche declared the festival open.	French actress Juliette Binoche declared the festival open.	62119534	1473514891333	1473514891429	BKSP	8
120356	1306628	French actress Juliette Binoche declared the festival open.	French actress Juliette Binoche declared the festival open.	62119535	1473514891507	1473514891547	BKSP	8
120356	1306628	French actress Juliette Binoche declared the festival open.	French actress Juliette Binoche declared the festival open.	62119536	1473514892342	1473514892462	c	67
120356	1306628	French actress Juliette Binoche declared the festival open.	French actress Juliette Binoche declared the festival open.	62119537	1473514892460	1473514892585	h	72
120356	1306628	French actress Juliette Binoche declared the festival open.	French actress Juliette Binoche declared the festival open.	62119545	1473514892580	1473514892651	 	32
120356	1306628	French actress Juliette Binoche declared the festival open.	French actress Juliette Binoche declared the festival open.	62119546	1473514892934	1473514893096	a	65
120356	1306628	French actress Juliette Binoche declared the festival open.	French actress Juliette Binoche declared the festival open.	62119547	1473514893092	1473514893212	c	67
120356	1306628	French actress Juliette Binoche declared the festival open.	French actress Juliette Binoche declared the festival open.	62119549	1473514893250	1473514893373	t	84
120356	1306628	French actress Juliette Binoche declared the festival open.	French actress Juliette Binoche declared the festival open.	62119551	1473514893416	1473514893471	e	69
120356	1306628	French actress Juliette Binoche declared the festival open.	French actress Juliette Binoche declared the festival open.	62119554	1473514893768	1473514893832	BKSP	8
120356	1306628	French actress Juliette Binoche declared the festival open.	French actress Juliette Binoche declared the festival open.	62119557	1473514893915	1473514894035	r	82
120356	1306628	French actress Juliette Binoche declared the festival open.	French actress Juliette Binoche declared the festival open.	62119578	1473514893970	1473514894120	e	69
120356	1306628	French actress Juliette Binoche declared the festival open.	French actress Juliette Binoche declared the festival open.	62119579	1473514894096	1473514894150	s	83
120356	1306628	French actress Juliette Binoche declared the festival open.	French actress Juliette Binoche declared the festival open.	62119580	1473514894269	1473514894365	s	83
120356	1306628	French actress Juliette Binoche declared the festival open.	French actress Juliette Binoche declared the festival open.	62119581	1473514894526	1473514894685	 	32
120356	1306628	French actress Juliette Binoche declared the festival open.	French actress Juliette Binoche declared the festival open.	62119582	1473514894711	1473514894935	SHIFT	16
120356	1306628	French actress Juliette Binoche declared the festival open.	French actress Juliette Binoche declared the festival open.	62119584	1473514894857	1473514894937	J	74
120356	1306628	French actress Juliette Binoche declared the festival open.	French actress Juliette Binoche declared the festival open.	62119586	1473514895061	1473514895199	u	85
120356	1306628	French actress Juliette Binoche declared the festival open.	French actress Juliette Binoche declared the festival open.	62119598	1473514895196	1473514895331	l	76
120356	1306628	French actress Juliette Binoche declared the festival open.	French actress Juliette Binoche declared the festival open.	62119600	1473514895394	1473514895556	i	73
120356	1306628	French actress Juliette Binoche declared the festival open.	French actress Juliette Binoche declared the festival open.	62119602	1473514895582	1473514895710	e	69
120356	1306628	French actress Juliette Binoche declared the festival open.	French actress Juliette Binoche declared the festival open.	62119604	1473514895708	1473514895795	t	84
120356	1306628	French actress Juliette Binoche declared the festival open.	French actress Juliette Binoche declared the festival open.	62119605	1473514895874	1473514895985	t	84
120356	1306628	French actress Juliette Binoche declared the festival open.	French actress Juliette Binoche declared the festival open.	62119607	1473514896023	1473514896166	e	69
120356	1306628	French actress Juliette Binoche declared the festival open.	French actress Juliette Binoche declared the festival open.	62119620	1473514896145	1473514896256	 	32
120356	1306628	French actress Juliette Binoche declared the festival open.	French actress Juliette Binoche declared the festival open.	62119624	1473514896376	1473514896678	SHIFT	16
120356	1306628	French actress Juliette Binoche declared the festival open.	French actress Juliette Binoche declared the festival open.	62119622	1473514896546	1473514896657	B	66
120356	1306628	French actress Juliette Binoche declared the festival open.	French actress Juliette Binoche declared the festival open.	62119626	1473514896752	1473514896942	i	73
120356	1306628	French actress Juliette Binoche declared the festival open.	French actress Juliette Binoche declared the festival open.	62119628	1473514896918	1473514896972	n	78
120356	1306628	French actress Juliette Binoche declared the festival open.	French actress Juliette Binoche declared the festival open.	62119629	1473514897187	1473514897312	o	79
120356	1306628	French actress Juliette Binoche declared the festival open.	French actress Juliette Binoche declared the festival open.	62119630	1473514897313	1473514897423	c	67
120356	1306628	French actress Juliette Binoche declared the festival open.	French actress Juliette Binoche declared the festival open.	62119658	1473514897470	1473514897589	h	72
120356	1306628	French actress Juliette Binoche declared the festival open.	French actress Juliette Binoche declared the festival open.	62119659	1473514897643	1473514897801	e	69
120356	1306628	French actress Juliette Binoche declared the festival open.	French actress Juliette Binoche declared the festival open.	62119660	1473514897780	1473514897907	 	32
120356	1306628	French actress Juliette Binoche declared the festival open.	French actress Juliette Binoche declared the festival open.	62119661	1473514898046	1473514898142	d	68
120356	1306628	French actress Juliette Binoche declared the festival open.	French actress Juliette Binoche declared the festival open.	62119663	1473514898902	1473514898957	BKSP	8
120356	1306628	French actress Juliette Binoche declared the festival open.	French actress Juliette Binoche declared the festival open.	62119666	1473514899020	1473514899044	BKSP	8
120356	1306628	French actress Juliette Binoche declared the festival open.	French actress Juliette Binoche declared the festival open.	62119668	1473514899114	1473514899178	BKSP	8
120356	1306628	French actress Juliette Binoche declared the festival open.	French actress Juliette Binoche declared the festival open.	62119670	1473514901018	1473514901146	e	69
120356	1306628	French actress Juliette Binoche declared the festival open.	French actress Juliette Binoche declared the festival open.	62119684	1473514901243	1473514901330	 	32
120356	1306628	French actress Juliette Binoche declared the festival open.	French actress Juliette Binoche declared the festival open.	62119685	1473514901613	1473514901669	e	69
120356	1306628	French actress Juliette Binoche declared the festival open.	French actress Juliette Binoche declared the festival open.	62119686	1473514901998	1473514902085	BKSP	8
120356	1306628	French actress Juliette Binoche declared the festival open.	French actress Juliette Binoche declared the festival open.	62119687	1473514902136	1473514902216	d	68
120356	1306628	French actress Juliette Binoche declared the festival open.	French actress Juliette Binoche declared the festival open.	62119689	1473514902311	1473514902414	e	69
120356	1306628	French actress Juliette Binoche declared the festival open.	French actress Juliette Binoche declared the festival open.	62119691	1473514902500	1473514902620	c	67
120356	1306628	French actress Juliette Binoche declared the festival open.	French actress Juliette Binoche declared the festival open.	62119695	1473514902636	1473514902739	l	76
120356	1306628	French actress Juliette Binoche declared the festival open.	French actress Juliette Binoche declared the festival open.	62119696	1473514902705	1473514902845	a	65
120356	1306628	French actress Juliette Binoche declared the festival open.	French actress Juliette Binoche declared the festival open.	62119697	1473514902791	1473514902948	r	82
120356	1306628	French actress Juliette Binoche declared the festival open.	French actress Juliette Binoche declared the festival open.	62119698	1473514902916	1473514903043	e	69
120356	1306628	French actress Juliette Binoche declared the festival open.	French actress Juliette Binoche declared the festival open.	62119699	1473514903175	1473514903296	d	68
120356	1306628	French actress Juliette Binoche declared the festival open.	French actress Juliette Binoche declared the festival open.	62119713	1473514903251	1473514903352	 	32
120356	1306628	French actress Juliette Binoche declared the festival open.	French actress Juliette Binoche declared the festival open.	62119714	1473514903335	1473514903472	t	84
120356	1306628	French actress Juliette Binoche declared the festival open.	French actress Juliette Binoche declared the festival open.	62119715	1473514903467	1473514903554	h	72
120356	1306628	French actress Juliette Binoche declared the festival open.	French actress Juliette Binoche declared the festival open.	62119716	1473514903498	1473514903664	e	69
120356	1306628	French actress Juliette Binoche declared the festival open.	French actress Juliette Binoche declared the festival open.	62119717	1473514903602	1473514903729	 	32
120356	1306628	French actress Juliette Binoche declared the festival open.	French actress Juliette Binoche declared the festival open.	62119718	1473514903829	1473514903963	f	70
120356	1306628	French actress Juliette Binoche declared the festival open.	French actress Juliette Binoche declared the festival open.	62119719	1473514903966	1473514904171	e	69
120356	1306628	French actress Juliette Binoche declared the festival open.	French actress Juliette Binoche declared the festival open.	62119720	1473514904065	1473514904214	s	83
120356	1306628	French actress Juliette Binoche declared the festival open.	French actress Juliette Binoche declared the festival open.	62119721	1473514904167	1473514904262	t	84
120356	1306628	French actress Juliette Binoche declared the festival open.	French actress Juliette Binoche declared the festival open.	62119722	1473514904317	1473514904427	i	73
120356	1306628	French actress Juliette Binoche declared the festival open.	French actress Juliette Binoche declared the festival open.	62119723	1473514904428	1473514904562	v	86
120356	1306628	French actress Juliette Binoche declared the festival open.	French actress Juliette Binoche declared the festival open.	62119734	1473514904582	1473514904691	a	65
120356	1306628	French actress Juliette Binoche declared the festival open.	French actress Juliette Binoche declared the festival open.	62119735	1473514904687	1473514904766	l	76
120356	1306628	French actress Juliette Binoche declared the festival open.	French actress Juliette Binoche declared the festival open.	62119736	1473514904798	1473514904893	 	32
120356	1306628	French actress Juliette Binoche declared the festival open.	French actress Juliette Binoche declared the festival open.	62119737	1473514904962	1473514905065	i	73
120356	1306628	French actress Juliette Binoche declared the festival open.	French actress Juliette Binoche declared the festival open.	62119756	1473514905042	1473514905160	o	79
120356	1306628	French actress Juliette Binoche declared the festival open.	French actress Juliette Binoche declared the festival open.	62119757	1473514905129	1473514905222	p	80
120356	1306628	French actress Juliette Binoche declared the festival open.	French actress Juliette Binoche declared the festival open.	62119758	1473514905417	1473514905439	BKSP	8
120356	1306628	French actress Juliette Binoche declared the festival open.	French actress Juliette Binoche declared the festival open.	62119759	1473514905494	1473514905550	BKSP	8
120356	1306628	French actress Juliette Binoche declared the festival open.	French actress Juliette Binoche declared the festival open.	62119760	1473514905628	1473514905732	BKSP	8
120356	1306628	French actress Juliette Binoche declared the festival open.	French actress Juliette Binoche declared the festival open.	62119761	1473514906040	1473514906143	o	79
120356	1306628	French actress Juliette Binoche declared the festival open.	French actress Juliette Binoche declared the festival open.	62119762	1473514906120	1473514906230	p	80
120356	1306628	French actress Juliette Binoche declared the festival open.	French actress Juliette Binoche declared the festival open.	62119764	1473514906250	1473514906334	e	69
120356	1306628	French actress Juliette Binoche declared the festival open.	French actress Juliette Binoche declared the festival open.	62119781	1473514906329	1473514906392	n	78
120356	1306628	French actress Juliette Binoche declared the festival open.	French actress Juliette Binoche declared the festival open.	62119783	1473514906488	1473514906567	.	190
120356	1306634	However, he is expected to play in this week's game.	However, he is expected to play in this week's game.	62119832	1473514909677	1473514909884	SHIFT	16
120356	1306634	However, he is expected to play in this week's game.	However, he is expected to play in this week's game.	62119833	1473514909863	1473514910012	H	72
120356	1306634	However, he is expected to play in this week's game.	However, he is expected to play in this week's game.	62119834	1473514909982	1473514910092	o	79
120356	1306634	However, he is expected to play in this week's game.	However, he is expected to play in this week's game.	62119835	1473514910504	1473514910607	w	87
120356	1306634	However, he is expected to play in this week's game.	However, he is expected to play in this week's game.	62119836	1473514910710	1473514910861	e	69
120356	1306634	However, he is expected to play in this week's game.	However, he is expected to play in this week's game.	62119837	1473514910876	1473514910995	v	86
120356	1306634	However, he is expected to play in this week's game.	However, he is expected to play in this week's game.	62119847	1473514910997	1473514911153	e	69
120356	1306634	However, he is expected to play in this week's game.	However, he is expected to play in this week's game.	62119848	1473514911113	1473514911247	r	82
120356	1306634	However, he is expected to play in this week's game.	However, he is expected to play in this week's game.	62119849	1473514911536	1473514911631	,	188
120356	1306634	However, he is expected to play in this week's game.	However, he is expected to play in this week's game.	62119850	1473514911686	1473514911782	 	32
120356	1306634	However, he is expected to play in this week's game.	However, he is expected to play in this week's game.	62119851	1473514911850	1473514911977	h	72
120356	1306634	However, he is expected to play in this week's game.	However, he is expected to play in this week's game.	62119854	1473514911978	1473514912094	e	69
120356	1306634	However, he is expected to play in this week's game.	However, he is expected to play in this week's game.	62119855	1473514912049	1473514912151	 	32
120356	1306634	However, he is expected to play in this week's game.	However, he is expected to play in this week's game.	62119857	1473514912151	1473514912257	i	73
120356	1306634	However, he is expected to play in this week's game.	However, he is expected to play in this week's game.	62119859	1473514912258	1473514912398	s	83
120356	1306634	However, he is expected to play in this week's game.	However, he is expected to play in this week's game.	62119860	1473514912307	1473514912425	 	32
120356	1306634	However, he is expected to play in this week's game.	However, he is expected to play in this week's game.	62119861	1473514912501	1473514912580	e	69
120356	1306634	However, he is expected to play in this week's game.	However, he is expected to play in this week's game.	62119862	1473514912714	1473514912793	x	88
120356	1306634	However, he is expected to play in this week's game.	However, he is expected to play in this week's game.	62119863	1473514912970	1473514913055	p	80
120356	1306634	However, he is expected to play in this week's game.	However, he is expected to play in this week's game.	62119865	1473514913055	1473514913204	e	69
120356	1306634	However, he is expected to play in this week's game.	However, he is expected to play in this week's game.	62119882	1473514913140	1473514913270	c	67
120356	1306634	However, he is expected to play in this week's game.	However, he is expected to play in this week's game.	62119884	1473514913265	1473514913361	t	84
120356	1306634	However, he is expected to play in this week's game.	However, he is expected to play in this week's game.	62119887	1473514913879	1473514913950	e	69
120356	1306634	However, he is expected to play in this week's game.	However, he is expected to play in this week's game.	62119888	1473514914116	1473514914292	d	68
120356	1306634	However, he is expected to play in this week's game.	However, he is expected to play in this week's game.	62119890	1473514914207	1473514914314	 	32
120356	1306634	However, he is expected to play in this week's game.	However, he is expected to play in this week's game.	62119891	1473514914288	1473514914435	t	84
120356	1306634	However, he is expected to play in this week's game.	However, he is expected to play in this week's game.	62119892	1473514914430	1473514914508	o	79
120356	1306634	However, he is expected to play in this week's game.	However, he is expected to play in this week's game.	62119894	1473514914478	1473514914565	 	32
120356	1306634	However, he is expected to play in this week's game.	However, he is expected to play in this week's game.	62119896	1473514914618	1473514914831	p	80
120356	1306634	However, he is expected to play in this week's game.	However, he is expected to play in this week's game.	62119900	1473514914737	1473514914862	l	76
120356	1306634	However, he is expected to play in this week's game.	However, he is expected to play in this week's game.	62119901	1473514914804	1473514914928	a	65
120356	1306634	However, he is expected to play in this week's game.	However, he is expected to play in this week's game.	62119902	1473514914907	1473514915008	y	89
120356	1306634	However, he is expected to play in this week's game.	However, he is expected to play in this week's game.	62119903	1473514914963	1473514915057	 	32
120356	1306634	However, he is expected to play in this week's game.	However, he is expected to play in this week's game.	62119904	1473514915086	1473514915260	i	73
120356	1306634	However, he is expected to play in this week's game.	However, he is expected to play in this week's game.	62119905	1473514915197	1473514915291	n	78
120356	1306634	However, he is expected to play in this week's game.	However, he is expected to play in this week's game.	62119906	1473514915323	1473514915419	 	32
120356	1306634	However, he is expected to play in this week's game.	However, he is expected to play in this week's game.	62119907	1473514915439	1473514915557	t	84
120356	1306634	However, he is expected to play in this week's game.	However, he is expected to play in this week's game.	62119908	1473514915534	1473514915668	h	72
120356	1306634	However, he is expected to play in this week's game.	However, he is expected to play in this week's game.	62119909	1473514915628	1473514915747	i	73
120356	1306634	However, he is expected to play in this week's game.	However, he is expected to play in this week's game.	62119910	1473514915728	1473514915869	s	83
120356	1306634	However, he is expected to play in this week's game.	However, he is expected to play in this week's game.	62119920	1473514915826	1473514915904	 	32
120356	1306634	However, he is expected to play in this week's game.	However, he is expected to play in this week's game.	62119921	1473514916459	1473514916586	w	87
120356	1306634	However, he is expected to play in this week's game.	However, he is expected to play in this week's game.	62119922	1473514916562	1473514916632	e	69
120356	1306634	However, he is expected to play in this week's game.	However, he is expected to play in this week's game.	62119923	1473514916719	1473514916806	e	69
120356	1306634	However, he is expected to play in this week's game.	However, he is expected to play in this week's game.	62119924	1473514916822	1473514916934	k	75
120356	1306634	However, he is expected to play in this week's game.	However, he is expected to play in this week's game.	62119925	1473514916978	1473514917073	s	83
120356	1306634	However, he is expected to play in this week's game.	However, he is expected to play in this week's game.	62119941	1473514917459	1473514917547	BKSP	8
120356	1306634	However, he is expected to play in this week's game.	However, he is expected to play in this week's game.	62119943	1473514917696	1473514917807	'	222
120356	1306634	However, he is expected to play in this week's game.	However, he is expected to play in this week's game.	62119945	1473514917890	1473514917997	s	83
120356	1306634	However, he is expected to play in this week's game.	However, he is expected to play in this week's game.	62119947	1473514917993	1473514918099	 	32
120356	1306634	However, he is expected to play in this week's game.	However, he is expected to play in this week's game.	62119948	1473514918343	1473514918469	g	71
120356	1306634	However, he is expected to play in this week's game.	However, he is expected to play in this week's game.	62119960	1473514918445	1473514918565	a	65
120356	1306634	However, he is expected to play in this week's game.	However, he is expected to play in this week's game.	62119961	1473514918563	1473514918650	m	77
120356	1306634	However, he is expected to play in this week's game.	However, he is expected to play in this week's game.	62119962	1473514918651	1473514918724	e	69
120356	1306634	However, he is expected to play in this week's game.	However, he is expected to play in this week's game.	62119963	1473514918784	1473514918863	.	190
120356	1306639	Sure was good talking to you this AM.	Sure was good talking to you this AM.	62119993	1473514921859	1473514922114	SHIFT	16
120356	1306639	Sure was good talking to you this AM.	Sure was good talking to you this AM.	62119994	1473514921995	1473514922155	S	83
120356	1306639	Sure was good talking to you this AM.	Sure was good talking to you this AM.	62119995	1473514922170	1473514922305	u	85
120356	1306639	Sure was good talking to you this AM.	Sure was good talking to you this AM.	62119996	1473514922306	1473514922413	r	82
120356	1306639	Sure was good talking to you this AM.	Sure was good talking to you this AM.	62119997	1473514922366	1473514922531	e	69
120356	1306639	Sure was good talking to you this AM.	Sure was good talking to you this AM.	62120009	1473514922486	1473514922637	 	32
120356	1306639	Sure was good talking to you this AM.	Sure was good talking to you this AM.	62120011	1473514922637	1473514922743	w	87
120356	1306639	Sure was good talking to you this AM.	Sure was good talking to you this AM.	62120012	1473514922726	1473514922904	a	65
120356	1306639	Sure was good talking to you this AM.	Sure was good talking to you this AM.	62120015	1473514922869	1473514923050	s	83
120356	1306639	Sure was good talking to you this AM.	Sure was good talking to you this AM.	62120018	1473514922974	1473514923089	 	32
120356	1306639	Sure was good talking to you this AM.	Sure was good talking to you this AM.	62120021	1473514923090	1473514923209	g	71
120356	1306639	Sure was good talking to you this AM.	Sure was good talking to you this AM.	62120042	1473514923206	1473514923263	o	79
120356	1306639	Sure was good talking to you this AM.	Sure was good talking to you this AM.	62120043	1473514923333	1473514923413	o	79
120356	1306639	Sure was good talking to you this AM.	Sure was good talking to you this AM.	62120044	1473514923441	1473514923575	d	68
120356	1306639	Sure was good talking to you this AM.	Sure was good talking to you this AM.	62120045	1473514923515	1473514923625	 	32
120356	1306639	Sure was good talking to you this AM.	Sure was good talking to you this AM.	62120046	1473514923653	1473514923797	t	84
120356	1306639	Sure was good talking to you this AM.	Sure was good talking to you this AM.	62120047	1473514923834	1473514923937	a	65
120356	1306639	Sure was good talking to you this AM.	Sure was good talking to you this AM.	62120067	1473514923979	1473514924122	l	76
120356	1306639	Sure was good talking to you this AM.	Sure was good talking to you this AM.	62120068	1473514924559	1473514924656	k	75
120356	1306639	Sure was good talking to you this AM.	Sure was good talking to you this AM.	62120069	1473514924805	1473514924979	i	73
120356	1306639	Sure was good talking to you this AM.	Sure was good talking to you this AM.	62120070	1473514924916	1473514925040	n	78
120356	1306639	Sure was good talking to you this AM.	Sure was good talking to you this AM.	62120071	1473514925041	1473514925144	g	71
120356	1306639	Sure was good talking to you this AM.	Sure was good talking to you this AM.	62120080	1473514925141	1473514925270	 	32
120356	1306639	Sure was good talking to you this AM.	Sure was good talking to you this AM.	62120083	1473514925245	1473514925365	t	84
120356	1306639	Sure was good talking to you this AM.	Sure was good talking to you this AM.	62120086	1473514925363	1473514925434	o	79
120356	1306639	Sure was good talking to you this AM.	Sure was good talking to you this AM.	62120088	1473514925449	1473514925521	 	32
120356	1306639	Sure was good talking to you this AM.	Sure was good talking to you this AM.	62120090	1473514925549	1473514925660	y	89
120356	1306639	Sure was good talking to you this AM.	Sure was good talking to you this AM.	62120092	1473514925637	1473514925827	o	79
120356	1306639	Sure was good talking to you this AM.	Sure was good talking to you this AM.	62120093	1473514925738	1473514925864	u	85
120356	1306639	Sure was good talking to you this AM.	Sure was good talking to you this AM.	62120094	1473514925842	1473514925936	 	32
120356	1306639	Sure was good talking to you this AM.	Sure was good talking to you this AM.	62120095	1473514925937	1473514926044	t	84
120356	1306639	Sure was good talking to you this AM.	Sure was good talking to you this AM.	62120096	1473514926098	1473514926180	h	72
120356	1306639	Sure was good talking to you this AM.	Sure was good talking to you this AM.	62120104	1473514926177	1473514926361	i	73
120356	1306639	Sure was good talking to you this AM.	Sure was good talking to you this AM.	62120105	1473514926596	1473514926734	s	83
120356	1306639	Sure was good talking to you this AM.	Sure was good talking to you this AM.	62120106	1473514926732	1473514926827	m	77
120356	1306639	Sure was good talking to you this AM.	Sure was good talking to you this AM.	62120107	1473514926884	1473514926923	 	32
120356	1306639	Sure was good talking to you this AM.	Sure was good talking to you this AM.	62120127	1473514926948	1473514927211	SHIFT	16
120356	1306639	Sure was good talking to you this AM.	Sure was good talking to you this AM.	62120108	1473514927036	1473514927160	A	65
120356	1306639	Sure was good talking to you this AM.	Sure was good talking to you this AM.	62120128	1473514927156	1473514927213	M	77
120356	1306639	Sure was good talking to you this AM.	Sure was good talking to you this AM.	62120129	1473514927771	1473514927810	BKSP	8
120356	1306639	Sure was good talking to you this AM.	Sure was good talking to you this AM.	62120130	1473514927896	1473514927928	BKSP	8
120356	1306639	Sure was good talking to you this AM.	Sure was good talking to you this AM.	62120131	1473514927990	1473514928014	BKSP	8
120356	1306639	Sure was good talking to you this AM.	Sure was good talking to you this AM.	62120132	1473514928092	1473514928163	BKSP	8
120356	1306639	Sure was good talking to you this AM.	Sure was good talking to you this AM.	62120133	1473514928450	1473514928548	 	32
120356	1306639	Sure was good talking to you this AM.	Sure was good talking to you this AM.	62120136	1473514928546	1473514928853	SHIFT	16
120356	1306639	Sure was good talking to you this AM.	Sure was good talking to you this AM.	62120134	1473514928626	1473514928730	A	65
120356	1306639	Sure was good talking to you this AM.	Sure was good talking to you this AM.	62120135	1473514928762	1473514928818	M	77
120356	1306639	Sure was good talking to you this AM.	Sure was good talking to you this AM.	62120137	1473514928992	1473514929056	.	190
120356	1306643	Thanks for keeping your eyes out there on our stuff!	Thanks for keeping your eyes out there on our stuff!	62120186	1473514931597	1473514931810	SHIFT	16
120356	1306643	Thanks for keeping your eyes out there on our stuff!	Thanks for keeping your eyes out there on our stuff!	62120187	1473514931703	1473514931811	T	84
120356	1306643	Thanks for keeping your eyes out there on our stuff!	Thanks for keeping your eyes out there on our stuff!	62120188	1473514931836	1473514931931	h	72
120356	1306643	Thanks for keeping your eyes out there on our stuff!	Thanks for keeping your eyes out there on our stuff!	62120189	1473514932031	1473514932095	a	65
120356	1306643	Thanks for keeping your eyes out there on our stuff!	Thanks for keeping your eyes out there on our stuff!	62120190	1473514932111	1473514932222	n	78
120356	1306643	Thanks for keeping your eyes out there on our stuff!	Thanks for keeping your eyes out there on our stuff!	62120215	1473514932199	1473514932293	k	75
120356	1306643	Thanks for keeping your eyes out there on our stuff!	Thanks for keeping your eyes out there on our stuff!	62120217	1473514932325	1473514932437	 	32
120356	1306643	Thanks for keeping your eyes out there on our stuff!	Thanks for keeping your eyes out there on our stuff!	62120219	1473514932914	1473514932978	BKSP	8
120356	1306643	Thanks for keeping your eyes out there on our stuff!	Thanks for keeping your eyes out there on our stuff!	62120221	1473514933028	1473514933179	s	83
120356	1306643	Thanks for keeping your eyes out there on our stuff!	Thanks for keeping your eyes out there on our stuff!	62120223	1473514933111	1473514933221	 	32
120356	1306643	Thanks for keeping your eyes out there on our stuff!	Thanks for keeping your eyes out there on our stuff!	62120225	1473514933249	1473514933321	f	70
120356	1306643	Thanks for keeping your eyes out there on our stuff!	Thanks for keeping your eyes out there on our stuff!	62120230	1473514933385	1473514933504	o	79
120356	1306643	Thanks for keeping your eyes out there on our stuff!	Thanks for keeping your eyes out there on our stuff!	62120244	1473514933533	1473514933667	r	82
120356	1306643	Thanks for keeping your eyes out there on our stuff!	Thanks for keeping your eyes out there on our stuff!	62120246	1473514933646	1473514933757	 	32
120356	1306643	Thanks for keeping your eyes out there on our stuff!	Thanks for keeping your eyes out there on our stuff!	62120248	1473514933858	1473514933937	k	75
120356	1306643	Thanks for keeping your eyes out there on our stuff!	Thanks for keeping your eyes out there on our stuff!	62120250	1473514933966	1473514934037	e	69
120356	1306643	Thanks for keeping your eyes out there on our stuff!	Thanks for keeping your eyes out there on our stuff!	62120252	1473514934115	1473514934235	e	69
120356	1306643	Thanks for keeping your eyes out there on our stuff!	Thanks for keeping your eyes out there on our stuff!	62120254	1473514934213	1473514934283	p	80
120356	1306643	Thanks for keeping your eyes out there on our stuff!	Thanks for keeping your eyes out there on our stuff!	62120255	1473514934417	1473514934575	i	73
120356	1306643	Thanks for keeping your eyes out there on our stuff!	Thanks for keeping your eyes out there on our stuff!	62120256	1473514934495	1473514934644	n	78
120356	1306643	Thanks for keeping your eyes out there on our stuff!	Thanks for keeping your eyes out there on our stuff!	62120258	1473514934645	1473514934746	g	71
120356	1306643	Thanks for keeping your eyes out there on our stuff!	Thanks for keeping your eyes out there on our stuff!	62120260	1473514934709	1473514934810	 	32
120356	1306643	Thanks for keeping your eyes out there on our stuff!	Thanks for keeping your eyes out there on our stuff!	62120262	1473514934811	1473514934913	y	89
120356	1306643	Thanks for keeping your eyes out there on our stuff!	Thanks for keeping your eyes out there on our stuff!	62120275	1473514934911	1473514935061	o	79
120356	1306643	Thanks for keeping your eyes out there on our stuff!	Thanks for keeping your eyes out there on our stuff!	62120276	1473514935013	1473514935106	u	85
120356	1306643	Thanks for keeping your eyes out there on our stuff!	Thanks for keeping your eyes out there on our stuff!	62120277	1473514935090	1473514935200	r	82
120356	1306643	Thanks for keeping your eyes out there on our stuff!	Thanks for keeping your eyes out there on our stuff!	62120278	1473514935337	1473514935445	 	32
120356	1306643	Thanks for keeping your eyes out there on our stuff!	Thanks for keeping your eyes out there on our stuff!	62120279	1473514935643	1473514935771	e	69
120356	1306643	Thanks for keeping your eyes out there on our stuff!	Thanks for keeping your eyes out there on our stuff!	62120293	1473514935754	1473514935808	s	83
120356	1306643	Thanks for keeping your eyes out there on our stuff!	Thanks for keeping your eyes out there on our stuff!	62120295	1473514936114	1473514936210	BKSP	8
120356	1306643	Thanks for keeping your eyes out there on our stuff!	Thanks for keeping your eyes out there on our stuff!	62120297	1473514936671	1473514936803	y	89
120356	1306643	Thanks for keeping your eyes out there on our stuff!	Thanks for keeping your eyes out there on our stuff!	62120299	1473514936804	1473514936953	e	69
120356	1306643	Thanks for keeping your eyes out there on our stuff!	Thanks for keeping your eyes out there on our stuff!	62120302	1473514936954	1473514937133	s	83
120356	1306643	Thanks for keeping your eyes out there on our stuff!	Thanks for keeping your eyes out there on our stuff!	62120305	1473514937105	1473514937240	 	32
120356	1306643	Thanks for keeping your eyes out there on our stuff!	Thanks for keeping your eyes out there on our stuff!	62120307	1473514937293	1473514937444	o	79
120356	1306643	Thanks for keeping your eyes out there on our stuff!	Thanks for keeping your eyes out there on our stuff!	62120311	1473514937387	1473514937497	u	85
120356	1306643	Thanks for keeping your eyes out there on our stuff!	Thanks for keeping your eyes out there on our stuff!	62120313	1473514937497	1473514937614	t	84
120356	1306643	Thanks for keeping your eyes out there on our stuff!	Thanks for keeping your eyes out there on our stuff!	62120315	1473514937585	1473514937708	 	32
120356	1306643	Thanks for keeping your eyes out there on our stuff!	Thanks for keeping your eyes out there on our stuff!	62120319	1473514937709	1473514937787	t	84
120356	1306643	Thanks for keeping your eyes out there on our stuff!	Thanks for keeping your eyes out there on our stuff!	62120323	1473514937801	1473514937911	h	72
120356	1306643	Thanks for keeping your eyes out there on our stuff!	Thanks for keeping your eyes out there on our stuff!	62120325	1473514937912	1473514937981	e	69
120356	1306643	Thanks for keeping your eyes out there on our stuff!	Thanks for keeping your eyes out there on our stuff!	62120333	1473514937950	1473514938091	r	82
120356	1306643	Thanks for keeping your eyes out there on our stuff!	Thanks for keeping your eyes out there on our stuff!	62120334	1473514938059	1473514938200	e	69
120356	1306643	Thanks for keeping your eyes out there on our stuff!	Thanks for keeping your eyes out there on our stuff!	62120335	1473514938156	1473514938242	 	32
120356	1306643	Thanks for keeping your eyes out there on our stuff!	Thanks for keeping your eyes out there on our stuff!	62120336	1473514938296	1473514938470	o	79
120356	1306643	Thanks for keeping your eyes out there on our stuff!	Thanks for keeping your eyes out there on our stuff!	62120337	1473514938414	1473514938508	n	78
120356	1306643	Thanks for keeping your eyes out there on our stuff!	Thanks for keeping your eyes out there on our stuff!	62120338	1473514938549	1473514938636	 	32
120356	1306643	Thanks for keeping your eyes out there on our stuff!	Thanks for keeping your eyes out there on our stuff!	62120343	1473514938705	1473514938856	o	79
120356	1306643	Thanks for keeping your eyes out there on our stuff!	Thanks for keeping your eyes out there on our stuff!	62120345	1473514938799	1473514938925	u	85
120356	1306643	Thanks for keeping your eyes out there on our stuff!	Thanks for keeping your eyes out there on our stuff!	62120347	1473514938925	1473514939026	r	82
120356	1306643	Thanks for keeping your eyes out there on our stuff!	Thanks for keeping your eyes out there on our stuff!	62120349	1473514938997	1473514939127	 	32
120356	1306643	Thanks for keeping your eyes out there on our stuff!	Thanks for keeping your eyes out there on our stuff!	62120352	1473514939128	1473514939268	s	83
120356	1306643	Thanks for keeping your eyes out there on our stuff!	Thanks for keeping your eyes out there on our stuff!	62120360	1473514939191	1473514939309	t	84
120356	1306643	Thanks for keeping your eyes out there on our stuff!	Thanks for keeping your eyes out there on our stuff!	62120361	1473514939347	1473514939443	u	85
120356	1306643	Thanks for keeping your eyes out there on our stuff!	Thanks for keeping your eyes out there on our stuff!	62120362	1473514939505	1473514939585	f	70
120356	1306643	Thanks for keeping your eyes out there on our stuff!	Thanks for keeping your eyes out there on our stuff!	62120363	1473514939654	1473514939726	f	70
120356	1306643	Thanks for keeping your eyes out there on our stuff!	Thanks for keeping your eyes out there on our stuff!	62120364	1473514939786	1473514939975	SHIFT	16
120356	1306643	Thanks for keeping your eyes out there on our stuff!	Thanks for keeping your eyes out there on our stuff!	62120365	1473514939874	1473514939977	!	49
120356	1306646	Mansell has not forgotten what the ovals have meant to him, however.	Mansell has not forgotten what the ovals have meant to him, however.	62120434	1473514942464	1473514942718	SHIFT	16
120356	1306646	Mansell has not forgotten what the ovals have meant to him, however.	Mansell has not forgotten what the ovals have meant to him, however.	62120435	1473514942642	1473514942768	M	77
120356	1306646	Mansell has not forgotten what the ovals have meant to him, however.	Mansell has not forgotten what the ovals have meant to him, however.	62120436	1473514942863	1473514942935	a	65
120356	1306646	Mansell has not forgotten what the ovals have meant to him, however.	Mansell has not forgotten what the ovals have meant to him, however.	62120438	1473514942930	1473514943020	n	78
120356	1306646	Mansell has not forgotten what the ovals have meant to him, however.	Mansell has not forgotten what the ovals have meant to him, however.	62120440	1473514943113	1473514943271	s	83
120356	1306646	Mansell has not forgotten what the ovals have meant to him, however.	Mansell has not forgotten what the ovals have meant to him, however.	62120454	1473514943224	1473514943358	e	69
120356	1306646	Mansell has not forgotten what the ovals have meant to him, however.	Mansell has not forgotten what the ovals have meant to him, however.	62120455	1473514943447	1473514943510	l	76
120356	1306646	Mansell has not forgotten what the ovals have meant to him, however.	Mansell has not forgotten what the ovals have meant to him, however.	62120456	1473514943596	1473514943636	l	76
120356	1306646	Mansell has not forgotten what the ovals have meant to him, however.	Mansell has not forgotten what the ovals have meant to him, however.	62120457	1473514943692	1473514943811	 	32
120356	1306646	Mansell has not forgotten what the ovals have meant to him, however.	Mansell has not forgotten what the ovals have meant to him, however.	62120458	1473514943935	1473514944047	h	72
120356	1306646	Mansell has not forgotten what the ovals have meant to him, however.	Mansell has not forgotten what the ovals have meant to him, however.	62120459	1473514944082	1473514944217	a	65
120356	1306646	Mansell has not forgotten what the ovals have meant to him, however.	Mansell has not forgotten what the ovals have meant to him, however.	62120460	1473514944146	1473514944303	s	83
120356	1306646	Mansell has not forgotten what the ovals have meant to him, however.	Mansell has not forgotten what the ovals have meant to him, however.	62120461	1473514944244	1473514944368	 	32
120356	1306646	Mansell has not forgotten what the ovals have meant to him, however.	Mansell has not forgotten what the ovals have meant to him, however.	62120462	1473514944368	1473514944469	n	78
120356	1306646	Mansell has not forgotten what the ovals have meant to him, however.	Mansell has not forgotten what the ovals have meant to him, however.	62120464	1473514944438	1473514944564	o	79
120356	1306646	Mansell has not forgotten what the ovals have meant to him, however.	Mansell has not forgotten what the ovals have meant to him, however.	62120468	1473514944539	1473514944666	t	84
120356	1306646	Mansell has not forgotten what the ovals have meant to him, however.	Mansell has not forgotten what the ovals have meant to him, however.	62120521	1473514944664	1473514944761	 	32
120356	1306646	Mansell has not forgotten what the ovals have meant to him, however.	Mansell has not forgotten what the ovals have meant to him, however.	62120522	1473514945037	1473514945157	g	71
120356	1306646	Mansell has not forgotten what the ovals have meant to him, however.	Mansell has not forgotten what the ovals have meant to him, however.	62120523	1473514945260	1473514945356	o	79
120356	1306646	Mansell has not forgotten what the ovals have meant to him, however.	Mansell has not forgotten what the ovals have meant to him, however.	62120524	1473514945640	1473514945711	r	82
120356	1306646	Mansell has not forgotten what the ovals have meant to him, however.	Mansell has not forgotten what the ovals have meant to him, however.	62120526	1473514945993	1473514946074	BKSP	8
120356	1306646	Mansell has not forgotten what the ovals have meant to him, however.	Mansell has not forgotten what the ovals have meant to him, however.	62120528	1473514946196	1473514946260	BKSP	8
120356	1306646	Mansell has not forgotten what the ovals have meant to him, however.	Mansell has not forgotten what the ovals have meant to him, however.	62120530	1473514946447	1473514946560	f	70
120356	1306646	Mansell has not forgotten what the ovals have meant to him, however.	Mansell has not forgotten what the ovals have meant to him, however.	62120532	1473514946712	1473514946784	BKSP	8
120356	1306646	Mansell has not forgotten what the ovals have meant to him, however.	Mansell has not forgotten what the ovals have meant to him, however.	62120534	1473514946854	1473514946926	BKSP	8
120356	1306646	Mansell has not forgotten what the ovals have meant to him, however.	Mansell has not forgotten what the ovals have meant to him, however.	62120535	1473514947082	1473514947160	f	70
120356	1306646	Mansell has not forgotten what the ovals have meant to him, however.	Mansell has not forgotten what the ovals have meant to him, however.	62120551	1473514947320	1473514947440	o	79
120356	1306646	Mansell has not forgotten what the ovals have meant to him, however.	Mansell has not forgotten what the ovals have meant to him, however.	62120553	1473514947740	1473514947836	r	82
120356	1306646	Mansell has not forgotten what the ovals have meant to him, however.	Mansell has not forgotten what the ovals have meant to him, however.	62120556	1473514947986	1473514948105	g	71
120356	1306646	Mansell has not forgotten what the ovals have meant to him, however.	Mansell has not forgotten what the ovals have meant to him, however.	62120559	1473514948348	1473514948424	o	79
120356	1306646	Mansell has not forgotten what the ovals have meant to him, however.	Mansell has not forgotten what the ovals have meant to him, however.	62120561	1473514948477	1473514948565	t	84
120356	1306646	Mansell has not forgotten what the ovals have meant to him, however.	Mansell has not forgotten what the ovals have meant to him, however.	62120563	1473514948635	1473514948729	t	84
120356	1306646	Mansell has not forgotten what the ovals have meant to him, however.	Mansell has not forgotten what the ovals have meant to him, however.	62120565	1473514948730	1473514948847	e	69
120356	1306646	Mansell has not forgotten what the ovals have meant to him, however.	Mansell has not forgotten what the ovals have meant to him, however.	62120567	1473514948824	1473514948903	n	78
120356	1306646	Mansell has not forgotten what the ovals have meant to him, however.	Mansell has not forgotten what the ovals have meant to him, however.	62120569	1473514948943	1473514949046	 	32
120356	1306646	Mansell has not forgotten what the ovals have meant to him, however.	Mansell has not forgotten what the ovals have meant to him, however.	62120593	1473514949026	1473514949129	w	87
120356	1306646	Mansell has not forgotten what the ovals have meant to him, however.	Mansell has not forgotten what the ovals have meant to him, however.	62120594	1473514949379	1473514949496	h	72
120356	1306646	Mansell has not forgotten what the ovals have meant to him, however.	Mansell has not forgotten what the ovals have meant to him, however.	62120595	1473514949596	1473514949755	a	65
120356	1306646	Mansell has not forgotten what the ovals have meant to him, however.	Mansell has not forgotten what the ovals have meant to him, however.	62120596	1473514949676	1473514949810	t	84
120356	1306646	Mansell has not forgotten what the ovals have meant to him, however.	Mansell has not forgotten what the ovals have meant to him, however.	62120597	1473514949789	1473514949920	 	32
120356	1306646	Mansell has not forgotten what the ovals have meant to him, however.	Mansell has not forgotten what the ovals have meant to him, however.	62120598	1473514949920	1473514950015	t	84
120356	1306646	Mansell has not forgotten what the ovals have meant to him, however.	Mansell has not forgotten what the ovals have meant to him, however.	62120603	1473514950038	1473514950148	h	72
120356	1306646	Mansell has not forgotten what the ovals have meant to him, however.	Mansell has not forgotten what the ovals have meant to him, however.	62120605	1473514950115	1473514950249	e	69
120356	1306646	Mansell has not forgotten what the ovals have meant to him, however.	Mansell has not forgotten what the ovals have meant to him, however.	62120607	1473514950197	1473514950314	 	32
120356	1306646	Mansell has not forgotten what the ovals have meant to him, however.	Mansell has not forgotten what the ovals have meant to him, however.	62120610	1473514950368	1473514950439	o	79
120356	1306646	Mansell has not forgotten what the ovals have meant to him, however.	Mansell has not forgotten what the ovals have meant to him, however.	62120612	1473514950508	1473514950588	v	86
120356	1306646	Mansell has not forgotten what the ovals have meant to him, however.	Mansell has not forgotten what the ovals have meant to him, however.	62120617	1473514950625	1473514950696	a	65
120356	1306646	Mansell has not forgotten what the ovals have meant to him, however.	Mansell has not forgotten what the ovals have meant to him, however.	62120619	1473514950713	1473514950793	l	76
120356	1306646	Mansell has not forgotten what the ovals have meant to him, however.	Mansell has not forgotten what the ovals have meant to him, however.	62120621	1473514950829	1473514950972	s	83
120356	1306646	Mansell has not forgotten what the ovals have meant to him, however.	Mansell has not forgotten what the ovals have meant to him, however.	62120623	1473514950928	1473514951046	 	32
120356	1306646	Mansell has not forgotten what the ovals have meant to him, however.	Mansell has not forgotten what the ovals have meant to him, however.	62120627	1473514951082	1473514951217	h	72
120356	1306646	Mansell has not forgotten what the ovals have meant to him, however.	Mansell has not forgotten what the ovals have meant to him, however.	62120633	1473514951218	1473514951372	a	65
120356	1306646	Mansell has not forgotten what the ovals have meant to him, however.	Mansell has not forgotten what the ovals have meant to him, however.	62120634	1473514951311	1473514951452	v	86
120356	1306646	Mansell has not forgotten what the ovals have meant to him, however.	Mansell has not forgotten what the ovals have meant to him, however.	62120635	1473514951387	1473514951554	e	69
120356	1306646	Mansell has not forgotten what the ovals have meant to him, however.	Mansell has not forgotten what the ovals have meant to him, however.	62120636	1473514951485	1473514951610	 	32
120356	1306646	Mansell has not forgotten what the ovals have meant to him, however.	Mansell has not forgotten what the ovals have meant to him, however.	62120638	1473514951611	1473514951718	m	77
120356	1306646	Mansell has not forgotten what the ovals have meant to him, however.	Mansell has not forgotten what the ovals have meant to him, however.	62120653	1473514951693	1473514951819	e	69
120356	1306646	Mansell has not forgotten what the ovals have meant to him, however.	Mansell has not forgotten what the ovals have meant to him, however.	62120655	1473514951794	1473514951903	a	65
120356	1306646	Mansell has not forgotten what the ovals have meant to him, however.	Mansell has not forgotten what the ovals have meant to him, however.	62120658	1473514951850	1473514951961	n	78
120356	1306646	Mansell has not forgotten what the ovals have meant to him, however.	Mansell has not forgotten what the ovals have meant to him, however.	62120661	1473514952054	1473514952202	t	84
120356	1306646	Mansell has not forgotten what the ovals have meant to him, however.	Mansell has not forgotten what the ovals have meant to him, however.	62120665	1473514952199	1473514952318	 	32
120356	1306646	Mansell has not forgotten what the ovals have meant to him, however.	Mansell has not forgotten what the ovals have meant to him, however.	62120666	1473514952474	1473514952569	t	84
120356	1306646	Mansell has not forgotten what the ovals have meant to him, however.	Mansell has not forgotten what the ovals have meant to him, however.	62120675	1473514952721	1473514952840	o	79
120356	1306646	Mansell has not forgotten what the ovals have meant to him, however.	Mansell has not forgotten what the ovals have meant to him, however.	62120676	1473514952864	1473514952959	 	32
120356	1306646	Mansell has not forgotten what the ovals have meant to him, however.	Mansell has not forgotten what the ovals have meant to him, however.	62120678	1473514952995	1473514953108	h	72
120356	1306646	Mansell has not forgotten what the ovals have meant to him, however.	Mansell has not forgotten what the ovals have meant to him, however.	62120680	1473514953106	1473514953240	i	73
120356	1306646	Mansell has not forgotten what the ovals have meant to him, however.	Mansell has not forgotten what the ovals have meant to him, however.	62120684	1473514953241	1473514953343	m	77
120356	1306646	Mansell has not forgotten what the ovals have meant to him, however.	Mansell has not forgotten what the ovals have meant to him, however.	62120690	1473514953437	1473514953533	,	188
120356	1306646	Mansell has not forgotten what the ovals have meant to him, however.	Mansell has not forgotten what the ovals have meant to him, however.	62120691	1473514953565	1473514953636	 	32
120356	1306646	Mansell has not forgotten what the ovals have meant to him, however.	Mansell has not forgotten what the ovals have meant to him, however.	62120692	1473514953720	1473514953863	h	72
120356	1306646	Mansell has not forgotten what the ovals have meant to him, however.	Mansell has not forgotten what the ovals have meant to him, however.	62120693	1473514953832	1473514953935	o	79
120356	1306646	Mansell has not forgotten what the ovals have meant to him, however.	Mansell has not forgotten what the ovals have meant to him, however.	62120694	1473514953963	1473514954105	w	87
120356	1306646	Mansell has not forgotten what the ovals have meant to him, however.	Mansell has not forgotten what the ovals have meant to him, however.	62120711	1473514954074	1473514954208	e	69
120356	1306646	Mansell has not forgotten what the ovals have meant to him, however.	Mansell has not forgotten what the ovals have meant to him, however.	62120712	1473514954287	1473514954397	v	86
120356	1306646	Mansell has not forgotten what the ovals have meant to him, however.	Mansell has not forgotten what the ovals have meant to him, however.	62120713	1473514954398	1473514954547	e	69
120356	1306646	Mansell has not forgotten what the ovals have meant to him, however.	Mansell has not forgotten what the ovals have meant to him, however.	62120714	1473514954516	1473514954626	r	82
120356	1306646	Mansell has not forgotten what the ovals have meant to him, however.	Mansell has not forgotten what the ovals have meant to him, however.	62120715	1473514954650	1473514954779	.	190
120356	1306655	Has your 4th quarter changed?	Has your 4th quarter changed?	62120797	1473514957422	1473514957573	SHIFT	16
120356	1306655	Has your 4th quarter changed?	Has your 4th quarter changed?	62120799	1473514957496	1473514957628	H	72
120356	1306655	Has your 4th quarter changed?	Has your 4th quarter changed?	62120802	1473514957699	1473514957841	a	65
120356	1306655	Has your 4th quarter changed?	Has your 4th quarter changed?	62120805	1473514957802	1473514957968	s	83
120356	1306655	Has your 4th quarter changed?	Has your 4th quarter changed?	62120808	1473514957940	1473514958057	 	32
120356	1306655	Has your 4th quarter changed?	Has your 4th quarter changed?	62120826	1473514958008	1473514958127	y	89
120356	1306655	Has your 4th quarter changed?	Has your 4th quarter changed?	62120828	1473514958125	1473514958292	o	79
120356	1306655	Has your 4th quarter changed?	Has your 4th quarter changed?	62120830	1473514958219	1473514958338	u	85
120356	1306655	Has your 4th quarter changed?	Has your 4th quarter changed?	62120831	1473514958378	1473514958426	 	32
120356	1306655	Has your 4th quarter changed?	Has your 4th quarter changed?	62120832	1473514958656	1473514958751	BKSP	8
120356	1306655	Has your 4th quarter changed?	Has your 4th quarter changed?	62120833	1473514958787	1473514958913	r	82
120356	1306655	Has your 4th quarter changed?	Has your 4th quarter changed?	62120850	1473514958877	1473514959003	 	32
120356	1306655	Has your 4th quarter changed?	Has your 4th quarter changed?	62120851	1473514959110	1473514959231	4	52
120356	1306655	Has your 4th quarter changed?	Has your 4th quarter changed?	62120852	1473514959229	1473514959302	 	32
120356	1306655	Has your 4th quarter changed?	Has your 4th quarter changed?	62120853	1473514959644	1473514959748	BKSP	8
120356	1306655	Has your 4th quarter changed?	Has your 4th quarter changed?	62120854	1473514959824	1473514959944	t	84
120356	1306655	Has your 4th quarter changed?	Has your 4th quarter changed?	62120855	1473514959942	1473514960029	h	72
120356	1306655	Has your 4th quarter changed?	Has your 4th quarter changed?	62120856	1473514960086	1473514960205	 	32
120356	1306655	Has your 4th quarter changed?	Has your 4th quarter changed?	62120869	1473514960415	1473514960487	q	81
120356	1306655	Has your 4th quarter changed?	Has your 4th quarter changed?	62120870	1473514960567	1473514960654	u	85
120356	1306655	Has your 4th quarter changed?	Has your 4th quarter changed?	62120871	1473514960755	1473514960890	a	65
120356	1306655	Has your 4th quarter changed?	Has your 4th quarter changed?	62120872	1473514960852	1473514960954	r	82
120356	1306655	Has your 4th quarter changed?	Has your 4th quarter changed?	62120873	1473514961040	1473514961158	t	84
120356	1306655	Has your 4th quarter changed?	Has your 4th quarter changed?	62120874	1473514961160	1473514961308	e	69
120356	1306655	Has your 4th quarter changed?	Has your 4th quarter changed?	62120876	1473514961245	1473514961370	r	82
120356	1306655	Has your 4th quarter changed?	Has your 4th quarter changed?	62120878	1473514961349	1473514961443	 	32
120356	1306655	Has your 4th quarter changed?	Has your 4th quarter changed?	62120880	1473514961559	1473514961674	c	67
120356	1306655	Has your 4th quarter changed?	Has your 4th quarter changed?	62120893	1473514961669	1473514961733	h	72
120356	1306655	Has your 4th quarter changed?	Has your 4th quarter changed?	62120894	1473514961817	1473514961945	a	65
120356	1306655	Has your 4th quarter changed?	Has your 4th quarter changed?	62120895	1473514961977	1473514962072	n	78
120356	1306655	Has your 4th quarter changed?	Has your 4th quarter changed?	62120897	1473514962094	1473514962269	g	71
120356	1306655	Has your 4th quarter changed?	Has your 4th quarter changed?	62120899	1473514962245	1473514962331	e	69
120356	1306655	Has your 4th quarter changed?	Has your 4th quarter changed?	62120900	1473514962434	1473514962521	d	68
120356	1306655	Has your 4th quarter changed?	Has your 4th quarter changed?	62120902	1473514962557	1473514962752	SHIFT	16
120356	1306660	Boy, I couldn't write too much on this thing!	Boy, I couldn't write too much on this thing!	62120967	1473514965029	1473514965261	SHIFT	16
120356	1306660	Boy, I couldn't write too much on this thing!	Boy, I couldn't write too much on this thing!	62120969	1473514965142	1473514965263	B	66
120356	1306660	Boy, I couldn't write too much on this thing!	Boy, I couldn't write too much on this thing!	62120971	1473514965292	1473514965418	o	79
120356	1306660	Boy, I couldn't write too much on this thing!	Boy, I couldn't write too much on this thing!	62120975	1473514965474	1473514965578	y	89
120356	1306660	Boy, I couldn't write too much on this thing!	Boy, I couldn't write too much on this thing!	62120973	1473514965522	1473514965577	 	32
120356	1306660	Boy, I couldn't write too much on this thing!	Boy, I couldn't write too much on this thing!	62120977	1473514965807	1473514965871	BKSP	8
120356	1306660	Boy, I couldn't write too much on this thing!	Boy, I couldn't write too much on this thing!	62120979	1473514966027	1473514966083	,	188
120356	1306660	Boy, I couldn't write too much on this thing!	Boy, I couldn't write too much on this thing!	62121019	1473514966155	1473514966242	 	32
120356	1306660	Boy, I couldn't write too much on this thing!	Boy, I couldn't write too much on this thing!	62121020	1473514966715	1473514966865	SHIFT	16
120356	1306660	Boy, I couldn't write too much on this thing!	Boy, I couldn't write too much on this thing!	62121021	1473514966765	1473514966904	I	73
120356	1306660	Boy, I couldn't write too much on this thing!	Boy, I couldn't write too much on this thing!	62121022	1473514966899	1473514967019	 	32
120356	1306660	Boy, I couldn't write too much on this thing!	Boy, I couldn't write too much on this thing!	62121023	1473514967062	1473514967173	d	68
120356	1306660	Boy, I couldn't write too much on this thing!	Boy, I couldn't write too much on this thing!	62121024	1473514967375	1473514967438	BKSP	8
120356	1306660	Boy, I couldn't write too much on this thing!	Boy, I couldn't write too much on this thing!	62121025	1473514967505	1473514967625	c	67
120356	1306660	Boy, I couldn't write too much on this thing!	Boy, I couldn't write too much on this thing!	62121038	1473514967681	1473514967809	o	79
120356	1306660	Boy, I couldn't write too much on this thing!	Boy, I couldn't write too much on this thing!	62121041	1473514967796	1473514967885	u	85
120356	1306660	Boy, I couldn't write too much on this thing!	Boy, I couldn't write too much on this thing!	62121044	1473514967917	1473514968012	l	76
120356	1306660	Boy, I couldn't write too much on this thing!	Boy, I couldn't write too much on this thing!	62121048	1473514968041	1473514968175	d	68
120356	1306660	Boy, I couldn't write too much on this thing!	Boy, I couldn't write too much on this thing!	62121082	1473514968115	1473514968225	 	32
120356	1306660	Boy, I couldn't write too much on this thing!	Boy, I couldn't write too much on this thing!	62121084	1473514968253	1473514968349	n	78
120356	1306660	Boy, I couldn't write too much on this thing!	Boy, I couldn't write too much on this thing!	62121086	1473514968557	1473514968621	BKSP	8
120356	1306660	Boy, I couldn't write too much on this thing!	Boy, I couldn't write too much on this thing!	62121089	1473514968683	1473514968762	BKSP	8
120356	1306660	Boy, I couldn't write too much on this thing!	Boy, I couldn't write too much on this thing!	62121092	1473514968903	1473514968974	n	78
120356	1306660	Boy, I couldn't write too much on this thing!	Boy, I couldn't write too much on this thing!	62121094	1473514969086	1473514969181	'	222
120356	1306660	Boy, I couldn't write too much on this thing!	Boy, I couldn't write too much on this thing!	62121097	1473514969234	1473514969344	t	84
120356	1306660	Boy, I couldn't write too much on this thing!	Boy, I couldn't write too much on this thing!	62121109	1473514969315	1473514969426	 	32
120356	1306660	Boy, I couldn't write too much on this thing!	Boy, I couldn't write too much on this thing!	62121111	1473514969588	1473514969700	w	87
120356	1306660	Boy, I couldn't write too much on this thing!	Boy, I couldn't write too much on this thing!	62121113	1473514969763	1473514969866	r	82
120356	1306660	Boy, I couldn't write too much on this thing!	Boy, I couldn't write too much on this thing!	62121115	1473514969890	1473514970008	i	73
120356	1306660	Boy, I couldn't write too much on this thing!	Boy, I couldn't write too much on this thing!	62121119	1473514970009	1473514970125	t	84
120356	1306660	Boy, I couldn't write too much on this thing!	Boy, I couldn't write too much on this thing!	62121133	1473514970085	1473514970227	e	69
120356	1306660	Boy, I couldn't write too much on this thing!	Boy, I couldn't write too much on this thing!	62121134	1473514970174	1473514970276	 	32
120356	1306660	Boy, I couldn't write too much on this thing!	Boy, I couldn't write too much on this thing!	62121135	1473514970304	1473514970412	t	84
120356	1306660	Boy, I couldn't write too much on this thing!	Boy, I couldn't write too much on this thing!	62121136	1473514970408	1473514970474	o	79
120356	1306660	Boy, I couldn't write too much on this thing!	Boy, I couldn't write too much on this thing!	62121137	1473514970525	1473514970621	o	79
120356	1306660	Boy, I couldn't write too much on this thing!	Boy, I couldn't write too much on this thing!	62121138	1473514970652	1473514970753	 	32
120356	1306660	Boy, I couldn't write too much on this thing!	Boy, I couldn't write too much on this thing!	62121157	1473514970755	1473514970831	m	77
120356	1306660	Boy, I couldn't write too much on this thing!	Boy, I couldn't write too much on this thing!	62121159	1473514970934	1473514971037	u	85
120356	1306660	Boy, I couldn't write too much on this thing!	Boy, I couldn't write too much on this thing!	62121163	1473514971042	1473514971114	c	67
120356	1306660	Boy, I couldn't write too much on this thing!	Boy, I couldn't write too much on this thing!	62121164	1473514971145	1473514971254	h	72
120356	1306660	Boy, I couldn't write too much on this thing!	Boy, I couldn't write too much on this thing!	62121181	1473514971251	1473514971305	 	32
120356	1306660	Boy, I couldn't write too much on this thing!	Boy, I couldn't write too much on this thing!	62121185	1473514971358	1473514971526	o	79
120356	1306660	Boy, I couldn't write too much on this thing!	Boy, I couldn't write too much on this thing!	62121188	1473514971605	1473514971676	 	32
120356	1306660	Boy, I couldn't write too much on this thing!	Boy, I couldn't write too much on this thing!	62121190	1473514971946	1473514972002	BKSP	8
120356	1306660	Boy, I couldn't write too much on this thing!	Boy, I couldn't write too much on this thing!	62121192	1473514972174	1473514972229	n	78
120356	1306660	Boy, I couldn't write too much on this thing!	Boy, I couldn't write too much on this thing!	62121194	1473514972293	1473514972405	 	32
120356	1306660	Boy, I couldn't write too much on this thing!	Boy, I couldn't write too much on this thing!	62121196	1473514972406	1473514972512	t	84
120356	1306660	Boy, I couldn't write too much on this thing!	Boy, I couldn't write too much on this thing!	62121202	1473514972465	1473514972606	h	72
120356	1306660	Boy, I couldn't write too much on this thing!	Boy, I couldn't write too much on this thing!	62121204	1473514972575	1473514972683	i	73
120356	1306660	Boy, I couldn't write too much on this thing!	Boy, I couldn't write too much on this thing!	62121206	1473514972684	1473514972816	s	83
120356	1306660	Boy, I couldn't write too much on this thing!	Boy, I couldn't write too much on this thing!	62121207	1473514972756	1473514972883	 	32
120356	1306660	Boy, I couldn't write too much on this thing!	Boy, I couldn't write too much on this thing!	62121208	1473514972990	1473514973101	t	84
120356	1306660	Boy, I couldn't write too much on this thing!	Boy, I couldn't write too much on this thing!	62121220	1473514973078	1473514973206	h	72
120356	1306660	Boy, I couldn't write too much on this thing!	Boy, I couldn't write too much on this thing!	62121221	1473514973204	1473514973346	i	73
120356	1306660	Boy, I couldn't write too much on this thing!	Boy, I couldn't write too much on this thing!	62121222	1473514973274	1473514973400	n	78
120356	1306660	Boy, I couldn't write too much on this thing!	Boy, I couldn't write too much on this thing!	62121223	1473514973400	1473514973462	g	71
120356	1306660	Boy, I couldn't write too much on this thing!	Boy, I couldn't write too much on this thing!	62121224	1473514973529	1473514973671	SHIFT	16
120356	1306660	Boy, I couldn't write too much on this thing!	Boy, I couldn't write too much on this thing!	62121225	1473514973577	1473514973672	!	49
120356	1306667	Isn't that about the way it could happen?	Isn't that about the way it could happen?	62121286	1473514976247	1473514976389	SHIFT	16
120356	1306667	Isn't that about the way it could happen?	Isn't that about the way it could happen?	62121289	1473514976354	1473514976440	I	73
120356	1306667	Isn't that about the way it could happen?	Isn't that about the way it could happen?	62121292	1473514976492	1473514976613	s	83
120356	1306667	Isn't that about the way it could happen?	Isn't that about the way it could happen?	62121295	1473514976611	1473514976715	n	78
120356	1306667	Isn't that about the way it could happen?	Isn't that about the way it could happen?	62121298	1473514976827	1473514976916	'	222
120356	1306667	Isn't that about the way it could happen?	Isn't that about the way it could happen?	62121303	1473514976975	1473514977077	t	84
120356	1306667	Isn't that about the way it could happen?	Isn't that about the way it could happen?	62121307	1473514977049	1473514977158	 	32
120356	1306667	Isn't that about the way it could happen?	Isn't that about the way it could happen?	62121309	1473514977339	1473514977419	t	84
120356	1306667	Isn't that about the way it could happen?	Isn't that about the way it could happen?	62121313	1473514977416	1473514977488	h	72
120356	1306667	Isn't that about the way it could happen?	Isn't that about the way it could happen?	62121347	1473514977549	1473514977709	a	65
120356	1306667	Isn't that about the way it could happen?	Isn't that about the way it could happen?	62121318	1473514977597	1473514977707	t	84
120356	1306667	Isn't that about the way it could happen?	Isn't that about the way it could happen?	62121350	1473514977679	1473514977788	 	32
120356	1306667	Isn't that about the way it could happen?	Isn't that about the way it could happen?	62121353	1473514977856	1473514978010	a	65
120356	1306667	Isn't that about the way it could happen?	Isn't that about the way it could happen?	62121356	1473514978007	1473514978190	o	79
120356	1306667	Isn't that about the way it could happen?	Isn't that about the way it could happen?	62121357	1473514978373	1473514978437	BKSP	8
120356	1306667	Isn't that about the way it could happen?	Isn't that about the way it could happen?	62121358	1473514978545	1473514978632	b	66
120356	1306667	Isn't that about the way it could happen?	Isn't that about the way it could happen?	62121359	1473514978712	1473514978885	o	79
120356	1306667	Isn't that about the way it could happen?	Isn't that about the way it could happen?	62121360	1473514978806	1473514978915	u	85
120356	1306667	Isn't that about the way it could happen?	Isn't that about the way it could happen?	62121363	1473514978916	1473514979048	t	84
120356	1306667	Isn't that about the way it could happen?	Isn't that about the way it could happen?	62121366	1473514978995	1473514979146	 	32
120356	1306667	Isn't that about the way it could happen?	Isn't that about the way it could happen?	62121369	1473514979146	1473514979244	t	84
120356	1306667	Isn't that about the way it could happen?	Isn't that about the way it could happen?	62121373	1473514979214	1473514979322	h	72
120356	1306667	Isn't that about the way it could happen?	Isn't that about the way it could happen?	62121379	1473514979323	1473514979479	e	69
120356	1306667	Isn't that about the way it could happen?	Isn't that about the way it could happen?	62121389	1473514979419	1473514979552	 	32
120356	1306667	Isn't that about the way it could happen?	Isn't that about the way it could happen?	62121391	1473514979533	1473514979683	w	87
120356	1306667	Isn't that about the way it could happen?	Isn't that about the way it could happen?	62121393	1473514979635	1473514979808	a	65
120356	1306667	Isn't that about the way it could happen?	Isn't that about the way it could happen?	62121395	1473514979722	1473514979852	y	89
120356	1306667	Isn't that about the way it could happen?	Isn't that about the way it could happen?	62121397	1473514979847	1473514979945	 	32
120356	1306667	Isn't that about the way it could happen?	Isn't that about the way it could happen?	62121398	1473514979982	1473514980084	i	73
120356	1306667	Isn't that about the way it could happen?	Isn't that about the way it could happen?	62121414	1473514980068	1473514980185	t	84
120356	1306667	Isn't that about the way it could happen?	Isn't that about the way it could happen?	62121415	1473514980149	1473514980258	 	32
120356	1306667	Isn't that about the way it could happen?	Isn't that about the way it could happen?	62121416	1473514980709	1473514980816	c	67
120356	1306667	Isn't that about the way it could happen?	Isn't that about the way it could happen?	62121417	1473514980813	1473514980916	o	79
120356	1306667	Isn't that about the way it could happen?	Isn't that about the way it could happen?	62121419	1473514980883	1473514981026	u	85
120356	1306667	Isn't that about the way it could happen?	Isn't that about the way it could happen?	62121423	1473514981041	1473514981119	l	76
120356	1306667	Isn't that about the way it could happen?	Isn't that about the way it could happen?	62121436	1473514981121	1473514981267	d	68
120356	1306667	Isn't that about the way it could happen?	Isn't that about the way it could happen?	62121437	1473514981231	1473514981356	 	32
120356	1306667	Isn't that about the way it could happen?	Isn't that about the way it could happen?	62121438	1473514981357	1473514981463	h	72
120356	1306667	Isn't that about the way it could happen?	Isn't that about the way it could happen?	62121439	1473514981464	1473514981566	a	65
120356	1306667	Isn't that about the way it could happen?	Isn't that about the way it could happen?	62121440	1473514981599	1473514981671	p	80
120356	1306667	Isn't that about the way it could happen?	Isn't that about the way it could happen?	62121462	1473514981765	1473514981853	p	80
120356	1306667	Isn't that about the way it could happen?	Isn't that about the way it could happen?	62121463	1473514981944	1473514982069	e	69
120356	1306667	Isn't that about the way it could happen?	Isn't that about the way it could happen?	62121465	1473514982071	1473514982151	n	78
120356	1306667	Isn't that about the way it could happen?	Isn't that about the way it could happen?	62121469	1473514982194	1473514982391	SHIFT	16
120356	1306668	I encourage each of you to attend or tune in tomorrow.	I encourage each of you to attend or tune in tomorrow.	62121553	1473514985136	1473514985333	SHIFT	16
120356	1306668	I encourage each of you to attend or tune in tomorrow.	I encourage each of you to attend or tune in tomorrow.	62121550	1473514985219	1473514985298	I	73
120356	1306668	I encourage each of you to attend or tune in tomorrow.	I encourage each of you to attend or tune in tomorrow.	62121556	1473514985385	1473514985464	 	32
120356	1306668	I encourage each of you to attend or tune in tomorrow.	I encourage each of you to attend or tune in tomorrow.	62121559	1473514985571	1473514985691	e	69
120356	1306668	I encourage each of you to attend or tune in tomorrow.	I encourage each of you to attend or tune in tomorrow.	62121562	1473514985714	1473514985826	n	78
120356	1306668	I encourage each of you to attend or tune in tomorrow.	I encourage each of you to attend or tune in tomorrow.	62121564	1473514985895	1473514986024	c	67
120356	1306668	I encourage each of you to attend or tune in tomorrow.	I encourage each of you to attend or tune in tomorrow.	62121572	1473514986021	1473514986203	o	79
120356	1306668	I encourage each of you to attend or tune in tomorrow.	I encourage each of you to attend or tune in tomorrow.	62121573	1473514986093	1473514986205	u	85
120356	1306668	I encourage each of you to attend or tune in tomorrow.	I encourage each of you to attend or tune in tomorrow.	62121574	1473514986233	1473514986374	r	82
120356	1306668	I encourage each of you to attend or tune in tomorrow.	I encourage each of you to attend or tune in tomorrow.	62121575	1473514986375	1473514986532	a	65
120356	1306668	I encourage each of you to attend or tune in tomorrow.	I encourage each of you to attend or tune in tomorrow.	62121576	1473514986486	1473514986627	g	71
120356	1306668	I encourage each of you to attend or tune in tomorrow.	I encourage each of you to attend or tune in tomorrow.	62121591	1473514986579	1473514986728	e	69
120356	1306668	I encourage each of you to attend or tune in tomorrow.	I encourage each of you to attend or tune in tomorrow.	62121592	1473514986676	1473514986806	 	32
120356	1306668	I encourage each of you to attend or tune in tomorrow.	I encourage each of you to attend or tune in tomorrow.	62121594	1473514986807	1473514986958	e	69
120356	1306668	I encourage each of you to attend or tune in tomorrow.	I encourage each of you to attend or tune in tomorrow.	62121596	1473514987194	1473514987321	a	65
120356	1306668	I encourage each of you to attend or tune in tomorrow.	I encourage each of you to attend or tune in tomorrow.	62121598	1473514987274	1473514987401	c	67
120356	1306668	I encourage each of you to attend or tune in tomorrow.	I encourage each of you to attend or tune in tomorrow.	62121599	1473514987424	1473514987539	h	72
120356	1306668	I encourage each of you to attend or tune in tomorrow.	I encourage each of you to attend or tune in tomorrow.	62121610	1473514987536	1473514987655	 	32
120356	1306668	I encourage each of you to attend or tune in tomorrow.	I encourage each of you to attend or tune in tomorrow.	62121612	1473514987693	1473514987795	o	79
120356	1306668	I encourage each of you to attend or tune in tomorrow.	I encourage each of you to attend or tune in tomorrow.	62121613	1473514987770	1473514987887	f	70
120356	1306668	I encourage each of you to attend or tune in tomorrow.	I encourage each of you to attend or tune in tomorrow.	62121614	1473514987859	1473514987961	 	32
120356	1306668	I encourage each of you to attend or tune in tomorrow.	I encourage each of you to attend or tune in tomorrow.	62121615	1473514988005	1473514988118	y	89
120356	1306668	I encourage each of you to attend or tune in tomorrow.	I encourage each of you to attend or tune in tomorrow.	62121629	1473514988116	1473514988274	o	79
120356	1306668	I encourage each of you to attend or tune in tomorrow.	I encourage each of you to attend or tune in tomorrow.	62121631	1473514988202	1473514988331	u	85
120356	1306668	I encourage each of you to attend or tune in tomorrow.	I encourage each of you to attend or tune in tomorrow.	62121633	1473514988329	1473514988424	 	32
120356	1306668	I encourage each of you to attend or tune in tomorrow.	I encourage each of you to attend or tune in tomorrow.	62121634	1473514988425	1473514988565	t	84
120356	1306668	I encourage each of you to attend or tune in tomorrow.	I encourage each of you to attend or tune in tomorrow.	62121635	1473514988603	1473514988738	o	79
120356	1306668	I encourage each of you to attend or tune in tomorrow.	I encourage each of you to attend or tune in tomorrow.	62121655	1473514988715	1473514988794	 	32
120356	1306668	I encourage each of you to attend or tune in tomorrow.	I encourage each of you to attend or tune in tomorrow.	62121656	1473514989148	1473514989283	a	65
120356	1306668	I encourage each of you to attend or tune in tomorrow.	I encourage each of you to attend or tune in tomorrow.	62121658	1473514989220	1473514989298	t	84
120356	1306668	I encourage each of you to attend or tune in tomorrow.	I encourage each of you to attend or tune in tomorrow.	62121662	1473514989385	1473514989471	t	84
120356	1306668	I encourage each of you to attend or tune in tomorrow.	I encourage each of you to attend or tune in tomorrow.	62121664	1473514989472	1473514989558	e	69
120356	1306668	I encourage each of you to attend or tune in tomorrow.	I encourage each of you to attend or tune in tomorrow.	62121667	1473514989581	1473514989668	n	78
120356	1306668	I encourage each of you to attend or tune in tomorrow.	I encourage each of you to attend or tune in tomorrow.	62121673	1473514989698	1473514989825	d	68
120356	1306668	I encourage each of you to attend or tune in tomorrow.	I encourage each of you to attend or tune in tomorrow.	62121675	1473514989772	1473514989904	 	32
120356	1306668	I encourage each of you to attend or tune in tomorrow.	I encourage each of you to attend or tune in tomorrow.	62121677	1473514989905	1473514990007	o	79
120356	1306668	I encourage each of you to attend or tune in tomorrow.	I encourage each of you to attend or tune in tomorrow.	62121681	1473514990084	1473514990218	r	82
120356	1306668	I encourage each of you to attend or tune in tomorrow.	I encourage each of you to attend or tune in tomorrow.	62121692	1473514990189	1473514990312	 	32
120356	1306668	I encourage each of you to attend or tune in tomorrow.	I encourage each of you to attend or tune in tomorrow.	62121693	1473514990313	1473514990431	t	84
120356	1306668	I encourage each of you to attend or tune in tomorrow.	I encourage each of you to attend or tune in tomorrow.	62121694	1473514990454	1473514990518	u	85
120356	1306668	I encourage each of you to attend or tune in tomorrow.	I encourage each of you to attend or tune in tomorrow.	62121695	1473514990636	1473514990727	n	78
120356	1306668	I encourage each of you to attend or tune in tomorrow.	I encourage each of you to attend or tune in tomorrow.	62121696	1473514990755	1473514990897	e	69
120356	1306668	I encourage each of you to attend or tune in tomorrow.	I encourage each of you to attend or tune in tomorrow.	62121715	1473514990894	1473514990985	 	32
120356	1306668	I encourage each of you to attend or tune in tomorrow.	I encourage each of you to attend or tune in tomorrow.	62121717	1473514991006	1473514991216	i	73
120356	1306668	I encourage each of you to attend or tune in tomorrow.	I encourage each of you to attend or tune in tomorrow.	62121722	1473514991100	1473514991217	n	78
120356	1306668	I encourage each of you to attend or tune in tomorrow.	I encourage each of you to attend or tune in tomorrow.	62121727	1473514991211	1473514991314	 	32
120356	1306668	I encourage each of you to attend or tune in tomorrow.	I encourage each of you to attend or tune in tomorrow.	62121731	1473514991390	1473514991485	t	84
120356	1306668	I encourage each of you to attend or tune in tomorrow.	I encourage each of you to attend or tune in tomorrow.	62121735	1473514991525	1473514991637	o	79
120356	1306668	I encourage each of you to attend or tune in tomorrow.	I encourage each of you to attend or tune in tomorrow.	62121772	1473514991842	1473514991977	m	77
120356	1306668	I encourage each of you to attend or tune in tomorrow.	I encourage each of you to attend or tune in tomorrow.	62121773	1473514992057	1473514992177	o	79
120356	1306668	I encourage each of you to attend or tune in tomorrow.	I encourage each of you to attend or tune in tomorrow.	62121774	1473514992245	1473514992308	r	82
120356	1306668	I encourage each of you to attend or tune in tomorrow.	I encourage each of you to attend or tune in tomorrow.	62121775	1473514992379	1473514992490	r	82
120356	1306668	I encourage each of you to attend or tune in tomorrow.	I encourage each of you to attend or tune in tomorrow.	62121777	1473514993992	1473514994087	o	79
120356	1306668	I encourage each of you to attend or tune in tomorrow.	I encourage each of you to attend or tune in tomorrow.	62121805	1473514994131	1473514994227	w	87
120356	1306668	I encourage each of you to attend or tune in tomorrow.	I encourage each of you to attend or tune in tomorrow.	62121807	1473514994747	1473514994795	.	190
120356	1306680	Others voting against represented the defense ministry.	Others voting against represented the defense ministry	62121896	1473514997567	1473514997717	SHIFT	16
120356	1306680	Others voting against represented the defense ministry.	Others voting against represented the defense ministry	62121897	1473514997650	1473514997783	O	79
120356	1306680	Others voting against represented the defense ministry.	Others voting against represented the defense ministry	62121898	1473514997766	1473514997869	t	84
120356	1306680	Others voting against represented the defense ministry.	Others voting against represented the defense ministry	62121901	1473514997883	1473514998003	h	72
120356	1306680	Others voting against represented the defense ministry.	Others voting against represented the defense ministry	62121904	1473514997977	1473514998119	e	69
120356	1306680	Others voting against represented the defense ministry.	Others voting against represented the defense ministry	62121982	1473514998088	1473514998230	r	82
120356	1306680	Others voting against represented the defense ministry.	Others voting against represented the defense ministry	62121987	1473514998213	1473514998410	s	83
120356	1306680	Others voting against represented the defense ministry.	Others voting against represented the defense ministry	62121990	1473514998390	1473514998524	 	32
120356	1306680	Others voting against represented the defense ministry.	Others voting against represented the defense ministry	62121992	1473514998890	1473514998923	 	32
120356	1306680	Others voting against represented the defense ministry.	Others voting against represented the defense ministry	62121993	1473514999016	1473514999135	o	79
120356	1306680	Others voting against represented the defense ministry.	Others voting against represented the defense ministry	62121995	1473514999391	1473514999430	BKSP	8
120356	1306680	Others voting against represented the defense ministry.	Others voting against represented the defense ministry	62121997	1473514999820	1473514999883	BKSP	8
120356	1306680	Others voting against represented the defense ministry.	Others voting against represented the defense ministry	62121999	1473514999960	1473515000063	v	86
120356	1306680	Others voting against represented the defense ministry.	Others voting against represented the defense ministry	62122002	1473515000150	1473515000254	o	79
120356	1306680	Others voting against represented the defense ministry.	Others voting against represented the defense ministry	62122004	1473515000330	1473515000446	t	84
120356	1306680	Others voting against represented the defense ministry.	Others voting against represented the defense ministry	62122006	1473515000442	1473515000584	i	73
120356	1306680	Others voting against represented the defense ministry.	Others voting against represented the defense ministry	62122008	1473515000544	1473515000630	n	78
120356	1306680	Others voting against represented the defense ministry.	Others voting against represented the defense ministry	62122010	1473515000652	1473515000795	g	71
120356	1306680	Others voting against represented the defense ministry.	Others voting against represented the defense ministry	62122011	1473515000742	1473515000859	 	32
120356	1306680	Others voting against represented the defense ministry.	Others voting against represented the defense ministry	62122014	1473515000840	1473515000949	a	65
120356	1306680	Others voting against represented the defense ministry.	Others voting against represented the defense ministry	62122018	1473515000912	1473515001053	g	71
120356	1306680	Others voting against represented the defense ministry.	Others voting against represented the defense ministry	62122023	1473515001054	1473515001169	a	65
120356	1306680	Others voting against represented the defense ministry.	Others voting against represented the defense ministry	62122026	1473515001132	1473515001265	i	73
120356	1306680	Others voting against represented the defense ministry.	Others voting against represented the defense ministry	62122034	1473515001193	1473515001296	n	78
120356	1306680	Others voting against represented the defense ministry.	Others voting against represented the defense ministry	62122035	1473515001332	1473515001459	s	83
120356	1306680	Others voting against represented the defense ministry.	Others voting against represented the defense ministry	62122036	1473515001412	1473515001545	t	84
120356	1306680	Others voting against represented the defense ministry.	Others voting against represented the defense ministry	62122037	1473515001516	1473515001635	 	32
120356	1306680	Others voting against represented the defense ministry.	Others voting against represented the defense ministry	62122038	1473515001703	1473515001829	r	82
120356	1306680	Others voting against represented the defense ministry.	Others voting against represented the defense ministry	62122051	1473515001797	1473515001948	e	69
120356	1306680	Others voting against represented the defense ministry.	Others voting against represented the defense ministry	62122052	1473515001965	1473515002082	p	80
120356	1306680	Others voting against represented the defense ministry.	Others voting against represented the defense ministry	62122053	1473515002104	1473515002239	r	82
120356	1306680	Others voting against represented the defense ministry.	Others voting against represented the defense ministry	62122054	1473515002199	1473515002325	e	69
120356	1306680	Others voting against represented the defense ministry.	Others voting against represented the defense ministry	62122055	1473515002347	1473515002505	s	83
120356	1306680	Others voting against represented the defense ministry.	Others voting against represented the defense ministry	62122081	1473515002474	1473515002600	e	69
120356	1306680	Others voting against represented the defense ministry.	Others voting against represented the defense ministry	62122085	1473515002648	1473515002767	n	78
120356	1306680	Others voting against represented the defense ministry.	Others voting against represented the defense ministry	62122087	1473515002821	1473515002980	t	84
120356	1306680	Others voting against represented the defense ministry.	Others voting against represented the defense ministry	62122089	1473515002956	1473515003058	e	69
120356	1306680	Others voting against represented the defense ministry.	Others voting against represented the defense ministry	62122091	1473515003176	1473515003319	d	68
120356	1306680	Others voting against represented the defense ministry.	Others voting against represented the defense ministry	62122112	1473515003282	1473515003445	 	32
120356	1306680	Others voting against represented the defense ministry.	Others voting against represented the defense ministry	62122114	1473515003446	1473515003573	t	84
120356	1306680	Others voting against represented the defense ministry.	Others voting against represented the defense ministry	62122118	1473515003571	1473515003688	h	72
120356	1306680	Others voting against represented the defense ministry.	Others voting against represented the defense ministry	62122120	1473515003656	1473515003789	e	69
120356	1306680	Others voting against represented the defense ministry.	Others voting against represented the defense ministry	62122122	1473515003752	1473515003887	 	32
120356	1306680	Others voting against represented the defense ministry.	Others voting against represented the defense ministry	62122125	1473515003938	1473515004034	d	68
120356	1306680	Others voting against represented the defense ministry.	Others voting against represented the defense ministry	62122152	1473515004120	1473515004254	e	69
120356	1306680	Others voting against represented the defense ministry.	Others voting against represented the defense ministry	62122156	1473515004231	1473515004381	f	70
120356	1306680	Others voting against represented the defense ministry.	Others voting against represented the defense ministry	62122162	1473515004349	1473515004467	e	69
120356	1306680	Others voting against represented the defense ministry.	Others voting against represented the defense ministry	62122164	1473515004491	1473515004586	n	78
120356	1306680	Others voting against represented the defense ministry.	Others voting against represented the defense ministry	62122166	1473515005286	1473515005412	s	83
120356	1306680	Others voting against represented the defense ministry.	Others voting against represented the defense ministry	62122192	1473515005373	1473515005523	e	69
120356	1306680	Others voting against represented the defense ministry.	Others voting against represented the defense ministry	62122196	1473515005486	1473515005588	 	32
120356	1306680	Others voting against represented the defense ministry.	Others voting against represented the defense ministry	62122199	1473515005785	1473515005924	m	77
120356	1306680	Others voting against represented the defense ministry.	Others voting against represented the defense ministry	62122200	1473515005919	1473515006046	i	73
120356	1306680	Others voting against represented the defense ministry.	Others voting against represented the defense ministry	62122202	1473515006006	1473515006144	n	78
120356	1306680	Others voting against represented the defense ministry.	Others voting against represented the defense ministry	62122216	1473515006138	1473515006227	i	73
120356	1306680	Others voting against represented the defense ministry.	Others voting against represented the defense ministry	62122220	1473515006314	1473515006405	s	83
120356	1306680	Others voting against represented the defense ministry.	Others voting against represented the defense ministry	62122224	1473515006374	1473515006509	t	84
120356	1306680	Others voting against represented the defense ministry.	Others voting against represented the defense ministry	62122226	1473515006531	1473515006665	r	82
120356	1306688	Newly-signed Tony Simmons might work as the third receiver.	Newy-signed Tony Simmons might work as the third receiver.	62122317	1473515006619	1473515010550	y	89
120356	1306688	Newly-signed Tony Simmons might work as the third receiver.	Newy-signed Tony Simmons might work as the third receiver.	62122306	1473515009830	1473515010012	SHIFT	16
120356	1306688	Newly-signed Tony Simmons might work as the third receiver.	Newy-signed Tony Simmons might work as the third receiver.	62122308	1473515009936	1473515010030	N	78
120356	1306688	Newly-signed Tony Simmons might work as the third receiver.	Newy-signed Tony Simmons might work as the third receiver.	62122310	1473515010084	1473515010218	e	69
120356	1306688	Newly-signed Tony Simmons might work as the third receiver.	Newy-signed Tony Simmons might work as the third receiver.	62122312	1473515010170	1473515010291	w	87
120356	1306688	Newly-signed Tony Simmons might work as the third receiver.	Newy-signed Tony Simmons might work as the third receiver.	62122314	1473515010287	1473515010361	l	76
120356	1306688	Newly-signed Tony Simmons might work as the third receiver.	Newy-signed Tony Simmons might work as the third receiver.	62122319	1473515010606	1473515010725	-	189
120356	1306688	Newly-signed Tony Simmons might work as the third receiver.	Newy-signed Tony Simmons might work as the third receiver.	62122324	1473515010872	1473515010984	s	83
120356	1306688	Newly-signed Tony Simmons might work as the third receiver.	Newy-signed Tony Simmons might work as the third receiver.	62122326	1473515011008	1473515011095	i	73
120356	1306688	Newly-signed Tony Simmons might work as the third receiver.	Newy-signed Tony Simmons might work as the third receiver.	62122328	1473515011140	1473515011245	g	71
120356	1306688	Newly-signed Tony Simmons might work as the third receiver.	Newy-signed Tony Simmons might work as the third receiver.	62122331	1473515011267	1473515011362	n	78
120356	1306688	Newly-signed Tony Simmons might work as the third receiver.	Newy-signed Tony Simmons might work as the third receiver.	62122334	1473515011363	1473515011423	e	69
120356	1306688	Newly-signed Tony Simmons might work as the third receiver.	Newy-signed Tony Simmons might work as the third receiver.	62122348	1473515011534	1473515011660	d	68
120356	1306688	Newly-signed Tony Simmons might work as the third receiver.	Newy-signed Tony Simmons might work as the third receiver.	62122349	1473515011624	1473515011726	 	32
120356	1306688	Newly-signed Tony Simmons might work as the third receiver.	Newy-signed Tony Simmons might work as the third receiver.	62122350	1473515011775	1473515011950	SHIFT	16
120356	1306688	Newly-signed Tony Simmons might work as the third receiver.	Newy-signed Tony Simmons might work as the third receiver.	62122351	1473515011857	1473515011978	T	84
120356	1306688	Newly-signed Tony Simmons might work as the third receiver.	Newy-signed Tony Simmons might work as the third receiver.	62122353	1473515011975	1473515012125	o	79
120356	1306688	Newly-signed Tony Simmons might work as the third receiver.	Newy-signed Tony Simmons might work as the third receiver.	62122375	1473515012101	1473515012195	n	78
120356	1306688	Newly-signed Tony Simmons might work as the third receiver.	Newy-signed Tony Simmons might work as the third receiver.	62122377	1473515012225	1473515012368	y	89
120356	1306688	Newly-signed Tony Simmons might work as the third receiver.	Newy-signed Tony Simmons might work as the third receiver.	62122381	1473515012315	1473515012426	 	32
120356	1306688	Newly-signed Tony Simmons might work as the third receiver.	Newy-signed Tony Simmons might work as the third receiver.	62122385	1473515012650	1473515012849	SHIFT	16
120356	1306688	Newly-signed Tony Simmons might work as the third receiver.	Newy-signed Tony Simmons might work as the third receiver.	62122389	1473515012747	1473515012900	S	83
120356	1306688	Newly-signed Tony Simmons might work as the third receiver.	Newy-signed Tony Simmons might work as the third receiver.	62122393	1473515012897	1473515013048	i	73
120356	1306688	Newly-signed Tony Simmons might work as the third receiver.	Newy-signed Tony Simmons might work as the third receiver.	62122397	1473515013016	1473515013078	m	77
120356	1306688	Newly-signed Tony Simmons might work as the third receiver.	Newy-signed Tony Simmons might work as the third receiver.	62122399	1473515013165	1473515013276	m	77
120356	1306688	Newly-signed Tony Simmons might work as the third receiver.	Newy-signed Tony Simmons might work as the third receiver.	62122401	1473515013299	1473515013465	o	79
120356	1306688	Newly-signed Tony Simmons might work as the third receiver.	Newy-signed Tony Simmons might work as the third receiver.	62122403	1473515013385	1473515013496	n	78
120356	1306688	Newly-signed Tony Simmons might work as the third receiver.	Newy-signed Tony Simmons might work as the third receiver.	62122404	1473515013524	1473515013643	s	83
120356	1306688	Newly-signed Tony Simmons might work as the third receiver.	Newy-signed Tony Simmons might work as the third receiver.	62122423	1473515013591	1473515013709	 	32
120356	1306688	Newly-signed Tony Simmons might work as the third receiver.	Newy-signed Tony Simmons might work as the third receiver.	62122426	1473515013738	1473515013866	m	77
120356	1306688	Newly-signed Tony Simmons might work as the third receiver.	Newy-signed Tony Simmons might work as the third receiver.	62122429	1473515013864	1473515013982	i	73
120356	1306688	Newly-signed Tony Simmons might work as the third receiver.	Newy-signed Tony Simmons might work as the third receiver.	62122431	1473515013983	1473515014084	g	71
120356	1306688	Newly-signed Tony Simmons might work as the third receiver.	Newy-signed Tony Simmons might work as the third receiver.	62122433	1473515014115	1473515014226	h	72
120356	1306688	Newly-signed Tony Simmons might work as the third receiver.	Newy-signed Tony Simmons might work as the third receiver.	62122435	1473515014226	1473515014351	t	84
120356	1306688	Newly-signed Tony Simmons might work as the third receiver.	Newy-signed Tony Simmons might work as the third receiver.	62122451	1473515014322	1473515014420	 	32
120356	1306688	Newly-signed Tony Simmons might work as the third receiver.	Newy-signed Tony Simmons might work as the third receiver.	62122452	1473515014421	1473515014548	w	87
120356	1306688	Newly-signed Tony Simmons might work as the third receiver.	Newy-signed Tony Simmons might work as the third receiver.	62122453	1473515014545	1473515014627	o	79
120356	1306688	Newly-signed Tony Simmons might work as the third receiver.	Newy-signed Tony Simmons might work as the third receiver.	62122454	1473515014648	1473515014743	r	82
120356	1306688	Newly-signed Tony Simmons might work as the third receiver.	Newy-signed Tony Simmons might work as the third receiver.	62122455	1473515014760	1473515014870	k	75
120356	1306688	Newly-signed Tony Simmons might work as the third receiver.	Newy-signed Tony Simmons might work as the third receiver.	62122456	1473515014894	1473515014997	 	32
120356	1306688	Newly-signed Tony Simmons might work as the third receiver.	Newy-signed Tony Simmons might work as the third receiver.	62122465	1473515015048	1473515015198	a	65
120356	1306688	Newly-signed Tony Simmons might work as the third receiver.	Newy-signed Tony Simmons might work as the third receiver.	62122467	1473515015119	1473515015284	s	83
120356	1306688	Newly-signed Tony Simmons might work as the third receiver.	Newy-signed Tony Simmons might work as the third receiver.	62122471	1473515015255	1473515015356	 	32
120356	1306688	Newly-signed Tony Simmons might work as the third receiver.	Newy-signed Tony Simmons might work as the third receiver.	62122474	1473515015357	1473515015473	t	84
120356	1306688	Newly-signed Tony Simmons might work as the third receiver.	Newy-signed Tony Simmons might work as the third receiver.	62122489	1473515015434	1473515015551	h	72
120356	1306688	Newly-signed Tony Simmons might work as the third receiver.	Newy-signed Tony Simmons might work as the third receiver.	62122491	1473515015553	1473515015669	e	69
120356	1306688	Newly-signed Tony Simmons might work as the third receiver.	Newy-signed Tony Simmons might work as the third receiver.	62122493	1473515015608	1473515015747	 	32
120356	1306688	Newly-signed Tony Simmons might work as the third receiver.	Newy-signed Tony Simmons might work as the third receiver.	62122495	1473515015748	1473515015834	t	84
120356	1306688	Newly-signed Tony Simmons might work as the third receiver.	Newy-signed Tony Simmons might work as the third receiver.	62122496	1473515015953	1473515016056	h	72
120356	1306688	Newly-signed Tony Simmons might work as the third receiver.	Newy-signed Tony Simmons might work as the third receiver.	62122497	1473515016199	1473515016292	i	73
120356	1306688	Newly-signed Tony Simmons might work as the third receiver.	Newy-signed Tony Simmons might work as the third receiver.	62122527	1473515016388	1473515016484	r	82
120356	1306688	Newly-signed Tony Simmons might work as the third receiver.	Newy-signed Tony Simmons might work as the third receiver.	62122528	1473515016586	1473515016752	d	68
120356	1306688	Newly-signed Tony Simmons might work as the third receiver.	Newy-signed Tony Simmons might work as the third receiver.	62122529	1473515016700	1473515016818	 	32
120356	1306688	Newly-signed Tony Simmons might work as the third receiver.	Newy-signed Tony Simmons might work as the third receiver.	62122531	1473515017054	1473515017188	r	82
120356	1306688	Newly-signed Tony Simmons might work as the third receiver.	Newy-signed Tony Simmons might work as the third receiver.	62122554	1473515017140	1473515017289	e	69
120356	1306688	Newly-signed Tony Simmons might work as the third receiver.	Newy-signed Tony Simmons might work as the third receiver.	62122556	1473515017285	1473515017418	c	67
120356	1306688	Newly-signed Tony Simmons might work as the third receiver.	Newy-signed Tony Simmons might work as the third receiver.	62122558	1473515017435	1473515017546	e	69
120356	1306688	Newly-signed Tony Simmons might work as the third receiver.	Newy-signed Tony Simmons might work as the third receiver.	62122561	1473515017585	1473515017682	i	73
120356	1306688	Newly-signed Tony Simmons might work as the third receiver.	Newy-signed Tony Simmons might work as the third receiver.	62122563	1473515017791	1473515017949	v	86
120356	1306688	Newly-signed Tony Simmons might work as the third receiver.	Newy-signed Tony Simmons might work as the third receiver.	62122566	1473515017950	1473515018098	e	69
120356	1306688	Newly-signed Tony Simmons might work as the third receiver.	Newy-signed Tony Simmons might work as the third receiver.	62122575	1473515018051	1473515018186	r	82
120356	1306688	Newly-signed Tony Simmons might work as the third receiver.	Newy-signed Tony Simmons might work as the third receiver.	62122576	1473515018233	1473515018313	.	190
120356	1306693	No there will be plenty of others.	No there will be plenty of others.	62122654	1473515020782	1473515020972	SHIFT	16
120356	1306693	No there will be plenty of others.	No there will be plenty of others.	62122656	1473515020920	1473515021030	N	78
120356	1306693	No there will be plenty of others.	No there will be plenty of others.	62122658	1473515021054	1473515021181	o	79
120356	1306693	No there will be plenty of others.	No there will be plenty of others.	62122660	1473515021196	1473515021298	 	32
120356	1306693	No there will be plenty of others.	No there will be plenty of others.	62122661	1473515021299	1473515021423	t	84
120356	1306693	No there will be plenty of others.	No there will be plenty of others.	62122662	1473515021599	1473515021765	h	72
120356	1306693	No there will be plenty of others.	No there will be plenty of others.	62122669	1473515021923	1473515022025	e	69
120356	1306693	No there will be plenty of others.	No there will be plenty of others.	62122671	1473515021986	1473515022167	r	82
120356	1306693	No there will be plenty of others.	No there will be plenty of others.	62122674	1473515022119	1473515022293	e	69
120356	1306693	No there will be plenty of others.	No there will be plenty of others.	62122679	1473515022232	1473515022374	 	32
120356	1306693	No there will be plenty of others.	No there will be plenty of others.	62122691	1473515022339	1473515022510	w	87
120356	1306693	No there will be plenty of others.	No there will be plenty of others.	62122694	1473515022418	1473515022552	i	73
120356	1306693	No there will be plenty of others.	No there will be plenty of others.	62122695	1473515022505	1473515022591	l	76
120356	1306693	No there will be plenty of others.	No there will be plenty of others.	62122697	1473515022677	1473515022785	l	76
120356	1306693	No there will be plenty of others.	No there will be plenty of others.	62122699	1473515022780	1473515022899	 	32
120356	1306693	No there will be plenty of others.	No there will be plenty of others.	62122712	1473515022865	1473515022998	b	66
120356	1306693	No there will be plenty of others.	No there will be plenty of others.	62122714	1473515022966	1473515023132	e	69
120356	1306693	No there will be plenty of others.	No there will be plenty of others.	62122715	1473515023071	1473515023212	 	32
120356	1306693	No there will be plenty of others.	No there will be plenty of others.	62122718	1473515023213	1473515023316	p	80
120356	1306693	No there will be plenty of others.	No there will be plenty of others.	62122719	1473515023342	1473515023470	e	69
120356	1306693	No there will be plenty of others.	No there will be plenty of others.	62122722	1473515023486	1473515023590	l	76
120356	1306693	No there will be plenty of others.	No there will be plenty of others.	62122746	1473515023741	1473515023781	BKSP	8
120356	1306693	No there will be plenty of others.	No there will be plenty of others.	62122747	1473515023850	1473515023914	BKSP	8
120356	1306693	No there will be plenty of others.	No there will be plenty of others.	62122748	1473515024023	1473515024119	l	76
120356	1306693	No there will be plenty of others.	No there will be plenty of others.	62122750	1473515024171	1473515024309	e	69
120356	1306693	No there will be plenty of others.	No there will be plenty of others.	62122752	1473515024306	1473515024394	n	78
120356	1306693	No there will be plenty of others.	No there will be plenty of others.	62122754	1473515024503	1473515024607	t	84
120356	1306693	No there will be plenty of others.	No there will be plenty of others.	62122756	1473515024733	1473515024849	y	89
120356	1306693	No there will be plenty of others.	No there will be plenty of others.	62122766	1473515024845	1473515024949	 	32
120356	1306693	No there will be plenty of others.	No there will be plenty of others.	62122768	1473515024978	1473515025088	o	79
120356	1306693	No there will be plenty of others.	No there will be plenty of others.	62122770	1473515025089	1473515025173	f	70
120356	1306693	No there will be plenty of others.	No there will be plenty of others.	62122771	1473515025152	1473515025283	 	32
120356	1306693	No there will be plenty of others.	No there will be plenty of others.	62122772	1473515025284	1473515025362	t	84
120356	1306693	No there will be plenty of others.	No there will be plenty of others.	62122773	1473515025400	1473515025496	h	72
120356	1306693	No there will be plenty of others.	No there will be plenty of others.	62122798	1473515025688	1473515025752	BKSP	8
120356	1306693	No there will be plenty of others.	No there will be plenty of others.	62122800	1473515025965	1473515025997	-	189
120356	1306693	No there will be plenty of others.	No there will be plenty of others.	62122803	1473515026292	1473515026363	BKSP	8
120356	1306693	No there will be plenty of others.	No there will be plenty of others.	62122806	1473515026553	1473515026617	BKSP	8
120356	1306693	No there will be plenty of others.	No there will be plenty of others.	62122810	1473515026830	1473515026909	o	79
120356	1306693	No there will be plenty of others.	No there will be plenty of others.	62122816	1473515026986	1473515027058	t	84
120356	1306693	No there will be plenty of others.	No there will be plenty of others.	62122820	1473515027105	1473515027184	h	72
120356	1306693	No there will be plenty of others.	No there will be plenty of others.	62122824	1473515027205	1473515027323	e	69
120356	1306693	No there will be plenty of others.	No there will be plenty of others.	62122828	1473515027276	1473515027386	r	82
120356	1306693	No there will be plenty of others.	No there will be plenty of others.	62122830	1473515027354	1473515027472	s	83
120356	1306693	No there will be plenty of others.	No there will be plenty of others.	62122831	1473515027521	1473515027624	.	190
120356	1306698	He could ping the ball 40 yards with the outside of his foot.	He could ping the ball 40 yards with the outside of his foot.	62122894	1473515030125	1473515030275	SHIFT	16
120356	1306698	He could ping the ball 40 yards with the outside of his foot.	He could ping the ball 40 yards with the outside of his foot.	62122896	1473515030199	1473515030276	H	72
120356	1306698	He could ping the ball 40 yards with the outside of his foot.	He could ping the ball 40 yards with the outside of his foot.	62122900	1473515030371	1473515030521	e	69
120356	1306698	He could ping the ball 40 yards with the outside of his foot.	He could ping the ball 40 yards with the outside of his foot.	62122902	1473515030453	1473515030563	 	32
120356	1306698	He could ping the ball 40 yards with the outside of his foot.	He could ping the ball 40 yards with the outside of his foot.	62122906	1473515030654	1473515030765	c	67
120356	1306698	He could ping the ball 40 yards with the outside of his foot.	He could ping the ball 40 yards with the outside of his foot.	62122909	1473515030743	1473515030821	o	79
120356	1306698	He could ping the ball 40 yards with the outside of his foot.	He could ping the ball 40 yards with the outside of his foot.	62122910	1473515030796	1473515030950	u	85
120356	1306698	He could ping the ball 40 yards with the outside of his foot.	He could ping the ball 40 yards with the outside of his foot.	62122911	1473515030945	1473515031017	l	76
120356	1306698	He could ping the ball 40 yards with the outside of his foot.	He could ping the ball 40 yards with the outside of his foot.	62122912	1473515031046	1473515031181	d	68
120356	1306698	He could ping the ball 40 yards with the outside of his foot.	He could ping the ball 40 yards with the outside of his foot.	62122913	1473515031112	1473515031221	 	32
120356	1306698	He could ping the ball 40 yards with the outside of his foot.	He could ping the ball 40 yards with the outside of his foot.	62122933	1473515031205	1473515031400	p	80
120356	1306698	He could ping the ball 40 yards with the outside of his foot.	He could ping the ball 40 yards with the outside of his foot.	62122935	1473515031298	1473515031471	i	73
120356	1306698	He could ping the ball 40 yards with the outside of his foot.	He could ping the ball 40 yards with the outside of his foot.	62122936	1473515031401	1473515031493	n	78
120356	1306698	He could ping the ball 40 yards with the outside of his foot.	He could ping the ball 40 yards with the outside of his foot.	62122937	1473515031572	1473515031723	t	84
120356	1306698	He could ping the ball 40 yards with the outside of his foot.	He could ping the ball 40 yards with the outside of his foot.	62122938	1473515031683	1473515031763	 	32
120356	1306698	He could ping the ball 40 yards with the outside of his foot.	He could ping the ball 40 yards with the outside of his foot.	62122939	1473515031882	1473515031929	BKSP	8
120356	1306698	He could ping the ball 40 yards with the outside of his foot.	He could ping the ball 40 yards with the outside of his foot.	62122940	1473515031991	1473515032055	BKSP	8
120356	1306698	He could ping the ball 40 yards with the outside of his foot.	He could ping the ball 40 yards with the outside of his foot.	62122941	1473515032155	1473515032281	g	71
120356	1306698	He could ping the ball 40 yards with the outside of his foot.	He could ping the ball 40 yards with the outside of his foot.	62122985	1473515032252	1473515032378	 	32
120356	1306698	He could ping the ball 40 yards with the outside of his foot.	He could ping the ball 40 yards with the outside of his foot.	62122988	1473515033182	1473515033213	h	72
120356	1306698	He could ping the ball 40 yards with the outside of his foot.	He could ping the ball 40 yards with the outside of his foot.	62122993	1473515033582	1473515033645	BKSP	8
120356	1306698	He could ping the ball 40 yards with the outside of his foot.	He could ping the ball 40 yards with the outside of his foot.	62122998	1473515033737	1473515033852	t	84
120356	1306698	He could ping the ball 40 yards with the outside of his foot.	He could ping the ball 40 yards with the outside of his foot.	62123003	1473515033847	1473515033926	h	72
120356	1306698	He could ping the ball 40 yards with the outside of his foot.	He could ping the ball 40 yards with the outside of his foot.	62123006	1473515033926	1473515034075	e	69
120356	1306698	He could ping the ball 40 yards with the outside of his foot.	He could ping the ball 40 yards with the outside of his foot.	62123011	1473515034015	1473515034127	 	32
120356	1306698	He could ping the ball 40 yards with the outside of his foot.	He could ping the ball 40 yards with the outside of his foot.	62123013	1473515034169	1473515034288	b	66
120356	1306698	He could ping the ball 40 yards with the outside of his foot.	He could ping the ball 40 yards with the outside of his foot.	62123015	1473515034254	1473515034388	a	65
120356	1306698	He could ping the ball 40 yards with the outside of his foot.	He could ping the ball 40 yards with the outside of his foot.	62123017	1473515034343	1473515034406	l	76
120356	1306698	He could ping the ball 40 yards with the outside of his foot.	He could ping the ball 40 yards with the outside of his foot.	62123018	1473515034468	1473515034556	l	76
120356	1306698	He could ping the ball 40 yards with the outside of his foot.	He could ping the ball 40 yards with the outside of his foot.	62123019	1473515034587	1473515034666	 	32
120356	1306698	He could ping the ball 40 yards with the outside of his foot.	He could ping the ball 40 yards with the outside of his foot.	62123054	1473515034726	1473515034846	4	52
120356	1306698	He could ping the ball 40 yards with the outside of his foot.	He could ping the ball 40 yards with the outside of his foot.	62123056	1473515034878	1473515034941	9	57
120356	1306698	He could ping the ball 40 yards with the outside of his foot.	He could ping the ball 40 yards with the outside of his foot.	62123058	1473515035516	1473515035619	BKSP	8
120356	1306698	He could ping the ball 40 yards with the outside of his foot.	He could ping the ball 40 yards with the outside of his foot.	62123060	1473515035721	1473515035800	0	48
120356	1306698	He could ping the ball 40 yards with the outside of his foot.	He could ping the ball 40 yards with the outside of his foot.	62123063	1473515035871	1473515035974	 	32
120356	1306698	He could ping the ball 40 yards with the outside of his foot.	He could ping the ball 40 yards with the outside of his foot.	62123065	1473515036091	1473515036170	y	89
120356	1306698	He could ping the ball 40 yards with the outside of his foot.	He could ping the ball 40 yards with the outside of his foot.	62123072	1473515036215	1473515036357	a	65
120356	1306698	He could ping the ball 40 yards with the outside of his foot.	He could ping the ball 40 yards with the outside of his foot.	62123074	1473515036311	1473515036438	r	82
120356	1306698	He could ping the ball 40 yards with the outside of his foot.	He could ping the ball 40 yards with the outside of his foot.	62123076	1473515036467	1473515036570	d	68
120356	1306698	He could ping the ball 40 yards with the outside of his foot.	He could ping the ball 40 yards with the outside of his foot.	62123078	1473515036555	1473515036703	s	83
120356	1306698	He could ping the ball 40 yards with the outside of his foot.	He could ping the ball 40 yards with the outside of his foot.	62123098	1473515036675	1473515036777	 	32
120356	1306698	He could ping the ball 40 yards with the outside of his foot.	He could ping the ball 40 yards with the outside of his foot.	62123100	1473515036828	1473515036958	w	87
120356	1306698	He could ping the ball 40 yards with the outside of his foot.	He could ping the ball 40 yards with the outside of his foot.	62123103	1473515036956	1473515037036	i	73
120356	1306698	He could ping the ball 40 yards with the outside of his foot.	He could ping the ball 40 yards with the outside of his foot.	62123106	1473515037073	1473515037199	t	84
120356	1306698	He could ping the ball 40 yards with the outside of his foot.	He could ping the ball 40 yards with the outside of his foot.	62123109	1473515037176	1473515037279	h	72
120356	1306698	He could ping the ball 40 yards with the outside of his foot.	He could ping the ball 40 yards with the outside of his foot.	62123112	1473515037311	1473515037414	 	32
120356	1306698	He could ping the ball 40 yards with the outside of his foot.	He could ping the ball 40 yards with the outside of his foot.	62123124	1473515037396	1473515037514	t	84
120356	1306698	He could ping the ball 40 yards with the outside of his foot.	He could ping the ball 40 yards with the outside of his foot.	62123126	1473515037600	1473515037736	e	69
120356	1306698	He could ping the ball 40 yards with the outside of his foot.	He could ping the ball 40 yards with the outside of his foot.	62123128	1473515037734	1473515037830	h	72
120356	1306698	He could ping the ball 40 yards with the outside of his foot.	He could ping the ball 40 yards with the outside of his foot.	62123131	1473515037903	1473515038014	 	32
120356	1306698	He could ping the ball 40 yards with the outside of his foot.	He could ping the ball 40 yards with the outside of his foot.	62123134	1473515038051	1473515038202	o	79
120356	1306698	He could ping the ball 40 yards with the outside of his foot.	He could ping the ball 40 yards with the outside of his foot.	62123188	1473515038161	1473515038295	u	85
120356	1306698	He could ping the ball 40 yards with the outside of his foot.	He could ping the ball 40 yards with the outside of his foot.	62123191	1473515038488	1473515038527	BKSP	8
120356	1306698	He could ping the ball 40 yards with the outside of his foot.	He could ping the ball 40 yards with the outside of his foot.	62123195	1473515038581	1473515038630	BKSP	8
120356	1306698	He could ping the ball 40 yards with the outside of his foot.	He could ping the ball 40 yards with the outside of his foot.	62123198	1473515038691	1473515038747	BKSP	8
120356	1306698	He could ping the ball 40 yards with the outside of his foot.	He could ping the ball 40 yards with the outside of his foot.	62123202	1473515038817	1473515038920	BKSP	8
120356	1306698	He could ping the ball 40 yards with the outside of his foot.	He could ping the ball 40 yards with the outside of his foot.	62123206	1473515039063	1473515039135	BKSP	8
120356	1306698	He could ping the ball 40 yards with the outside of his foot.	He could ping the ball 40 yards with the outside of his foot.	62123208	1473515039298	1473515039386	h	72
120356	1306698	He could ping the ball 40 yards with the outside of his foot.	He could ping the ball 40 yards with the outside of his foot.	62123209	1473515039679	1473515039821	e	69
120356	1306698	He could ping the ball 40 yards with the outside of his foot.	He could ping the ball 40 yards with the outside of his foot.	62123210	1473515039761	1473515039871	 	32
120356	1306698	He could ping the ball 40 yards with the outside of his foot.	He could ping the ball 40 yards with the outside of his foot.	62123212	1473515040029	1473515040147	o	79
120356	1306698	He could ping the ball 40 yards with the outside of his foot.	He could ping the ball 40 yards with the outside of his foot.	62123238	1473515040098	1473515040216	u	85
120356	1306698	He could ping the ball 40 yards with the outside of his foot.	He could ping the ball 40 yards with the outside of his foot.	62123243	1473515040200	1473515040309	t	84
120356	1306698	He could ping the ball 40 yards with the outside of his foot.	He could ping the ball 40 yards with the outside of his foot.	62123247	1473515040310	1473515040454	s	83
120356	1306698	He could ping the ball 40 yards with the outside of his foot.	He could ping the ball 40 yards with the outside of his foot.	62123250	1473515040451	1473515040571	i	73
120356	1306698	He could ping the ball 40 yards with the outside of his foot.	He could ping the ball 40 yards with the outside of his foot.	62123252	1473515040640	1473515040743	d	68
120356	1306698	He could ping the ball 40 yards with the outside of his foot.	He could ping the ball 40 yards with the outside of his foot.	62123253	1473515040822	1473515040964	e	69
120356	1306698	He could ping the ball 40 yards with the outside of his foot.	He could ping the ball 40 yards with the outside of his foot.	62123278	1473515040927	1473515041068	 	32
120356	1306698	He could ping the ball 40 yards with the outside of his foot.	He could ping the ball 40 yards with the outside of his foot.	62123281	1473515041069	1473515041162	o	79
120356	1306698	He could ping the ball 40 yards with the outside of his foot.	He could ping the ball 40 yards with the outside of his foot.	62123282	1473515041145	1473515041246	f	70
120356	1306698	He could ping the ball 40 yards with the outside of his foot.	He could ping the ball 40 yards with the outside of his foot.	62123284	1473515041225	1473515041359	 	32
120356	1306698	He could ping the ball 40 yards with the outside of his foot.	He could ping the ball 40 yards with the outside of his foot.	62123287	1473515041340	1473515041434	t	84
120356	1306698	He could ping the ball 40 yards with the outside of his foot.	He could ping the ball 40 yards with the outside of his foot.	62123290	1473515041723	1473515041779	BKSP	8
120356	1306698	He could ping the ball 40 yards with the outside of his foot.	He could ping the ball 40 yards with the outside of his foot.	62123291	1473515042079	1473515042142	j	72
120356	1306698	He could ping the ball 40 yards with the outside of his foot.	He could ping the ball 40 yards with the outside of his foot.	62123326	1473515042301	1473515042348	i	73
120356	1306698	He could ping the ball 40 yards with the outside of his foot.	He could ping the ball 40 yards with the outside of his foot.	62123328	1473515042652	1473515042692	BKSP	8
120356	1306698	He could ping the ball 40 yards with the outside of his foot.	He could ping the ball 40 yards with the outside of his foot.	62123330	1473515042753	1473515042809	BKSP	8
120356	1306698	He could ping the ball 40 yards with the outside of his foot.	He could ping the ball 40 yards with the outside of his foot.	62123331	1473515042998	1473515043077	i	73
120356	1306698	He could ping the ball 40 yards with the outside of his foot.	He could ping the ball 40 yards with the outside of his foot.	62123332	1473515043130	1473515043240	s	83
120356	1306698	He could ping the ball 40 yards with the outside of his foot.	He could ping the ball 40 yards with the outside of his foot.	62123333	1473515043196	1473515043298	 	32
120356	1306698	He could ping the ball 40 yards with the outside of his foot.	He could ping the ball 40 yards with the outside of his foot.	62123335	1473515043359	1473515043505	f	70
120356	1306698	He could ping the ball 40 yards with the outside of his foot.	He could ping the ball 40 yards with the outside of his foot.	62123341	1473515043502	1473515043549	o	79
120356	1306698	He could ping the ball 40 yards with the outside of his foot.	He could ping the ball 40 yards with the outside of his foot.	62123344	1473515043627	1473515043683	o	79
120356	1306698	He could ping the ball 40 yards with the outside of his foot.	He could ping the ball 40 yards with the outside of his foot.	62123350	1473515043736	1473515043815	t	84
120356	1306698	He could ping the ball 40 yards with the outside of his foot.	He could ping the ball 40 yards with the outside of his foot.	62123355	1473515043839	1473515043911	.	190
120356	1306708	She has a web address.	She has a web address.	62123443	1473515046420	1473515046809	SHIFT	16
120356	1306708	She has a web address.	She has a web address.	62123447	1473515046652	1473515046811	S	83
120356	1306708	She has a web address.	She has a web address.	62123450	1473515046906	1473515047009	h	72
120356	1306708	She has a web address.	She has a web address.	62123451	1473515047031	1473515047205	e	69
120356	1306708	She has a web address.	She has a web address.	62123453	1473515047112	1473515047255	 	32
120356	1306708	She has a web address.	She has a web address.	62123455	1473515047291	1473515047395	h	72
120356	1306708	She has a web address.	She has a web address.	62123458	1473515047567	1473515047774	a	65
120356	1306708	She has a web address.	She has a web address.	62123460	1473515047679	1473515047828	s	83
120356	1306708	She has a web address.	She has a web address.	62123463	1473515047768	1473515047903	 	32
120356	1306708	She has a web address.	She has a web address.	62123466	1473515047936	1473515048047	a	65
120356	1306708	She has a web address.	She has a web address.	62123485	1473515048004	1473515048130	 	32
120356	1306708	She has a web address.	She has a web address.	62123486	1473515048197	1473515048379	w	87
120356	1306708	She has a web address.	She has a web address.	62123487	1473515048356	1473515048526	e	69
120356	1306708	She has a web address.	She has a web address.	62123488	1473515048522	1473515048670	b	66
120356	1306708	She has a web address.	She has a web address.	62123489	1473515048666	1473515048789	 	32
120356	1306708	She has a web address.	She has a web address.	62123490	1473515048790	1473515048898	a	65
120356	1306708	She has a web address.	She has a web address.	62123498	1473515048851	1473515048970	d	68
120356	1306708	She has a web address.	She has a web address.	62123502	1473515049008	1473515049104	d	68
120356	1306708	She has a web address.	She has a web address.	62123506	1473515049198	1473515049317	r	82
120356	1306708	She has a web address.	She has a web address.	62123512	1473515049269	1473515049386	e	69
120356	1306708	She has a web address.	She has a web address.	62123518	1473515049362	1473515049456	s	83
120356	1306708	She has a web address.	She has a web address.	62123522	1473515049503	1473515049559	s	83
120356	1306708	She has a web address.	She has a web address.	62123524	1473515049743	1473515049807	.	190
