PARTICIPANT_ID	TEST_SECTION_ID	SENTENCE	USER_INPUT	KEYSTROKE_ID	PRESS_TIME	RELEASE_TIME	LETTER	KEYCODE
121154	1315107	The spokesman said its role would be to supervise the organisation.	The spokesman said its role would be to supervise the organisation.	62522745	1473530988656	1473530988802	CAPS_LOCK	20
121154	1315107	The spokesman said its role would be to supervise the organisation.	The spokesman said its role would be to supervise the organisation.	62522747	1473530988879	1473530988993	CAPS_LOCK	20
121154	1315107	The spokesman said its role would be to supervise the organisation.	The spokesman said its role would be to supervise the organisation.	62522749	1473530988945	1473530989067	h	72
121154	1315107	The spokesman said its role would be to supervise the organisation.	The spokesman said its role would be to supervise the organisation.	62522751	1473530989057	1473530989215	e	69
121154	1315107	The spokesman said its role would be to supervise the organisation.	The spokesman said its role would be to supervise the organisation.	62522753	1473530989147	1473530989278	 	32
121154	1315107	The spokesman said its role would be to supervise the organisation.	The spokesman said its role would be to supervise the organisation.	62522754	1473530989385	1473530989540	s	83
121154	1315107	The spokesman said its role would be to supervise the organisation.	The spokesman said its role would be to supervise the organisation.	62522789	1473530989497	1473530989609	p	80
121154	1315107	The spokesman said its role would be to supervise the organisation.	The spokesman said its role would be to supervise the organisation.	62522791	1473530989698	1473530989794	o	79
121154	1315107	The spokesman said its role would be to supervise the organisation.	The spokesman said its role would be to supervise the organisation.	62522793	1473530989746	1473530989868	k	75
121154	1315107	The spokesman said its role would be to supervise the organisation.	The spokesman said its role would be to supervise the organisation.	62522795	1473530989842	1473530990001	e	69
121154	1315107	The spokesman said its role would be to supervise the organisation.	The spokesman said its role would be to supervise the organisation.	62522796	1473530989911	1473530990060	s	83
121154	1315107	The spokesman said its role would be to supervise the organisation.	The spokesman said its role would be to supervise the organisation.	62522797	1473530990489	1473530990563	BKSP	8
121154	1315107	The spokesman said its role would be to supervise the organisation.	The spokesman said its role would be to supervise the organisation.	62522800	1473530990779	1473530990901	s	83
121154	1315107	The spokesman said its role would be to supervise the organisation.	The spokesman said its role would be to supervise the organisation.	62522809	1473530990912	1473530991029	m	77
121154	1315107	The spokesman said its role would be to supervise the organisation.	The spokesman said its role would be to supervise the organisation.	62522811	1473530990986	1473530991103	a	65
121154	1315107	The spokesman said its role would be to supervise the organisation.	The spokesman said its role would be to supervise the organisation.	62522812	1473530991087	1473530991172	n	78
121154	1315107	The spokesman said its role would be to supervise the organisation.	The spokesman said its role would be to supervise the organisation.	62522813	1473530991206	1473530991339	 	32
121154	1315107	The spokesman said its role would be to supervise the organisation.	The spokesman said its role would be to supervise the organisation.	62522836	1473530991302	1473530991403	s	83
121154	1315107	The spokesman said its role would be to supervise the organisation.	The spokesman said its role would be to supervise the organisation.	62522840	1473530991449	1473530991555	a	65
121154	1315107	The spokesman said its role would be to supervise the organisation.	The spokesman said its role would be to supervise the organisation.	62522841	1473530991502	1473530991608	i	73
121154	1315107	The spokesman said its role would be to supervise the organisation.	The spokesman said its role would be to supervise the organisation.	62522843	1473530991603	1473530991715	d	68
121154	1315107	The spokesman said its role would be to supervise the organisation.	The spokesman said its role would be to supervise the organisation.	62522845	1473530991656	1473530991757	 	32
121154	1315107	The spokesman said its role would be to supervise the organisation.	The spokesman said its role would be to supervise the organisation.	62522847	1473530991786	1473530991908	i	73
121154	1315107	The spokesman said its role would be to supervise the organisation.	The spokesman said its role would be to supervise the organisation.	62522854	1473530991855	1473530991967	t	84
121154	1315107	The spokesman said its role would be to supervise the organisation.	The spokesman said its role would be to supervise the organisation.	62522856	1473530991924	1473530992057	s	83
121154	1315107	The spokesman said its role would be to supervise the organisation.	The spokesman said its role would be to supervise the organisation.	62522859	1473530992047	1473530992169	 	32
121154	1315107	The spokesman said its role would be to supervise the organisation.	The spokesman said its role would be to supervise the organisation.	62522861	1473530992163	1473530992264	r	82
121154	1315107	The spokesman said its role would be to supervise the organisation.	The spokesman said its role would be to supervise the organisation.	62522863	1473530992254	1473530992350	o	79
121154	1315107	The spokesman said its role would be to supervise the organisation.	The spokesman said its role would be to supervise the organisation.	62522895	1473530992344	1473530992397	e	69
121154	1315107	The spokesman said its role would be to supervise the organisation.	The spokesman said its role would be to supervise the organisation.	62522900	1473530992382	1473530992504	l	76
121154	1315107	The spokesman said its role would be to supervise the organisation.	The spokesman said its role would be to supervise the organisation.	62522904	1473530992707	1473530992776	BKSP	8
121154	1315107	The spokesman said its role would be to supervise the organisation.	The spokesman said its role would be to supervise the organisation.	62522907	1473530992820	1473530992932	BKSP	8
121154	1315107	The spokesman said its role would be to supervise the organisation.	The spokesman said its role would be to supervise the organisation.	62522910	1473530992874	1473530993012	l	76
121154	1315107	The spokesman said its role would be to supervise the organisation.	The spokesman said its role would be to supervise the organisation.	62522913	1473530992948	1473530993038	e	69
121154	1315107	The spokesman said its role would be to supervise the organisation.	The spokesman said its role would be to supervise the organisation.	62522914	1473530993069	1473530993175	 	32
121154	1315107	The spokesman said its role would be to supervise the organisation.	The spokesman said its role would be to supervise the organisation.	62522916	1473530993203	1473530993347	w	87
121154	1315107	The spokesman said its role would be to supervise the organisation.	The spokesman said its role would be to supervise the organisation.	62522933	1473530993499	1473530993643	o	79
121154	1315107	The spokesman said its role would be to supervise the organisation.	The spokesman said its role would be to supervise the organisation.	62522937	1473530993574	1473530993691	u	85
121154	1315107	The spokesman said its role would be to supervise the organisation.	The spokesman said its role would be to supervise the organisation.	62522939	1473530993751	1473530993857	l	76
121154	1315107	The spokesman said its role would be to supervise the organisation.	The spokesman said its role would be to supervise the organisation.	62522942	1473530993814	1473530993894	d	68
121154	1315107	The spokesman said its role would be to supervise the organisation.	The spokesman said its role would be to supervise the organisation.	62522944	1473530993935	1473530994015	 	32
121154	1315107	The spokesman said its role would be to supervise the organisation.	The spokesman said its role would be to supervise the organisation.	62522951	1473530994060	1473530994156	b	66
121154	1315107	The spokesman said its role would be to supervise the organisation.	The spokesman said its role would be to supervise the organisation.	62522955	1473530994103	1473530994188	e	69
121154	1315107	The spokesman said its role would be to supervise the organisation.	The spokesman said its role would be to supervise the organisation.	62522961	1473530994183	1473530994294	 	32
121154	1315107	The spokesman said its role would be to supervise the organisation.	The spokesman said its role would be to supervise the organisation.	62522969	1473530994273	1473530994385	t	84
121154	1315107	The spokesman said its role would be to supervise the organisation.	The spokesman said its role would be to supervise the organisation.	62522998	1473530994321	1473530994460	o	79
121154	1315107	The spokesman said its role would be to supervise the organisation.	The spokesman said its role would be to supervise the organisation.	62523000	1473530994374	1473530994497	 	32
121154	1315107	The spokesman said its role would be to supervise the organisation.	The spokesman said its role would be to supervise the organisation.	62523005	1473530994522	1473530994644	s	83
121154	1315107	The spokesman said its role would be to supervise the organisation.	The spokesman said its role would be to supervise the organisation.	62523009	1473530994607	1473530994697	u	85
121154	1315107	The spokesman said its role would be to supervise the organisation.	The spokesman said its role would be to supervise the organisation.	62523011	1473530994785	1473530994902	p	80
121154	1315107	The spokesman said its role would be to supervise the organisation.	The spokesman said its role would be to supervise the organisation.	62523024	1473530994817	1473530994918	e	69
121154	1315107	The spokesman said its role would be to supervise the organisation.	The spokesman said its role would be to supervise the organisation.	62523028	1473530994859	1473530994982	r	82
121154	1315107	The spokesman said its role would be to supervise the organisation.	The spokesman said its role would be to supervise the organisation.	62523031	1473530995061	1473530995146	v	86
121154	1315107	The spokesman said its role would be to supervise the organisation.	The spokesman said its role would be to supervise the organisation.	62523033	1473530995130	1473530995258	i	73
121154	1315107	The spokesman said its role would be to supervise the organisation.	The spokesman said its role would be to supervise the organisation.	62523035	1473530995221	1473530995338	s	83
121154	1315107	The spokesman said its role would be to supervise the organisation.	The spokesman said its role would be to supervise the organisation.	62523037	1473530995274	1473530995386	e	69
121154	1315107	The spokesman said its role would be to supervise the organisation.	The spokesman said its role would be to supervise the organisation.	62523060	1473530995348	1473530995449	 	32
121154	1315107	The spokesman said its role would be to supervise the organisation.	The spokesman said its role would be to supervise the organisation.	62523064	1473530995507	1473530995587	t	84
121154	1315107	The spokesman said its role would be to supervise the organisation.	The spokesman said its role would be to supervise the organisation.	62523070	1473530995603	1473530995693	h	72
121154	1315107	The spokesman said its role would be to supervise the organisation.	The spokesman said its role would be to supervise the organisation.	62523073	1473530995688	1473530995780	e	69
121154	1315107	The spokesman said its role would be to supervise the organisation.	The spokesman said its role would be to supervise the organisation.	62523076	1473530995862	1473530995989	 	32
121154	1315107	The spokesman said its role would be to supervise the organisation.	The spokesman said its role would be to supervise the organisation.	62523078	1473530996160	1473530996276	o	79
121154	1315107	The spokesman said its role would be to supervise the organisation.	The spokesman said its role would be to supervise the organisation.	62523099	1473530996250	1473530996372	r	82
121154	1315107	The spokesman said its role would be to supervise the organisation.	The spokesman said its role would be to supervise the organisation.	62523104	1473530996329	1473530996436	g	71
121154	1315107	The spokesman said its role would be to supervise the organisation.	The spokesman said its role would be to supervise the organisation.	62523108	1473530996463	1473530996596	a	65
121154	1315107	The spokesman said its role would be to supervise the organisation.	The spokesman said its role would be to supervise the organisation.	62523113	1473530996591	1473530996697	n	78
121154	1315107	The spokesman said its role would be to supervise the organisation.	The spokesman said its role would be to supervise the organisation.	62523116	1473530996788	1473530996916	i	73
121154	1315107	The spokesman said its role would be to supervise the organisation.	The spokesman said its role would be to supervise the organisation.	62523129	1473530996894	1473530997001	s	83
121154	1315107	The spokesman said its role would be to supervise the organisation.	The spokesman said its role would be to supervise the organisation.	62523134	1473530997159	1473530997249	a	65
121154	1315107	The spokesman said its role would be to supervise the organisation.	The spokesman said its role would be to supervise the organisation.	62523139	1473530997307	1473530997403	t	84
121154	1315107	The spokesman said its role would be to supervise the organisation.	The spokesman said its role would be to supervise the organisation.	62523144	1473530997360	1473530997504	i	73
121154	1315107	The spokesman said its role would be to supervise the organisation.	The spokesman said its role would be to supervise the organisation.	62523301	1473530997414	1473530997541	o	79
121154	1315107	The spokesman said its role would be to supervise the organisation.	The spokesman said its role would be to supervise the organisation.	62523303	1473530997472	1473530997578	n	78
121154	1315107	The spokesman said its role would be to supervise the organisation.	The spokesman said its role would be to supervise the organisation.	62523307	1473530997679	1473530997774	.	190
121154	1315129	Thomas has no real value as a Fantasy player.	Thomas has no real value as a Fantasy player.	62523591	1473531005572	1473531005701	CAPS_LOCK	20
121154	1315129	Thomas has no real value as a Fantasy player.	Thomas has no real value as a Fantasy player.	62523598	1473531005664	1473531005804	T	84
121154	1315129	Thomas has no real value as a Fantasy player.	Thomas has no real value as a Fantasy player.	62523604	1473531005760	1473531005932	CAPS_LOCK	20
121154	1315129	Thomas has no real value as a Fantasy player.	Thomas has no real value as a Fantasy player.	62523608	1473531005906	1473531006023	h	72
121154	1315129	Thomas has no real value as a Fantasy player.	Thomas has no real value as a Fantasy player.	62523614	1473531006046	1473531006185	o	79
121154	1315129	Thomas has no real value as a Fantasy player.	Thomas has no real value as a Fantasy player.	62523616	1473531006121	1473531006249	m	77
121154	1315129	Thomas has no real value as a Fantasy player.	Thomas has no real value as a Fantasy player.	62523628	1473531006206	1473531006296	a	65
121154	1315129	Thomas has no real value as a Fantasy player.	Thomas has no real value as a Fantasy player.	62523632	1473531006243	1473531006361	s	83
121154	1315129	Thomas has no real value as a Fantasy player.	Thomas has no real value as a Fantasy player.	62523634	1473531006339	1473531006466	 	32
121154	1315129	Thomas has no real value as a Fantasy player.	Thomas has no real value as a Fantasy player.	62523637	1473531006767	1473531006873	h	72
121154	1315129	Thomas has no real value as a Fantasy player.	Thomas has no real value as a Fantasy player.	62523643	1473531006815	1473531006939	a	65
121154	1315129	Thomas has no real value as a Fantasy player.	Thomas has no real value as a Fantasy player.	62523671	1473531006842	1473531006980	s	83
121154	1315129	Thomas has no real value as a Fantasy player.	Thomas has no real value as a Fantasy player.	62523674	1473531006933	1473531007028	 	32
121154	1315129	Thomas has no real value as a Fantasy player.	Thomas has no real value as a Fantasy player.	62523680	1473531007093	1473531007184	n	78
121154	1315129	Thomas has no real value as a Fantasy player.	Thomas has no real value as a Fantasy player.	62523685	1473531007120	1473531007264	o	79
121154	1315129	Thomas has no real value as a Fantasy player.	Thomas has no real value as a Fantasy player.	62523688	1473531007231	1473531007359	 	32
121154	1315129	Thomas has no real value as a Fantasy player.	Thomas has no real value as a Fantasy player.	62523692	1473531007343	1473531007434	r	82
121154	1315129	Thomas has no real value as a Fantasy player.	Thomas has no real value as a Fantasy player.	62523694	1473531007482	1473531007615	e	69
121154	1315129	Thomas has no real value as a Fantasy player.	Thomas has no real value as a Fantasy player.	62523744	1473531007546	1473531007674	a	65
121154	1315129	Thomas has no real value as a Fantasy player.	Thomas has no real value as a Fantasy player.	62523748	1473531007599	1473531007705	l	76
121154	1315129	Thomas has no real value as a Fantasy player.	Thomas has no real value as a Fantasy player.	62523752	1473531007754	1473531007882	 	32
121154	1315129	Thomas has no real value as a Fantasy player.	Thomas has no real value as a Fantasy player.	62523755	1473531007985	1473531008086	v	86
121154	1315129	Thomas has no real value as a Fantasy player.	Thomas has no real value as a Fantasy player.	62523758	1473531008059	1473531008219	a	65
121154	1315129	Thomas has no real value as a Fantasy player.	Thomas has no real value as a Fantasy player.	62523760	1473531008203	1473531008320	l	76
121154	1315129	Thomas has no real value as a Fantasy player.	Thomas has no real value as a Fantasy player.	62523763	1473531008512	1473531008650	u	85
121154	1315129	Thomas has no real value as a Fantasy player.	Thomas has no real value as a Fantasy player.	62523837	1473531008645	1473531008752	e	69
121154	1315129	Thomas has no real value as a Fantasy player.	Thomas has no real value as a Fantasy player.	62523839	1473531008777	1473531008861	 	32
121154	1315129	Thomas has no real value as a Fantasy player.	Thomas has no real value as a Fantasy player.	62523843	1473531009323	1473531009419	a	65
121154	1315129	Thomas has no real value as a Fantasy player.	Thomas has no real value as a Fantasy player.	62523847	1473531009345	1473531009472	s	83
121154	1315129	Thomas has no real value as a Fantasy player.	Thomas has no real value as a Fantasy player.	62523850	1473531009430	1473531009547	 	32
121154	1315129	Thomas has no real value as a Fantasy player.	Thomas has no real value as a Fantasy player.	62523855	1473531009552	1473531009707	CAPS_LOCK	20
121154	1315129	Thomas has no real value as a Fantasy player.	Thomas has no real value as a Fantasy player.	62523859	1473531009847	1473531009970	CAPS_LOCK	20
121154	1315129	Thomas has no real value as a Fantasy player.	Thomas has no real value as a Fantasy player.	62523865	1473531010069	1473531010170	a	65
121154	1315129	Thomas has no real value as a Fantasy player.	Thomas has no real value as a Fantasy player.	62523886	1473531010181	1473531010316	 	32
121154	1315129	Thomas has no real value as a Fantasy player.	Thomas has no real value as a Fantasy player.	62523890	1473531010250	1473531010391	CAPS_LOCK	20
121154	1315129	Thomas has no real value as a Fantasy player.	Thomas has no real value as a Fantasy player.	62523898	1473531010358	1473531010487	F	70
121154	1315129	Thomas has no real value as a Fantasy player.	Thomas has no real value as a Fantasy player.	62523901	1473531010454	1473531010631	CAPS_LOCK	20
121154	1315129	Thomas has no real value as a Fantasy player.	Thomas has no real value as a Fantasy player.	62523905	1473531010519	1473531010663	a	65
121154	1315129	Thomas has no real value as a Fantasy player.	Thomas has no real value as a Fantasy player.	62523912	1473531010674	1473531010796	n	78
121154	1315129	Thomas has no real value as a Fantasy player.	Thomas has no real value as a Fantasy player.	62523952	1473531010764	1473531010860	t	84
121154	1315129	Thomas has no real value as a Fantasy player.	Thomas has no real value as a Fantasy player.	62523957	1473531011032	1473531011149	a	65
121154	1315129	Thomas has no real value as a Fantasy player.	Thomas has no real value as a Fantasy player.	62523963	1473531011090	1473531011223	s	83
121154	1315129	Thomas has no real value as a Fantasy player.	Thomas has no real value as a Fantasy player.	62523970	1473531011353	1473531011475	y	89
121154	1315129	Thomas has no real value as a Fantasy player.	Thomas has no real value as a Fantasy player.	62523976	1473531011449	1473531011576	 	32
121154	1315129	Thomas has no real value as a Fantasy player.	Thomas has no real value as a Fantasy player.	62523983	1473531011653	1473531011756	CAPS_LOCK	20
121154	1315129	Thomas has no real value as a Fantasy player.	Thomas has no real value as a Fantasy player.	62524009	1473531011724	1473531011833	P	80
121154	1315129	Thomas has no real value as a Fantasy player.	Thomas has no real value as a Fantasy player.	62524012	1473531011827	1473531012018	CAPS_LOCK	20
121154	1315129	Thomas has no real value as a Fantasy player.	Thomas has no real value as a Fantasy player.	62524017	1473531012012	1473531012140	BKSP	8
121154	1315129	Thomas has no real value as a Fantasy player.	Thomas has no real value as a Fantasy player.	62524022	1473531012184	1473531012302	p	80
121154	1315129	Thomas has no real value as a Fantasy player.	Thomas has no real value as a Fantasy player.	62524027	1473531012232	1473531012344	l	76
121154	1315129	Thomas has no real value as a Fantasy player.	Thomas has no real value as a Fantasy player.	62524032	1473531012296	1473531012397	a	65
121154	1315129	Thomas has no real value as a Fantasy player.	Thomas has no real value as a Fantasy player.	62524037	1473531012437	1473531012533	y	89
121154	1315129	Thomas has no real value as a Fantasy player.	Thomas has no real value as a Fantasy player.	62524040	1473531012475	1473531012608	e	69
121154	1315129	Thomas has no real value as a Fantasy player.	Thomas has no real value as a Fantasy player.	62524044	1473531012512	1473531012624	r	82
121154	1315129	Thomas has no real value as a Fantasy player.	Thomas has no real value as a Fantasy player.	62524047	1473531012680	1473531012797	.	190
121154	1315139	Brcko had been proposed as another site for a safe area.	Brcko had been proposed as another site for a safe area.	62524396	1473531017979	1473531018091	CAPS_LOCK	20
121154	1315139	Brcko had been proposed as another site for a safe area.	Brcko had been proposed as another site for a safe area.	62524399	1473531018075	1473531018162	B	66
121154	1315139	Brcko had been proposed as another site for a safe area.	Brcko had been proposed as another site for a safe area.	62524403	1473531018144	1473531018294	CAPS_LOCK	20
121154	1315139	Brcko had been proposed as another site for a safe area.	Brcko had been proposed as another site for a safe area.	62524407	1473531018284	1473531018417	r	82
121154	1315139	Brcko had been proposed as another site for a safe area.	Brcko had been proposed as another site for a safe area.	62524409	1473531018464	1473531018592	c	67
121154	1315139	Brcko had been proposed as another site for a safe area.	Brcko had been proposed as another site for a safe area.	62524411	1473531018560	1473531018666	k	75
121154	1315139	Brcko had been proposed as another site for a safe area.	Brcko had been proposed as another site for a safe area.	62524422	1473531018650	1473531018800	o	79
121154	1315139	Brcko had been proposed as another site for a safe area.	Brcko had been proposed as another site for a safe area.	62524425	1473531018763	1473531018901	 	32
121154	1315139	Brcko had been proposed as another site for a safe area.	Brcko had been proposed as another site for a safe area.	62524427	1473531019062	1473531019163	h	72
121154	1315139	Brcko had been proposed as another site for a safe area.	Brcko had been proposed as another site for a safe area.	62524429	1473531019120	1473531019237	a	65
121154	1315139	Brcko had been proposed as another site for a safe area.	Brcko had been proposed as another site for a safe area.	62524433	1473531019184	1473531019312	d	68
121154	1315139	Brcko had been proposed as another site for a safe area.	Brcko had been proposed as another site for a safe area.	62524480	1473531019269	1473531019397	 	32
121154	1315139	Brcko had been proposed as another site for a safe area.	Brcko had been proposed as another site for a safe area.	62524484	1473531019824	1473531019941	b	66
121154	1315139	Brcko had been proposed as another site for a safe area.	Brcko had been proposed as another site for a safe area.	62524488	1473531019893	1473531019962	e	69
121154	1315139	Brcko had been proposed as another site for a safe area.	Brcko had been proposed as another site for a safe area.	62524491	1473531020011	1473531020144	e	69
121154	1315139	Brcko had been proposed as another site for a safe area.	Brcko had been proposed as another site for a safe area.	62524494	1473531020080	1473531020181	n	78
121154	1315139	Brcko had been proposed as another site for a safe area.	Brcko had been proposed as another site for a safe area.	62524497	1473531020211	1473531020339	 	32
121154	1315139	Brcko had been proposed as another site for a safe area.	Brcko had been proposed as another site for a safe area.	62524566	1473531020482	1473531020578	p	80
121154	1315139	Brcko had been proposed as another site for a safe area.	Brcko had been proposed as another site for a safe area.	62524569	1473531020551	1473531020679	r	82
121154	1315139	Brcko had been proposed as another site for a safe area.	Brcko had been proposed as another site for a safe area.	62524572	1473531020636	1473531020764	o	79
121154	1315139	Brcko had been proposed as another site for a safe area.	Brcko had been proposed as another site for a safe area.	62524575	1473531020874	1473531021017	p	80
121154	1315139	Brcko had been proposed as another site for a safe area.	Brcko had been proposed as another site for a safe area.	62524580	1473531021327	1473531021434	o	79
121154	1315139	Brcko had been proposed as another site for a safe area.	Brcko had been proposed as another site for a safe area.	62524587	1473531021413	1473531021524	s	83
121154	1315139	Brcko had been proposed as another site for a safe area.	Brcko had been proposed as another site for a safe area.	62524588	1473531021466	1473531021615	e	69
121154	1315139	Brcko had been proposed as another site for a safe area.	Brcko had been proposed as another site for a safe area.	62524589	1473531021593	1473531021764	d	68
121154	1315139	Brcko had been proposed as another site for a safe area.	Brcko had been proposed as another site for a safe area.	62524590	1473531021716	1473531021834	 	32
121154	1315139	Brcko had been proposed as another site for a safe area.	Brcko had been proposed as another site for a safe area.	62524592	1473531021839	1473531021956	a	65
121154	1315139	Brcko had been proposed as another site for a safe area.	Brcko had been proposed as another site for a safe area.	62524604	1473531021887	1473531022020	s	83
121154	1315139	Brcko had been proposed as another site for a safe area.	Brcko had been proposed as another site for a safe area.	62524606	1473531021961	1473531022094	 	32
121154	1315139	Brcko had been proposed as another site for a safe area.	Brcko had been proposed as another site for a safe area.	62524611	1473531022151	1473531022268	a	65
121154	1315139	Brcko had been proposed as another site for a safe area.	Brcko had been proposed as another site for a safe area.	62524617	1473531022263	1473531022391	n	78
121154	1315139	Brcko had been proposed as another site for a safe area.	Brcko had been proposed as another site for a safe area.	62524626	1473531022332	1473531022455	o	79
121154	1315139	Brcko had been proposed as another site for a safe area.	Brcko had been proposed as another site for a safe area.	62524633	1473531022396	1473531022492	t	84
121154	1315139	Brcko had been proposed as another site for a safe area.	Brcko had been proposed as another site for a safe area.	62524638	1473531022503	1473531022609	h	72
121154	1315139	Brcko had been proposed as another site for a safe area.	Brcko had been proposed as another site for a safe area.	62524643	1473531022556	1473531022657	r	69
121154	1315139	Brcko had been proposed as another site for a safe area.	Brcko had been proposed as another site for a safe area.	62524647	1473531022668	1473531022790	 	32
121154	1315139	Brcko had been proposed as another site for a safe area.	Brcko had been proposed as another site for a safe area.	62524686	1473531022764	1473531022859	f	70
121154	1315139	Brcko had been proposed as another site for a safe area.	Brcko had been proposed as another site for a safe area.	62524690	1473531023027	1473531023128	BKSP	8
121154	1315139	Brcko had been proposed as another site for a safe area.	Brcko had been proposed as another site for a safe area.	62524694	1473531023167	1473531023268	s	83
121154	1315139	Brcko had been proposed as another site for a safe area.	Brcko had been proposed as another site for a safe area.	62524699	1473531023247	1473531023380	i	73
121154	1315139	Brcko had been proposed as another site for a safe area.	Brcko had been proposed as another site for a safe area.	62524704	1473531023747	1473531023834	t	84
121154	1315139	Brcko had been proposed as another site for a safe area.	Brcko had been proposed as another site for a safe area.	62524709	1473531023874	1473531023975	e	69
121154	1315139	Brcko had been proposed as another site for a safe area.	Brcko had been proposed as another site for a safe area.	62524720	1473531023938	1473531024050	 	32
121154	1315139	Brcko had been proposed as another site for a safe area.	Brcko had been proposed as another site for a safe area.	62524723	1473531024169	1473531024280	f	70
121154	1315139	Brcko had been proposed as another site for a safe area.	Brcko had been proposed as another site for a safe area.	62524726	1473531024243	1473531024355	o	79
121154	1315139	Brcko had been proposed as another site for a safe area.	Brcko had been proposed as another site for a safe area.	62524730	1473531024334	1473531024440	r	82
121154	1315139	Brcko had been proposed as another site for a safe area.	Brcko had been proposed as another site for a safe area.	62524734	1473531024414	1473531024552	 	32
121154	1315139	Brcko had been proposed as another site for a safe area.	Brcko had been proposed as another site for a safe area.	62524758	1473531024546	1473531024648	a	65
121154	1315139	Brcko had been proposed as another site for a safe area.	Brcko had been proposed as another site for a safe area.	62524759	1473531024643	1473531024765	 	32
121154	1315139	Brcko had been proposed as another site for a safe area.	Brcko had been proposed as another site for a safe area.	62524762	1473531024865	1473531024987	s	83
121154	1315139	Brcko had been proposed as another site for a safe area.	Brcko had been proposed as another site for a safe area.	62524766	1473531025040	1473531025157	a	65
121154	1315139	Brcko had been proposed as another site for a safe area.	Brcko had been proposed as another site for a safe area.	62524770	1473531025109	1473531025253	f	70
121154	1315139	Brcko had been proposed as another site for a safe area.	Brcko had been proposed as another site for a safe area.	62524818	1473531025194	1473531025306	e	69
121154	1315139	Brcko had been proposed as another site for a safe area.	Brcko had been proposed as another site for a safe area.	62524822	1473531025231	1473531025359	 	32
121154	1315139	Brcko had been proposed as another site for a safe area.	Brcko had been proposed as another site for a safe area.	62524824	1473531025638	1473531025787	a	65
121154	1315139	Brcko had been proposed as another site for a safe area.	Brcko had been proposed as another site for a safe area.	62524828	1473531025844	1473531025934	r	82
121154	1315157	They have capacity now.	Tey ave capacity now.	62524946	1473531025968	1473531028387	e	69
121154	1315157	They have capacity now.	Tey ave capacity now.	62524958	1473531026006	1473531028703	a	65
121154	1315157	They have capacity now.	Tey ave capacity now.	62524936	1473531027880	1473531028003	CAPS_LOCK	20
121154	1315157	They have capacity now.	Tey ave capacity now.	62524939	1473531027961	1473531028090	T	84
121154	1315157	They have capacity now.	Tey ave capacity now.	62524942	1473531028068	1473531028191	CAPS_LOCK	20
121154	1315157	They have capacity now.	Tey ave capacity now.	62524944	1473531028137	1473531028238	h	72
121154	1315157	They have capacity now.	Tey ave capacity now.	62524947	1473531028292	1473531028408	y	89
121154	1315157	They have capacity now.	Tey ave capacity now.	62524948	1473531028385	1473531028466	 	32
121154	1315157	They have capacity now.	Tey ave capacity now.	62524951	1473531028512	1473531028645	h	72
121154	1315157	They have capacity now.	Tey ave capacity now.	62524962	1473531028677	1473531028767	v	86
121154	1315157	They have capacity now.	Tey ave capacity now.	62524964	1473531028772	1473531028863	e	69
121154	1315157	They have capacity now.	Tey ave capacity now.	62524968	1473531028815	1473531028932	 	32
121154	1315157	They have capacity now.	Tey ave capacity now.	62524971	1473531029116	1473531029211	c	67
121154	1315157	They have capacity now.	Tey ave capacity now.	62524991	1473531029158	1473531029344	a	65
121154	1315157	They have capacity now.	Tey ave capacity now.	62524997	1473531029367	1473531029473	p	80
121154	1315157	They have capacity now.	Tey ave capacity now.	62525001	1473531029431	1473531029542	a	65
121154	1315157	They have capacity now.	Tey ave capacity now.	62525009	1473531030006	1473531030096	c	67
121154	1315157	They have capacity now.	Tey ave capacity now.	62525013	1473531030159	1473531030281	i	73
121154	1315157	They have capacity now.	Tey ave capacity now.	62525031	1473531030238	1473531030329	t	84
121154	1315157	They have capacity now.	Tey ave capacity now.	62525035	1473531030375	1473531030476	y	89
121154	1315157	They have capacity now.	Tey ave capacity now.	62525039	1473531030418	1473531030530	 	32
121154	1315157	They have capacity now.	Tey ave capacity now.	62525043	1473531030651	1473531030763	n	78
121154	1315157	They have capacity now.	Tey ave capacity now.	62525047	1473531030699	1473531030811	o	79
121154	1315157	They have capacity now.	Tey ave capacity now.	62525049	1473531030752	1473531030858	w	87
121154	1315165	I didn't hear from Ginger this week.	I didn't hear from Ginger this week.	62525214	1473531033002	1473531033115	CAPS_LOCK	20
121154	1315165	I didn't hear from Ginger this week.	I didn't hear from Ginger this week.	62525216	1473531033099	1473531033192	I	73
121154	1315165	I didn't hear from Ginger this week.	I didn't hear from Ginger this week.	62525217	1473531033168	1473531033303	CAPS_LOCK	20
121154	1315165	I didn't hear from Ginger this week.	I didn't hear from Ginger this week.	62525218	1473531033208	1473531033340	 	32
121154	1315165	I didn't hear from Ginger this week.	I didn't hear from Ginger this week.	62525219	1473531033363	1473531033464	d	68
121154	1315165	I didn't hear from Ginger this week.	I didn't hear from Ginger this week.	62525220	1473531033432	1473531033533	i	73
121154	1315165	I didn't hear from Ginger this week.	I didn't hear from Ginger this week.	62525257	1473531033512	1473531033624	d	68
121154	1315165	I didn't hear from Ginger this week.	I didn't hear from Ginger this week.	62525262	1473531033581	1473531033683	n	78
121154	1315165	I didn't hear from Ginger this week.	I didn't hear from Ginger this week.	62525266	1473531033783	1473531033884	'	192
121154	1315165	I didn't hear from Ginger this week.	I didn't hear from Ginger this week.	62525269	1473531033868	1473531033964	t	84
121154	1315165	I didn't hear from Ginger this week.	I didn't hear from Ginger this week.	62525272	1473531033987	1473531034077	 	32
121154	1315165	I didn't hear from Ginger this week.	I didn't hear from Ginger this week.	62525274	1473531034198	1473531034305	h	72
121154	1315165	I didn't hear from Ginger this week.	I didn't hear from Ginger this week.	62525285	1473531034267	1473531034422	e	69
121154	1315165	I didn't hear from Ginger this week.	I didn't hear from Ginger this week.	62525289	1473531034342	1473531034480	a	65
121154	1315165	I didn't hear from Ginger this week.	I didn't hear from Ginger this week.	62525294	1473531034524	1473531034641	r	82
121154	1315165	I didn't hear from Ginger this week.	I didn't hear from Ginger this week.	62525297	1473531034615	1473531034710	 	32
121154	1315165	I didn't hear from Ginger this week.	I didn't hear from Ginger this week.	62525300	1473531034749	1473531034877	f	70
121154	1315165	I didn't hear from Ginger this week.	I didn't hear from Ginger this week.	62525359	1473531034818	1473531034930	r	82
121154	1315165	I didn't hear from Ginger this week.	I didn't hear from Ginger this week.	62525363	1473531034861	1473531034978	o	79
121154	1315165	I didn't hear from Ginger this week.	I didn't hear from Ginger this week.	62525367	1473531034909	1473531035009	m	77
121154	1315165	I didn't hear from Ginger this week.	I didn't hear from Ginger this week.	62525375	1473531035043	1473531035171	 	32
121154	1315165	I didn't hear from Ginger this week.	I didn't hear from Ginger this week.	62525382	1473531035331	1473531035444	CAPS_LOCK	20
121154	1315165	I didn't hear from Ginger this week.	I didn't hear from Ginger this week.	62525387	1473531035401	1473531035520	G	71
121154	1315165	I didn't hear from Ginger this week.	I didn't hear from Ginger this week.	62525392	1473531035492	1473531035658	CAPS_LOCK	20
121154	1315165	I didn't hear from Ginger this week.	I didn't hear from Ginger this week.	62525396	1473531035872	1473531035968	i	73
121154	1315165	I didn't hear from Ginger this week.	I didn't hear from Ginger this week.	62525428	1473531035904	1473531036037	n	78
121154	1315165	I didn't hear from Ginger this week.	I didn't hear from Ginger this week.	62525432	1473531035973	1473531036064	e	69
121154	1315165	I didn't hear from Ginger this week.	I didn't hear from Ginger this week.	62525438	1473531036000	1473531036112	r	82
121154	1315165	I didn't hear from Ginger this week.	I didn't hear from Ginger this week.	62525445	1473531036107	1473531036229	 	32
121154	1315165	I didn't hear from Ginger this week.	I didn't hear from Ginger this week.	62525450	1473531036339	1473531036419	BKSP	8
121154	1315165	I didn't hear from Ginger this week.	I didn't hear from Ginger this week.	62525462	1473531036465	1473531036566	BKSP	8
121154	1315165	I didn't hear from Ginger this week.	I didn't hear from Ginger this week.	62525466	1473531036614	1473531036704	BKSP	8
121154	1315165	I didn't hear from Ginger this week.	I didn't hear from Ginger this week.	62525474	1473531036788	1473531036878	e	69
121154	1315165	I didn't hear from Ginger this week.	I didn't hear from Ginger this week.	62525531	1473531036830	1473531036905	t	84
121154	1315165	I didn't hear from Ginger this week.	I didn't hear from Ginger this week.	62525534	1473531036857	1473531036947	r	82
121154	1315165	I didn't hear from Ginger this week.	I didn't hear from Ginger this week.	62525536	1473531036910	1473531037038	 	32
121154	1315165	I didn't hear from Ginger this week.	I didn't hear from Ginger this week.	62525540	1473531037133	1473531037197	BKSP	8
121154	1315165	I didn't hear from Ginger this week.	I didn't hear from Ginger this week.	62525542	1473531037259	1473531037349	BKSP	8
121154	1315165	I didn't hear from Ginger this week.	I didn't hear from Ginger this week.	62525546	1473531037427	1473531037501	BKSP	8
121154	1315165	I didn't hear from Ginger this week.	I didn't hear from Ginger this week.	62525547	1473531037569	1473531037675	BKSP	8
121154	1315165	I didn't hear from Ginger this week.	I didn't hear from Ginger this week.	62525549	1473531037644	1473531037734	g	71
121154	1315165	I didn't hear from Ginger this week.	I didn't hear from Ginger this week.	62525551	1473531037792	1473531037930	e	69
121154	1315165	I didn't hear from Ginger this week.	I didn't hear from Ginger this week.	62525581	1473531037835	1473531037967	r	82
121154	1315165	I didn't hear from Ginger this week.	I didn't hear from Ginger this week.	62525584	1473531037888	1473531038005	 	32
121154	1315165	I didn't hear from Ginger this week.	I didn't hear from Ginger this week.	62525587	1473531038042	1473531038143	t	84
121154	1315165	I didn't hear from Ginger this week.	I didn't hear from Ginger this week.	62525588	1473531038117	1473531038234	h	72
121154	1315165	I didn't hear from Ginger this week.	I didn't hear from Ginger this week.	62525590	1473531038159	1473531038271	i	73
121154	1315165	I didn't hear from Ginger this week.	I didn't hear from Ginger this week.	62525595	1473531038260	1473531038356	s	83
121154	1315165	I didn't hear from Ginger this week.	I didn't hear from Ginger this week.	62525601	1473531038442	1473531038559	 	32
121154	1315165	I didn't hear from Ginger this week.	I didn't hear from Ginger this week.	62525644	1473531038764	1473531038881	w	87
121154	1315165	I didn't hear from Ginger this week.	I didn't hear from Ginger this week.	62525648	1473531038806	1473531038923	e	69
121154	1315165	I didn't hear from Ginger this week.	I didn't hear from Ginger this week.	62525652	1473531038975	1473531039098	e	69
121154	1315165	I didn't hear from Ginger this week.	I didn't hear from Ginger this week.	62525656	1473531039029	1473531039130	k	75
121154	1315177	Good luck this week, I can't see any sure things out there.	Good luck this week, I can't see any sure things out there.	62526113	1473531043197	1473531043353	CAPS_LOCK	20
121154	1315177	Good luck this week, I can't see any sure things out there.	Good luck this week, I can't see any sure things out there.	62526114	1473531043748	1473531043855	CAPS_LOCK	20
121154	1315177	Good luck this week, I can't see any sure things out there.	Good luck this week, I can't see any sure things out there.	62526118	1473531045935	1473531046086	CAPS_LOCK	20
121154	1315177	Good luck this week, I can't see any sure things out there.	Good luck this week, I can't see any sure things out there.	62526122	1473531046049	1473531046183	G	71
121154	1315177	Good luck this week, I can't see any sure things out there.	Good luck this week, I can't see any sure things out there.	62526126	1473531046145	1473531046289	CAPS_LOCK	20
121154	1315177	Good luck this week, I can't see any sure things out there.	Good luck this week, I can't see any sure things out there.	62526130	1473531046279	1473531046369	o	79
121154	1315177	Good luck this week, I can't see any sure things out there.	Good luck this week, I can't see any sure things out there.	62526134	1473531046414	1473531046521	o	79
121154	1315177	Good luck this week, I can't see any sure things out there.	Good luck this week, I can't see any sure things out there.	62526138	1473531046510	1473531046617	d	68
121154	1315177	Good luck this week, I can't see any sure things out there.	Good luck this week, I can't see any sure things out there.	62526192	1473531046564	1473531046670	 	32
121154	1315177	Good luck this week, I can't see any sure things out there.	Good luck this week, I can't see any sure things out there.	62526196	1473531046826	1473531046943	l	76
121154	1315177	Good luck this week, I can't see any sure things out there.	Good luck this week, I can't see any sure things out there.	62526205	1473531047151	1473531047247	u	85
121154	1315177	Good luck this week, I can't see any sure things out there.	Good luck this week, I can't see any sure things out there.	62526210	1473531047282	1473531047404	c	67
121154	1315177	Good luck this week, I can't see any sure things out there.	Good luck this week, I can't see any sure things out there.	62526212	1473531047362	1473531047452	k	75
121154	1315177	Good luck this week, I can't see any sure things out there.	Good luck this week, I can't see any sure things out there.	62526215	1473531047517	1473531047596	 	32
121154	1315177	Good luck this week, I can't see any sure things out there.	Good luck this week, I can't see any sure things out there.	62526218	1473531047643	1473531047761	t	84
121154	1315177	Good luck this week, I can't see any sure things out there.	Good luck this week, I can't see any sure things out there.	62526222	1473531047712	1473531047819	h	72
121154	1315177	Good luck this week, I can't see any sure things out there.	Good luck this week, I can't see any sure things out there.	62526226	1473531047755	1473531047872	i	73
121154	1315177	Good luck this week, I can't see any sure things out there.	Good luck this week, I can't see any sure things out there.	62526231	1473531047824	1473531047941	s	83
121154	1315177	Good luck this week, I can't see any sure things out there.	Good luck this week, I can't see any sure things out there.	62526261	1473531047899	1473531048021	 	32
121154	1315177	Good luck this week, I can't see any sure things out there.	Good luck this week, I can't see any sure things out there.	62526263	1473531048026	1473531048132	w	87
121154	1315177	Good luck this week, I can't see any sure things out there.	Good luck this week, I can't see any sure things out there.	62526266	1473531048074	1473531048175	e	69
121154	1315177	Good luck this week, I can't see any sure things out there.	Good luck this week, I can't see any sure things out there.	62526270	1473531048226	1473531048359	e	69
121154	1315177	Good luck this week, I can't see any sure things out there.	Good luck this week, I can't see any sure things out there.	62526274	1473531048290	1473531048401	k	75
121154	1315177	Good luck this week, I can't see any sure things out there.	Good luck this week, I can't see any sure things out there.	62526279	1473531048457	1473531048554	,	188
121154	1315177	Good luck this week, I can't see any sure things out there.	Good luck this week, I can't see any sure things out there.	62526289	1473531048623	1473531048715	 	32
121154	1315177	Good luck this week, I can't see any sure things out there.	Good luck this week, I can't see any sure things out there.	62526291	1473531048671	1473531048752	CAPS_LOCK	20
121154	1315177	Good luck this week, I can't see any sure things out there.	Good luck this week, I can't see any sure things out there.	62526295	1473531048747	1473531048860	I	73
121154	1315177	Good luck this week, I can't see any sure things out there.	Good luck this week, I can't see any sure things out there.	62526300	1473531048795	1473531048930	 	20
121154	1315177	Good luck this week, I can't see any sure things out there.	Good luck this week, I can't see any sure things out there.	62526304	1473531048940	1473531049046	c	67
121154	1315177	Good luck this week, I can't see any sure things out there.	Good luck this week, I can't see any sure things out there.	62526340	1473531048993	1473531049126	a	65
121154	1315177	Good luck this week, I can't see any sure things out there.	Good luck this week, I can't see any sure things out there.	62526344	1473531049031	1473531049131	n	78
121154	1315177	Good luck this week, I can't see any sure things out there.	Good luck this week, I can't see any sure things out there.	62526349	1473531049221	1473531049322	'	192
121154	1315177	Good luck this week, I can't see any sure things out there.	Good luck this week, I can't see any sure things out there.	62526353	1473531049301	1473531049402	t	84
121154	1315177	Good luck this week, I can't see any sure things out there.	Good luck this week, I can't see any sure things out there.	62526357	1473531049397	1473531049503	 	32
121154	1315177	Good luck this week, I can't see any sure things out there.	Good luck this week, I can't see any sure things out there.	62526362	1473531049573	1473531049669	s	83
121154	1315177	Good luck this week, I can't see any sure things out there.	Good luck this week, I can't see any sure things out there.	62526367	1473531049750	1473531049819	e	69
121154	1315177	Good luck this week, I can't see any sure things out there.	Good luck this week, I can't see any sure things out there.	62526376	1473531049879	1473531049991	e	69
121154	1315177	Good luck this week, I can't see any sure things out there.	Good luck this week, I can't see any sure things out there.	62526378	1473531049948	1473531050044	 	32
121154	1315177	Good luck this week, I can't see any sure things out there.	Good luck this week, I can't see any sure things out there.	62526381	1473531050060	1473531050188	a	65
121154	1315177	Good luck this week, I can't see any sure things out there.	Good luck this week, I can't see any sure things out there.	62526385	1473531050155	1473531050278	n	78
121154	1315177	Good luck this week, I can't see any sure things out there.	Good luck this week, I can't see any sure things out there.	62526419	1473531050236	1473531050347	y	89
121154	1315177	Good luck this week, I can't see any sure things out there.	Good luck this week, I can't see any sure things out there.	62526425	1473531050326	1473531050433	 	32
121154	1315177	Good luck this week, I can't see any sure things out there.	Good luck this week, I can't see any sure things out there.	62526430	1473531050501	1473531050597	s	83
121154	1315177	Good luck this week, I can't see any sure things out there.	Good luck this week, I can't see any sure things out there.	62526436	1473531050586	1473531050730	u	85
121154	1315177	Good luck this week, I can't see any sure things out there.	Good luck this week, I can't see any sure things out there.	62526440	1473531050655	1473531050741	r	82
121154	1315177	Good luck this week, I can't see any sure things out there.	Good luck this week, I can't see any sure things out there.	62526442	1473531050752	1473531050885	e	69
121154	1315177	Good luck this week, I can't see any sure things out there.	Good luck this week, I can't see any sure things out there.	62526444	1473531050858	1473531050964	 	32
121154	1315177	Good luck this week, I can't see any sure things out there.	Good luck this week, I can't see any sure things out there.	62526446	1473531050959	1473531051065	t	84
121154	1315177	Good luck this week, I can't see any sure things out there.	Good luck this week, I can't see any sure things out there.	62526450	1473531051039	1473531051145	h	72
121154	1315177	Good luck this week, I can't see any sure things out there.	Good luck this week, I can't see any sure things out there.	62526455	1473531051097	1473531051236	i	73
121154	1315177	Good luck this week, I can't see any sure things out there.	Good luck this week, I can't see any sure things out there.	62526461	1473531051177	1473531051305	n	78
121154	1315177	Good luck this week, I can't see any sure things out there.	Good luck this week, I can't see any sure things out there.	62526523	1473531051252	1473531051369	g	71
121154	1315177	Good luck this week, I can't see any sure things out there.	Good luck this week, I can't see any sure things out there.	62526525	1473531052038	1473531052133	s	83
121154	1315177	Good luck this week, I can't see any sure things out there.	Good luck this week, I can't see any sure things out there.	62526530	1473531052223	1473531052335	 	32
121154	1315177	Good luck this week, I can't see any sure things out there.	Good luck this week, I can't see any sure things out there.	62526540	1473531052471	1473531052583	o	79
121154	1315177	Good luck this week, I can't see any sure things out there.	Good luck this week, I can't see any sure things out there.	62526566	1473531052535	1473531052631	u	85
121154	1315177	Good luck this week, I can't see any sure things out there.	Good luck this week, I can't see any sure things out there.	62526568	1473531052577	1473531052662	t	84
121154	1315177	Good luck this week, I can't see any sure things out there.	Good luck this week, I can't see any sure things out there.	62526571	1473531052692	1473531052777	 	32
121154	1315177	Good luck this week, I can't see any sure things out there.	Good luck this week, I can't see any sure things out there.	62526572	1473531052761	1473531052857	t	84
121154	1315177	Good luck this week, I can't see any sure things out there.	Good luck this week, I can't see any sure things out there.	62526574	1473531052836	1473531052937	h	72
121154	1315177	Good luck this week, I can't see any sure things out there.	Good luck this week, I can't see any sure things out there.	62526576	1473531052927	1473531053017	e	69
121154	1315177	Good luck this week, I can't see any sure things out there.	Good luck this week, I can't see any sure things out there.	62526575	1473531052948	1473531053118	r	82
121154	1315194	Can you bring these to 49C1?	Can you bring tese to 49c1?	62527126	1473531053065	1473531059666	e	69
121154	1315194	Can you bring these to 49C1?	Can you bring tese to 49c1?	62526862	1473531055727	1473531055920	CAPS_LOCK	20
121154	1315194	Can you bring these to 49C1?	Can you bring tese to 49c1?	62526865	1473531056046	1473531056100	CAPS_LOCK	20
121154	1315194	Can you bring these to 49C1?	Can you bring tese to 49c1?	62526869	1473531056222	1473531056361	CAPS_LOCK	20
121154	1315194	Can you bring these to 49C1?	Can you bring tese to 49c1?	62526870	1473531056387	1473531056533	C	67
121154	1315194	Can you bring these to 49C1?	Can you bring tese to 49c1?	62526872	1473531056478	1473531056682	CAPS_LOCK	20
121154	1315194	Can you bring these to 49C1?	Can you bring tese to 49c1?	62526875	1473531056549	1473531056708	a	65
121154	1315194	Can you bring these to 49C1?	Can you bring tese to 49c1?	62526880	1473531056692	1473531056799	n	78
121154	1315194	Can you bring these to 49C1?	Can you bring tese to 49c1?	62526884	1473531057088	1473531057190	 	32
121154	1315194	Can you bring these to 49C1?	Can you bring tese to 49c1?	62526888	1473531057213	1473531057304	y	89
121154	1315194	Can you bring these to 49C1?	Can you bring tese to 49c1?	62527001	1473531057293	1473531057400	o	79
121154	1315194	Can you bring these to 49C1?	Can you bring tese to 49c1?	62527004	1473531057425	1473531057574	 	32
121154	1315194	Can you bring these to 49C1?	Can you bring tese to 49c1?	62527011	1473531058373	1473531058474	BKSP	8
121154	1315194	Can you bring these to 49C1?	Can you bring tese to 49c1?	62527016	1473531058619	1473531058741	u	85
121154	1315194	Can you bring these to 49C1?	Can you bring tese to 49c1?	62527022	1473531058688	1473531058821	 	32
121154	1315194	Can you bring these to 49C1?	Can you bring tese to 49c1?	62527029	1473531058783	1473531058890	b	66
121154	1315194	Can you bring these to 49C1?	Can you bring tese to 49c1?	62527049	1473531058826	1473531058949	r	82
121154	1315194	Can you bring these to 49C1?	Can you bring tese to 49c1?	62527052	1473531058938	1473531059044	i	73
121154	1315194	Can you bring these to 49C1?	Can you bring tese to 49c1?	62527057	1473531058970	1473531059082	n	78
121154	1315194	Can you bring these to 49C1?	Can you bring tese to 49c1?	62527060	1473531059060	1473531059193	g	71
121154	1315194	Can you bring these to 49C1?	Can you bring tese to 49c1?	62527065	1473531059119	1473531059241	 	32
121154	1315194	Can you bring these to 49C1?	Can you bring tese to 49c1?	62527072	1473531059322	1473531059423	t	84
121154	1315194	Can you bring these to 49C1?	Can you bring tese to 49c1?	62527123	1473531059386	1473531059524	h	72
121154	1315194	Can you bring these to 49C1?	Can you bring tese to 49c1?	62527130	1473531059615	1473531059765	s	83
121154	1315194	Can you bring these to 49C1?	Can you bring tese to 49c1?	62527135	1473531059811	1473531059988	e	69
121154	1315194	Can you bring these to 49C1?	Can you bring tese to 49c1?	62527137	1473531059982	1473531060094	 	32
121154	1315194	Can you bring these to 49C1?	Can you bring tese to 49c1?	62527141	1473531060159	1473531060260	t	84
121154	1315194	Can you bring these to 49C1?	Can you bring tese to 49c1?	62527232	1473531060207	1473531060334	o	79
121154	1315194	Can you bring these to 49C1?	Can you bring tese to 49c1?	62527233	1473531060265	1473531060403	 	32
121154	1315194	Can you bring these to 49C1?	Can you bring tese to 49c1?	62527234	1473531060759	1473531060855	4	52
121154	1315194	Can you bring these to 49C1?	Can you bring tese to 49c1?	62527238	1473531060844	1473531060956	9	57
121154	1315194	Can you bring these to 49C1?	Can you bring tese to 49c1?	62527241	1473531060986	1473531061045	1	49
121154	1315194	Can you bring these to 49C1?	Can you bring tese to 49c1?	62527246	1473531061333	1473531061466	BKSP	8
121154	1315194	Can you bring these to 49C1?	Can you bring tese to 49c1?	62527249	1473531061632	1473531061744	c	67
121154	1315194	Can you bring these to 49C1?	Can you bring tese to 49c1?	62527298	1473531061788	1473531061926	1	49
121154	1315194	Can you bring these to 49C1?	Can you bring tese to 49c1?	62527302	1473531062539	1473531062725	SHIFT	16
121154	1315194	Can you bring these to 49C1?	Can you bring tese to 49c1?	62527310	1473531062630	1473531062730	?	191
121154	1315208	Binoche welcomed the movie industry to the French riviera.	Binoche welcomed the movie industry to the French riviera.	62527611	1473531066485	1473531066841	SHIFT	16
121154	1315208	Binoche welcomed the movie industry to the French riviera.	Binoche welcomed the movie industry to the French riviera.	62527617	1473531066724	1473531066857	B	66
121154	1315208	Binoche welcomed the movie industry to the French riviera.	Binoche welcomed the movie industry to the French riviera.	62527623	1473531066993	1473531067121	i	73
121154	1315208	Binoche welcomed the movie industry to the French riviera.	Binoche welcomed the movie industry to the French riviera.	62527629	1473531067057	1473531067180	n	78
121154	1315208	Binoche welcomed the movie industry to the French riviera.	Binoche welcomed the movie industry to the French riviera.	62527635	1473531067236	1473531067359	o	79
121154	1315208	Binoche welcomed the movie industry to the French riviera.	Binoche welcomed the movie industry to the French riviera.	62527638	1473531067524	1473531067614	c	67
121154	1315208	Binoche welcomed the movie industry to the French riviera.	Binoche welcomed the movie industry to the French riviera.	62527662	1473531067630	1473531067736	h	72
121154	1315208	Binoche welcomed the movie industry to the French riviera.	Binoche welcomed the movie industry to the French riviera.	62527666	1473531067721	1473531067843	e	69
121154	1315208	Binoche welcomed the movie industry to the French riviera.	Binoche welcomed the movie industry to the French riviera.	62527670	1473531067838	1473531067960	 	32
121154	1315208	Binoche welcomed the movie industry to the French riviera.	Binoche welcomed the movie industry to the French riviera.	62527671	1473531068136	1473531068221	BKSP	8
121154	1315208	Binoche welcomed the movie industry to the French riviera.	Binoche welcomed the movie industry to the French riviera.	62527672	1473531068237	1473531068365	 	32
121154	1315208	Binoche welcomed the movie industry to the French riviera.	Binoche welcomed the movie industry to the French riviera.	62527676	1473531068425	1473531068553	w	87
121154	1315208	Binoche welcomed the movie industry to the French riviera.	Binoche welcomed the movie industry to the French riviera.	62527716	1473531068463	1473531068601	e	69
121154	1315208	Binoche welcomed the movie industry to the French riviera.	Binoche welcomed the movie industry to the French riviera.	62527718	1473531068548	1473531068707	l	76
121154	1315208	Binoche welcomed the movie industry to the French riviera.	Binoche welcomed the movie industry to the French riviera.	62527720	1473531068863	1473531068991	c	67
121154	1315208	Binoche welcomed the movie industry to the French riviera.	Binoche welcomed the movie industry to the French riviera.	62527722	1473531069057	1473531069211	o	79
121154	1315208	Binoche welcomed the movie industry to the French riviera.	Binoche welcomed the movie industry to the French riviera.	62527723	1473531069351	1473531069500	m	77
121154	1315208	Binoche welcomed the movie industry to the French riviera.	Binoche welcomed the movie industry to the French riviera.	62527728	1473531069478	1473531069558	e	69
121154	1315208	Binoche welcomed the movie industry to the French riviera.	Binoche welcomed the movie industry to the French riviera.	62527746	1473531069532	1473531069691	d	68
121154	1315208	Binoche welcomed the movie industry to the French riviera.	Binoche welcomed the movie industry to the French riviera.	62527748	1473531069732	1473531069827	 	32
121154	1315208	Binoche welcomed the movie industry to the French riviera.	Binoche welcomed the movie industry to the French riviera.	62527750	1473531069870	1473531069951	t	84
121154	1315208	Binoche welcomed the movie industry to the French riviera.	Binoche welcomed the movie industry to the French riviera.	62527752	1473531069919	1473531070004	h	72
121154	1315208	Binoche welcomed the movie industry to the French riviera.	Binoche welcomed the movie industry to the French riviera.	62527753	1473531069998	1473531070105	e	69
121154	1315208	Binoche welcomed the movie industry to the French riviera.	Binoche welcomed the movie industry to the French riviera.	62527777	1473531070041	1473531070158	 	32
121154	1315208	Binoche welcomed the movie industry to the French riviera.	Binoche welcomed the movie industry to the French riviera.	62527786	1473531070253	1473531070354	m	77
121154	1315208	Binoche welcomed the movie industry to the French riviera.	Binoche welcomed the movie industry to the French riviera.	62527793	1473531070290	1473531070418	o	79
121154	1315208	Binoche welcomed the movie industry to the French riviera.	Binoche welcomed the movie industry to the French riviera.	62527801	1473531070328	1473531070444	v	86
121154	1315208	Binoche welcomed the movie industry to the French riviera.	Binoche welcomed the movie industry to the French riviera.	62527807	1473531070503	1473531070605	i	73
121154	1315208	Binoche welcomed the movie industry to the French riviera.	Binoche welcomed the movie industry to the French riviera.	62527857	1473531070541	1473531070658	e	69
121154	1315208	Binoche welcomed the movie industry to the French riviera.	Binoche welcomed the movie industry to the French riviera.	62527862	1473531070626	1473531070754	 	32
121154	1315208	Binoche welcomed the movie industry to the French riviera.	Binoche welcomed the movie industry to the French riviera.	62527869	1473531070851	1473531070963	i	73
121154	1315208	Binoche welcomed the movie industry to the French riviera.	Binoche welcomed the movie industry to the French riviera.	62527874	1473531070899	1473531071021	n	78
121154	1315208	Binoche welcomed the movie industry to the French riviera.	Binoche welcomed the movie industry to the French riviera.	62527877	1473531070968	1473531071064	d	68
121154	1315208	Binoche welcomed the movie industry to the French riviera.	Binoche welcomed the movie industry to the French riviera.	62527882	1473531071281	1473531071387	u	85
121154	1315208	Binoche welcomed the movie industry to the French riviera.	Binoche welcomed the movie industry to the French riviera.	62527909	1473531071355	1473531071446	s	83
121154	1315208	Binoche welcomed the movie industry to the French riviera.	Binoche welcomed the movie industry to the French riviera.	62527914	1473531071511	1473531071596	t	84
121154	1315208	Binoche welcomed the movie industry to the French riviera.	Binoche welcomed the movie industry to the French riviera.	62527919	1473531071639	1473531071766	r	82
121154	1315208	Binoche welcomed the movie industry to the French riviera.	Binoche welcomed the movie industry to the French riviera.	62527923	1473531071697	1473531071809	y	89
121154	1315208	Binoche welcomed the movie industry to the French riviera.	Binoche welcomed the movie industry to the French riviera.	62527929	1473531071750	1473531071872	 	32
121154	1315208	Binoche welcomed the movie industry to the French riviera.	Binoche welcomed the movie industry to the French riviera.	62527935	1473531071912	1473531072013	t	84
121154	1315208	Binoche welcomed the movie industry to the French riviera.	Binoche welcomed the movie industry to the French riviera.	62527974	1473531071949	1473531072082	o	79
121154	1315208	Binoche welcomed the movie industry to the French riviera.	Binoche welcomed the movie industry to the French riviera.	62527977	1473531071997	1473531072125	 	32
121154	1315208	Binoche welcomed the movie industry to the French riviera.	Binoche welcomed the movie industry to the French riviera.	62527980	1473531072216	1473531072317	f	70
121154	1315208	Binoche welcomed the movie industry to the French riviera.	Binoche welcomed the movie industry to the French riviera.	62527984	1473531072491	1473531072570	BKSP	8
121154	1315208	Binoche welcomed the movie industry to the French riviera.	Binoche welcomed the movie industry to the French riviera.	62527990	1473531072564	1473531072650	t	84
121154	1315208	Binoche welcomed the movie industry to the French riviera.	Binoche welcomed the movie industry to the French riviera.	62527995	1473531072640	1473531072725	h	72
121154	1315208	Binoche welcomed the movie industry to the French riviera.	Binoche welcomed the movie industry to the French riviera.	62528002	1473531072687	1473531072799	e	69
121154	1315208	Binoche welcomed the movie industry to the French riviera.	Binoche welcomed the movie industry to the French riviera.	62528081	1473531072772	1473531072901	 	32
121154	1315208	Binoche welcomed the movie industry to the French riviera.	Binoche welcomed the movie industry to the French riviera.	62528085	1473531072885	1473531073044	f	70
121154	1315208	Binoche welcomed the movie industry to the French riviera.	Binoche welcomed the movie industry to the French riviera.	62528089	1473531072954	1473531073124	r	82
121154	1315208	Binoche welcomed the movie industry to the French riviera.	Binoche welcomed the movie industry to the French riviera.	62528093	1473531073463	1473531073543	BKSP	8
121154	1315208	Binoche welcomed the movie industry to the French riviera.	Binoche welcomed the movie industry to the French riviera.	62528096	1473531073592	1473531073694	BKSP	8
121154	1315208	Binoche welcomed the movie industry to the French riviera.	Binoche welcomed the movie industry to the French riviera.	62528099	1473531073645	1473531073774	CAPS_LOCK	20
121154	1315208	Binoche welcomed the movie industry to the French riviera.	Binoche welcomed the movie industry to the French riviera.	62528101	1473531073714	1473531073892	F	70
121154	1315208	Binoche welcomed the movie industry to the French riviera.	Binoche welcomed the movie industry to the French riviera.	62528102	1473531073848	1473531073988	CAPS_LOCK	20
121154	1315208	Binoche welcomed the movie industry to the French riviera.	Binoche welcomed the movie industry to the French riviera.	62528104	1473531073972	1473531074057	r	82
121154	1315208	Binoche welcomed the movie industry to the French riviera.	Binoche welcomed the movie industry to the French riviera.	62528106	1473531074091	1473531074230	e	69
121154	1315208	Binoche welcomed the movie industry to the French riviera.	Binoche welcomed the movie industry to the French riviera.	62528168	1473531074203	1473531074304	n	78
121154	1315208	Binoche welcomed the movie industry to the French riviera.	Binoche welcomed the movie industry to the French riviera.	62528172	1473531074288	1473531074410	c	67
121154	1315208	Binoche welcomed the movie industry to the French riviera.	Binoche welcomed the movie industry to the French riviera.	62528175	1473531074368	1473531074442	h	72
121154	1315208	Binoche welcomed the movie industry to the French riviera.	Binoche welcomed the movie industry to the French riviera.	62528178	1473531074504	1473531074611	 	32
121154	1315208	Binoche welcomed the movie industry to the French riviera.	Binoche welcomed the movie industry to the French riviera.	62528181	1473531074806	1473531074950	CAPS_LOCK	20
121154	1315208	Binoche welcomed the movie industry to the French riviera.	Binoche welcomed the movie industry to the French riviera.	62528183	1473531075041	1473531075202	CAPS_LOCK	20
121154	1315208	Binoche welcomed the movie industry to the French riviera.	Binoche welcomed the movie industry to the French riviera.	62528185	1473531075232	1473531075360	r	82
121154	1315208	Binoche welcomed the movie industry to the French riviera.	Binoche welcomed the movie industry to the French riviera.	62528209	1473531075323	1473531075424	i	73
121154	1315208	Binoche welcomed the movie industry to the French riviera.	Binoche welcomed the movie industry to the French riviera.	62528215	1473531075387	1473531075509	v	86
121154	1315208	Binoche welcomed the movie industry to the French riviera.	Binoche welcomed the movie industry to the French riviera.	62528221	1473531075514	1473531075626	i	73
121154	1315208	Binoche welcomed the movie industry to the French riviera.	Binoche welcomed the movie industry to the French riviera.	62528226	1473531075573	1473531075716	e	69
121154	1315208	Binoche welcomed the movie industry to the French riviera.	Binoche welcomed the movie industry to the French riviera.	62528230	1473531075658	1473531075748	r	82
121154	1315208	Binoche welcomed the movie industry to the French riviera.	Binoche welcomed the movie industry to the French riviera.	62528235	1473531076003	1473531076113	a	65
121154	1315229	Why do you ask?	Why do you ask?	62528632	1473531083200	1473531083323	CAPS_LOCK	20
121154	1315229	Why do you ask?	Why do you ask?	62528635	1473531083260	1473531083398	W	87
121154	1315229	Why do you ask?	Why do you ask?	62528646	1473531083458	1473531083582	H	72
121154	1315229	Why do you ask?	Why do you ask?	62528641	1473531083468	1473531083550	CAPS_LOCK	20
121154	1315229	Why do you ask?	Why do you ask?	62528651	1473531083524	1473531083651	y	89
121154	1315229	Why do you ask?	Why do you ask?	62528660	1473531083646	1473531083763	 	32
121154	1315229	Why do you ask?	Why do you ask?	62528666	1473531084150	1473531084214	BKSP	8
121154	1315229	Why do you ask?	Why do you ask?	62528669	1473531084263	1473531084371	BKSP	8
121154	1315229	Why do you ask?	Why do you ask?	62528676	1473531084520	1473531084599	BKSP	8
121154	1315229	Why do you ask?	Why do you ask?	62528680	1473531084708	1473531084831	h	72
121154	1315229	Why do you ask?	Why do you ask?	62528675	1473531084778	1473531084878	y	89
121154	1315229	Why do you ask?	Why do you ask?	62528683	1473531084908	1473531085003	 	32
121154	1315229	Why do you ask?	Why do you ask?	62528688	1473531084982	1473531085121	d	68
121154	1315229	Why do you ask?	Why do you ask?	62528697	1473531085084	1473531085227	o	79
121154	1315229	Why do you ask?	Why do you ask?	62528730	1473531085179	1473531085317	 	32
121154	1315229	Why do you ask?	Why do you ask?	62528733	1473531085222	1473531085344	y	89
121154	1315229	Why do you ask?	Why do you ask?	62528737	1473531085371	1473531085499	o	79
121154	1315229	Why do you ask?	Why do you ask?	62528741	1473531085403	1473531085531	u	85
121154	1315229	Why do you ask?	Why do you ask?	62528750	1473531085462	1473531085606	 	32
121154	1315229	Why do you ask?	Why do you ask?	62528756	1473531085659	1473531085787	a	65
121154	1315229	Why do you ask?	Why do you ask?	62528744	1473531085712	1473531085819	s	83
121154	1315229	Why do you ask?	Why do you ask?	62528749	1473531085739	1473531085834	k	75
121154	1315237	I thought you needed him to carry two people.	I thought you needed him to carry two people.	62529648	1473531085860	1473531100043	SHIFT	16
121154	1315237	I thought you needed him to carry two people.	I thought you needed him to carry two people.	62529204	1473531093836	1473531093944	CAPS_LOCK	20
121154	1315237	I thought you needed him to carry two people.	I thought you needed him to carry two people.	62529209	1473531093885	1473531093993	I	73
121154	1315237	I thought you needed him to carry two people.	I thought you needed him to carry two people.	62529213	1473531093966	1473531094084	CAPS_LOCK	20
121154	1315237	I thought you needed him to carry two people.	I thought you needed him to carry two people.	62529217	1473531094015	1473531094126	 	32
121154	1315237	I thought you needed him to carry two people.	I thought you needed him to carry two people.	62529224	1473531094155	1473531094294	t	84
121154	1315237	I thought you needed him to carry two people.	I thought you needed him to carry two people.	62529233	1473531094208	1473531094333	h	72
121154	1315237	I thought you needed him to carry two people.	I thought you needed him to carry two people.	62529238	1473531094268	1473531094370	o	79
121154	1315237	I thought you needed him to carry two people.	I thought you needed him to carry two people.	62529245	1473531094300	1473531094434	u	85
121154	1315237	I thought you needed him to carry two people.	I thought you needed him to carry two people.	62529251	1473531094365	1473531094466	g	71
121154	1315237	I thought you needed him to carry two people.	I thought you needed him to carry two people.	62529258	1473531094413	1473531094519	h	72
121154	1315237	I thought you needed him to carry two people.	I thought you needed him to carry two people.	62529262	1473531094536	1473531094637	t	84
121154	1315237	I thought you needed him to carry two people.	I thought you needed him to carry two people.	62529299	1473531094631	1473531094754	 	32
121154	1315237	I thought you needed him to carry two people.	I thought you needed him to carry two people.	62529304	1473531094919	1473531094999	y	89
121154	1315237	I thought you needed him to carry two people.	I thought you needed him to carry two people.	62529309	1473531094983	1473531095100	o	79
121154	1315237	I thought you needed him to carry two people.	I thought you needed him to carry two people.	62529314	1473531095047	1473531095159	u	85
121154	1315237	I thought you needed him to carry two people.	I thought you needed him to carry two people.	62529318	1473531095127	1473531095254	 	32
121154	1315237	I thought you needed him to carry two people.	I thought you needed him to carry two people.	62529324	1473531095479	1473531095596	n	78
121154	1315237	I thought you needed him to carry two people.	I thought you needed him to carry two people.	62529344	1473531095554	1473531095644	e	69
121154	1315237	I thought you needed him to carry two people.	I thought you needed him to carry two people.	62529346	1473531095707	1473531095818	e	69
121154	1315237	I thought you needed him to carry two people.	I thought you needed him to carry two people.	62529348	1473531095792	1473531095898	d	68
121154	1315237	I thought you needed him to carry two people.	I thought you needed him to carry two people.	62529350	1473531095986	1473531096061	e	69
121154	1315237	I thought you needed him to carry two people.	I thought you needed him to carry two people.	62529352	1473531096039	1473531096146	d	68
121154	1315237	I thought you needed him to carry two people.	I thought you needed him to carry two people.	62529407	1473531096119	1473531096247	 	32
121154	1315237	I thought you needed him to carry two people.	I thought you needed him to carry two people.	62529415	1473531096773	1473531096895	BKSP	8
121154	1315237	I thought you needed him to carry two people.	I thought you needed him to carry two people.	62529418	1473531096947	1473531097043	 	32
121154	1315237	I thought you needed him to carry two people.	I thought you needed him to carry two people.	62529425	1473531097058	1473531097159	h	72
121154	1315237	I thought you needed him to carry two people.	I thought you needed him to carry two people.	62529431	1473531097090	1473531097202	i	73
121154	1315237	I thought you needed him to carry two people.	I thought you needed him to carry two people.	62529436	1473531097149	1473531097243	m	77
121154	1315237	I thought you needed him to carry two people.	I thought you needed him to carry two people.	62529444	1473531097293	1473531097388	 	32
121154	1315237	I thought you needed him to carry two people.	I thought you needed him to carry two people.	62529465	1473531097357	1473531097458	t	84
121154	1315237	I thought you needed him to carry two people.	I thought you needed him to carry two people.	62529468	1473531097426	1473531097553	o	79
121154	1315237	I thought you needed him to carry two people.	I thought you needed him to carry two people.	62529471	1473531097479	1473531097601	 	32
121154	1315237	I thought you needed him to carry two people.	I thought you needed him to carry two people.	62529478	1473531097707	1473531097797	c	67
121154	1315237	I thought you needed him to carry two people.	I thought you needed him to carry two people.	62529484	1473531097802	1473531097919	a	65
121154	1315237	I thought you needed him to carry two people.	I thought you needed him to carry two people.	62529486	1473531097966	1473531098056	r	82
121154	1315237	I thought you needed him to carry two people.	I thought you needed him to carry two people.	62529513	1473531098093	1473531098216	r	82
121154	1315237	I thought you needed him to carry two people.	I thought you needed him to carry two people.	62529519	1473531098121	1473531098232	y	89
121154	1315237	I thought you needed him to carry two people.	I thought you needed him to carry two people.	62529525	1473531098185	1473531098302	 	32
121154	1315237	I thought you needed him to carry two people.	I thought you needed him to carry two people.	62529529	1473531098318	1473531098408	t	84
121154	1315237	I thought you needed him to carry two people.	I thought you needed him to carry two people.	62529534	1473531098458	1473531098574	w	87
121154	1315237	I thought you needed him to carry two people.	I thought you needed him to carry two people.	62529555	1473531098511	1473531098643	o	79
121154	1315237	I thought you needed him to carry two people.	I thought you needed him to carry two people.	62529559	1473531098569	1473531098718	 	32
121154	1315237	I thought you needed him to carry two people.	I thought you needed him to carry two people.	62529566	1473531098882	1473531099004	p	80
121154	1315237	I thought you needed him to carry two people.	I thought you needed him to carry two people.	62529572	1473531098999	1473531099089	e	69
121154	1315237	I thought you needed him to carry two people.	I thought you needed him to carry two people.	62529579	1473531099073	1473531099174	o	79
121154	1315237	I thought you needed him to carry two people.	I thought you needed him to carry two people.	62529584	1473531099246	1473531099358	p	80
121154	1315237	I thought you needed him to carry two people.	I thought you needed him to carry two people.	62529637	1473531099305	1473531099438	l	76
121154	1315237	I thought you needed him to carry two people.	I thought you needed him to carry two people.	62529644	1473531099406	1473531099496	e	69
121154	1315254	You'll receive the brand new Palm OS v4.	You'll receive the brand new Palm OS v4.	62529820	1473531103195	1473531103302	CAPS_LOCK	20
121154	1315254	You'll receive the brand new Palm OS v4.	You'll receive the brand new Palm OS v4.	62529824	1473531103291	1473531103393	Y	89
121154	1315254	You'll receive the brand new Palm OS v4.	You'll receive the brand new Palm OS v4.	62529830	1473531103340	1473531103495	CAPS_LOCK	20
121154	1315254	You'll receive the brand new Palm OS v4.	You'll receive the brand new Palm OS v4.	62529837	1473531103415	1473531103543	o	79
121154	1315254	You'll receive the brand new Palm OS v4.	You'll receive the brand new Palm OS v4.	62529843	1473531103490	1473531103606	u	85
121154	1315254	You'll receive the brand new Palm OS v4.	You'll receive the brand new Palm OS v4.	62529847	1473531103738	1473531103839	'	192
121154	1315254	You'll receive the brand new Palm OS v4.	You'll receive the brand new Palm OS v4.	62529850	1473531103942	1473531104011	l	76
121154	1315254	You'll receive the brand new Palm OS v4.	You'll receive the brand new Palm OS v4.	62529855	1473531104051	1473531104136	l	76
121154	1315254	You'll receive the brand new Palm OS v4.	You'll receive the brand new Palm OS v4.	62529857	1473531104197	1473531104303	 	32
121154	1315254	You'll receive the brand new Palm OS v4.	You'll receive the brand new Palm OS v4.	62529861	1473531104261	1473531104346	r	82
121154	1315254	You'll receive the brand new Palm OS v4.	You'll receive the brand new Palm OS v4.	62529865	1473531104422	1473531104513	e	69
121154	1315254	You'll receive the brand new Palm OS v4.	You'll receive the brand new Palm OS v4.	62529887	1473531104497	1473531104656	c	67
121154	1315254	You'll receive the brand new Palm OS v4.	You'll receive the brand new Palm OS v4.	62529891	1473531104619	1473531104757	e	69
121154	1315254	You'll receive the brand new Palm OS v4.	You'll receive the brand new Palm OS v4.	62529896	1473531104742	1473531104885	i	73
121154	1315254	You'll receive the brand new Palm OS v4.	You'll receive the brand new Palm OS v4.	62529897	1473531104843	1473531104949	v	86
121154	1315254	You'll receive the brand new Palm OS v4.	You'll receive the brand new Palm OS v4.	62529900	1473531104890	1473531104997	e	69
121154	1315254	You'll receive the brand new Palm OS v4.	You'll receive the brand new Palm OS v4.	62529928	1473531104986	1473531105098	 	32
121154	1315254	You'll receive the brand new Palm OS v4.	You'll receive the brand new Palm OS v4.	62529932	1473531105125	1473531105210	t	84
121154	1315254	You'll receive the brand new Palm OS v4.	You'll receive the brand new Palm OS v4.	62529936	1473531105195	1473531105281	h	72
121154	1315254	You'll receive the brand new Palm OS v4.	You'll receive the brand new Palm OS v4.	62529942	1473531105269	1473531105376	e	69
121154	1315254	You'll receive the brand new Palm OS v4.	You'll receive the brand new Palm OS v4.	62529948	1473531105328	1473531105429	 	32
121154	1315254	You'll receive the brand new Palm OS v4.	You'll receive the brand new Palm OS v4.	62529950	1473531105658	1473531105759	b	66
121154	1315254	You'll receive the brand new Palm OS v4.	You'll receive the brand new Palm OS v4.	62529962	1473531105764	1473531105902	r	82
121154	1315254	You'll receive the brand new Palm OS v4.	You'll receive the brand new Palm OS v4.	62529965	1473531105939	1473531106056	a	78
121154	1315254	You'll receive the brand new Palm OS v4.	You'll receive the brand new Palm OS v4.	62529968	1473531106250	1473531106319	BKSP	8
121154	1315254	You'll receive the brand new Palm OS v4.	You'll receive the brand new Palm OS v4.	62529970	1473531106367	1473531106447	BKSP	8
121154	1315254	You'll receive the brand new Palm OS v4.	You'll receive the brand new Palm OS v4.	62529973	1473531106426	1473531106516	a	65
121154	1315254	You'll receive the brand new Palm OS v4.	You'll receive the brand new Palm OS v4.	62530021	1473531106495	1473531106601	n	78
121154	1315254	You'll receive the brand new Palm OS v4.	You'll receive the brand new Palm OS v4.	62530025	1473531106574	1473531106686	d	68
121154	1315254	You'll receive the brand new Palm OS v4.	You'll receive the brand new Palm OS v4.	62530030	1473531106681	1473531106766	 	32
121154	1315254	You'll receive the brand new Palm OS v4.	You'll receive the brand new Palm OS v4.	62530035	1473531107183	1473531107300	n	78
121154	1315254	You'll receive the brand new Palm OS v4.	You'll receive the brand new Palm OS v4.	62530041	1473531107273	1473531107358	e	69
121154	1315254	You'll receive the brand new Palm OS v4.	You'll receive the brand new Palm OS v4.	62530045	1473531107427	1473531107539	w	87
121154	1315254	You'll receive the brand new Palm OS v4.	You'll receive the brand new Palm OS v4.	62530107	1473531107497	1473531107577	 	32
121154	1315254	You'll receive the brand new Palm OS v4.	You'll receive the brand new Palm OS v4.	62530109	1473531107726	1473531107839	CAPS_LOCK	20
121154	1315254	You'll receive the brand new Palm OS v4.	You'll receive the brand new Palm OS v4.	62530111	1473531107807	1473531107914	P	80
121154	1315254	You'll receive the brand new Palm OS v4.	You'll receive the brand new Palm OS v4.	62530113	1473531107892	1473531108058	CAPS_LOCK	20
121154	1315254	You'll receive the brand new Palm OS v4.	You'll receive the brand new Palm OS v4.	62530116	1473531107957	1473531108122	a	65
121154	1315254	You'll receive the brand new Palm OS v4.	You'll receive the brand new Palm OS v4.	62530119	1473531108327	1473531108406	l	76
121154	1315254	You'll receive the brand new Palm OS v4.	You'll receive the brand new Palm OS v4.	62530125	1473531108491	1473531108565	m	77
121154	1315254	You'll receive the brand new Palm OS v4.	You'll receive the brand new Palm OS v4.	62530129	1473531108595	1473531108714	 	32
121154	1315254	You'll receive the brand new Palm OS v4.	You'll receive the brand new Palm OS v4.	62530148	1473531108617	1473531108761	CAPS_LOCK	20
121154	1315254	You'll receive the brand new Palm OS v4.	You'll receive the brand new Palm OS v4.	62530151	1473531108767	1473531108884	O	79
121154	1315254	You'll receive the brand new Palm OS v4.	You'll receive the brand new Palm OS v4.	62530158	1473531108831	1473531108927	S	83
121154	1315254	You'll receive the brand new Palm OS v4.	You'll receive the brand new Palm OS v4.	62530164	1473531108937	1473531109050	 	32
121154	1315254	You'll receive the brand new Palm OS v4.	You'll receive the brand new Palm OS v4.	62530171	1473531108964	1473531109108	CAPS_LOCK	20
121154	1315254	You'll receive the brand new Palm OS v4.	You'll receive the brand new Palm OS v4.	62530179	1473531109193	1473531109283	v	86
121154	1315254	You'll receive the brand new Palm OS v4.	You'll receive the brand new Palm OS v4.	62530183	1473531109367	1473531109426	1	49
121154	1315254	You'll receive the brand new Palm OS v4.	You'll receive the brand new Palm OS v4.	62530191	1473531109650	1473531109751	BKSP	8
121154	1315254	You'll receive the brand new Palm OS v4.	You'll receive the brand new Palm OS v4.	62530194	1473531109709	1473531109794	4	52
121154	1315270	Would you have John send me a message?	Would you have John send me a message?	62530338	1473531112036	1473531112176	CAPS_LOCK	20
121154	1315270	Would you have John send me a message?	Would you have John send me a message?	62530341	1473531112134	1473531112278	W	87
121154	1315270	Would you have John send me a message?	Would you have John send me a message?	62530346	1473531112229	1473531112364	CAPS_LOCK	20
121154	1315270	Would you have John send me a message?	Would you have John send me a message?	62530349	1473531112295	1473531112406	o	79
121154	1315270	Would you have John send me a message?	Would you have John send me a message?	62530352	1473531112359	1473531112454	u	85
121154	1315270	Would you have John send me a message?	Would you have John send me a message?	62530357	1473531112511	1473531112628	l	76
121154	1315270	Would you have John send me a message?	Would you have John send me a message?	62530363	1473531112580	1473531112686	d	68
121154	1315270	Would you have John send me a message?	Would you have John send me a message?	62530366	1473531112697	1473531112787	 	32
121154	1315270	Would you have John send me a message?	Would you have John send me a message?	62530373	1473531112761	1473531112851	y	89
121154	1315270	Would you have John send me a message?	Would you have John send me a message?	62530379	1473531112840	1473531112968	o	79
121154	1315270	Would you have John send me a message?	Would you have John send me a message?	62530405	1473531112893	1473531113006	u	85
121154	1315270	Would you have John send me a message?	Would you have John send me a message?	62530408	1473531112936	1473531113048	 	32
121154	1315270	Would you have John send me a message?	Would you have John send me a message?	62530413	1473531113118	1473531113208	h	72
121154	1315270	Would you have John send me a message?	Would you have John send me a message?	62530418	1473531113182	1473531113278	a	65
121154	1315270	Would you have John send me a message?	Would you have John send me a message?	62530421	1473531113246	1473531113341	v	86
121154	1315270	Would you have John send me a message?	Would you have John send me a message?	62530423	1473531113336	1473531113442	e	69
121154	1315270	Would you have John send me a message?	Would you have John send me a message?	62530449	1473531113395	1473531113523	 	32
121154	1315270	Would you have John send me a message?	Would you have John send me a message?	62530453	1473531113506	1473531113641	CAPS_LOCK	20
121154	1315270	Would you have John send me a message?	Would you have John send me a message?	62530457	1473531113658	1473531113764	J	74
121154	1315270	Would you have John send me a message?	Would you have John send me a message?	62530461	1473531113699	1473531113833	CAPS_LOCK	20
121154	1315270	Would you have John send me a message?	Would you have John send me a message?	62530466	1473531113796	1473531113907	o	79
121154	1315270	Would you have John send me a message?	Would you have John send me a message?	62530469	1473531113941	1473531114058	h	72
121154	1315270	Would you have John send me a message?	Would you have John send me a message?	62530471	1473531113993	1473531114095	n	78
121154	1315270	Would you have John send me a message?	Would you have John send me a message?	62530473	1473531114132	1473531114270	 	32
121154	1315270	Would you have John send me a message?	Would you have John send me a message?	62530483	1473531114201	1473531114302	s	83
121154	1315270	Would you have John send me a message?	Would you have John send me a message?	62530485	1473531114244	1473531114356	e	69
121154	1315270	Would you have John send me a message?	Would you have John send me a message?	62530489	1473531114335	1473531114441	n	78
121154	1315270	Would you have John send me a message?	Would you have John send me a message?	62530495	1473531114435	1473531114542	d	68
121154	1315270	Would you have John send me a message?	Would you have John send me a message?	62530498	1473531114478	1473531114590	 	32
121154	1315270	Would you have John send me a message?	Would you have John send me a message?	62530501	1473531114794	1473531114890	m	77
121154	1315270	Would you have John send me a message?	Would you have John send me a message?	62530521	1473531114848	1473531114981	e	69
121154	1315270	Would you have John send me a message?	Would you have John send me a message?	62530526	1473531114944	1473531115066	 	32
121154	1315270	Would you have John send me a message?	Would you have John send me a message?	62530537	1473531115071	1473531115231	a	65
121154	1315270	Would you have John send me a message?	Would you have John send me a message?	62530531	1473531115114	1473531115226	 	32
121154	1315270	Would you have John send me a message?	Would you have John send me a message?	62530540	1473531115362	1473531115479	m	77
121154	1315270	Would you have John send me a message?	Would you have John send me a message?	62530568	1473531115415	1473531115527	e	69
121154	1315270	Would you have John send me a message?	Would you have John send me a message?	62530572	1473531115469	1473531115570	s	83
121154	1315270	Would you have John send me a message?	Would you have John send me a message?	62530578	1473531115636	1473531115749	s	83
121154	1315270	Would you have John send me a message?	Would you have John send me a message?	62530581	1473531115799	1473531115890	a	65
121154	1315270	Would you have John send me a message?	Would you have John send me a message?	62530588	1473531115853	1473531115948	g	71
121154	1315270	Would you have John send me a message?	Would you have John send me a message?	62530594	1473531115954	1473531116060	e	69
121154	1315280	The contract is a bit complicated.	The contract is a bit complicated.	62530807	1473531116082	1473531119569	SHIFT	16
121154	1315280	The contract is a bit complicated.	The contract is a bit complicated.	62530810	1473531119479	1473531119585	T	84
121154	1315280	The contract is a bit complicated.	The contract is a bit complicated.	62530816	1473531119596	1473531119708	h	72
121154	1315280	The contract is a bit complicated.	The contract is a bit complicated.	62530822	1473531119660	1473531119777	e	69
121154	1315280	The contract is a bit complicated.	The contract is a bit complicated.	62530827	1473531119783	1473531119894	 	32
121154	1315280	The contract is a bit complicated.	The contract is a bit complicated.	62530847	1473531119884	1473531119974	c	67
121154	1315280	The contract is a bit complicated.	The contract is a bit complicated.	62530848	1473531119958	1473531120070	o	79
121154	1315280	The contract is a bit complicated.	The contract is a bit complicated.	62530851	1473531120000	1473531120139	n	78
121154	1315280	The contract is a bit complicated.	The contract is a bit complicated.	62530854	1473531120150	1473531120245	t	84
121154	1315280	The contract is a bit complicated.	The contract is a bit complicated.	62530857	1473531120280	1473531120397	r	82
121154	1315280	The contract is a bit complicated.	The contract is a bit complicated.	62530860	1473531120472	1473531120589	a	65
121154	1315280	The contract is a bit complicated.	The contract is a bit complicated.	62530869	1473531120558	1473531120658	c	67
121154	1315280	The contract is a bit complicated.	The contract is a bit complicated.	62530873	1473531120700	1473531120817	t	84
121154	1315280	The contract is a bit complicated.	The contract is a bit complicated.	62530878	1473531120785	1473531120902	 	32
121154	1315280	The contract is a bit complicated.	The contract is a bit complicated.	62530883	1473531120949	1473531121045	i	73
121154	1315280	The contract is a bit complicated.	The contract is a bit complicated.	62530888	1473531120998	1473531121083	s	83
121154	1315280	The contract is a bit complicated.	The contract is a bit complicated.	62530924	1473531121077	1473531121215	 	32
121154	1315280	The contract is a bit complicated.	The contract is a bit complicated.	62530930	1473531121513	1473531121603	a	65
121154	1315280	The contract is a bit complicated.	The contract is a bit complicated.	62530933	1473531121587	1473531121683	 	32
121154	1315280	The contract is a bit complicated.	The contract is a bit complicated.	62530939	1473531121770	1473531121871	b	66
121154	1315280	The contract is a bit complicated.	The contract is a bit complicated.	62530987	1473531121802	1473531121930	i	73
121154	1315280	The contract is a bit complicated.	The contract is a bit complicated.	62530991	1473531121866	1473531121967	t	84
121154	1315280	The contract is a bit complicated.	The contract is a bit complicated.	62531001	1473531121951	1473531122068	 	32
121154	1315280	The contract is a bit complicated.	The contract is a bit complicated.	62531011	1473531122091	1473531122213	d	68
121154	1315280	The contract is a bit complicated.	The contract is a bit complicated.	62531020	1473531122133	1473531122267	e	69
121154	1315280	The contract is a bit complicated.	The contract is a bit complicated.	62531027	1473531122404	1473531122521	p	80
121154	1315280	The contract is a bit complicated.	The contract is a bit complicated.	62531157	1473531122468	1473531122612	l	76
121154	1315280	The contract is a bit complicated.	The contract is a bit complicated.	62531161	1473531123177	1473531123251	BKSP	8
121154	1315280	The contract is a bit complicated.	The contract is a bit complicated.	62531163	1473531123310	1473531123400	BKSP	8
121154	1315280	The contract is a bit complicated.	The contract is a bit complicated.	62531165	1473531123448	1473531123565	BKSP	8
121154	1315280	The contract is a bit complicated.	The contract is a bit complicated.	62531168	1473531123606	1473531123707	c	67
121154	1315280	The contract is a bit complicated.	The contract is a bit complicated.	62531173	1473531123649	1473531123798	o	79
121154	1315280	The contract is a bit complicated.	The contract is a bit complicated.	62531178	1473531123734	1473531123845	m	77
121154	1315280	The contract is a bit complicated.	The contract is a bit complicated.	62531181	1473531123924	1473531124010	BKSP	8
121154	1315280	The contract is a bit complicated.	The contract is a bit complicated.	62531187	1473531124061	1473531124168	BKSP	8
121154	1315280	The contract is a bit complicated.	The contract is a bit complicated.	62531192	1473531124216	1473531124333	BKSP	8
121154	1315280	The contract is a bit complicated.	The contract is a bit complicated.	62531200	1473531124369	1473531124486	c	67
121154	1315280	The contract is a bit complicated.	The contract is a bit complicated.	62531251	1473531124395	1473531124533	o	79
121154	1315280	The contract is a bit complicated.	The contract is a bit complicated.	62531254	1473531124454	1473531124549	m	77
121154	1315280	The contract is a bit complicated.	The contract is a bit complicated.	62531259	1473531124613	1473531124720	p	80
121154	1315280	The contract is a bit complicated.	The contract is a bit complicated.	62531263	1473531124813	1473531124887	BKSP	8
121154	1315280	The contract is a bit complicated.	The contract is a bit complicated.	62531268	1473531124967	1473531125047	BKSP	8
121154	1315280	The contract is a bit complicated.	The contract is a bit complicated.	62531275	1473531125120	1473531125205	BKSP	8
121154	1315280	The contract is a bit complicated.	The contract is a bit complicated.	62531282	1473531125270	1473531125366	BKSP	8
121154	1315280	The contract is a bit complicated.	The contract is a bit complicated.	62531288	1473531125436	1473531125543	BKSP	8
121154	1315280	The contract is a bit complicated.	The contract is a bit complicated.	62531296	1473531125613	1473531125701	c	67
121154	1315280	The contract is a bit complicated.	The contract is a bit complicated.	62531305	1473531125675	1473531125791	o	79
121154	1315280	The contract is a bit complicated.	The contract is a bit complicated.	62531310	1473531125717	1473531125833	m	77
121154	1315280	The contract is a bit complicated.	The contract is a bit complicated.	62531312	1473531125914	1473531126036	p	80
121154	1315280	The contract is a bit complicated.	The contract is a bit complicated.	62531322	1473531125972	1473531126094	l	76
121154	1315280	The contract is a bit complicated.	The contract is a bit complicated.	62531324	1473531126151	1473531126258	i	73
121154	1315280	The contract is a bit complicated.	The contract is a bit complicated.	62531334	1473531126194	1473531126306	c	67
121154	1315280	The contract is a bit complicated.	The contract is a bit complicated.	62531338	1473531126290	1473531126374	a	65
121154	1315280	The contract is a bit complicated.	The contract is a bit complicated.	62531346	1473531126707	1473531126781	t	84
121154	1315280	The contract is a bit complicated.	The contract is a bit complicated.	62531354	1473531126870	1473531126949	e	69
121154	1315297	I hadn't done that for a while - too busy, I guess.	I hdn't done that for a while - Too busy, I guess.	62531648	1473531126923	1473531131384	.	68
121154	1315297	I hadn't done that for a while - too busy, I guess.	I hdn't done that for a while - Too busy, I guess.	62531627	1473531130691	1473531130820	CAPS_LOCK	20
121154	1315297	I hadn't done that for a while - too busy, I guess.	I hdn't done that for a while - Too busy, I guess.	62531630	1473531130810	1473531130912	I	73
121154	1315297	I hadn't done that for a while - too busy, I guess.	I hdn't done that for a while - Too busy, I guess.	62531634	1473531130863	1473531131018	CAPS_LOCK	20
121154	1315297	I hadn't done that for a while - too busy, I guess.	I hdn't done that for a while - Too busy, I guess.	62531638	1473531130928	1473531131029	 	32
121154	1315297	I hadn't done that for a while - too busy, I guess.	I hdn't done that for a while - Too busy, I guess.	62531642	1473531131070	1473531131177	h	72
121154	1315297	I hadn't done that for a while - too busy, I guess.	I hdn't done that for a while - Too busy, I guess.	62531645	1473531131171	1473531131288	a	65
121154	1315297	I hadn't done that for a while - too busy, I guess.	I hdn't done that for a while - Too busy, I guess.	62531670	1473531131368	1473531131459	n	78
121154	1315297	I hadn't done that for a while - too busy, I guess.	I hdn't done that for a while - Too busy, I guess.	62531675	1473531131589	1473531131701	'	192
121154	1315297	I hadn't done that for a while - too busy, I guess.	I hdn't done that for a while - Too busy, I guess.	62531679	1473531131653	1473531131754	t	84
121154	1315297	I hadn't done that for a while - too busy, I guess.	I hdn't done that for a while - Too busy, I guess.	62531684	1473531131779	1473531131864	 	32
121154	1315297	I hadn't done that for a while - too busy, I guess.	I hdn't done that for a while - Too busy, I guess.	62531688	1473531131892	1473531131976	d	68
121154	1315297	I hadn't done that for a while - too busy, I guess.	I hdn't done that for a while - Too busy, I guess.	62531695	1473531131955	1473531132069	o	79
121154	1315297	I hadn't done that for a while - too busy, I guess.	I hdn't done that for a while - Too busy, I guess.	62531700	1473531132003	1473531132105	n	78
121154	1315297	I hadn't done that for a while - too busy, I guess.	I hdn't done that for a while - Too busy, I guess.	62531706	1473531132057	1473531132158	e	69
121154	1315297	I hadn't done that for a while - too busy, I guess.	I hdn't done that for a while - Too busy, I guess.	62531712	1473531132131	1473531132253	 	32
121154	1315297	I hadn't done that for a while - too busy, I guess.	I hdn't done that for a while - Too busy, I guess.	62531718	1473531132243	1473531132333	t	84
121154	1315297	I hadn't done that for a while - too busy, I guess.	I hdn't done that for a while - Too busy, I guess.	62531729	1473531132312	1473531132413	h	72
121154	1315297	I hadn't done that for a while - too busy, I guess.	I hdn't done that for a while - Too busy, I guess.	62531730	1473531132386	1473531132477	a	65
121154	1315297	I hadn't done that for a while - too busy, I guess.	I hdn't done that for a while - Too busy, I guess.	62531731	1473531132502	1473531132603	t	84
121154	1315297	I hadn't done that for a while - too busy, I guess.	I hdn't done that for a while - Too busy, I guess.	62531734	1473531132565	1473531132677	 	32
121154	1315297	I hadn't done that for a while - too busy, I guess.	I hdn't done that for a while - Too busy, I guess.	62531741	1473531132661	1473531132751	f	70
121154	1315297	I hadn't done that for a while - too busy, I guess.	I hdn't done that for a while - Too busy, I guess.	62531774	1473531132725	1473531132826	o	79
121154	1315297	I hadn't done that for a while - too busy, I guess.	I hdn't done that for a while - Too busy, I guess.	62531782	1473531132795	1473531132901	r	82
121154	1315297	I hadn't done that for a while - too busy, I guess.	I hdn't done that for a while - Too busy, I guess.	62531785	1473531132869	1473531132959	 	32
121154	1315297	I hadn't done that for a while - too busy, I guess.	I hdn't done that for a while - Too busy, I guess.	62531791	1473531132949	1473531133066	a	65
121154	1315297	I hadn't done that for a while - too busy, I guess.	I hdn't done that for a while - Too busy, I guess.	62531798	1473531133045	1473531133119	 	32
121154	1315297	I hadn't done that for a while - too busy, I guess.	I hdn't done that for a while - Too busy, I guess.	62531806	1473531133241	1473531133353	w	87
121154	1315297	I hadn't done that for a while - too busy, I guess.	I hdn't done that for a while - Too busy, I guess.	62531850	1473531133284	1473531133395	h	72
121154	1315297	I hadn't done that for a while - too busy, I guess.	I hdn't done that for a while - Too busy, I guess.	62531855	1473531133326	1473531133443	i	73
121154	1315297	I hadn't done that for a while - too busy, I guess.	I hdn't done that for a while - Too busy, I guess.	62531861	1473531133484	1473531133602	l	76
121154	1315297	I hadn't done that for a while - too busy, I guess.	I hdn't done that for a while - Too busy, I guess.	62531865	1473531133553	1473531133633	e	69
121154	1315297	I hadn't done that for a while - too busy, I guess.	I hdn't done that for a while - Too busy, I guess.	62531872	1473531133836	1473531133959	 	32
121154	1315297	I hadn't done that for a while - too busy, I guess.	I hdn't done that for a while - Too busy, I guess.	62531876	1473531133953	1473531134054	-	189
121154	1315297	I hadn't done that for a while - too busy, I guess.	I hdn't done that for a while - Too busy, I guess.	62531957	1473531134017	1473531134161	 	32
121154	1315297	I hadn't done that for a while - too busy, I guess.	I hdn't done that for a while - Too busy, I guess.	62531960	1473531134532	1473531134683	CAPS_LOCK	20
121154	1315297	I hadn't done that for a while - too busy, I guess.	I hdn't done that for a while - Too busy, I guess.	62531965	1473531134672	1473531134791	T	84
121154	1315297	I hadn't done that for a while - too busy, I guess.	I hdn't done that for a while - Too busy, I guess.	62531972	1473531134763	1473531134893	CAPS_LOCK	20
121154	1315297	I hadn't done that for a while - too busy, I guess.	I hdn't done that for a while - Too busy, I guess.	62531977	1473531134818	1473531134909	o	79
121154	1315297	I hadn't done that for a while - too busy, I guess.	I hdn't done that for a while - Too busy, I guess.	62531983	1473531134956	1473531135088	o	79
121154	1315297	I hadn't done that for a while - too busy, I guess.	I hdn't done that for a while - Too busy, I guess.	62531992	1473531135057	1473531135205	 	32
121154	1315297	I hadn't done that for a while - too busy, I guess.	I hdn't done that for a while - Too busy, I guess.	62532006	1473531135343	1473531135438	b	66
121154	1315297	I hadn't done that for a while - too busy, I guess.	I hdn't done that for a while - Too busy, I guess.	62532036	1473531135407	1473531135497	u	85
121154	1315297	I hadn't done that for a while - too busy, I guess.	I hdn't done that for a while - Too busy, I guess.	62532042	1473531135550	1473531135683	s	83
121154	1315297	I hadn't done that for a while - too busy, I guess.	I hdn't done that for a while - Too busy, I guess.	62532046	1473531135598	1473531135699	y	89
121154	1315297	I hadn't done that for a while - too busy, I guess.	I hdn't done that for a while - Too busy, I guess.	62532053	1473531135833	1473531135933	,	188
121154	1315297	I hadn't done that for a while - too busy, I guess.	I hdn't done that for a while - Too busy, I guess.	62532060	1473531135988	1473531136084	 	32
121154	1315297	I hadn't done that for a while - too busy, I guess.	I hdn't done that for a while - Too busy, I guess.	62532066	1473531136099	1473531136196	CAPS_LOCK	20
121154	1315297	I hadn't done that for a while - too busy, I guess.	I hdn't done that for a while - Too busy, I guess.	62532125	1473531136143	1473531136244	I	73
121154	1315297	I hadn't done that for a while - too busy, I guess.	I hdn't done that for a while - Too busy, I guess.	62532131	1473531136191	1473531136321	 	32
121154	1315297	I hadn't done that for a while - too busy, I guess.	I hdn't done that for a while - Too busy, I guess.	62532135	1473531136250	1473531136417	CAPS_LOCK	20
121154	1315297	I hadn't done that for a while - too busy, I guess.	I hdn't done that for a while - Too busy, I guess.	62532140	1473531136666	1473531136768	g	71
121154	1315297	I hadn't done that for a while - too busy, I guess.	I hdn't done that for a while - Too busy, I guess.	62532147	1473531136736	1473531136858	u	85
121154	1315297	I hadn't done that for a while - too busy, I guess.	I hdn't done that for a while - Too busy, I guess.	62532153	1473531136821	1473531136959	e	69
121154	1315297	I hadn't done that for a while - too busy, I guess.	I hdn't done that for a while - Too busy, I guess.	62532163	1473531136879	1473531136991	s	83
121154	1315297	I hadn't done that for a while - too busy, I guess.	I hdn't done that for a while - Too busy, I guess.	62532166	1473531137061	1473531137168	s	83
121154	1315311	Theresa - Please resend.	Theresa - please resend.	62532260	1473531138642	1473531138781	CAPS_LOCK	20
121154	1315311	Theresa - Please resend.	Theresa - please resend.	62532265	1473531138776	1473531138921	T	84
121154	1315311	Theresa - Please resend.	Theresa - please resend.	62532268	1473531138856	1473531138995	CAPS_LOCK	20
121154	1315311	Theresa - Please resend.	Theresa - please resend.	62532271	1473531138974	1473531139091	h	72
121154	1315311	Theresa - Please resend.	Theresa - please resend.	62532274	1473531139059	1473531139203	e	69
121154	1315311	Theresa - Please resend.	Theresa - please resend.	62532278	1473531139155	1473531139304	r	82
121154	1315311	Theresa - Please resend.	Theresa - please resend.	62532324	1473531139256	1473531139465	e	69
121154	1315311	Theresa - Please resend.	Theresa - please resend.	62532329	1473531139359	1473531139512	s	83
121154	1315311	Theresa - Please resend.	Theresa - please resend.	62532333	1473531139853	1473531139964	a	65
121154	1315311	Theresa - Please resend.	Theresa - please resend.	62532338	1473531140110	1473531140216	 	32
121154	1315311	Theresa - Please resend.	Theresa - please resend.	62532343	1473531140201	1473531140328	-	189
121154	1315311	Theresa - Please resend.	Theresa - please resend.	62532358	1473531140296	1473531140403	 	32
121154	1315311	Theresa - Please resend.	Theresa - please resend.	62532361	1473531140467	1473531140595	p	80
121154	1315311	Theresa - Please resend.	Theresa - please resend.	62532366	1473531140531	1473531140670	l	76
121154	1315311	Theresa - Please resend.	Theresa - please resend.	62532372	1473531140585	1473531140712	e	69
121154	1315311	Theresa - Please resend.	Theresa - please resend.	62532377	1473531140643	1473531140744	a	65
121154	1315311	Theresa - Please resend.	Theresa - please resend.	62532383	1473531140804	1473531140938	s	83
121154	1315311	Theresa - Please resend.	Theresa - please resend.	62532414	1473531140852	1473531140981	e	69
121154	1315311	Theresa - Please resend.	Theresa - please resend.	62532420	1473531140922	1473531141050	 	32
121154	1315311	Theresa - Please resend.	Theresa - please resend.	62532425	1473531141087	1473531141171	r	82
121154	1315311	Theresa - Please resend.	Theresa - please resend.	62532430	1473531141231	1473531141380	e	69
121154	1315311	Theresa - Please resend.	Theresa - please resend.	62532442	1473531141305	1473531141497	s	83
121154	1315311	Theresa - Please resend.	Theresa - please resend.	62532448	1473531141471	1473531141609	e	69
121154	1315311	Theresa - Please resend.	Theresa - please resend.	62532435	1473531141588	1473531141683	n	78
