PARTICIPANT_ID	TEST_SECTION_ID	SENTENCE	USER_INPUT	KEYSTROKE_ID	PRESS_TIME	RELEASE_TIME	LETTER	KEYCODE
121723	1322047	Seve Ballesteros was well satisfied with his first round.	Seve Ballesteoc was well satisfied with his first round.	62853650	1473540584738	1473540585500	SHIFT	16
121723	1322047	Seve Ballesteros was well satisfied with his first round.	Seve Ballesteoc was well satisfied with his first round.	62853651	1473540586333	1473540588871	SHIFT	16
121723	1322047	Seve Ballesteros was well satisfied with his first round.	Seve Ballesteoc was well satisfied with his first round.	62853653	1473540589530	1473540590234	SHIFT	16
121723	1322047	Seve Ballesteros was well satisfied with his first round.	Seve Ballesteoc was well satisfied with his first round.	62853652	1473540590065	1473540590159	S	83
121723	1322047	Seve Ballesteros was well satisfied with his first round.	Seve Ballesteoc was well satisfied with his first round.	62853654	1473540590384	1473540590448	e	69
121723	1322047	Seve Ballesteros was well satisfied with his first round.	Seve Ballesteoc was well satisfied with his first round.	62853655	1473540590743	1473540590823	v	86
121723	1322047	Seve Ballesteros was well satisfied with his first round.	Seve Ballesteoc was well satisfied with his first round.	62853656	1473540590892	1473540591018	e	69
121723	1322047	Seve Ballesteros was well satisfied with his first round.	Seve Ballesteoc was well satisfied with his first round.	62853657	1473540591077	1473540591172	 	32
121723	1322047	Seve Ballesteros was well satisfied with his first round.	Seve Ballesteoc was well satisfied with his first round.	62853704	1473540591471	1473540591626	SHIFT	16
121723	1322047	Seve Ballesteros was well satisfied with his first round.	Seve Ballesteoc was well satisfied with his first round.	62853705	1473540591596	1473540591681	B	66
121723	1322047	Seve Ballesteros was well satisfied with his first round.	Seve Ballesteoc was well satisfied with his first round.	62853706	1473540591791	1473540591885	a	65
121723	1322047	Seve Ballesteros was well satisfied with his first round.	Seve Ballesteoc was well satisfied with his first round.	62853709	1473540592070	1473540592129	l	76
121723	1322047	Seve Ballesteros was well satisfied with his first round.	Seve Ballesteoc was well satisfied with his first round.	62853711	1473540592184	1473540592259	l	76
121723	1322047	Seve Ballesteros was well satisfied with his first round.	Seve Ballesteoc was well satisfied with his first round.	62853715	1473540592793	1473540592869	a	65
121723	1322047	Seve Ballesteros was well satisfied with his first round.	Seve Ballesteoc was well satisfied with his first round.	62853776	1473540593287	1473540593397	BKSP	8
121723	1322047	Seve Ballesteros was well satisfied with his first round.	Seve Ballesteoc was well satisfied with his first round.	62853777	1473540593438	1473540593531	e	69
121723	1322047	Seve Ballesteros was well satisfied with his first round.	Seve Ballesteoc was well satisfied with his first round.	62853778	1473540593671	1473540593761	s	83
121723	1322047	Seve Ballesteros was well satisfied with his first round.	Seve Ballesteoc was well satisfied with his first round.	62853779	1473540593830	1473540593910	t	84
121723	1322047	Seve Ballesteros was well satisfied with his first round.	Seve Ballesteoc was well satisfied with his first round.	62853780	1473540594973	1473540595062	e	69
121723	1322047	Seve Ballesteros was well satisfied with his first round.	Seve Ballesteoc was well satisfied with his first round.	62853781	1473540595596	1473540595696	o	79
121723	1322047	Seve Ballesteros was well satisfied with his first round.	Seve Ballesteoc was well satisfied with his first round.	62853855	1473540596685	1473540596798	c	67
121723	1322047	Seve Ballesteros was well satisfied with his first round.	Seve Ballesteoc was well satisfied with his first round.	62853856	1473540596843	1473540596958	 	32
121723	1322047	Seve Ballesteros was well satisfied with his first round.	Seve Ballesteoc was well satisfied with his first round.	62853858	1473540597043	1473540597147	w	87
121723	1322047	Seve Ballesteros was well satisfied with his first round.	Seve Ballesteoc was well satisfied with his first round.	62853860	1473540597342	1473540597486	a	65
121723	1322047	Seve Ballesteros was well satisfied with his first round.	Seve Ballesteoc was well satisfied with his first round.	62853862	1473540597501	1473540597626	s	83
121723	1322047	Seve Ballesteros was well satisfied with his first round.	Seve Ballesteoc was well satisfied with his first round.	62853889	1473540597671	1473540597811	 	32
121723	1322047	Seve Ballesteros was well satisfied with his first round.	Seve Ballesteoc was well satisfied with his first round.	62853891	1473540597857	1473540597956	w	87
121723	1322047	Seve Ballesteros was well satisfied with his first round.	Seve Ballesteoc was well satisfied with his first round.	62853895	1473540598045	1473540598145	e	69
121723	1322047	Seve Ballesteros was well satisfied with his first round.	Seve Ballesteoc was well satisfied with his first round.	62853896	1473540598295	1473540598375	l	76
121723	1322047	Seve Ballesteros was well satisfied with his first round.	Seve Ballesteoc was well satisfied with his first round.	62853897	1473540598419	1473540598504	l	76
121723	1322047	Seve Ballesteros was well satisfied with his first round.	Seve Ballesteoc was well satisfied with his first round.	62853929	1473540598544	1473540598644	 	32
121723	1322047	Seve Ballesteros was well satisfied with his first round.	Seve Ballesteoc was well satisfied with his first round.	62853930	1473540598739	1473540598843	s	83
121723	1322047	Seve Ballesteros was well satisfied with his first round.	Seve Ballesteoc was well satisfied with his first round.	62853931	1473540599293	1473540599382	a	65
121723	1322047	Seve Ballesteros was well satisfied with his first round.	Seve Ballesteoc was well satisfied with his first round.	62853932	1473540599726	1473540599817	t	84
121723	1322047	Seve Ballesteros was well satisfied with his first round.	Seve Ballesteoc was well satisfied with his first round.	62853933	1473540599906	1473540599995	i	73
121723	1322047	Seve Ballesteros was well satisfied with his first round.	Seve Ballesteoc was well satisfied with his first round.	62853965	1473540600145	1473540600245	s	83
121723	1322047	Seve Ballesteros was well satisfied with his first round.	Seve Ballesteoc was well satisfied with his first round.	62853966	1473540600599	1473540600699	f	70
121723	1322047	Seve Ballesteros was well satisfied with his first round.	Seve Ballesteoc was well satisfied with his first round.	62853967	1473540600734	1473540600819	i	73
121723	1322047	Seve Ballesteros was well satisfied with his first round.	Seve Ballesteoc was well satisfied with his first round.	62853968	1473540600883	1473540600968	e	69
121723	1322047	Seve Ballesteros was well satisfied with his first round.	Seve Ballesteoc was well satisfied with his first round.	62853969	1473540601080	1473540601168	d	68
121723	1322047	Seve Ballesteros was well satisfied with his first round.	Seve Ballesteoc was well satisfied with his first round.	62854002	1473540601482	1473540601601	 	32
121723	1322047	Seve Ballesteros was well satisfied with his first round.	Seve Ballesteoc was well satisfied with his first round.	62854004	1473540601778	1473540601876	w	87
121723	1322047	Seve Ballesteros was well satisfied with his first round.	Seve Ballesteoc was well satisfied with his first round.	62854006	1473540601881	1473540601966	i	73
121723	1322047	Seve Ballesteros was well satisfied with his first round.	Seve Ballesteoc was well satisfied with his first round.	62854010	1473540602036	1473540602135	t	84
121723	1322047	Seve Ballesteros was well satisfied with his first round.	Seve Ballesteoc was well satisfied with his first round.	62854042	1473540602131	1473540602282	h	72
121723	1322047	Seve Ballesteros was well satisfied with his first round.	Seve Ballesteoc was well satisfied with his first round.	62854044	1473540602270	1473540602385	 	32
121723	1322047	Seve Ballesteros was well satisfied with his first round.	Seve Ballesteoc was well satisfied with his first round.	62854045	1473540602794	1473540602939	h	72
121723	1322047	Seve Ballesteros was well satisfied with his first round.	Seve Ballesteoc was well satisfied with his first round.	62854046	1473540602889	1473540603014	i	73
121723	1322047	Seve Ballesteros was well satisfied with his first round.	Seve Ballesteoc was well satisfied with his first round.	62854047	1473540603074	1473540603179	s	83
121723	1322047	Seve Ballesteros was well satisfied with his first round.	Seve Ballesteoc was well satisfied with his first round.	62854048	1473540603214	1473540603298	 	32
121723	1322047	Seve Ballesteros was well satisfied with his first round.	Seve Ballesteoc was well satisfied with his first round.	62854053	1473540603308	1473540603408	f	70
121723	1322047	Seve Ballesteros was well satisfied with his first round.	Seve Ballesteoc was well satisfied with his first round.	62854055	1473540603418	1473540603498	i	79
121723	1322047	Seve Ballesteros was well satisfied with his first round.	Seve Ballesteoc was well satisfied with his first round.	62854058	1473540603508	1473540603598	r	82
121723	1322047	Seve Ballesteros was well satisfied with his first round.	Seve Ballesteoc was well satisfied with his first round.	62854061	1473540603852	1473540603932	s	83
121723	1322047	Seve Ballesteros was well satisfied with his first round.	Seve Ballesteoc was well satisfied with his first round.	62854184	1473540604321	1473540604416	BKSP	8
121723	1322047	Seve Ballesteros was well satisfied with his first round.	Seve Ballesteoc was well satisfied with his first round.	62854186	1473540604466	1473540604565	BKSP	8
121723	1322047	Seve Ballesteros was well satisfied with his first round.	Seve Ballesteoc was well satisfied with his first round.	62854188	1473540604610	1473540604695	BKSP	8
121723	1322047	Seve Ballesteros was well satisfied with his first round.	Seve Ballesteoc was well satisfied with his first round.	62854191	1473540605484	1473540605583	=	187
121723	1322047	Seve Ballesteros was well satisfied with his first round.	Seve Ballesteoc was well satisfied with his first round.	62854193	1473540605690	1473540605778	i	73
121723	1322047	Seve Ballesteros was well satisfied with his first round.	Seve Ballesteoc was well satisfied with his first round.	62854195	1473540606222	1473540606301	BKSP	8
121723	1322047	Seve Ballesteros was well satisfied with his first round.	Seve Ballesteoc was well satisfied with his first round.	62854197	1473540606356	1473540606446	BKSP	8
121723	1322047	Seve Ballesteros was well satisfied with his first round.	Seve Ballesteoc was well satisfied with his first round.	62854199	1473540606571	1473540606646	BKSP	8
121723	1322047	Seve Ballesteros was well satisfied with his first round.	Seve Ballesteoc was well satisfied with his first round.	62854201	1473540607025	1473540607125	i	73
121723	1322047	Seve Ballesteros was well satisfied with his first round.	Seve Ballesteoc was well satisfied with his first round.	62854204	1473540607325	1473540607400	r	82
121723	1322047	Seve Ballesteros was well satisfied with his first round.	Seve Ballesteoc was well satisfied with his first round.	62854206	1473540607480	1473540607584	s	83
121723	1322047	Seve Ballesteros was well satisfied with his first round.	Seve Ballesteoc was well satisfied with his first round.	62854229	1473540607654	1473540607803	t	84
121723	1322047	Seve Ballesteros was well satisfied with his first round.	Seve Ballesteoc was well satisfied with his first round.	62854231	1473540607983	1473540608088	 	32
121723	1322047	Seve Ballesteros was well satisfied with his first round.	Seve Ballesteoc was well satisfied with his first round.	62854234	1473540608637	1473540608759	r	82
121723	1322047	Seve Ballesteros was well satisfied with his first round.	Seve Ballesteoc was well satisfied with his first round.	62854237	1473540608752	1473540608921	o	79
121723	1322047	Seve Ballesteros was well satisfied with his first round.	Seve Ballesteoc was well satisfied with his first round.	62854247	1473540608906	1473540609082	u	85
121723	1322047	Seve Ballesteros was well satisfied with his first round.	Seve Ballesteoc was well satisfied with his first round.	62854249	1473540609041	1473540609151	n	78
121723	1322047	Seve Ballesteros was well satisfied with his first round.	Seve Ballesteoc was well satisfied with his first round.	62854253	1473540609165	1473540609240	d	68
121723	1322047	Seve Ballesteros was well satisfied with his first round.	Seve Ballesteoc was well satisfied with his first round.	62854259	1473540609515	1473540609591	.	190
121723	1322068	Seems unusual to me.	Seems unusual to me.	62855093	1473540635148	1473540635578	SHIFT	16
121723	1322068	Seems unusual to me.	Seems unusual to me.	62855094	1473540635488	1473540635578	S	83
121723	1322068	Seems unusual to me.	Seems unusual to me.	62855095	1473540635778	1473540635853	e	69
121723	1322068	Seems unusual to me.	Seems unusual to me.	62855097	1473540636268	1473540636378	e	69
121723	1322068	Seems unusual to me.	Seems unusual to me.	62855099	1473540636378	1473540636463	m	77
121723	1322068	Seems unusual to me.	Seems unusual to me.	62855101	1473540637006	1473540637116	s	83
121723	1322068	Seems unusual to me.	Seems unusual to me.	62855122	1473540637166	1473540637246	 	32
121723	1322068	Seems unusual to me.	Seems unusual to me.	62855123	1473540637486	1473540637573	u	85
121723	1322068	Seems unusual to me.	Seems unusual to me.	62855124	1473540637696	1473540637781	n	78
121723	1322068	Seems unusual to me.	Seems unusual to me.	62855125	1473540638236	1473540638333	u	85
121723	1322068	Seems unusual to me.	Seems unusual to me.	62855126	1473540638493	1473540638571	s	83
121723	1322068	Seems unusual to me.	Seems unusual to me.	62855137	1473540638701	1473540638781	u	85
121723	1322068	Seems unusual to me.	Seems unusual to me.	62855141	1473540638901	1473540639003	a	65
121723	1322068	Seems unusual to me.	Seems unusual to me.	62855143	1473540638953	1473540639106	l	76
121723	1322068	Seems unusual to me.	Seems unusual to me.	62855145	1473540639066	1473540639191	 	32
121723	1322068	Seems unusual to me.	Seems unusual to me.	62855146	1473540639241	1473540639346	t	84
121723	1322068	Seems unusual to me.	Seems unusual to me.	62855156	1473540639296	1473540639426	o	79
121723	1322068	Seems unusual to me.	Seems unusual to me.	62855159	1473540639388	1473540639513	 	32
121723	1322068	Seems unusual to me.	Seems unusual to me.	62855162	1473540639573	1473540639663	m	77
121723	1322068	Seems unusual to me.	Seems unusual to me.	62855164	1473540640053	1473540640143	e	69
121723	1322068	Seems unusual to me.	Seems unusual to me.	62855165	1473540640334	1473540640414	.	190
121723	1322089	They lost to Nantes after extra-time.	They lost to Nantes after extra-time.	62855391	1473540647099	1473540647344	SHIFT	16
121723	1322089	They lost to Nantes after extra-time.	They lost to Nantes after extra-time.	62855390	1473540647252	1473540647324	T	84
121723	1322089	They lost to Nantes after extra-time.	They lost to Nantes after extra-time.	62855392	1473540647424	1473540647497	h	72
121723	1322089	They lost to Nantes after extra-time.	They lost to Nantes after extra-time.	62855393	1473540647744	1473540647834	e	69
121723	1322089	They lost to Nantes after extra-time.	They lost to Nantes after extra-time.	62855394	1473540647799	1473540647944	y	89
121723	1322089	They lost to Nantes after extra-time.	They lost to Nantes after extra-time.	62855395	1473540648547	1473540648652	 	32
121723	1322089	They lost to Nantes after extra-time.	They lost to Nantes after extra-time.	62855417	1473540648817	1473540648987	l	76
121723	1322089	They lost to Nantes after extra-time.	They lost to Nantes after extra-time.	62855419	1473540649037	1473540649122	o	79
121723	1322089	They lost to Nantes after extra-time.	They lost to Nantes after extra-time.	62855421	1473540649264	1473540649362	s	83
121723	1322089	They lost to Nantes after extra-time.	They lost to Nantes after extra-time.	62855423	1473540649748	1473540649843	t	84
121723	1322089	They lost to Nantes after extra-time.	They lost to Nantes after extra-time.	62855483	1473540649823	1473540649938	 	32
121723	1322089	They lost to Nantes after extra-time.	They lost to Nantes after extra-time.	62855484	1473540649978	1473540650095	t	84
121723	1322089	They lost to Nantes after extra-time.	They lost to Nantes after extra-time.	62855486	1473540650043	1473540650210	o	79
121723	1322089	They lost to Nantes after extra-time.	They lost to Nantes after extra-time.	62855488	1473540650200	1473540650298	 	32
121723	1322089	They lost to Nantes after extra-time.	They lost to Nantes after extra-time.	62855492	1473540650925	1473540651535	SHIFT	16
121723	1322089	They lost to Nantes after extra-time.	They lost to Nantes after extra-time.	62855490	1473540651343	1473540651435	N	78
121723	1322089	They lost to Nantes after extra-time.	They lost to Nantes after extra-time.	62855495	1473540651645	1473540651755	a	65
121723	1322089	They lost to Nantes after extra-time.	They lost to Nantes after extra-time.	62855511	1473540651765	1473540651830	n	78
121723	1322089	They lost to Nantes after extra-time.	They lost to Nantes after extra-time.	62855512	1473540652030	1473540652095	t	84
121723	1322089	They lost to Nantes after extra-time.	They lost to Nantes after extra-time.	62855513	1473540652145	1473540652230	e	69
121723	1322089	They lost to Nantes after extra-time.	They lost to Nantes after extra-time.	62855516	1473540652430	1473540652560	s	83
121723	1322089	They lost to Nantes after extra-time.	They lost to Nantes after extra-time.	62855520	1473540652590	1473540652703	 	32
121723	1322089	They lost to Nantes after extra-time.	They lost to Nantes after extra-time.	62855536	1473540652818	1473540652928	a	65
121723	1322089	They lost to Nantes after extra-time.	They lost to Nantes after extra-time.	62855538	1473540652903	1473540652983	f	70
121723	1322089	They lost to Nantes after extra-time.	They lost to Nantes after extra-time.	62855540	1473540653043	1473540653118	t	84
121723	1322089	They lost to Nantes after extra-time.	They lost to Nantes after extra-time.	62855541	1473540653148	1473540653240	e	69
121723	1322089	They lost to Nantes after extra-time.	They lost to Nantes after extra-time.	62855543	1473540653320	1473540653428	r	82
121723	1322089	They lost to Nantes after extra-time.	They lost to Nantes after extra-time.	62855552	1473540653460	1473540653573	 	32
121723	1322089	They lost to Nantes after extra-time.	They lost to Nantes after extra-time.	62855554	1473540653783	1473540653858	e	69
121723	1322089	They lost to Nantes after extra-time.	They lost to Nantes after extra-time.	62855556	1473540654028	1473540654118	x	88
121723	1322089	They lost to Nantes after extra-time.	They lost to Nantes after extra-time.	62855558	1473540654148	1473540654223	t	84
121723	1322089	They lost to Nantes after extra-time.	They lost to Nantes after extra-time.	62855560	1473540654293	1473540654370	r	82
121723	1322089	They lost to Nantes after extra-time.	They lost to Nantes after extra-time.	62855605	1473540654445	1473540654525	a	65
121723	1322089	They lost to Nantes after extra-time.	They lost to Nantes after extra-time.	62855607	1473540655223	1473540655295	-	189
121723	1322089	They lost to Nantes after extra-time.	They lost to Nantes after extra-time.	62855610	1473540655675	1473540655765	t	84
121723	1322089	They lost to Nantes after extra-time.	They lost to Nantes after extra-time.	62855611	1473540655775	1473540655920	i	73
121723	1322089	They lost to Nantes after extra-time.	They lost to Nantes after extra-time.	62855623	1473540655870	1473540655988	m	77
121723	1322089	They lost to Nantes after extra-time.	They lost to Nantes after extra-time.	62855626	1473540656048	1473540656125	e	69
121723	1322089	They lost to Nantes after extra-time.	They lost to Nantes after extra-time.	62855628	1473540656410	1473540656478	.	190
121723	1322096	Please send to Gary Smith.	Please send to Gary Smith	62855909	1473540668008	1473540668391	SHIFT	16
121723	1322096	Please send to Gary Smith.	Please send to Gary Smith	62855910	1473540668256	1473540668418	P	80
121723	1322096	Please send to Gary Smith.	Please send to Gary Smith	62855911	1473540668368	1473540668483	L	76
121723	1322096	Please send to Gary Smith.	Please send to Gary Smith	62855912	1473540669218	1473540669298	e	69
121723	1322096	Please send to Gary Smith.	Please send to Gary Smith	62855913	1473540669608	1473540669711	BKSP	8
121723	1322096	Please send to Gary Smith.	Please send to Gary Smith	62855914	1473540669751	1473540669841	BKSP	8
121723	1322096	Please send to Gary Smith.	Please send to Gary Smith	62855915	1473540670731	1473540670816	l	76
121723	1322096	Please send to Gary Smith.	Please send to Gary Smith	62855916	1473540671056	1473540671163	e	69
121723	1322096	Please send to Gary Smith.	Please send to Gary Smith	62855940	1473540671286	1473540671468	a	65
121723	1322096	Please send to Gary Smith.	Please send to Gary Smith	62855942	1473540671433	1473540671541	s	83
121723	1322096	Please send to Gary Smith.	Please send to Gary Smith	62855945	1473540671631	1473540671726	e	69
121723	1322096	Please send to Gary Smith.	Please send to Gary Smith	62855948	1473540671796	1473540671883	 	32
121723	1322096	Please send to Gary Smith.	Please send to Gary Smith	62855951	1473540671893	1473540672008	s	83
121723	1322096	Please send to Gary Smith.	Please send to Gary Smith	62855963	1473540672073	1473540672168	e	69
121723	1322096	Please send to Gary Smith.	Please send to Gary Smith	62855964	1473540672188	1473540672236	n	78
121723	1322096	Please send to Gary Smith.	Please send to Gary Smith	62855965	1473540672281	1473540672373	d	68
121723	1322096	Please send to Gary Smith.	Please send to Gary Smith	62855966	1473540672413	1473540672513	 	32
121723	1322096	Please send to Gary Smith.	Please send to Gary Smith	62855967	1473540672593	1473540672683	t	84
121723	1322096	Please send to Gary Smith.	Please send to Gary Smith	62856004	1473540672683	1473540672848	o	79
121723	1322096	Please send to Gary Smith.	Please send to Gary Smith	62856005	1473540672823	1473540672926	 	32
121723	1322096	Please send to Gary Smith.	Please send to Gary Smith	62856006	1473540673991	1473540674176	SHIFT	16
121723	1322096	Please send to Gary Smith.	Please send to Gary Smith	62856007	1473540674101	1473540674206	G	71
121723	1322096	Please send to Gary Smith.	Please send to Gary Smith	62856008	1473540674498	1473540674596	a	65
121723	1322096	Please send to Gary Smith.	Please send to Gary Smith	62856070	1473540674586	1473540674673	r	82
121723	1322096	Please send to Gary Smith.	Please send to Gary Smith	62856072	1473540675586	1473540675748	y	89
121723	1322096	Please send to Gary Smith.	Please send to Gary Smith	62856075	1473540675713	1473540675813	 	32
121723	1322096	Please send to Gary Smith.	Please send to Gary Smith	62856077	1473540676013	1473540676356	SHIFT	16
121723	1322096	Please send to Gary Smith.	Please send to Gary Smith	62856079	1473540676296	1473540676398	S	83
121723	1322096	Please send to Gary Smith.	Please send to Gary Smith	62856081	1473540676488	1473540676621	m	77
121723	1322096	Please send to Gary Smith.	Please send to Gary Smith	62856084	1473540676586	1473540676696	i	73
121723	1322096	Please send to Gary Smith.	Please send to Gary Smith	62856085	1473540676736	1473540676821	t	84
121723	1322096	Please send to Gary Smith.	Please send to Gary Smith	62856088	1473540676821	1473540676878	h	72
121723	1322104	This is the limit.	This is the limiy/	62856175	1473540680781	1473540681101	SHIFT	16
121723	1322104	This is the limit.	This is the limiy/	62856174	1473540681006	1473540681081	T	84
121723	1322104	This is the limit.	This is the limiy/	62856176	1473540681283	1473540681433	h	72
121723	1322104	This is the limit.	This is the limiy/	62856177	1473540681381	1473540681506	i	73
121723	1322104	This is the limit.	This is the limiy/	62856178	1473540681846	1473540681936	s	83
121723	1322104	This is the limit.	This is the limiy/	62856193	1473540681936	1473540682038	 	32
121723	1322104	This is the limit.	This is the limiy/	62856196	1473540682288	1473540682398	i	73
121723	1322104	This is the limit.	This is the limiy/	62856201	1473540682478	1473540682578	s	83
121723	1322104	This is the limit.	This is the limiy/	62856204	1473540682618	1473540682723	 	32
121723	1322104	This is the limit.	This is the limiy/	62856207	1473540682763	1473540682853	t	84
121723	1322104	This is the limit.	This is the limiy/	62856221	1473540682843	1473540682943	h	72
121723	1322104	This is the limit.	This is the limiy/	62856223	1473540682993	1473540683083	e	69
121723	1322104	This is the limit.	This is the limiy/	62856225	1473540683093	1473540683178	 	32
121723	1322104	This is the limit.	This is the limiy/	62856227	1473540683381	1473540683498	l	76
121723	1322104	This is the limit.	This is the limiy/	62856229	1473540683588	1473540683663	i	73
121723	1322104	This is the limit.	This is the limiy/	62856233	1473540683843	1473540683921	l	76
121723	1322104	This is the limit.	This is the limiy/	62856314	1473540684616	1473540684696	\	220
121723	1322104	This is the limit.	This is the limiy/	62856315	1473540686088	1473540686173	BKSP	8
121723	1322104	This is the limit.	This is the limiy/	62856316	1473540686253	1473540686348	BKSP	8
121723	1322104	This is the limit.	This is the limiy/	62856317	1473540686913	1473540687086	m	77
121723	1322104	This is the limit.	This is the limiy/	62856318	1473540687028	1473540687143	i	73
121723	1322104	This is the limit.	This is the limiy/	62856319	1473540687213	1473540687293	y	89
121723	1322109	Is this the conference rate?	Is this the conference rate?	62856624	1473540688206	1473540701486	/	191
121723	1322109	Is this the conference rate?	Is this the conference rate?	62856427	1473540693631	1473540693963	SHIFT	16
121723	1322109	Is this the conference rate?	Is this the conference rate?	62856429	1473540693873	1473540693973	I	73
121723	1322109	Is this the conference rate?	Is this the conference rate?	62856431	1473540694243	1473540694346	s	83
121723	1322109	Is this the conference rate?	Is this the conference rate?	62856432	1473540694376	1473540694473	 	32
121723	1322109	Is this the conference rate?	Is this the conference rate?	62856433	1473540694573	1473540694668	t	84
121723	1322109	Is this the conference rate?	Is this the conference rate?	62856434	1473540694738	1473540694881	h	72
121723	1322109	Is this the conference rate?	Is this the conference rate?	62856449	1473540694821	1473540694956	i	73
121723	1322109	Is this the conference rate?	Is this the conference rate?	62856452	1473540695056	1473540695166	s	83
121723	1322109	Is this the conference rate?	Is this the conference rate?	62856454	1473540695196	1473540695296	 	32
121723	1322109	Is this the conference rate?	Is this the conference rate?	62856455	1473540695366	1473540695461	t	84
121723	1322109	Is this the conference rate?	Is this the conference rate?	62856456	1473540695471	1473540695571	h	72
121723	1322109	Is this the conference rate?	Is this the conference rate?	62856457	1473540695671	1473540695751	e	69
121723	1322109	Is this the conference rate?	Is this the conference rate?	62856515	1473540695796	1473540695901	 	32
121723	1322109	Is this the conference rate?	Is this the conference rate?	62856518	1473540696391	1473540696468	c	67
121723	1322109	Is this the conference rate?	Is this the conference rate?	62856520	1473540697283	1473540697453	o	79
121723	1322109	Is this the conference rate?	Is this the conference rate?	62856521	1473540697388	1473540697523	n	78
121723	1322109	Is this the conference rate?	Is this the conference rate?	62856522	1473540697853	1473540697963	f	70
121723	1322109	Is this the conference rate?	Is this the conference rate?	62856551	1473540698078	1473540698213	e	69
121723	1322109	Is this the conference rate?	Is this the conference rate?	62856552	1473540698163	1473540698358	r	82
121723	1322109	Is this the conference rate?	Is this the conference rate?	62856553	1473540698308	1473540698448	e	69
121723	1322109	Is this the conference rate?	Is this the conference rate?	62856554	1473540698708	1473540698816	n	78
121723	1322109	Is this the conference rate?	Is this the conference rate?	62856555	1473540698868	1473540699021	c	67
121723	1322109	Is this the conference rate?	Is this the conference rate?	62856569	1473540698976	1473540699138	e	69
121723	1322109	Is this the conference rate?	Is this the conference rate?	62856571	1473540699268	1473540699381	 	32
121723	1322109	Is this the conference rate?	Is this the conference rate?	62856573	1473540699541	1473540699626	r	82
121723	1322109	Is this the conference rate?	Is this the conference rate?	62856575	1473540699646	1473540699756	a	65
121723	1322109	Is this the conference rate?	Is this the conference rate?	62856577	1473540699746	1473540699831	t	84
121723	1322109	Is this the conference rate?	Is this the conference rate?	62856578	1473540699881	1473540699956	e	69
121723	1322109	Is this the conference rate?	Is this the conference rate?	62856622	1473540701278	1473540701446	SHIFT	16
121723	1322116	I decided that I am going to stay here!	I decided that i am going to stay here!	62856755	1473540706438	1473540706741	SHIFT	16
121723	1322116	I decided that I am going to stay here!	I decided that i am going to stay here!	62856753	1473540706618	1473540706701	I	73
121723	1322116	I decided that I am going to stay here!	I decided that i am going to stay here!	62856757	1473540706901	1473540707011	 	32
121723	1322116	I decided that I am going to stay here!	I decided that i am going to stay here!	62856761	1473540707051	1473540707161	d	68
121723	1322116	I decided that I am going to stay here!	I decided that i am going to stay here!	62856762	1473540707171	1473540707291	e	69
121723	1322116	I decided that I am going to stay here!	I decided that i am going to stay here!	62856765	1473540707403	1473540707513	c	67
121723	1322116	I decided that I am going to stay here!	I decided that i am going to stay here!	62856778	1473540707558	1473540707648	i	73
121723	1322116	I decided that I am going to stay here!	I decided that i am going to stay here!	62856781	1473540707678	1473540707793	d	68
121723	1322116	I decided that I am going to stay here!	I decided that i am going to stay here!	62856785	1473540707803	1473540707956	e	69
121723	1322116	I decided that I am going to stay here!	I decided that i am going to stay here!	62856788	1473540707913	1473540708048	d	68
121723	1322116	I decided that I am going to stay here!	I decided that i am going to stay here!	62856792	1473540708098	1473540708198	 	32
121723	1322116	I decided that I am going to stay here!	I decided that i am going to stay here!	62856800	1473540708223	1473540708318	t	84
121723	1322116	I decided that I am going to stay here!	I decided that i am going to stay here!	62856801	1473540708348	1473540708443	h	72
121723	1322116	I decided that I am going to stay here!	I decided that i am going to stay here!	62856802	1473540708543	1473540708628	a	65
121723	1322116	I decided that I am going to stay here!	I decided that i am going to stay here!	62856805	1473540708648	1473540708763	t	84
121723	1322116	I decided that I am going to stay here!	I decided that i am going to stay here!	62856866	1473540708743	1473540708843	 	32
121723	1322116	I decided that I am going to stay here!	I decided that i am going to stay here!	62856867	1473540709143	1473540709228	i	73
121723	1322116	I decided that I am going to stay here!	I decided that i am going to stay here!	62856868	1473540709771	1473540709851	 	32
121723	1322116	I decided that I am going to stay here!	I decided that i am going to stay here!	62856869	1473540710071	1473540710186	a	65
121723	1322116	I decided that I am going to stay here!	I decided that i am going to stay here!	62856870	1473540710226	1473540710366	m	77
121723	1322116	I decided that I am going to stay here!	I decided that i am going to stay here!	62856889	1473540710356	1473540710471	 	32
121723	1322116	I decided that I am going to stay here!	I decided that i am going to stay here!	62856891	1473540711016	1473540711118	g	71
121723	1322116	I decided that I am going to stay here!	I decided that i am going to stay here!	62856895	1473540711168	1473540711321	o	79
121723	1322116	I decided that I am going to stay here!	I decided that i am going to stay here!	62856901	1473540711263	1473540711426	i	73
121723	1322116	I decided that I am going to stay here!	I decided that i am going to stay here!	62856905	1473540711388	1473540711493	n	78
121723	1322116	I decided that I am going to stay here!	I decided that i am going to stay here!	62856907	1473540711523	1473540711628	g	71
121723	1322116	I decided that I am going to stay here!	I decided that i am going to stay here!	62856911	1473540711638	1473540711728	 	32
121723	1322116	I decided that I am going to stay here!	I decided that i am going to stay here!	62856914	1473540711768	1473540711858	t	84
121723	1322116	I decided that I am going to stay here!	I decided that i am going to stay here!	62856917	1473540711908	1473540711986	o	79
121723	1322116	I decided that I am going to stay here!	I decided that i am going to stay here!	62856919	1473540711951	1473540712068	 	32
121723	1322116	I decided that I am going to stay here!	I decided that i am going to stay here!	62856921	1473540712348	1473540712413	t	84
121723	1322116	I decided that I am going to stay here!	I decided that i am going to stay here!	62856957	1473540712988	1473540713086	BKSP	8
121723	1322116	I decided that I am going to stay here!	I decided that i am going to stay here!	62856959	1473540713266	1473540713393	s	83
121723	1322116	I decided that I am going to stay here!	I decided that i am going to stay here!	62856964	1473540713403	1473540713476	t	84
121723	1322116	I decided that I am going to stay here!	I decided that i am going to stay here!	62856968	1473540713556	1473540713681	a	65
121723	1322116	I decided that I am going to stay here!	I decided that i am going to stay here!	62856971	1473540713636	1473540713766	y	89
121723	1322116	I decided that I am going to stay here!	I decided that i am going to stay here!	62856998	1473540713741	1473540713836	 	32
121723	1322116	I decided that I am going to stay here!	I decided that i am going to stay here!	62857001	1473540713956	1473540714061	h	72
121723	1322116	I decided that I am going to stay here!	I decided that i am going to stay here!	62857006	1473540714111	1473540714253	e	69
121723	1322116	I decided that I am going to stay here!	I decided that i am going to stay here!	62857012	1473540714206	1473540714388	r	82
121723	1322116	I decided that I am going to stay here!	I decided that i am going to stay here!	62857017	1473540714341	1473540714473	e	69
121723	1322116	I decided that I am going to stay here!	I decided that i am going to stay here!	62857028	1473540715258	1473540715513	SHIFT	16
121723	1322116	I decided that I am going to stay here!	I decided that i am going to stay here!	62857021	1473540715436	1473540715503	!	49
121723	1322125	Louis despite the return of Drew Bledsoe.	Louis despite the return of Drew Bledsoe	62857193	1473540720058	1473540721261	SHIFT	16
121723	1322125	Louis despite the return of Drew Bledsoe.	Louis despite the return of Drew Bledsoe	62857194	1473540721153	1473540721271	L	76
121723	1322125	Louis despite the return of Drew Bledsoe.	Louis despite the return of Drew Bledsoe	62857195	1473540721381	1473540721511	o	79
121723	1322125	Louis despite the return of Drew Bledsoe.	Louis despite the return of Drew Bledsoe	62857196	1473540721551	1473540721646	u	85
121723	1322125	Louis despite the return of Drew Bledsoe.	Louis despite the return of Drew Bledsoe	62857197	1473540722286	1473540722373	i	73
121723	1322125	Louis despite the return of Drew Bledsoe.	Louis despite the return of Drew Bledsoe	62857198	1473540722488	1473540722598	s	83
121723	1322125	Louis despite the return of Drew Bledsoe.	Louis despite the return of Drew Bledsoe	62857210	1473540722633	1473540722743	 	32
121723	1322125	Louis despite the return of Drew Bledsoe.	Louis despite the return of Drew Bledsoe	62857213	1473540723033	1473540723163	d	68
121723	1322125	Louis despite the return of Drew Bledsoe.	Louis despite the return of Drew Bledsoe	62857216	1473540723123	1473540723258	e	69
121723	1322125	Louis despite the return of Drew Bledsoe.	Louis despite the return of Drew Bledsoe	62857219	1473540723398	1473540723498	s	83
121723	1322125	Louis despite the return of Drew Bledsoe.	Louis despite the return of Drew Bledsoe	62857222	1473540723518	1473540723673	p	80
121723	1322125	Louis despite the return of Drew Bledsoe.	Louis despite the return of Drew Bledsoe	62857255	1473540723628	1473540723733	i	73
121723	1322125	Louis despite the return of Drew Bledsoe.	Louis despite the return of Drew Bledsoe	62857256	1473540723893	1473540724043	t	84
121723	1322125	Louis despite the return of Drew Bledsoe.	Louis despite the return of Drew Bledsoe	62857257	1473540724033	1473540724171	e	69
121723	1322125	Louis despite the return of Drew Bledsoe.	Louis despite the return of Drew Bledsoe	62857258	1473540724341	1473540724431	 	32
121723	1322125	Louis despite the return of Drew Bledsoe.	Louis despite the return of Drew Bledsoe	62857259	1473540724558	1473540724646	t	84
121723	1322125	Louis despite the return of Drew Bledsoe.	Louis despite the return of Drew Bledsoe	62857260	1473540724676	1473540724781	h	72
121723	1322125	Louis despite the return of Drew Bledsoe.	Louis despite the return of Drew Bledsoe	62857274	1473540724956	1473540725061	e	69
121723	1322125	Louis despite the return of Drew Bledsoe.	Louis despite the return of Drew Bledsoe	62857276	1473540725121	1473540725221	 	32
121723	1322125	Louis despite the return of Drew Bledsoe.	Louis despite the return of Drew Bledsoe	62857278	1473540725301	1473540725393	r	82
121723	1322125	Louis despite the return of Drew Bledsoe.	Louis despite the return of Drew Bledsoe	62857280	1473540725511	1473540725601	e	69
121723	1322125	Louis despite the return of Drew Bledsoe.	Louis despite the return of Drew Bledsoe	62857284	1473540725761	1473540725831	t	84
121723	1322125	Louis despite the return of Drew Bledsoe.	Louis despite the return of Drew Bledsoe	62857301	1473540725966	1473540726048	u	85
121723	1322125	Louis despite the return of Drew Bledsoe.	Louis despite the return of Drew Bledsoe	62857302	1473540726298	1473540726388	r	82
121723	1322125	Louis despite the return of Drew Bledsoe.	Louis despite the return of Drew Bledsoe	62857303	1473540726503	1473540726673	n	78
121723	1322125	Louis despite the return of Drew Bledsoe.	Louis despite the return of Drew Bledsoe	62857304	1473540726663	1473540726803	 	32
121723	1322125	Louis despite the return of Drew Bledsoe.	Louis despite the return of Drew Bledsoe	62857306	1473540727123	1473540727213	o	79
121723	1322125	Louis despite the return of Drew Bledsoe.	Louis despite the return of Drew Bledsoe	62857401	1473540727611	1473540727711	f	70
121723	1322125	Louis despite the return of Drew Bledsoe.	Louis despite the return of Drew Bledsoe	62857402	1473540727731	1473540727841	 	32
121723	1322125	Louis despite the return of Drew Bledsoe.	Louis despite the return of Drew Bledsoe	62857403	1473540728090	1473540728657	SHIFT	16
121723	1322125	Louis despite the return of Drew Bledsoe.	Louis despite the return of Drew Bledsoe	62857404	1473540729457	1473540729697	SHIFT	16
121723	1322125	Louis despite the return of Drew Bledsoe.	Louis despite the return of Drew Bledsoe	62857405	1473540729597	1473540729697	D	68
121723	1322125	Louis despite the return of Drew Bledsoe.	Louis despite the return of Drew Bledsoe	62857406	1473540729967	1473540730115	r	82
121723	1322125	Louis despite the return of Drew Bledsoe.	Louis despite the return of Drew Bledsoe	62857450	1473540730057	1473540730172	e	69
121723	1322125	Louis despite the return of Drew Bledsoe.	Louis despite the return of Drew Bledsoe	62857452	1473540730252	1473540730332	w	87
121723	1322125	Louis despite the return of Drew Bledsoe.	Louis despite the return of Drew Bledsoe	62857455	1473540730525	1473540730627	 	32
121723	1322125	Louis despite the return of Drew Bledsoe.	Louis despite the return of Drew Bledsoe	62857462	1473540730947	1473540731397	SHIFT	16
121723	1322125	Louis despite the return of Drew Bledsoe.	Louis despite the return of Drew Bledsoe	62857459	1473540731227	1473540731327	B	66
121723	1322125	Louis despite the return of Drew Bledsoe.	Louis despite the return of Drew Bledsoe	62857465	1473540731650	1473540731755	l	76
121723	1322125	Louis despite the return of Drew Bledsoe.	Louis despite the return of Drew Bledsoe	62857468	1473540731815	1473540731915	e	69
121723	1322125	Louis despite the return of Drew Bledsoe.	Louis despite the return of Drew Bledsoe	62857524	1473540732050	1473540732145	d	68
121723	1322125	Louis despite the return of Drew Bledsoe.	Louis despite the return of Drew Bledsoe	62857526	1473540733125	1473540733232	s	83
121723	1322125	Louis despite the return of Drew Bledsoe.	Louis despite the return of Drew Bledsoe	62857529	1473540733202	1473540733297	o	79
121723	1322125	Louis despite the return of Drew Bledsoe.	Louis despite the return of Drew Bledsoe	62857532	1473540734342	1473540734472	e	69
121723	1322137	The House would give them equal treatment with US banks.	The house would give them equal treatment with US banks.	62857642	1473540738327	1473540738612	SHIFT	16
121723	1322137	The House would give them equal treatment with US banks.	The house would give them equal treatment with US banks.	62857640	1473540738500	1473540738582	T	84
121723	1322137	The House would give them equal treatment with US banks.	The house would give them equal treatment with US banks.	62857646	1473540738742	1473540738840	h	72
121723	1322137	The House would give them equal treatment with US banks.	The house would give them equal treatment with US banks.	62857648	1473540738900	1473540739020	e	69
121723	1322137	The House would give them equal treatment with US banks.	The house would give them equal treatment with US banks.	62857650	1473540739010	1473540739120	 	32
121723	1322137	The House would give them equal treatment with US banks.	The house would give them equal treatment with US banks.	62857652	1473540739220	1473540739305	h	72
121723	1322137	The House would give them equal treatment with US banks.	The house would give them equal treatment with US banks.	62857669	1473540739387	1473540739507	o	79
121723	1322137	The House would give them equal treatment with US banks.	The house would give them equal treatment with US banks.	62857670	1473540739457	1473540739572	u	85
121723	1322137	The House would give them equal treatment with US banks.	The house would give them equal treatment with US banks.	62857671	1473540739652	1473540739760	s	83
121723	1322137	The House would give them equal treatment with US banks.	The house would give them equal treatment with US banks.	62857672	1473540739870	1473540739965	e	69
121723	1322137	The House would give them equal treatment with US banks.	The house would give them equal treatment with US banks.	62857674	1473540739985	1473540740100	 	32
121723	1322137	The House would give them equal treatment with US banks.	The house would give them equal treatment with US banks.	62857686	1473540740325	1473540740402	w	87
121723	1322137	The House would give them equal treatment with US banks.	The house would give them equal treatment with US banks.	62857687	1473540740632	1473540740752	o	79
121723	1322137	The House would give them equal treatment with US banks.	The house would give them equal treatment with US banks.	62857688	1473540740782	1473540740877	u	85
121723	1322137	The House would give them equal treatment with US banks.	The house would give them equal treatment with US banks.	62857689	1473540740997	1473540741102	l	76
121723	1322137	The House would give them equal treatment with US banks.	The house would give them equal treatment with US banks.	62857690	1473540741212	1473540741317	d	68
121723	1322137	The House would give them equal treatment with US banks.	The house would give them equal treatment with US banks.	62857705	1473540741342	1473540741442	 	32
121723	1322137	The House would give them equal treatment with US banks.	The house would give them equal treatment with US banks.	62857706	1473540741785	1473540741867	g	71
121723	1322137	The House would give them equal treatment with US banks.	The house would give them equal treatment with US banks.	62857707	1473540741910	1473540742007	i	73
121723	1322137	The House would give them equal treatment with US banks.	The house would give them equal treatment with US banks.	62857708	1473540742127	1473540742277	v	86
121723	1322137	The House would give them equal treatment with US banks.	The house would give them equal treatment with US banks.	62857732	1473540742245	1473540742380	e	69
121723	1322137	The House would give them equal treatment with US banks.	The house would give them equal treatment with US banks.	62857733	1473540742642	1473540742752	 	32
121723	1322137	The House would give them equal treatment with US banks.	The house would give them equal treatment with US banks.	62857734	1473540742842	1473540742955	t	84
121723	1322137	The House would give them equal treatment with US banks.	The house would give them equal treatment with US banks.	62857736	1473540742975	1473540743060	h	72
121723	1322137	The House would give them equal treatment with US banks.	The house would give them equal treatment with US banks.	62857738	1473540743150	1473540743250	e	69
121723	1322137	The House would give them equal treatment with US banks.	The house would give them equal treatment with US banks.	62857740	1473540743300	1473540743445	m	77
121723	1322137	The House would give them equal treatment with US banks.	The house would give them equal treatment with US banks.	62857769	1473540743435	1473540743545	 	32
121723	1322137	The House would give them equal treatment with US banks.	The house would give them equal treatment with US banks.	62857771	1473540743585	1473540743675	e	69
121723	1322137	The House would give them equal treatment with US banks.	The house would give them equal treatment with US banks.	62857774	1473540744115	1473540744227	q	81
121723	1322137	The House would give them equal treatment with US banks.	The house would give them equal treatment with US banks.	62857780	1473540744317	1473540744412	u	85
121723	1322137	The House would give them equal treatment with US banks.	The house would give them equal treatment with US banks.	62857784	1473540744760	1473540744872	a	65
121723	1322137	The House would give them equal treatment with US banks.	The house would give them equal treatment with US banks.	62857787	1473540744882	1473540745052	l	76
121723	1322137	The House would give them equal treatment with US banks.	The house would give them equal treatment with US banks.	62857820	1473540745032	1473540745137	 	32
121723	1322137	The House would give them equal treatment with US banks.	The house would give them equal treatment with US banks.	62857823	1473540745257	1473540745400	t	84
121723	1322137	The House would give them equal treatment with US banks.	The house would give them equal treatment with US banks.	62857829	1473540745367	1473540745490	r	82
121723	1322137	The House would give them equal treatment with US banks.	The house would give them equal treatment with US banks.	62857832	1473540745600	1473540745712	e	69
121723	1322137	The House would give them equal treatment with US banks.	The house would give them equal treatment with US banks.	62857836	1473540745882	1473540745997	a	65
121723	1322137	The House would give them equal treatment with US banks.	The house would give them equal treatment with US banks.	62857857	1473540745977	1473540746050	t	84
121723	1322137	The House would give them equal treatment with US banks.	The house would give them equal treatment with US banks.	62857858	1473540746180	1473540746297	m	77
121723	1322137	The House would give them equal treatment with US banks.	The house would give them equal treatment with US banks.	62857859	1473540746302	1473540746400	e	69
121723	1322137	The House would give them equal treatment with US banks.	The house would give them equal treatment with US banks.	62857861	1473540746532	1473540746655	a	65
121723	1322137	The House would give them equal treatment with US banks.	The house would give them equal treatment with US banks.	62857864	1473540746665	1473540746750	n	78
121723	1322137	The House would give them equal treatment with US banks.	The house would give them equal treatment with US banks.	62857867	1473540747020	1473540747075	t	84
121723	1322137	The House would give them equal treatment with US banks.	The house would give them equal treatment with US banks.	62857876	1473540747150	1473540747265	 	32
121723	1322137	The House would give them equal treatment with US banks.	The house would give them equal treatment with US banks.	62857877	1473540747355	1473540747465	w	87
121723	1322137	The House would give them equal treatment with US banks.	The house would give them equal treatment with US banks.	62857879	1473540747475	1473540747575	i	73
121723	1322137	The House would give them equal treatment with US banks.	The house would give them equal treatment with US banks.	62857884	1473540747717	1473540747830	t	84
121723	1322137	The House would give them equal treatment with US banks.	The house would give them equal treatment with US banks.	62857887	1473540747840	1473540748037	h	72
121723	1322137	The House would give them equal treatment with US banks.	The house would give them equal treatment with US banks.	62857949	1473540748012	1473540748132	 	32
121723	1322137	The House would give them equal treatment with US banks.	The house would give them equal treatment with US banks.	62857954	1473540748662	1473540749132	SHIFT	16
121723	1322137	The House would give them equal treatment with US banks.	The house would give them equal treatment with US banks.	62857951	1473540748802	1473540748877	U	85
121723	1322137	The House would give them equal treatment with US banks.	The house would give them equal treatment with US banks.	62857960	1473540749047	1473540749152	S	83
121723	1322137	The House would give them equal treatment with US banks.	The house would give them equal treatment with US banks.	62857964	1473540749382	1473540749505	 	32
121723	1322137	The House would give them equal treatment with US banks.	The house would give them equal treatment with US banks.	62857967	1473540749835	1473540749930	b	66
121723	1322137	The House would give them equal treatment with US banks.	The house would give them equal treatment with US banks.	62857970	1473540749970	1473540750077	a	65
121723	1322137	The House would give them equal treatment with US banks.	The house would give them equal treatment with US banks.	62858274	1473540750052	1473540750150	n	78
121723	1322137	The House would give them equal treatment with US banks.	The house would give them equal treatment with US banks.	62858276	1473540750960	1473540751055	k	75
121723	1322137	The House would give them equal treatment with US banks.	The house would give them equal treatment with US banks.	62858278	1473540751125	1473540751225	d	68
121723	1322137	The House would give them equal treatment with US banks.	The house would give them equal treatment with US banks.	62858280	1473540752397	1473540752497	BKSP	8
121723	1322137	The House would give them equal treatment with US banks.	The house would give them equal treatment with US banks.	62858282	1473540752487	1473540752592	s	83
121723	1322137	The House would give them equal treatment with US banks.	The house would give them equal treatment with US banks.	62858284	1473540753097	1473540754020	ARW_LEFT	37
121723	1322137	The House would give them equal treatment with US banks.	The house would give them equal treatment with US banks.	62858286	1473540754365	1473540754467	ARW_LEFT	37
121723	1322137	The House would give them equal treatment with US banks.	The house would give them equal treatment with US banks.	62858288	1473540754622	1473540754735	ARW_LEFT	37
121723	1322137	The House would give them equal treatment with US banks.	The house would give them equal treatment with US banks.	62858291	1473540755487	1473540755587	ARW_LEFT	37
121723	1322137	The House would give them equal treatment with US banks.	The house would give them equal treatment with US banks.	62858294	1473540756675	1473540756780	BKSP	8
121723	1322154	Tiger Woods is set to answer your questions.	Tiger Woods is set to answer your questions.	62858453	1473540763612	1473540764132	SHIFT	16
121723	1322154	Tiger Woods is set to answer your questions.	Tiger Woods is set to answer your questions.	62858451	1473540764002	1473540764082	T	84
121723	1322154	Tiger Woods is set to answer your questions.	Tiger Woods is set to answer your questions.	62858454	1473540764342	1473540764435	i	73
121723	1322154	Tiger Woods is set to answer your questions.	Tiger Woods is set to answer your questions.	62858455	1473540764975	1473540765055	g	71
121723	1322154	Tiger Woods is set to answer your questions.	Tiger Woods is set to answer your questions.	62858456	1473540765165	1473540765362	e	69
121723	1322154	Tiger Woods is set to answer your questions.	Tiger Woods is set to answer your questions.	62858482	1473540765295	1473540765460	r	82
121723	1322154	Tiger Woods is set to answer your questions.	Tiger Woods is set to answer your questions.	62858483	1473540765510	1473540765605	 	32
121723	1322154	Tiger Woods is set to answer your questions.	Tiger Woods is set to answer your questions.	62858484	1473540765925	1473540766347	SHIFT	16
121723	1322154	Tiger Woods is set to answer your questions.	Tiger Woods is set to answer your questions.	62858486	1473540766275	1473540766387	W	87
121723	1322154	Tiger Woods is set to answer your questions.	Tiger Woods is set to answer your questions.	62858488	1473540766507	1473540766575	o	79
121723	1322154	Tiger Woods is set to answer your questions.	Tiger Woods is set to answer your questions.	62858491	1473540766617	1473540766697	o	79
121723	1322154	Tiger Woods is set to answer your questions.	Tiger Woods is set to answer your questions.	62858494	1473540766847	1473540766990	d	68
121723	1322154	Tiger Woods is set to answer your questions.	Tiger Woods is set to answer your questions.	62858544	1473540766942	1473540767067	s	83
121723	1322154	Tiger Woods is set to answer your questions.	Tiger Woods is set to answer your questions.	62858546	1473540768090	1473540768195	 	32
121723	1322154	Tiger Woods is set to answer your questions.	Tiger Woods is set to answer your questions.	62858548	1473540768475	1473540768552	i	73
121723	1322154	Tiger Woods is set to answer your questions.	Tiger Woods is set to answer your questions.	62858550	1473540768972	1473540769070	s	83
121723	1322154	Tiger Woods is set to answer your questions.	Tiger Woods is set to answer your questions.	62858552	1473540769090	1473540769200	 	32
121723	1322154	Tiger Woods is set to answer your questions.	Tiger Woods is set to answer your questions.	62858554	1473540769430	1473540769555	s	83
121723	1322154	Tiger Woods is set to answer your questions.	Tiger Woods is set to answer your questions.	62858574	1473540769640	1473540769757	e	69
121723	1322154	Tiger Woods is set to answer your questions.	Tiger Woods is set to answer your questions.	62858575	1473540769847	1473540769990	t	84
121723	1322154	Tiger Woods is set to answer your questions.	Tiger Woods is set to answer your questions.	62858577	1473540769990	1473540770092	 	32
121723	1322154	Tiger Woods is set to answer your questions.	Tiger Woods is set to answer your questions.	62858579	1473540770282	1473540770392	t	84
121723	1322154	Tiger Woods is set to answer your questions.	Tiger Woods is set to answer your questions.	62858582	1473540770422	1473540770565	o	79
121723	1322154	Tiger Woods is set to answer your questions.	Tiger Woods is set to answer your questions.	62858632	1473540770545	1473540770672	 	32
121723	1322154	Tiger Woods is set to answer your questions.	Tiger Woods is set to answer your questions.	62858634	1473540771222	1473540771335	a	65
121723	1322154	Tiger Woods is set to answer your questions.	Tiger Woods is set to answer your questions.	62858635	1473540771315	1473540771402	n	78
121723	1322154	Tiger Woods is set to answer your questions.	Tiger Woods is set to answer your questions.	62858637	1473540771902	1473540772032	s	83
121723	1322154	Tiger Woods is set to answer your questions.	Tiger Woods is set to answer your questions.	62858639	1473540771990	1473540772230	w	87
121723	1322154	Tiger Woods is set to answer your questions.	Tiger Woods is set to answer your questions.	62858661	1473540772150	1473540772305	e	69
121723	1322154	Tiger Woods is set to answer your questions.	Tiger Woods is set to answer your questions.	62858663	1473540772375	1473540772500	r	82
121723	1322154	Tiger Woods is set to answer your questions.	Tiger Woods is set to answer your questions.	62858664	1473540772612	1473540772720	 	32
121723	1322154	Tiger Woods is set to answer your questions.	Tiger Woods is set to answer your questions.	62858667	1473540772810	1473540772895	y	89
121723	1322154	Tiger Woods is set to answer your questions.	Tiger Woods is set to answer your questions.	62858669	1473540772927	1473540773085	o	79
121723	1322154	Tiger Woods is set to answer your questions.	Tiger Woods is set to answer your questions.	62858691	1473540773045	1473540773150	u	85
121723	1322154	Tiger Woods is set to answer your questions.	Tiger Woods is set to answer your questions.	62858693	1473540773200	1473540773300	r	82
121723	1322154	Tiger Woods is set to answer your questions.	Tiger Woods is set to answer your questions.	62858695	1473540773310	1473540773435	 	32
121723	1322154	Tiger Woods is set to answer your questions.	Tiger Woods is set to answer your questions.	62858697	1473540773797	1473540773902	q	81
121723	1322154	Tiger Woods is set to answer your questions.	Tiger Woods is set to answer your questions.	62858699	1473540773882	1473540773992	u	85
121723	1322154	Tiger Woods is set to answer your questions.	Tiger Woods is set to answer your questions.	62858700	1473540774082	1473540774192	e	69
121723	1322154	Tiger Woods is set to answer your questions.	Tiger Woods is set to answer your questions.	62858713	1473540774267	1473540774362	s	83
121723	1322154	Tiger Woods is set to answer your questions.	Tiger Woods is set to answer your questions.	62858715	1473540774552	1473540774620	t	84
121723	1322154	Tiger Woods is set to answer your questions.	Tiger Woods is set to answer your questions.	62858720	1473540774667	1473540774815	i	73
121723	1322154	Tiger Woods is set to answer your questions.	Tiger Woods is set to answer your questions.	62858723	1473540774787	1473540774937	o	79
121723	1322154	Tiger Woods is set to answer your questions.	Tiger Woods is set to answer your questions.	62858726	1473540775027	1473540775075	n	78
121723	1322154	Tiger Woods is set to answer your questions.	Tiger Woods is set to answer your questions.	62858787	1473540775465	1473540775560	s	83
121723	1322154	Tiger Woods is set to answer your questions.	Tiger Woods is set to answer your questions.	62858789	1473540775550	1473540775625	/	191
121723	1322154	Tiger Woods is set to answer your questions.	Tiger Woods is set to answer your questions.	62858794	1473540776510	1473540776595	BKSP	8
121723	1322164	I hope you are feeling better.	I hope you are feeling better.	62858996	1473540781710	1473540781967	SHIFT	16
121723	1322164	I hope you are feeling better.	I hope you are feeling better.	62858998	1473540781900	1473540781987	I	73
121723	1322164	I hope you are feeling better.	I hope you are feeling better.	62859000	1473540782097	1473540782187	 	32
121723	1322164	I hope you are feeling better.	I hope you are feeling better.	62859001	1473540782317	1473540782410	h	72
121723	1322164	I hope you are feeling better.	I hope you are feeling better.	62859002	1473540782437	1473540782577	o	79
121723	1322164	I hope you are feeling better.	I hope you are feeling better.	62859006	1473540782510	1473540782640	p	80
121723	1322164	I hope you are feeling better.	I hope you are feeling better.	62859008	1473540782702	1473540782785	e	69
121723	1322164	I hope you are feeling better.	I hope you are feeling better.	62859014	1473540782835	1473540782930	 	32
121723	1322164	I hope you are feeling better.	I hope you are feeling better.	62859017	1473540783050	1473540783140	y	89
121723	1322164	I hope you are feeling better.	I hope you are feeling better.	62859021	1473540783150	1473540783270	o	79
121723	1322164	I hope you are feeling better.	I hope you are feeling better.	62859023	1473540783330	1473540783490	u	85
121723	1322164	I hope you are feeling better.	I hope you are feeling better.	62859029	1473540783450	1473540783575	 	32
121723	1322164	I hope you are feeling better.	I hope you are feeling better.	62859031	1473540783630	1473540783735	a	65
121723	1322164	I hope you are feeling better.	I hope you are feeling better.	62859035	1473540783745	1473540783825	r	82
121723	1322164	I hope you are feeling better.	I hope you are feeling better.	62859038	1473540783865	1473540783965	e	69
121723	1322164	I hope you are feeling better.	I hope you are feeling better.	62859041	1473540783975	1473540784087	 	32
121723	1322164	I hope you are feeling better.	I hope you are feeling better.	62859045	1473540784087	1473540784182	f	70
121723	1322164	I hope you are feeling better.	I hope you are feeling better.	62859055	1473540784307	1473540784372	e	69
121723	1322164	I hope you are feeling better.	I hope you are feeling better.	62859056	1473540784452	1473540784537	e	69
121723	1322164	I hope you are feeling better.	I hope you are feeling better.	62859057	1473540784610	1473540784717	l	76
121723	1322164	I hope you are feeling better.	I hope you are feeling better.	62859058	1473540784837	1473540784927	i	73
121723	1322164	I hope you are feeling better.	I hope you are feeling better.	62859060	1473540785015	1473540785107	n	78
121723	1322164	I hope you are feeling better.	I hope you are feeling better.	62859076	1473540785160	1473540785257	g	71
121723	1322164	I hope you are feeling better.	I hope you are feeling better.	62859078	1473540785287	1473540785382	 	32
121723	1322164	I hope you are feeling better.	I hope you are feeling better.	62859080	1473540785552	1473540785647	b	66
121723	1322164	I hope you are feeling better.	I hope you are feeling better.	62859083	1473540785667	1473540785767	e	69
121723	1322164	I hope you are feeling better.	I hope you are feeling better.	62859087	1473540785787	1473540785852	t	84
121723	1322164	I hope you are feeling better.	I hope you are feeling better.	62859128	1473540785897	1473540785975	t	84
121723	1322164	I hope you are feeling better.	I hope you are feeling better.	62859129	1473540785977	1473540786082	e	69
121723	1322164	I hope you are feeling better.	I hope you are feeling better.	62859130	1473540786695	1473540786800	r	82
121723	1322175	I was going to call you but I hate to bother your holiday.	I was going to call you but i hate to bother your holiday.	62859368	1473540793038	1473540793248	SHIFT	16
121723	1322175	I was going to call you but I hate to bother your holiday.	I was going to call you but i hate to bother your holiday.	62859370	1473540793198	1473540793333	I	73
121723	1322175	I was going to call you but I hate to bother your holiday.	I was going to call you but i hate to bother your holiday.	62859374	1473540793293	1473540793388	 	32
121723	1322175	I was going to call you but I hate to bother your holiday.	I was going to call you but i hate to bother your holiday.	62859376	1473540793548	1473540793646	w	87
121723	1322175	I was going to call you but I hate to bother your holiday.	I was going to call you but i hate to bother your holiday.	62859381	1473540793766	1473540793961	a	65
121723	1322175	I was going to call you but I hate to bother your holiday.	I was going to call you but i hate to bother your holiday.	62859406	1473540793901	1473540794041	s	83
121723	1322175	I was going to call you but I hate to bother your holiday.	I was going to call you but i hate to bother your holiday.	62859407	1473540794081	1473540794181	 	32
121723	1322175	I was going to call you but I hate to bother your holiday.	I was going to call you but i hate to bother your holiday.	62859409	1473540794281	1473540794376	g	71
121723	1322175	I was going to call you but I hate to bother your holiday.	I was going to call you but i hate to bother your holiday.	62859411	1473540794351	1473540794488	o	79
121723	1322175	I was going to call you but I hate to bother your holiday.	I was going to call you but i hate to bother your holiday.	62859414	1473540794446	1473540794603	i	73
121723	1322175	I was going to call you but I hate to bother your holiday.	I was going to call you but i hate to bother your holiday.	62859431	1473540794571	1473540794696	n	78
121723	1322175	I was going to call you but I hate to bother your holiday.	I was going to call you but i hate to bother your holiday.	62859433	1473540794756	1473540794846	g	71
121723	1322175	I was going to call you but I hate to bother your holiday.	I was going to call you but i hate to bother your holiday.	62859435	1473540794896	1473540794976	 	32
121723	1322175	I was going to call you but I hate to bother your holiday.	I was going to call you but i hate to bother your holiday.	62859437	1473540795016	1473540795126	t	84
121723	1322175	I was going to call you but I hate to bother your holiday.	I was going to call you but i hate to bother your holiday.	62859438	1473540795126	1473540795308	o	79
121723	1322175	I was going to call you but I hate to bother your holiday.	I was going to call you but i hate to bother your holiday.	62859453	1473540795281	1473540795391	 	32
121723	1322175	I was going to call you but I hate to bother your holiday.	I was going to call you but i hate to bother your holiday.	62859455	1473540795683	1473540795798	c	67
121723	1322175	I was going to call you but I hate to bother your holiday.	I was going to call you but i hate to bother your holiday.	62859457	1473540795788	1473540795934	a	65
121723	1322175	I was going to call you but I hate to bother your holiday.	I was going to call you but i hate to bother your holiday.	62859460	1473540795984	1473540796064	l	76
121723	1322175	I was going to call you but I hate to bother your holiday.	I was going to call you but i hate to bother your holiday.	62859462	1473540796114	1473540796209	l	76
121723	1322175	I was going to call you but I hate to bother your holiday.	I was going to call you but i hate to bother your holiday.	62859464	1473540796259	1473540796364	 	32
121723	1322175	I was going to call you but I hate to bother your holiday.	I was going to call you but i hate to bother your holiday.	62859469	1473540796409	1473540796504	y	89
121723	1322175	I was going to call you but I hate to bother your holiday.	I was going to call you but i hate to bother your holiday.	62859471	1473540796524	1473540796669	o	79
121723	1322175	I was going to call you but I hate to bother your holiday.	I was going to call you but i hate to bother your holiday.	62859474	1473540796644	1473540796754	u	85
121723	1322175	I was going to call you but I hate to bother your holiday.	I was going to call you but i hate to bother your holiday.	62859477	1473540796729	1473540796854	 	32
121723	1322175	I was going to call you but I hate to bother your holiday.	I was going to call you but i hate to bother your holiday.	62859481	1473540796984	1473540797049	b	66
121723	1322175	I was going to call you but I hate to bother your holiday.	I was going to call you but i hate to bother your holiday.	62859514	1473540797069	1473540797171	u	85
121723	1322175	I was going to call you but I hate to bother your holiday.	I was going to call you but i hate to bother your holiday.	62859516	1473540797281	1473540797366	t	84
121723	1322175	I was going to call you but I hate to bother your holiday.	I was going to call you but i hate to bother your holiday.	62859519	1473540797426	1473540797516	 	32
121723	1322175	I was going to call you but I hate to bother your holiday.	I was going to call you but i hate to bother your holiday.	62859521	1473540797784	1473540797896	i	73
121723	1322175	I was going to call you but I hate to bother your holiday.	I was going to call you but i hate to bother your holiday.	62859551	1473540797896	1473540798006	 	32
121723	1322175	I was going to call you but I hate to bother your holiday.	I was going to call you but i hate to bother your holiday.	62859552	1473540798146	1473540798236	h	72
121723	1322175	I was going to call you but I hate to bother your holiday.	I was going to call you but i hate to bother your holiday.	62859553	1473540798316	1473540798426	a	65
121723	1322175	I was going to call you but I hate to bother your holiday.	I was going to call you but i hate to bother your holiday.	62859554	1473540798436	1473540798516	t	84
121723	1322175	I was going to call you but I hate to bother your holiday.	I was going to call you but i hate to bother your holiday.	62859555	1473540798556	1473540798674	e	69
121723	1322175	I was going to call you but I hate to bother your holiday.	I was going to call you but i hate to bother your holiday.	62859556	1473540798714	1473540798816	 	32
121723	1322175	I was going to call you but I hate to bother your holiday.	I was going to call you but i hate to bother your holiday.	62859578	1473540798889	1473540798979	t	84
121723	1322175	I was going to call you but I hate to bother your holiday.	I was going to call you but i hate to bother your holiday.	62859580	1473540799029	1473540799169	o	79
121723	1322175	I was going to call you but I hate to bother your holiday.	I was going to call you but i hate to bother your holiday.	62859583	1473540799379	1473540799514	 	32
121723	1322175	I was going to call you but I hate to bother your holiday.	I was going to call you but i hate to bother your holiday.	62859586	1473540799644	1473540799719	b	66
121723	1322175	I was going to call you but I hate to bother your holiday.	I was going to call you but i hate to bother your holiday.	62859588	1473540799809	1473540799904	o	79
121723	1322175	I was going to call you but I hate to bother your holiday.	I was going to call you but i hate to bother your holiday.	62859612	1473540799989	1473540800089	t	84
121723	1322175	I was going to call you but I hate to bother your holiday.	I was going to call you but i hate to bother your holiday.	62859616	1473540800179	1473540800274	h	72
121723	1322175	I was going to call you but I hate to bother your holiday.	I was going to call you but i hate to bother your holiday.	62859623	1473540800374	1473540800531	e	69
121723	1322175	I was going to call you but I hate to bother your holiday.	I was going to call you but i hate to bother your holiday.	62859628	1473540800474	1473540800629	r	82
121723	1322175	I was going to call you but I hate to bother your holiday.	I was going to call you but i hate to bother your holiday.	62859632	1473540800661	1473540800756	 	32
121723	1322175	I was going to call you but I hate to bother your holiday.	I was going to call you but i hate to bother your holiday.	62859643	1473540800839	1473540800926	y	89
121723	1322175	I was going to call you but I hate to bother your holiday.	I was going to call you but i hate to bother your holiday.	62859646	1473540800936	1473540801086	o	79
121723	1322175	I was going to call you but I hate to bother your holiday.	I was going to call you but i hate to bother your holiday.	62859649	1473540801076	1473540801136	u	85
121723	1322175	I was going to call you but I hate to bother your holiday.	I was going to call you but i hate to bother your holiday.	62859651	1473540801226	1473540801316	r	82
121723	1322175	I was going to call you but I hate to bother your holiday.	I was going to call you but i hate to bother your holiday.	62859654	1473540801346	1473540801456	 	32
121723	1322175	I was going to call you but I hate to bother your holiday.	I was going to call you but i hate to bother your holiday.	62859696	1473540801509	1473540801616	h	72
121723	1322175	I was going to call you but I hate to bother your holiday.	I was going to call you but i hate to bother your holiday.	62859698	1473540801814	1473540801886	o	79
121723	1322175	I was going to call you but I hate to bother your holiday.	I was going to call you but i hate to bother your holiday.	62859700	1473540801976	1473540802046	l	76
121723	1322175	I was going to call you but I hate to bother your holiday.	I was going to call you but i hate to bother your holiday.	62859701	1473540802136	1473540802206	i	73
121723	1322175	I was going to call you but I hate to bother your holiday.	I was going to call you but i hate to bother your holiday.	62859702	1473540802316	1473540802426	d	68
121723	1322175	I was going to call you but I hate to bother your holiday.	I was going to call you but i hate to bother your holiday.	62859718	1473540802501	1473540802639	a	65
121723	1322175	I was going to call you but I hate to bother your holiday.	I was going to call you but i hate to bother your holiday.	62859719	1473540802629	1473540802716	y	89
121723	1322175	I was going to call you but I hate to bother your holiday.	I was going to call you but i hate to bother your holiday.	62859720	1473540803156	1473540803234	.	190
121723	1322185	It's a shame to have to miss one or the other.	It's a shame to have to miss one or the othter.	62860063	1473540811259	1473540811749	SHIFT	16
121723	1322185	It's a shame to have to miss one or the other.	It's a shame to have to miss one or the othter.	62860060	1473540811654	1473540811734	I	73
121723	1322185	It's a shame to have to miss one or the other.	It's a shame to have to miss one or the othter.	62860067	1473540812146	1473540812246	t	84
121723	1322185	It's a shame to have to miss one or the other.	It's a shame to have to miss one or the othter.	62860071	1473540812386	1473540812501	'	222
121723	1322185	It's a shame to have to miss one or the other.	It's a shame to have to miss one or the othter.	62860076	1473540813236	1473540813351	s	83
121723	1322185	It's a shame to have to miss one or the other.	It's a shame to have to miss one or the othter.	62860080	1473540813381	1473540813476	 	32
121723	1322185	It's a shame to have to miss one or the other.	It's a shame to have to miss one or the othter.	62860117	1473540813594	1473540813714	a	65
121723	1322185	It's a shame to have to miss one or the other.	It's a shame to have to miss one or the othter.	62860120	1473540813704	1473540813809	 	32
121723	1322185	It's a shame to have to miss one or the other.	It's a shame to have to miss one or the othter.	62860123	1473540814474	1473540814599	s	83
121723	1322185	It's a shame to have to miss one or the other.	It's a shame to have to miss one or the othter.	62860126	1473540814609	1473540814714	h	72
121723	1322185	It's a shame to have to miss one or the other.	It's a shame to have to miss one or the othter.	62860129	1473540814744	1473540814879	a	65
121723	1322185	It's a shame to have to miss one or the other.	It's a shame to have to miss one or the othter.	62860136	1473540814944	1473540815059	m	77
121723	1322185	It's a shame to have to miss one or the other.	It's a shame to have to miss one or the othter.	62860137	1473540815109	1473540815229	e	69
121723	1322185	It's a shame to have to miss one or the other.	It's a shame to have to miss one or the othter.	62860138	1473540815249	1473540815349	 	32
121723	1322185	It's a shame to have to miss one or the other.	It's a shame to have to miss one or the othter.	62860140	1473540815409	1473540815489	t	84
121723	1322185	It's a shame to have to miss one or the other.	It's a shame to have to miss one or the othter.	62860142	1473540815571	1473540815679	o	79
121723	1322185	It's a shame to have to miss one or the other.	It's a shame to have to miss one or the othter.	62860197	1473540815646	1473540815749	 	32
121723	1322185	It's a shame to have to miss one or the other.	It's a shame to have to miss one or the othter.	62860199	1473540815859	1473540815941	h	72
121723	1322185	It's a shame to have to miss one or the other.	It's a shame to have to miss one or the othter.	62860201	1473540815991	1473540816141	a	65
121723	1322185	It's a shame to have to miss one or the other.	It's a shame to have to miss one or the othter.	62860202	1473540816234	1473540816336	d	68
121723	1322185	It's a shame to have to miss one or the other.	It's a shame to have to miss one or the othter.	62860203	1473540816796	1473540816896	BKSP	8
121723	1322185	It's a shame to have to miss one or the other.	It's a shame to have to miss one or the othter.	62860205	1473540817066	1473540817206	v	86
121723	1322185	It's a shame to have to miss one or the other.	It's a shame to have to miss one or the othter.	62860240	1473540817161	1473540817296	e	69
121723	1322185	It's a shame to have to miss one or the other.	It's a shame to have to miss one or the othter.	62860241	1473540817306	1473540817401	 	32
121723	1322185	It's a shame to have to miss one or the other.	It's a shame to have to miss one or the othter.	62860243	1473540817451	1473540817554	t	84
121723	1322185	It's a shame to have to miss one or the other.	It's a shame to have to miss one or the othter.	62860245	1473540817544	1473540817694	o	79
121723	1322185	It's a shame to have to miss one or the other.	It's a shame to have to miss one or the othter.	62860248	1473540817669	1473540817776	 	32
121723	1322185	It's a shame to have to miss one or the other.	It's a shame to have to miss one or the othter.	62860250	1473540817844	1473540818039	m	77
121723	1322185	It's a shame to have to miss one or the other.	It's a shame to have to miss one or the othter.	62860290	1473540817999	1473540818104	i	73
121723	1322185	It's a shame to have to miss one or the other.	It's a shame to have to miss one or the othter.	62860293	1473540818164	1473540818224	s	83
121723	1322185	It's a shame to have to miss one or the other.	It's a shame to have to miss one or the othter.	62860296	1473540818284	1473540818374	s	83
121723	1322185	It's a shame to have to miss one or the other.	It's a shame to have to miss one or the othter.	62860300	1473540818704	1473540818794	 	32
121723	1322185	It's a shame to have to miss one or the other.	It's a shame to have to miss one or the othter.	62860303	1473540818946	1473540819056	o	79
121723	1322185	It's a shame to have to miss one or the other.	It's a shame to have to miss one or the othter.	62860307	1473540819146	1473540819241	n	78
121723	1322185	It's a shame to have to miss one or the other.	It's a shame to have to miss one or the othter.	62860317	1473540819326	1473540819431	e	69
121723	1322185	It's a shame to have to miss one or the other.	It's a shame to have to miss one or the othter.	62860319	1473540819441	1473540819541	 	32
121723	1322185	It's a shame to have to miss one or the other.	It's a shame to have to miss one or the othter.	62860321	1473540819591	1473540819681	o	79
121723	1322185	It's a shame to have to miss one or the other.	It's a shame to have to miss one or the othter.	62860323	1473540819731	1473540819846	r	82
121723	1322185	It's a shame to have to miss one or the other.	It's a shame to have to miss one or the othter.	62860346	1473540819826	1473540819941	 	32
121723	1322185	It's a shame to have to miss one or the other.	It's a shame to have to miss one or the othter.	62860351	1473540819971	1473540820076	t	84
121723	1322185	It's a shame to have to miss one or the other.	It's a shame to have to miss one or the othter.	62860355	1473540820066	1473540820151	h	72
121723	1322185	It's a shame to have to miss one or the other.	It's a shame to have to miss one or the othter.	62860360	1473540820231	1473540820331	e	69
121723	1322185	It's a shame to have to miss one or the other.	It's a shame to have to miss one or the othter.	62860365	1473540820319	1473540820411	 	32
121723	1322185	It's a shame to have to miss one or the other.	It's a shame to have to miss one or the othter.	62860370	1473540820441	1473540820556	p	80
121723	1322185	It's a shame to have to miss one or the other.	It's a shame to have to miss one or the othter.	62860466	1473540821219	1473540821314	BKSP	8
121723	1322185	It's a shame to have to miss one or the other.	It's a shame to have to miss one or the othter.	62860468	1473540821614	1473540821679	o	79
121723	1322185	It's a shame to have to miss one or the other.	It's a shame to have to miss one or the othter.	62860471	1473540821844	1473540821944	t	84
121723	1322185	It's a shame to have to miss one or the other.	It's a shame to have to miss one or the othter.	62860473	1473540822769	1473540822854	h	72
121723	1322185	It's a shame to have to miss one or the other.	It's a shame to have to miss one or the othter.	62860476	1473540822924	1473540822986	t	84
121723	1322185	It's a shame to have to miss one or the other.	It's a shame to have to miss one or the othter.	62860481	1473540823126	1473540823266	e	69
121723	1322185	It's a shame to have to miss one or the other.	It's a shame to have to miss one or the othter.	62860497	1473540823201	1473540823341	r	82
121723	1322185	It's a shame to have to miss one or the other.	It's a shame to have to miss one or the othter.	62860499	1473540823846	1473540823966	.	190
121723	1322203	The children will entertain you while you wait.	The children with entertain you while you wait.	62860752	1473540829542	1473540829790	SHIFT	16
121723	1322203	The children will entertain you while you wait.	The children with entertain you while you wait.	62860755	1473540829725	1473540829810	T	84
121723	1322203	The children will entertain you while you wait.	The children with entertain you while you wait.	62860757	1473540829935	1473540830010	h	72
121723	1322203	The children will entertain you while you wait.	The children with entertain you while you wait.	62860759	1473540830090	1473540830210	e	69
121723	1322203	The children will entertain you while you wait.	The children with entertain you while you wait.	62860763	1473540830210	1473540830325	 	32
121723	1322203	The children will entertain you while you wait.	The children with entertain you while you wait.	62860766	1473540830475	1473540830590	c	67
121723	1322203	The children will entertain you while you wait.	The children with entertain you while you wait.	62860804	1473540830580	1473540830660	h	72
121723	1322203	The children will entertain you while you wait.	The children with entertain you while you wait.	62860807	1473540830750	1473540830837	i	73
121723	1322203	The children will entertain you while you wait.	The children with entertain you while you wait.	62860813	1473540830925	1473540831012	l	76
121723	1322203	The children will entertain you while you wait.	The children with entertain you while you wait.	62860819	1473540831092	1473540831167	d	68
121723	1322203	The children will entertain you while you wait.	The children with entertain you while you wait.	62860824	1473540831317	1473540831427	r	82
121723	1322203	The children will entertain you while you wait.	The children with entertain you while you wait.	62860827	1473540831747	1473540831832	e	69
121723	1322203	The children will entertain you while you wait.	The children with entertain you while you wait.	62860853	1473540831965	1473540832102	n	78
121723	1322203	The children will entertain you while you wait.	The children with entertain you while you wait.	62860855	1473540832102	1473540832207	 	32
121723	1322203	The children will entertain you while you wait.	The children with entertain you while you wait.	62860861	1473540832347	1473540832467	w	87
121723	1322203	The children will entertain you while you wait.	The children with entertain you while you wait.	62860868	1473540832477	1473540832570	i	73
121723	1322203	The children will entertain you while you wait.	The children with entertain you while you wait.	62860873	1473540832650	1473540832757	t	84
121723	1322203	The children will entertain you while you wait.	The children with entertain you while you wait.	62860910	1473540832757	1473540832912	h	72
121723	1322203	The children will entertain you while you wait.	The children with entertain you while you wait.	62860914	1473540832900	1473540833030	 	32
121723	1322203	The children will entertain you while you wait.	The children with entertain you while you wait.	62860920	1473540833120	1473540833215	e	69
121723	1322203	The children will entertain you while you wait.	The children with entertain you while you wait.	62860924	1473540833225	1473540833342	n	78
121723	1322203	The children will entertain you while you wait.	The children with entertain you while you wait.	62860928	1473540833462	1473540833550	t	84
121723	1322203	The children will entertain you while you wait.	The children with entertain you while you wait.	62860931	1473540833660	1473540833825	e	69
121723	1322203	The children will entertain you while you wait.	The children with entertain you while you wait.	62860945	1473540833785	1473540833905	r	82
121723	1322203	The children will entertain you while you wait.	The children with entertain you while you wait.	62860948	1473540834070	1473540834165	t	84
121723	1322203	The children will entertain you while you wait.	The children with entertain you while you wait.	62860952	1473540834395	1473540834465	a	65
121723	1322203	The children will entertain you while you wait.	The children with entertain you while you wait.	62860957	1473540834475	1473540834570	i	73
121723	1322203	The children will entertain you while you wait.	The children with entertain you while you wait.	62860959	1473540834740	1473540834837	n	78
121723	1322203	The children will entertain you while you wait.	The children with entertain you while you wait.	62860985	1473540834817	1473540834922	 	32
121723	1322203	The children will entertain you while you wait.	The children with entertain you while you wait.	62860989	1473540834965	1473540835054	y	89
121723	1322203	The children will entertain you while you wait.	The children with entertain you while you wait.	62860993	1473540835044	1473540835202	o	79
121723	1322203	The children will entertain you while you wait.	The children with entertain you while you wait.	62860996	1473540835172	1473540835312	u	85
121723	1322203	The children will entertain you while you wait.	The children with entertain you while you wait.	62860999	1473540835282	1473540835387	 	32
121723	1322203	The children will entertain you while you wait.	The children with entertain you while you wait.	62861003	1473540835507	1473540835592	w	87
121723	1322203	The children will entertain you while you wait.	The children with entertain you while you wait.	62861033	1473540835617	1473540835702	h	72
121723	1322203	The children will entertain you while you wait.	The children with entertain you while you wait.	62861036	1473540835782	1473540835842	i	73
121723	1322203	The children will entertain you while you wait.	The children with entertain you while you wait.	62861041	1473540835922	1473540835994	l	76
121723	1322203	The children will entertain you while you wait.	The children with entertain you while you wait.	62861044	1473540836292	1473540836404	e	69
121723	1322203	The children will entertain you while you wait.	The children with entertain you while you wait.	62861049	1473540836424	1473540836519	 	32
121723	1322203	The children will entertain you while you wait.	The children with entertain you while you wait.	62861076	1473540836634	1473540836724	y	89
121723	1322203	The children will entertain you while you wait.	The children with entertain you while you wait.	62861079	1473540836734	1473540836904	o	79
121723	1322203	The children will entertain you while you wait.	The children with entertain you while you wait.	62861080	1473540836864	1473540837007	u	85
121723	1322203	The children will entertain you while you wait.	The children with entertain you while you wait.	62861081	1473540836969	1473540837094	 	32
121723	1322203	The children will entertain you while you wait.	The children with entertain you while you wait.	62861082	1473540837144	1473540837244	w	87
121723	1322203	The children will entertain you while you wait.	The children with entertain you while you wait.	62861097	1473540837329	1473540837449	a	65
121723	1322203	The children will entertain you while you wait.	The children with entertain you while you wait.	62861101	1473540837569	1473540837669	i	73
121723	1322203	The children will entertain you while you wait.	The children with entertain you while you wait.	62861102	1473540837804	1473540837909	t	84
121723	1322203	The children will entertain you while you wait.	The children with entertain you while you wait.	62861104	1473540837974	1473540838062	.	190
121723	1322216	Do we need to do anything here?	Do we need to do anythung here?	62861274	1473540841299	1473540841617	SHIFT	16
121723	1322216	Do we need to do anything here?	Do we need to do anythung here?	62861273	1473540841499	1473540841587	D	68
121723	1322216	Do we need to do anything here?	Do we need to do anythung here?	62861275	1473540841999	1473540842197	o	79
121723	1322216	Do we need to do anything here?	Do we need to do anythung here?	62861276	1473540842172	1473540842272	 	32
121723	1322216	Do we need to do anything here?	Do we need to do anythung here?	62861277	1473540842482	1473540842584	w	87
121723	1322216	Do we need to do anything here?	Do we need to do anythung here?	62861279	1473540842744	1473540842857	e	69
121723	1322216	Do we need to do anything here?	Do we need to do anythung here?	62861318	1473540842879	1473540842982	 	32
121723	1322216	Do we need to do anything here?	Do we need to do anythung here?	62861321	1473540843222	1473540843312	n	78
121723	1322216	Do we need to do anything here?	Do we need to do anythung here?	62861325	1473540843432	1473540843504	e	69
121723	1322216	Do we need to do anything here?	Do we need to do anythung here?	62861329	1473540843574	1473540843652	e	69
121723	1322216	Do we need to do anything here?	Do we need to do anythung here?	62861330	1473540843789	1473540843919	d	68
121723	1322216	Do we need to do anything here?	Do we need to do anythung here?	62861365	1473540843929	1473540844054	 	32
121723	1322216	Do we need to do anything here?	Do we need to do anythung here?	62861367	1473540844165	1473540844265	t	84
121723	1322216	Do we need to do anything here?	Do we need to do anythung here?	62861369	1473540844285	1473540844433	o	79
121723	1322216	Do we need to do anything here?	Do we need to do anythung here?	62861372	1473540844653	1473540844780	 	32
121723	1322216	Do we need to do anything here?	Do we need to do anythung here?	62861375	1473540844885	1473540844990	d	68
121723	1322216	Do we need to do anything here?	Do we need to do anythung here?	62861403	1473540844980	1473540845154	o	79
121723	1322216	Do we need to do anything here?	Do we need to do anythung here?	62861405	1473540845116	1473540845246	 	32
121723	1322216	Do we need to do anything here?	Do we need to do anythung here?	62861407	1473540845396	1473540845496	a	65
121723	1322216	Do we need to do anything here?	Do we need to do anythung here?	62861410	1473540845506	1473540845611	n	78
121723	1322216	Do we need to do anything here?	Do we need to do anythung here?	62861413	1473540845711	1473540845791	y	89
121723	1322216	Do we need to do anything here?	Do we need to do anythung here?	62861415	1473540845871	1473540845971	t	84
121723	1322216	Do we need to do anything here?	Do we need to do anythung here?	62861441	1473540845951	1473540846021	h	72
121723	1322216	Do we need to do anything here?	Do we need to do anythung here?	62861442	1473540846111	1473540846196	u	85
121723	1322216	Do we need to do anything here?	Do we need to do anythung here?	62861444	1473540846316	1473540846411	n	78
121723	1322216	Do we need to do anything here?	Do we need to do anythung here?	62861446	1473540846461	1473540846566	g	71
121723	1322216	Do we need to do anything here?	Do we need to do anythung here?	62861448	1473540846586	1473540846689	 	32
121723	1322216	Do we need to do anything here?	Do we need to do anythung here?	62861450	1473540847044	1473540847134	h	72
121723	1322216	Do we need to do anything here?	Do we need to do anythung here?	62861494	1473540847169	1473540847289	e	69
121723	1322216	Do we need to do anything here?	Do we need to do anythung here?	62861495	1473540847379	1473540847469	r	82
121723	1322216	Do we need to do anything here?	Do we need to do anythung here?	62861497	1473540847559	1473540847654	e	69
121723	1322216	Do we need to do anything here?	Do we need to do anythung here?	62861501	1473540848489	1473540848718	SHIFT	16
121723	1322216	Do we need to do anything here?	Do we need to do anythung here?	62861499	1473540848609	1473540848684	?	191
