PARTICIPANT_ID	TEST_SECTION_ID	SENTENCE	USER_INPUT	KEYSTROKE_ID	PRESS_TIME	RELEASE_TIME	LETTER	KEYCODE
122112	1326894	My comments are in fuschia.	My comments are in fuschia.	63087037	1473548692885	1473548693010	SHIFT	16
122112	1326894	My comments are in fuschia.	My comments are in fuschia.	63087040	1473548692932	1473548693087	M	77
122112	1326894	My comments are in fuschia.	My comments are in fuschia.	63087045	1473548693097	1473548693193	y	89
122112	1326894	My comments are in fuschia.	My comments are in fuschia.	63087049	1473548693210	1473548693316	 	32
122112	1326894	My comments are in fuschia.	My comments are in fuschia.	63087053	1473548693348	1473548693460	c	67
122112	1326894	My comments are in fuschia.	My comments are in fuschia.	63087090	1473548693386	1473548693465	o	79
122112	1326894	My comments are in fuschia.	My comments are in fuschia.	63087093	1473548693494	1473548693590	m	77
122112	1326894	My comments are in fuschia.	My comments are in fuschia.	63087097	1473548693629	1473548693711	m	77
122112	1326894	My comments are in fuschia.	My comments are in fuschia.	63087098	1473548693777	1473548693833	m	77
122112	1326894	My comments are in fuschia.	My comments are in fuschia.	63087101	1473548694106	1473548694179	BKSP	8
122112	1326894	My comments are in fuschia.	My comments are in fuschia.	63087104	1473548694212	1473548694313	e	69
122112	1326894	My comments are in fuschia.	My comments are in fuschia.	63087114	1473548694265	1473548694360	n	78
122112	1326894	My comments are in fuschia.	My comments are in fuschia.	63087116	1473548694355	1473548694542	t	84
122112	1326894	My comments are in fuschia.	My comments are in fuschia.	63087119	1473548694446	1473548694569	s	83
122112	1326894	My comments are in fuschia.	My comments are in fuschia.	63087124	1473548694548	1473548694672	 	32
122112	1326894	My comments are in fuschia.	My comments are in fuschia.	63087140	1473548694596	1473548694743	a	65
122112	1326894	My comments are in fuschia.	My comments are in fuschia.	63087142	1473548694666	1473548694829	r	82
122112	1326894	My comments are in fuschia.	My comments are in fuschia.	63087145	1473548694754	1473548694893	e	69
122112	1326894	My comments are in fuschia.	My comments are in fuschia.	63087147	1473548694809	1473548694898	 	32
122112	1326894	My comments are in fuschia.	My comments are in fuschia.	63087150	1473548694934	1473548695078	i	73
122112	1326894	My comments are in fuschia.	My comments are in fuschia.	63087152	1473548694976	1473548695083	n	78
122112	1326894	My comments are in fuschia.	My comments are in fuschia.	63087154	1473548695124	1473548695237	 	32
122112	1326894	My comments are in fuschia.	My comments are in fuschia.	63087171	1473548695215	1473548695311	f	70
122112	1326894	My comments are in fuschia.	My comments are in fuschia.	63087173	1473548695295	1473548695441	u	85
122112	1326894	My comments are in fuschia.	My comments are in fuschia.	63087175	1473548695554	1473548695693	c	67
122112	1326894	My comments are in fuschia.	My comments are in fuschia.	63087177	1473548695645	1473548695730	h	72
122112	1326894	My comments are in fuschia.	My comments are in fuschia.	63087179	1473548695925	1473548695989	BKSP	8
122112	1326894	My comments are in fuschia.	My comments are in fuschia.	63087182	1473548696024	1473548696088	BKSP	8
122112	1326894	My comments are in fuschia.	My comments are in fuschia.	63087185	1473548696055	1473548696189	s	83
122112	1326894	My comments are in fuschia.	My comments are in fuschia.	63087188	1473548696200	1473548696328	c	67
122112	1326894	My comments are in fuschia.	My comments are in fuschia.	63087223	1473548696276	1473548696413	h	72
122112	1326894	My comments are in fuschia.	My comments are in fuschia.	63087228	1473548696341	1473548696456	i	73
122112	1326894	My comments are in fuschia.	My comments are in fuschia.	63087233	1473548696419	1473548696563	a	65
122112	1326894	My comments are in fuschia.	My comments are in fuschia.	63087238	1473548696596	1473548696672	.	190
122112	1326894	My comments are in fuschia.	My comments are in fuschia.	63087242	1473548696755	1473548696819	 	32
122112	1326894	My comments are in fuschia.	My comments are in fuschia.	63087245	1473548697169	1473548697254	BKSP	8
122112	1326898	You have a lot of holes in your plan.	You have a lot of holes in your plan.	63087285	1473548699503	1473548699638	SHIFT	16
122112	1326898	You have a lot of holes in your plan.	You have a lot of holes in your plan.	63087286	1473548699584	1473548699727	M	77
122112	1326898	You have a lot of holes in your plan.	You have a lot of holes in your plan.	63087287	1473548699988	1473548700058	BKSP	8
122112	1326898	You have a lot of holes in your plan.	You have a lot of holes in your plan.	63087288	1473548700099	1473548700227	SHIFT	16
122112	1326898	You have a lot of holes in your plan.	You have a lot of holes in your plan.	63087289	1473548700200	1473548700292	Y	89
122112	1326898	You have a lot of holes in your plan.	You have a lot of holes in your plan.	63087291	1473548700342	1473548700480	o	79
122112	1326898	You have a lot of holes in your plan.	You have a lot of holes in your plan.	63087295	1473548700410	1473548700512	u	85
122112	1326898	You have a lot of holes in your plan.	You have a lot of holes in your plan.	63087299	1473548700570	1473548700654	 	32
122112	1326898	You have a lot of holes in your plan.	You have a lot of holes in your plan.	63087294	1473548700701	1473548700847	a	72
122112	1326898	You have a lot of holes in your plan.	You have a lot of holes in your plan.	63087298	1473548700828	1473548700901	e	86
122112	1326898	You have a lot of holes in your plan.	You have a lot of holes in your plan.	63087321	1473548700912	1473548700986	 	32
122112	1326898	You have a lot of holes in your plan.	You have a lot of holes in your plan.	63087324	1473548700976	1473548701125	a	65
122112	1326898	You have a lot of holes in your plan.	You have a lot of holes in your plan.	63087327	1473548701061	1473548701158	 	32
122112	1326898	You have a lot of holes in your plan.	You have a lot of holes in your plan.	63087330	1473548701197	1473548701266	l	76
122112	1326898	You have a lot of holes in your plan.	You have a lot of holes in your plan.	63087333	1473548701310	1473548701437	o	79
122112	1326898	You have a lot of holes in your plan.	You have a lot of holes in your plan.	63087348	1473548701351	1473548701463	t	84
122112	1326898	You have a lot of holes in your plan.	You have a lot of holes in your plan.	63087351	1473548701609	1473548701699	 	32
122112	1326898	You have a lot of holes in your plan.	You have a lot of holes in your plan.	63087354	1473548701728	1473548701810	o	79
122112	1326898	You have a lot of holes in your plan.	You have a lot of holes in your plan.	63087357	1473548701819	1473548701926	f	70
122112	1326898	You have a lot of holes in your plan.	You have a lot of holes in your plan.	63087359	1473548701906	1473548702001	 	32
122112	1326898	You have a lot of holes in your plan.	You have a lot of holes in your plan.	63087361	1473548702075	1473548702186	h	72
122112	1326898	You have a lot of holes in your plan.	You have a lot of holes in your plan.	63087374	1473548702117	1473548702196	o	79
122112	1326898	You have a lot of holes in your plan.	You have a lot of holes in your plan.	63087377	1473548702255	1473548702351	l	76
122112	1326898	You have a lot of holes in your plan.	You have a lot of holes in your plan.	63087379	1473548702319	1473548702457	e	69
122112	1326898	You have a lot of holes in your plan.	You have a lot of holes in your plan.	63087381	1473548702356	1473548702511	s	83
122112	1326898	You have a lot of holes in your plan.	You have a lot of holes in your plan.	63087385	1473548702436	1473548702516	 	32
122112	1326898	You have a lot of holes in your plan.	You have a lot of holes in your plan.	63087390	1473548702550	1473548702678	i	73
122112	1326898	You have a lot of holes in your plan.	You have a lot of holes in your plan.	63087400	1473548702603	1473548702701	n	78
122112	1326898	You have a lot of holes in your plan.	You have a lot of holes in your plan.	63087404	1473548702742	1473548702830	 	32
122112	1326898	You have a lot of holes in your plan.	You have a lot of holes in your plan.	63087407	1473548702922	1473548703004	y	89
122112	1326898	You have a lot of holes in your plan.	You have a lot of holes in your plan.	63087410	1473548702965	1473548703110	o	79
122112	1326898	You have a lot of holes in your plan.	You have a lot of holes in your plan.	63087411	1473548703052	1473548703142	u	85
122112	1326898	You have a lot of holes in your plan.	You have a lot of holes in your plan.	63087415	1473548703126	1473548703223	r	82
122112	1326898	You have a lot of holes in your plan.	You have a lot of holes in your plan.	63087418	1473548703218	1473548703297	 	32
122112	1326898	You have a lot of holes in your plan.	You have a lot of holes in your plan.	63087422	1473548703346	1473548703509	p	80
122112	1326898	You have a lot of holes in your plan.	You have a lot of holes in your plan.	63087425	1473548703447	1473548703554	l	76
122112	1326898	You have a lot of holes in your plan.	You have a lot of holes in your plan.	63087426	1473548703559	1473548703693	a	65
122112	1326898	You have a lot of holes in your plan.	You have a lot of holes in your plan.	63087429	1473548703642	1473548703730	n	78
122112	1326898	You have a lot of holes in your plan.	You have a lot of holes in your plan.	63087430	1473548703875	1473548703941	.	190
122112	1326906	Try it again and let me know.	Try is again and let me know.	63087520	1473548705606	1473548705767	SHIFT	16
122112	1326906	Try it again and let me know.	Try is again and let me know.	63087524	1473548705721	1473548705790	T	84
122112	1326906	Try it again and let me know.	Try is again and let me know.	63087530	1473548705859	1473548705998	r	82
122112	1326906	Try it again and let me know.	Try is again and let me know.	63087532	1473548705941	1473548706030	y	89
122112	1326906	Try it again and let me know.	Try is again and let me know.	63087534	1473548706109	1473548706179	 	32
122112	1326906	Try it again and let me know.	Try is again and let me know.	63087536	1473548706195	1473548706296	i	73
122112	1326906	Try it again and let me know.	Try is again and let me know.	63087552	1473548706249	1473548706373	s	83
122112	1326906	Try it again and let me know.	Try is again and let me know.	63087556	1473548706350	1473548706430	 	32
122112	1326906	Try it again and let me know.	Try is again and let me know.	63087562	1473548706479	1473548706609	g	71
122112	1326906	Try it again and let me know.	Try is again and let me know.	63087566	1473548706560	1473548706725	a	65
122112	1326906	Try it again and let me know.	Try is again and let me know.	63087568	1473548706889	1473548706961	BKSP	8
122112	1326906	Try it again and let me know.	Try is again and let me know.	63087569	1473548706986	1473548707051	BKSP	8
122112	1326906	Try it again and let me know.	Try is again and let me know.	63087572	1473548707030	1473548707146	a	65
122112	1326906	Try it again and let me know.	Try is again and let me know.	63087583	1473548707131	1473548707254	g	71
122112	1326906	Try it again and let me know.	Try is again and let me know.	63087585	1473548707222	1473548707350	a	65
122112	1326906	Try it again and let me know.	Try is again and let me know.	63087588	1473548707275	1473548707414	i	73
122112	1326906	Try it again and let me know.	Try is again and let me know.	63087591	1473548707323	1473548707425	n	78
122112	1326906	Try it again and let me know.	Try is again and let me know.	63087595	1473548707485	1473548707576	 	32
122112	1326906	Try it again and let me know.	Try is again and let me know.	63087606	1473548707573	1473548707758	a	65
122112	1326906	Try it again and let me know.	Try is again and let me know.	63087604	1473548707624	1473548707752	n	78
122112	1326906	Try it again and let me know.	Try is again and let me know.	63087608	1473548707725	1473548707843	d	68
122112	1326906	Try it again and let me know.	Try is again and let me know.	63087611	1473548707800	1473548707886	 	32
122112	1326906	Try it again and let me know.	Try is again and let me know.	63087615	1473548707912	1473548708045	l	76
122112	1326906	Try it again and let me know.	Try is again and let me know.	63087623	1473548707965	1473548708116	e	69
122112	1326906	Try it again and let me know.	Try is again and let me know.	63087625	1473548708077	1473548708200	t	84
122112	1326906	Try it again and let me know.	Try is again and let me know.	63087626	1473548708120	1473548708211	 	32
122112	1326906	Try it again and let me know.	Try is again and let me know.	63087627	1473548708249	1473548708345	m	77
122112	1326906	Try it again and let me know.	Try is again and let me know.	63087629	1473548708303	1473548708444	e	69
122112	1326906	Try it again and let me know.	Try is again and let me know.	63087641	1473548708426	1473548708522	 	32
122112	1326906	Try it again and let me know.	Try is again and let me know.	63087645	1473548708526	1473548708641	k	75
122112	1326906	Try it again and let me know.	Try is again and let me know.	63087647	1473548708623	1473548708774	n	78
122112	1326906	Try it again and let me know.	Try is again and let me know.	63087650	1473548708704	1473548708794	o	79
122112	1326906	Try it again and let me know.	Try is again and let me know.	63087652	1473548708778	1473548708908	w	87
122112	1326906	Try it again and let me know.	Try is again and let me know.	63087648	1473548708885	1473548708972	.	190
122112	1326910	I'm glad you are involved!	I'm glad you are involved!	63087732	1473548710626	1473548710801	SHIFT	16
122112	1326910	I'm glad you are involved!	I'm glad you are involved!	63087731	1473548710700	1473548710785	I	73
122112	1326910	I'm glad you are involved!	I'm glad you are involved!	63087734	1473548711257	1473548711331	'	222
122112	1326910	I'm glad you are involved!	I'm glad you are involved!	63087736	1473548711484	1473548711569	m	77
122112	1326910	I'm glad you are involved!	I'm glad you are involved!	63087738	1473548711625	1473548711731	 	32
122112	1326910	I'm glad you are involved!	I'm glad you are involved!	63087748	1473548711715	1473548711811	g	71
122112	1326910	I'm glad you are involved!	I'm glad you are involved!	63087752	1473548711779	1473548711887	l	76
122112	1326910	I'm glad you are involved!	I'm glad you are involved!	63087754	1473548711855	1473548712010	a	65
122112	1326910	I'm glad you are involved!	I'm glad you are involved!	63087758	1473548711945	1473548712089	d	68
122112	1326910	I'm glad you are involved!	I'm glad you are involved!	63087759	1473548711993	1473548712095	 	32
122112	1326910	I'm glad you are involved!	I'm glad you are involved!	63087763	1473548712182	1473548712275	y	89
122112	1326910	I'm glad you are involved!	I'm glad you are involved!	63087775	1473548712236	1473548712385	o	79
122112	1326910	I'm glad you are involved!	I'm glad you are involved!	63087778	1473548712332	1473548712429	u	85
122112	1326910	I'm glad you are involved!	I'm glad you are involved!	63087779	1473548712494	1473548712596	a	32
122112	1326910	I'm glad you are involved!	I'm glad you are involved!	63087781	1473548712569	1473548712724	r	82
122112	1326910	I'm glad you are involved!	I'm glad you are involved!	63087796	1473548712649	1473548712806	e	69
122112	1326910	I'm glad you are involved!	I'm glad you are involved!	63087798	1473548712719	1473548712815	 	32
122112	1326910	I'm glad you are involved!	I'm glad you are involved!	63087800	1473548712856	1473548713015	i	73
122112	1326910	I'm glad you are involved!	I'm glad you are involved!	63087803	1473548712907	1473548713046	n	78
122112	1326910	I'm glad you are involved!	I'm glad you are involved!	63087805	1473548713030	1473548713158	v	86
122112	1326910	I'm glad you are involved!	I'm glad you are involved!	63087809	1473548713084	1473548713180	o	79
122112	1326910	I'm glad you are involved!	I'm glad you are involved!	63087812	1473548713211	1473548713357	l	76
122112	1326910	I'm glad you are involved!	I'm glad you are involved!	63087821	1473548713409	1473548713515	v	86
122112	1326910	I'm glad you are involved!	I'm glad you are involved!	63087822	1473548713510	1473548713654	e	69
122112	1326910	I'm glad you are involved!	I'm glad you are involved!	63087823	1473548713621	1473548713718	d	68
122112	1326910	I'm glad you are involved!	I'm glad you are involved!	63087824	1473548713824	1473548713952	!	16
122112	1326914	What a nice note.	What a nice note.	63087870	1473548715554	1473548715693	SHIFT	16
122112	1326914	What a nice note.	What a nice note.	63087872	1473548715634	1473548715735	W	87
122112	1326914	What a nice note.	What a nice note.	63087874	1473548715714	1473548715815	h	72
122112	1326914	What a nice note.	What a nice note.	63087876	1473548715810	1473548715933	a	65
122112	1326914	What a nice note.	What a nice note.	63087878	1473548715890	1473548715976	t	84
122112	1326914	What a nice note.	What a nice note.	63087881	1473548715954	1473548716025	 	32
122112	1326914	What a nice note.	What a nice note.	63087883	1473548716029	1473548716141	a	65
122112	1326914	What a nice note.	What a nice note.	63087885	1473548716102	1473548716181	 	32
122112	1326914	What a nice note.	What a nice note.	63087887	1473548716232	1473548716398	n	78
122112	1326914	What a nice note.	What a nice note.	63087900	1473548716280	1473548716424	i	73
122112	1326914	What a nice note.	What a nice note.	63087904	1473548716345	1473548716474	c	67
122112	1326914	What a nice note.	What a nice note.	63087909	1473548716409	1473548716499	e	69
122112	1326914	What a nice note.	What a nice note.	63087914	1473548716494	1473548716590	 	32
122112	1326914	What a nice note.	What a nice note.	63087918	1473548716635	1473548716817	n	78
122112	1326914	What a nice note.	What a nice note.	63087951	1473548716683	1473548716854	o	79
122112	1326914	What a nice note.	What a nice note.	63087955	1473548716747	1473548716908	t	84
122112	1326914	What a nice note.	What a nice note.	63087961	1473548716849	1473548716961	e	69
122112	1326914	What a nice note.	What a nice note.	63087966	1473548717249	1473548717345	.	190
122112	1326916	Very truly yours, Acme Costume Co.	Very truly yours, Acme Costume Co.	63088014	1473548719596	1473548719730	SHIFT	16
122112	1326916	Very truly yours, Acme Costume Co.	Very truly yours, Acme Costume Co.	63088016	1473548719655	1473548719766	V	86
122112	1326916	Very truly yours, Acme Costume Co.	Very truly yours, Acme Costume Co.	63088019	1473548719812	1473548719967	e	69
122112	1326916	Very truly yours, Acme Costume Co.	Very truly yours, Acme Costume Co.	63088023	1473548719876	1473548720026	r	82
122112	1326916	Very truly yours, Acme Costume Co.	Very truly yours, Acme Costume Co.	63088026	1473548719951	1473548720042	y	89
122112	1326916	Very truly yours, Acme Costume Co.	Very truly yours, Acme Costume Co.	63088027	1473548720120	1473548720232	 	32
122112	1326916	Very truly yours, Acme Costume Co.	Very truly yours, Acme Costume Co.	63088032	1473548720147	1473548720239	t	84
122112	1326916	Very truly yours, Acme Costume Co.	Very truly yours, Acme Costume Co.	63088033	1473548720280	1473548720414	r	82
122112	1326916	Very truly yours, Acme Costume Co.	Very truly yours, Acme Costume Co.	63088034	1473548720344	1473548720447	u	85
122112	1326916	Very truly yours, Acme Costume Co.	Very truly yours, Acme Costume Co.	63088035	1473548720515	1473548720621	l	76
122112	1326916	Very truly yours, Acme Costume Co.	Very truly yours, Acme Costume Co.	63088036	1473548720763	1473548720859	y	89
122112	1326916	Very truly yours, Acme Costume Co.	Very truly yours, Acme Costume Co.	63088037	1473548720939	1473548721028	 	32
122112	1326916	Very truly yours, Acme Costume Co.	Very truly yours, Acme Costume Co.	63088038	1473548721140	1473548721223	y	89
122112	1326916	Very truly yours, Acme Costume Co.	Very truly yours, Acme Costume Co.	63088041	1473548721217	1473548721362	o	79
122112	1326916	Very truly yours, Acme Costume Co.	Very truly yours, Acme Costume Co.	63088045	1473548721310	1473548721399	u	85
122112	1326916	Very truly yours, Acme Costume Co.	Very truly yours, Acme Costume Co.	63088049	1473548721383	1473548721580	r	82
122112	1326916	Very truly yours, Acme Costume Co.	Very truly yours, Acme Costume Co.	63088098	1473548721476	1473548721651	s	83
122112	1326916	Very truly yours, Acme Costume Co.	Very truly yours, Acme Costume Co.	63088099	1473548721879	1473548721986	,	188
122112	1326916	Very truly yours, Acme Costume Co.	Very truly yours, Acme Costume Co.	63088101	1473548722052	1473548722199	 	32
122112	1326916	Very truly yours, Acme Costume Co.	Very truly yours, Acme Costume Co.	63088103	1473548722210	1473548722316	a	65
122112	1326916	Very truly yours, Acme Costume Co.	Very truly yours, Acme Costume Co.	63088108	1473548722459	1473548722524	BKSP	8
122112	1326916	Very truly yours, Acme Costume Co.	Very truly yours, Acme Costume Co.	63088112	1473548722510	1473548722657	SHIFT	16
122112	1326916	Very truly yours, Acme Costume Co.	Very truly yours, Acme Costume Co.	63088117	1473548722573	1473548722694	A	65
122112	1326916	Very truly yours, Acme Costume Co.	Very truly yours, Acme Costume Co.	63088122	1473548722760	1473548722866	c	67
122112	1326916	Very truly yours, Acme Costume Co.	Very truly yours, Acme Costume Co.	63088138	1473548722907	1473548723040	m	77
122112	1326916	Very truly yours, Acme Costume Co.	Very truly yours, Acme Costume Co.	63088140	1473548723049	1473548723188	e	69
122112	1326916	Very truly yours, Acme Costume Co.	Very truly yours, Acme Costume Co.	63088143	1473548723215	1473548723332	 	32
122112	1326916	Very truly yours, Acme Costume Co.	Very truly yours, Acme Costume Co.	63088145	1473548723316	1473548723466	SHIFT	16
122112	1326916	Very truly yours, Acme Costume Co.	Very truly yours, Acme Costume Co.	63088147	1473548723381	1473548723509	C	67
122112	1326916	Very truly yours, Acme Costume Co.	Very truly yours, Acme Costume Co.	63088164	1473548723513	1473548723652	o	79
122112	1326916	Very truly yours, Acme Costume Co.	Very truly yours, Acme Costume Co.	63088151	1473548723588	1473548723647	n	78
122112	1326916	Very truly yours, Acme Costume Co.	Very truly yours, Acme Costume Co.	63088166	1473548723903	1473548723977	BKSP	8
122112	1326916	Very truly yours, Acme Costume Co.	Very truly yours, Acme Costume Co.	63088169	1473548723975	1473548724108	s	83
122112	1326916	Very truly yours, Acme Costume Co.	Very truly yours, Acme Costume Co.	63088172	1473548724173	1473548724279	t	84
122112	1326916	Very truly yours, Acme Costume Co.	Very truly yours, Acme Costume Co.	63088174	1473548724236	1473548724310	u	85
122112	1326916	Very truly yours, Acme Costume Co.	Very truly yours, Acme Costume Co.	63088177	1473548724381	1473548724488	m	77
122112	1326916	Very truly yours, Acme Costume Co.	Very truly yours, Acme Costume Co.	63088201	1473548724483	1473548724640	e	69
122112	1326916	Very truly yours, Acme Costume Co.	Very truly yours, Acme Costume Co.	63088202	1473548724826	1473548724917	 	32
122112	1326916	Very truly yours, Acme Costume Co.	Very truly yours, Acme Costume Co.	63088203	1473548724943	1473548725081	SHIFT	16
122112	1326916	Very truly yours, Acme Costume Co.	Very truly yours, Acme Costume Co.	63088205	1473548725029	1473548725142	C	67
122112	1326916	Very truly yours, Acme Costume Co.	Very truly yours, Acme Costume Co.	63088207	1473548725152	1473548725241	o	79
122112	1326916	Very truly yours, Acme Costume Co.	Very truly yours, Acme Costume Co.	63088209	1473548725330	1473548725421	.	190
122112	1326916	Very truly yours, Acme Costume Co.	Very truly yours, Acme Costume Co.	63088212	1473548725449	1473548725545	'	222
122112	1326916	Very truly yours, Acme Costume Co.	Very truly yours, Acme Costume Co.	63088219	1473548725800	1473548725864	BKSP	8
122112	1326921	Sports fans here are excited.	Sports fans here are excited	63088265	1473548727597	1473548727746	SHIFT	16
122112	1326921	Sports fans here are excited.	Sports fans here are excited	63088267	1473548727673	1473548727807	S	83
122112	1326921	Sports fans here are excited.	Sports fans here are excited	63088269	1473548727775	1473548727918	p	80
122112	1326921	Sports fans here are excited.	Sports fans here are excited	63088270	1473548727858	1473548727949	o	79
122112	1326921	Sports fans here are excited.	Sports fans here are excited	63088272	1473548727928	1473548728106	t	84
122112	1326921	Sports fans here are excited.	Sports fans here are excited	63088314	1473548728042	1473548728195	s	83
122112	1326921	Sports fans here are excited.	Sports fans here are excited	63088317	1473548728497	1473548728561	BKSP	8
122112	1326921	Sports fans here are excited.	Sports fans here are excited	63088319	1473548728641	1473548728700	BKSP	8
122112	1326921	Sports fans here are excited.	Sports fans here are excited	63088321	1473548728761	1473548728858	r	82
122112	1326921	Sports fans here are excited.	Sports fans here are excited	63088322	1473548728926	1473548729096	t	84
122112	1326921	Sports fans here are excited.	Sports fans here are excited	63088323	1473548728976	1473548729145	s	83
122112	1326921	Sports fans here are excited.	Sports fans here are excited	63088324	1473548729123	1473548729246	 	32
122112	1326921	Sports fans here are excited.	Sports fans here are excited	63088329	1473548729243	1473548729385	f	70
122112	1326921	Sports fans here are excited.	Sports fans here are excited	63088331	1473548729380	1473548729529	a	65
122112	1326921	Sports fans here are excited.	Sports fans here are excited	63088334	1473548729477	1473548729573	n	78
122112	1326921	Sports fans here are excited.	Sports fans here are excited	63088337	1473548729612	1473548729745	s	83
122112	1326921	Sports fans here are excited.	Sports fans here are excited	63088338	1473548729725	1473548729848	 	32
122112	1326921	Sports fans here are excited.	Sports fans here are excited	63088366	1473548729807	1473548729944	a	65
122112	1326921	Sports fans here are excited.	Sports fans here are excited	63088368	1473548729900	1473548730011	r	82
122112	1326921	Sports fans here are excited.	Sports fans here are excited	63088370	1473548730140	1473548730197	BKSP	8
122112	1326921	Sports fans here are excited.	Sports fans here are excited	63088373	1473548730233	1473548730302	BKSP	8
122112	1326921	Sports fans here are excited.	Sports fans here are excited	63088375	1473548730376	1473548730445	h	72
122112	1326921	Sports fans here are excited.	Sports fans here are excited	63088378	1473548730412	1473548730503	e	69
122112	1326921	Sports fans here are excited.	Sports fans here are excited	63088380	1473548730487	1473548730646	r	82
122112	1326921	Sports fans here are excited.	Sports fans here are excited	63088381	1473548730567	1473548730679	e	69
122112	1326921	Sports fans here are excited.	Sports fans here are excited	63088382	1473548730642	1473548730759	 	32
122112	1326921	Sports fans here are excited.	Sports fans here are excited	63088383	1473548730711	1473548730866	a	65
122112	1326921	Sports fans here are excited.	Sports fans here are excited	63088384	1473548730776	1473548730942	r	82
122112	1326921	Sports fans here are excited.	Sports fans here are excited	63088385	1473548730841	1473548730983	e	69
122112	1326921	Sports fans here are excited.	Sports fans here are excited	63088386	1473548730924	1473548731052	 	32
122112	1326921	Sports fans here are excited.	Sports fans here are excited	63088396	1473548731015	1473548731122	e	69
122112	1326921	Sports fans here are excited.	Sports fans here are excited	63088398	1473548731170	1473548731287	x	88
122112	1326921	Sports fans here are excited.	Sports fans here are excited	63088399	1473548731366	1473548731462	c	67
122112	1326921	Sports fans here are excited.	Sports fans here are excited	63088400	1473548731446	1473548731585	i	73
122112	1326921	Sports fans here are excited.	Sports fans here are excited	63088401	1473548731538	1473548731654	t	84
122112	1326921	Sports fans here are excited.	Sports fans here are excited	63088402	1473548731608	1473548731742	e	69
122112	1326925	Not just 1 to 2.	Not just 1 to 2.	63088451	1473548733342	1473548733472	SHIFT	16
122112	1326925	Not just 1 to 2.	Not just 1 to 2.	63088453	1473548733428	1473548733503	N	78
122112	1326925	Not just 1 to 2.	Not just 1 to 2.	63088457	1473548733542	1473548733627	o	79
122112	1326925	Not just 1 to 2.	Not just 1 to 2.	63088461	1473548733584	1473548733711	t	84
122112	1326925	Not just 1 to 2.	Not just 1 to 2.	63088464	1473548733742	1473548733838	 	32
122112	1326925	Not just 1 to 2.	Not just 1 to 2.	63088466	1473548733918	1473548734015	j	74
122112	1326925	Not just 1 to 2.	Not just 1 to 2.	63088483	1473548734040	1473548734192	u	85
122112	1326925	Not just 1 to 2.	Not just 1 to 2.	63088487	1473548734188	1473548734377	s	83
122112	1326925	Not just 1 to 2.	Not just 1 to 2.	63088490	1473548734307	1473548734430	t	84
122112	1326925	Not just 1 to 2.	Not just 1 to 2.	63088492	1473548734410	1473548734558	 	32
122112	1326925	Not just 1 to 2.	Not just 1 to 2.	63088495	1473548734780	1473548734892	1	49
122112	1326925	Not just 1 to 2.	Not just 1 to 2.	63088524	1473548734928	1473548735061	 	32
122112	1326925	Not just 1 to 2.	Not just 1 to 2.	63088526	1473548735111	1473548735212	t	84
122112	1326925	Not just 1 to 2.	Not just 1 to 2.	63088527	1473548735191	1473548735287	o	79
122112	1326925	Not just 1 to 2.	Not just 1 to 2.	63088528	1473548735364	1473548735473	 	32
122112	1326925	Not just 1 to 2.	Not just 1 to 2.	63088529	1473548735554	1473548735644	2	50
122112	1326925	Not just 1 to 2.	Not just 1 to 2.	63088530	1473548735699	1473548735808	.	190
122112	1326928	X-rays were negative, and Hakim is listed as day to day.	X-rays were negative, ad Hakim is listed as day to day.	63088585	1473548737603	1473548737790	SHIFT	16
122112	1326928	X-rays were negative, and Hakim is listed as day to day.	X-rays were negative, ad Hakim is listed as day to day.	63088587	1473548737726	1473548737849	X	88
122112	1326928	X-rays were negative, and Hakim is listed as day to day.	X-rays were negative, ad Hakim is listed as day to day.	63088590	1473548738076	1473548738151	-	189
122112	1326928	X-rays were negative, and Hakim is listed as day to day.	X-rays were negative, ad Hakim is listed as day to day.	63088592	1473548738186	1473548738346	r	82
122112	1326928	X-rays were negative, and Hakim is listed as day to day.	X-rays were negative, ad Hakim is listed as day to day.	63088594	1473548738266	1473548738416	a	65
122112	1326928	X-rays were negative, and Hakim is listed as day to day.	X-rays were negative, ad Hakim is listed as day to day.	63088622	1473548738375	1473548738475	y	89
122112	1326928	X-rays were negative, and Hakim is listed as day to day.	X-rays were negative, ad Hakim is listed as day to day.	63088623	1473548738465	1473548738578	s	83
122112	1326928	X-rays were negative, and Hakim is listed as day to day.	X-rays were negative, ad Hakim is listed as day to day.	63088624	1473548738565	1473548738683	 	32
122112	1326928	X-rays were negative, and Hakim is listed as day to day.	X-rays were negative, ad Hakim is listed as day to day.	63088626	1473548738641	1473548738778	a	65
122112	1326928	X-rays were negative, and Hakim is listed as day to day.	X-rays were negative, ad Hakim is listed as day to day.	63088629	1473548738714	1473548738848	r	82
122112	1326928	X-rays were negative, and Hakim is listed as day to day.	X-rays were negative, ad Hakim is listed as day to day.	63088632	1473548738963	1473548739026	BKSP	8
122112	1326928	X-rays were negative, and Hakim is listed as day to day.	X-rays were negative, ad Hakim is listed as day to day.	63088637	1473548739055	1473548739125	BKSP	8
122112	1326928	X-rays were negative, and Hakim is listed as day to day.	X-rays were negative, ad Hakim is listed as day to day.	63088640	1473548739168	1473548739243	w	87
122112	1326928	X-rays were negative, and Hakim is listed as day to day.	X-rays were negative, ad Hakim is listed as day to day.	63088648	1473548739319	1473548739382	e	69
122112	1326928	X-rays were negative, and Hakim is listed as day to day.	X-rays were negative, ad Hakim is listed as day to day.	63088649	1473548739367	1473548739554	r	82
122112	1326928	X-rays were negative, and Hakim is listed as day to day.	X-rays were negative, ad Hakim is listed as day to day.	63088650	1473548739463	1473548739609	e	69
122112	1326928	X-rays were negative, and Hakim is listed as day to day.	X-rays were negative, ad Hakim is listed as day to day.	63088652	1473548739548	1473548739629	 	32
122112	1326928	X-rays were negative, and Hakim is listed as day to day.	X-rays were negative, ad Hakim is listed as day to day.	63088656	1473548739684	1473548739811	n	78
122112	1326928	X-rays were negative, and Hakim is listed as day to day.	X-rays were negative, ad Hakim is listed as day to day.	63088680	1473548739722	1473548739817	e	69
122112	1326928	X-rays were negative, and Hakim is listed as day to day.	X-rays were negative, ad Hakim is listed as day to day.	63088681	1473548739865	1473548740010	g	71
122112	1326928	X-rays were negative, and Hakim is listed as day to day.	X-rays were negative, ad Hakim is listed as day to day.	63088682	1473548739950	1473548740100	a	65
122112	1326928	X-rays were negative, and Hakim is listed as day to day.	X-rays were negative, ad Hakim is listed as day to day.	63088684	1473548740144	1473548740230	t	84
122112	1326928	X-rays were negative, and Hakim is listed as day to day.	X-rays were negative, ad Hakim is listed as day to day.	63088686	1473548740234	1473548740353	i	73
122112	1326928	X-rays were negative, and Hakim is listed as day to day.	X-rays were negative, ad Hakim is listed as day to day.	63088700	1473548740342	1473548740510	v	86
122112	1326928	X-rays were negative, and Hakim is listed as day to day.	X-rays were negative, ad Hakim is listed as day to day.	63088702	1473548740407	1473548740558	e	69
122112	1326928	X-rays were negative, and Hakim is listed as day to day.	X-rays were negative, ad Hakim is listed as day to day.	63088704	1473548740731	1473548740840	,	188
122112	1326928	X-rays were negative, and Hakim is listed as day to day.	X-rays were negative, ad Hakim is listed as day to day.	63088707	1473548740914	1473548741021	 	32
122112	1326928	X-rays were negative, and Hakim is listed as day to day.	X-rays were negative, ad Hakim is listed as day to day.	63088710	1473548741165	1473548741320	a	65
122112	1326928	X-rays were negative, and Hakim is listed as day to day.	X-rays were negative, ad Hakim is listed as day to day.	63088736	1473548741262	1473548741400	n	78
122112	1326928	X-rays were negative, and Hakim is listed as day to day.	X-rays were negative, ad Hakim is listed as day to day.	63088739	1473548741480	1473548741581	 	32
122112	1326928	X-rays were negative, and Hakim is listed as day to day.	X-rays were negative, ad Hakim is listed as day to day.	63088740	1473548741611	1473548741729	SHIFT	16
122112	1326928	X-rays were negative, and Hakim is listed as day to day.	X-rays were negative, ad Hakim is listed as day to day.	63088741	1473548741671	1473548741777	H	72
122112	1326928	X-rays were negative, and Hakim is listed as day to day.	X-rays were negative, ad Hakim is listed as day to day.	63088742	1473548741837	1473548741965	a	65
122112	1326928	X-rays were negative, and Hakim is listed as day to day.	X-rays were negative, ad Hakim is listed as day to day.	63088744	1473548741940	1473548742018	k	75
122112	1326928	X-rays were negative, and Hakim is listed as day to day.	X-rays were negative, ad Hakim is listed as day to day.	63088746	1473548742097	1473548742192	i	73
122112	1326928	X-rays were negative, and Hakim is listed as day to day.	X-rays were negative, ad Hakim is listed as day to day.	63088749	1473548742279	1473548742375	m	77
122112	1326928	X-rays were negative, and Hakim is listed as day to day.	X-rays were negative, ad Hakim is listed as day to day.	63088750	1473548742448	1473548742544	 	32
122112	1326928	X-rays were negative, and Hakim is listed as day to day.	X-rays were negative, ad Hakim is listed as day to day.	63088752	1473548742555	1473548742642	i	73
122112	1326928	X-rays were negative, and Hakim is listed as day to day.	X-rays were negative, ad Hakim is listed as day to day.	63088754	1473548742630	1473548742775	s	83
122112	1326928	X-rays were negative, and Hakim is listed as day to day.	X-rays were negative, ad Hakim is listed as day to day.	63088759	1473548742706	1473548742811	 	32
122112	1326928	X-rays were negative, and Hakim is listed as day to day.	X-rays were negative, ad Hakim is listed as day to day.	63088760	1473548742856	1473548742993	l	76
122112	1326928	X-rays were negative, and Hakim is listed as day to day.	X-rays were negative, ad Hakim is listed as day to day.	63088761	1473548742924	1473548743037	i	73
122112	1326928	X-rays were negative, and Hakim is listed as day to day.	X-rays were negative, ad Hakim is listed as day to day.	63088762	1473548742956	1473548743047	s	83
122112	1326928	X-rays were negative, and Hakim is listed as day to day.	X-rays were negative, ad Hakim is listed as day to day.	63088763	1473548743063	1473548743234	t	84
122112	1326928	X-rays were negative, and Hakim is listed as day to day.	X-rays were negative, ad Hakim is listed as day to day.	63088776	1473548743149	1473548743298	e	69
122112	1326928	X-rays were negative, and Hakim is listed as day to day.	X-rays were negative, ad Hakim is listed as day to day.	63088777	1473548743960	1473548744075	d	68
122112	1326928	X-rays were negative, and Hakim is listed as day to day.	X-rays were negative, ad Hakim is listed as day to day.	63088778	1473548744098	1473548744221	 	32
122112	1326928	X-rays were negative, and Hakim is listed as day to day.	X-rays were negative, ad Hakim is listed as day to day.	63088780	1473548744178	1473548744318	a	65
122112	1326928	X-rays were negative, and Hakim is listed as day to day.	X-rays were negative, ad Hakim is listed as day to day.	63088784	1473548744276	1473548744419	s	83
122112	1326928	X-rays were negative, and Hakim is listed as day to day.	X-rays were negative, ad Hakim is listed as day to day.	63088798	1473548744387	1473548744488	 	32
122112	1326928	X-rays were negative, and Hakim is listed as day to day.	X-rays were negative, ad Hakim is listed as day to day.	63088799	1473548744516	1473548744649	d	68
122112	1326928	X-rays were negative, and Hakim is listed as day to day.	X-rays were negative, ad Hakim is listed as day to day.	63088800	1473548744569	1473548744719	a	65
122112	1326928	X-rays were negative, and Hakim is listed as day to day.	X-rays were negative, ad Hakim is listed as day to day.	63088801	1473548744644	1473548744735	y	89
122112	1326928	X-rays were negative, and Hakim is listed as day to day.	X-rays were negative, ad Hakim is listed as day to day.	63088802	1473548744811	1473548744924	 	32
122112	1326928	X-rays were negative, and Hakim is listed as day to day.	X-rays were negative, ad Hakim is listed as day to day.	63088803	1473548744948	1473548745054	t	84
122112	1326928	X-rays were negative, and Hakim is listed as day to day.	X-rays were negative, ad Hakim is listed as day to day.	63088821	1473548744996	1473548745065	o	79
122112	1326928	X-rays were negative, and Hakim is listed as day to day.	X-rays were negative, ad Hakim is listed as day to day.	63088822	1473548745147	1473548745243	 	32
122112	1326928	X-rays were negative, and Hakim is listed as day to day.	X-rays were negative, ad Hakim is listed as day to day.	63088824	1473548745240	1473548745381	d	68
122112	1326928	X-rays were negative, and Hakim is listed as day to day.	X-rays were negative, ad Hakim is listed as day to day.	63088826	1473548745302	1473548745447	a	65
122112	1326928	X-rays were negative, and Hakim is listed as day to day.	X-rays were negative, ad Hakim is listed as day to day.	63088828	1473548745377	1473548745484	y	89
122112	1326928	X-rays were negative, and Hakim is listed as day to day.	X-rays were negative, ad Hakim is listed as day to day.	63088830	1473548745905	1473548746016	.	190
122112	1326933	Do you still need me to sign something?	Do you still need me to sign something?	63088861	1473548747563	1473548747723	SHIFT	16
122112	1326933	Do you still need me to sign something?	Do you still need me to sign something?	63088862	1473548747675	1473548747787	D	68
122112	1326933	Do you still need me to sign something?	Do you still need me to sign something?	63088863	1473548747803	1473548747883	o	79
122112	1326933	Do you still need me to sign something?	Do you still need me to sign something?	63088864	1473548747965	1473548748049	 	32
122112	1326933	Do you still need me to sign something?	Do you still need me to sign something?	63088865	1473548748154	1473548748242	y	89
122112	1326933	Do you still need me to sign something?	Do you still need me to sign something?	63088876	1473548748196	1473548748335	o	79
122112	1326933	Do you still need me to sign something?	Do you still need me to sign something?	63088878	1473548748293	1473548748389	u	85
122112	1326933	Do you still need me to sign something?	Do you still need me to sign something?	63088880	1473548748466	1473548748578	 	32
122112	1326933	Do you still need me to sign something?	Do you still need me to sign something?	63088882	1473548748509	1473548748639	s	83
122112	1326933	Do you still need me to sign something?	Do you still need me to sign something?	63088884	1473548748589	1473548748717	t	84
122112	1326933	Do you still need me to sign something?	Do you still need me to sign something?	63088889	1473548748653	1473548748755	i	73
122112	1326933	Do you still need me to sign something?	Do you still need me to sign something?	63088892	1473548748818	1473548748877	l	76
122112	1326933	Do you still need me to sign something?	Do you still need me to sign something?	63088895	1473548748918	1473548748991	l	76
122112	1326933	Do you still need me to sign something?	Do you still need me to sign something?	63088897	1473548749040	1473548749097	 	32
122112	1326933	Do you still need me to sign something?	Do you still need me to sign something?	63088900	1473548749141	1473548749265	n	78
122112	1326933	Do you still need me to sign something?	Do you still need me to sign something?	63088909	1473548749208	1473548749291	e	69
122112	1326933	Do you still need me to sign something?	Do you still need me to sign something?	63088910	1473548749353	1473548749497	e	69
122112	1326933	Do you still need me to sign something?	Do you still need me to sign something?	63088911	1473548749422	1473548749555	d	68
122112	1326933	Do you still need me to sign something?	Do you still need me to sign something?	63088912	1473548749476	1473548749566	 	32
122112	1326933	Do you still need me to sign something?	Do you still need me to sign something?	63088913	1473548749634	1473548749709	m	77
122112	1326933	Do you still need me to sign something?	Do you still need me to sign something?	63088921	1473548749687	1473548749778	e	69
122112	1326933	Do you still need me to sign something?	Do you still need me to sign something?	63088923	1473548749757	1473548749885	 	32
122112	1326933	Do you still need me to sign something?	Do you still need me to sign something?	63088927	1473548749848	1473548749985	t	84
122112	1326933	Do you still need me to sign something?	Do you still need me to sign something?	63088925	1473548749917	1473548749981	o	79
122112	1326933	Do you still need me to sign something?	Do you still need me to sign something?	63088928	1473548750045	1473548750151	 	32
122112	1326933	Do you still need me to sign something?	Do you still need me to sign something?	63088932	1473548750141	1473548750253	s	83
122112	1326933	Do you still need me to sign something?	Do you still need me to sign something?	63088936	1473548750207	1473548750280	i	73
122112	1326933	Do you still need me to sign something?	Do you still need me to sign something?	63088938	1473548750285	1473548750424	g	71
122112	1326933	Do you still need me to sign something?	Do you still need me to sign something?	63088942	1473548750349	1473548750428	n	78
122112	1326933	Do you still need me to sign something?	Do you still need me to sign something?	63088946	1473548750491	1473548750582	 	32
122112	1326933	Do you still need me to sign something?	Do you still need me to sign something?	63088950	1473548750633	1473548750799	s	83
122112	1326933	Do you still need me to sign something?	Do you still need me to sign something?	63088954	1473548750655	1473548750841	o	79
122112	1326933	Do you still need me to sign something?	Do you still need me to sign something?	63088955	1473548750805	1473548750931	m	77
122112	1326933	Do you still need me to sign something?	Do you still need me to sign something?	63088956	1473548750927	1473548751050	e	69
122112	1326933	Do you still need me to sign something?	Do you still need me to sign something?	63088957	1473548751089	1473548751207	t	84
122112	1326933	Do you still need me to sign something?	Do you still need me to sign something?	63088960	1473548751131	1473548751240	h	72
122112	1326933	Do you still need me to sign something?	Do you still need me to sign something?	63088962	1473548751175	1473548751361	i	73
122112	1326933	Do you still need me to sign something?	Do you still need me to sign something?	63088964	1473548751275	1473548751405	n	78
122112	1326933	Do you still need me to sign something?	Do you still need me to sign something?	63088966	1473548751351	1473548751435	g	71
122112	1326933	Do you still need me to sign something?	Do you still need me to sign something?	63088968	1473548751476	1473548751629	SHIFT	16
122112	1326933	Do you still need me to sign something?	Do you still need me to sign something?	63088970	1473548751554	1473548751650	>	190
122112	1326933	Do you still need me to sign something?	Do you still need me to sign something?	63088972	1473548751840	1473548751914	BKSP	8
122112	1326933	Do you still need me to sign something?	Do you still need me to sign something?	63088976	1473548751940	1473548752124	SHIFT	16
122112	1326933	Do you still need me to sign something?	Do you still need me to sign something?	63088974	1473548752009	1473548752114	?	191
122112	1326937	Will let you know how call goes in morning.	Will let you know how call goes in morning.	63089022	1473548754020	1473548754153	SHIFT	16
122112	1326937	Will let you know how call goes in morning.	Will let you know how call goes in morning.	63089023	1473548754095	1473548754222	W	87
122112	1326937	Will let you know how call goes in morning.	Will let you know how call goes in morning.	63089024	1473548754191	1473548754260	i	73
122112	1326937	Will let you know how call goes in morning.	Will let you know how call goes in morning.	63089025	1473548754349	1473548754409	l	76
122112	1326937	Will let you know how call goes in morning.	Will let you know how call goes in morning.	63089026	1473548754460	1473548754524	l	76
122112	1326937	Will let you know how call goes in morning.	Will let you know how call goes in morning.	63089028	1473548754579	1473548754669	 	32
122112	1326937	Will let you know how call goes in morning.	Will let you know how call goes in morning.	63089043	1473548754761	1473548754857	y	89
122112	1326937	Will let you know how call goes in morning.	Will let you know how call goes in morning.	63089046	1473548754815	1473548754943	o	79
122112	1326937	Will let you know how call goes in morning.	Will let you know how call goes in morning.	63089049	1473548755080	1473548755144	BKSP	8
122112	1326937	Will let you know how call goes in morning.	Will let you know how call goes in morning.	63089055	1473548755176	1473548755246	BKSP	8
122112	1326937	Will let you know how call goes in morning.	Will let you know how call goes in morning.	63089059	1473548755345	1473548755452	l	76
122112	1326937	Will let you know how call goes in morning.	Will let you know how call goes in morning.	63089063	1473548755424	1473548755591	e	69
122112	1326937	Will let you know how call goes in morning.	Will let you know how call goes in morning.	63089073	1473548755510	1473548755654	t	84
122112	1326937	Will let you know how call goes in morning.	Will let you know how call goes in morning.	63089074	1473548755617	1473548755727	 	32
122112	1326937	Will let you know how call goes in morning.	Will let you know how call goes in morning.	63089075	1473548755984	1473548756076	y	89
122112	1326937	Will let you know how call goes in morning.	Will let you know how call goes in morning.	63089076	1473548756064	1473548756209	o	79
122112	1326937	Will let you know how call goes in morning.	Will let you know how call goes in morning.	63089077	1473548756155	1473548756251	u	85
122112	1326937	Will let you know how call goes in morning.	Will let you know how call goes in morning.	63089078	1473548756322	1473548756409	 	32
122112	1326937	Will let you know how call goes in morning.	Will let you know how call goes in morning.	63089079	1473548756418	1473548756531	k	75
122112	1326937	Will let you know how call goes in morning.	Will let you know how call goes in morning.	63089081	1473548756494	1473548756670	n	78
122112	1326937	Will let you know how call goes in morning.	Will let you know how call goes in morning.	63089080	1473548756600	1473548756659	o	79
122112	1326937	Will let you know how call goes in morning.	Will let you know how call goes in morning.	63089083	1473548756653	1473548756777	w	87
122112	1326937	Will let you know how call goes in morning.	Will let you know how call goes in morning.	63089099	1473548756718	1473548756810	 	32
122112	1326937	Will let you know how call goes in morning.	Will let you know how call goes in morning.	63089101	1473548756877	1473548757007	h	72
122112	1326937	Will let you know how call goes in morning.	Will let you know how call goes in morning.	63089103	1473548756914	1473548757031	o	79
122112	1326937	Will let you know how call goes in morning.	Will let you know how call goes in morning.	63089105	1473548756962	1473548757076	w	87
122112	1326937	Will let you know how call goes in morning.	Will let you know how call goes in morning.	63089107	1473548757098	1473548757199	 	32
122112	1326937	Will let you know how call goes in morning.	Will let you know how call goes in morning.	63089100	1473548757184	1473548757327	c	67
122112	1326937	Will let you know how call goes in morning.	Will let you know how call goes in morning.	63089104	1473548757253	1473548757409	a	65
122112	1326937	Will let you know how call goes in morning.	Will let you know how call goes in morning.	63089102	1473548757276	1473548757344	l	76
122112	1326937	Will let you know how call goes in morning.	Will let you know how call goes in morning.	63089106	1473548757376	1473548757466	l	76
122112	1326937	Will let you know how call goes in morning.	Will let you know how call goes in morning.	63089108	1473548757497	1473548757620	 	32
122112	1326937	Will let you know how call goes in morning.	Will let you know how call goes in morning.	63089128	1473548757545	1473548757661	g	71
122112	1326937	Will let you know how call goes in morning.	Will let you know how call goes in morning.	63089131	1473548757646	1473548757776	o	79
122112	1326937	Will let you know how call goes in morning.	Will let you know how call goes in morning.	63089133	1473548757710	1473548757865	e	69
122112	1326937	Will let you know how call goes in morning.	Will let you know how call goes in morning.	63089135	1473548757769	1473548757929	s	83
122112	1326937	Will let you know how call goes in morning.	Will let you know how call goes in morning.	63089137	1473548757860	1473548757961	 	32
122112	1326937	Will let you know how call goes in morning.	Will let you know how call goes in morning.	63089138	1473548757989	1473548758140	i	73
122112	1326937	Will let you know how call goes in morning.	Will let you know how call goes in morning.	63089144	1473548758059	1473548758155	n	78
122112	1326937	Will let you know how call goes in morning.	Will let you know how call goes in morning.	63089145	1473548758178	1473548758276	 	32
122112	1326937	Will let you know how call goes in morning.	Will let you know how call goes in morning.	63089149	1473548758269	1473548758466	t	84
122112	1326937	Will let you know how call goes in morning.	Will let you know how call goes in morning.	63089146	1473548758344	1473548758456	h	72
122112	1326937	Will let you know how call goes in morning.	Will let you know how call goes in morning.	63089153	1473548758381	1473548758543	e	69
122112	1326937	Will let you know how call goes in morning.	Will let you know how call goes in morning.	63089184	1473548758509	1473548758611	 	32
122112	1326937	Will let you know how call goes in morning.	Will let you know how call goes in morning.	63089187	1473548758850	1473548758914	BKSP	8
122112	1326937	Will let you know how call goes in morning.	Will let you know how call goes in morning.	63089191	1473548758948	1473548759018	BKSP	8
122112	1326937	Will let you know how call goes in morning.	Will let you know how call goes in morning.	63089195	1473548759062	1473548759120	BKSP	8
122112	1326937	Will let you know how call goes in morning.	Will let you know how call goes in morning.	63089199	1473548759183	1473548759284	BKSP	8
122112	1326937	Will let you know how call goes in morning.	Will let you know how call goes in morning.	63089203	1473548759442	1473548759557	m	77
122112	1326937	Will let you know how call goes in morning.	Will let you know how call goes in morning.	63089204	1473548759510	1473548759659	o	79
122112	1326937	Will let you know how call goes in morning.	Will let you know how call goes in morning.	63089205	1473548759734	1473548759858	r	82
122112	1326937	Will let you know how call goes in morning.	Will let you know how call goes in morning.	63089206	1473548759836	1473548759949	n	78
122112	1326937	Will let you know how call goes in morning.	Will let you know how call goes in morning.	63089207	1473548760019	1473548760185	i	73
122112	1326937	Will let you know how call goes in morning.	Will let you know how call goes in morning.	63089208	1473548760074	1473548760190	n	78
122112	1326937	Will let you know how call goes in morning.	Will let you know how call goes in morning.	63089209	1473548760574	1473548760699	g	71
122112	1326937	Will let you know how call goes in morning.	Will let you know how call goes in morning.	63089210	1473548760710	1473548760865	.	190
122112	1326940	I hope that you find these communications informative.	I hope that you find these communications informative.	63089247	1473548762424	1473548762740	SHIFT	16
122112	1326940	I hope that you find these communications informative.	I hope that you find these communications informative.	63089246	1473548762611	1473548762723	I	73
122112	1326940	I hope that you find these communications informative.	I hope that you find these communications informative.	63089248	1473548762797	1473548762856	 	32
122112	1326940	I hope that you find these communications informative.	I hope that you find these communications informative.	63089249	1473548763280	1473548763383	h	72
122112	1326940	I hope that you find these communications informative.	I hope that you find these communications informative.	63089250	1473548763469	1473548763641	o	79
122112	1326940	I hope that you find these communications informative.	I hope that you find these communications informative.	63089260	1473548763542	1473548763661	p	80
122112	1326940	I hope that you find these communications informative.	I hope that you find these communications informative.	63089261	1473548763591	1473548763724	e	69
122112	1326940	I hope that you find these communications informative.	I hope that you find these communications informative.	63089262	1473548763719	1473548763815	 	32
122112	1326940	I hope that you find these communications informative.	I hope that you find these communications informative.	63089263	1473548763811	1473548763908	t	84
122112	1326940	I hope that you find these communications informative.	I hope that you find these communications informative.	63089264	1473548763885	1473548763991	h	72
122112	1326940	I hope that you find these communications informative.	I hope that you find these communications informative.	63089265	1473548763949	1473548764094	a	65
122112	1326940	I hope that you find these communications informative.	I hope that you find these communications informative.	63089276	1473548764019	1473548764131	t	84
122112	1326940	I hope that you find these communications informative.	I hope that you find these communications informative.	63089277	1473548764088	1473548764175	 	32
122112	1326940	I hope that you find these communications informative.	I hope that you find these communications informative.	63089279	1473548764251	1473548764343	y	89
122112	1326940	I hope that you find these communications informative.	I hope that you find these communications informative.	63089281	1473548764326	1473548764465	o	79
122112	1326940	I hope that you find these communications informative.	I hope that you find these communications informative.	63089283	1473548764411	1473548764510	u	85
122112	1326940	I hope that you find these communications informative.	I hope that you find these communications informative.	63089285	1473548764576	1473548764693	 	32
122112	1326940	I hope that you find these communications informative.	I hope that you find these communications informative.	63089289	1473548764698	1473548764790	f	70
122112	1326940	I hope that you find these communications informative.	I hope that you find these communications informative.	63089305	1473548764757	1473548764906	i	73
122112	1326940	I hope that you find these communications informative.	I hope that you find these communications informative.	63089307	1473548764799	1473548764910	n	78
122112	1326940	I hope that you find these communications informative.	I hope that you find these communications informative.	63089309	1473548764881	1473548764984	d	68
122112	1326940	I hope that you find these communications informative.	I hope that you find these communications informative.	63089311	1473548764963	1473548765076	 	32
122112	1326940	I hope that you find these communications informative.	I hope that you find these communications informative.	63089313	1473548765322	1473548765460	s	83
122112	1326940	I hope that you find these communications informative.	I hope that you find these communications informative.	63089315	1473548765576	1473548765656	BKSP	8
122112	1326940	I hope that you find these communications informative.	I hope that you find these communications informative.	63089317	1473548765650	1473548765763	t	84
122112	1326940	I hope that you find these communications informative.	I hope that you find these communications informative.	63089319	1473548765742	1473548765876	h	72
122112	1326940	I hope that you find these communications informative.	I hope that you find these communications informative.	63089322	1473548765816	1473548765929	e	69
122112	1326940	I hope that you find these communications informative.	I hope that you find these communications informative.	63089325	1473548765886	1473548766078	s	83
122112	1326940	I hope that you find these communications informative.	I hope that you find these communications informative.	63089328	1473548766003	1473548766136	e	69
122112	1326940	I hope that you find these communications informative.	I hope that you find these communications informative.	63089333	1473548766115	1473548766216	 	32
122112	1326940	I hope that you find these communications informative.	I hope that you find these communications informative.	63089335	1473548766208	1473548766342	c	67
122112	1326940	I hope that you find these communications informative.	I hope that you find these communications informative.	63089337	1473548766276	1473548766392	o	79
122112	1326940	I hope that you find these communications informative.	I hope that you find these communications informative.	63089339	1473548766398	1473548766478	m	77
122112	1326940	I hope that you find these communications informative.	I hope that you find these communications informative.	63089341	1473548766542	1473548766623	m	77
122112	1326940	I hope that you find these communications informative.	I hope that you find these communications informative.	63089343	1473548766712	1473548766829	u	85
122112	1326940	I hope that you find these communications informative.	I hope that you find these communications informative.	63089349	1473548766781	1473548766943	n	78
122112	1326940	I hope that you find these communications informative.	I hope that you find these communications informative.	63089351	1473548766915	1473548767042	i	73
122112	1326940	I hope that you find these communications informative.	I hope that you find these communications informative.	63089353	1473548767075	1473548767190	c	67
122112	1326940	I hope that you find these communications informative.	I hope that you find these communications informative.	63089356	1473548767131	1473548767276	a	65
122112	1326940	I hope that you find these communications informative.	I hope that you find these communications informative.	63089359	1473548767286	1473548767414	t	84
122112	1326940	I hope that you find these communications informative.	I hope that you find these communications informative.	63089363	1473548767350	1473548767442	i	73
122112	1326940	I hope that you find these communications informative.	I hope that you find these communications informative.	63089364	1473548767410	1473548767601	o	79
122112	1326940	I hope that you find these communications informative.	I hope that you find these communications informative.	63089365	1473548767500	1473548767623	n	78
122112	1326940	I hope that you find these communications informative.	I hope that you find these communications informative.	63089366	1473548767569	1473548767703	s	83
122112	1326940	I hope that you find these communications informative.	I hope that you find these communications informative.	63089368	1473548767686	1473548767774	 	32
122112	1326940	I hope that you find these communications informative.	I hope that you find these communications informative.	63089372	1473548767782	1473548767951	i	73
122112	1326940	I hope that you find these communications informative.	I hope that you find these communications informative.	63089380	1473548767853	1473548767978	n	78
122112	1326940	I hope that you find these communications informative.	I hope that you find these communications informative.	63089381	1473548767946	1473548768026	f	70
122112	1326940	I hope that you find these communications informative.	I hope that you find these communications informative.	63089382	1473548768031	1473548768154	o	79
122112	1326940	I hope that you find these communications informative.	I hope that you find these communications informative.	63089383	1473548768090	1473548768201	r	82
122112	1326940	I hope that you find these communications informative.	I hope that you find these communications informative.	63089384	1473548768181	1473548768314	m	77
122112	1326940	I hope that you find these communications informative.	I hope that you find these communications informative.	63089385	1473548768266	1473548768407	a	65
122112	1326940	I hope that you find these communications informative.	I hope that you find these communications informative.	63089399	1473548768384	1473548768485	t	84
122112	1326940	I hope that you find these communications informative.	I hope that you find these communications informative.	63089400	1473548768476	1473548768618	i	73
122112	1326940	I hope that you find these communications informative.	I hope that you find these communications informative.	63089401	1473548768587	1473548768751	v	86
122112	1326940	I hope that you find these communications informative.	I hope that you find these communications informative.	63089402	1473548768656	1473548768811	e	69
122112	1326940	I hope that you find these communications informative.	I hope that you find these communications informative.	63089403	1473548768784	1473548768880	.	190
122112	1326942	It's quite a weekend.	It's quite a weekend	63089433	1473548770461	1473548770579	SHIFT	16
122112	1326942	It's quite a weekend.	It's quite a weekend	63089434	1473548770516	1473548770601	I	73
122112	1326942	It's quite a weekend.	It's quite a weekend	63089435	1473548770804	1473548770894	t	84
122112	1326942	It's quite a weekend.	It's quite a weekend	63089436	1473548771069	1473548771165	'	222
122112	1326942	It's quite a weekend.	It's quite a weekend	63089437	1473548771172	1473548771288	s	83
122112	1326942	It's quite a weekend.	It's quite a weekend	63089438	1473548771293	1473548771357	 	32
122112	1326942	It's quite a weekend.	It's quite a weekend	63089445	1473548771858	1473548771949	q	81
122112	1326942	It's quite a weekend.	It's quite a weekend	63089446	1473548771944	1473548772093	u	85
122112	1326942	It's quite a weekend.	It's quite a weekend	63089447	1473548771997	1473548772141	i	73
122112	1326942	It's quite a weekend.	It's quite a weekend	63089465	1473548772056	1473548772215	t	84
122112	1326942	It's quite a weekend.	It's quite a weekend	63089466	1473548772130	1473548772248	e	69
122112	1326942	It's quite a weekend.	It's quite a weekend	63089467	1473548772211	1473548772308	 	32
122112	1326942	It's quite a weekend.	It's quite a weekend	63089471	1473548772301	1473548772488	t	84
122112	1326942	It's quite a weekend.	It's quite a weekend	63089469	1473548772372	1473548772483	h	72
122112	1326942	It's quite a weekend.	It's quite a weekend	63089473	1473548772424	1473548772547	e	69
122112	1326942	It's quite a weekend.	It's quite a weekend	63089475	1473548772729	1473548772788	BKSP	8
122112	1326942	It's quite a weekend.	It's quite a weekend	63089477	1473548772842	1473548772900	BKSP	8
122112	1326942	It's quite a weekend.	It's quite a weekend	63089479	1473548772930	1473548773006	BKSP	8
122112	1326942	It's quite a weekend.	It's quite a weekend	63089480	1473548773055	1473548773194	a	65
122112	1326942	It's quite a weekend.	It's quite a weekend	63089483	1473548773205	1473548773316	 	32
122112	1326942	It's quite a weekend.	It's quite a weekend	63089485	1473548773321	1473548773402	w	87
122112	1326942	It's quite a weekend.	It's quite a weekend	63089487	1473548773488	1473548773558	e	69
122112	1326942	It's quite a weekend.	It's quite a weekend	63089489	1473548773627	1473548773749	e	69
122112	1326942	It's quite a weekend.	It's quite a weekend	63089491	1473548773696	1473548773814	k	75
122112	1326942	It's quite a weekend.	It's quite a weekend	63089497	1473548773809	1473548773951	e	69
122112	1326942	It's quite a weekend.	It's quite a weekend	63089502	1473548773894	1473548774015	n	78
122112	1326942	It's quite a weekend.	It's quite a weekend	63089508	1473548773968	1473548774084	d	68
122112	1326944	I'm in Stan's office.	I'm in Stan's office	63089556	1473548775850	1473548775993	SHIFT	16
122112	1326944	I'm in Stan's office.	I'm in Stan's office	63089558	1473548775924	1473548775998	I	73
122112	1326944	I'm in Stan's office.	I'm in Stan's office	63089560	1473548776456	1473548776558	'	222
122112	1326944	I'm in Stan's office.	I'm in Stan's office	63089562	1473548776678	1473548776753	m	77
122112	1326944	I'm in Stan's office.	I'm in Stan's office	63089564	1473548776810	1473548776893	 	32
122112	1326944	I'm in Stan's office.	I'm in Stan's office	63089565	1473548776940	1473548777085	i	73
122112	1326944	I'm in Stan's office.	I'm in Stan's office	63089573	1473548776991	1473548777089	n	78
122112	1326944	I'm in Stan's office.	I'm in Stan's office	63089574	1473548777134	1473548777246	 	32
122112	1326944	I'm in Stan's office.	I'm in Stan's office	63089575	1473548777182	1473548777347	SHIFT	16
122112	1326944	I'm in Stan's office.	I'm in Stan's office	63089576	1473548777283	1473548777411	S	83
122112	1326944	I'm in Stan's office.	I'm in Stan's office	63089577	1473548777469	1473548777609	t	84
122112	1326944	I'm in Stan's office.	I'm in Stan's office	63089586	1473548777592	1473548777743	a	65
122112	1326944	I'm in Stan's office.	I'm in Stan's office	63089578	1473548777656	1473548777736	n	78
122112	1326944	I'm in Stan's office.	I'm in Stan's office	63089588	1473548778033	1473548778142	'	222
122112	1326944	I'm in Stan's office.	I'm in Stan's office	63089591	1473548778170	1473548778298	s	83
122112	1326944	I'm in Stan's office.	I'm in Stan's office	63089594	1473548778309	1473548778423	 	32
122112	1326944	I'm in Stan's office.	I'm in Stan's office	63089597	1473548778462	1473548778567	o	79
122112	1326944	I'm in Stan's office.	I'm in Stan's office	63089603	1473548778506	1473548778577	f	70
122112	1326944	I'm in Stan's office.	I'm in Stan's office	63089605	1473548778630	1473548778738	f	70
122112	1326944	I'm in Stan's office.	I'm in Stan's office	63089607	1473548778726	1473548778859	i	73
122112	1326944	I'm in Stan's office.	I'm in Stan's office	63089609	1473548778827	1473548778960	c	67
122112	1326946	I hope you are feeling better.	I hoe you are feeling better	63089678	1473548778897	1473548782408	e	69
122112	1326946	I hope you are feeling better.	I hoe you are feeling better	63089657	1473548780747	1473548780880	SHIFT	16
122112	1326946	I hope you are feeling better.	I hoe you are feeling better	63089656	1473548780801	1473548780870	I	73
122112	1326946	I hope you are feeling better.	I hoe you are feeling better	63089658	1473548780927	1473548781018	 	32
122112	1326946	I hope you are feeling better.	I hoe you are feeling better	63089659	1473548781099	1473548781184	u	85
122112	1326946	I hope you are feeling better.	I hoe you are feeling better	63089660	1473548781282	1473548781416	o	79
122112	1326946	I hope you are feeling better.	I hoe you are feeling better	63089661	1473548781676	1473548781748	BKSP	8
122112	1326946	I hope you are feeling better.	I hoe you are feeling better	63089663	1473548781783	1473548781847	BKSP	8
122112	1326946	I hope you are feeling better.	I hoe you are feeling better	63089665	1473548781945	1473548782042	h	72
122112	1326946	I hope you are feeling better.	I hoe you are feeling better	63089676	1473548782135	1473548782289	o	79
122112	1326946	I hope you are feeling better.	I hoe you are feeling better	63089677	1473548782188	1473548782294	p	80
122112	1326946	I hope you are feeling better.	I hoe you are feeling better	63089679	1473548782359	1473548782460	 	32
122112	1326946	I hope you are feeling better.	I hoe you are feeling better	63089680	1473548782560	1473548782625	y	89
122112	1326946	I hope you are feeling better.	I hoe you are feeling better	63089683	1473548782597	1473548782753	o	79
122112	1326946	I hope you are feeling better.	I hoe you are feeling better	63089685	1473548782707	1473548782796	u	85
122112	1326946	I hope you are feeling better.	I hoe you are feeling better	63089687	1473548782875	1473548782976	 	32
122112	1326946	I hope you are feeling better.	I hoe you are feeling better	63089691	1473548782911	1473548783046	a	65
122112	1326946	I hope you are feeling better.	I hoe you are feeling better	63089704	1473548782981	1473548783155	r	82
122112	1326946	I hope you are feeling better.	I hoe you are feeling better	63089705	1473548783042	1473548783198	e	69
122112	1326946	I hope you are feeling better.	I hoe you are feeling better	63089707	1473548783161	1473548783279	 	32
122112	1326946	I hope you are feeling better.	I hoe you are feeling better	63089709	1473548783241	1473548783369	f	70
122112	1326946	I hope you are feeling better.	I hoe you are feeling better	63089711	1473548783385	1473548783509	e	69
122112	1326946	I hope you are feeling better.	I hoe you are feeling better	63089712	1473548783560	1473548783688	e	69
122112	1326946	I hope you are feeling better.	I hoe you are feeling better	63089713	1473548783624	1473548783694	l	76
122112	1326946	I hope you are feeling better.	I hoe you are feeling better	63089715	1473548783778	1473548783939	i	73
122112	1326946	I hope you are feeling better.	I hoe you are feeling better	63089714	1473548783820	1473548783933	n	78
122112	1326946	I hope you are feeling better.	I hoe you are feeling better	63089716	1473548783908	1473548784018	g	71
122112	1326946	I hope you are feeling better.	I hoe you are feeling better	63089717	1473548783986	1473548784073	 	32
122112	1326946	I hope you are feeling better.	I hoe you are feeling better	63089718	1473548784156	1473548784326	b	66
122112	1326946	I hope you are feeling better.	I hoe you are feeling better	63089724	1473548784392	1473548784477	e	69
122112	1326946	I hope you are feeling better.	I hoe you are feeling better	63089725	1473548784525	1473548784615	t	84
122112	1326946	I hope you are feeling better.	I hoe you are feeling better	63089726	1473548784666	1473548784757	t	84
