PARTICIPANT_ID	TEST_SECTION_ID	SENTENCE	USER_INPUT	KEYSTROKE_ID	PRESS_TIME	RELEASE_TIME	LETTER	KEYCODE
122888	1335650	We'll tell you who has the edge.	We'll tell you who has the edge.	63505070	1473564923316	1473564923895	SHIFT	16
122888	1335650	We'll tell you who has the edge.	We'll tell you who has the edge.	63505068	1473564923692	1473564923827	W	87
122888	1335650	We'll tell you who has the edge.	We'll tell you who has the edge.	63505074	1473564924148	1473564924238	e	69
122888	1335650	We'll tell you who has the edge.	We'll tell you who has the edge.	63505078	1473564924656	1473564924800	'	222
122888	1335650	We'll tell you who has the edge.	We'll tell you who has the edge.	63505083	1473564924906	1473564925010	l	76
122888	1335650	We'll tell you who has the edge.	We'll tell you who has the edge.	63505087	1473564925092	1473564925208	l	76
122888	1335650	We'll tell you who has the edge.	We'll tell you who has the edge.	63505106	1473564925243	1473564925403	 	32
122888	1335650	We'll tell you who has the edge.	We'll tell you who has the edge.	63505110	1473564925391	1473564925491	t	84
122888	1335650	We'll tell you who has the edge.	We'll tell you who has the edge.	63505113	1473564925507	1473564925614	e	69
122888	1335650	We'll tell you who has the edge.	We'll tell you who has the edge.	63505115	1473564925627	1473564925906	l	76
122888	1335650	We'll tell you who has the edge.	We'll tell you who has the edge.	63505163	1473564925895	1473564926015	 	32
122888	1335650	We'll tell you who has the edge.	We'll tell you who has the edge.	63505166	1473564926557	1473564926641	BKSP	8
122888	1335650	We'll tell you who has the edge.	We'll tell you who has the edge.	63505167	1473564927081	1473564927193	l	76
122888	1335650	We'll tell you who has the edge.	We'll tell you who has the edge.	63505169	1473564927251	1473564927362	 	32
122888	1335650	We'll tell you who has the edge.	We'll tell you who has the edge.	63505171	1473564927379	1473564927459	y	89
122888	1335650	We'll tell you who has the edge.	We'll tell you who has the edge.	63505172	1473564927463	1473564927604	o	79
122888	1335650	We'll tell you who has the edge.	We'll tell you who has the edge.	63505191	1473564927579	1473564927698	u	85
122888	1335650	We'll tell you who has the edge.	We'll tell you who has the edge.	63505194	1473564927671	1473564927771	 	32
122888	1335650	We'll tell you who has the edge.	We'll tell you who has the edge.	63505196	1473564927852	1473564927988	w	87
122888	1335650	We'll tell you who has the edge.	We'll tell you who has the edge.	63505197	1473564927965	1473564928084	h	72
122888	1335650	We'll tell you who has the edge.	We'll tell you who has the edge.	63505198	1473564928089	1473564928221	o	79
122888	1335650	We'll tell you who has the edge.	We'll tell you who has the edge.	63505199	1473564928239	1473564928331	 	32
122888	1335650	We'll tell you who has the edge.	We'll tell you who has the edge.	63505212	1473564928351	1473564928443	h	72
122888	1335650	We'll tell you who has the edge.	We'll tell you who has the edge.	63505215	1473564928455	1473564928579	a	65
122888	1335650	We'll tell you who has the edge.	We'll tell you who has the edge.	63505218	1473564928507	1473564928695	s	83
122888	1335650	We'll tell you who has the edge.	We'll tell you who has the edge.	63505221	1473564928654	1473564928763	 	32
122888	1335650	We'll tell you who has the edge.	We'll tell you who has the edge.	63505224	1473564928786	1473564928906	t	84
122888	1335650	We'll tell you who has the edge.	We'll tell you who has the edge.	63505252	1473564928850	1473564928966	h	72
122888	1335650	We'll tell you who has the edge.	We'll tell you who has the edge.	63505255	1473564928974	1473564929078	e	69
122888	1335650	We'll tell you who has the edge.	We'll tell you who has the edge.	63505256	1473564929046	1473564929158	 	32
122888	1335650	We'll tell you who has the edge.	We'll tell you who has the edge.	63505257	1473564929345	1473564929457	e	69
122888	1335650	We'll tell you who has the edge.	We'll tell you who has the edge.	63505258	1473564929706	1473564929819	d	68
122888	1335650	We'll tell you who has the edge.	We'll tell you who has the edge.	63505259	1473564929949	1473564930021	g	71
122888	1335650	We'll tell you who has the edge.	We'll tell you who has the edge.	63505285	1473564930105	1473564930189	e	69
122888	1335650	We'll tell you who has the edge.	We'll tell you who has the edge.	63505286	1473564930533	1473564930669	.	190
122888	1335656	Yes I am coming twice.	Yes I am coming twice.	63505363	1473564932385	1473564932572	SHIFT	16
122888	1335656	Yes I am coming twice.	Yes I am coming twice.	63505366	1473564932529	1473564932613	Y	89
122888	1335656	Yes I am coming twice.	Yes I am coming twice.	63505371	1473564932650	1473564932862	e	69
122888	1335656	Yes I am coming twice.	Yes I am coming twice.	63505375	1473564932758	1473564932926	s	83
122888	1335656	Yes I am coming twice.	Yes I am coming twice.	63505379	1473564932870	1473564932982	 	32
122888	1335656	Yes I am coming twice.	Yes I am coming twice.	63505383	1473564933049	1473564933240	SHIFT	16
122888	1335656	Yes I am coming twice.	Yes I am coming twice.	63505408	1473564933149	1473564933245	I	73
122888	1335656	Yes I am coming twice.	Yes I am coming twice.	63505410	1473564933302	1473564933410	 	32
122888	1335656	Yes I am coming twice.	Yes I am coming twice.	63505411	1473564933422	1473564933514	a	65
122888	1335656	Yes I am coming twice.	Yes I am coming twice.	63505412	1473564933555	1473564933655	m	77
122888	1335656	Yes I am coming twice.	Yes I am coming twice.	63505413	1473564933713	1473564933781	 	32
122888	1335656	Yes I am coming twice.	Yes I am coming twice.	63505415	1473564933875	1473564933977	c	67
122888	1335656	Yes I am coming twice.	Yes I am coming twice.	63505451	1473564933939	1473564934042	o	79
122888	1335656	Yes I am coming twice.	Yes I am coming twice.	63505452	1473564934114	1473564934202	m	77
122888	1335656	Yes I am coming twice.	Yes I am coming twice.	63505453	1473564934836	1473564934916	i	73
122888	1335656	Yes I am coming twice.	Yes I am coming twice.	63505454	1473564935028	1473564935108	n	78
122888	1335656	Yes I am coming twice.	Yes I am coming twice.	63505455	1473564935174	1473564935277	g	71
122888	1335656	Yes I am coming twice.	Yes I am coming twice.	63505456	1473564935278	1473564935378	 	32
122888	1335656	Yes I am coming twice.	Yes I am coming twice.	63505492	1473564935698	1473564935786	t	84
122888	1335656	Yes I am coming twice.	Yes I am coming twice.	63505494	1473564935882	1473564936018	w	87
122888	1335656	Yes I am coming twice.	Yes I am coming twice.	63505496	1473564936054	1473564936146	i	73
122888	1335656	Yes I am coming twice.	Yes I am coming twice.	63505499	1473564936277	1473564936373	c	67
122888	1335656	Yes I am coming twice.	Yes I am coming twice.	63505501	1473564936465	1473564936560	e	69
122888	1335656	Yes I am coming twice.	Yes I am coming twice.	63505498	1473564936569	1473564936669	.	190
122888	1335660	The delegation is to visit a metal works.	The delegation is to visit a metal works. 	63505607	1473564937543	1473564938443	l	76
122888	1335660	The delegation is to visit a metal works.	The delegation is to visit a metal works. 	63505609	1473564938603	1473564938694	BKSP	8
122888	1335660	The delegation is to visit a metal works.	The delegation is to visit a metal works. 	63505612	1473564939343	1473564939502	SHIFT	16
122888	1335660	The delegation is to visit a metal works.	The delegation is to visit a metal works. 	63505615	1473564939439	1473564939539	T	84
122888	1335660	The delegation is to visit a metal works.	The delegation is to visit a metal works. 	63505618	1473564939572	1473564939676	h	72
122888	1335660	The delegation is to visit a metal works.	The delegation is to visit a metal works. 	63505621	1473564939664	1473564939763	e	69
122888	1335660	The delegation is to visit a metal works.	The delegation is to visit a metal works. 	63505623	1473564939772	1473564939860	 	32
122888	1335660	The delegation is to visit a metal works.	The delegation is to visit a metal works. 	63505641	1473564939886	1473564939978	d	68
122888	1335660	The delegation is to visit a metal works.	The delegation is to visit a metal works. 	63505644	1473564940053	1473564940157	e	69
122888	1335660	The delegation is to visit a metal works.	The delegation is to visit a metal works. 	63505646	1473564940194	1473564940330	l	76
122888	1335660	The delegation is to visit a metal works.	The delegation is to visit a metal works. 	63505651	1473564940395	1473564940414	a	65
122888	1335660	The delegation is to visit a metal works.	The delegation is to visit a metal works. 	63505654	1473564940741	1473564940812	=	187
122888	1335660	The delegation is to visit a metal works.	The delegation is to visit a metal works. 	63505678	1473564940866	1473564940968	e	69
122888	1335660	The delegation is to visit a metal works.	The delegation is to visit a metal works. 	63505680	1473564941172	1473564941243	BKSP	8
122888	1335660	The delegation is to visit a metal works.	The delegation is to visit a metal works. 	63505682	1473564941342	1473564941413	BKSP	8
122888	1335660	The delegation is to visit a metal works.	The delegation is to visit a metal works. 	63505685	1473564941483	1473564941562	BKSP	8
122888	1335660	The delegation is to visit a metal works.	The delegation is to visit a metal works. 	63505688	1473564941808	1473564941915	e	69
122888	1335660	The delegation is to visit a metal works.	The delegation is to visit a metal works. 	63505692	1473564941997	1473564942092	g	71
122888	1335660	The delegation is to visit a metal works.	The delegation is to visit a metal works. 	63505694	1473564942137	1473564942260	a	65
122888	1335660	The delegation is to visit a metal works.	The delegation is to visit a metal works. 	63505698	1473564942336	1473564942427	t	84
122888	1335660	The delegation is to visit a metal works.	The delegation is to visit a metal works. 	63505703	1473564942497	1473564942589	i	73
122888	1335660	The delegation is to visit a metal works.	The delegation is to visit a metal works. 	63505704	1473564942622	1473564942749	o	79
122888	1335660	The delegation is to visit a metal works.	The delegation is to visit a metal works. 	63505705	1473564942758	1473564942881	n	78
122888	1335660	The delegation is to visit a metal works.	The delegation is to visit a metal works. 	63505706	1473564942874	1473564942949	 	32
122888	1335660	The delegation is to visit a metal works.	The delegation is to visit a metal works. 	63505707	1473564943025	1473564943102	i	73
122888	1335660	The delegation is to visit a metal works.	The delegation is to visit a metal works. 	63505713	1473564943171	1473564943278	s	83
122888	1335660	The delegation is to visit a metal works.	The delegation is to visit a metal works. 	63505714	1473564943279	1473564943362	 	32
122888	1335660	The delegation is to visit a metal works.	The delegation is to visit a metal works. 	63505715	1473564943435	1473564943548	t	84
122888	1335660	The delegation is to visit a metal works.	The delegation is to visit a metal works. 	63505716	1473564943527	1473564943614	o	79
122888	1335660	The delegation is to visit a metal works.	The delegation is to visit a metal works. 	63505718	1473564943636	1473564943715	 	32
122888	1335660	The delegation is to visit a metal works.	The delegation is to visit a metal works. 	63505739	1473564943752	1473564943891	v	86
122888	1335660	The delegation is to visit a metal works.	The delegation is to visit a metal works. 	63505742	1473564943881	1473564943951	i	73
122888	1335660	The delegation is to visit a metal works.	The delegation is to visit a metal works. 	63505745	1473564943981	1473564944132	s	83
122888	1335660	The delegation is to visit a metal works.	The delegation is to visit a metal works. 	63505749	1473564944089	1473564944176	i	73
122888	1335660	The delegation is to visit a metal works.	The delegation is to visit a metal works. 	63505753	1473564944217	1473564944314	t	84
122888	1335660	The delegation is to visit a metal works.	The delegation is to visit a metal works. 	63505767	1473564944317	1473564944400	 	32
122888	1335660	The delegation is to visit a metal works.	The delegation is to visit a metal works. 	63505771	1473564944477	1473564944613	a	65
122888	1335660	The delegation is to visit a metal works.	The delegation is to visit a metal works. 	63505774	1473564944617	1473564944724	 	32
122888	1335660	The delegation is to visit a metal works.	The delegation is to visit a metal works. 	63505780	1473564944819	1473564944926	m	77
122888	1335660	The delegation is to visit a metal works.	The delegation is to visit a metal works. 	63505802	1473564944915	1473564945059	e	69
122888	1335660	The delegation is to visit a metal works.	The delegation is to visit a metal works. 	63505803	1473564945043	1473564945150	t	84
122888	1335660	The delegation is to visit a metal works.	The delegation is to visit a metal works. 	63505804	1473564945139	1473564945246	a	65
122888	1335660	The delegation is to visit a metal works.	The delegation is to visit a metal works. 	63505805	1473564945269	1473564945384	l	76
122888	1335660	The delegation is to visit a metal works.	The delegation is to visit a metal works. 	63505808	1473564945401	1473564945468	 	32
122888	1335660	The delegation is to visit a metal works.	The delegation is to visit a metal works. 	63505812	1473564945487	1473564945614	w	87
122888	1335660	The delegation is to visit a metal works.	The delegation is to visit a metal works. 	63505827	1473564945599	1473564945698	o	79
122888	1335660	The delegation is to visit a metal works.	The delegation is to visit a metal works. 	63505831	1473564945699	1473564945782	r	82
122888	1335660	The delegation is to visit a metal works.	The delegation is to visit a metal works. 	63505833	1473564945799	1473564945914	k	75
122888	1335660	The delegation is to visit a metal works.	The delegation is to visit a metal works. 	63505837	1473564945950	1473564946057	s	83
122888	1335660	The delegation is to visit a metal works.	The delegation is to visit a metal works. 	63505840	1473564946084	1473564946183	.	190
122888	1335660	The delegation is to visit a metal works.	The delegation is to visit a metal works. 	63505843	1473564946310	1473564946361	 	32
122888	1335670	Don't use Bennett this week.	Don't use Bennett this week.	63505912	1473564948011	1473564948175	SHIFT	16
122888	1335670	Don't use Bennett this week.	Don't use Bennett this week.	63505916	1473564948120	1473564948239	D	68
122888	1335670	Don't use Bennett this week.	Don't use Bennett this week.	63505921	1473564948244	1473564948595	o	79
122888	1335670	Don't use Bennett this week.	Don't use Bennett this week.	63505924	1473564948504	1473564948651	n	78
122888	1335670	Don't use Bennett this week.	Don't use Bennett this week.	63505927	1473564948765	1473564948896	'	222
122888	1335670	Don't use Bennett this week.	Don't use Bennett this week.	63505928	1473564948942	1473564949021	t	84
122888	1335670	Don't use Bennett this week.	Don't use Bennett this week.	63505935	1473564949055	1473564949134	 	32
122888	1335670	Don't use Bennett this week.	Don't use Bennett this week.	63505937	1473564949268	1473564949363	u	85
122888	1335670	Don't use Bennett this week.	Don't use Bennett this week.	63505943	1473564949372	1473564949515	s	83
122888	1335670	Don't use Bennett this week.	Don't use Bennett this week.	63505948	1473564949513	1473564949655	e	69
122888	1335670	Don't use Bennett this week.	Don't use Bennett this week.	63505953	1473564949660	1473564949747	 	32
122888	1335670	Don't use Bennett this week.	Don't use Bennett this week.	63505994	1473564949942	1473564950130	SHIFT	16
122888	1335670	Don't use Bennett this week.	Don't use Bennett this week.	63505993	1473564950043	1473564950118	B	66
122888	1335670	Don't use Bennett this week.	Don't use Bennett this week.	63505996	1473564950222	1473564950309	e	69
122888	1335670	Don't use Bennett this week.	Don't use Bennett this week.	63505998	1473564950558	1473564950617	n	78
122888	1335670	Don't use Bennett this week.	Don't use Bennett this week.	63506000	1473564950727	1473564950774	n	78
122888	1335670	Don't use Bennett this week.	Don't use Bennett this week.	63506002	1473564951066	1473564951137	BKSP	8
122888	1335670	Don't use Bennett this week.	Don't use Bennett this week.	63506003	1473564951264	1473564951367	e	69
122888	1335670	Don't use Bennett this week.	Don't use Bennett this week.	63506061	1473564951781	1473564951856	BKSP	8
122888	1335670	Don't use Bennett this week.	Don't use Bennett this week.	63506063	1473564952055	1473564952110	n	78
122888	1335670	Don't use Bennett this week.	Don't use Bennett this week.	63506064	1473564952221	1473564952324	e	69
122888	1335670	Don't use Bennett this week.	Don't use Bennett this week.	63506066	1473564952464	1473564952543	t	84
122888	1335670	Don't use Bennett this week.	Don't use Bennett this week.	63506068	1473564952636	1473564952715	t	84
122888	1335670	Don't use Bennett this week.	Don't use Bennett this week.	63506070	1473564952782	1473564952861	e	69
122888	1335670	Don't use Bennett this week.	Don't use Bennett this week.	63506109	1473564952950	1473564953070	 	32
122888	1335670	Don't use Bennett this week.	Don't use Bennett this week.	63506111	1473564953265	1473564953333	BKSP	8
122888	1335670	Don't use Bennett this week.	Don't use Bennett this week.	63506113	1473564953416	1473564953503	BKSP	8
122888	1335670	Don't use Bennett this week.	Don't use Bennett this week.	63506116	1473564953619	1473564953698	 	32
122888	1335670	Don't use Bennett this week.	Don't use Bennett this week.	63506119	1473564953817	1473564953920	t	84
122888	1335670	Don't use Bennett this week.	Don't use Bennett this week.	63506121	1473564953954	1473564954026	h	72
122888	1335670	Don't use Bennett this week.	Don't use Bennett this week.	63506123	1473564954121	1473564954208	i	73
122888	1335670	Don't use Bennett this week.	Don't use Bennett this week.	63506136	1473564954261	1473564954348	s	83
122888	1335670	Don't use Bennett this week.	Don't use Bennett this week.	63506138	1473564954341	1473564954424	 	32
122888	1335670	Don't use Bennett this week.	Don't use Bennett this week.	63506140	1473564954450	1473564954557	w	87
122888	1335670	Don't use Bennett this week.	Don't use Bennett this week.	63506142	1473564954623	1473564954710	e	69
122888	1335670	Don't use Bennett this week.	Don't use Bennett this week.	63506144	1473564954787	1473564954878	e	69
122888	1335670	Don't use Bennett this week.	Don't use Bennett this week.	63506148	1473564954867	1473564954946	k	75
122888	1335670	Don't use Bennett this week.	Don't use Bennett this week.	63506151	1473564955035	1473564955111	.	190
122888	1335676	He said he had been surprised to see his name on the list.	He said he had been surprised to see his name on the list.	63506215	1473564956893	1473564957049	SHIFT	16
122888	1335676	He said he had been surprised to see his name on the list.	He said he had been surprised to see his name on the list.	63506217	1473564957006	1473564957117	H	72
122888	1335676	He said he had been surprised to see his name on the list.	He said he had been surprised to see his name on the list.	63506219	1473564957126	1473564957245	e	69
122888	1335676	He said he had been surprised to see his name on the list.	He said he had been surprised to see his name on the list.	63506220	1473564957250	1473564957329	 	32
122888	1335676	He said he had been surprised to see his name on the list.	He said he had been surprised to see his name on the list.	63506221	1473564957342	1473564957489	s	83
122888	1335676	He said he had been surprised to see his name on the list.	He said he had been surprised to see his name on the list.	63506241	1473564957457	1473564957593	a	65
122888	1335676	He said he had been surprised to see his name on the list.	He said he had been surprised to see his name on the list.	63506243	1473564957554	1473564957641	i	73
122888	1335676	He said he had been surprised to see his name on the list.	He said he had been surprised to see his name on the list.	63506247	1473564957673	1473564957796	d	68
122888	1335676	He said he had been surprised to see his name on the list.	He said he had been surprised to see his name on the list.	63506252	1473564957797	1473564957868	 	32
122888	1335676	He said he had been surprised to see his name on the list.	He said he had been surprised to see his name on the list.	63506256	1473564957943	1473564958018	h	72
122888	1335676	He said he had been surprised to see his name on the list.	He said he had been surprised to see his name on the list.	63506263	1473564958068	1473564958167	e	69
122888	1335676	He said he had been surprised to see his name on the list.	He said he had been surprised to see his name on the list.	63506281	1473564958202	1473564958285	 	32
122888	1335676	He said he had been surprised to see his name on the list.	He said he had been surprised to see his name on the list.	63506283	1473564958336	1473564958407	h	72
122888	1335676	He said he had been surprised to see his name on the list.	He said he had been surprised to see his name on the list.	63506286	1473564958442	1473564958589	a	65
122888	1335676	He said he had been surprised to see his name on the list.	He said he had been surprised to see his name on the list.	63506288	1473564958664	1473564958756	d	68
122888	1335676	He said he had been surprised to see his name on the list.	He said he had been surprised to see his name on the list.	63506289	1473564958783	1473564958862	 	32
122888	1335676	He said he had been surprised to see his name on the list.	He said he had been surprised to see his name on the list.	63506316	1473564958942	1473564959021	b	66
122888	1335676	He said he had been surprised to see his name on the list.	He said he had been surprised to see his name on the list.	63506319	1473564959119	1473564959190	e	69
122888	1335676	He said he had been surprised to see his name on the list.	He said he had been surprised to see his name on the list.	63506322	1473564959258	1473564959345	e	69
122888	1335676	He said he had been surprised to see his name on the list.	He said he had been surprised to see his name on the list.	63506325	1473564959346	1473564959437	n	78
122888	1335676	He said he had been surprised to see his name on the list.	He said he had been surprised to see his name on the list.	63506326	1473564959472	1473564959551	 	32
122888	1335676	He said he had been surprised to see his name on the list.	He said he had been surprised to see his name on the list.	63506348	1473564959520	1473564959635	s	83
122888	1335676	He said he had been surprised to see his name on the list.	He said he had been surprised to see his name on the list.	63506351	1473564959684	1473564959831	u	85
122888	1335676	He said he had been surprised to see his name on the list.	He said he had been surprised to see his name on the list.	63506355	1473564959819	1473564959909	r	82
122888	1335676	He said he had been surprised to see his name on the list.	He said he had been surprised to see his name on the list.	63506362	1473564959908	1473564960003	p	80
122888	1335676	He said he had been surprised to see his name on the list.	He said he had been surprised to see his name on the list.	63506366	1473564960024	1473564960111	r	82
122888	1335676	He said he had been surprised to see his name on the list.	He said he had been surprised to see his name on the list.	63506368	1473564960147	1473564960250	i	73
122888	1335676	He said he had been surprised to see his name on the list.	He said he had been surprised to see his name on the list.	63506380	1473564960263	1473564960422	s	83
122888	1335676	He said he had been surprised to see his name on the list.	He said he had been surprised to see his name on the list.	63506382	1473564960394	1473564960518	e	69
122888	1335676	He said he had been surprised to see his name on the list.	He said he had been surprised to see his name on the list.	63506386	1473564960603	1473564960706	d	68
122888	1335676	He said he had been surprised to see his name on the list.	He said he had been surprised to see his name on the list.	63506390	1473564960740	1473564960819	 	32
122888	1335676	He said he had been surprised to see his name on the list.	He said he had been surprised to see his name on the list.	63506394	1473564960847	1473564960966	t	84
122888	1335676	He said he had been surprised to see his name on the list.	He said he had been surprised to see his name on the list.	63506419	1473564960951	1473564961078	o	79
122888	1335676	He said he had been surprised to see his name on the list.	He said he had been surprised to see his name on the list.	63506421	1473564961071	1473564961142	 	32
122888	1335676	He said he had been surprised to see his name on the list.	He said he had been surprised to see his name on the list.	63506424	1473564961155	1473564961298	s	83
122888	1335676	He said he had been surprised to see his name on the list.	He said he had been surprised to see his name on the list.	63506429	1473564961303	1473564961394	e	69
122888	1335676	He said he had been surprised to see his name on the list.	He said he had been surprised to see his name on the list.	63506433	1473564961458	1473564961553	e	69
122888	1335676	He said he had been surprised to see his name on the list.	He said he had been surprised to see his name on the list.	63506438	1473564961562	1473564961681	 	32
122888	1335676	He said he had been surprised to see his name on the list.	He said he had been surprised to see his name on the list.	63506451	1473564961715	1473564961786	h	72
122888	1335676	He said he had been surprised to see his name on the list.	He said he had been surprised to see his name on the list.	63506455	1473564961879	1473564961986	i	73
122888	1335676	He said he had been surprised to see his name on the list.	He said he had been surprised to see his name on the list.	63506462	1473564962008	1473564962135	s	83
122888	1335676	He said he had been surprised to see his name on the list.	He said he had been surprised to see his name on the list.	63506469	1473564962128	1473564962259	 	32
122888	1335676	He said he had been surprised to see his name on the list.	He said he had been surprised to see his name on the list.	63506483	1473564962239	1473564962339	n	78
122888	1335676	He said he had been surprised to see his name on the list.	He said he had been surprised to see his name on the list.	63506484	1473564962351	1473564962472	a	65
122888	1335676	He said he had been surprised to see his name on the list.	He said he had been surprised to see his name on the list.	63506485	1473564962468	1473564962555	m	77
122888	1335676	He said he had been surprised to see his name on the list.	He said he had been surprised to see his name on the list.	63506486	1473564962576	1473564962667	e	69
122888	1335676	He said he had been surprised to see his name on the list.	He said he had been surprised to see his name on the list.	63506488	1473564962644	1473564962779	 	32
122888	1335676	He said he had been surprised to see his name on the list.	He said he had been surprised to see his name on the list.	63506516	1473564962751	1473564962863	o	79
122888	1335676	He said he had been surprised to see his name on the list.	He said he had been surprised to see his name on the list.	63506519	1473564962887	1473564962998	n	78
122888	1335676	He said he had been surprised to see his name on the list.	He said he had been surprised to see his name on the list.	63506522	1473564963015	1473564963106	 	32
122888	1335676	He said he had been surprised to see his name on the list.	He said he had been surprised to see his name on the list.	63506526	1473564963122	1473564963226	t	84
122888	1335676	He said he had been surprised to see his name on the list.	He said he had been surprised to see his name on the list.	63506528	1473564963206	1473564963294	h	72
122888	1335676	He said he had been surprised to see his name on the list.	He said he had been surprised to see his name on the list.	63506530	1473564963316	1473564963428	e	69
122888	1335676	He said he had been surprised to see his name on the list.	He said he had been surprised to see his name on the list.	63506535	1473564963405	1473564963508	 	32
122888	1335676	He said he had been surprised to see his name on the list.	He said he had been surprised to see his name on the list.	63506537	1473564963469	1473564963556	l	76
122888	1335676	He said he had been surprised to see his name on the list.	He said he had been surprised to see his name on the list.	63506539	1473564963599	1473564963714	i	73
122888	1335676	He said he had been surprised to see his name on the list.	He said he had been surprised to see his name on the list.	63506541	1473564963643	1473564963778	s	83
122888	1335676	He said he had been surprised to see his name on the list.	He said he had been surprised to see his name on the list.	63506542	1473564963747	1473564963850	t	84
122888	1335676	He said he had been surprised to see his name on the list.	He said he had been surprised to see his name on the list.	63506543	1473564963870	1473564963950	.	190
122888	1335682	Tonight is my anniversary.	Tonight is my anniversary.	63506613	1473564965568	1473564965780	SHIFT	16
122888	1335682	Tonight is my anniversary.	Tonight is my anniversary.	63506615	1473564965685	1473564965800	T	84
122888	1335682	Tonight is my anniversary.	Tonight is my anniversary.	63506618	1473564965867	1473564965986	o	79
122888	1335682	Tonight is my anniversary.	Tonight is my anniversary.	63506625	1473564966041	1473564966137	n	78
122888	1335682	Tonight is my anniversary.	Tonight is my anniversary.	63506629	1473564966227	1473564966319	i	73
122888	1335682	Tonight is my anniversary.	Tonight is my anniversary.	63506634	1473564966353	1473564966461	g	71
122888	1335682	Tonight is my anniversary.	Tonight is my anniversary.	63506658	1473564966445	1473564966545	h	72
122888	1335682	Tonight is my anniversary.	Tonight is my anniversary.	63506660	1473564966583	1473564966679	t	84
122888	1335682	Tonight is my anniversary.	Tonight is my anniversary.	63506661	1473564966687	1473564966805	 	32
122888	1335682	Tonight is my anniversary.	Tonight is my anniversary.	63506662	1473564966803	1473564966911	i	73
122888	1335682	Tonight is my anniversary.	Tonight is my anniversary.	63506663	1473564966924	1473564967051	s	83
122888	1335682	Tonight is my anniversary.	Tonight is my anniversary.	63506687	1473564967020	1473564967161	 	32
122888	1335682	Tonight is my anniversary.	Tonight is my anniversary.	63506689	1473564967136	1473564967263	m	77
122888	1335682	Tonight is my anniversary.	Tonight is my anniversary.	63506695	1473564967371	1473564967451	y	89
122888	1335682	Tonight is my anniversary.	Tonight is my anniversary.	63506702	1473564967531	1473564967611	 	32
122888	1335682	Tonight is my anniversary.	Tonight is my anniversary.	63506706	1473564967649	1473564967753	a	65
122888	1335682	Tonight is my anniversary.	Tonight is my anniversary.	63506708	1473564967766	1473564967837	n	78
122888	1335682	Tonight is my anniversary.	Tonight is my anniversary.	63506724	1473564967928	1473564967995	n	78
122888	1335682	Tonight is my anniversary.	Tonight is my anniversary.	63506728	1473564968107	1473564968183	i	73
122888	1335682	Tonight is my anniversary.	Tonight is my anniversary.	63506731	1473564968216	1473564968320	v	86
122888	1335682	Tonight is my anniversary.	Tonight is my anniversary.	63506736	1473564968368	1473564968520	e	69
122888	1335682	Tonight is my anniversary.	Tonight is my anniversary.	63506769	1473564968472	1473564968576	r	82
122888	1335682	Tonight is my anniversary.	Tonight is my anniversary.	63506773	1473564968604	1473564968760	s	83
122888	1335682	Tonight is my anniversary.	Tonight is my anniversary.	63506776	1473564968764	1473564968909	a	65
122888	1335682	Tonight is my anniversary.	Tonight is my anniversary.	63506779	1473564968905	1473564969012	r	82
122888	1335682	Tonight is my anniversary.	Tonight is my anniversary.	63506781	1473564969051	1473564969127	y	89
122888	1335682	Tonight is my anniversary.	Tonight is my anniversary.	63506782	1473564969251	1473564969318	.	190
122888	1335686	The artist assures me it is a turkey.	The artist assures me it is a turkey.	63506864	1473564970818	1473564971018	SHIFT	16
122888	1335686	The artist assures me it is a turkey.	The artist assures me it is a turkey.	63506866	1473564970938	1473564971050	T	84
122888	1335686	The artist assures me it is a turkey.	The artist assures me it is a turkey.	63506869	1473564971082	1473564971177	h	72
122888	1335686	The artist assures me it is a turkey.	The artist assures me it is a turkey.	63506873	1473564971280	1473564971384	e	69
122888	1335686	The artist assures me it is a turkey.	The artist assures me it is a turkey.	63506877	1473564971438	1473564971518	 	32
122888	1335686	The artist assures me it is a turkey.	The artist assures me it is a turkey.	63506878	1473564971541	1473564971673	a	65
122888	1335686	The artist assures me it is a turkey.	The artist assures me it is a turkey.	63506894	1473564971633	1473564971757	r	82
122888	1335686	The artist assures me it is a turkey.	The artist assures me it is a turkey.	63506896	1473564971828	1473564971932	t	84
122888	1335686	The artist assures me it is a turkey.	The artist assures me it is a turkey.	63506898	1473564971970	1473564972061	i	73
122888	1335686	The artist assures me it is a turkey.	The artist assures me it is a turkey.	63506901	1473564972069	1473564972201	s	83
122888	1335686	The artist assures me it is a turkey.	The artist assures me it is a turkey.	63506903	1473564972178	1473564972281	t	84
122888	1335686	The artist assures me it is a turkey.	The artist assures me it is a turkey.	63506905	1473564972367	1473564972471	 	32
122888	1335686	The artist assures me it is a turkey.	The artist assures me it is a turkey.	63506913	1473564972517	1473564972637	a	65
122888	1335686	The artist assures me it is a turkey.	The artist assures me it is a turkey.	63506916	1473564972689	1473564972805	s	83
122888	1335686	The artist assures me it is a turkey.	The artist assures me it is a turkey.	63506919	1473564972883	1473564973008	s	83
122888	1335686	The artist assures me it is a turkey.	The artist assures me it is a turkey.	63506923	1473564973003	1473564973075	u	85
122888	1335686	The artist assures me it is a turkey.	The artist assures me it is a turkey.	63506927	1473564973100	1473564973256	r	82
122888	1335686	The artist assures me it is a turkey.	The artist assures me it is a turkey.	63506940	1473564973188	1473564973372	e	69
122888	1335686	The artist assures me it is a turkey.	The artist assures me it is a turkey.	63506944	1473564973300	1473564973428	s	83
122888	1335686	The artist assures me it is a turkey.	The artist assures me it is a turkey.	63506950	1473564973392	1473564973546	 	32
122888	1335686	The artist assures me it is a turkey.	The artist assures me it is a turkey.	63506953	1473564973524	1473564973616	m	77
122888	1335686	The artist assures me it is a turkey.	The artist assures me it is a turkey.	63506957	1473564973592	1473564973696	e	69
122888	1335686	The artist assures me it is a turkey.	The artist assures me it is a turkey.	63506959	1473564973720	1473564973812	 	32
122888	1335686	The artist assures me it is a turkey.	The artist assures me it is a turkey.	63506961	1473564973836	1473564973940	i	73
122888	1335686	The artist assures me it is a turkey.	The artist assures me it is a turkey.	63506963	1473564973960	1473564974060	t	84
122888	1335686	The artist assures me it is a turkey.	The artist assures me it is a turkey.	63506964	1473564974064	1473564974168	 	32
122888	1335686	The artist assures me it is a turkey.	The artist assures me it is a turkey.	63506967	1473564974149	1473564974236	i	73
122888	1335686	The artist assures me it is a turkey.	The artist assures me it is a turkey.	63506968	1473564974254	1473564974382	s	83
122888	1335686	The artist assures me it is a turkey.	The artist assures me it is a turkey.	63506995	1473564974362	1473564974446	 	32
122888	1335686	The artist assures me it is a turkey.	The artist assures me it is a turkey.	63506998	1473564974501	1473564974605	a	65
122888	1335686	The artist assures me it is a turkey.	The artist assures me it is a turkey.	63507003	1473564974645	1473564974733	 	32
122888	1335686	The artist assures me it is a turkey.	The artist assures me it is a turkey.	63507005	1473564974883	1473564974975	t	84
122888	1335686	The artist assures me it is a turkey.	The artist assures me it is a turkey.	63507007	1473564975018	1473564975089	u	85
122888	1335686	The artist assures me it is a turkey.	The artist assures me it is a turkey.	63507009	1473564975110	1473564975198	r	82
122888	1335686	The artist assures me it is a turkey.	The artist assures me it is a turkey.	63507024	1473564975258	1473564975362	k	75
122888	1335686	The artist assures me it is a turkey.	The artist assures me it is a turkey.	63507028	1473564975366	1473564975454	e	69
122888	1335686	The artist assures me it is a turkey.	The artist assures me it is a turkey.	63507035	1473564975525	1473564975585	y	89
122888	1335686	The artist assures me it is a turkey.	The artist assures me it is a turkey.	63507039	1473564975728	1473564975796	.	190
122888	1335696	Our schedule now calls for critical communication in the afternoons.	Our schedule now calls for critical communication in the afternoons.	63507112	1473564977677	1473564977861	SHIFT	16
122888	1335696	Our schedule now calls for critical communication in the afternoons.	Our schedule now calls for critical communication in the afternoons.	63507117	1473564977797	1473564977881	O	79
122888	1335696	Our schedule now calls for critical communication in the afternoons.	Our schedule now calls for critical communication in the afternoons.	63507121	1473564978009	1473564978081	u	85
122888	1335696	Our schedule now calls for critical communication in the afternoons.	Our schedule now calls for critical communication in the afternoons.	63507125	1473564978112	1473564978212	r	82
122888	1335696	Our schedule now calls for critical communication in the afternoons.	Our schedule now calls for critical communication in the afternoons.	63507129	1473564978240	1473564978327	 	32
122888	1335696	Our schedule now calls for critical communication in the afternoons.	Our schedule now calls for critical communication in the afternoons.	63507132	1473564978339	1473564978447	s	83
122888	1335696	Our schedule now calls for critical communication in the afternoons.	Our schedule now calls for critical communication in the afternoons.	63507138	1473564978551	1473564978679	c	67
122888	1335696	Our schedule now calls for critical communication in the afternoons.	Our schedule now calls for critical communication in the afternoons.	63507139	1473564978697	1473564978781	h	72
122888	1335696	Our schedule now calls for critical communication in the afternoons.	Our schedule now calls for critical communication in the afternoons.	63507140	1473564978832	1473564978908	e	69
122888	1335696	Our schedule now calls for critical communication in the afternoons.	Our schedule now calls for critical communication in the afternoons.	63507141	1473564978996	1473564979096	d	68
122888	1335696	Our schedule now calls for critical communication in the afternoons.	Our schedule now calls for critical communication in the afternoons.	63507163	1473564979085	1473564979168	u	85
122888	1335696	Our schedule now calls for critical communication in the afternoons.	Our schedule now calls for critical communication in the afternoons.	63507165	1473564979229	1473564979337	l	76
122888	1335696	Our schedule now calls for critical communication in the afternoons.	Our schedule now calls for critical communication in the afternoons.	63507166	1473564979317	1473564979401	e	69
122888	1335696	Our schedule now calls for critical communication in the afternoons.	Our schedule now calls for critical communication in the afternoons.	63507168	1473564979460	1473564979576	 	32
122888	1335696	Our schedule now calls for critical communication in the afternoons.	Our schedule now calls for critical communication in the afternoons.	63507172	1473564979666	1473564979798	n	78
122888	1335696	Our schedule now calls for critical communication in the afternoons.	Our schedule now calls for critical communication in the afternoons.	63507194	1473564979786	1473564979906	o	79
122888	1335696	Our schedule now calls for critical communication in the afternoons.	Our schedule now calls for critical communication in the afternoons.	63507196	1473564979894	1473564979986	w	87
122888	1335696	Our schedule now calls for critical communication in the afternoons.	Our schedule now calls for critical communication in the afternoons.	63507198	1473564980002	1473564980089	 	32
122888	1335696	Our schedule now calls for critical communication in the afternoons.	Our schedule now calls for critical communication in the afternoons.	63507200	1473564980154	1473564980261	c	67
122888	1335696	Our schedule now calls for critical communication in the afternoons.	Our schedule now calls for critical communication in the afternoons.	63507204	1473564980286	1473564980414	a	65
122888	1335696	Our schedule now calls for critical communication in the afternoons.	Our schedule now calls for critical communication in the afternoons.	63507207	1473564980415	1473564980494	l	76
122888	1335696	Our schedule now calls for critical communication in the afternoons.	Our schedule now calls for critical communication in the afternoons.	63507220	1473564980556	1473564980665	l	76
122888	1335696	Our schedule now calls for critical communication in the afternoons.	Our schedule now calls for critical communication in the afternoons.	63507223	1473564980640	1473564980752	s	83
122888	1335696	Our schedule now calls for critical communication in the afternoons.	Our schedule now calls for critical communication in the afternoons.	63507226	1473564980768	1473564980848	 	32
122888	1335696	Our schedule now calls for critical communication in the afternoons.	Our schedule now calls for critical communication in the afternoons.	63507227	1473564980840	1473564980920	f	70
122888	1335696	Our schedule now calls for critical communication in the afternoons.	Our schedule now calls for critical communication in the afternoons.	63507228	1473564980944	1473564981052	o	79
122888	1335696	Our schedule now calls for critical communication in the afternoons.	Our schedule now calls for critical communication in the afternoons.	63507264	1473564981028	1473564981124	r	82
122888	1335696	Our schedule now calls for critical communication in the afternoons.	Our schedule now calls for critical communication in the afternoons.	63507267	1473564981129	1473564981220	 	32
122888	1335696	Our schedule now calls for critical communication in the afternoons.	Our schedule now calls for critical communication in the afternoons.	63507269	1473564981266	1473564981406	c	67
122888	1335696	Our schedule now calls for critical communication in the afternoons.	Our schedule now calls for critical communication in the afternoons.	63507271	1473564981482	1473564981566	r	82
122888	1335696	Our schedule now calls for critical communication in the afternoons.	Our schedule now calls for critical communication in the afternoons.	63507272	1473564981653	1473564981789	i	73
122888	1335696	Our schedule now calls for critical communication in the afternoons.	Our schedule now calls for critical communication in the afternoons.	63507273	1473564981944	1473564982028	t	84
122888	1335696	Our schedule now calls for critical communication in the afternoons.	Our schedule now calls for critical communication in the afternoons.	63507300	1473564982073	1473564982161	i	73
122888	1335696	Our schedule now calls for critical communication in the afternoons.	Our schedule now calls for critical communication in the afternoons.	63507301	1473564982229	1473564982345	c	67
122888	1335696	Our schedule now calls for critical communication in the afternoons.	Our schedule now calls for critical communication in the afternoons.	63507303	1473564982361	1473564982469	a	65
122888	1335696	Our schedule now calls for critical communication in the afternoons.	Our schedule now calls for critical communication in the afternoons.	63507306	1473564982481	1473564982585	l	76
122888	1335696	Our schedule now calls for critical communication in the afternoons.	Our schedule now calls for critical communication in the afternoons.	63507311	1473564982597	1473564982681	 	32
122888	1335696	Our schedule now calls for critical communication in the afternoons.	Our schedule now calls for critical communication in the afternoons.	63507349	1473564982718	1473564982814	c	67
122888	1335696	Our schedule now calls for critical communication in the afternoons.	Our schedule now calls for critical communication in the afternoons.	63507352	1473564982794	1473564982886	o	79
122888	1335696	Our schedule now calls for critical communication in the afternoons.	Our schedule now calls for critical communication in the afternoons.	63507356	1473564982985	1473564983073	m	77
122888	1335696	Our schedule now calls for critical communication in the afternoons.	Our schedule now calls for critical communication in the afternoons.	63507359	1473564983152	1473564983228	m	77
122888	1335696	Our schedule now calls for critical communication in the afternoons.	Our schedule now calls for critical communication in the afternoons.	63507362	1473564983332	1473564983404	u	85
122888	1335696	Our schedule now calls for critical communication in the afternoons.	Our schedule now calls for critical communication in the afternoons.	63507377	1473564983496	1473564983568	n	78
122888	1335696	Our schedule now calls for critical communication in the afternoons.	Our schedule now calls for critical communication in the afternoons.	63507379	1473564983660	1473564983732	i	73
122888	1335696	Our schedule now calls for critical communication in the afternoons.	Our schedule now calls for critical communication in the afternoons.	63507382	1473564983762	1473564983858	c	67
122888	1335696	Our schedule now calls for critical communication in the afternoons.	Our schedule now calls for critical communication in the afternoons.	63507385	1473564983896	1473564984036	a	65
122888	1335696	Our schedule now calls for critical communication in the afternoons.	Our schedule now calls for critical communication in the afternoons.	63507404	1473564983992	1473564984124	t	84
122888	1335696	Our schedule now calls for critical communication in the afternoons.	Our schedule now calls for critical communication in the afternoons.	63507409	1473564984068	1473564984168	i	73
122888	1335696	Our schedule now calls for critical communication in the afternoons.	Our schedule now calls for critical communication in the afternoons.	63507416	1473564984192	1473564984348	o	79
122888	1335696	Our schedule now calls for critical communication in the afternoons.	Our schedule now calls for critical communication in the afternoons.	63507424	1473564984320	1473564984420	n	78
122888	1335696	Our schedule now calls for critical communication in the afternoons.	Our schedule now calls for critical communication in the afternoons.	63507427	1473564984428	1473564984592	 	32
122888	1335696	Our schedule now calls for critical communication in the afternoons.	Our schedule now calls for critical communication in the afternoons.	63507440	1473564984556	1473564984624	i	73
122888	1335696	Our schedule now calls for critical communication in the afternoons.	Our schedule now calls for critical communication in the afternoons.	63507441	1473564984715	1473564984819	n	78
122888	1335696	Our schedule now calls for critical communication in the afternoons.	Our schedule now calls for critical communication in the afternoons.	63507444	1473564984835	1473564984919	 	32
122888	1335696	Our schedule now calls for critical communication in the afternoons.	Our schedule now calls for critical communication in the afternoons.	63507448	1473564984982	1473564985106	t	84
122888	1335696	Our schedule now calls for critical communication in the afternoons.	Our schedule now calls for critical communication in the afternoons.	63507453	1473564985050	1473564985134	h	72
122888	1335696	Our schedule now calls for critical communication in the afternoons.	Our schedule now calls for critical communication in the afternoons.	63507460	1473564985188	1473564985292	e	69
122888	1335696	Our schedule now calls for critical communication in the afternoons.	Our schedule now calls for critical communication in the afternoons.	63507547	1473564985252	1473564985340	 	32
122888	1335696	Our schedule now calls for critical communication in the afternoons.	Our schedule now calls for critical communication in the afternoons.	63507549	1473564985411	1473564985583	a	65
122888	1335696	Our schedule now calls for critical communication in the afternoons.	Our schedule now calls for critical communication in the afternoons.	63507551	1473564985733	1473564985813	t	84
122888	1335696	Our schedule now calls for critical communication in the afternoons.	Our schedule now calls for critical communication in the afternoons.	63507553	1473564986532	1473564986604	BKSP	8
122888	1335696	Our schedule now calls for critical communication in the afternoons.	Our schedule now calls for critical communication in the afternoons.	63507555	1473564986712	1473564986760	f	70
122888	1335696	Our schedule now calls for critical communication in the afternoons.	Our schedule now calls for critical communication in the afternoons.	63507557	1473564987333	1473564987417	t	84
122888	1335696	Our schedule now calls for critical communication in the afternoons.	Our schedule now calls for critical communication in the afternoons.	63507558	1473564987554	1473564987658	e	69
122888	1335696	Our schedule now calls for critical communication in the afternoons.	Our schedule now calls for critical communication in the afternoons.	63507569	1473564987622	1473564987718	r	82
122888	1335696	Our schedule now calls for critical communication in the afternoons.	Our schedule now calls for critical communication in the afternoons.	63507570	1473564987798	1473564987870	n	78
122888	1335696	Our schedule now calls for critical communication in the afternoons.	Our schedule now calls for critical communication in the afternoons.	63507571	1473564987969	1473564988041	o	79
122888	1335696	Our schedule now calls for critical communication in the afternoons.	Our schedule now calls for critical communication in the afternoons.	63507572	1473564988121	1473564988213	o	79
122888	1335696	Our schedule now calls for critical communication in the afternoons.	Our schedule now calls for critical communication in the afternoons.	63507574	1473564988260	1473564988400	n	78
122888	1335696	Our schedule now calls for critical communication in the afternoons.	Our schedule now calls for critical communication in the afternoons.	63507576	1473564988412	1473564988532	s	83
122888	1335696	Our schedule now calls for critical communication in the afternoons.	Our schedule now calls for critical communication in the afternoons.	63507577	1473564988573	1473564988649	.	190
122888	1335704	I was selfish in what I did.	I was selfish in what I did.	63507647	1473564990686	1473564990894	SHIFT	16
122888	1335704	I was selfish in what I did.	I was selfish in what I did.	63507649	1473564990818	1473564990918	I	73
122888	1335704	I was selfish in what I did.	I was selfish in what I did.	63507653	1473564990945	1473564991045	 	32
122888	1335704	I was selfish in what I did.	I was selfish in what I did.	63507656	1473564991086	1473564991134	w	87
122888	1335704	I was selfish in what I did.	I was selfish in what I did.	63507662	1473564991224	1473564991355	a	65
122888	1335704	I was selfish in what I did.	I was selfish in what I did.	63507684	1473564991287	1473564991450	s	83
122888	1335704	I was selfish in what I did.	I was selfish in what I did.	63507686	1473564991440	1473564991523	 	32
122888	1335704	I was selfish in what I did.	I was selfish in what I did.	63507690	1473564991580	1473564991731	s	83
122888	1335704	I was selfish in what I did.	I was selfish in what I did.	63507693	1473564991759	1473564991891	e	69
122888	1335704	I was selfish in what I did.	I was selfish in what I did.	63507695	1473564991907	1473564992031	l	76
122888	1335704	I was selfish in what I did.	I was selfish in what I did.	63507696	1473564992061	1473564992185	f	70
122888	1335704	I was selfish in what I did.	I was selfish in what I did.	63507702	1473564992307	1473564992395	i	73
122888	1335704	I was selfish in what I did.	I was selfish in what I did.	63507704	1473564992443	1473564992553	s	83
122888	1335704	I was selfish in what I did.	I was selfish in what I did.	63507706	1473564992551	1473564992655	h	72
122888	1335704	I was selfish in what I did.	I was selfish in what I did.	63507710	1473564992667	1473564992743	 	32
122888	1335704	I was selfish in what I did.	I was selfish in what I did.	63507713	1473564992803	1473564992867	i	73
122888	1335704	I was selfish in what I did.	I was selfish in what I did.	63507724	1473564992972	1473564993101	n	78
122888	1335704	I was selfish in what I did.	I was selfish in what I did.	63507725	1473564993096	1473564993220	 	32
122888	1335704	I was selfish in what I did.	I was selfish in what I did.	63507730	1473564993489	1473564993585	w	87
122888	1335704	I was selfish in what I did.	I was selfish in what I did.	63507733	1473564993623	1473564993703	h	72
122888	1335704	I was selfish in what I did.	I was selfish in what I did.	63507741	1473564993699	1473564993827	a	65
122888	1335704	I was selfish in what I did.	I was selfish in what I did.	63507743	1473564993791	1473564993847	t	84
122888	1335704	I was selfish in what I did.	I was selfish in what I did.	63507745	1473564993863	1473564993955	 	32
122888	1335704	I was selfish in what I did.	I was selfish in what I did.	63507752	1473564993982	1473564994154	SHIFT	16
122888	1335704	I was selfish in what I did.	I was selfish in what I did.	63507748	1473564994058	1473564994138	I	73
122888	1335704	I was selfish in what I did.	I was selfish in what I did.	63507755	1473564994190	1473564994266	 	32
122888	1335704	I was selfish in what I did.	I was selfish in what I did.	63507756	1473564994297	1473564994377	d	68
122888	1335704	I was selfish in what I did.	I was selfish in what I did.	63507759	1473564994418	1473564994509	i	73
122888	1335704	I was selfish in what I did.	I was selfish in what I did.	63507761	1473564994495	1473564994586	d	68
122888	1335704	I was selfish in what I did.	I was selfish in what I did.	63507763	1473564994674	1473564994770	.	190
122888	1335710	I was going to call you but I hate to bother your holiday.	I was going to call you but I hate to bother your holiday.	63507837	1473564996548	1473564996760	SHIFT	16
122888	1335710	I was going to call you but I hate to bother your holiday.	I was going to call you but I hate to bother your holiday.	63507834	1473564996660	1473564996744	I	73
122888	1335710	I was going to call you but I hate to bother your holiday.	I was going to call you but I hate to bother your holiday.	63507840	1473564996791	1473564996874	 	32
122888	1335710	I was going to call you but I hate to bother your holiday.	I was going to call you but I hate to bother your holiday.	63507844	1473564996879	1473564996987	w	87
122888	1335710	I was going to call you but I hate to bother your holiday.	I was going to call you but I hate to bother your holiday.	63507847	1473564997060	1473564997235	a	65
122888	1335710	I was going to call you but I hate to bother your holiday.	I was going to call you but I hate to bother your holiday.	63507857	1473564997192	1473564997396	s	83
122888	1335710	I was going to call you but I hate to bother your holiday.	I was going to call you but I hate to bother your holiday.	63507860	1473564997328	1473564997420	 	32
122888	1335710	I was going to call you but I hate to bother your holiday.	I was going to call you but I hate to bother your holiday.	63507863	1473564997508	1473564997615	g	71
122888	1335710	I was going to call you but I hate to bother your holiday.	I was going to call you but I hate to bother your holiday.	63507867	1473564997592	1473564997692	o	79
122888	1335710	I was going to call you but I hate to bother your holiday.	I was going to call you but I hate to bother your holiday.	63507871	1473564997749	1473564997825	i	73
122888	1335710	I was going to call you but I hate to bother your holiday.	I was going to call you but I hate to bother your holiday.	63507875	1473564997918	1473564998022	n	78
122888	1335710	I was going to call you but I hate to bother your holiday.	I was going to call you but I hate to bother your holiday.	63507895	1473564998058	1473564998196	g	71
122888	1335710	I was going to call you but I hate to bother your holiday.	I was going to call you but I hate to bother your holiday.	63507899	1473564998174	1473564998274	 	32
122888	1335710	I was going to call you but I hate to bother your holiday.	I was going to call you but I hate to bother your holiday.	63507901	1473564998351	1473564998487	t	84
122888	1335710	I was going to call you but I hate to bother your holiday.	I was going to call you but I hate to bother your holiday.	63507903	1473564998435	1473564998558	o	79
122888	1335710	I was going to call you but I hate to bother your holiday.	I was going to call you but I hate to bother your holiday.	63507905	1473564998559	1473564998659	 	32
122888	1335710	I was going to call you but I hate to bother your holiday.	I was going to call you but I hate to bother your holiday.	63507914	1473564998718	1473564998822	c	67
122888	1335710	I was going to call you but I hate to bother your holiday.	I was going to call you but I hate to bother your holiday.	63507917	1473564998863	1473564998982	a	65
122888	1335710	I was going to call you but I hate to bother your holiday.	I was going to call you but I hate to bother your holiday.	63507921	1473564998975	1473564999039	l	76
122888	1335710	I was going to call you but I hate to bother your holiday.	I was going to call you but I hate to bother your holiday.	63507925	1473564999114	1473564999217	l	76
122888	1335710	I was going to call you but I hate to bother your holiday.	I was going to call you but I hate to bother your holiday.	63507945	1473564999202	1473564999325	 	32
122888	1335710	I was going to call you but I hate to bother your holiday.	I was going to call you but I hate to bother your holiday.	63507947	1473564999294	1473564999385	y	89
122888	1335710	I was going to call you but I hate to bother your holiday.	I was going to call you but I hate to bother your holiday.	63507950	1473564999378	1473564999521	o	79
122888	1335710	I was going to call you but I hate to bother your holiday.	I was going to call you but I hate to bother your holiday.	63507954	1473564999478	1473564999629	u	85
122888	1335710	I was going to call you but I hate to bother your holiday.	I was going to call you but I hate to bother your holiday.	63507956	1473564999594	1473564999690	 	32
122888	1335710	I was going to call you but I hate to bother your holiday.	I was going to call you but I hate to bother your holiday.	63507960	1473564999767	1473564999886	b	66
122888	1335710	I was going to call you but I hate to bother your holiday.	I was going to call you but I hate to bother your holiday.	63507979	1473564999871	1473564999979	u	85
122888	1335710	I was going to call you but I hate to bother your holiday.	I was going to call you but I hate to bother your holiday.	63507981	1473565000045	1473565000156	t	84
122888	1335710	I was going to call you but I hate to bother your holiday.	I was going to call you but I hate to bother your holiday.	63507982	1473565000137	1473565000241	 	32
122888	1335710	I was going to call you but I hate to bother your holiday.	I was going to call you but I hate to bother your holiday.	63507984	1473565000287	1473565000455	SHIFT	16
122888	1335710	I was going to call you but I hate to bother your holiday.	I was going to call you but I hate to bother your holiday.	63507985	1473565000380	1473565000463	I	73
122888	1335710	I was going to call you but I hate to bother your holiday.	I was going to call you but I hate to bother your holiday.	63507986	1473565000480	1473565000620	 	32
122888	1335710	I was going to call you but I hate to bother your holiday.	I was going to call you but I hate to bother your holiday.	63508020	1473565000600	1473565000685	h	72
122888	1335710	I was going to call you but I hate to bother your holiday.	I was going to call you but I hate to bother your holiday.	63508023	1473565000672	1473565000840	a	65
122888	1335710	I was going to call you but I hate to bother your holiday.	I was going to call you but I hate to bother your holiday.	63508026	1473565001115	1473565001211	t	84
122888	1335710	I was going to call you but I hate to bother your holiday.	I was going to call you but I hate to bother your holiday.	63508028	1473565001253	1473565001359	e	69
122888	1335710	I was going to call you but I hate to bother your holiday.	I was going to call you but I hate to bother your holiday.	63508029	1473565001352	1473565001455	 	32
122888	1335710	I was going to call you but I hate to bother your holiday.	I was going to call you but I hate to bother your holiday.	63508030	1473565001582	1473565001681	t	84
122888	1335710	I was going to call you but I hate to bother your holiday.	I was going to call you but I hate to bother your holiday.	63508065	1473565001678	1473565001791	o	79
122888	1335710	I was going to call you but I hate to bother your holiday.	I was going to call you but I hate to bother your holiday.	63508068	1473565001786	1473565001901	 	32
122888	1335710	I was going to call you but I hate to bother your holiday.	I was going to call you but I hate to bother your holiday.	63508073	1473565001932	1473565002011	g	71
122888	1335710	I was going to call you but I hate to bother your holiday.	I was going to call you but I hate to bother your holiday.	63508077	1473565002028	1473565002132	o	79
122888	1335710	I was going to call you but I hate to bother your holiday.	I was going to call you but I hate to bother your holiday.	63508081	1473565002393	1473565002456	t	84
122888	1335710	I was going to call you but I hate to bother your holiday.	I was going to call you but I hate to bother your holiday.	63508083	1473565002673	1473565002728	BKSP	8
122888	1335710	I was going to call you but I hate to bother your holiday.	I was going to call you but I hate to bother your holiday.	63508087	1473565002834	1473565002901	BKSP	8
122888	1335710	I was going to call you but I hate to bother your holiday.	I was going to call you but I hate to bother your holiday.	63508091	1473565002969	1473565003052	BKSP	8
122888	1335710	I was going to call you but I hate to bother your holiday.	I was going to call you but I hate to bother your holiday.	63508098	1473565003106	1473565003157	b	66
122888	1335710	I was going to call you but I hate to bother your holiday.	I was going to call you but I hate to bother your holiday.	63508111	1473565003225	1473565003320	o	79
122888	1335710	I was going to call you but I hate to bother your holiday.	I was going to call you but I hate to bother your holiday.	63508116	1473565003441	1473565003536	t	84
122888	1335710	I was going to call you but I hate to bother your holiday.	I was going to call you but I hate to bother your holiday.	63508120	1473565003584	1473565003651	h	72
122888	1335710	I was going to call you but I hate to bother your holiday.	I was going to call you but I hate to bother your holiday.	63508123	1473565003679	1473565003785	e	69
122888	1335710	I was going to call you but I hate to bother your holiday.	I was going to call you but I hate to bother your holiday.	63508137	1473565003734	1473565003849	r	82
122888	1335710	I was going to call you but I hate to bother your holiday.	I was going to call you but I hate to bother your holiday.	63508140	1473565003830	1473565003957	 	32
122888	1335710	I was going to call you but I hate to bother your holiday.	I was going to call you but I hate to bother your holiday.	63508143	1473565003950	1473565004044	y	89
122888	1335710	I was going to call you but I hate to bother your holiday.	I was going to call you but I hate to bother your holiday.	63508146	1473565004026	1473565004197	o	79
122888	1335710	I was going to call you but I hate to bother your holiday.	I was going to call you but I hate to bother your holiday.	63508149	1473565004134	1473565004287	u	85
122888	1335710	I was going to call you but I hate to bother your holiday.	I was going to call you but I hate to bother your holiday.	63508152	1473565004330	1473565004413	r	82
122888	1335710	I was going to call you but I hate to bother your holiday.	I was going to call you but I hate to bother your holiday.	63508156	1473565004476	1473565004616	 	32
122888	1335710	I was going to call you but I hate to bother your holiday.	I was going to call you but I hate to bother your holiday.	63508160	1473565004612	1473565004715	h	72
122888	1335710	I was going to call you but I hate to bother your holiday.	I was going to call you but I hate to bother your holiday.	63508165	1473565004724	1473565004823	o	79
122888	1335710	I was going to call you but I hate to bother your holiday.	I was going to call you but I hate to bother your holiday.	63508171	1473565004896	1473565004995	l	76
122888	1335710	I was going to call you but I hate to bother your holiday.	I was going to call you but I hate to bother your holiday.	63508177	1473565005067	1473565005151	i	73
122888	1335710	I was going to call you but I hate to bother your holiday.	I was going to call you but I hate to bother your holiday.	63508189	1473565005168	1473565005319	d	68
122888	1335710	I was going to call you but I hate to bother your holiday.	I was going to call you but I hate to bother your holiday.	63508192	1473565005276	1473565005392	a	65
122888	1335710	I was going to call you but I hate to bother your holiday.	I was going to call you but I hate to bother your holiday.	63508195	1473565005332	1473565005416	y	89
122888	1335710	I was going to call you but I hate to bother your holiday.	I was going to call you but I hate to bother your holiday.	63508199	1473565005766	1473565005853	.	190
122888	1335716	It was very nice.	It was very nice.	63508259	1473565007928	1473565008100	SHIFT	16
122888	1335716	It was very nice.	It was very nice.	63508260	1473565008041	1473565008120	I	73
122888	1335716	It was very nice.	It was very nice.	63508261	1473565008195	1473565008302	t	84
122888	1335716	It was very nice.	It was very nice.	63508262	1473565008311	1473565008414	 	32
122888	1335716	It was very nice.	It was very nice.	63508263	1473565008395	1473565008494	w	87
122888	1335716	It was very nice.	It was very nice.	63508264	1473565008550	1473565008701	a	65
122888	1335716	It was very nice.	It was very nice.	63508276	1473565008622	1473565008769	s	83
122888	1335716	It was very nice.	It was very nice.	63508277	1473565008718	1473565008825	 	32
122888	1335716	It was very nice.	It was very nice.	63508278	1473565008855	1473565008938	v	86
122888	1335716	It was very nice.	It was very nice.	63508280	1473565009006	1473565009109	e	69
122888	1335716	It was very nice.	It was very nice.	63508282	1473565009066	1473565009176	r	82
122888	1335716	It was very nice.	It was very nice.	63508303	1473565009158	1473565009265	y	89
122888	1335716	It was very nice.	It was very nice.	63508305	1473565009295	1473565009434	 	32
122888	1335716	It was very nice.	It was very nice.	63508308	1473565009423	1473565009494	n	78
122888	1335716	It was very nice.	It was very nice.	63508311	1473565009591	1473565009682	i	73
122888	1335716	It was very nice.	It was very nice.	63508315	1473565009687	1473565009766	c	67
122888	1335716	It was very nice.	It was very nice.	63508319	1473565009855	1473565009954	e	69
122888	1335716	It was very nice.	It was very nice.	63508312	1473565009927	1473565010022	.	190
122888	1335718	A letter is being sent today.	A letter is being sent today.	63508392	1473565011548	1473565011707	SHIFT	16
122888	1335718	A letter is being sent today.	A letter is being sent today.	63508393	1473565012018	1473565012198	SHIFT	16
122888	1335718	A letter is being sent today.	A letter is being sent today.	63508395	1473565012119	1473565012199	A	65
122888	1335718	A letter is being sent today.	A letter is being sent today.	63508396	1473565012421	1473565012534	 	32
122888	1335718	A letter is being sent today.	A letter is being sent today.	63508397	1473565012580	1473565012687	l	76
122888	1335718	A letter is being sent today.	A letter is being sent today.	63508398	1473565012718	1473565012825	e	69
122888	1335718	A letter is being sent today.	A letter is being sent today.	63508399	1473565012864	1473565012947	t	84
122888	1335718	A letter is being sent today.	A letter is being sent today.	63508412	1473565013032	1473565013142	t	84
122888	1335718	A letter is being sent today.	A letter is being sent today.	63508414	1473565013215	1473565013314	e	69
122888	1335718	A letter is being sent today.	A letter is being sent today.	63508417	1473565013279	1473565013394	r	82
122888	1335718	A letter is being sent today.	A letter is being sent today.	63508420	1473565013379	1473565013474	 	32
122888	1335718	A letter is being sent today.	A letter is being sent today.	63508422	1473565013497	1473565013584	i	73
122888	1335718	A letter is being sent today.	A letter is being sent today.	63508439	1473565013589	1473565013692	s	83
122888	1335718	A letter is being sent today.	A letter is being sent today.	63508441	1473565013693	1473565013812	 	32
122888	1335718	A letter is being sent today.	A letter is being sent today.	63508444	1473565013825	1473565013896	b	66
122888	1335718	A letter is being sent today.	A letter is being sent today.	63508445	1473565013995	1473565014082	e	69
122888	1335718	A letter is being sent today.	A letter is being sent today.	63508448	1473565014121	1473565014176	i	73
122888	1335718	A letter is being sent today.	A letter is being sent today.	63508458	1473565014277	1473565014360	n	78
122888	1335718	A letter is being sent today.	A letter is being sent today.	63508460	1473565014380	1473565014491	g	71
122888	1335718	A letter is being sent today.	A letter is being sent today.	63508462	1473565014468	1473565014559	 	32
122888	1335718	A letter is being sent today.	A letter is being sent today.	63508466	1473565014586	1473565014705	s	83
122888	1335718	A letter is being sent today.	A letter is being sent today.	63508478	1473565014666	1473565014809	e	69
122888	1335718	A letter is being sent today.	A letter is being sent today.	63508479	1473565014814	1473565014905	n	78
122888	1335718	A letter is being sent today.	A letter is being sent today.	63508480	1473565014918	1473565015006	t	84
122888	1335718	A letter is being sent today.	A letter is being sent today.	63508481	1473565015010	1473565015113	 	32
122888	1335718	A letter is being sent today.	A letter is being sent today.	63508482	1473565015118	1473565015213	t	84
122888	1335718	A letter is being sent today.	A letter is being sent today.	63508540	1473565015194	1473565015313	o	79
122888	1335718	A letter is being sent today.	A letter is being sent today.	63508542	1473565015413	1473565015552	a	65
122888	1335718	A letter is being sent today.	A letter is being sent today.	63508548	1473565015481	1473565015564	y	89
122888	1335718	A letter is being sent today.	A letter is being sent today.	63508551	1473565016205	1473565016269	BKSP	8
122888	1335718	A letter is being sent today.	A letter is being sent today.	63508556	1473565016366	1473565016433	BKSP	8
122888	1335718	A letter is being sent today.	A letter is being sent today.	63508562	1473565016466	1473565016597	d	68
122888	1335718	A letter is being sent today.	A letter is being sent today.	63508565	1473565016644	1473565016743	a	65
122888	1335718	A letter is being sent today.	A letter is being sent today.	63508571	1473565017073	1473565017148	y	89
122888	1335718	A letter is being sent today.	A letter is being sent today.	63508567	1473565017248	1473565017331	.	190
122888	1335725	But both reports were denied by the southern leadership.	But both reports were denied by the southern leadership.	63508658	1473565019112	1473565019380	SHIFT	16
122888	1335725	But both reports were denied by the southern leadership.	But both reports were denied by the southern leadership.	63508660	1473565019277	1473565019400	B	66
122888	1335725	But both reports were denied by the southern leadership.	But both reports were denied by the southern leadership.	63508663	1473565019480	1473565019605	u	85
122888	1335725	But both reports were denied by the southern leadership.	But both reports were denied by the southern leadership.	63508666	1473565019604	1473565019723	t	84
122888	1335725	But both reports were denied by the southern leadership.	But both reports were denied by the southern leadership.	63508669	1473565019704	1473565019795	 	32
122888	1335725	But both reports were denied by the southern leadership.	But both reports were denied by the southern leadership.	63508671	1473565019986	1473565020117	b	66
122888	1335725	But both reports were denied by the southern leadership.	But both reports were denied by the southern leadership.	63508688	1473565020102	1473565020193	o	79
122888	1335725	But both reports were denied by the southern leadership.	But both reports were denied by the southern leadership.	63508689	1473565020256	1473565020367	t	84
122888	1335725	But both reports were denied by the southern leadership.	But both reports were denied by the southern leadership.	63508691	1473565020360	1473565020439	h	72
122888	1335725	But both reports were denied by the southern leadership.	But both reports were denied by the southern leadership.	63508692	1473565020477	1473565020568	 	32
122888	1335725	But both reports were denied by the southern leadership.	But both reports were denied by the southern leadership.	63508694	1473565020603	1473565020742	r	82
122888	1335725	But both reports were denied by the southern leadership.	But both reports were denied by the southern leadership.	63508718	1473565020687	1473565020818	e	69
122888	1335725	But both reports were denied by the southern leadership.	But both reports were denied by the southern leadership.	63508719	1473565020870	1473565021029	p	80
122888	1335725	But both reports were denied by the southern leadership.	But both reports were denied by the southern leadership.	63508720	1473565021018	1473565021185	o	79
122888	1335725	But both reports were denied by the southern leadership.	But both reports were denied by the southern leadership.	63508721	1473565021174	1473565021269	r	82
122888	1335725	But both reports were denied by the southern leadership.	But both reports were denied by the southern leadership.	63508722	1473565021355	1473565021442	t	84
122888	1335725	But both reports were denied by the southern leadership.	But both reports were denied by the southern leadership.	63508723	1473565021517	1473565021658	s	83
122888	1335725	But both reports were denied by the southern leadership.	But both reports were denied by the southern leadership.	63508735	1473565021646	1473565021736	 	32
122888	1335725	But both reports were denied by the southern leadership.	But both reports were denied by the southern leadership.	63508736	1473565021783	1473565021927	w	87
122888	1335725	But both reports were denied by the southern leadership.	But both reports were denied by the southern leadership.	63508737	1473565021899	1473565022038	e	69
122888	1335725	But both reports were denied by the southern leadership.	But both reports were denied by the southern leadership.	63508738	1473565022014	1473565022182	r	82
122888	1335725	But both reports were denied by the southern leadership.	But both reports were denied by the southern leadership.	63508740	1473565022127	1473565022262	e	69
122888	1335725	But both reports were denied by the southern leadership.	But both reports were denied by the southern leadership.	63508743	1473565022264	1473565022386	 	32
122888	1335725	But both reports were denied by the southern leadership.	But both reports were denied by the southern leadership.	63508782	1473565022563	1473565022658	d	68
122888	1335725	But both reports were denied by the southern leadership.	But both reports were denied by the southern leadership.	63508786	1473565022731	1473565022839	e	69
122888	1335725	But both reports were denied by the southern leadership.	But both reports were denied by the southern leadership.	63508787	1473565022847	1473565022923	n	78
122888	1335725	But both reports were denied by the southern leadership.	But both reports were denied by the southern leadership.	63508790	1473565023022	1473565023113	i	73
122888	1335725	But both reports were denied by the southern leadership.	But both reports were denied by the southern leadership.	63508791	1473565023172	1473565023264	e	69
122888	1335725	But both reports were denied by the southern leadership.	But both reports were denied by the southern leadership.	63508803	1473565023353	1473565023449	d	68
122888	1335725	But both reports were denied by the southern leadership.	But both reports were denied by the southern leadership.	63508807	1473565023477	1473565023560	 	32
122888	1335725	But both reports were denied by the southern leadership.	But both reports were denied by the southern leadership.	63508810	1473565023671	1473565023794	b	66
122888	1335725	But both reports were denied by the southern leadership.	But both reports were denied by the southern leadership.	63508815	1473565023747	1473565023830	y	89
122888	1335725	But both reports were denied by the southern leadership.	But both reports were denied by the southern leadership.	63508820	1473565023904	1473565023996	 	32
122888	1335725	But both reports were denied by the southern leadership.	But both reports were denied by the southern leadership.	63508833	1473565024026	1473565024129	t	84
122888	1335725	But both reports were denied by the southern leadership.	But both reports were denied by the southern leadership.	63508835	1473565024118	1473565024205	h	72
122888	1335725	But both reports were denied by the southern leadership.	But both reports were denied by the southern leadership.	63508837	1473565024218	1473565024314	e	69
122888	1335725	But both reports were denied by the southern leadership.	But both reports were denied by the southern leadership.	63508840	1473565024310	1473565024401	 	32
122888	1335725	But both reports were denied by the southern leadership.	But both reports were denied by the southern leadership.	63508843	1473565024455	1473565024614	s	83
122888	1335725	But both reports were denied by the southern leadership.	But both reports were denied by the southern leadership.	63508865	1473565024631	1473565024734	o	79
122888	1335725	But both reports were denied by the southern leadership.	But both reports were denied by the southern leadership.	63508868	1473565024997	1473565025080	u	85
122888	1335725	But both reports were denied by the southern leadership.	But both reports were denied by the southern leadership.	63508871	1473565025161	1473565025240	t	84
122888	1335725	But both reports were denied by the southern leadership.	But both reports were denied by the southern leadership.	63508876	1473565025293	1473565025400	h	72
122888	1335725	But both reports were denied by the southern leadership.	But both reports were denied by the southern leadership.	63508880	1473565025408	1473565025508	e	69
122888	1335725	But both reports were denied by the southern leadership.	But both reports were denied by the southern leadership.	63508926	1473565025469	1473565025580	r	82
122888	1335725	But both reports were denied by the southern leadership.	But both reports were denied by the southern leadership.	63508927	1473565025626	1473565025718	n	78
122888	1335725	But both reports were denied by the southern leadership.	But both reports were denied by the southern leadership.	63508928	1473565025828	1473565025915	 	32
122888	1335725	But both reports were denied by the southern leadership.	But both reports were denied by the southern leadership.	63508929	1473565026109	1473565026226	l	76
122888	1335725	But both reports were denied by the southern leadership.	But both reports were denied by the southern leadership.	63508930	1473565026214	1473565026301	e	69
122888	1335725	But both reports were denied by the southern leadership.	But both reports were denied by the southern leadership.	63508931	1473565026328	1473565026468	a	65
122888	1335725	But both reports were denied by the southern leadership.	But both reports were denied by the southern leadership.	63508994	1473565026484	1473565026584	d	68
122888	1335725	But both reports were denied by the southern leadership.	But both reports were denied by the southern leadership.	63508995	1473565026774	1473565026922	e	69
122888	1335725	But both reports were denied by the southern leadership.	But both reports were denied by the southern leadership.	63508998	1473565026883	1473565026966	r	82
122888	1335725	But both reports were denied by the southern leadership.	But both reports were denied by the southern leadership.	63509001	1473565027143	1473565027227	=	187
122888	1335725	But both reports were denied by the southern leadership.	But both reports were denied by the southern leadership.	63509006	1473565027681	1473565027769	BKSP	8
122888	1335725	But both reports were denied by the southern leadership.	But both reports were denied by the southern leadership.	63509010	1473565028169	1473565028311	s	83
122888	1335725	But both reports were denied by the southern leadership.	But both reports were denied by the southern leadership.	63509025	1473565028292	1473565028360	h	72
122888	1335725	But both reports were denied by the southern leadership.	But both reports were denied by the southern leadership.	63509030	1473565028448	1473565028592	i	73
122888	1335725	But both reports were denied by the southern leadership.	But both reports were denied by the southern leadership.	63509035	1473565028617	1473565028712	p	80
122888	1335725	But both reports were denied by the southern leadership.	But both reports were denied by the southern leadership.	63509040	1473565028841	1473565028913	.	190
122888	1335734	Do you want to eat lunch somewhere before?	Do you want to eat lunch somewhere before?	63509118	1473565030930	1473565031118	SHIFT	16
122888	1335734	Do you want to eat lunch somewhere before?	Do you want to eat lunch somewhere before?	63509120	1473565031039	1473565031170	D	68
122888	1335734	Do you want to eat lunch somewhere before?	Do you want to eat lunch somewhere before?	63509123	1473565031186	1473565031322	o	79
122888	1335734	Do you want to eat lunch somewhere before?	Do you want to eat lunch somewhere before?	63509126	1473565031338	1473565031470	 	32
122888	1335734	Do you want to eat lunch somewhere before?	Do you want to eat lunch somewhere before?	63509129	1473565031446	1473565031530	y	89
122888	1335734	Do you want to eat lunch somewhere before?	Do you want to eat lunch somewhere before?	63509154	1473565031510	1473565031658	o	79
122888	1335734	Do you want to eat lunch somewhere before?	Do you want to eat lunch somewhere before?	63509156	1473565031618	1473565031766	u	85
122888	1335734	Do you want to eat lunch somewhere before?	Do you want to eat lunch somewhere before?	63509158	1473565031711	1473565031838	 	32
122888	1335734	Do you want to eat lunch somewhere before?	Do you want to eat lunch somewhere before?	63509159	1473565031771	1473565031962	w	87
122888	1335734	Do you want to eat lunch somewhere before?	Do you want to eat lunch somewhere before?	63509160	1473565031894	1473565032058	a	65
122888	1335734	Do you want to eat lunch somewhere before?	Do you want to eat lunch somewhere before?	63509183	1473565032030	1473565032138	n	78
122888	1335734	Do you want to eat lunch somewhere before?	Do you want to eat lunch somewhere before?	63509187	1473565032179	1473565032295	t	84
122888	1335734	Do you want to eat lunch somewhere before?	Do you want to eat lunch somewhere before?	63509190	1473565032236	1473565032371	 	32
122888	1335734	Do you want to eat lunch somewhere before?	Do you want to eat lunch somewhere before?	63509193	1473565032992	1473565033097	t	84
122888	1335734	Do you want to eat lunch somewhere before?	Do you want to eat lunch somewhere before?	63509195	1473565033095	1473565033187	o	79
122888	1335734	Do you want to eat lunch somewhere before?	Do you want to eat lunch somewhere before?	63509196	1473565033209	1473565033317	 	32
122888	1335734	Do you want to eat lunch somewhere before?	Do you want to eat lunch somewhere before?	63509205	1473565033309	1473565033453	e	69
122888	1335734	Do you want to eat lunch somewhere before?	Do you want to eat lunch somewhere before?	63509208	1473565033425	1473565033589	a	65
122888	1335734	Do you want to eat lunch somewhere before?	Do you want to eat lunch somewhere before?	63509213	1473565033545	1473565033661	t	84
122888	1335734	Do you want to eat lunch somewhere before?	Do you want to eat lunch somewhere before?	63509217	1473565033669	1473565033753	 	32
122888	1335734	Do you want to eat lunch somewhere before?	Do you want to eat lunch somewhere before?	63509221	1473565033823	1473565033939	l	76
122888	1335734	Do you want to eat lunch somewhere before?	Do you want to eat lunch somewhere before?	63509223	1473565034013	1473565034097	u	85
122888	1335734	Do you want to eat lunch somewhere before?	Do you want to eat lunch somewhere before?	63509239	1473565034198	1473565034278	n	78
122888	1335734	Do you want to eat lunch somewhere before?	Do you want to eat lunch somewhere before?	63509241	1473565034320	1473565034456	c	67
122888	1335734	Do you want to eat lunch somewhere before?	Do you want to eat lunch somewhere before?	63509242	1473565034404	1473565034492	h	72
122888	1335734	Do you want to eat lunch somewhere before?	Do you want to eat lunch somewhere before?	63509243	1473565034526	1473565034646	 	32
122888	1335734	Do you want to eat lunch somewhere before?	Do you want to eat lunch somewhere before?	63509244	1473565034678	1473565034834	s	83
122888	1335734	Do you want to eat lunch somewhere before?	Do you want to eat lunch somewhere before?	63509301	1473565034790	1473565034890	o	79
122888	1335734	Do you want to eat lunch somewhere before?	Do you want to eat lunch somewhere before?	63509304	1473565034966	1473565035096	m	77
122888	1335734	Do you want to eat lunch somewhere before?	Do you want to eat lunch somewhere before?	63509308	1473565035074	1473565035174	e	69
122888	1335734	Do you want to eat lunch somewhere before?	Do you want to eat lunch somewhere before?	63509313	1473565035275	1473565035395	w	87
122888	1335734	Do you want to eat lunch somewhere before?	Do you want to eat lunch somewhere before?	63509317	1473565035440	1473565035524	h	72
122888	1335734	Do you want to eat lunch somewhere before?	Do you want to eat lunch somewhere before?	63509321	1473565036143	1473565036271	e	69
122888	1335734	Do you want to eat lunch somewhere before?	Do you want to eat lunch somewhere before?	63509347	1473565036247	1473565036387	r	82
122888	1335734	Do you want to eat lunch somewhere before?	Do you want to eat lunch somewhere before?	63509349	1473565036371	1473565036507	e	69
122888	1335734	Do you want to eat lunch somewhere before?	Do you want to eat lunch somewhere before?	63509350	1473565036523	1473565036607	 	32
122888	1335734	Do you want to eat lunch somewhere before?	Do you want to eat lunch somewhere before?	63509351	1473565036654	1473565036746	b	66
122888	1335734	Do you want to eat lunch somewhere before?	Do you want to eat lunch somewhere before?	63509352	1473565036860	1473565036968	e	69
122888	1335734	Do you want to eat lunch somewhere before?	Do you want to eat lunch somewhere before?	63509354	1473565037032	1473565037140	f	70
122888	1335734	Do you want to eat lunch somewhere before?	Do you want to eat lunch somewhere before?	63509400	1473565037164	1473565037316	o	79
122888	1335734	Do you want to eat lunch somewhere before?	Do you want to eat lunch somewhere before?	63509401	1473565037252	1473565037372	r	82
122888	1335734	Do you want to eat lunch somewhere before?	Do you want to eat lunch somewhere before?	63509402	1473565037336	1473565037456	e	69
122888	1335734	Do you want to eat lunch somewhere before?	Do you want to eat lunch somewhere before?	63509403	1473565037468	1473565037748	SHIFT	16
122888	1335734	Do you want to eat lunch somewhere before?	Do you want to eat lunch somewhere before?	63509404	1473565038370	1473565038610	SHIFT	16
122888	1335734	Do you want to eat lunch somewhere before?	Do you want to eat lunch somewhere before?	63509406	1473565038522	1473565038610	?	191
