PARTICIPANT_ID	TEST_SECTION_ID	SENTENCE	USER_INPUT	KEYSTROKE_ID	PRESS_TIME	RELEASE_TIME	LETTER	KEYCODE
124932	1357419	I want to compare the two.	I want to compare the two.	64554847	1473617753797	1473617753960	SHIFT	16
124932	1357419	I want to compare the two.	I want to compare the two.	64554849	1473617753891	1473617754050	I	73
124932	1357419	I want to compare the two.	I want to compare the two.	64554851	1473617754002	1473617754101	 	32
124932	1357419	I want to compare the two.	I want to compare the two.	64554853	1473617754211	1473617754286	w	87
124932	1357419	I want to compare the two.	I want to compare the two.	64554855	1473617754364	1473617754502	a	65
124932	1357419	I want to compare the two.	I want to compare the two.	64554857	1473617754502	1473617754586	n	78
124932	1357419	I want to compare the two.	I want to compare the two.	64554864	1473617754633	1473617754719	t	84
124932	1357419	I want to compare the two.	I want to compare the two.	64554866	1473617754750	1473617754836	 	32
124932	1357419	I want to compare the two.	I want to compare the two.	64554868	1473617754867	1473617754968	t	84
124932	1357419	I want to compare the two.	I want to compare the two.	64554870	1473617754968	1473617755104	o	79
124932	1357419	I want to compare the two.	I want to compare the two.	64554889	1473617755021	1473617755146	 	32
124932	1357419	I want to compare the two.	I want to compare the two.	64554891	1473617755264	1473617755428	c	67
124932	1357419	I want to compare the two.	I want to compare the two.	64554893	1473617755369	1473617755564	o	79
124932	1357419	I want to compare the two.	I want to compare the two.	64554895	1473617755455	1473617755588	m	77
124932	1357419	I want to compare the two.	I want to compare the two.	64554896	1473617755619	1473617755734	p	80
124932	1357419	I want to compare the two.	I want to compare the two.	64554897	1473617755780	1473617755938	a	65
124932	1357419	I want to compare the two.	I want to compare the two.	64554904	1473617755885	1473617756072	r	82
124932	1357419	I want to compare the two.	I want to compare the two.	64554905	1473617756001	1473617756150	e	69
124932	1357419	I want to compare the two.	I want to compare the two.	64554906	1473617756150	1473617756262	 	32
124932	1357419	I want to compare the two.	I want to compare the two.	64554908	1473617756252	1473617756365	t	84
124932	1357419	I want to compare the two.	I want to compare the two.	64554910	1473617756320	1473617756471	h	72
124932	1357419	I want to compare the two.	I want to compare the two.	64554930	1473617756435	1473617756581	e	69
124932	1357419	I want to compare the two.	I want to compare the two.	64554933	1473617756550	1473617756636	 	32
124932	1357419	I want to compare the two.	I want to compare the two.	64554938	1473617756731	1473617756889	t	84
124932	1357419	I want to compare the two.	I want to compare the two.	64554947	1473617756889	1473617757018	w	87
124932	1357419	I want to compare the two.	I want to compare the two.	64554943	1473617756913	1473617756986	o	79
124932	1357419	I want to compare the two.	I want to compare the two.	64554951	1473617757597	1473617757636	.	191
124932	1357419	I want to compare the two.	I want to compare the two.	64554974	1473617758517	1473617758571	BKSP	8
124932	1357419	I want to compare the two.	I want to compare the two.	64554976	1473617758679	1473617758738	BKSP	8
124932	1357419	I want to compare the two.	I want to compare the two.	64554978	1473617759285	1473617759337	.	190
124932	1357423	What did Mark say?	What did Mark say?	64555046	1473617761535	1473617761970	SHIFT	16
124932	1357423	What did Mark say?	What did Mark say?	64555047	1473617761915	1473617762064	W	87
124932	1357423	What did Mark say?	What did Mark say?	64555048	1473617762064	1473617762150	h	72
124932	1357423	What did Mark say?	What did Mark say?	64555049	1473617762212	1473617762369	a	65
124932	1357423	What did Mark say?	What did Mark say?	64555050	1473617762316	1473617762447	t	84
124932	1357423	What did Mark say?	What did Mark say?	64555051	1473617762447	1473617762534	 	32
124932	1357423	What did Mark say?	What did Mark say?	64555075	1473617762588	1473617762694	d	68
124932	1357423	What did Mark say?	What did Mark say?	64555076	1473617762667	1473617762734	i	73
124932	1357423	What did Mark say?	What did Mark say?	64555077	1473617762781	1473617762882	d	68
124932	1357423	What did Mark say?	What did Mark say?	64555078	1473617762882	1473617762967	 	32
124932	1357423	What did Mark say?	What did Mark say?	64555079	1473617763122	1473617763301	SHIFT	16
124932	1357423	What did Mark say?	What did Mark say?	64555087	1473617763251	1473617763341	M	77
124932	1357423	What did Mark say?	What did Mark say?	64555090	1473617763428	1473617763619	a	65
124932	1357423	What did Mark say?	What did Mark say?	64555093	1473617763571	1473617763681	r	82
124932	1357423	What did Mark say?	What did Mark say?	64555096	1473617763697	1473617763772	k	75
124932	1357423	What did Mark say?	What did Mark say?	64555099	1473617763947	1473617764021	 	32
124932	1357423	What did Mark say?	What did Mark say?	64555103	1473617764068	1473617764248	s	83
124932	1357423	What did Mark say?	What did Mark say?	64555116	1473617764200	1473617764354	a	65
124932	1357423	What did Mark say?	What did Mark say?	64555121	1473617764354	1473617764414	y	89
124932	1357423	What did Mark say?	What did Mark say?	64555130	1473617764628	1473617764932	SHIFT	16
124932	1357423	What did Mark say?	What did Mark say?	64555126	1473617764818	1473617764886	?	191
124932	1357427	He played goalie almost the entire game.	He played goalie almost the entire game.	64555211	1473617768207	1473617768368	SHIFT	16
124932	1357427	He played goalie almost the entire game.	He played goalie almost the entire game.	64555213	1473617768332	1473617768429	H	72
124932	1357427	He played goalie almost the entire game.	He played goalie almost the entire game.	64555215	1473617768418	1473617768549	e	69
124932	1357427	He played goalie almost the entire game.	He played goalie almost the entire game.	64555217	1473617768549	1473617768635	 	32
124932	1357427	He played goalie almost the entire game.	He played goalie almost the entire game.	64555219	1473617768745	1473617768835	p	80
124932	1357427	He played goalie almost the entire game.	He played goalie almost the entire game.	64555221	1473617768960	1473617769036	l	76
124932	1357427	He played goalie almost the entire game.	He played goalie almost the entire game.	64555229	1473617769057	1473617769166	a	65
124932	1357427	He played goalie almost the entire game.	He played goalie almost the entire game.	64555232	1473617769228	1473617769292	y	89
124932	1357427	He played goalie almost the entire game.	He played goalie almost the entire game.	64555235	1473617769381	1473617769470	e	69
124932	1357427	He played goalie almost the entire game.	He played goalie almost the entire game.	64555238	1473617769617	1473617769681	d	68
124932	1357427	He played goalie almost the entire game.	He played goalie almost the entire game.	64555254	1473617769654	1473617769750	 	32
124932	1357427	He played goalie almost the entire game.	He played goalie almost the entire game.	64555256	1473617770145	1473617770267	g	71
124932	1357427	He played goalie almost the entire game.	He played goalie almost the entire game.	64555258	1473617770298	1473617770370	o	79
124932	1357427	He played goalie almost the entire game.	He played goalie almost the entire game.	64555259	1473617770704	1473617770803	a	65
124932	1357427	He played goalie almost the entire game.	He played goalie almost the entire game.	64555260	1473617770834	1473617770919	l	76
124932	1357427	He played goalie almost the entire game.	He played goalie almost the entire game.	64555261	1473617770997	1473617771053	i	73
124932	1357427	He played goalie almost the entire game.	He played goalie almost the entire game.	64555289	1473617771216	1473617771303	e	69
124932	1357427	He played goalie almost the entire game.	He played goalie almost the entire game.	64555290	1473617771963	1473617772067	 	32
124932	1357427	He played goalie almost the entire game.	He played goalie almost the entire game.	64555292	1473617772099	1473617772248	a	65
124932	1357427	He played goalie almost the entire game.	He played goalie almost the entire game.	64555294	1473617772248	1473617772351	l	76
124932	1357427	He played goalie almost the entire game.	He played goalie almost the entire game.	64555296	1473617772445	1473617772568	m	77
124932	1357427	He played goalie almost the entire game.	He played goalie almost the entire game.	64555299	1473617772589	1473617772706	o	79
124932	1357427	He played goalie almost the entire game.	He played goalie almost the entire game.	64555300	1473617772639	1473617772857	s	83
124932	1357427	He played goalie almost the entire game.	He played goalie almost the entire game.	64555302	1473617772845	1473617772951	t	84
124932	1357427	He played goalie almost the entire game.	He played goalie almost the entire game.	64555304	1473617772951	1473617773053	 	32
124932	1357427	He played goalie almost the entire game.	He played goalie almost the entire game.	64555306	1473617773068	1473617773184	t	84
124932	1357427	He played goalie almost the entire game.	He played goalie almost the entire game.	64555324	1473617773198	1473617773309	h	72
124932	1357427	He played goalie almost the entire game.	He played goalie almost the entire game.	64555329	1473617773285	1473617773400	e	69
124932	1357427	He played goalie almost the entire game.	He played goalie almost the entire game.	64555333	1473617773416	1473617773521	 	32
124932	1357427	He played goalie almost the entire game.	He played goalie almost the entire game.	64555337	1473617773636	1473617773782	e	69
124932	1357427	He played goalie almost the entire game.	He played goalie almost the entire game.	64555339	1473617773782	1473617773865	n	78
124932	1357427	He played goalie almost the entire game.	He played goalie almost the entire game.	64555355	1473617774684	1473617774787	t	84
124932	1357427	He played goalie almost the entire game.	He played goalie almost the entire game.	64555356	1473617774818	1473617774893	i	73
124932	1357427	He played goalie almost the entire game.	He played goalie almost the entire game.	64555357	1473617774997	1473617775167	r	82
124932	1357427	He played goalie almost the entire game.	He played goalie almost the entire game.	64555358	1473617775102	1473617775235	e	69
124932	1357427	He played goalie almost the entire game.	He played goalie almost the entire game.	64555359	1473617775235	1473617775336	 	32
124932	1357427	He played goalie almost the entire game.	He played goalie almost the entire game.	64555376	1473617775515	1473617775634	g	71
124932	1357427	He played goalie almost the entire game.	He played goalie almost the entire game.	64555378	1473617775696	1473617775842	a	65
124932	1357427	He played goalie almost the entire game.	He played goalie almost the entire game.	64555380	1473617775842	1473617775921	m	77
124932	1357427	He played goalie almost the entire game.	He played goalie almost the entire game.	64555382	1473617775999	1473617776086	e	69
124932	1357427	He played goalie almost the entire game.	He played goalie almost the entire game.	64555384	1473617776492	1473617776559	.	190
124932	1357429	Can we have them until we move?	Can we have them until we move?	64555426	1473617779110	1473617779287	SHIFT	16
124932	1357429	Can we have them until we move?	Can we have them until we move?	64555427	1473617779205	1473617779384	C	67
124932	1357429	Can we have them until we move?	Can we have them until we move?	64555428	1473617779431	1473617779566	a	65
124932	1357429	Can we have them until we move?	Can we have them until we move?	64555429	1473617779582	1473617779747	n	78
124932	1357429	Can we have them until we move?	Can we have them until we move?	64555430	1473617779718	1473617779818	 	32
124932	1357429	Can we have them until we move?	Can we have them until we move?	64555431	1473617779896	1473617780036	w	87
124932	1357429	Can we have them until we move?	Can we have them until we move?	64555446	1473617779970	1473617780124	e	69
124932	1357429	Can we have them until we move?	Can we have them until we move?	64555447	1473617780140	1473617780218	 	32
124932	1357429	Can we have them until we move?	Can we have them until we move?	64555448	1473617780328	1473617780421	h	72
124932	1357429	Can we have them until we move?	Can we have them until we move?	64555449	1473617780389	1473617780532	a	65
124932	1357429	Can we have them until we move?	Can we have them until we move?	64555450	1473617780579	1473617780715	v	86
124932	1357429	Can we have them until we move?	Can we have them until we move?	64555452	1473617780793	1473617780884	e	69
124932	1357429	Can we have them until we move?	Can we have them until we move?	64555469	1473617780908	1473617780985	 	32
124932	1357429	Can we have them until we move?	Can we have them until we move?	64555471	1473617781032	1473617781151	t	84
124932	1357429	Can we have them until we move?	Can we have them until we move?	64555475	1473617781151	1473617781263	h	72
124932	1357429	Can we have them until we move?	Can we have them until we move?	64555479	1473617781249	1473617781381	e	69
124932	1357429	Can we have them until we move?	Can we have them until we move?	64555481	1473617781381	1473617781528	m	77
124932	1357429	Can we have them until we move?	Can we have them until we move?	64555509	1473617781500	1473617781603	 	32
124932	1357429	Can we have them until we move?	Can we have them until we move?	64555510	1473617781696	1473617781769	u	85
124932	1357429	Can we have them until we move?	Can we have them until we move?	64555511	1473617781879	1473617781967	n	78
124932	1357429	Can we have them until we move?	Can we have them until we move?	64555512	1473617782045	1473617782109	i	73
124932	1357429	Can we have them until we move?	Can we have them until we move?	64555513	1473617782934	1473617783018	BKSP	8
124932	1357429	Can we have them until we move?	Can we have them until we move?	64555514	1473617783065	1473617783168	t	84
124932	1357429	Can we have them until we move?	Can we have them until we move?	64555515	1473617783184	1473617783252	i	73
124932	1357429	Can we have them until we move?	Can we have them until we move?	64555537	1473617783401	1473617783434	l	76
124932	1357429	Can we have them until we move?	Can we have them until we move?	64555539	1473617783736	1473617783819	 	32
124932	1357429	Can we have them until we move?	Can we have them until we move?	64555541	1473617783866	1473617784052	w	87
124932	1357429	Can we have them until we move?	Can we have them until we move?	64555543	1473617783967	1473617784099	e	69
124932	1357429	Can we have them until we move?	Can we have them until we move?	64555545	1473617784114	1473617784218	 	32
124932	1357429	Can we have them until we move?	Can we have them until we move?	64555552	1473617784303	1473617784400	m	77
124932	1357429	Can we have them until we move?	Can we have them until we move?	64555553	1473617784400	1473617784502	o	79
124932	1357429	Can we have them until we move?	Can we have them until we move?	64555554	1473617784846	1473617784919	v	86
124932	1357429	Can we have them until we move?	Can we have them until we move?	64555555	1473617784996	1473617785085	e	69
124932	1357429	Can we have them until we move?	Can we have them until we move?	64555556	1473617785273	1473617785509	SHIFT	16
124932	1357429	Can we have them until we move?	Can we have them until we move?	64555557	1473617785429	1473617785496	?	191
124932	1357432	Have a safe trip!	Have a safe trip!	64555613	1473617787500	1473617787634	SHIFT	16
124932	1357432	Have a safe trip!	Have a safe trip!	64555614	1473617787593	1473617787653	H	72
124932	1357432	Have a safe trip!	Have a safe trip!	64555615	1473617787762	1473617787883	a	65
124932	1357432	Have a safe trip!	Have a safe trip!	64555616	1473617787914	1473617788118	v	86
124932	1357432	Have a safe trip!	Have a safe trip!	64555617	1473617788048	1473617788182	e	69
124932	1357432	Have a safe trip!	Have a safe trip!	64555618	1473617788214	1473617788284	 	32
124932	1357432	Have a safe trip!	Have a safe trip!	64555637	1473617788331	1473617788473	a	65
124932	1357432	Have a safe trip!	Have a safe trip!	64555638	1473617788489	1473617788568	 	32
124932	1357432	Have a safe trip!	Have a safe trip!	64555641	1473617788786	1473617788917	s	83
124932	1357432	Have a safe trip!	Have a safe trip!	64555643	1473617789091	1473617789262	a	65
124932	1357432	Have a safe trip!	Have a safe trip!	64555645	1473617789277	1473617789415	f	70
124932	1357432	Have a safe trip!	Have a safe trip!	64555656	1473617789484	1473617789614	e	69
124932	1357432	Have a safe trip!	Have a safe trip!	64555657	1473617789692	1473617789769	 	32
124932	1357432	Have a safe trip!	Have a safe trip!	64555658	1473617789941	1473617790035	t	84
124932	1357432	Have a safe trip!	Have a safe trip!	64555659	1473617790128	1473617790249	r	82
124932	1357432	Have a safe trip!	Have a safe trip!	64555660	1473617790406	1473617790468	i	73
124932	1357432	Have a safe trip!	Have a safe trip!	64555682	1473617790643	1473617790693	p	80
124932	1357432	Have a safe trip!	Have a safe trip!	64555684	1473617791141	1473617791766	SHIFT	16
124932	1357432	Have a safe trip!	Have a safe trip!	64555683	1473617791627	1473617791703	!	49
124932	1357437	The rest is a byproduct of slapshot.	The rest is a byproduct of slapshot.	64555750	1473617793983	1473617794230	SHIFT	16
124932	1357437	The rest is a byproduct of slapshot.	The rest is a byproduct of slapshot.	64555751	1473617794186	1473617794300	T	84
124932	1357437	The rest is a byproduct of slapshot.	The rest is a byproduct of slapshot.	64555752	1473617794316	1473617794430	h	72
124932	1357437	The rest is a byproduct of slapshot.	The rest is a byproduct of slapshot.	64555753	1473617794385	1473617794514	e	69
124932	1357437	The rest is a byproduct of slapshot.	The rest is a byproduct of slapshot.	64555754	1473617794514	1473617794602	 	32
124932	1357437	The rest is a byproduct of slapshot.	The rest is a byproduct of slapshot.	64555755	1473617794711	1473617794910	r	82
124932	1357437	The rest is a byproduct of slapshot.	The rest is a byproduct of slapshot.	64555782	1473617794817	1473617794979	e	69
124932	1357437	The rest is a byproduct of slapshot.	The rest is a byproduct of slapshot.	64555783	1473617795041	1473617795236	s	83
124932	1357437	The rest is a byproduct of slapshot.	The rest is a byproduct of slapshot.	64555784	1473617795182	1473617795316	t	84
124932	1357437	The rest is a byproduct of slapshot.	The rest is a byproduct of slapshot.	64555785	1473617795347	1473617795460	 	32
124932	1357437	The rest is a byproduct of slapshot.	The rest is a byproduct of slapshot.	64555786	1473617795491	1473617795600	o	79
124932	1357437	The rest is a byproduct of slapshot.	The rest is a byproduct of slapshot.	64555787	1473617795979	1473617796052	BKSP	8
124932	1357437	The rest is a byproduct of slapshot.	The rest is a byproduct of slapshot.	64555788	1473617796193	1473617796285	i	73
124932	1357437	The rest is a byproduct of slapshot.	The rest is a byproduct of slapshot.	64555832	1473617796442	1473617796589	s	83
124932	1357437	The rest is a byproduct of slapshot.	The rest is a byproduct of slapshot.	64555833	1473617796589	1473617796684	 	32
124932	1357437	The rest is a byproduct of slapshot.	The rest is a byproduct of slapshot.	64555834	1473617796762	1473617796882	a	65
124932	1357437	The rest is a byproduct of slapshot.	The rest is a byproduct of slapshot.	64555836	1473617796946	1473617797050	 	32
124932	1357437	The rest is a byproduct of slapshot.	The rest is a byproduct of slapshot.	64555838	1473617797662	1473617797751	b	66
124932	1357437	The rest is a byproduct of slapshot.	The rest is a byproduct of slapshot.	64555875	1473617797864	1473617797921	y	89
124932	1357437	The rest is a byproduct of slapshot.	The rest is a byproduct of slapshot.	64555876	1473617798382	1473617798484	p	80
124932	1357437	The rest is a byproduct of slapshot.	The rest is a byproduct of slapshot.	64555877	1473617798734	1473617798850	r	82
124932	1357437	The rest is a byproduct of slapshot.	The rest is a byproduct of slapshot.	64555878	1473617798912	1473617798969	o	79
124932	1357437	The rest is a byproduct of slapshot.	The rest is a byproduct of slapshot.	64555880	1473617799203	1473617799316	d	68
124932	1357437	The rest is a byproduct of slapshot.	The rest is a byproduct of slapshot.	64555906	1473617799337	1473617799390	u	85
124932	1357437	The rest is a byproduct of slapshot.	The rest is a byproduct of slapshot.	64555907	1473617799499	1473617799616	c	67
124932	1357437	The rest is a byproduct of slapshot.	The rest is a byproduct of slapshot.	64555908	1473617799741	1473617799836	t	84
124932	1357437	The rest is a byproduct of slapshot.	The rest is a byproduct of slapshot.	64555909	1473617799898	1473617800000	 	32
124932	1357437	The rest is a byproduct of slapshot.	The rest is a byproduct of slapshot.	64555911	1473617800248	1473617800346	o	79
124932	1357437	The rest is a byproduct of slapshot.	The rest is a byproduct of slapshot.	64555945	1473617800463	1473617800566	f	70
124932	1357437	The rest is a byproduct of slapshot.	The rest is a byproduct of slapshot.	64555947	1473617800723	1473617800834	 	32
124932	1357437	The rest is a byproduct of slapshot.	The rest is a byproduct of slapshot.	64555950	1473617800928	1473617801033	s	83
124932	1357437	The rest is a byproduct of slapshot.	The rest is a byproduct of slapshot.	64555954	1473617801614	1473617801686	l	76
124932	1357437	The rest is a byproduct of slapshot.	The rest is a byproduct of slapshot.	64555956	1473617801780	1473617801884	a	65
124932	1357437	The rest is a byproduct of slapshot.	The rest is a byproduct of slapshot.	64555965	1473617801949	1473617802019	p	80
124932	1357437	The rest is a byproduct of slapshot.	The rest is a byproduct of slapshot.	64555966	1473617802162	1473617802330	s	83
124932	1357437	The rest is a byproduct of slapshot.	The rest is a byproduct of slapshot.	64555967	1473617802296	1473617802369	h	72
124932	1357437	The rest is a byproduct of slapshot.	The rest is a byproduct of slapshot.	64555968	1473617802416	1473617802517	o	79
124932	1357437	The rest is a byproduct of slapshot.	The rest is a byproduct of slapshot.	64555970	1473617802611	1473617802686	t	84
124932	1357437	The rest is a byproduct of slapshot.	The rest is a byproduct of slapshot.	64555984	1473617803105	1473617803173	.	190
124932	1357444	I was going to call you but I hate to bother your holiday.	I was going to call you but I hate to bother your holiday.	64556039	1473617805033	1473617805168	SHIFT	16
124932	1357444	I was going to call you but I hate to bother your holiday.	I was going to call you but I hate to bother your holiday.	64556041	1473617805098	1473617805203	I	73
124932	1357444	I was going to call you but I hate to bother your holiday.	I was going to call you but I hate to bother your holiday.	64556043	1473617805168	1473617805266	 	32
124932	1357444	I was going to call you but I hate to bother your holiday.	I was going to call you but I hate to bother your holiday.	64556046	1473617805313	1473617805422	w	87
124932	1357444	I was going to call you but I hate to bother your holiday.	I was going to call you but I hate to bother your holiday.	64556049	1473617805400	1473617805619	a	65
124932	1357444	I was going to call you but I hate to bother your holiday.	I was going to call you but I hate to bother your holiday.	64556063	1473617805562	1473617805756	s	83
124932	1357444	I was going to call you but I hate to bother your holiday.	I was going to call you but I hate to bother your holiday.	64556065	1473617805698	1473617805799	 	32
124932	1357444	I was going to call you but I hate to bother your holiday.	I was going to call you but I hate to bother your holiday.	64556066	1473617806018	1473617806132	g	71
124932	1357444	I was going to call you but I hate to bother your holiday.	I was going to call you but I hate to bother your holiday.	64556067	1473617806132	1473617806306	o	79
124932	1357444	I was going to call you but I hate to bother your holiday.	I was going to call you but I hate to bother your holiday.	64556073	1473617806170	1473617806325	i	73
124932	1357444	I was going to call you but I hate to bother your holiday.	I was going to call you but I hate to bother your holiday.	64556074	1473617806296	1473617806433	n	78
124932	1357444	I was going to call you but I hate to bother your holiday.	I was going to call you but I hate to bother your holiday.	64556075	1473617806414	1473617806531	g	71
124932	1357444	I was going to call you but I hate to bother your holiday.	I was going to call you but I hate to bother your holiday.	64556077	1473617806547	1473617806649	 	32
124932	1357444	I was going to call you but I hate to bother your holiday.	I was going to call you but I hate to bother your holiday.	64556079	1473617806664	1473617806782	t	84
124932	1357444	I was going to call you but I hate to bother your holiday.	I was going to call you but I hate to bother your holiday.	64556081	1473617806782	1473617806930	o	79
124932	1357444	I was going to call you but I hate to bother your holiday.	I was going to call you but I hate to bother your holiday.	64556085	1473617806852	1473617806962	 	32
124932	1357444	I was going to call you but I hate to bother your holiday.	I was going to call you but I hate to bother your holiday.	64556087	1473617807072	1473617807246	c	67
124932	1357444	I was going to call you but I hate to bother your holiday.	I was going to call you but I hate to bother your holiday.	64556089	1473617807183	1473617807343	a	65
124932	1357444	I was going to call you but I hate to bother your holiday.	I was going to call you but I hate to bother your holiday.	64556091	1473617807314	1473617807385	l	76
124932	1357444	I was going to call you but I hate to bother your holiday.	I was going to call you but I hate to bother your holiday.	64556093	1473617807448	1473617807568	l	76
124932	1357444	I was going to call you but I hate to bother your holiday.	I was going to call you but I hate to bother your holiday.	64556096	1473617807496	1473617807605	 	32
124932	1357444	I was going to call you but I hate to bother your holiday.	I was going to call you but I hate to bother your holiday.	64556098	1473617807679	1473617807736	y	89
124932	1357444	I was going to call you but I hate to bother your holiday.	I was going to call you but I hate to bother your holiday.	64556099	1473617807750	1473617807910	o	79
124932	1357444	I was going to call you but I hate to bother your holiday.	I was going to call you but I hate to bother your holiday.	64556101	1473617807865	1473617807976	u	85
124932	1357444	I was going to call you but I hate to bother your holiday.	I was going to call you but I hate to bother your holiday.	64556102	1473617807920	1473617808040	 	32
124932	1357444	I was going to call you but I hate to bother your holiday.	I was going to call you but I hate to bother your holiday.	64556104	1473617808127	1473617808249	b	66
124932	1357444	I was going to call you but I hate to bother your holiday.	I was going to call you but I hate to bother your holiday.	64556120	1473617808249	1473617808317	u	85
124932	1357444	I was going to call you but I hate to bother your holiday.	I was going to call you but I hate to bother your holiday.	64556122	1473617808395	1473617808484	t	84
124932	1357444	I was going to call you but I hate to bother your holiday.	I was going to call you but I hate to bother your holiday.	64556124	1473617808564	1473617808652	 	32
124932	1357444	I was going to call you but I hate to bother your holiday.	I was going to call you but I hate to bother your holiday.	64556126	1473617808717	1473617808885	SHIFT	16
124932	1357444	I was going to call you but I hate to bother your holiday.	I was going to call you but I hate to bother your holiday.	64556128	1473617808803	1473617808917	I	73
124932	1357444	I was going to call you but I hate to bother your holiday.	I was going to call you but I hate to bother your holiday.	64556148	1473617808885	1473617808951	 	32
124932	1357444	I was going to call you but I hate to bother your holiday.	I was going to call you but I hate to bother your holiday.	64556150	1473617809045	1473617809124	h	72
124932	1357444	I was going to call you but I hate to bother your holiday.	I was going to call you but I hate to bother your holiday.	64556151	1473617809116	1473617809279	a	65
124932	1357444	I was going to call you but I hate to bother your holiday.	I was going to call you but I hate to bother your holiday.	64556152	1473617809342	1473617809527	t	84
124932	1357444	I was going to call you but I hate to bother your holiday.	I was going to call you but I hate to bother your holiday.	64556154	1473617809499	1473617809616	e	69
124932	1357444	I was going to call you but I hate to bother your holiday.	I was going to call you but I hate to bother your holiday.	64556156	1473617809678	1473617809766	 	32
124932	1357444	I was going to call you but I hate to bother your holiday.	I was going to call you but I hate to bother your holiday.	64556165	1473617809788	1473617809919	t	84
124932	1357444	I was going to call you but I hate to bother your holiday.	I was going to call you but I hate to bother your holiday.	64556168	1473617809919	1473617810051	o	79
124932	1357444	I was going to call you but I hate to bother your holiday.	I was going to call you but I hate to bother your holiday.	64556172	1473617809984	1473617810099	 	32
124932	1357444	I was going to call you but I hate to bother your holiday.	I was going to call you but I hate to bother your holiday.	64556175	1473617810223	1473617810300	b	66
124932	1357444	I was going to call you but I hate to bother your holiday.	I was going to call you but I hate to bother your holiday.	64556177	1473617810315	1473617810430	o	79
124932	1357444	I was going to call you but I hate to bother your holiday.	I was going to call you but I hate to bother your holiday.	64556189	1473617810498	1473617810600	t	84
124932	1357444	I was going to call you but I hate to bother your holiday.	I was going to call you but I hate to bother your holiday.	64556190	1473617810600	1473617810684	h	72
124932	1357444	I was going to call you but I hate to bother your holiday.	I was going to call you but I hate to bother your holiday.	64556192	1473617810700	1473617810867	e	69
124932	1357444	I was going to call you but I hate to bother your holiday.	I was going to call you but I hate to bother your holiday.	64556194	1473617810784	1473617810914	r	82
124932	1357444	I was going to call you but I hate to bother your holiday.	I was going to call you but I hate to bother your holiday.	64556196	1473617810914	1473617811001	 	32
124932	1357444	I was going to call you but I hate to bother your holiday.	I was going to call you but I hate to bother your holiday.	64556214	1473617811345	1473617811434	y	89
124932	1357444	I was going to call you but I hate to bother your holiday.	I was going to call you but I hate to bother your holiday.	64556217	1473617811505	1473617811610	o	79
124932	1357444	I was going to call you but I hate to bother your holiday.	I was going to call you but I hate to bother your holiday.	64556219	1473617811579	1473617811667	u	85
124932	1357444	I was going to call you but I hate to bother your holiday.	I was going to call you but I hate to bother your holiday.	64556221	1473617811714	1473617811816	r	82
124932	1357444	I was going to call you but I hate to bother your holiday.	I was going to call you but I hate to bother your holiday.	64556223	1473617811863	1473617811935	 	32
124932	1357444	I was going to call you but I hate to bother your holiday.	I was going to call you but I hate to bother your holiday.	64556247	1473617812065	1473617812123	h	72
124932	1357444	I was going to call you but I hate to bother your holiday.	I was going to call you but I hate to bother your holiday.	64556249	1473617812150	1473617812250	o	79
124932	1357444	I was going to call you but I hate to bother your holiday.	I was going to call you but I hate to bother your holiday.	64556252	1473617812400	1473617812444	l	76
124932	1357444	I was going to call you but I hate to bother your holiday.	I was going to call you but I hate to bother your holiday.	64556256	1473617812765	1473617812835	i	73
124932	1357444	I was going to call you but I hate to bother your holiday.	I was going to call you but I hate to bother your holiday.	64556262	1473617813048	1473617813239	d	68
124932	1357444	I was going to call you but I hate to bother your holiday.	I was going to call you but I hate to bother your holiday.	64556331	1473617813196	1473617813330	a	65
124932	1357444	I was going to call you but I hate to bother your holiday.	I was going to call you but I hate to bother your holiday.	64556333	1473617813393	1473617813451	y	89
124932	1357444	I was going to call you but I hate to bother your holiday.	I was going to call you but I hate to bother your holiday.	64556335	1473617813909	1473617813969	/	191
124932	1357444	I was going to call you but I hate to bother your holiday.	I was going to call you but I hate to bother your holiday.	64556337	1473617814375	1473617814434	BKSP	8
124932	1357444	I was going to call you but I hate to bother your holiday.	I was going to call you but I hate to bother your holiday.	64556340	1473617814872	1473617814948	.	190
124932	1357449	I think I'm OK.	I think I'm OK>	64556423	1473617817016	1473617817173	SHIFT	16
124932	1357449	I think I'm OK.	I think I'm OK>	64556426	1473617817110	1473617817242	I	73
124932	1357449	I think I'm OK.	I think I'm OK>	64556427	1473617817185	1473617817283	 	32
124932	1357449	I think I'm OK.	I think I'm OK>	64556429	1473617817346	1473617817488	t	84
124932	1357449	I think I'm OK.	I think I'm OK>	64556431	1473617817447	1473617817552	h	72
124932	1357449	I think I'm OK.	I think I'm OK>	64556468	1473617817533	1473617817663	i	73
124932	1357449	I think I'm OK.	I think I'm OK>	64556471	1473617817710	1473617817759	n	78
124932	1357449	I think I'm OK.	I think I'm OK>	64556473	1473617817832	1473617817918	k	75
124932	1357449	I think I'm OK.	I think I'm OK>	64556476	1473617818250	1473617818497	SHIFT	16
124932	1357449	I think I'm OK.	I think I'm OK>	64556478	1473617818339	1473617818498	 	32
124932	1357449	I think I'm OK.	I think I'm OK>	64556480	1473617818481	1473617818527	I	73
124932	1357449	I think I'm OK.	I think I'm OK>	64556481	1473617818840	1473617818949	'	222
124932	1357449	I think I'm OK.	I think I'm OK>	64556511	1473617819074	1473617819167	m	77
124932	1357449	I think I'm OK.	I think I'm OK>	64556514	1473617819262	1473617819349	 	32
124932	1357449	I think I'm OK.	I think I'm OK>	64556519	1473617819490	1473617819812	SHIFT	16
124932	1357449	I think I'm OK.	I think I'm OK>	64556516	1473617819646	1473617819733	O	79
124932	1357449	I think I'm OK.	I think I'm OK>	64556523	1473617819922	1473617820279	SHIFT	16
124932	1357449	I think I'm OK.	I think I'm OK>	64556521	1473617820109	1473617820173	K	75
124932	1357449	I think I'm OK.	I think I'm OK>	64556525	1473617820735	1473617820803	>	190
124932	1357454	I'm on a conference call.	I'm on a conference call.	64556626	1473617823502	1473617823650	I	73
124932	1357454	I'm on a conference call.	I'm on a conference call.	64556629	1473617823583	1473617823653	 	32
124932	1357454	I'm on a conference call.	I'm on a conference call.	64556631	1473617824248	1473617824315	BKSP	8
124932	1357454	I'm on a conference call.	I'm on a conference call.	64556635	1473617824755	1473617824836	'	222
124932	1357454	I'm on a conference call.	I'm on a conference call.	64556636	1473617825164	1473617825234	m	77
124932	1357454	I'm on a conference call.	I'm on a conference call.	64556638	1473617825378	1473617825498	 	32
124932	1357454	I'm on a conference call.	I'm on a conference call.	64556640	1473617825516	1473617825688	o	79
124932	1357454	I'm on a conference call.	I'm on a conference call.	64556641	1473617825631	1473617825781	n	78
124932	1357454	I'm on a conference call.	I'm on a conference call.	64556642	1473617825733	1473617825848	 	32
124932	1357454	I'm on a conference call.	I'm on a conference call.	64556644	1473617826067	1473617826224	a	65
124932	1357454	I'm on a conference call.	I'm on a conference call.	64556674	1473617826181	1473617826282	 	32
124932	1357454	I'm on a conference call.	I'm on a conference call.	64556676	1473617826411	1473617826531	f	70
124932	1357454	I'm on a conference call.	I'm on a conference call.	64556678	1473617826593	1473617826650	o	79
124932	1357454	I'm on a conference call.	I'm on a conference call.	64556680	1473617826734	1473617826801	n	78
124932	1357454	I'm on a conference call.	I'm on a conference call.	64556682	1473617826997	1473617827105	f	70
124932	1357454	I'm on a conference call.	I'm on a conference call.	64556683	1473617827214	1473617827400	r	82
124932	1357454	I'm on a conference call.	I'm on a conference call.	64556762	1473617827301	1473617827444	e	69
124932	1357454	I'm on a conference call.	I'm on a conference call.	64556766	1473617828329	1473617828401	n	78
124932	1357454	I'm on a conference call.	I'm on a conference call.	64556770	1473617829436	1473617829564	BKSP	8
124932	1357454	I'm on a conference call.	I'm on a conference call.	64556772	1473617829564	1473617829697	BKSP	8
124932	1357454	I'm on a conference call.	I'm on a conference call.	64556774	1473617829775	1473617829851	BKSP	8
124932	1357454	I'm on a conference call.	I'm on a conference call.	64556776	1473617829945	1473617830033	BKSP	8
124932	1357454	I'm on a conference call.	I'm on a conference call.	64556777	1473617830128	1473617830201	BKSP	8
124932	1357454	I'm on a conference call.	I'm on a conference call.	64556778	1473617830295	1473617830367	BKSP	8
124932	1357454	I'm on a conference call.	I'm on a conference call.	64556779	1473617830461	1473617830534	BKSP	8
124932	1357454	I'm on a conference call.	I'm on a conference call.	64556780	1473617830628	1473617830699	BKSP	8
124932	1357454	I'm on a conference call.	I'm on a conference call.	64556781	1473617831090	1473617831168	 	32
124932	1357454	I'm on a conference call.	I'm on a conference call.	64556782	1473617831387	1473617831546	c	67
124932	1357454	I'm on a conference call.	I'm on a conference call.	64556783	1473617831562	1473617831710	o	79
124932	1357454	I'm on a conference call.	I'm on a conference call.	64556795	1473617831673	1473617831754	n	78
124932	1357454	I'm on a conference call.	I'm on a conference call.	64556798	1473617831926	1473617832017	f	70
124932	1357454	I'm on a conference call.	I'm on a conference call.	64556801	1473617832220	1473617832416	e	69
124932	1357454	I'm on a conference call.	I'm on a conference call.	64556804	1473617832361	1473617832541	r	82
124932	1357454	I'm on a conference call.	I'm on a conference call.	64556805	1473617832529	1473617832621	e	69
124932	1357454	I'm on a conference call.	I'm on a conference call.	64556806	1473617832626	1473617832699	n	78
124932	1357454	I'm on a conference call.	I'm on a conference call.	64556832	1473617832877	1473617833200	c	67
124932	1357454	I'm on a conference call.	I'm on a conference call.	64556835	1473617833294	1473617833366	e	69
124932	1357454	I'm on a conference call.	I'm on a conference call.	64556838	1473617833491	1473617833598	 	32
124932	1357454	I'm on a conference call.	I'm on a conference call.	64556841	1473617833754	1473617833850	f	70
124932	1357454	I'm on a conference call.	I'm on a conference call.	64556844	1473617834147	1473617834239	BKSP	8
124932	1357454	I'm on a conference call.	I'm on a conference call.	64556858	1473617834211	1473617834355	c	67
124932	1357454	I'm on a conference call.	I'm on a conference call.	64556860	1473617834303	1473617834430	a	65
124932	1357454	I'm on a conference call.	I'm on a conference call.	64556863	1473617834446	1473617834500	l	76
124932	1357454	I'm on a conference call.	I'm on a conference call.	64556866	1473617834594	1473617834682	l	76
124932	1357454	I'm on a conference call.	I'm on a conference call.	64556869	1473617835248	1473617835315	.	190
124932	1357462	The Hawks led from late in the first quarter.	The Hawks led from late in the first quarter.	64556929	1473617837177	1473617837468	SHIFT	16
124932	1357462	The Hawks led from late in the first quarter.	The Hawks led from late in the first quarter.	64556930	1473617837397	1473617837515	T	84
124932	1357462	The Hawks led from late in the first quarter.	The Hawks led from late in the first quarter.	64556931	1473617837696	1473617837783	e	69
124932	1357462	The Hawks led from late in the first quarter.	The Hawks led from late in the first quarter.	64556933	1473617837799	1473617837883	h	72
124932	1357462	The Hawks led from late in the first quarter.	The Hawks led from late in the first quarter.	64556935	1473617838259	1473617838317	BKSP	8
124932	1357462	The Hawks led from late in the first quarter.	The Hawks led from late in the first quarter.	64556939	1473617838395	1473617838483	BKSP	8
124932	1357462	The Hawks led from late in the first quarter.	The Hawks led from late in the first quarter.	64556942	1473617838655	1473617838731	h	72
124932	1357462	The Hawks led from late in the first quarter.	The Hawks led from late in the first quarter.	64556945	1473617838731	1473617838856	e	69
124932	1357462	The Hawks led from late in the first quarter.	The Hawks led from late in the first quarter.	64556970	1473617838871	1473617838943	 	32
124932	1357462	The Hawks led from late in the first quarter.	The Hawks led from late in the first quarter.	64556976	1473617839028	1473617839201	SHIFT	16
124932	1357462	The Hawks led from late in the first quarter.	The Hawks led from late in the first quarter.	64556973	1473617839122	1473617839197	J	74
124932	1357462	The Hawks led from late in the first quarter.	The Hawks led from late in the first quarter.	64556977	1473617839343	1473617839433	a	65
124932	1357462	The Hawks led from late in the first quarter.	The Hawks led from late in the first quarter.	64556979	1473617839729	1473617839793	BKSP	8
124932	1357462	The Hawks led from late in the first quarter.	The Hawks led from late in the first quarter.	64556981	1473617839864	1473617839951	BKSP	8
124932	1357462	The Hawks led from late in the first quarter.	The Hawks led from late in the first quarter.	64556983	1473617840013	1473617840287	SHIFT	16
124932	1357462	The Hawks led from late in the first quarter.	The Hawks led from late in the first quarter.	64556982	1473617840217	1473617840283	H	72
124932	1357462	The Hawks led from late in the first quarter.	The Hawks led from late in the first quarter.	64556984	1473617840426	1473617840501	a	65
124932	1357462	The Hawks led from late in the first quarter.	The Hawks led from late in the first quarter.	64557002	1473617840631	1473617840717	w	87
124932	1357462	The Hawks led from late in the first quarter.	The Hawks led from late in the first quarter.	64557004	1473617841252	1473617841317	k	75
124932	1357462	The Hawks led from late in the first quarter.	The Hawks led from late in the first quarter.	64557006	1473617841364	1473617841513	s	83
124932	1357462	The Hawks led from late in the first quarter.	The Hawks led from late in the first quarter.	64557008	1473617841513	1473617841600	 	32
124932	1357462	The Hawks led from late in the first quarter.	The Hawks led from late in the first quarter.	64557009	1473617841740	1473617841849	l	76
124932	1357462	The Hawks led from late in the first quarter.	The Hawks led from late in the first quarter.	64557026	1473617841884	1473617841982	e	69
124932	1357462	The Hawks led from late in the first quarter.	The Hawks led from late in the first quarter.	64557028	1473617842107	1473617842183	d	68
124932	1357462	The Hawks led from late in the first quarter.	The Hawks led from late in the first quarter.	64557031	1473617842488	1473617842581	 	32
124932	1357462	The Hawks led from late in the first quarter.	The Hawks led from late in the first quarter.	64557033	1473617842827	1473617842901	f	70
124932	1357462	The Hawks led from late in the first quarter.	The Hawks led from late in the first quarter.	64557036	1473617843028	1473617843132	r	82
124932	1357462	The Hawks led from late in the first quarter.	The Hawks led from late in the first quarter.	64557045	1473617843148	1473617843331	o	79
124932	1357462	The Hawks led from late in the first quarter.	The Hawks led from late in the first quarter.	64557047	1473617843229	1473617843386	m	77
124932	1357462	The Hawks led from late in the first quarter.	The Hawks led from late in the first quarter.	64557051	1473617843347	1473617843448	 	32
124932	1357462	The Hawks led from late in the first quarter.	The Hawks led from late in the first quarter.	64557053	1473617843526	1473617843651	l	76
124932	1357462	The Hawks led from late in the first quarter.	The Hawks led from late in the first quarter.	64557062	1473617843630	1473617843809	a	65
124932	1357462	The Hawks led from late in the first quarter.	The Hawks led from late in the first quarter.	64557063	1473617843825	1473617844008	t	84
124932	1357462	The Hawks led from late in the first quarter.	The Hawks led from late in the first quarter.	64557064	1473617843963	1473617844095	e	69
124932	1357462	The Hawks led from late in the first quarter.	The Hawks led from late in the first quarter.	64557065	1473617844173	1473617844311	 	32
124932	1357462	The Hawks led from late in the first quarter.	The Hawks led from late in the first quarter.	64557066	1473617844296	1473617844494	i	73
124932	1357462	The Hawks led from late in the first quarter.	The Hawks led from late in the first quarter.	64557073	1473617844452	1473617844596	n	78
124932	1357462	The Hawks led from late in the first quarter.	The Hawks led from late in the first quarter.	64557076	1473617844537	1473617844648	 	32
124932	1357462	The Hawks led from late in the first quarter.	The Hawks led from late in the first quarter.	64557079	1473617844695	1473617844824	t	84
124932	1357462	The Hawks led from late in the first quarter.	The Hawks led from late in the first quarter.	64557080	1473617844781	1473617844898	h	72
124932	1357462	The Hawks led from late in the first quarter.	The Hawks led from late in the first quarter.	64557082	1473617844929	1473617845062	e	69
124932	1357462	The Hawks led from late in the first quarter.	The Hawks led from late in the first quarter.	64557084	1473617845062	1473617845165	 	32
124932	1357462	The Hawks led from late in the first quarter.	The Hawks led from late in the first quarter.	64557098	1473617845244	1473617845363	f	70
124932	1357462	The Hawks led from late in the first quarter.	The Hawks led from late in the first quarter.	64557099	1473617845363	1473617845480	i	73
124932	1357462	The Hawks led from late in the first quarter.	The Hawks led from late in the first quarter.	64557102	1473617845511	1473617845630	r	82
124932	1357462	The Hawks led from late in the first quarter.	The Hawks led from late in the first quarter.	64557106	1473617845630	1473617845849	s	83
124932	1357462	The Hawks led from late in the first quarter.	The Hawks led from late in the first quarter.	64557122	1473617845747	1473617845890	t	84
124932	1357462	The Hawks led from late in the first quarter.	The Hawks led from late in the first quarter.	64557123	1473617845872	1473617845964	 	32
124932	1357462	The Hawks led from late in the first quarter.	The Hawks led from late in the first quarter.	64557124	1473617846608	1473617846730	q	81
124932	1357462	The Hawks led from late in the first quarter.	The Hawks led from late in the first quarter.	64557125	1473617846697	1473617846751	u	85
124932	1357462	The Hawks led from late in the first quarter.	The Hawks led from late in the first quarter.	64557126	1473617847048	1473617847251	a	65
124932	1357462	The Hawks led from late in the first quarter.	The Hawks led from late in the first quarter.	64557146	1473617847215	1473617847314	r	82
124932	1357462	The Hawks led from late in the first quarter.	The Hawks led from late in the first quarter.	64557148	1473617847424	1473617847500	t	84
124932	1357462	The Hawks led from late in the first quarter.	The Hawks led from late in the first quarter.	64557150	1473617847622	1473617847781	e	69
124932	1357462	The Hawks led from late in the first quarter.	The Hawks led from late in the first quarter.	64557151	1473617847731	1473617847846	r	82
124932	1357462	The Hawks led from late in the first quarter.	The Hawks led from late in the first quarter.	64557152	1473617848053	1473617848132	.	190
124932	1357466	Market analysts said that the ratio was rising.	Market analysts said that the ratio was rising.	64557179	1473617850316	1473617850509	SHIFT	16
124932	1357466	Market analysts said that the ratio was rising.	Market analysts said that the ratio was rising.	64557180	1473617850446	1473617850547	M	77
124932	1357466	Market analysts said that the ratio was rising.	Market analysts said that the ratio was rising.	64557181	1473617850656	1473617850882	a	65
124932	1357466	Market analysts said that the ratio was rising.	Market analysts said that the ratio was rising.	64557183	1473617850825	1473617850994	r	82
124932	1357466	Market analysts said that the ratio was rising.	Market analysts said that the ratio was rising.	64557185	1473617851010	1473617851099	k	75
124932	1357466	Market analysts said that the ratio was rising.	Market analysts said that the ratio was rising.	64557188	1473617851130	1473617851278	e	69
124932	1357466	Market analysts said that the ratio was rising.	Market analysts said that the ratio was rising.	64557195	1473617851278	1473617851381	t	84
124932	1357466	Market analysts said that the ratio was rising.	Market analysts said that the ratio was rising.	64557198	1473617851428	1473617851496	 	32
124932	1357466	Market analysts said that the ratio was rising.	Market analysts said that the ratio was rising.	64557200	1473617851563	1473617851727	a	65
124932	1357466	Market analysts said that the ratio was rising.	Market analysts said that the ratio was rising.	64557202	1473617851696	1473617851766	n	78
124932	1357466	Market analysts said that the ratio was rising.	Market analysts said that the ratio was rising.	64557204	1473617851952	1473617852032	a	65
124932	1357466	Market analysts said that the ratio was rising.	Market analysts said that the ratio was rising.	64557215	1473617852076	1473617852134	y	89
124932	1357466	Market analysts said that the ratio was rising.	Market analysts said that the ratio was rising.	64557216	1473617853187	1473617853234	BKSP	8
124932	1357466	Market analysts said that the ratio was rising.	Market analysts said that the ratio was rising.	64557217	1473617853437	1473617853516	l	76
124932	1357466	Market analysts said that the ratio was rising.	Market analysts said that the ratio was rising.	64557218	1473617853709	1473617853766	y	89
124932	1357466	Market analysts said that the ratio was rising.	Market analysts said that the ratio was rising.	64557219	1473617853938	1473617854111	s	83
124932	1357466	Market analysts said that the ratio was rising.	Market analysts said that the ratio was rising.	64557225	1473617854094	1473617854214	t	84
124932	1357466	Market analysts said that the ratio was rising.	Market analysts said that the ratio was rising.	64557226	1473617854263	1473617854397	s	83
124932	1357466	Market analysts said that the ratio was rising.	Market analysts said that the ratio was rising.	64557227	1473617854493	1473617854565	 	32
124932	1357466	Market analysts said that the ratio was rising.	Market analysts said that the ratio was rising.	64557228	1473617854643	1473617854822	s	83
124932	1357466	Market analysts said that the ratio was rising.	Market analysts said that the ratio was rising.	64557229	1473617854777	1473617854896	a	65
124932	1357466	Market analysts said that the ratio was rising.	Market analysts said that the ratio was rising.	64557230	1473617854912	1473617854968	i	73
124932	1357466	Market analysts said that the ratio was rising.	Market analysts said that the ratio was rising.	64557231	1473617854999	1473617855127	d	68
124932	1357466	Market analysts said that the ratio was rising.	Market analysts said that the ratio was rising.	64557233	1473617855097	1473617855199	 	32
124932	1357466	Market analysts said that the ratio was rising.	Market analysts said that the ratio was rising.	64557235	1473617855231	1473617855326	t	84
124932	1357466	Market analysts said that the ratio was rising.	Market analysts said that the ratio was rising.	64557237	1473617855326	1473617855416	h	72
124932	1357466	Market analysts said that the ratio was rising.	Market analysts said that the ratio was rising.	64557245	1473617855376	1473617855549	a	65
124932	1357466	Market analysts said that the ratio was rising.	Market analysts said that the ratio was rising.	64557246	1473617855482	1473617855596	t	84
124932	1357466	Market analysts said that the ratio was rising.	Market analysts said that the ratio was rising.	64557248	1473617855596	1473617855682	 	32
124932	1357466	Market analysts said that the ratio was rising.	Market analysts said that the ratio was rising.	64557251	1473617855697	1473617855812	t	84
124932	1357466	Market analysts said that the ratio was rising.	Market analysts said that the ratio was rising.	64557254	1473617855812	1473617855917	h	72
124932	1357466	Market analysts said that the ratio was rising.	Market analysts said that the ratio was rising.	64557262	1473617855889	1473617856041	e	69
124932	1357466	Market analysts said that the ratio was rising.	Market analysts said that the ratio was rising.	64557264	1473617856010	1473617856097	 	32
124932	1357466	Market analysts said that the ratio was rising.	Market analysts said that the ratio was rising.	64557267	1473617856175	1473617856368	r	82
124932	1357466	Market analysts said that the ratio was rising.	Market analysts said that the ratio was rising.	64557270	1473617856326	1473617856469	a	65
124932	1357466	Market analysts said that the ratio was rising.	Market analysts said that the ratio was rising.	64557273	1473617856568	1473617856633	t	84
124932	1357466	Market analysts said that the ratio was rising.	Market analysts said that the ratio was rising.	64557275	1473617856696	1473617856901	i	73
124932	1357466	Market analysts said that the ratio was rising.	Market analysts said that the ratio was rising.	64557278	1473617856798	1473617856946	o	79
124932	1357466	Market analysts said that the ratio was rising.	Market analysts said that the ratio was rising.	64557280	1473617857370	1473617857448	 	32
124932	1357466	Market analysts said that the ratio was rising.	Market analysts said that the ratio was rising.	64557282	1473617857698	1473617857796	w	87
124932	1357466	Market analysts said that the ratio was rising.	Market analysts said that the ratio was rising.	64557285	1473617857812	1473617858010	a	65
124932	1357466	Market analysts said that the ratio was rising.	Market analysts said that the ratio was rising.	64557288	1473617857956	1473617858142	s	83
124932	1357466	Market analysts said that the ratio was rising.	Market analysts said that the ratio was rising.	64557291	1473617858142	1473617858216	 	32
124932	1357466	Market analysts said that the ratio was rising.	Market analysts said that the ratio was rising.	64557304	1473617858526	1473617858662	r	82
124932	1357466	Market analysts said that the ratio was rising.	Market analysts said that the ratio was rising.	64557306	1473617858678	1473617858767	i	73
124932	1357466	Market analysts said that the ratio was rising.	Market analysts said that the ratio was rising.	64557308	1473617858831	1473617859005	s	83
124932	1357466	Market analysts said that the ratio was rising.	Market analysts said that the ratio was rising.	64557310	1473617858962	1473617859064	i	73
124932	1357466	Market analysts said that the ratio was rising.	Market analysts said that the ratio was rising.	64557312	1473617859122	1473617859215	n	78
124932	1357466	Market analysts said that the ratio was rising.	Market analysts said that the ratio was rising.	64557315	1473617859248	1473617859363	g	71
124932	1357466	Market analysts said that the ratio was rising.	Market analysts said that the ratio was rising.	64557317	1473617859686	1473617859758	.	190
124932	1357470	Houston time at the Hyatt Regency.	Houston time at the Hyatt Regency.	64557340	1473617861553	1473617861748	SHIFT	16
124932	1357470	Houston time at the Hyatt Regency.	Houston time at the Hyatt Regency.	64557339	1473617861662	1473617861733	H	72
124932	1357470	Houston time at the Hyatt Regency.	Houston time at the Hyatt Regency.	64557341	1473617861889	1473617862027	o	79
124932	1357470	Houston time at the Hyatt Regency.	Houston time at the Hyatt Regency.	64557342	1473617861980	1473617862066	u	85
124932	1357470	Houston time at the Hyatt Regency.	Houston time at the Hyatt Regency.	64557343	1473617862144	1473617862360	s	83
124932	1357470	Houston time at the Hyatt Regency.	Houston time at the Hyatt Regency.	64557344	1473617862330	1473617862432	t	84
124932	1357470	Houston time at the Hyatt Regency.	Houston time at the Hyatt Regency.	64557345	1473617862432	1473617862574	o	79
124932	1357470	Houston time at the Hyatt Regency.	Houston time at the Hyatt Regency.	64557346	1473617862564	1473617862741	n	78
124932	1357470	Houston time at the Hyatt Regency.	Houston time at the Hyatt Regency.	64557347	1473617862772	1473617862849	 	32
124932	1357470	Houston time at the Hyatt Regency.	Houston time at the Hyatt Regency.	64557348	1473617862896	1473617863027	t	84
124932	1357470	Houston time at the Hyatt Regency.	Houston time at the Hyatt Regency.	64557354	1473617862983	1473617863132	i	73
124932	1357470	Houston time at the Hyatt Regency.	Houston time at the Hyatt Regency.	64557355	1473617863081	1473617863210	m	77
124932	1357470	Houston time at the Hyatt Regency.	Houston time at the Hyatt Regency.	64557356	1473617863181	1473617863296	e	69
124932	1357470	Houston time at the Hyatt Regency.	Houston time at the Hyatt Regency.	64557357	1473617863315	1473617863414	 	32
124932	1357470	Houston time at the Hyatt Regency.	Houston time at the Hyatt Regency.	64557358	1473617863446	1473617863613	a	65
124932	1357470	Houston time at the Hyatt Regency.	Houston time at the Hyatt Regency.	64557360	1473617863613	1473617863718	t	84
124932	1357470	Houston time at the Hyatt Regency.	Houston time at the Hyatt Regency.	64557370	1473617863697	1473617863797	 	32
124932	1357470	Houston time at the Hyatt Regency.	Houston time at the Hyatt Regency.	64557371	1473617863828	1473617863939	t	84
124932	1357470	Houston time at the Hyatt Regency.	Houston time at the Hyatt Regency.	64557372	1473617863939	1473617864066	h	72
124932	1357470	Houston time at the Hyatt Regency.	Houston time at the Hyatt Regency.	64557373	1473617864002	1473617864160	e	69
124932	1357470	Houston time at the Hyatt Regency.	Houston time at the Hyatt Regency.	64557374	1473617864129	1473617864236	 	32
124932	1357470	Houston time at the Hyatt Regency.	Houston time at the Hyatt Regency.	64557387	1473617864343	1473617864594	SHIFT	16
124932	1357470	Houston time at the Hyatt Regency.	Houston time at the Hyatt Regency.	64557375	1473617864452	1473617864516	H	72
124932	1357470	Houston time at the Hyatt Regency.	Houston time at the Hyatt Regency.	64557389	1473617864640	1473617864699	y	89
124932	1357470	Houston time at the Hyatt Regency.	Houston time at the Hyatt Regency.	64557394	1473617864843	1473617864962	a	65
124932	1357470	Houston time at the Hyatt Regency.	Houston time at the Hyatt Regency.	64557397	1473617865079	1473617865134	t	84
124932	1357470	Houston time at the Hyatt Regency.	Houston time at the Hyatt Regency.	64557400	1473617865196	1473617865271	t	84
124932	1357470	Houston time at the Hyatt Regency.	Houston time at the Hyatt Regency.	64557401	1473617865344	1473617865464	 	32
124932	1357470	Houston time at the Hyatt Regency.	Houston time at the Hyatt Regency.	64557409	1473617866059	1473617866264	SHIFT	16
124932	1357470	Houston time at the Hyatt Regency.	Houston time at the Hyatt Regency.	64557410	1473617866185	1473617866329	R	82
124932	1357470	Houston time at the Hyatt Regency.	Houston time at the Hyatt Regency.	64557411	1473617866614	1473617866698	e	69
124932	1357470	Houston time at the Hyatt Regency.	Houston time at the Hyatt Regency.	64557413	1473617866936	1473617867014	g	71
124932	1357470	Houston time at the Hyatt Regency.	Houston time at the Hyatt Regency.	64557415	1473617867108	1473617867198	e	69
124932	1357470	Houston time at the Hyatt Regency.	Houston time at the Hyatt Regency.	64557417	1473617867245	1473617867319	n	78
124932	1357470	Houston time at the Hyatt Regency.	Houston time at the Hyatt Regency.	64557426	1473617867395	1473617867531	c	67
124932	1357470	Houston time at the Hyatt Regency.	Houston time at the Hyatt Regency.	64557427	1473617867777	1473617867833	y	89
124932	1357470	Houston time at the Hyatt Regency.	Houston time at the Hyatt Regency.	64557428	1473617868340	1473617868392	.	190
124932	1357475	Fuel surcharges, if applicable are included in the fees listed.	Fuel surcharges, if applicable are included in the fees listed.	64557464	1473617870278	1473617870464	SHIFT	16
124932	1357475	Fuel surcharges, if applicable are included in the fees listed.	Fuel surcharges, if applicable are included in the fees listed.	64557466	1473617870403	1473617870526	F	70
124932	1357475	Fuel surcharges, if applicable are included in the fees listed.	Fuel surcharges, if applicable are included in the fees listed.	64557468	1473617870762	1473617870847	e	69
124932	1357475	Fuel surcharges, if applicable are included in the fees listed.	Fuel surcharges, if applicable are included in the fees listed.	64557470	1473617871206	1473617871301	BKSP	8
124932	1357475	Fuel surcharges, if applicable are included in the fees listed.	Fuel surcharges, if applicable are included in the fees listed.	64557472	1473617871473	1473617871531	u	85
124932	1357475	Fuel surcharges, if applicable are included in the fees listed.	Fuel surcharges, if applicable are included in the fees listed.	64557476	1473617871547	1473617871678	e	69
124932	1357475	Fuel surcharges, if applicable are included in the fees listed.	Fuel surcharges, if applicable are included in the fees listed.	64557478	1473617871725	1473617871813	l	76
124932	1357475	Fuel surcharges, if applicable are included in the fees listed.	Fuel surcharges, if applicable are included in the fees listed.	64557488	1473617871911	1473617871981	 	32
124932	1357475	Fuel surcharges, if applicable are included in the fees listed.	Fuel surcharges, if applicable are included in the fees listed.	64557489	1473617872184	1473617872342	s	83
124932	1357475	Fuel surcharges, if applicable are included in the fees listed.	Fuel surcharges, if applicable are included in the fees listed.	64557490	1473617872357	1473617872398	u	85
124932	1357475	Fuel surcharges, if applicable are included in the fees listed.	Fuel surcharges, if applicable are included in the fees listed.	64557491	1473617872492	1473617872612	r	82
124932	1357475	Fuel surcharges, if applicable are included in the fees listed.	Fuel surcharges, if applicable are included in the fees listed.	64557492	1473617872805	1473617872939	c	67
124932	1357475	Fuel surcharges, if applicable are included in the fees listed.	Fuel surcharges, if applicable are included in the fees listed.	64557501	1473617872939	1473617872990	h	72
124932	1357475	Fuel surcharges, if applicable are included in the fees listed.	Fuel surcharges, if applicable are included in the fees listed.	64557503	1473617873029	1473617873213	a	65
124932	1357475	Fuel surcharges, if applicable are included in the fees listed.	Fuel surcharges, if applicable are included in the fees listed.	64557505	1473617873145	1473617873245	r	82
124932	1357475	Fuel surcharges, if applicable are included in the fees listed.	Fuel surcharges, if applicable are included in the fees listed.	64557507	1473617873402	1473617873494	g	71
124932	1357475	Fuel surcharges, if applicable are included in the fees listed.	Fuel surcharges, if applicable are included in the fees listed.	64557508	1473617873557	1473617873678	e	69
124932	1357475	Fuel surcharges, if applicable are included in the fees listed.	Fuel surcharges, if applicable are included in the fees listed.	64557530	1473617873760	1473617873879	s	83
124932	1357475	Fuel surcharges, if applicable are included in the fees listed.	Fuel surcharges, if applicable are included in the fees listed.	64557531	1473617874381	1473617874530	,	188
124932	1357475	Fuel surcharges, if applicable are included in the fees listed.	Fuel surcharges, if applicable are included in the fees listed.	64557532	1473617874464	1473617874547	 	32
124932	1357475	Fuel surcharges, if applicable are included in the fees listed.	Fuel surcharges, if applicable are included in the fees listed.	64557533	1473617875174	1473617875230	i	73
124932	1357475	Fuel surcharges, if applicable are included in the fees listed.	Fuel surcharges, if applicable are included in the fees listed.	64557534	1473617875279	1473617875393	f	70
124932	1357475	Fuel surcharges, if applicable are included in the fees listed.	Fuel surcharges, if applicable are included in the fees listed.	64557546	1473617875393	1473617875512	 	32
124932	1357475	Fuel surcharges, if applicable are included in the fees listed.	Fuel surcharges, if applicable are included in the fees listed.	64557547	1473617875575	1473617875695	a	65
124932	1357475	Fuel surcharges, if applicable are included in the fees listed.	Fuel surcharges, if applicable are included in the fees listed.	64557548	1473617875963	1473617876061	p	80
124932	1357475	Fuel surcharges, if applicable are included in the fees listed.	Fuel surcharges, if applicable are included in the fees listed.	64557550	1473617876077	1473617876212	p	80
124932	1357475	Fuel surcharges, if applicable are included in the fees listed.	Fuel surcharges, if applicable are included in the fees listed.	64557552	1473617876675	1473617876705	i	73
124932	1357475	Fuel surcharges, if applicable are included in the fees listed.	Fuel surcharges, if applicable are included in the fees listed.	64557580	1473617877238	1473617877311	BKSP	8
124932	1357475	Fuel surcharges, if applicable are included in the fees listed.	Fuel surcharges, if applicable are included in the fees listed.	64557581	1473617877546	1473617877631	l	76
124932	1357475	Fuel surcharges, if applicable are included in the fees listed.	Fuel surcharges, if applicable are included in the fees listed.	64557582	1473617877734	1473617877780	i	73
124932	1357475	Fuel surcharges, if applicable are included in the fees listed.	Fuel surcharges, if applicable are included in the fees listed.	64557583	1473617878455	1473617878614	c	67
124932	1357475	Fuel surcharges, if applicable are included in the fees listed.	Fuel surcharges, if applicable are included in the fees listed.	64557584	1473617878576	1473617878711	a	65
124932	1357475	Fuel surcharges, if applicable are included in the fees listed.	Fuel surcharges, if applicable are included in the fees listed.	64557585	1473617879275	1473617879362	b	66
124932	1357475	Fuel surcharges, if applicable are included in the fees listed.	Fuel surcharges, if applicable are included in the fees listed.	64557603	1473617879774	1473617879879	l	76
124932	1357475	Fuel surcharges, if applicable are included in the fees listed.	Fuel surcharges, if applicable are included in the fees listed.	64557604	1473617879942	1473617880045	e	69
124932	1357475	Fuel surcharges, if applicable are included in the fees listed.	Fuel surcharges, if applicable are included in the fees listed.	64557605	1473617880202	1473617880281	 	32
124932	1357475	Fuel surcharges, if applicable are included in the fees listed.	Fuel surcharges, if applicable are included in the fees listed.	64557606	1473617880343	1473617880507	a	65
124932	1357475	Fuel surcharges, if applicable are included in the fees listed.	Fuel surcharges, if applicable are included in the fees listed.	64557610	1473617880461	1473617880607	r	82
124932	1357475	Fuel surcharges, if applicable are included in the fees listed.	Fuel surcharges, if applicable are included in the fees listed.	64557612	1473617880531	1473617880693	e	69
124932	1357475	Fuel surcharges, if applicable are included in the fees listed.	Fuel surcharges, if applicable are included in the fees listed.	64557614	1473617880645	1473617880745	 	32
124932	1357475	Fuel surcharges, if applicable are included in the fees listed.	Fuel surcharges, if applicable are included in the fees listed.	64557616	1473617880765	1473617880923	i	73
124932	1357475	Fuel surcharges, if applicable are included in the fees listed.	Fuel surcharges, if applicable are included in the fees listed.	64557618	1473617880878	1473617881039	n	78
124932	1357475	Fuel surcharges, if applicable are included in the fees listed.	Fuel surcharges, if applicable are included in the fees listed.	64557653	1473617881010	1473617881100	 	32
124932	1357475	Fuel surcharges, if applicable are included in the fees listed.	Fuel surcharges, if applicable are included in the fees listed.	64557654	1473617881448	1473617881501	BKSP	8
124932	1357475	Fuel surcharges, if applicable are included in the fees listed.	Fuel surcharges, if applicable are included in the fees listed.	64557655	1473617881624	1473617881761	c	67
124932	1357475	Fuel surcharges, if applicable are included in the fees listed.	Fuel surcharges, if applicable are included in the fees listed.	64557656	1473617881808	1473617881896	l	76
124932	1357475	Fuel surcharges, if applicable are included in the fees listed.	Fuel surcharges, if applicable are included in the fees listed.	64557657	1473617881959	1473617882014	u	85
124932	1357475	Fuel surcharges, if applicable are included in the fees listed.	Fuel surcharges, if applicable are included in the fees listed.	64557658	1473617882219	1473617882281	d	68
124932	1357475	Fuel surcharges, if applicable are included in the fees listed.	Fuel surcharges, if applicable are included in the fees listed.	64557659	1473617882657	1473617882746	e	69
124932	1357475	Fuel surcharges, if applicable are included in the fees listed.	Fuel surcharges, if applicable are included in the fees listed.	64557670	1473617882863	1473617882963	d	68
124932	1357475	Fuel surcharges, if applicable are included in the fees listed.	Fuel surcharges, if applicable are included in the fees listed.	64557672	1473617883010	1473617883114	 	32
124932	1357475	Fuel surcharges, if applicable are included in the fees listed.	Fuel surcharges, if applicable are included in the fees listed.	64557675	1473617883097	1473617883278	i	73
124932	1357475	Fuel surcharges, if applicable are included in the fees listed.	Fuel surcharges, if applicable are included in the fees listed.	64557678	1473617883229	1473617883372	n	78
124932	1357475	Fuel surcharges, if applicable are included in the fees listed.	Fuel surcharges, if applicable are included in the fees listed.	64557686	1473617883313	1473617883433	 	32
124932	1357475	Fuel surcharges, if applicable are included in the fees listed.	Fuel surcharges, if applicable are included in the fees listed.	64557689	1473617883413	1473617883545	t	84
124932	1357475	Fuel surcharges, if applicable are included in the fees listed.	Fuel surcharges, if applicable are included in the fees listed.	64557692	1473617883545	1473617883651	h	72
124932	1357475	Fuel surcharges, if applicable are included in the fees listed.	Fuel surcharges, if applicable are included in the fees listed.	64557696	1473617883613	1473617883744	e	69
124932	1357475	Fuel surcharges, if applicable are included in the fees listed.	Fuel surcharges, if applicable are included in the fees listed.	64557700	1473617883744	1473617883830	 	32
124932	1357475	Fuel surcharges, if applicable are included in the fees listed.	Fuel surcharges, if applicable are included in the fees listed.	64557704	1473617883927	1473617884044	f	70
124932	1357475	Fuel surcharges, if applicable are included in the fees listed.	Fuel surcharges, if applicable are included in the fees listed.	64557706	1473617884104	1473617884212	e	69
124932	1357475	Fuel surcharges, if applicable are included in the fees listed.	Fuel surcharges, if applicable are included in the fees listed.	64557708	1473617884274	1473617884378	e	69
124932	1357475	Fuel surcharges, if applicable are included in the fees listed.	Fuel surcharges, if applicable are included in the fees listed.	64557710	1473617884456	1473617884607	s	83
124932	1357475	Fuel surcharges, if applicable are included in the fees listed.	Fuel surcharges, if applicable are included in the fees listed.	64557712	1473617884607	1473617884728	 	32
124932	1357475	Fuel surcharges, if applicable are included in the fees listed.	Fuel surcharges, if applicable are included in the fees listed.	64557715	1473617884791	1473617884917	l	76
124932	1357475	Fuel surcharges, if applicable are included in the fees listed.	Fuel surcharges, if applicable are included in the fees listed.	64557735	1473617884895	1473617884982	i	73
124932	1357475	Fuel surcharges, if applicable are included in the fees listed.	Fuel surcharges, if applicable are included in the fees listed.	64557737	1473617885107	1473617885283	s	83
124932	1357475	Fuel surcharges, if applicable are included in the fees listed.	Fuel surcharges, if applicable are included in the fees listed.	64557739	1473617885243	1473617885361	t	84
124932	1357475	Fuel surcharges, if applicable are included in the fees listed.	Fuel surcharges, if applicable are included in the fees listed.	64557741	1473617885408	1473617885528	e	69
124932	1357475	Fuel surcharges, if applicable are included in the fees listed.	Fuel surcharges, if applicable are included in the fees listed.	64557743	1473617885637	1473617885730	d	68
124932	1357475	Fuel surcharges, if applicable are included in the fees listed.	Fuel surcharges, if applicable are included in the fees listed.	64557745	1473617886024	1473617886092	.	190
124932	1357480	Are you getting all the information you need?	Are you getting all the information you need?	64557795	1473617887753	1473617887981	SHIFT	16
124932	1357480	Are you getting all the information you need?	Are you getting all the information you need?	64557797	1473617887906	1473617888028	A	65
124932	1357480	Are you getting all the information you need?	Are you getting all the information you need?	64557800	1473617888498	1473617888713	r	82
124932	1357480	Are you getting all the information you need?	Are you getting all the information you need?	64557803	1473617888628	1473617888816	e	69
124932	1357480	Are you getting all the information you need?	Are you getting all the information you need?	64557804	1473617888775	1473617888862	 	32
124932	1357480	Are you getting all the information you need?	Are you getting all the information you need?	64557806	1473617888940	1473617889030	y	89
124932	1357480	Are you getting all the information you need?	Are you getting all the information you need?	64557811	1473617889045	1473617889223	o	79
124932	1357480	Are you getting all the information you need?	Are you getting all the information you need?	64557812	1473617889129	1473617889263	u	85
124932	1357480	Are you getting all the information you need?	Are you getting all the information you need?	64557813	1473617889181	1473617889315	 	32
124932	1357480	Are you getting all the information you need?	Are you getting all the information you need?	64557815	1473617889355	1473617889446	g	71
124932	1357480	Are you getting all the information you need?	Are you getting all the information you need?	64557817	1473617889513	1473617889648	e	69
124932	1357480	Are you getting all the information you need?	Are you getting all the information you need?	64557823	1473617889598	1473617889648	t	84
124932	1357480	Are you getting all the information you need?	Are you getting all the information you need?	64557825	1473617889723	1473617889789	t	84
124932	1357480	Are you getting all the information you need?	Are you getting all the information you need?	64557826	1473617889812	1473617889981	i	73
124932	1357480	Are you getting all the information you need?	Are you getting all the information you need?	64557828	1473617889945	1473617890093	n	78
124932	1357480	Are you getting all the information you need?	Are you getting all the information you need?	64557830	1473617890075	1473617890216	g	71
124932	1357480	Are you getting all the information you need?	Are you getting all the information you need?	64557844	1473617890177	1473617890280	 	32
124932	1357480	Are you getting all the information you need?	Are you getting all the information you need?	64557846	1473617890362	1473617890477	a	65
124932	1357480	Are you getting all the information you need?	Are you getting all the information you need?	64557848	1473617890509	1473617890565	l	76
124932	1357480	Are you getting all the information you need?	Are you getting all the information you need?	64557850	1473617890653	1473617890704	l	76
124932	1357480	Are you getting all the information you need?	Are you getting all the information you need?	64557852	1473617891045	1473617891129	 	32
124932	1357480	Are you getting all the information you need?	Are you getting all the information you need?	64557853	1473617891160	1473617891293	t	84
124932	1357480	Are you getting all the information you need?	Are you getting all the information you need?	64557854	1473617891261	1473617891391	h	72
124932	1357480	Are you getting all the information you need?	Are you getting all the information you need?	64557855	1473617891377	1473617891528	e	69
124932	1357480	Are you getting all the information you need?	Are you getting all the information you need?	64557856	1473617891478	1473617891562	 	32
124932	1357480	Are you getting all the information you need?	Are you getting all the information you need?	64557857	1473617891578	1473617891723	i	73
124932	1357480	Are you getting all the information you need?	Are you getting all the information you need?	64557858	1473617891703	1473617891810	n	78
124932	1357480	Are you getting all the information you need?	Are you getting all the information you need?	64557859	1473617891873	1473617891960	f	70
124932	1357480	Are you getting all the information you need?	Are you getting all the information you need?	64557863	1473617891983	1473617892046	o	79
124932	1357480	Are you getting all the information you need?	Are you getting all the information you need?	64557866	1473617892110	1473617892195	r	82
124932	1357480	Are you getting all the information you need?	Are you getting all the information you need?	64557869	1473617892258	1473617892346	m	77
124932	1357480	Are you getting all the information you need?	Are you getting all the information you need?	64557871	1473617892408	1473617892610	a	65
124932	1357480	Are you getting all the information you need?	Are you getting all the information you need?	64557887	1473617892560	1473617892662	t	84
124932	1357480	Are you getting all the information you need?	Are you getting all the information you need?	64557888	1473617892662	1473617892815	i	73
124932	1357480	Are you getting all the information you need?	Are you getting all the information you need?	64557889	1473617892762	1473617892893	o	79
124932	1357480	Are you getting all the information you need?	Are you getting all the information you need?	64557890	1473617892909	1473617893072	n	78
124932	1357480	Are you getting all the information you need?	Are you getting all the information you need?	64557891	1473617893072	1473617893162	 	32
124932	1357480	Are you getting all the information you need?	Are you getting all the information you need?	64557892	1473617893302	1473617893380	y	89
124932	1357480	Are you getting all the information you need?	Are you getting all the information you need?	64557903	1473617893395	1473617893558	o	79
124932	1357480	Are you getting all the information you need?	Are you getting all the information you need?	64557904	1473617893495	1473617893615	u	85
124932	1357480	Are you getting all the information you need?	Are you getting all the information you need?	64557905	1473617893575	1473617893662	 	32
124932	1357480	Are you getting all the information you need?	Are you getting all the information you need?	64557906	1473617893790	1473617893856	n	78
124932	1357480	Are you getting all the information you need?	Are you getting all the information you need?	64557907	1473617893864	1473617893946	e	69
124932	1357480	Are you getting all the information you need?	Are you getting all the information you need?	64557925	1473617894017	1473617894114	e	69
124932	1357480	Are you getting all the information you need?	Are you getting all the information you need?	64557926	1473617894202	1473617894311	d	68
124932	1357480	Are you getting all the information you need?	Are you getting all the information you need?	64557930	1473617894405	1473617894819	SHIFT	16
124932	1357480	Are you getting all the information you need?	Are you getting all the information you need?	64557928	1473617894572	1473617894629	>	190
124932	1357480	Are you getting all the information you need?	Are you getting all the information you need?	64557933	1473617895054	1473617895114	BKSP	8
124932	1357480	Are you getting all the information you need?	Are you getting all the information you need?	64557936	1473617895241	1473617895533	SHIFT	16
124932	1357480	Are you getting all the information you need?	Are you getting all the information you need?	64557939	1473617895459	1473617895533	?	191
124932	1357486	I am at the lake.	I am at the lake.	64558049	1473617899264	1473617899415	SHIFT	16
124932	1357486	I am at the lake.	I am at the lake.	64558050	1473617899374	1473617899541	I	73
124932	1357486	I am at the lake.	I am at the lake.	64558051	1473617899713	1473617899851	 	32
124932	1357486	I am at the lake.	I am at the lake.	64558052	1473617899827	1473617899961	a	65
124932	1357486	I am at the lake.	I am at the lake.	64558053	1473617899913	1473617900059	m	77
124932	1357486	I am at the lake.	I am at the lake.	64558054	1473617900059	1473617900162	 	32
124932	1357486	I am at the lake.	I am at the lake.	64558069	1473617900432	1473617900615	a	65
124932	1357486	I am at the lake.	I am at the lake.	64558070	1473617900543	1473617900648	t	84
124932	1357486	I am at the lake.	I am at the lake.	64558071	1473617900618	1473617900695	 	32
124932	1357486	I am at the lake.	I am at the lake.	64558072	1473617900758	1473617900857	t	84
124932	1357486	I am at the lake.	I am at the lake.	64558080	1473617900822	1473617900968	h	72
124932	1357486	I am at the lake.	I am at the lake.	64558082	1473617900928	1473617901036	e	69
124932	1357486	I am at the lake.	I am at the lake.	64558084	1473617901001	1473617901102	 	32
124932	1357486	I am at the lake.	I am at the lake.	64558086	1473617901146	1473617901244	l	76
124932	1357486	I am at the lake.	I am at the lake.	64558088	1473617901291	1473617901428	a	65
124932	1357486	I am at the lake.	I am at the lake.	64558091	1473617901443	1473617901498	k	75
124932	1357486	I am at the lake.	I am at the lake.	64558140	1473617901575	1473617901662	e	69
124932	1357486	I am at the lake.	I am at the lake.	64558144	1473617902006	1473617902069	/	191
124932	1357486	I am at the lake.	I am at the lake.	64558148	1473617902601	1473617902663	BKSP	8
124932	1357486	I am at the lake.	I am at the lake.	64558150	1473617902834	1473617902899	.	190
