PARTICIPANT_ID	TEST_SECTION_ID	SENTENCE	USER_INPUT	KEYSTROKE_ID	PRESS_TIME	RELEASE_TIME	LETTER	KEYCODE
13144	141385	Michael has his holiday performance.	Michael has his holiday performance	6727364	1472076360307	1472076360385	CAPS_LOCK	20
13144	141385	Michael has his holiday performance.	Michael has his holiday performance	6727369	1472076360433	1472076360517	M	77
13144	141385	Michael has his holiday performance.	Michael has his holiday performance	6727375	1472076360541	1472076360625	CAPS_LOCK	20
13144	141385	Michael has his holiday performance.	Michael has his holiday performance	6727382	1472076360640	1472076360720	i	73
13144	141385	Michael has his holiday performance.	Michael has his holiday performance	6727387	1472076360764	1472076360861	c	67
13144	141385	Michael has his holiday performance.	Michael has his holiday performance	6727392	1472076360908	1472076360997	h	72
13144	141385	Michael has his holiday performance.	Michael has his holiday performance	6727394	1472076361814	1472076361908	e	69
13144	141385	Michael has his holiday performance.	Michael has his holiday performance	6727423	1472076362098	1472076362163	BKSP	8
13144	141385	Michael has his holiday performance.	Michael has his holiday performance	6727425	1472076362192	1472076362266	a	65
13144	141385	Michael has his holiday performance.	Michael has his holiday performance	6727430	1472076362370	1472076362435	e	69
13144	141385	Michael has his holiday performance.	Michael has his holiday performance	6727434	1472076362489	1472076362557	l	76
13144	141385	Michael has his holiday performance.	Michael has his holiday performance	6727438	1472076362673	1472076362763	 	32
13144	141385	Michael has his holiday performance.	Michael has his holiday performance	6727442	1472076362848	1472076362927	h	72
13144	141385	Michael has his holiday performance.	Michael has his holiday performance	6727555	1472076362978	1472076363051	a	65
13144	141385	Michael has his holiday performance.	Michael has his holiday performance	6727558	1472076364361	1472076364445	s	83
13144	141385	Michael has his holiday performance.	Michael has his holiday performance	6727562	1472076364489	1472076364568	 	32
13144	141385	Michael has his holiday performance.	Michael has his holiday performance	6727565	1472076364679	1472076364752	h	72
13144	141385	Michael has his holiday performance.	Michael has his holiday performance	6727568	1472076364957	1472076365044	i	73
13144	141385	Michael has his holiday performance.	Michael has his holiday performance	6727623	1472076365096	1472076365145	s	83
13144	141385	Michael has his holiday performance.	Michael has his holiday performance	6727628	1472076365221	1472076365301	 	32
13144	141385	Michael has his holiday performance.	Michael has his holiday performance	6727633	1472076365484	1472076365557	h	72
13144	141385	Michael has his holiday performance.	Michael has his holiday performance	6727637	1472076365889	1472076365958	o	79
13144	141385	Michael has his holiday performance.	Michael has his holiday performance	6727641	1472076366072	1472076366142	l	76
13144	141385	Michael has his holiday performance.	Michael has his holiday performance	6727678	1472076366286	1472076366346	i	73
13144	141385	Michael has his holiday performance.	Michael has his holiday performance	6727682	1472076366425	1472076366479	d	68
13144	141385	Michael has his holiday performance.	Michael has his holiday performance	6727685	1472076366589	1472076366667	a	65
13144	141385	Michael has his holiday performance.	Michael has his holiday performance	6727694	1472076366829	1472076366888	y	89
13144	141385	Michael has his holiday performance.	Michael has his holiday performance	6727702	1472076366959	1472076367023	 	32
13144	141385	Michael has his holiday performance.	Michael has his holiday performance	6727757	1472076367196	1472076367264	p	80
13144	141385	Michael has his holiday performance.	Michael has his holiday performance	6727761	1472076367697	1472076367776	e	69
13144	141385	Michael has his holiday performance.	Michael has his holiday performance	6727767	1472076367876	1472076367942	r	82
13144	141385	Michael has his holiday performance.	Michael has his holiday performance	6727770	1472076368047	1472076368131	f	70
13144	141385	Michael has his holiday performance.	Michael has his holiday performance	6727771	1472076368181	1472076368259	o	79
13144	141385	Michael has his holiday performance.	Michael has his holiday performance	6727776	1472076368236	1472076368291	r	82
13144	141385	Michael has his holiday performance.	Michael has his holiday performance	6727781	1472076368356	1472076368422	m	77
13144	141385	Michael has his holiday performance.	Michael has his holiday performance	6727786	1472076368440	1472076368514	a	65
13144	141385	Michael has his holiday performance.	Michael has his holiday performance	6727791	1472076368558	1472076368622	n	78
13144	141385	Michael has his holiday performance.	Michael has his holiday performance	6727796	1472076368629	1472076368683	c	67
13144	141385	Michael has his holiday performance.	Michael has his holiday performance	6727800	1472076368753	1472076368817	e	69
13144	141396	He was very close to achieving his life's goal.	He was very close to acheving his life's goal	6727935	1472076370635	1472076370691	CAPS_LOCK	20
13144	141396	He was very close to achieving his life's goal.	He was very close to acheving his life's goal	6727938	1472076370763	1472076370831	H	72
13144	141396	He was very close to achieving his life's goal.	He was very close to acheving his life's goal	6727941	1472076370814	1472076370893	CAPS_LOCK	20
13144	141396	He was very close to achieving his life's goal.	He was very close to acheving his life's goal	6727944	1472076370957	1472076371036	e	69
13144	141396	He was very close to achieving his life's goal.	He was very close to acheving his life's goal	6727947	1472076371049	1472076371145	 	32
13144	141396	He was very close to achieving his life's goal.	He was very close to acheving his life's goal	6727950	1472076371152	1472076371206	w	87
13144	141396	He was very close to achieving his life's goal.	He was very close to acheving his life's goal	6727952	1472076371306	1472076371381	a	65
13144	141396	He was very close to achieving his life's goal.	He was very close to acheving his life's goal	6727982	1472076371460	1472076371547	s	83
13144	141396	He was very close to achieving his life's goal.	He was very close to acheving his life's goal	6727984	1472076371570	1472076371679	 	32
13144	141396	He was very close to achieving his life's goal.	He was very close to acheving his life's goal	6727986	1472076371953	1472076372027	v	86
13144	141396	He was very close to achieving his life's goal.	He was very close to acheving his life's goal	6727989	1472076372041	1472076372109	e	69
13144	141396	He was very close to achieving his life's goal.	He was very close to acheving his life's goal	6727990	1472076372196	1472076372260	r	82
13144	141396	He was very close to achieving his life's goal.	He was very close to acheving his life's goal	6728011	1472076372376	1472076372429	y	89
13144	141396	He was very close to achieving his life's goal.	He was very close to acheving his life's goal	6728014	1472076372451	1472076372565	 	32
13144	141396	He was very close to achieving his life's goal.	He was very close to acheving his life's goal	6728020	1472076372589	1472076372669	c	67
13144	141396	He was very close to achieving his life's goal.	He was very close to acheving his life's goal	6728025	1472076372682	1472076372771	l	76
13144	141396	He was very close to achieving his life's goal.	He was very close to acheving his life's goal	6728031	1472076372831	1472076372915	o	79
13144	141396	He was very close to achieving his life's goal.	He was very close to acheving his life's goal	6728040	1472076372944	1472076373007	s	83
13144	141396	He was very close to achieving his life's goal.	He was very close to acheving his life's goal	6728044	1472076373112	1472076373176	e	69
13144	141396	He was very close to achieving his life's goal.	He was very close to acheving his life's goal	6728048	1472076373227	1472076373316	 	32
13144	141396	He was very close to achieving his life's goal.	He was very close to acheving his life's goal	6728052	1472076373303	1472076373372	t	84
13144	141396	He was very close to achieving his life's goal.	He was very close to acheving his life's goal	6728056	1472076373441	1472076373527	o	79
13144	141396	He was very close to achieving his life's goal.	He was very close to acheving his life's goal	6728096	1472076373659	1472076373723	 	32
13144	141396	He was very close to achieving his life's goal.	He was very close to acheving his life's goal	6728100	1472076373859	1472076373923	a	65
13144	141396	He was very close to achieving his life's goal.	He was very close to acheving his life's goal	6728104	1472076374048	1472076374153	c	67
13144	141396	He was very close to achieving his life's goal.	He was very close to acheving his life's goal	6728107	1472076374182	1472076374278	h	72
13144	141396	He was very close to achieving his life's goal.	He was very close to acheving his life's goal	6728110	1472076374312	1472076374382	e	69
13144	141396	He was very close to achieving his life's goal.	He was very close to acheving his life's goal	6728197	1472076374461	1472076374556	v	86
13144	141396	He was very close to achieving his life's goal.	He was very close to acheving his life's goal	6728200	1472076375671	1472076375743	i	73
13144	141396	He was very close to achieving his life's goal.	He was very close to acheving his life's goal	6728204	1472076375847	1472076375911	n	78
13144	141396	He was very close to achieving his life's goal.	He was very close to acheving his life's goal	6728206	1472076375950	1472076375993	g	71
13144	141396	He was very close to achieving his life's goal.	He was very close to acheving his life's goal	6728208	1472076376053	1472076376137	 	32
13144	141396	He was very close to achieving his life's goal.	He was very close to acheving his life's goal	6728232	1472076376242	1472076376311	h	72
13144	141396	He was very close to achieving his life's goal.	He was very close to acheving his life's goal	6728235	1472076376367	1472076376441	i	73
13144	141396	He was very close to achieving his life's goal.	He was very close to acheving his life's goal	6728239	1472076376448	1472076376532	s	83
13144	141396	He was very close to achieving his life's goal.	He was very close to acheving his life's goal	6728244	1472076376519	1472076376626	 	32
13144	141396	He was very close to achieving his life's goal.	He was very close to acheving his life's goal	6728249	1472076376712	1472076376791	l	76
13144	141396	He was very close to achieving his life's goal.	He was very close to acheving his life's goal	6728271	1472076376876	1472076376960	i	73
13144	141396	He was very close to achieving his life's goal.	He was very close to acheving his life's goal	6728274	1472076377014	1472076377103	f	70
13144	141396	He was very close to achieving his life's goal.	He was very close to acheving his life's goal	6728278	1472076377168	1472076377252	e	69
13144	141396	He was very close to achieving his life's goal.	He was very close to acheving his life's goal	6728281	1472076377291	1472076377389	'	222
13144	141396	He was very close to achieving his life's goal.	He was very close to acheving his life's goal	6728287	1472076377463	1472076377552	s	83
13144	141396	He was very close to achieving his life's goal.	He was very close to acheving his life's goal	6728307	1472076377580	1472076377676	 	32
13144	141396	He was very close to achieving his life's goal.	He was very close to acheving his life's goal	6728311	1472076377818	1472076377883	g	71
13144	141396	He was very close to achieving his life's goal.	He was very close to acheving his life's goal	6728318	1472076377902	1472076377981	o	79
13144	141396	He was very close to achieving his life's goal.	He was very close to acheving his life's goal	6728326	1472076378010	1472076378099	a	65
13144	141396	He was very close to achieving his life's goal.	He was very close to acheving his life's goal	6728329	1472076378107	1472076378172	l	76
13144	141407	Jacksonville's secondary is thin because of injuries.	Jacksonville's secondary is thin becaquse of injuries	6728549	1472076380045	1472076380159	CAPS_LOCK	20
13144	141407	Jacksonville's secondary is thin because of injuries.	Jacksonville's secondary is thin becaquse of injuries	6728551	1472076381924	1472076382000	J	74
13144	141407	Jacksonville's secondary is thin because of injuries.	Jacksonville's secondary is thin becaquse of injuries	6728553	1472076382008	1472076382094	CAPS_LOCK	20
13144	141407	Jacksonville's secondary is thin because of injuries.	Jacksonville's secondary is thin becaquse of injuries	6728556	1472076382138	1472076382238	a	65
13144	141407	Jacksonville's secondary is thin because of injuries.	Jacksonville's secondary is thin becaquse of injuries	6728559	1472076382348	1472076382442	c	67
13144	141407	Jacksonville's secondary is thin because of injuries.	Jacksonville's secondary is thin becaquse of injuries	6728562	1472076382471	1472076382555	k	75
13144	141407	Jacksonville's secondary is thin because of injuries.	Jacksonville's secondary is thin becaquse of injuries	6728568	1472076383022	1472076383096	s	83
13144	141407	Jacksonville's secondary is thin because of injuries.	Jacksonville's secondary is thin becaquse of injuries	6728606	1472076383119	1472076383198	o	79
13144	141407	Jacksonville's secondary is thin because of injuries.	Jacksonville's secondary is thin becaquse of injuries	6728608	1472076383340	1472076383409	n	78
13144	141407	Jacksonville's secondary is thin because of injuries.	Jacksonville's secondary is thin becaquse of injuries	6728610	1472076383575	1472076383654	v	86
13144	141407	Jacksonville's secondary is thin because of injuries.	Jacksonville's secondary is thin becaquse of injuries	6728612	1472076383670	1472076383737	i	73
13144	141407	Jacksonville's secondary is thin because of injuries.	Jacksonville's secondary is thin becaquse of injuries	6728613	1472076383864	1472076383940	l	76
13144	141407	Jacksonville's secondary is thin because of injuries.	Jacksonville's secondary is thin becaquse of injuries	6728622	1472076384050	1472076384100	l	76
13144	141407	Jacksonville's secondary is thin because of injuries.	Jacksonville's secondary is thin becaquse of injuries	6728625	1472076384145	1472076384239	e	69
13144	141407	Jacksonville's secondary is thin because of injuries.	Jacksonville's secondary is thin becaquse of injuries	6728629	1472076384258	1472076384337	'	222
13144	141407	Jacksonville's secondary is thin because of injuries.	Jacksonville's secondary is thin becaquse of injuries	6728633	1472076384417	1472076384485	s	83
13144	141407	Jacksonville's secondary is thin because of injuries.	Jacksonville's secondary is thin becaquse of injuries	6728638	1472076384581	1472076384664	 	32
13144	141407	Jacksonville's secondary is thin because of injuries.	Jacksonville's secondary is thin becaquse of injuries	6728665	1472076384812	1472076384911	s	83
13144	141407	Jacksonville's secondary is thin because of injuries.	Jacksonville's secondary is thin becaquse of injuries	6728668	1472076384958	1472076385035	e	69
13144	141407	Jacksonville's secondary is thin because of injuries.	Jacksonville's secondary is thin becaquse of injuries	6728674	1472076385101	1472076385219	c	67
13144	141407	Jacksonville's secondary is thin because of injuries.	Jacksonville's secondary is thin becaquse of injuries	6728678	1472076385206	1472076385280	o	79
13144	141407	Jacksonville's secondary is thin because of injuries.	Jacksonville's secondary is thin becaquse of injuries	6728684	1472076385360	1472076385454	n	78
13144	141407	Jacksonville's secondary is thin because of injuries.	Jacksonville's secondary is thin becaquse of injuries	6728747	1472076385463	1472076385527	d	68
13144	141407	Jacksonville's secondary is thin because of injuries.	Jacksonville's secondary is thin becaquse of injuries	6728749	1472076385889	1472076385978	a	65
13144	141407	Jacksonville's secondary is thin because of injuries.	Jacksonville's secondary is thin becaquse of injuries	6728751	1472076386100	1472076386187	r	82
13144	141407	Jacksonville's secondary is thin because of injuries.	Jacksonville's secondary is thin becaquse of injuries	6728753	1472076386329	1472076386387	y	89
13144	141407	Jacksonville's secondary is thin because of injuries.	Jacksonville's secondary is thin becaquse of injuries	6728756	1472076386609	1472076386714	 	32
13144	141407	Jacksonville's secondary is thin because of injuries.	Jacksonville's secondary is thin becaquse of injuries	6728769	1472076386877	1472076386966	i	73
13144	141407	Jacksonville's secondary is thin because of injuries.	Jacksonville's secondary is thin becaquse of injuries	6728772	1472076387000	1472076387098	s	83
13144	141407	Jacksonville's secondary is thin because of injuries.	Jacksonville's secondary is thin becaquse of injuries	6728775	1472076387132	1472076387251	 	32
13144	141407	Jacksonville's secondary is thin because of injuries.	Jacksonville's secondary is thin becaquse of injuries	6728777	1472076387321	1472076387410	t	84
13144	141407	Jacksonville's secondary is thin because of injuries.	Jacksonville's secondary is thin becaquse of injuries	6728780	1472076387434	1472076387528	h	72
13144	141407	Jacksonville's secondary is thin because of injuries.	Jacksonville's secondary is thin becaquse of injuries	6728814	1472076387628	1472076387723	i	73
13144	141407	Jacksonville's secondary is thin because of injuries.	Jacksonville's secondary is thin becaquse of injuries	6728818	1472076387828	1472076387894	n	78
13144	141407	Jacksonville's secondary is thin because of injuries.	Jacksonville's secondary is thin becaquse of injuries	6728820	1472076387994	1472076388105	 	32
13144	141407	Jacksonville's secondary is thin because of injuries.	Jacksonville's secondary is thin becaquse of injuries	6728822	1472076388182	1472076388274	b	66
13144	141407	Jacksonville's secondary is thin because of injuries.	Jacksonville's secondary is thin becaquse of injuries	6728845	1472076388215	1472076388286	e	69
13144	141407	Jacksonville's secondary is thin because of injuries.	Jacksonville's secondary is thin becaquse of injuries	6728849	1472076388346	1472076388462	c	67
13144	141407	Jacksonville's secondary is thin because of injuries.	Jacksonville's secondary is thin becaquse of injuries	6728853	1472076388524	1472076388568	q	65
13144	141407	Jacksonville's secondary is thin because of injuries.	Jacksonville's secondary is thin becaquse of injuries	6728857	1472076388623	1472076388727	u	85
13144	141407	Jacksonville's secondary is thin because of injuries.	Jacksonville's secondary is thin becaquse of injuries	6728879	1472076388715	1472076388794	s	83
13144	141407	Jacksonville's secondary is thin because of injuries.	Jacksonville's secondary is thin becaquse of injuries	6728883	1472076388915	1472076389015	e	69
13144	141407	Jacksonville's secondary is thin because of injuries.	Jacksonville's secondary is thin becaquse of injuries	6728888	1472076389029	1472076389138	 	32
13144	141407	Jacksonville's secondary is thin because of injuries.	Jacksonville's secondary is thin becaquse of injuries	6728894	1472076389238	1472076389350	o	79
13144	141407	Jacksonville's secondary is thin because of injuries.	Jacksonville's secondary is thin becaquse of injuries	6728898	1472076389405	1472076389484	f	70
13144	141407	Jacksonville's secondary is thin because of injuries.	Jacksonville's secondary is thin becaquse of injuries	6728903	1472076389492	1472076389572	 	32
13144	141407	Jacksonville's secondary is thin because of injuries.	Jacksonville's secondary is thin becaquse of injuries	6728926	1472076389652	1472076389715	i	73
13144	141407	Jacksonville's secondary is thin because of injuries.	Jacksonville's secondary is thin becaquse of injuries	6728929	1472076389829	1472076389904	n	78
13144	141407	Jacksonville's secondary is thin because of injuries.	Jacksonville's secondary is thin becaquse of injuries	6728937	1472076390057	1472076390105	j	74
13144	141407	Jacksonville's secondary is thin because of injuries.	Jacksonville's secondary is thin becaquse of injuries	6728940	1472076390226	1472076390291	u	85
13144	141407	Jacksonville's secondary is thin because of injuries.	Jacksonville's secondary is thin becaquse of injuries	6728944	1472076390315	1472076390363	r	82
13144	141407	Jacksonville's secondary is thin because of injuries.	Jacksonville's secondary is thin becaquse of injuries	6729004	1472076390486	1472076390544	d	68
13144	141407	Jacksonville's secondary is thin because of injuries.	Jacksonville's secondary is thin becaquse of injuries	6729006	1472076390797	1472076390861	BKSP	8
13144	141407	Jacksonville's secondary is thin because of injuries.	Jacksonville's secondary is thin becaquse of injuries	6729008	1472076391274	1472076391339	i	73
13144	141407	Jacksonville's secondary is thin because of injuries.	Jacksonville's secondary is thin becaquse of injuries	6729010	1472076391377	1472076391438	e	69
13144	141407	Jacksonville's secondary is thin because of injuries.	Jacksonville's secondary is thin becaquse of injuries	6729011	1472076391534	1472076391638	s	83
13144	141419	The loans were allegedly made to players.	The loan were allegedly made to players	6729130	1472076393450	1472076393526	CAPS_LOCK	20
13144	141419	The loans were allegedly made to players.	The loan were allegedly made to players	6729133	1472076393794	1472076393879	T	84
13144	141419	The loans were allegedly made to players.	The loan were allegedly made to players	6729134	1472076393892	1472076393986	CAPS_LOCK	20
13144	141419	The loans were allegedly made to players.	The loan were allegedly made to players	6729137	1472076393968	1472076394032	h	72
13144	141419	The loans were allegedly made to players.	The loan were allegedly made to players	6729138	1472076394096	1472076394182	e	69
13144	141419	The loans were allegedly made to players.	The loan were allegedly made to players	6729141	1472076394154	1472076394244	 	32
13144	141419	The loans were allegedly made to players.	The loan were allegedly made to players	6729142	1472076394354	1472076394424	l	76
13144	141419	The loans were allegedly made to players.	The loan were allegedly made to players	6729226	1472076394913	1472076394976	o	79
13144	141419	The loans were allegedly made to players.	The loan were allegedly made to players	6729229	1472076395137	1472076395228	a	65
13144	141419	The loans were allegedly made to players.	The loan were allegedly made to players	6729233	1472076395271	1472076395365	n	78
13144	141419	The loans were allegedly made to players.	The loan were allegedly made to players	6729236	1472076395491	1472076395571	 	32
13144	141419	The loans were allegedly made to players.	The loan were allegedly made to players	6729238	1472076395964	1472076396038	e	69
13144	141419	The loans were allegedly made to players.	The loan were allegedly made to players	6729304	1472076396369	1472076396433	BKSP	8
13144	141419	The loans were allegedly made to players.	The loan were allegedly made to players	6729306	1472076396766	1472076396844	w	87
13144	141419	The loans were allegedly made to players.	The loan were allegedly made to players	6729309	1472076396934	1472076397019	e	69
13144	141419	The loans were allegedly made to players.	The loan were allegedly made to players	6729313	1472076397089	1472076397168	r	82
13144	141419	The loans were allegedly made to players.	The loan were allegedly made to players	6729315	1472076397228	1472076397317	e	69
13144	141419	The loans were allegedly made to players.	The loan were allegedly made to players	6729317	1472076397362	1472076397447	 	32
13144	141419	The loans were allegedly made to players.	The loan were allegedly made to players	6729357	1472076397459	1472076397567	a	65
13144	141419	The loans were allegedly made to players.	The loan were allegedly made to players	6729359	1472076397576	1472076397643	l	76
13144	141419	The loans were allegedly made to players.	The loan were allegedly made to players	6729362	1472076397729	1472076397820	l	76
13144	141419	The loans were allegedly made to players.	The loan were allegedly made to players	6729369	1472076398154	1472076398238	e	69
13144	141419	The loans were allegedly made to players.	The loan were allegedly made to players	6729375	1472076398539	1472076398590	g	71
13144	141419	The loans were allegedly made to players.	The loan were allegedly made to players	6729480	1472076398726	1472076398786	e	69
13144	141419	The loans were allegedly made to players.	The loan were allegedly made to players	6729485	1472076399621	1472076399723	d	68
13144	141419	The loans were allegedly made to players.	The loan were allegedly made to players	6729488	1472076399952	1472076400025	l	76
13144	141419	The loans were allegedly made to players.	The loan were allegedly made to players	6729491	1472076400218	1472076400317	y	89
13144	141419	The loans were allegedly made to players.	The loan were allegedly made to players	6729495	1472076400402	1472076400544	 	32
13144	141419	The loans were allegedly made to players.	The loan were allegedly made to players	6729517	1472076400604	1472076400716	m	77
13144	141419	The loans were allegedly made to players.	The loan were allegedly made to players	6729522	1472076400700	1472076400796	a	65
13144	141419	The loans were allegedly made to players.	The loan were allegedly made to players	6729528	1472076400835	1472076400937	d	68
13144	141419	The loans were allegedly made to players.	The loan were allegedly made to players	6729534	1472076400981	1472076401054	e	69
13144	141419	The loans were allegedly made to players.	The loan were allegedly made to players	6729537	1472076401078	1472076401167	 	32
13144	141419	The loans were allegedly made to players.	The loan were allegedly made to players	6729550	1472076401175	1472076401249	t	84
13144	141419	The loans were allegedly made to players.	The loan were allegedly made to players	6729552	1472076401262	1472076401331	o	79
13144	141419	The loans were allegedly made to players.	The loan were allegedly made to players	6729554	1472076401446	1472076401522	 	32
13144	141419	The loans were allegedly made to players.	The loan were allegedly made to players	6729556	1472076401632	1472076401726	p	80
13144	141419	The loans were allegedly made to players.	The loan were allegedly made to players	6729558	1472076401824	1472076401919	l	76
13144	141419	The loans were allegedly made to players.	The loan were allegedly made to players	6729597	1472076401928	1472076402023	a	65
13144	141419	The loans were allegedly made to players.	The loan were allegedly made to players	6729601	1472076402435	1472076402483	y	89
13144	141419	The loans were allegedly made to players.	The loan were allegedly made to players	6729608	1472076402606	1472076402669	e	69
13144	141419	The loans were allegedly made to players.	The loan were allegedly made to players	6729611	1472076402738	1472076402802	r	82
13144	141433	We had a great time!	We had a great time!	6729692	1472076404632	1472076404726	CAPS_LOCK	20
13144	141433	We had a great time!	We had a great time!	6729696	1472076404820	1472076404901	W	87
13144	141433	We had a great time!	We had a great time!	6729699	1472076404955	1472076405045	CAPS_LOCK	20
13144	141433	We had a great time!	We had a great time!	6729703	1472076405091	1472076405205	e	69
13144	141433	We had a great time!	We had a great time!	6729706	1472076405193	1472076405257	 	32
13144	141433	We had a great time!	We had a great time!	6729708	1472076405310	1472076405399	h	72
13144	141433	We had a great time!	We had a great time!	6729710	1472076405407	1472076405496	a	65
13144	141433	We had a great time!	We had a great time!	6729738	1472076405565	1472076405644	d	68
13144	141433	We had a great time!	We had a great time!	6729743	1472076405673	1472076405763	 	32
13144	141433	We had a great time!	We had a great time!	6729748	1472076405771	1472076405860	a	65
13144	141433	We had a great time!	We had a great time!	6729753	1472076405900	1472076406005	 	32
13144	141433	We had a great time!	We had a great time!	6729756	1472076406080	1472076406171	g	71
13144	141433	We had a great time!	We had a great time!	6729774	1472076406179	1472076406228	r	82
13144	141433	We had a great time!	We had a great time!	6729775	1472076406317	1472076406371	e	69
13144	141433	We had a great time!	We had a great time!	6729777	1472076406466	1472076406540	a	65
13144	141433	We had a great time!	We had a great time!	6729780	1472076406656	1472076406726	t	84
13144	141433	We had a great time!	We had a great time!	6729783	1472076406765	1472076406834	 	32
13144	141433	We had a great time!	We had a great time!	6729822	1472076406914	1472076406963	t	84
13144	141433	We had a great time!	We had a great time!	6729824	1472076406990	1472076407048	i	73
13144	141433	We had a great time!	We had a great time!	6729826	1472076407119	1472076407208	m	77
13144	141433	We had a great time!	We had a great time!	6729827	1472076407209	1472076407257	e	69
13144	141437	I have already approved and forwarded.	I have already approved and forwarded	6729925	1472076409126	1472076409224	CAPS_LOCK	20
13144	141437	I have already approved and forwarded.	I have already approved and forwarded	6729928	1472076409281	1472076409340	I	73
13144	141437	I have already approved and forwarded.	I have already approved and forwarded	6729931	1472076409374	1472076409453	CAPS_LOCK	20
13144	141437	I have already approved and forwarded.	I have already approved and forwarded	6729933	1472076409430	1472076409509	 	32
13144	141437	I have already approved and forwarded.	I have already approved and forwarded	6729936	1472076409558	1472076409626	h	72
13144	141437	I have already approved and forwarded.	I have already approved and forwarded	6729938	1472076409634	1472076409693	a	65
13144	141437	I have already approved and forwarded.	I have already approved and forwarded	6729940	1472076409727	1472076409796	v	86
13144	141437	I have already approved and forwarded.	I have already approved and forwarded	6729947	1472076409824	1472076409889	e	69
13144	141437	I have already approved and forwarded.	I have already approved and forwarded	6729953	1472076409909	1472076409997	 	32
13144	141437	I have already approved and forwarded.	I have already approved and forwarded	6729959	1472076410005	1472076410112	a	65
13144	141437	I have already approved and forwarded.	I have already approved and forwarded	6729964	1472076410097	1472076410167	l	76
13144	141437	I have already approved and forwarded.	I have already approved and forwarded	6729970	1472076410190	1472076410271	r	82
13144	141437	I have already approved and forwarded.	I have already approved and forwarded	6729994	1472076410321	1472076410400	e	69
13144	141437	I have already approved and forwarded.	I have already approved and forwarded	6729995	1472076410511	1472076410580	a	65
13144	141437	I have already approved and forwarded.	I have already approved and forwarded	6729996	1472076410662	1472076410754	d	68
13144	141437	I have already approved and forwarded.	I have already approved and forwarded	6729997	1472076410768	1472076410827	y	89
13144	141437	I have already approved and forwarded.	I have already approved and forwarded	6729998	1472076410964	1472076411033	 	32
13144	141437	I have already approved and forwarded.	I have already approved and forwarded	6730030	1472076411148	1472076411231	a	65
13144	141437	I have already approved and forwarded.	I have already approved and forwarded	6730033	1472076411252	1472076411311	p	80
13144	141437	I have already approved and forwarded.	I have already approved and forwarded	6730036	1472076411381	1472076411436	p	80
13144	141437	I have already approved and forwarded.	I have already approved and forwarded	6730038	1472076411491	1472076411538	r	82
13144	141437	I have already approved and forwarded.	I have already approved and forwarded	6730039	1472076411613	1472076411697	o	79
13144	141437	I have already approved and forwarded.	I have already approved and forwarded	6730071	1472076411698	1472076411733	v	86
13144	141437	I have already approved and forwarded.	I have already approved and forwarded	6730076	1472076411833	1472076411903	e	69
13144	141437	I have already approved and forwarded.	I have already approved and forwarded	6730083	1472076411991	1472076412083	d	68
13144	141437	I have already approved and forwarded.	I have already approved and forwarded	6730086	1472076412111	1472076412179	 	32
13144	141437	I have already approved and forwarded.	I have already approved and forwarded	6730089	1472076412419	1472076412540	a	65
13144	141437	I have already approved and forwarded.	I have already approved and forwarded	6730153	1472076412528	1472076412602	n	78
13144	141437	I have already approved and forwarded.	I have already approved and forwarded	6730156	1472076412630	1472076412726	d	68
13144	141437	I have already approved and forwarded.	I have already approved and forwarded	6730157	1472076412738	1472076412832	 	32
13144	141437	I have already approved and forwarded.	I have already approved and forwarded	6730159	1472076412851	1472076412946	f	70
13144	141437	I have already approved and forwarded.	I have already approved and forwarded	6730161	1472076413970	1472076414047	o	79
13144	141437	I have already approved and forwarded.	I have already approved and forwarded	6730163	1472076414118	1472076414192	r	82
13144	141437	I have already approved and forwarded.	I have already approved and forwarded	6730199	1472076414467	1472076414532	w	87
13144	141437	I have already approved and forwarded.	I have already approved and forwarded	6730203	1472076414677	1472076414781	a	65
13144	141437	I have already approved and forwarded.	I have already approved and forwarded	6730208	1472076414867	1472076414936	r	82
13144	141437	I have already approved and forwarded.	I have already approved and forwarded	6730212	1472076415030	1472076415100	d	68
13144	141437	I have already approved and forwarded.	I have already approved and forwarded	6730215	1472076415145	1472076415214	e	69
13144	141437	I have already approved and forwarded.	I have already approved and forwarded	6730220	1472076415288	1472076415373	d	68
13144	141444	Referring to his meeting in Washington with US President Bill Clinton.	Referring to his meeting in washington with US president Bill Clinton	6730377	1472076416946	1472076417016	CAPS_LOCK	20
13144	141444	Referring to his meeting in Washington with US President Bill Clinton.	Referring to his meeting in washington with US president Bill Clinton	6730382	1472076417122	1472076417202	R	82
13144	141444	Referring to his meeting in Washington with US President Bill Clinton.	Referring to his meeting in washington with US president Bill Clinton	6730386	1472076417378	1472076417493	CAPS_LOCK	20
13144	141444	Referring to his meeting in Washington with US President Bill Clinton.	Referring to his meeting in washington with US president Bill Clinton	6730387	1472076417739	1472076417859	e	69
13144	141444	Referring to his meeting in Washington with US President Bill Clinton.	Referring to his meeting in washington with US president Bill Clinton	6730391	1472076419203	1472076419256	f	70
13144	141444	Referring to his meeting in Washington with US President Bill Clinton.	Referring to his meeting in washington with US president Bill Clinton	6730398	1472076419414	1472076419493	e	69
13144	141444	Referring to his meeting in Washington with US President Bill Clinton.	Referring to his meeting in washington with US president Bill Clinton	6730403	1472076419706	1472076419814	r	82
13144	141444	Referring to his meeting in Washington with US President Bill Clinton.	Referring to his meeting in washington with US president Bill Clinton	6730436	1472076419975	1472076420059	r	82
13144	141444	Referring to his meeting in Washington with US President Bill Clinton.	Referring to his meeting in washington with US president Bill Clinton	6730438	1472076420410	1472076420494	i	73
13144	141444	Referring to his meeting in Washington with US President Bill Clinton.	Referring to his meeting in washington with US president Bill Clinton	6730442	1472076420585	1472076420669	n	78
13144	141444	Referring to his meeting in Washington with US President Bill Clinton.	Referring to his meeting in washington with US president Bill Clinton	6730444	1472076420682	1472076420735	g	71
13144	141444	Referring to his meeting in Washington with US President Bill Clinton.	Referring to his meeting in washington with US president Bill Clinton	6730446	1472076420821	1472076420926	 	32
13144	141444	Referring to his meeting in Washington with US President Bill Clinton.	Referring to his meeting in washington with US president Bill Clinton	6730507	1472076420908	1472076420986	t	84
13144	141444	Referring to his meeting in Washington with US President Bill Clinton.	Referring to his meeting in washington with US president Bill Clinton	6730511	1472076421026	1472076421084	o	79
13144	141444	Referring to his meeting in Washington with US President Bill Clinton.	Referring to his meeting in washington with US president Bill Clinton	6730514	1472076421297	1472076421407	 	32
13144	141444	Referring to his meeting in Washington with US President Bill Clinton.	Referring to his meeting in washington with US president Bill Clinton	6730518	1472076421530	1472076421637	h	72
13144	141444	Referring to his meeting in Washington with US President Bill Clinton.	Referring to his meeting in washington with US president Bill Clinton	6730521	1472076421736	1472076421827	i	73
13144	141444	Referring to his meeting in Washington with US President Bill Clinton.	Referring to his meeting in washington with US president Bill Clinton	6730530	1472076422361	1472076422487	 	32
13144	141444	Referring to his meeting in Washington with US President Bill Clinton.	Referring to his meeting in washington with US president Bill Clinton	6730643	1472076424991	1472076425069	BKSP	8
13144	141444	Referring to his meeting in Washington with US President Bill Clinton.	Referring to his meeting in washington with US president Bill Clinton	6730645	1472076425159	1472076425233	BKSP	8
13144	141444	Referring to his meeting in Washington with US President Bill Clinton.	Referring to his meeting in washington with US president Bill Clinton	6730646	1472076425574	1472076425643	i	73
13144	141444	Referring to his meeting in Washington with US President Bill Clinton.	Referring to his meeting in washington with US president Bill Clinton	6730647	1472076425691	1472076425770	s	83
13144	141444	Referring to his meeting in Washington with US President Bill Clinton.	Referring to his meeting in washington with US president Bill Clinton	6730648	1472076425784	1472076425858	 	32
13144	141444	Referring to his meeting in Washington with US President Bill Clinton.	Referring to his meeting in washington with US president Bill Clinton	6730649	1472076425965	1472076426025	m	77
13144	141444	Referring to his meeting in Washington with US President Bill Clinton.	Referring to his meeting in washington with US president Bill Clinton	6730652	1472076426161	1472076426260	e	69
13144	141444	Referring to his meeting in Washington with US President Bill Clinton.	Referring to his meeting in washington with US president Bill Clinton	6730682	1472076426816	1472076426929	e	69
13144	141444	Referring to his meeting in Washington with US President Bill Clinton.	Referring to his meeting in washington with US president Bill Clinton	6730684	1472076427069	1472076427160	t	84
13144	141444	Referring to his meeting in Washington with US President Bill Clinton.	Referring to his meeting in washington with US president Bill Clinton	6730686	1472076427189	1472076427278	i	73
13144	141444	Referring to his meeting in Washington with US President Bill Clinton.	Referring to his meeting in washington with US president Bill Clinton	6730688	1472076427383	1472076427468	n	78
13144	141444	Referring to his meeting in Washington with US President Bill Clinton.	Referring to his meeting in washington with US president Bill Clinton	6730690	1472076427481	1472076427560	g	71
13144	141444	Referring to his meeting in Washington with US President Bill Clinton.	Referring to his meeting in washington with US president Bill Clinton	6730708	1472076427589	1472076427663	 	32
13144	141444	Referring to his meeting in Washington with US President Bill Clinton.	Referring to his meeting in washington with US president Bill Clinton	6730712	1472076427765	1472076427844	i	73
13144	141444	Referring to his meeting in Washington with US President Bill Clinton.	Referring to his meeting in washington with US president Bill Clinton	6730717	1472076427934	1472076427993	n	78
13144	141444	Referring to his meeting in Washington with US President Bill Clinton.	Referring to his meeting in washington with US president Bill Clinton	6730722	1472076428091	1472076428176	 	32
13144	141444	Referring to his meeting in Washington with US President Bill Clinton.	Referring to his meeting in washington with US president Bill Clinton	6730726	1472076428230	1472076428310	w	87
13144	141444	Referring to his meeting in Washington with US President Bill Clinton.	Referring to his meeting in washington with US president Bill Clinton	6730737	1472076428420	1472076428493	a	65
13144	141444	Referring to his meeting in Washington with US President Bill Clinton.	Referring to his meeting in washington with US president Bill Clinton	6730738	1472076428578	1472076428657	s	83
13144	141444	Referring to his meeting in Washington with US President Bill Clinton.	Referring to his meeting in washington with US president Bill Clinton	6730739	1472076428665	1472076428726	h	72
13144	141444	Referring to his meeting in Washington with US President Bill Clinton.	Referring to his meeting in washington with US president Bill Clinton	6730741	1472076428846	1472076428920	i	73
13144	141444	Referring to his meeting in Washington with US President Bill Clinton.	Referring to his meeting in washington with US president Bill Clinton	6730743	1472076429028	1472076429117	n	78
13144	141444	Referring to his meeting in Washington with US President Bill Clinton.	Referring to his meeting in washington with US president Bill Clinton	6730795	1472076429146	1472076429257	g	71
13144	141444	Referring to his meeting in Washington with US President Bill Clinton.	Referring to his meeting in washington with US president Bill Clinton	6730798	1472076429777	1472076429839	y	89
13144	141444	Referring to his meeting in Washington with US President Bill Clinton.	Referring to his meeting in washington with US president Bill Clinton	6730801	1472076429949	1472076430016	o	79
13144	141444	Referring to his meeting in Washington with US President Bill Clinton.	Referring to his meeting in washington with US president Bill Clinton	6730803	1472076430125	1472076430179	n	78
13144	141444	Referring to his meeting in Washington with US President Bill Clinton.	Referring to his meeting in washington with US president Bill Clinton	6730805	1472076430296	1472076430386	 	32
13144	141444	Referring to his meeting in Washington with US President Bill Clinton.	Referring to his meeting in washington with US president Bill Clinton	6730870	1472076430440	1472076430497	w	87
13144	141444	Referring to his meeting in Washington with US President Bill Clinton.	Referring to his meeting in washington with US president Bill Clinton	6730872	1472076430694	1472076430748	BKSP	8
13144	141444	Referring to his meeting in Washington with US President Bill Clinton.	Referring to his meeting in washington with US president Bill Clinton	6730874	1472076430830	1472076430872	BKSP	8
13144	141444	Referring to his meeting in Washington with US President Bill Clinton.	Referring to his meeting in washington with US president Bill Clinton	6730877	1472076430947	1472076431000	BKSP	8
13144	141444	Referring to his meeting in Washington with US President Bill Clinton.	Referring to his meeting in washington with US president Bill Clinton	6730879	1472076431080	1472076431133	BKSP	8
13144	141444	Referring to his meeting in Washington with US President Bill Clinton.	Referring to his meeting in washington with US president Bill Clinton	6730882	1472076431277	1472076431368	BKSP	8
13144	141444	Referring to his meeting in Washington with US President Bill Clinton.	Referring to his meeting in washington with US president Bill Clinton	6730885	1472076431939	1472076432012	t	84
13144	141444	Referring to his meeting in Washington with US President Bill Clinton.	Referring to his meeting in washington with US president Bill Clinton	6730887	1472076432066	1472076432137	o	79
13144	141444	Referring to his meeting in Washington with US President Bill Clinton.	Referring to his meeting in washington with US president Bill Clinton	6730890	1472076432262	1472076432307	n	78
13144	141444	Referring to his meeting in Washington with US President Bill Clinton.	Referring to his meeting in washington with US president Bill Clinton	6730894	1472076432463	1472076432521	 	32
13144	141444	Referring to his meeting in Washington with US President Bill Clinton.	Referring to his meeting in washington with US president Bill Clinton	6730907	1472076432581	1472076432651	w	87
13144	141444	Referring to his meeting in Washington with US President Bill Clinton.	Referring to his meeting in washington with US president Bill Clinton	6730912	1472076432700	1472076432763	i	73
13144	141444	Referring to his meeting in Washington with US President Bill Clinton.	Referring to his meeting in washington with US president Bill Clinton	6730917	1472076432798	1472076432841	t	84
13144	141444	Referring to his meeting in Washington with US President Bill Clinton.	Referring to his meeting in washington with US president Bill Clinton	6730922	1472076432922	1472076432980	h	72
13144	141444	Referring to his meeting in Washington with US President Bill Clinton.	Referring to his meeting in washington with US president Bill Clinton	6730926	1472076433136	1472076433247	 	32
13144	141444	Referring to his meeting in Washington with US President Bill Clinton.	Referring to his meeting in washington with US president Bill Clinton	6731006	1472076433265	1472076433325	CAPS_LOCK	20
13144	141444	Referring to his meeting in Washington with US President Bill Clinton.	Referring to his meeting in washington with US president Bill Clinton	6731010	1472076433427	1472076433511	U	85
13144	141444	Referring to his meeting in Washington with US President Bill Clinton.	Referring to his meeting in washington with US president Bill Clinton	6731013	1472076433519	1472076433613	CAPS_LOCK	20
13144	141444	Referring to his meeting in Washington with US President Bill Clinton.	Referring to his meeting in washington with US president Bill Clinton	6731015	1472076433927	1472076434003	s	83
13144	141444	Referring to his meeting in Washington with US President Bill Clinton.	Referring to his meeting in washington with US president Bill Clinton	6731017	1472076434343	1472076434379	BKSP	8
13144	141444	Referring to his meeting in Washington with US President Bill Clinton.	Referring to his meeting in washington with US president Bill Clinton	6731019	1472076434669	1472076434753	CAPS_LOCK	20
13144	141444	Referring to his meeting in Washington with US President Bill Clinton.	Referring to his meeting in washington with US president Bill Clinton	6731023	1472076434955	1472076435051	S	83
13144	141444	Referring to his meeting in Washington with US President Bill Clinton.	Referring to his meeting in washington with US president Bill Clinton	6731027	1472076435192	1472076435288	 	32
13144	141444	Referring to his meeting in Washington with US President Bill Clinton.	Referring to his meeting in washington with US president Bill Clinton	6731031	1472076435373	1472076435443	CAPS_LOCK	20
13144	141444	Referring to his meeting in Washington with US President Bill Clinton.	Referring to his meeting in washington with US president Bill Clinton	6731035	1472076435686	1472076435765	p	80
13144	141444	Referring to his meeting in Washington with US President Bill Clinton.	Referring to his meeting in washington with US president Bill Clinton	6731058	1472076435809	1472076435908	r	82
13144	141444	Referring to his meeting in Washington with US President Bill Clinton.	Referring to his meeting in washington with US president Bill Clinton	6731061	1472076436028	1472076436104	e	69
13144	141444	Referring to his meeting in Washington with US President Bill Clinton.	Referring to his meeting in washington with US president Bill Clinton	6731062	1472076436332	1472076436415	s	83
13144	141444	Referring to his meeting in Washington with US President Bill Clinton.	Referring to his meeting in washington with US president Bill Clinton	6731063	1472076436593	1472076436734	i	73
13144	141444	Referring to his meeting in Washington with US President Bill Clinton.	Referring to his meeting in washington with US president Bill Clinton	6731064	1472076436951	1472076437040	d	68
13144	141444	Referring to his meeting in Washington with US President Bill Clinton.	Referring to his meeting in washington with US president Bill Clinton	6731096	1472076437078	1472076437170	e	69
13144	141444	Referring to his meeting in Washington with US President Bill Clinton.	Referring to his meeting in washington with US president Bill Clinton	6731098	1472076437214	1472076437303	n	78
13144	141444	Referring to his meeting in Washington with US President Bill Clinton.	Referring to his meeting in washington with US president Bill Clinton	6731100	1472076437374	1472076437448	t	84
13144	141444	Referring to his meeting in Washington with US President Bill Clinton.	Referring to his meeting in washington with US president Bill Clinton	6731102	1472076437524	1472076437625	 	32
13144	141444	Referring to his meeting in Washington with US President Bill Clinton.	Referring to his meeting in washington with US president Bill Clinton	6731104	1472076437873	1472076437981	CAPS_LOCK	20
13144	141444	Referring to his meeting in Washington with US President Bill Clinton.	Referring to his meeting in washington with US president Bill Clinton	6731106	1472076438122	1472076438184	B	66
13144	141444	Referring to his meeting in Washington with US President Bill Clinton.	Referring to his meeting in washington with US president Bill Clinton	6731165	1472076438354	1472076438463	CAPS_LOCK	20
13144	141444	Referring to his meeting in Washington with US President Bill Clinton.	Referring to his meeting in washington with US president Bill Clinton	6731168	1472076438519	1472076438595	i	73
13144	141444	Referring to his meeting in Washington with US President Bill Clinton.	Referring to his meeting in washington with US president Bill Clinton	6731172	1472076438741	1472076438820	l	76
13144	141444	Referring to his meeting in Washington with US President Bill Clinton.	Referring to his meeting in washington with US president Bill Clinton	6731174	1472076438940	1472076439014	l	76
13144	141444	Referring to his meeting in Washington with US President Bill Clinton.	Referring to his meeting in washington with US president Bill Clinton	6731177	1472076439220	1472076439291	 	32
13144	141444	Referring to his meeting in Washington with US President Bill Clinton.	Referring to his meeting in washington with US president Bill Clinton	6731180	1472076439355	1472076439460	CAPS_LOCK	20
13144	141444	Referring to his meeting in Washington with US President Bill Clinton.	Referring to his meeting in washington with US president Bill Clinton	6731181	1472076439716	1472076439805	C	67
13144	141444	Referring to his meeting in Washington with US President Bill Clinton.	Referring to his meeting in washington with US president Bill Clinton	6731215	1472076439941	1472076440041	CAPS_LOCK	20
13144	141444	Referring to his meeting in Washington with US President Bill Clinton.	Referring to his meeting in washington with US president Bill Clinton	6731218	1472076440397	1472076440514	l	76
13144	141444	Referring to his meeting in Washington with US President Bill Clinton.	Referring to his meeting in washington with US president Bill Clinton	6731221	1472076440659	1472076440725	i	73
13144	141444	Referring to his meeting in Washington with US President Bill Clinton.	Referring to his meeting in washington with US president Bill Clinton	6731224	1472076440820	1472076440915	n	78
13144	141444	Referring to his meeting in Washington with US President Bill Clinton.	Referring to his meeting in washington with US president Bill Clinton	6731227	1472076440924	1472076440983	t	84
13144	141444	Referring to his meeting in Washington with US President Bill Clinton.	Referring to his meeting in washington with US president Bill Clinton	6731229	1472076441041	1472076441105	o	79
13144	141444	Referring to his meeting in Washington with US President Bill Clinton.	Referring to his meeting in washington with US president Bill Clinton	6731238	1472076441206	1472076441264	n	78
13144	141466	He did not return to the contest, and is listed as day to day.	He did not return to the contest, and is listed as day to day.	6731343	1472076442765	1472076442851	CAPS_LOCK	20
13144	141466	He did not return to the contest, and is listed as day to day.	He did not return to the contest, and is listed as day to day.	6731345	1472076443021	1472076443095	H	72
13144	141466	He did not return to the contest, and is listed as day to day.	He did not return to the contest, and is listed as day to day.	6731349	1472076443118	1472076443197	CAPS_LOCK	20
13144	141466	He did not return to the contest, and is listed as day to day.	He did not return to the contest, and is listed as day to day.	6731351	1472076443349	1472076443445	e	69
13144	141466	He did not return to the contest, and is listed as day to day.	He did not return to the contest, and is listed as day to day.	6731353	1472076443539	1472076443643	 	32
13144	141466	He did not return to the contest, and is listed as day to day.	He did not return to the contest, and is listed as day to day.	6731356	1472076443713	1472076443778	d	68
13144	141466	He did not return to the contest, and is listed as day to day.	He did not return to the contest, and is listed as day to day.	6731361	1472076443818	1472076443893	i	73
13144	141466	He did not return to the contest, and is listed as day to day.	He did not return to the contest, and is listed as day to day.	6731376	1472076443937	1472076444048	d	68
13144	141466	He did not return to the contest, and is listed as day to day.	He did not return to the contest, and is listed as day to day.	6731381	1472076444048	1472076444124	 	32
13144	141466	He did not return to the contest, and is listed as day to day.	He did not return to the contest, and is listed as day to day.	6731387	1472076444225	1472076444298	n	78
13144	141466	He did not return to the contest, and is listed as day to day.	He did not return to the contest, and is listed as day to day.	6731393	1472076444384	1472076444470	o	79
13144	141466	He did not return to the contest, and is listed as day to day.	He did not return to the contest, and is listed as day to day.	6731424	1472076444453	1472076444510	t	84
13144	141466	He did not return to the contest, and is listed as day to day.	He did not return to the contest, and is listed as day to day.	6731426	1472076444579	1472076444736	 	32
13144	141466	He did not return to the contest, and is listed as day to day.	He did not return to the contest, and is listed as day to day.	6731429	1472076444678	1472076444748	r	82
13144	141466	He did not return to the contest, and is listed as day to day.	He did not return to the contest, and is listed as day to day.	6731432	1472076444858	1472076444928	e	69
13144	141466	He did not return to the contest, and is listed as day to day.	He did not return to the contest, and is listed as day to day.	6731435	1472076445018	1472076445117	t	84
13144	141466	He did not return to the contest, and is listed as day to day.	He did not return to the contest, and is listed as day to day.	6731439	1472076445146	1472076445224	u	85
13144	141466	He did not return to the contest, and is listed as day to day.	He did not return to the contest, and is listed as day to day.	6731457	1472076445239	1472076445313	r	82
13144	141466	He did not return to the contest, and is listed as day to day.	He did not return to the contest, and is listed as day to day.	6731459	1472076445356	1472076445430	n	78
13144	141466	He did not return to the contest, and is listed as day to day.	He did not return to the contest, and is listed as day to day.	6731461	1472076445537	1472076445656	 	32
13144	141466	He did not return to the contest, and is listed as day to day.	He did not return to the contest, and is listed as day to day.	6731462	1472076445676	1472076445774	t	84
13144	141466	He did not return to the contest, and is listed as day to day.	He did not return to the contest, and is listed as day to day.	6731466	1472076445759	1472076445823	o	79
13144	141466	He did not return to the contest, and is listed as day to day.	He did not return to the contest, and is listed as day to day.	6731469	1472076445923	1472076446034	 	32
13144	141466	He did not return to the contest, and is listed as day to day.	He did not return to the contest, and is listed as day to day.	6731473	1472076446022	1472076446086	t	84
13144	141466	He did not return to the contest, and is listed as day to day.	He did not return to the contest, and is listed as day to day.	6731477	1472076446109	1472076446188	h	72
13144	141466	He did not return to the contest, and is listed as day to day.	He did not return to the contest, and is listed as day to day.	6731480	1472076446212	1472076446281	e	69
13144	141466	He did not return to the contest, and is listed as day to day.	He did not return to the contest, and is listed as day to day.	6731484	1472076446335	1472076446408	 	32
13144	141466	He did not return to the contest, and is listed as day to day.	He did not return to the contest, and is listed as day to day.	6731494	1472076446488	1472076446579	c	67
13144	141466	He did not return to the contest, and is listed as day to day.	He did not return to the contest, and is listed as day to day.	6731496	1472076446586	1472076446640	o	79
13144	141466	He did not return to the contest, and is listed as day to day.	He did not return to the contest, and is listed as day to day.	6731498	1472076446740	1472076446828	n	78
13144	141466	He did not return to the contest, and is listed as day to day.	He did not return to the contest, and is listed as day to day.	6731501	1472076446795	1472076446854	t	84
13144	141466	He did not return to the contest, and is listed as day to day.	He did not return to the contest, and is listed as day to day.	6731504	1472076446978	1472076447037	e	69
13144	141466	He did not return to the contest, and is listed as day to day.	He did not return to the contest, and is listed as day to day.	6731551	1472076447172	1472076447239	s	83
13144	141466	He did not return to the contest, and is listed as day to day.	He did not return to the contest, and is listed as day to day.	6731553	1472076447356	1472076447415	t	84
13144	141466	He did not return to the contest, and is listed as day to day.	He did not return to the contest, and is listed as day to day.	6731558	1472076447474	1472076447548	,	188
13144	141466	He did not return to the contest, and is listed as day to day.	He did not return to the contest, and is listed as day to day.	6731560	1472076447649	1472076447754	 	32
13144	141466	He did not return to the contest, and is listed as day to day.	He did not return to the contest, and is listed as day to day.	6731562	1472076447716	1472076447834	CAPS_LOCK	20
13144	141466	He did not return to the contest, and is listed as day to day.	He did not return to the contest, and is listed as day to day.	6731564	1472076447905	1472076448003	A	65
13144	141466	He did not return to the contest, and is listed as day to day.	He did not return to the contest, and is listed as day to day.	6731588	1472076447963	1472076448081	CAPS_LOCK	20
13144	141466	He did not return to the contest, and is listed as day to day.	He did not return to the contest, and is listed as day to day.	6731591	1472076448217	1472076448286	BKSP	8
13144	141466	He did not return to the contest, and is listed as day to day.	He did not return to the contest, and is listed as day to day.	6731594	1472076448395	1472076448484	a	65
13144	141466	He did not return to the contest, and is listed as day to day.	He did not return to the contest, and is listed as day to day.	6731598	1472076448528	1472076448598	n	78
13144	141466	He did not return to the contest, and is listed as day to day.	He did not return to the contest, and is listed as day to day.	6731601	1472076448639	1472076448718	d	68
13144	141466	He did not return to the contest, and is listed as day to day.	He did not return to the contest, and is listed as day to day.	6731604	1472076448757	1472076448825	 	32
13144	141466	He did not return to the contest, and is listed as day to day.	He did not return to the contest, and is listed as day to day.	6731606	1472076448962	1472076449032	i	73
13144	141466	He did not return to the contest, and is listed as day to day.	He did not return to the contest, and is listed as day to day.	6731623	1472076449311	1472076449370	s	83
13144	141466	He did not return to the contest, and is listed as day to day.	He did not return to the contest, and is listed as day to day.	6731627	1472076449455	1472076449524	 	32
13144	141466	He did not return to the contest, and is listed as day to day.	He did not return to the contest, and is listed as day to day.	6731630	1472076449675	1472076449765	l	76
13144	141466	He did not return to the contest, and is listed as day to day.	He did not return to the contest, and is listed as day to day.	6731633	1472076449876	1472076449975	i	73
13144	141466	He did not return to the contest, and is listed as day to day.	He did not return to the contest, and is listed as day to day.	6731635	1472076450051	1472076450226	s	83
13144	141466	He did not return to the contest, and is listed as day to day.	He did not return to the contest, and is listed as day to day.	6731653	1472076450397	1472076450483	t	84
13144	141466	He did not return to the contest, and is listed as day to day.	He did not return to the contest, and is listed as day to day.	6731655	1472076450586	1472076450644	e	69
13144	141466	He did not return to the contest, and is listed as day to day.	He did not return to the contest, and is listed as day to day.	6731661	1472076450778	1472076450856	d	68
13144	141466	He did not return to the contest, and is listed as day to day.	He did not return to the contest, and is listed as day to day.	6731664	1472076450910	1472076451018	 	32
13144	141466	He did not return to the contest, and is listed as day to day.	He did not return to the contest, and is listed as day to day.	6731668	1472076451046	1472076451118	a	65
13144	141466	He did not return to the contest, and is listed as day to day.	He did not return to the contest, and is listed as day to day.	6731725	1472076451824	1472076451908	s	83
13144	141466	He did not return to the contest, and is listed as day to day.	He did not return to the contest, and is listed as day to day.	6731728	1472076451993	1472076452084	 	32
13144	141466	He did not return to the contest, and is listed as day to day.	He did not return to the contest, and is listed as day to day.	6731731	1472076452322	1472076452385	d	68
13144	141466	He did not return to the contest, and is listed as day to day.	He did not return to the contest, and is listed as day to day.	6731732	1472076452449	1472076452544	a	65
13144	141466	He did not return to the contest, and is listed as day to day.	He did not return to the contest, and is listed as day to day.	6731733	1472076452706	1472076452724	t	84
13144	141466	He did not return to the contest, and is listed as day to day.	He did not return to the contest, and is listed as day to day.	6731771	1472076452748	1472076452760	t	84
13144	141466	He did not return to the contest, and is listed as day to day.	He did not return to the contest, and is listed as day to day.	6731772	1472076453175	1472076453262	BKSP	8
13144	141466	He did not return to the contest, and is listed as day to day.	He did not return to the contest, and is listed as day to day.	6731773	1472076453289	1472076453359	y	89
13144	141466	He did not return to the contest, and is listed as day to day.	He did not return to the contest, and is listed as day to day.	6731774	1472076453484	1472076453583	BKSP	8
13144	141466	He did not return to the contest, and is listed as day to day.	He did not return to the contest, and is listed as day to day.	6731775	1472076453693	1472076453757	BKSP	8
13144	141466	He did not return to the contest, and is listed as day to day.	He did not return to the contest, and is listed as day to day.	6731776	1472076453821	1472076453912	y	89
13144	141466	He did not return to the contest, and is listed as day to day.	He did not return to the contest, and is listed as day to day.	6731778	1472076454571	1472076454680	 	32
13144	141466	He did not return to the contest, and is listed as day to day.	He did not return to the contest, and is listed as day to day.	6731779	1472076454729	1472076454777	t	84
13144	141466	He did not return to the contest, and is listed as day to day.	He did not return to the contest, and is listed as day to day.	6731780	1472076454812	1472076454875	o	79
13144	141466	He did not return to the contest, and is listed as day to day.	He did not return to the contest, and is listed as day to day.	6731781	1472076454977	1472076455082	 	32
13144	141466	He did not return to the contest, and is listed as day to day.	He did not return to the contest, and is listed as day to day.	6731782	1472076455064	1472076455118	d	68
13144	141466	He did not return to the contest, and is listed as day to day.	He did not return to the contest, and is listed as day to day.	6731783	1472076455176	1472076455283	a	65
13144	141466	He did not return to the contest, and is listed as day to day.	He did not return to the contest, and is listed as day to day.	6731784	1472076455420	1472076455489	y	89
13144	141466	He did not return to the contest, and is listed as day to day.	He did not return to the contest, and is listed as day to day.	6731788	1472076455533	1472076455637	.	190
13144	141473	Whether it will stand up on race day, nobody knows.	Wheter it will stand up on the race day, nobody knows.	6731930	1472076457186	1472076457264	CAPS_LOCK	20
13144	141473	Whether it will stand up on race day, nobody knows.	Wheter it will stand up on the race day, nobody knows.	6731931	1472076457455	1472076457530	W	87
13144	141473	Whether it will stand up on race day, nobody knows.	Wheter it will stand up on the race day, nobody knows.	6731932	1472076457676	1472076457775	CAPS_LOCK	20
13144	141473	Whether it will stand up on race day, nobody knows.	Wheter it will stand up on the race day, nobody knows.	6731934	1472076458249	1472076458336	h	72
13144	141473	Whether it will stand up on race day, nobody knows.	Wheter it will stand up on the race day, nobody knows.	6731936	1472076458640	1472076458708	BKSP	8
13144	141473	Whether it will stand up on race day, nobody knows.	Wheter it will stand up on the race day, nobody knows.	6731938	1472076459689	1472076459778	h	72
13144	141473	Whether it will stand up on race day, nobody knows.	Wheter it will stand up on the race day, nobody knows.	6731940	1472076459838	1472076459917	e	69
13144	141473	Whether it will stand up on race day, nobody knows.	Wheter it will stand up on the race day, nobody knows.	6731942	1472076460047	1472076460111	t	84
13144	141473	Whether it will stand up on race day, nobody knows.	Wheter it will stand up on the race day, nobody knows.	6732025	1472076461333	1472076461465	e	69
13144	141473	Whether it will stand up on race day, nobody knows.	Wheter it will stand up on the race day, nobody knows.	6732028	1472076461575	1472076461656	r	82
13144	141473	Whether it will stand up on race day, nobody knows.	Wheter it will stand up on the race day, nobody knows.	6732033	1472076461726	1472076461830	 	32
13144	141473	Whether it will stand up on race day, nobody knows.	Wheter it will stand up on the race day, nobody knows.	6732036	1472076461940	1472076462019	i	73
13144	141473	Whether it will stand up on race day, nobody knows.	Wheter it will stand up on the race day, nobody knows.	6732038	1472076462052	1472076462111	t	84
13144	141473	Whether it will stand up on race day, nobody knows.	Wheter it will stand up on the race day, nobody knows.	6732057	1472076462222	1472076462292	 	32
13144	141473	Whether it will stand up on race day, nobody knows.	Wheter it will stand up on the race day, nobody knows.	6732058	1472076462362	1472076462425	w	87
13144	141473	Whether it will stand up on race day, nobody knows.	Wheter it will stand up on the race day, nobody knows.	6732059	1472076462444	1472076462508	i	73
13144	141473	Whether it will stand up on race day, nobody knows.	Wheter it will stand up on the race day, nobody knows.	6732060	1472076462659	1472076462726	l	76
13144	141473	Whether it will stand up on race day, nobody knows.	Wheter it will stand up on the race day, nobody knows.	6732063	1472076462846	1472076462910	l	76
13144	141473	Whether it will stand up on race day, nobody knows.	Wheter it will stand up on the race day, nobody knows.	6732090	1472076463025	1472076463099	 	32
13144	141473	Whether it will stand up on race day, nobody knows.	Wheter it will stand up on the race day, nobody knows.	6732091	1472076463163	1472076463247	s	83
13144	141473	Whether it will stand up on race day, nobody knows.	Wheter it will stand up on the race day, nobody knows.	6732094	1472076463286	1472076463319	t	84
13144	141473	Whether it will stand up on race day, nobody knows.	Wheter it will stand up on the race day, nobody knows.	6732097	1472076463392	1472076463459	a	65
13144	141473	Whether it will stand up on race day, nobody knows.	Wheter it will stand up on the race day, nobody knows.	6732099	1472076463523	1472076463599	n	78
13144	141473	Whether it will stand up on race day, nobody knows.	Wheter it will stand up on the race day, nobody knows.	6732122	1472076463699	1472076463770	d	68
13144	141473	Whether it will stand up on race day, nobody knows.	Wheter it will stand up on the race day, nobody knows.	6732124	1472076463778	1472076463857	 	32
13144	141473	Whether it will stand up on race day, nobody knows.	Wheter it will stand up on the race day, nobody knows.	6732128	1472076463999	1472076464078	u	85
13144	141473	Whether it will stand up on race day, nobody knows.	Wheter it will stand up on the race day, nobody knows.	6732133	1472076464249	1472076464317	p	80
13144	141473	Whether it will stand up on race day, nobody knows.	Wheter it will stand up on the race day, nobody knows.	6732137	1472076464471	1472076464519	 	32
13144	141473	Whether it will stand up on race day, nobody knows.	Wheter it will stand up on the race day, nobody knows.	6732154	1472076464645	1472076464705	o	79
13144	141473	Whether it will stand up on race day, nobody knows.	Wheter it will stand up on the race day, nobody knows.	6732156	1472076464806	1472076464864	n	78
13144	141473	Whether it will stand up on race day, nobody knows.	Wheter it will stand up on the race day, nobody knows.	6732159	1472076464974	1472076465047	 	32
13144	141473	Whether it will stand up on race day, nobody knows.	Wheter it will stand up on the race day, nobody knows.	6732162	1472076465034	1472076465093	t	84
13144	141473	Whether it will stand up on race day, nobody knows.	Wheter it will stand up on the race day, nobody knows.	6732164	1472076465157	1472076465216	h	72
13144	141473	Whether it will stand up on race day, nobody knows.	Wheter it will stand up on the race day, nobody knows.	6732196	1472076465203	1472076465277	e	69
13144	141473	Whether it will stand up on race day, nobody knows.	Wheter it will stand up on the race day, nobody knows.	6732198	1472076465325	1472076465431	 	32
13144	141473	Whether it will stand up on race day, nobody knows.	Wheter it will stand up on the race day, nobody knows.	6732200	1472076465361	1472076465447	r	82
13144	141473	Whether it will stand up on race day, nobody knows.	Wheter it will stand up on the race day, nobody knows.	6732202	1472076465583	1472076465670	a	65
13144	141473	Whether it will stand up on race day, nobody knows.	Wheter it will stand up on the race day, nobody knows.	6732204	1472076465749	1472076465820	c	67
13144	141473	Whether it will stand up on race day, nobody knows.	Wheter it will stand up on the race day, nobody knows.	6732206	1472076465921	1472076465999	e	69
13144	141473	Whether it will stand up on race day, nobody knows.	Wheter it will stand up on the race day, nobody knows.	6732221	1472076466084	1472076466163	 	32
13144	141473	Whether it will stand up on race day, nobody knows.	Wheter it will stand up on the race day, nobody knows.	6732222	1472076466170	1472076466239	d	68
13144	141473	Whether it will stand up on race day, nobody knows.	Wheter it will stand up on the race day, nobody knows.	6732223	1472076466294	1472076466374	a	65
13144	141473	Whether it will stand up on race day, nobody knows.	Wheter it will stand up on the race day, nobody knows.	6732224	1472076466536	1472076466622	y	89
13144	141473	Whether it will stand up on race day, nobody knows.	Wheter it will stand up on the race day, nobody knows.	6732225	1472076466704	1472076466770	,	188
13144	141473	Whether it will stand up on race day, nobody knows.	Wheter it will stand up on the race day, nobody knows.	6732276	1472076466923	1472076466997	 	32
13144	141473	Whether it will stand up on race day, nobody knows.	Wheter it will stand up on the race day, nobody knows.	6732278	1472076467121	1472076467211	n	78
13144	141473	Whether it will stand up on race day, nobody knows.	Wheter it will stand up on the race day, nobody knows.	6732280	1472076467361	1472076467399	o	79
13144	141473	Whether it will stand up on race day, nobody knows.	Wheter it will stand up on the race day, nobody knows.	6732282	1472076467998	1472076468071	b	66
13144	141473	Whether it will stand up on race day, nobody knows.	Wheter it will stand up on the race day, nobody knows.	6732284	1472076468142	1472076468215	o	79
13144	141473	Whether it will stand up on race day, nobody knows.	Wheter it will stand up on the race day, nobody knows.	6732299	1472076468300	1472076468378	d	68
13144	141473	Whether it will stand up on race day, nobody knows.	Wheter it will stand up on the race day, nobody knows.	6732300	1472076468542	1472076468589	y	89
13144	141473	Whether it will stand up on race day, nobody knows.	Wheter it will stand up on the race day, nobody knows.	6732301	1472076468613	1472076468738	 	32
13144	141473	Whether it will stand up on race day, nobody knows.	Wheter it will stand up on the race day, nobody knows.	6732303	1472076468852	1472076468922	k	75
13144	141473	Whether it will stand up on race day, nobody knows.	Wheter it will stand up on the race day, nobody knows.	6732304	1472076469030	1472076469103	n	78
13144	141473	Whether it will stand up on race day, nobody knows.	Wheter it will stand up on the race day, nobody knows.	6732331	1472076469163	1472076469268	o	79
13144	141473	Whether it will stand up on race day, nobody knows.	Wheter it will stand up on the race day, nobody knows.	6732332	1472076469250	1472076469303	w	87
13144	141473	Whether it will stand up on race day, nobody knows.	Wheter it will stand up on the race day, nobody knows.	6732334	1472076469439	1472076469507	s	83
13144	141473	Whether it will stand up on race day, nobody knows.	Wheter it will stand up on the race day, nobody knows.	6732337	1472076469589	1472076469708	.	190
13144	141485	I've never been to the speedway, but if they come, I will go there.	I've never been to the speedway, but if they come, I will go there.	6732420	1472076471887	1472076471986	CAPS_LOCK	20
13144	141485	I've never been to the speedway, but if they come, I will go there.	I've never been to the speedway, but if they come, I will go there.	6732423	1472076472022	1472076472108	I	73
13144	141485	I've never been to the speedway, but if they come, I will go there.	I've never been to the speedway, but if they come, I will go there.	6732428	1472076472142	1472076472201	CAPS_LOCK	20
13144	141485	I've never been to the speedway, but if they come, I will go there.	I've never been to the speedway, but if they come, I will go there.	6732430	1472076472337	1472076472431	'	222
13144	141485	I've never been to the speedway, but if they come, I will go there.	I've never been to the speedway, but if they come, I will go there.	6732432	1472076472445	1472076472529	v	86
13144	141485	I've never been to the speedway, but if they come, I will go there.	I've never been to the speedway, but if they come, I will go there.	6732434	1472076472578	1472076472698	e	69
13144	141485	I've never been to the speedway, but if they come, I will go there.	I've never been to the speedway, but if they come, I will go there.	6732439	1472076472706	1472076472806	 	32
13144	141485	I've never been to the speedway, but if they come, I will go there.	I've never been to the speedway, but if they come, I will go there.	6732472	1472076473293	1472076473356	n	78
13144	141485	I've never been to the speedway, but if they come, I will go there.	I've never been to the speedway, but if they come, I will go there.	6732475	1472076473431	1472076473504	e	69
13144	141485	I've never been to the speedway, but if they come, I will go there.	I've never been to the speedway, but if they come, I will go there.	6732477	1472076473569	1472076473689	v	86
13144	141485	I've never been to the speedway, but if they come, I will go there.	I've never been to the speedway, but if they come, I will go there.	6732481	1472076473727	1472076473798	e	69
13144	141485	I've never been to the speedway, but if they come, I will go there.	I've never been to the speedway, but if they come, I will go there.	6732486	1472076473899	1472076473989	r	82
13144	141485	I've never been to the speedway, but if they come, I will go there.	I've never been to the speedway, but if they come, I will go there.	6732512	1472076474013	1472076474102	 	32
13144	141485	I've never been to the speedway, but if they come, I will go there.	I've never been to the speedway, but if they come, I will go there.	6732514	1472076474166	1472076474247	b	66
13144	141485	I've never been to the speedway, but if they come, I will go there.	I've never been to the speedway, but if they come, I will go there.	6732517	1472076474321	1472076474360	e	69
13144	141485	I've never been to the speedway, but if they come, I will go there.	I've never been to the speedway, but if they come, I will go there.	6732519	1472076474470	1472076474535	e	69
13144	141485	I've never been to the speedway, but if they come, I will go there.	I've never been to the speedway, but if they come, I will go there.	6732521	1472076474852	1472076474929	e	69
13144	141485	I've never been to the speedway, but if they come, I will go there.	I've never been to the speedway, but if they come, I will go there.	6732552	1472076475276	1472076475349	BKSP	8
13144	141485	I've never been to the speedway, but if they come, I will go there.	I've never been to the speedway, but if they come, I will go there.	6732553	1472076476027	1472076476086	n	78
13144	141485	I've never been to the speedway, but if they come, I will go there.	I've never been to the speedway, but if they come, I will go there.	6732554	1472076476203	1472076476310	 	32
13144	141485	I've never been to the speedway, but if they come, I will go there.	I've never been to the speedway, but if they come, I will go there.	6732555	1472076476390	1472076476418	t	84
13144	141485	I've never been to the speedway, but if they come, I will go there.	I've never been to the speedway, but if they come, I will go there.	6732556	1472076476483	1472076476537	o	79
13144	141485	I've never been to the speedway, but if they come, I will go there.	I've never been to the speedway, but if they come, I will go there.	6732557	1472076476656	1472076476756	 	32
13144	141485	I've never been to the speedway, but if they come, I will go there.	I've never been to the speedway, but if they come, I will go there.	6732569	1472076476743	1472076476802	t	84
13144	141485	I've never been to the speedway, but if they come, I will go there.	I've never been to the speedway, but if they come, I will go there.	6732572	1472076476836	1472076476911	h	72
13144	141485	I've never been to the speedway, but if they come, I will go there.	I've never been to the speedway, but if they come, I will go there.	6732575	1472076476933	1472076476993	e	69
13144	141485	I've never been to the speedway, but if they come, I will go there.	I've never been to the speedway, but if they come, I will go there.	6732578	1472076477062	1472076477173	 	32
13144	141485	I've never been to the speedway, but if they come, I will go there.	I've never been to the speedway, but if they come, I will go there.	6732581	1472076477198	1472076477267	s	83
13144	141485	I've never been to the speedway, but if they come, I will go there.	I've never been to the speedway, but if they come, I will go there.	6732583	1472076477373	1472076477446	p	80
13144	141485	I've never been to the speedway, but if they come, I will go there.	I've never been to the speedway, but if they come, I will go there.	6732598	1472076477552	1472076477595	e	69
13144	141485	I've never been to the speedway, but if they come, I will go there.	I've never been to the speedway, but if they come, I will go there.	6732599	1472076477691	1472076477754	e	69
13144	141485	I've never been to the speedway, but if they come, I will go there.	I've never been to the speedway, but if they come, I will go there.	6732600	1472076477859	1472076477923	d	68
13144	141485	I've never been to the speedway, but if they come, I will go there.	I've never been to the speedway, but if they come, I will go there.	6732601	1472076478183	1472076478245	w	87
13144	141485	I've never been to the speedway, but if they come, I will go there.	I've never been to the speedway, but if they come, I will go there.	6732602	1472076478379	1472076478485	a	65
13144	141485	I've never been to the speedway, but if they come, I will go there.	I've never been to the speedway, but if they come, I will go there.	6732651	1472076478616	1472076478694	y	89
13144	141485	I've never been to the speedway, but if they come, I will go there.	I've never been to the speedway, but if they come, I will go there.	6732654	1472076478861	1472076478981	 	32
13144	141485	I've never been to the speedway, but if they come, I will go there.	I've never been to the speedway, but if they come, I will go there.	6732657	1472076479148	1472076479221	BKSP	8
13144	141485	I've never been to the speedway, but if they come, I will go there.	I've never been to the speedway, but if they come, I will go there.	6732660	1472076479365	1472076479446	,	188
13144	141485	I've never been to the speedway, but if they come, I will go there.	I've never been to the speedway, but if they come, I will go there.	6732663	1472076479552	1472076479615	 	32
13144	141485	I've never been to the speedway, but if they come, I will go there.	I've never been to the speedway, but if they come, I will go there.	6732665	1472076479721	1472076479820	b	66
13144	141485	I've never been to the speedway, but if they come, I will go there.	I've never been to the speedway, but if they come, I will go there.	6732681	1472076479864	1472076479943	u	85
13144	141485	I've never been to the speedway, but if they come, I will go there.	I've never been to the speedway, but if they come, I will go there.	6732682	1472076479993	1472076480058	t	84
13144	141485	I've never been to the speedway, but if they come, I will go there.	I've never been to the speedway, but if they come, I will go there.	6732684	1472076480169	1472076480238	 	32
13144	141485	I've never been to the speedway, but if they come, I will go there.	I've never been to the speedway, but if they come, I will go there.	6732687	1472076480420	1472076480496	i	73
13144	141485	I've never been to the speedway, but if they come, I will go there.	I've never been to the speedway, but if they come, I will go there.	6732692	1472076480540	1472076480620	f	70
13144	141485	I've never been to the speedway, but if they come, I will go there.	I've never been to the speedway, but if they come, I will go there.	6732704	1472076480658	1472076480742	 	32
13144	141485	I've never been to the speedway, but if they come, I will go there.	I've never been to the speedway, but if they come, I will go there.	6732706	1472076480750	1472076480798	t	84
13144	141485	I've never been to the speedway, but if they come, I will go there.	I've never been to the speedway, but if they come, I will go there.	6732708	1472076480832	1472076480891	h	72
13144	141485	I've never been to the speedway, but if they come, I will go there.	I've never been to the speedway, but if they come, I will go there.	6732709	1472076480934	1472076481009	e	69
13144	141485	I've never been to the speedway, but if they come, I will go there.	I've never been to the speedway, but if they come, I will go there.	6732710	1472076481033	1472076481091	y	89
13144	141485	I've never been to the speedway, but if they come, I will go there.	I've never been to the speedway, but if they come, I will go there.	6732719	1472076481223	1472076481313	 	32
13144	141485	I've never been to the speedway, but if they come, I will go there.	I've never been to the speedway, but if they come, I will go there.	6732720	1472076481359	1472076481446	c	67
13144	141485	I've never been to the speedway, but if they come, I will go there.	I've never been to the speedway, but if they come, I will go there.	6732721	1472076481450	1472076481515	o	79
13144	141485	I've never been to the speedway, but if they come, I will go there.	I've never been to the speedway, but if they come, I will go there.	6732722	1472076481615	1472076481689	m	77
13144	141485	I've never been to the speedway, but if they come, I will go there.	I've never been to the speedway, but if they come, I will go there.	6732723	1472076481733	1472076481786	e	69
13144	141485	I've never been to the speedway, but if they come, I will go there.	I've never been to the speedway, but if they come, I will go there.	6732726	1472076481835	1472076481894	,	188
13144	141485	I've never been to the speedway, but if they come, I will go there.	I've never been to the speedway, but if they come, I will go there.	6732728	1472076482020	1472076482093	 	32
13144	141485	I've never been to the speedway, but if they come, I will go there.	I've never been to the speedway, but if they come, I will go there.	6732733	1472076482153	1472076482234	CAPS_LOCK	20
13144	141485	I've never been to the speedway, but if they come, I will go there.	I've never been to the speedway, but if they come, I will go there.	6732738	1472076482253	1472076482317	I	73
13144	141485	I've never been to the speedway, but if they come, I will go there.	I've never been to the speedway, but if they come, I will go there.	6732743	1472076482346	1472076482425	CAPS_LOCK	20
13144	141485	I've never been to the speedway, but if they come, I will go there.	I've never been to the speedway, but if they come, I will go there.	6732745	1472076482447	1472076482513	 	32
13144	141485	I've never been to the speedway, but if they come, I will go there.	I've never been to the speedway, but if they come, I will go there.	6732747	1472076482520	1472076482602	w	87
13144	141485	I've never been to the speedway, but if they come, I will go there.	I've never been to the speedway, but if they come, I will go there.	6732751	1472076482626	1472076482689	i	73
13144	141485	I've never been to the speedway, but if they come, I will go there.	I've never been to the speedway, but if they come, I will go there.	6732752	1472076482790	1472076482843	l	76
13144	141485	I've never been to the speedway, but if they come, I will go there.	I've never been to the speedway, but if they come, I will go there.	6732753	1472076482922	1472076482981	l	76
13144	141485	I've never been to the speedway, but if they come, I will go there.	I've never been to the speedway, but if they come, I will go there.	6732754	1472076483075	1472076483144	 	32
13144	141485	I've never been to the speedway, but if they come, I will go there.	I've never been to the speedway, but if they come, I will go there.	6732756	1472076483152	1472076483219	g	71
13144	141485	I've never been to the speedway, but if they come, I will go there.	I've never been to the speedway, but if they come, I will go there.	6732770	1472076483230	1472076483289	o	79
13144	141485	I've never been to the speedway, but if they come, I will go there.	I've never been to the speedway, but if they come, I will go there.	6732771	1472076483394	1472076483467	 	32
13144	141485	I've never been to the speedway, but if they come, I will go there.	I've never been to the speedway, but if they come, I will go there.	6732772	1472076483476	1472076483555	t	84
13144	141485	I've never been to the speedway, but if they come, I will go there.	I've never been to the speedway, but if they come, I will go there.	6732774	1472076483604	1472076483670	h	72
13144	141485	I've never been to the speedway, but if they come, I will go there.	I've never been to the speedway, but if they come, I will go there.	6732776	1472076483703	1472076483772	e	69
13144	141485	I've never been to the speedway, but if they come, I will go there.	I've never been to the speedway, but if they come, I will go there.	6732785	1472076483863	1472076483917	r	82
13144	141485	I've never been to the speedway, but if they come, I will go there.	I've never been to the speedway, but if they come, I will go there.	6732787	1472076484016	1472076484074	e	69
13144	141485	I've never been to the speedway, but if they come, I will go there.	I've never been to the speedway, but if they come, I will go there.	6732789	1472076484092	1472076484161	.	190
13144	141496	Please let us know asap.	Please let us known Asap.	6732864	1472076486339	1472076486410	CAPS_LOCK	20
13144	141496	Please let us know asap.	Please let us known Asap.	6732865	1472076486463	1472076486532	P	80
13144	141496	Please let us know asap.	Please let us known Asap.	6732866	1472076486545	1472076486636	CAPS_LOCK	20
13144	141496	Please let us know asap.	Please let us known Asap.	6732868	1472076486645	1472076486749	l	76
13144	141496	Please let us know asap.	Please let us known Asap.	6732871	1472076486706	1472076486782	e	69
13144	141496	Please let us know asap.	Please let us known Asap.	6732874	1472076486856	1472076486935	a	65
13144	141496	Please let us know asap.	Please let us known Asap.	6732878	1472076487031	1472076487094	s	83
13144	141496	Please let us know asap.	Please let us known Asap.	6732899	1472076487179	1472076487258	e	69
13144	141496	Please let us know asap.	Please let us known Asap.	6732903	1472076487270	1472076487365	 	32
13144	141496	Please let us know asap.	Please let us known Asap.	6732905	1472076487456	1472076487556	l	76
13144	141496	Please let us know asap.	Please let us known Asap.	6732907	1472076487543	1472076487607	e	69
13144	141496	Please let us know asap.	Please let us known Asap.	6732908	1472076487688	1472076487772	t	84
13144	141496	Please let us know asap.	Please let us known Asap.	6732935	1472076487796	1472076487887	 	32
13144	141496	Please let us know asap.	Please let us known Asap.	6732936	1472076487997	1472076488091	u	85
13144	141496	Please let us know asap.	Please let us known Asap.	6732937	1472076488415	1472076488486	s	83
13144	141496	Please let us know asap.	Please let us known Asap.	6732938	1472076488672	1472076488767	 	32
13144	141496	Please let us know asap.	Please let us known Asap.	6732941	1472076488941	1472076489009	k	75
13144	141496	Please let us know asap.	Please let us known Asap.	6732968	1472076489380	1472076489428	o	79
13144	141496	Please let us know asap.	Please let us known Asap.	6732970	1472076489699	1472076489734	BKSP	8
13144	141496	Please let us know asap.	Please let us known Asap.	6732974	1472076489884	1472076489981	n	78
13144	141496	Please let us know asap.	Please let us known Asap.	6732976	1472076490055	1472076490129	o	79
13144	141496	Please let us know asap.	Please let us known Asap.	6732979	1472076490152	1472076490222	w	87
13144	141496	Please let us know asap.	Please let us known Asap.	6732983	1472076490250	1472076490314	n	78
13144	141496	Please let us know asap.	Please let us known Asap.	6733015	1472076490398	1472076490547	 	32
13144	141496	Please let us know asap.	Please let us known Asap.	6733017	1472076490557	1472076490689	CAPS_LOCK	20
13144	141496	Please let us know asap.	Please let us known Asap.	6733018	1472076490676	1472076490844	A	65
13144	141496	Please let us know asap.	Please let us known Asap.	6733020	1472076490822	1472076490919	CAPS_LOCK	20
13144	141496	Please let us know asap.	Please let us known Asap.	6733023	1472076491051	1472076491145	s	83
13144	141496	Please let us know asap.	Please let us known Asap.	6733024	1472076491230	1472076491315	a	65
13144	141496	Please let us know asap.	Please let us known Asap.	6733028	1472076491369	1472076491438	p	80
13144	141496	Please let us know asap.	Please let us known Asap.	6733044	1472076491677	1472076491751	.	190
13144	141501	Thanks again for your help.	Thanks again for your help.	6733095	1472076493291	1472076493411	CAPS_LOCK	20
13144	141501	Thanks again for your help.	Thanks again for your help.	6733099	1472076493587	1472076493661	T	84
13144	141501	Thanks again for your help.	Thanks again for your help.	6733101	1472076493670	1472076493773	CAPS_LOCK	20
13144	141501	Thanks again for your help.	Thanks again for your help.	6733103	1472076493774	1472076493827	h	72
13144	141501	Thanks again for your help.	Thanks again for your help.	6733105	1472076493887	1472076493978	a	65
13144	141501	Thanks again for your help.	Thanks again for your help.	6733108	1472076493931	1472076493990	n	78
13144	141501	Thanks again for your help.	Thanks again for your help.	6733112	1472076494077	1472076494127	k	75
13144	141501	Thanks again for your help.	Thanks again for your help.	6733127	1472076494146	1472076494195	s	83
13144	141501	Thanks again for your help.	Thanks again for your help.	6733130	1472076494218	1472076494359	 	32
13144	141501	Thanks again for your help.	Thanks again for your help.	6733134	1472076494310	1472076494384	a	65
13144	141501	Thanks again for your help.	Thanks again for your help.	6733137	1472076494494	1472076494563	g	71
13144	141501	Thanks again for your help.	Thanks again for your help.	6733139	1472076494674	1472076494775	a	65
13144	141501	Thanks again for your help.	Thanks again for your help.	6733161	1472076494804	1472076494847	i	73
13144	141501	Thanks again for your help.	Thanks again for your help.	6733164	1472076494952	1472076495010	n	78
13144	141501	Thanks again for your help.	Thanks again for your help.	6733166	1472076495119	1472076495200	 	32
13144	141501	Thanks again for your help.	Thanks again for your help.	6733169	1472076495187	1472076495261	f	70
13144	141501	Thanks again for your help.	Thanks again for your help.	6733173	1472076495291	1472076495360	o	79
13144	141501	Thanks again for your help.	Thanks again for your help.	6733186	1472076495368	1472076495436	r	82
13144	141501	Thanks again for your help.	Thanks again for your help.	6733190	1472076495475	1472076495554	 	32
13144	141501	Thanks again for your help.	Thanks again for your help.	6733193	1472076495602	1472076495671	y	89
13144	141501	Thanks again for your help.	Thanks again for your help.	6733195	1472076495689	1472076495743	o	79
13144	141501	Thanks again for your help.	Thanks again for your help.	6733198	1472076495843	1472076495903	u	85
13144	141501	Thanks again for your help.	Thanks again for your help.	6733218	1472076495916	1472076495975	r	82
13144	141501	Thanks again for your help.	Thanks again for your help.	6733221	1472076495999	1472076496087	 	32
13144	141501	Thanks again for your help.	Thanks again for your help.	6733222	1472076496128	1472076496188	h	72
13144	141501	Thanks again for your help.	Thanks again for your help.	6733223	1472076496219	1472076496294	e	69
13144	141501	Thanks again for your help.	Thanks again for your help.	6733224	1472076496347	1472076496427	l	76
13144	141501	Thanks again for your help.	Thanks again for your help.	6733231	1472076496521	1472076496585	p	80
13144	141501	Thanks again for your help.	Thanks again for your help.	6733234	1472076496716	1472076496821	.	190
13144	141503	He is listed as probable for this week's game.	He is listed as probable for this week's game.	6733289	1472076498409	1472076498503	CAPS_LOCK	20
13144	141503	He is listed as probable for this week's game.	He is listed as probable for this week's game.	6733293	1472076498557	1472076498647	H	72
13144	141503	He is listed as probable for this week's game.	He is listed as probable for this week's game.	6733295	1472076498629	1472076498692	CAPS_LOCK	20
13144	141503	He is listed as probable for this week's game.	He is listed as probable for this week's game.	6733299	1472076498741	1472076498826	e	69
13144	141503	He is listed as probable for this week's game.	He is listed as probable for this week's game.	6733303	1472076498813	1472076498876	 	32
13144	141503	He is listed as probable for this week's game.	He is listed as probable for this week's game.	6733306	1472076498957	1472076499016	i	73
13144	141503	He is listed as probable for this week's game.	He is listed as probable for this week's game.	6733308	1472076499024	1472076499082	s	83
13144	141503	He is listed as probable for this week's game.	He is listed as probable for this week's game.	6733327	1472076499121	1472076499185	 	32
13144	141503	He is listed as probable for this week's game.	He is listed as probable for this week's game.	6733330	1472076499275	1472076499351	l	76
13144	141503	He is listed as probable for this week's game.	He is listed as probable for this week's game.	6733333	1472076499441	1472076499525	i	73
13144	141503	He is listed as probable for this week's game.	He is listed as probable for this week's game.	6733336	1472076499512	1472076499588	s	83
13144	141503	He is listed as probable for this week's game.	He is listed as probable for this week's game.	6733338	1472076499676	1472076499755	t	84
13144	141503	He is listed as probable for this week's game.	He is listed as probable for this week's game.	6733345	1472076499809	1472076499899	e	69
13144	141503	He is listed as probable for this week's game.	He is listed as probable for this week's game.	6733347	1472076499933	1472076500004	n	78
13144	141503	He is listed as probable for this week's game.	He is listed as probable for this week's game.	6733352	1472076500026	1472076500106	d	68
13144	141503	He is listed as probable for this week's game.	He is listed as probable for this week's game.	6733357	1472076500170	1472076500272	 	32
13144	141503	He is listed as probable for this week's game.	He is listed as probable for this week's game.	6733489	1472076500256	1472076500332	a	65
13144	141503	He is listed as probable for this week's game.	He is listed as probable for this week's game.	6733492	1472076500678	1472076500707	BKSP	8
13144	141503	He is listed as probable for this week's game.	He is listed as probable for this week's game.	6733494	1472076501447	1472076501507	BKSP	8
13144	141503	He is listed as probable for this week's game.	He is listed as probable for this week's game.	6733495	1472076501597	1472076501706	BKSP	8
13144	141503	He is listed as probable for this week's game.	He is listed as probable for this week's game.	6733497	1472076502586	1472076502655	BKSP	8
13144	141503	He is listed as probable for this week's game.	He is listed as probable for this week's game.	6733499	1472076502791	1472076502869	BKSP	8
13144	141503	He is listed as probable for this week's game.	He is listed as probable for this week's game.	6733501	1472076503312	1472076503385	e	69
13144	141503	He is listed as probable for this week's game.	He is listed as probable for this week's game.	6733505	1472076503518	1472076503620	d	68
13144	141503	He is listed as probable for this week's game.	He is listed as probable for this week's game.	6733507	1472076503639	1472076503749	 	32
13144	141503	He is listed as probable for this week's game.	He is listed as probable for this week's game.	6733510	1472076503854	1472076503984	a	65
13144	141503	He is listed as probable for this week's game.	He is listed as probable for this week's game.	6733513	1472076504393	1472076504483	s	83
13144	141503	He is listed as probable for this week's game.	He is listed as probable for this week's game.	6733548	1472076504506	1472076504613	 	32
13144	141503	He is listed as probable for this week's game.	He is listed as probable for this week's game.	6733554	1472076504620	1472076504673	a	65
13144	141503	He is listed as probable for this week's game.	He is listed as probable for this week's game.	6733558	1472076505406	1472076505497	 	32
13144	141503	He is listed as probable for this week's game.	He is listed as probable for this week's game.	6733562	1472076505666	1472076505740	p	80
13144	141503	He is listed as probable for this week's game.	He is listed as probable for this week's game.	6733565	1472076505946	1472076506015	BKSP	8
13144	141503	He is listed as probable for this week's game.	He is listed as probable for this week's game.	6733568	1472076506106	1472076506159	BKSP	8
13144	141503	He is listed as probable for this week's game.	He is listed as probable for this week's game.	6733569	1472076506368	1472076506442	BKSP	8
13144	141503	He is listed as probable for this week's game.	He is listed as probable for this week's game.	6733571	1472076506640	1472076506676	p	80
13144	141503	He is listed as probable for this week's game.	He is listed as probable for this week's game.	6733596	1472076506775	1472076506859	r	82
13144	141503	He is listed as probable for this week's game.	He is listed as probable for this week's game.	6733599	1472076506981	1472076507065	o	79
13144	141503	He is listed as probable for this week's game.	He is listed as probable for this week's game.	6733601	1472076507355	1472076507408	b	66
13144	141503	He is listed as probable for this week's game.	He is listed as probable for this week's game.	6733602	1472076507609	1472076507691	a	65
13144	141503	He is listed as probable for this week's game.	He is listed as probable for this week's game.	6733603	1472076507834	1472076507912	b	66
13144	141503	He is listed as probable for this week's game.	He is listed as probable for this week's game.	6733624	1472076508099	1472076508209	l	76
13144	141503	He is listed as probable for this week's game.	He is listed as probable for this week's game.	6733625	1472076508930	1472076508999	e	69
13144	141503	He is listed as probable for this week's game.	He is listed as probable for this week's game.	6733626	1472076509058	1472076509137	 	32
13144	141503	He is listed as probable for this week's game.	He is listed as probable for this week's game.	6733627	1472076509145	1472076509213	f	70
13144	141503	He is listed as probable for this week's game.	He is listed as probable for this week's game.	6733628	1472076509231	1472076509315	o	79
13144	141503	He is listed as probable for this week's game.	He is listed as probable for this week's game.	6733634	1472076509303	1472076509367	r	82
13144	141503	He is listed as probable for this week's game.	He is listed as probable for this week's game.	6733636	1472076509417	1472076509492	 	32
13144	141503	He is listed as probable for this week's game.	He is listed as probable for this week's game.	6733639	1472076509499	1472076509553	t	84
13144	141503	He is listed as probable for this week's game.	He is listed as probable for this week's game.	6733641	1472076509603	1472076509682	h	72
13144	141503	He is listed as probable for this week's game.	He is listed as probable for this week's game.	6733643	1472076509738	1472076509819	i	73
13144	141503	He is listed as probable for this week's game.	He is listed as probable for this week's game.	6733657	1472076509805	1472076509881	s	83
13144	141503	He is listed as probable for this week's game.	He is listed as probable for this week's game.	6733658	1472076509930	1472076510030	 	32
13144	141503	He is listed as probable for this week's game.	He is listed as probable for this week's game.	6733659	1472076510079	1472076510153	w	87
13144	141503	He is listed as probable for this week's game.	He is listed as probable for this week's game.	6733660	1472076510334	1472076510392	e	69
13144	141503	He is listed as probable for this week's game.	He is listed as probable for this week's game.	6733662	1472076510490	1472076510553	e	69
13144	141503	He is listed as probable for this week's game.	He is listed as probable for this week's game.	6733664	1472076510613	1472076510690	k	75
13144	141503	He is listed as probable for this week's game.	He is listed as probable for this week's game.	6733679	1472076510835	1472076510860	'	222
13144	141503	He is listed as probable for this week's game.	He is listed as probable for this week's game.	6733680	1472076510987	1472076511070	s	83
13144	141503	He is listed as probable for this week's game.	He is listed as probable for this week's game.	6733681	1472076511651	1472076511763	 	32
13144	141503	He is listed as probable for this week's game.	He is listed as probable for this week's game.	6733682	1472076511771	1472076511834	g	71
13144	141503	He is listed as probable for this week's game.	He is listed as probable for this week's game.	6733683	1472076511920	1472076512011	a	65
13144	141503	He is listed as probable for this week's game.	He is listed as probable for this week's game.	6733691	1472076512035	1472076512083	m	77
13144	141503	He is listed as probable for this week's game.	He is listed as probable for this week's game.	6733692	1472076512121	1472076512216	e	69
13144	141503	He is listed as probable for this week's game.	He is listed as probable for this week's game.	6733693	1472076512244	1472076512364	.	190
13144	141514	Rumors have him scheduled to attend at least part of the Pacers' game.	Rumors have him scheduled to attend at least part of the pavers' game.	6733707	1472076513865	1472076513978	CAPS_LOCK	20
13144	141514	Rumors have him scheduled to attend at least part of the Pacers' game.	Rumors have him scheduled to attend at least part of the pavers' game.	6733708	1472076514105	1472076514188	R	82
13144	141514	Rumors have him scheduled to attend at least part of the Pacers' game.	Rumors have him scheduled to attend at least part of the pavers' game.	6733709	1472076514294	1472076514399	CAPS_LOCK	20
13144	141514	Rumors have him scheduled to attend at least part of the Pacers' game.	Rumors have him scheduled to attend at least part of the pavers' game.	6733710	1472076514406	1472076514455	u	85
13144	141514	Rumors have him scheduled to attend at least part of the Pacers' game.	Rumors have him scheduled to attend at least part of the pavers' game.	6733711	1472076514695	1472076514763	m	77
13144	141514	Rumors have him scheduled to attend at least part of the Pacers' game.	Rumors have him scheduled to attend at least part of the pavers' game.	6733712	1472076515111	1472076515190	o	79
13144	141514	Rumors have him scheduled to attend at least part of the Pacers' game.	Rumors have him scheduled to attend at least part of the pavers' game.	6733713	1472076515279	1472076515378	r	82
13144	141514	Rumors have him scheduled to attend at least part of the Pacers' game.	Rumors have him scheduled to attend at least part of the pavers' game.	6733716	1472076515478	1472076515572	s	83
13144	141514	Rumors have him scheduled to attend at least part of the Pacers' game.	Rumors have him scheduled to attend at least part of the pavers' game.	6733718	1472076515581	1472076515671	 	32
13144	141514	Rumors have him scheduled to attend at least part of the Pacers' game.	Rumors have him scheduled to attend at least part of the pavers' game.	6733721	1472076515736	1472076515800	h	72
13144	141514	Rumors have him scheduled to attend at least part of the Pacers' game.	Rumors have him scheduled to attend at least part of the pavers' game.	6733724	1472076515807	1472076515901	a	65
13144	141514	Rumors have him scheduled to attend at least part of the Pacers' game.	Rumors have him scheduled to attend at least part of the pavers' game.	6733727	1472076515910	1472076515976	v	86
13144	141514	Rumors have him scheduled to attend at least part of the Pacers' game.	Rumors have him scheduled to attend at least part of the pavers' game.	6733746	1472076516024	1472076516100	e	69
13144	141514	Rumors have him scheduled to attend at least part of the Pacers' game.	Rumors have him scheduled to attend at least part of the pavers' game.	6733747	1472076516123	1472076516220	 	32
13144	141514	Rumors have him scheduled to attend at least part of the Pacers' game.	Rumors have him scheduled to attend at least part of the pavers' game.	6733748	1472076516325	1472076516403	h	72
13144	141514	Rumors have him scheduled to attend at least part of the Pacers' game.	Rumors have him scheduled to attend at least part of the pavers' game.	6733750	1472076516516	1472076516598	i	73
13144	141514	Rumors have him scheduled to attend at least part of the Pacers' game.	Rumors have him scheduled to attend at least part of the pavers' game.	6733752	1472076517063	1472076517111	m	77
13144	141514	Rumors have him scheduled to attend at least part of the Pacers' game.	Rumors have him scheduled to attend at least part of the pavers' game.	6733769	1472076517252	1472076517312	 	32
13144	141514	Rumors have him scheduled to attend at least part of the Pacers' game.	Rumors have him scheduled to attend at least part of the pavers' game.	6733771	1472076517657	1472076517741	s	83
13144	141514	Rumors have him scheduled to attend at least part of the Pacers' game.	Rumors have him scheduled to attend at least part of the pavers' game.	6733772	1472076517878	1472076517968	c	67
13144	141514	Rumors have him scheduled to attend at least part of the Pacers' game.	Rumors have him scheduled to attend at least part of the pavers' game.	6733773	1472076518105	1472076518185	h	72
13144	141514	Rumors have him scheduled to attend at least part of the Pacers' game.	Rumors have him scheduled to attend at least part of the pavers' game.	6733774	1472076518282	1472076518356	e	69
13144	141514	Rumors have him scheduled to attend at least part of the Pacers' game.	Rumors have him scheduled to attend at least part of the pavers' game.	6733805	1472076518482	1472076518611	d	68
13144	141514	Rumors have him scheduled to attend at least part of the Pacers' game.	Rumors have him scheduled to attend at least part of the pavers' game.	6733806	1472076518684	1472076518791	u	85
13144	141514	Rumors have him scheduled to attend at least part of the Pacers' game.	Rumors have him scheduled to attend at least part of the pavers' game.	6733808	1472076519405	1472076519499	l	76
13144	141514	Rumors have him scheduled to attend at least part of the Pacers' game.	Rumors have him scheduled to attend at least part of the pavers' game.	6733811	1472076519558	1472076519632	e	69
13144	141514	Rumors have him scheduled to attend at least part of the Pacers' game.	Rumors have him scheduled to attend at least part of the pavers' game.	6733815	1472076519737	1472076519826	d	68
13144	141514	Rumors have him scheduled to attend at least part of the Pacers' game.	Rumors have him scheduled to attend at least part of the pavers' game.	6733822	1472076519855	1472076519951	 	32
13144	141514	Rumors have him scheduled to attend at least part of the Pacers' game.	Rumors have him scheduled to attend at least part of the pavers' game.	6733824	1472076519971	1472076520044	t	84
13144	141514	Rumors have him scheduled to attend at least part of the Pacers' game.	Rumors have him scheduled to attend at least part of the pavers' game.	6733826	1472076520067	1472076520125	o	79
13144	141514	Rumors have him scheduled to attend at least part of the Pacers' game.	Rumors have him scheduled to attend at least part of the pavers' game.	6733828	1472076520226	1472076520360	 	32
13144	141514	Rumors have him scheduled to attend at least part of the Pacers' game.	Rumors have him scheduled to attend at least part of the pavers' game.	6733860	1472076520320	1472076520386	a	65
13144	141514	Rumors have him scheduled to attend at least part of the Pacers' game.	Rumors have him scheduled to attend at least part of the pavers' game.	6733862	1472076520587	1472076520651	t	84
13144	141514	Rumors have him scheduled to attend at least part of the Pacers' game.	Rumors have him scheduled to attend at least part of the pavers' game.	6733864	1472076520765	1472076520815	t	84
13144	141514	Rumors have him scheduled to attend at least part of the Pacers' game.	Rumors have him scheduled to attend at least part of the pavers' game.	6733866	1472076520933	1472076521001	e	69
13144	141514	Rumors have him scheduled to attend at least part of the Pacers' game.	Rumors have him scheduled to attend at least part of the pavers' game.	6733867	1472076521080	1472076521128	n	78
13144	141514	Rumors have him scheduled to attend at least part of the Pacers' game.	Rumors have him scheduled to attend at least part of the pavers' game.	6733869	1472076521188	1472076521257	d	68
13144	141514	Rumors have him scheduled to attend at least part of the Pacers' game.	Rumors have him scheduled to attend at least part of the pavers' game.	6733886	1472076521327	1472076521387	 	32
13144	141514	Rumors have him scheduled to attend at least part of the Pacers' game.	Rumors have him scheduled to attend at least part of the pavers' game.	6733887	1472076521655	1472076521744	a	65
13144	141514	Rumors have him scheduled to attend at least part of the Pacers' game.	Rumors have him scheduled to attend at least part of the pavers' game.	6733889	1472076521818	1472076521892	t	84
13144	141514	Rumors have him scheduled to attend at least part of the Pacers' game.	Rumors have him scheduled to attend at least part of the pavers' game.	6733891	1472076521956	1472076522042	 	32
13144	141514	Rumors have him scheduled to attend at least part of the Pacers' game.	Rumors have him scheduled to attend at least part of the pavers' game.	6733920	1472076522132	1472076522282	l	76
13144	141514	Rumors have him scheduled to attend at least part of the Pacers' game.	Rumors have him scheduled to attend at least part of the pavers' game.	6733892	1472076522218	1472076522270	e	69
13144	141514	Rumors have him scheduled to attend at least part of the Pacers' game.	Rumors have him scheduled to attend at least part of the pavers' game.	6733922	1472076522374	1472076522491	a	65
13144	141514	Rumors have him scheduled to attend at least part of the Pacers' game.	Rumors have him scheduled to attend at least part of the pavers' game.	6733924	1472076522571	1472076522655	s	83
13144	141514	Rumors have him scheduled to attend at least part of the Pacers' game.	Rumors have him scheduled to attend at least part of the pavers' game.	6733926	1472076522780	1472076522844	t	84
13144	141514	Rumors have him scheduled to attend at least part of the Pacers' game.	Rumors have him scheduled to attend at least part of the pavers' game.	6733928	1472076522999	1472076523120	 	32
13144	141514	Rumors have him scheduled to attend at least part of the Pacers' game.	Rumors have him scheduled to attend at least part of the pavers' game.	6733930	1472076523355	1472076523482	p	80
13144	141514	Rumors have him scheduled to attend at least part of the Pacers' game.	Rumors have him scheduled to attend at least part of the pavers' game.	6733956	1472076523469	1472076523559	a	65
13144	141514	Rumors have him scheduled to attend at least part of the Pacers' game.	Rumors have him scheduled to attend at least part of the pavers' game.	6733957	1472076523719	1472076523778	r	82
13144	141514	Rumors have him scheduled to attend at least part of the Pacers' game.	Rumors have him scheduled to attend at least part of the pavers' game.	6733958	1472076523878	1472076523942	t	84
13144	141514	Rumors have him scheduled to attend at least part of the Pacers' game.	Rumors have him scheduled to attend at least part of the pavers' game.	6733959	1472076523996	1472076524092	 	32
13144	141514	Rumors have him scheduled to attend at least part of the Pacers' game.	Rumors have him scheduled to attend at least part of the pavers' game.	6733960	1472076524181	1472076524266	o	79
13144	141514	Rumors have him scheduled to attend at least part of the Pacers' game.	Rumors have him scheduled to attend at least part of the pavers' game.	6733961	1472076524526	1472076524595	t	84
13144	141514	Rumors have him scheduled to attend at least part of the Pacers' game.	Rumors have him scheduled to attend at least part of the pavers' game.	6734002	1472076524562	1472076524635	 	32
13144	141514	Rumors have him scheduled to attend at least part of the Pacers' game.	Rumors have him scheduled to attend at least part of the pavers' game.	6734003	1472076524879	1472076524947	BKSP	8
13144	141514	Rumors have him scheduled to attend at least part of the Pacers' game.	Rumors have him scheduled to attend at least part of the pavers' game.	6734004	1472076525068	1472076525159	BKSP	8
13144	141514	Rumors have him scheduled to attend at least part of the Pacers' game.	Rumors have him scheduled to attend at least part of the pavers' game.	6734005	1472076525701	1472076525785	f	70
13144	141514	Rumors have him scheduled to attend at least part of the Pacers' game.	Rumors have him scheduled to attend at least part of the pavers' game.	6734006	1472076525850	1472076525944	 	32
13144	141514	Rumors have him scheduled to attend at least part of the Pacers' game.	Rumors have him scheduled to attend at least part of the pavers' game.	6734007	1472076525988	1472076526092	t	84
13144	141514	Rumors have him scheduled to attend at least part of the Pacers' game.	Rumors have him scheduled to attend at least part of the pavers' game.	6734008	1472076526101	1472076526202	h	72
13144	141514	Rumors have him scheduled to attend at least part of the Pacers' game.	Rumors have him scheduled to attend at least part of the pavers' game.	6734010	1472076526241	1472076526316	e	69
13144	141514	Rumors have him scheduled to attend at least part of the Pacers' game.	Rumors have him scheduled to attend at least part of the pavers' game.	6734025	1472076526359	1472076526448	 	32
13144	141514	Rumors have him scheduled to attend at least part of the Pacers' game.	Rumors have him scheduled to attend at least part of the pavers' game.	6734026	1472076526597	1472076526666	p	80
13144	141514	Rumors have him scheduled to attend at least part of the Pacers' game.	Rumors have him scheduled to attend at least part of the pavers' game.	6734027	1472076526736	1472076526815	a	65
13144	141514	Rumors have him scheduled to attend at least part of the Pacers' game.	Rumors have him scheduled to attend at least part of the pavers' game.	6734028	1472076527007	1472076527071	v	86
13144	141514	Rumors have him scheduled to attend at least part of the Pacers' game.	Rumors have him scheduled to attend at least part of the pavers' game.	6734029	1472076527233	1472076527297	e	69
13144	141514	Rumors have him scheduled to attend at least part of the Pacers' game.	Rumors have him scheduled to attend at least part of the pavers' game.	6734090	1472076527524	1472076527632	r	82
13144	141514	Rumors have him scheduled to attend at least part of the Pacers' game.	Rumors have him scheduled to attend at least part of the pavers' game.	6734092	1472076528537	1472076528613	s	83
13144	141514	Rumors have him scheduled to attend at least part of the Pacers' game.	Rumors have him scheduled to attend at least part of the pavers' game.	6734094	1472076528864	1472076528907	'	222
13144	141514	Rumors have him scheduled to attend at least part of the Pacers' game.	Rumors have him scheduled to attend at least part of the pavers' game.	6734096	1472076529237	1472076529303	 	32
13144	141514	Rumors have him scheduled to attend at least part of the Pacers' game.	Rumors have him scheduled to attend at least part of the pavers' game.	6734098	1472076529443	1472076529533	g	71
13144	141514	Rumors have him scheduled to attend at least part of the Pacers' game.	Rumors have him scheduled to attend at least part of the pavers' game.	6734111	1472076529628	1472076529740	a	65
13144	141514	Rumors have him scheduled to attend at least part of the Pacers' game.	Rumors have him scheduled to attend at least part of the pavers' game.	6734114	1472076529768	1472076529832	m	77
13144	141514	Rumors have him scheduled to attend at least part of the Pacers' game.	Rumors have him scheduled to attend at least part of the pavers' game.	6734116	1472076529876	1472076529975	e	69
13144	141514	Rumors have him scheduled to attend at least part of the Pacers' game.	Rumors have him scheduled to attend at least part of the pavers' game.	6734118	1472076529998	1472076530114	.	190
13144	141520	The move was a further twist in the long-running dispute.	The move was a furthers twist in the long-running dispute.	6734185	1472076532297	1472076532375	CAPS_LOCK	20
13144	141520	The move was a further twist in the long-running dispute.	The move was a furthers twist in the long-running dispute.	6734186	1472076532502	1472076532576	T	84
13144	141520	The move was a further twist in the long-running dispute.	The move was a furthers twist in the long-running dispute.	6734187	1472076532718	1472076532798	CAPS_LOCK	20
13144	141520	The move was a further twist in the long-running dispute.	The move was a furthers twist in the long-running dispute.	6734189	1472076532869	1472076532960	h	72
13144	141520	The move was a further twist in the long-running dispute.	The move was a furthers twist in the long-running dispute.	6734191	1472076532988	1472076533078	e	69
13144	141520	The move was a further twist in the long-running dispute.	The move was a furthers twist in the long-running dispute.	6734193	1472076533116	1472076533216	 	32
13144	141520	The move was a further twist in the long-running dispute.	The move was a furthers twist in the long-running dispute.	6734196	1472076533326	1472076533389	m	77
13144	141520	The move was a further twist in the long-running dispute.	The move was a furthers twist in the long-running dispute.	6734203	1472076533454	1472076533570	o	79
13144	141520	The move was a further twist in the long-running dispute.	The move was a furthers twist in the long-running dispute.	6734206	1472076533537	1472076533590	v	86
13144	141520	The move was a further twist in the long-running dispute.	The move was a furthers twist in the long-running dispute.	6734210	1472076533675	1472076533745	e	69
13144	141520	The move was a further twist in the long-running dispute.	The move was a furthers twist in the long-running dispute.	6734214	1472076533791	1472076533869	 	32
13144	141520	The move was a further twist in the long-running dispute.	The move was a furthers twist in the long-running dispute.	6734218	1472076533877	1472076533939	w	87
13144	141520	The move was a further twist in the long-running dispute.	The move was a furthers twist in the long-running dispute.	6734230	1472076534064	1472076534128	a	65
13144	141520	The move was a further twist in the long-running dispute.	The move was a furthers twist in the long-running dispute.	6734231	1472076534238	1472076534317	s	83
13144	141520	The move was a further twist in the long-running dispute.	The move was a furthers twist in the long-running dispute.	6734232	1472076534382	1472076534460	 	32
13144	141520	The move was a further twist in the long-running dispute.	The move was a furthers twist in the long-running dispute.	6734233	1472076534489	1472076534580	g	71
13144	141520	The move was a further twist in the long-running dispute.	The move was a furthers twist in the long-running dispute.	6734234	1472076534640	1472076534740	u	85
13144	141520	The move was a further twist in the long-running dispute.	The move was a furthers twist in the long-running dispute.	6734255	1472076534747	1472076534802	t	84
13144	141520	The move was a further twist in the long-running dispute.	The move was a furthers twist in the long-running dispute.	6734256	1472076534872	1472076534978	h	72
13144	141520	The move was a further twist in the long-running dispute.	The move was a furthers twist in the long-running dispute.	6734257	1472076534996	1472076535071	e	69
13144	141520	The move was a further twist in the long-running dispute.	The move was a furthers twist in the long-running dispute.	6734258	1472076535171	1472076535224	r	82
13144	141520	The move was a further twist in the long-running dispute.	The move was a furthers twist in the long-running dispute.	6734259	1472076535411	1472076535460	s	83
13144	141520	The move was a further twist in the long-running dispute.	The move was a furthers twist in the long-running dispute.	6734347	1472076535550	1472076535640	 	32
13144	141520	The move was a further twist in the long-running dispute.	The move was a furthers twist in the long-running dispute.	6734348	1472076535859	1472076535922	t	84
13144	141520	The move was a further twist in the long-running dispute.	The move was a furthers twist in the long-running dispute.	6734350	1472076536074	1472076536153	w	87
13144	141520	The move was a further twist in the long-running dispute.	The move was a furthers twist in the long-running dispute.	6734354	1472076536810	1472076536888	BKSP	8
13144	141520	The move was a further twist in the long-running dispute.	The move was a furthers twist in the long-running dispute.	6734357	1472076536953	1472076537002	BKSP	8
13144	141520	The move was a further twist in the long-running dispute.	The move was a furthers twist in the long-running dispute.	6734360	1472076537078	1472076537132	BKSP	8
13144	141520	The move was a further twist in the long-running dispute.	The move was a furthers twist in the long-running dispute.	6734362	1472076537208	1472076537261	BKSP	8
13144	141520	The move was a further twist in the long-running dispute.	The move was a furthers twist in the long-running dispute.	6734365	1472076537346	1472076537399	BKSP	8
13144	141520	The move was a further twist in the long-running dispute.	The move was a furthers twist in the long-running dispute.	6734367	1472076537474	1472076537527	BKSP	8
13144	141520	The move was a further twist in the long-running dispute.	The move was a furthers twist in the long-running dispute.	6734371	1472076537623	1472076537671	BKSP	8
13144	141520	The move was a further twist in the long-running dispute.	The move was a furthers twist in the long-running dispute.	6734373	1472076537705	1472076537801	BKSP	8
13144	141520	The move was a further twist in the long-running dispute.	The move was a furthers twist in the long-running dispute.	6734377	1472076538035	1472076538142	BKSP	8
13144	141520	The move was a further twist in the long-running dispute.	The move was a furthers twist in the long-running dispute.	6734380	1472076538268	1472076538367	BKSP	8
13144	141520	The move was a further twist in the long-running dispute.	The move was a furthers twist in the long-running dispute.	6734382	1472076538471	1472076538576	a	65
13144	141520	The move was a further twist in the long-running dispute.	The move was a furthers twist in the long-running dispute.	6734384	1472076539074	1472076539144	 	32
13144	141520	The move was a further twist in the long-running dispute.	The move was a furthers twist in the long-running dispute.	6734430	1472076539321	1472076539390	f	70
13144	141520	The move was a further twist in the long-running dispute.	The move was a furthers twist in the long-running dispute.	6734432	1472076539428	1472076539492	u	85
13144	141520	The move was a further twist in the long-running dispute.	The move was a furthers twist in the long-running dispute.	6734434	1472076539551	1472076539615	t	84
13144	141520	The move was a further twist in the long-running dispute.	The move was a furthers twist in the long-running dispute.	6734435	1472076540351	1472076540420	BKSP	8
13144	141520	The move was a further twist in the long-running dispute.	The move was a furthers twist in the long-running dispute.	6734436	1472076540684	1472076540702	r	82
13144	141520	The move was a further twist in the long-running dispute.	The move was a furthers twist in the long-running dispute.	6734437	1472076540967	1472076541041	t	84
13144	141520	The move was a further twist in the long-running dispute.	The move was a furthers twist in the long-running dispute.	6734462	1472076541078	1472076541149	h	72
13144	141520	The move was a further twist in the long-running dispute.	The move was a furthers twist in the long-running dispute.	6734464	1472076541188	1472076541254	e	69
13144	141520	The move was a further twist in the long-running dispute.	The move was a furthers twist in the long-running dispute.	6734466	1472076541349	1472076541407	r	82
13144	141520	The move was a further twist in the long-running dispute.	The move was a furthers twist in the long-running dispute.	6734468	1472076541543	1472076541637	s	83
13144	141520	The move was a further twist in the long-running dispute.	The move was a furthers twist in the long-running dispute.	6734469	1472076541737	1472076541826	 	32
13144	141520	The move was a further twist in the long-running dispute.	The move was a furthers twist in the long-running dispute.	6734505	1472076542024	1472076542083	t	84
13144	141520	The move was a further twist in the long-running dispute.	The move was a furthers twist in the long-running dispute.	6734507	1472076542246	1472076542301	w	87
13144	141520	The move was a further twist in the long-running dispute.	The move was a furthers twist in the long-running dispute.	6734511	1472076542413	1472076542486	i	73
13144	141520	The move was a further twist in the long-running dispute.	The move was a furthers twist in the long-running dispute.	6734516	1472076542572	1472076542635	s	83
13144	141520	The move was a further twist in the long-running dispute.	The move was a furthers twist in the long-running dispute.	6734518	1472076542802	1472076542856	t	84
13144	141520	The move was a further twist in the long-running dispute.	The move was a furthers twist in the long-running dispute.	6734557	1472076542933	1472076543032	 	32
13144	141520	The move was a further twist in the long-running dispute.	The move was a furthers twist in the long-running dispute.	6734558	1472076543537	1472076543621	i	73
13144	141520	The move was a further twist in the long-running dispute.	The move was a furthers twist in the long-running dispute.	6734560	1472076543731	1472076543820	n	78
13144	141520	The move was a further twist in the long-running dispute.	The move was a furthers twist in the long-running dispute.	6734562	1472076543925	1472076544021	 	32
13144	141520	The move was a further twist in the long-running dispute.	The move was a furthers twist in the long-running dispute.	6734564	1472076544045	1472076544129	t	84
13144	141520	The move was a further twist in the long-running dispute.	The move was a furthers twist in the long-running dispute.	6734574	1472076544152	1472076544226	h	72
13144	141520	The move was a further twist in the long-running dispute.	The move was a furthers twist in the long-running dispute.	6734577	1472076544255	1472076544346	e	69
13144	141520	The move was a further twist in the long-running dispute.	The move was a furthers twist in the long-running dispute.	6734580	1472076544369	1472076544446	 	32
13144	141520	The move was a further twist in the long-running dispute.	The move was a furthers twist in the long-running dispute.	6734583	1472076544545	1472076544640	l	76
13144	141520	The move was a further twist in the long-running dispute.	The move was a furthers twist in the long-running dispute.	6734586	1472076544728	1472076544793	o	79
13144	141520	The move was a further twist in the long-running dispute.	The move was a furthers twist in the long-running dispute.	6734611	1472076544902	1472076544986	n	78
13144	141520	The move was a further twist in the long-running dispute.	The move was a furthers twist in the long-running dispute.	6734612	1472076545064	1472076545152	g	71
13144	141520	The move was a further twist in the long-running dispute.	The move was a furthers twist in the long-running dispute.	6734613	1472076545259	1472076545318	 	32
13144	141520	The move was a further twist in the long-running dispute.	The move was a furthers twist in the long-running dispute.	6734614	1472076545571	1472076545624	BKSP	8
13144	141520	The move was a further twist in the long-running dispute.	The move was a furthers twist in the long-running dispute.	6734615	1472076545811	1472076545870	-	189
13144	141520	The move was a further twist in the long-running dispute.	The move was a furthers twist in the long-running dispute.	6734616	1472076545996	1472076546086	r	82
13144	141520	The move was a further twist in the long-running dispute.	The move was a furthers twist in the long-running dispute.	6734626	1472076546120	1472076546189	u	85
13144	141520	The move was a further twist in the long-running dispute.	The move was a furthers twist in the long-running dispute.	6734627	1472076546317	1472076546370	n	78
13144	141520	The move was a further twist in the long-running dispute.	The move was a furthers twist in the long-running dispute.	6734628	1472076546479	1472076546539	n	78
13144	141520	The move was a further twist in the long-running dispute.	The move was a furthers twist in the long-running dispute.	6734629	1472076546664	1472076546733	i	73
13144	141520	The move was a further twist in the long-running dispute.	The move was a furthers twist in the long-running dispute.	6734630	1472076546844	1472076546912	n	78
13144	141520	The move was a further twist in the long-running dispute.	The move was a furthers twist in the long-running dispute.	6734657	1472076546976	1472076547034	g	71
13144	141520	The move was a further twist in the long-running dispute.	The move was a furthers twist in the long-running dispute.	6734659	1472076547193	1472076547292	 	32
13144	141520	The move was a further twist in the long-running dispute.	The move was a furthers twist in the long-running dispute.	6734661	1472076547415	1472076547513	d	68
13144	141520	The move was a further twist in the long-running dispute.	The move was a furthers twist in the long-running dispute.	6734662	1472076547527	1472076547602	i	73
13144	141520	The move was a further twist in the long-running dispute.	The move was a furthers twist in the long-running dispute.	6734663	1472076547656	1472076547725	s	83
13144	141520	The move was a further twist in the long-running dispute.	The move was a furthers twist in the long-running dispute.	6734691	1472076547911	1472076547996	p	80
13144	141520	The move was a further twist in the long-running dispute.	The move was a furthers twist in the long-running dispute.	6734693	1472076548152	1472076548259	u	85
13144	141520	The move was a further twist in the long-running dispute.	The move was a furthers twist in the long-running dispute.	6734695	1472076548518	1472076548584	e	69
13144	141520	The move was a further twist in the long-running dispute.	The move was a furthers twist in the long-running dispute.	6734697	1472076548776	1472076548881	BKSP	8
13144	141520	The move was a further twist in the long-running dispute.	The move was a furthers twist in the long-running dispute.	6734699	1472076548909	1472076548983	t	84
13144	141520	The move was a further twist in the long-running dispute.	The move was a furthers twist in the long-running dispute.	6734701	1472076549109	1472076549173	e	69
13144	141520	The move was a further twist in the long-running dispute.	The move was a furthers twist in the long-running dispute.	6734708	1472076549427	1472076549548	.	190
