PARTICIPANT_ID	TEST_SECTION_ID	SENTENCE	USER_INPUT	KEYSTROKE_ID	PRESS_TIME	RELEASE_TIME	LETTER	KEYCODE
136229	1481599	Treatment options consist of rest, an injection, or surgery.	Treatment options consisst of rest, and injection or surgery.	70453372	1473776562354	1473776562484	SHIFT	16
136229	1481599	Treatment options consist of rest, an injection, or surgery.	Treatment options consisst of rest, and injection or surgery.	70453377	1473776562532	1473776562639	t	84
136229	1481599	Treatment options consist of rest, an injection, or surgery.	Treatment options consisst of rest, and injection or surgery.	70453380	1473776562990	1473776563078	r	82
136229	1481599	Treatment options consist of rest, an injection, or surgery.	Treatment options consisst of rest, and injection or surgery.	70453383	1473776563189	1473776563238	e	69
136229	1481599	Treatment options consist of rest, an injection, or surgery.	Treatment options consisst of rest, and injection or surgery.	70453384	1473776563280	1473776563338	e	69
136229	1481599	Treatment options consist of rest, an injection, or surgery.	Treatment options consisst of rest, and injection or surgery.	70453386	1473776563611	1473776563693	BKSP	8
136229	1481599	Treatment options consist of rest, an injection, or surgery.	Treatment options consisst of rest, and injection or surgery.	70453389	1473776563772	1473776563839	BKSP	8
136229	1481599	Treatment options consist of rest, an injection, or surgery.	Treatment options consisst of rest, and injection or surgery.	70453393	1473776563923	1473776563992	BKSP	8
136229	1481599	Treatment options consist of rest, an injection, or surgery.	Treatment options consisst of rest, and injection or surgery.	70453397	1473776564065	1473776564137	BKSP	8
136229	1481599	Treatment options consist of rest, an injection, or surgery.	Treatment options consisst of rest, and injection or surgery.	70453401	1473776564195	1473776564268	BKSP	8
136229	1481599	Treatment options consist of rest, an injection, or surgery.	Treatment options consisst of rest, and injection or surgery.	70453532	1473776564382	1473776564815	SHIFT	16
136229	1481599	Treatment options consist of rest, an injection, or surgery.	Treatment options consisst of rest, and injection or surgery.	70453406	1473776564662	1473776564780	T	84
136229	1481599	Treatment options consist of rest, an injection, or surgery.	Treatment options consisst of rest, and injection or surgery.	70453538	1473776564923	1473776564998	r	82
136229	1481599	Treatment options consist of rest, an injection, or surgery.	Treatment options consisst of rest, and injection or surgery.	70453541	1473776565061	1473776565171	e	69
136229	1481599	Treatment options consist of rest, an injection, or surgery.	Treatment options consisst of rest, and injection or surgery.	70453544	1473776565371	1473776565458	a	65
136229	1481599	Treatment options consist of rest, an injection, or surgery.	Treatment options consisst of rest, and injection or surgery.	70453548	1473776566214	1473776566286	t	84
136229	1481599	Treatment options consist of rest, an injection, or surgery.	Treatment options consisst of rest, and injection or surgery.	70453555	1473776566615	1473776566697	m	77
136229	1481599	Treatment options consist of rest, an injection, or surgery.	Treatment options consisst of rest, and injection or surgery.	70453653	1473776566720	1473776566812	e	69
136229	1481599	Treatment options consist of rest, an injection, or surgery.	Treatment options consisst of rest, and injection or surgery.	70453654	1473776566855	1473776566922	n	78
136229	1481599	Treatment options consist of rest, an injection, or surgery.	Treatment options consisst of rest, and injection or surgery.	70453657	1473776567053	1473776567155	t	84
136229	1481599	Treatment options consist of rest, an injection, or surgery.	Treatment options consisst of rest, and injection or surgery.	70453659	1473776567213	1473776567306	 	32
136229	1481599	Treatment options consist of rest, an injection, or surgery.	Treatment options consisst of rest, and injection or surgery.	70453661	1473776567805	1473776567872	o	79
136229	1481599	Treatment options consist of rest, an injection, or surgery.	Treatment options consisst of rest, and injection or surgery.	70453773	1473776567962	1473776568035	p	80
136229	1481599	Treatment options consist of rest, an injection, or surgery.	Treatment options consisst of rest, and injection or surgery.	70453780	1473776568568	1473776568651	t	84
136229	1481599	Treatment options consist of rest, an injection, or surgery.	Treatment options consisst of rest, and injection or surgery.	70453784	1473776568639	1473776568726	i	73
136229	1481599	Treatment options consist of rest, an injection, or surgery.	Treatment options consisst of rest, and injection or surgery.	70453787	1473776568814	1473776568974	o	79
136229	1481599	Treatment options consist of rest, an injection, or surgery.	Treatment options consisst of rest, and injection or surgery.	70453792	1473776568976	1473776569070	n	78
136229	1481599	Treatment options consist of rest, an injection, or surgery.	Treatment options consisst of rest, and injection or surgery.	70453861	1473776569221	1473776569318	s	83
136229	1481599	Treatment options consist of rest, an injection, or surgery.	Treatment options consisst of rest, and injection or surgery.	70453866	1473776569803	1473776569885	 	32
136229	1481599	Treatment options consist of rest, an injection, or surgery.	Treatment options consisst of rest, and injection or surgery.	70453873	1473776570011	1473776570108	c	67
136229	1481599	Treatment options consist of rest, an injection, or surgery.	Treatment options consisst of rest, and injection or surgery.	70453879	1473776570136	1473776570263	o	79
136229	1481599	Treatment options consist of rest, an injection, or surgery.	Treatment options consisst of rest, and injection or surgery.	70453956	1473776570233	1473776570328	n	78
136229	1481599	Treatment options consist of rest, an injection, or surgery.	Treatment options consisst of rest, and injection or surgery.	70453958	1473776570546	1473776570653	s	83
136229	1481599	Treatment options consist of rest, an injection, or surgery.	Treatment options consisst of rest, and injection or surgery.	70453961	1473776570762	1473776570844	i	73
136229	1481599	Treatment options consist of rest, an injection, or surgery.	Treatment options consisst of rest, and injection or surgery.	70453965	1473776571029	1473776571132	s	83
136229	1481599	Treatment options consist of rest, an injection, or surgery.	Treatment options consisst of rest, and injection or surgery.	70453970	1473776571160	1473776571197	s	83
136229	1481599	Treatment options consist of rest, an injection, or surgery.	Treatment options consisst of rest, and injection or surgery.	70453973	1473776571210	1473776571321	t	84
136229	1481599	Treatment options consist of rest, an injection, or surgery.	Treatment options consisst of rest, and injection or surgery.	70454053	1473776571377	1473776571467	 	32
136229	1481599	Treatment options consist of rest, an injection, or surgery.	Treatment options consisst of rest, and injection or surgery.	70454057	1473776571660	1473776571747	o	79
136229	1481599	Treatment options consist of rest, an injection, or surgery.	Treatment options consisst of rest, and injection or surgery.	70454061	1473776571780	1473776571878	f	70
136229	1481599	Treatment options consist of rest, an injection, or surgery.	Treatment options consisst of rest, and injection or surgery.	70454066	1473776572583	1473776572660	 	32
136229	1481599	Treatment options consist of rest, an injection, or surgery.	Treatment options consisst of rest, and injection or surgery.	70454070	1473776572839	1473776572921	r	82
136229	1481599	Treatment options consist of rest, an injection, or surgery.	Treatment options consisst of rest, and injection or surgery.	70454166	1473776573047	1473776573124	e	69
136229	1481599	Treatment options consist of rest, an injection, or surgery.	Treatment options consisst of rest, and injection or surgery.	70454172	1473776573341	1473776573414	s	83
136229	1481599	Treatment options consist of rest, an injection, or surgery.	Treatment options consisst of rest, and injection or surgery.	70454178	1473776573642	1473776573729	t	84
136229	1481599	Treatment options consist of rest, an injection, or surgery.	Treatment options consisst of rest, and injection or surgery.	70454184	1473776573903	1473776574038	m	77
136229	1481599	Treatment options consist of rest, an injection, or surgery.	Treatment options consisst of rest, and injection or surgery.	70454189	1473776574685	1473776574798	BKSP	8
136229	1481599	Treatment options consist of rest, an injection, or surgery.	Treatment options consisst of rest, and injection or surgery.	70454193	1473776574831	1473776574898	,	188
136229	1481599	Treatment options consist of rest, an injection, or surgery.	Treatment options consisst of rest, and injection or surgery.	70454239	1473776574956	1473776575033	 	32
136229	1481599	Treatment options consist of rest, an injection, or surgery.	Treatment options consisst of rest, and injection or surgery.	70454242	1473776575494	1473776575576	a	65
136229	1481599	Treatment options consist of rest, an injection, or surgery.	Treatment options consisst of rest, and injection or surgery.	70454247	1473776575614	1473776575691	n	78
136229	1481599	Treatment options consist of rest, an injection, or surgery.	Treatment options consisst of rest, and injection or surgery.	70454253	1473776575710	1473776575792	d	68
136229	1481599	Treatment options consist of rest, an injection, or surgery.	Treatment options consisst of rest, and injection or surgery.	70454257	1473776575810	1473776575902	 	32
136229	1481599	Treatment options consist of rest, an injection, or surgery.	Treatment options consisst of rest, and injection or surgery.	70454316	1473776576305	1473776576450	i	73
136229	1481599	Treatment options consist of rest, an injection, or surgery.	Treatment options consisst of rest, and injection or surgery.	70454324	1473776576387	1473776576494	n	78
136229	1481599	Treatment options consist of rest, an injection, or surgery.	Treatment options consisst of rest, and injection or surgery.	70454331	1473776576673	1473776576750	j	74
136229	1481599	Treatment options consist of rest, an injection, or surgery.	Treatment options consisst of rest, and injection or surgery.	70454335	1473776576783	1473776576870	e	69
136229	1481599	Treatment options consist of rest, an injection, or surgery.	Treatment options consisst of rest, and injection or surgery.	70454339	1473776576979	1473776577060	c	67
136229	1481599	Treatment options consist of rest, an injection, or surgery.	Treatment options consisst of rest, and injection or surgery.	70454495	1473776577400	1473776577493	t	84
136229	1481599	Treatment options consist of rest, an injection, or surgery.	Treatment options consisst of rest, and injection or surgery.	70454499	1473776578240	1473776578312	i	73
136229	1481599	Treatment options consist of rest, an injection, or surgery.	Treatment options consisst of rest, and injection or surgery.	70454501	1473776578410	1473776578553	o	79
136229	1481599	Treatment options consist of rest, an injection, or surgery.	Treatment options consisst of rest, and injection or surgery.	70454503	1473776578511	1473776578598	n	78
136229	1481599	Treatment options consist of rest, an injection, or surgery.	Treatment options consisst of rest, and injection or surgery.	70454505	1473776578957	1473776579083	 	32
136229	1481599	Treatment options consist of rest, an injection, or surgery.	Treatment options consisst of rest, and injection or surgery.	70454599	1473776579455	1473776579537	o	79
136229	1481599	Treatment options consist of rest, an injection, or surgery.	Treatment options consisst of rest, and injection or surgery.	70454602	1473776579566	1473776579653	r	82
136229	1481599	Treatment options consist of rest, an injection, or surgery.	Treatment options consisst of rest, and injection or surgery.	70454608	1473776579761	1473776579848	 	32
136229	1481599	Treatment options consist of rest, an injection, or surgery.	Treatment options consisst of rest, and injection or surgery.	70454616	1473776579987	1473776580071	s	83
136229	1481599	Treatment options consist of rest, an injection, or surgery.	Treatment options consisst of rest, and injection or surgery.	70454620	1473776580615	1473776580692	u	85
136229	1481599	Treatment options consist of rest, an injection, or surgery.	Treatment options consisst of rest, and injection or surgery.	70454749	1473776580812	1473776580889	r	82
136229	1481599	Treatment options consist of rest, an injection, or surgery.	Treatment options consisst of rest, and injection or surgery.	70454753	1473776581110	1473776581192	g	71
136229	1481599	Treatment options consist of rest, an injection, or surgery.	Treatment options consisst of rest, and injection or surgery.	70454759	1473776582046	1473776582211	e	69
136229	1481599	Treatment options consist of rest, an injection, or surgery.	Treatment options consisst of rest, and injection or surgery.	70454768	1473776582159	1473776582256	r	82
136229	1481599	Treatment options consist of rest, an injection, or surgery.	Treatment options consisst of rest, and injection or surgery.	70454775	1473776582499	1473776582566	y	89
136229	1481599	Treatment options consist of rest, an injection, or surgery.	Treatment options consisst of rest, and injection or surgery.	70454891	1473776583819	1473776583927	.	190
136229	1481637	I wasn't sure that you received the first e-mail.	I wasn't sure that you received the first e-mail.	70455104	1473776586153	1473776586301	SHIFT	16
136229	1481637	I wasn't sure that you received the first e-mail.	I wasn't sure that you received the first e-mail.	70455108	1473776586283	1473776586368	I	73
136229	1481637	I wasn't sure that you received the first e-mail.	I wasn't sure that you received the first e-mail.	70455114	1473776586424	1473776586544	 	32
136229	1481637	I wasn't sure that you received the first e-mail.	I wasn't sure that you received the first e-mail.	70455119	1473776586546	1473776586650	w	87
136229	1481637	I wasn't sure that you received the first e-mail.	I wasn't sure that you received the first e-mail.	70455126	1473776586663	1473776586825	a	65
136229	1481637	I wasn't sure that you received the first e-mail.	I wasn't sure that you received the first e-mail.	70455129	1473776586827	1473776586896	n	78
136229	1481637	I wasn't sure that you received the first e-mail.	I wasn't sure that you received the first e-mail.	70455433	1473776586924	1473776587026	s	83
136229	1481637	I wasn't sure that you received the first e-mail.	I wasn't sure that you received the first e-mail.	70455439	1473776587452	1473776587514	BKSP	8
136229	1481637	I wasn't sure that you received the first e-mail.	I wasn't sure that you received the first e-mail.	70455444	1473776587818	1473776587875	BKSP	8
136229	1481637	I wasn't sure that you received the first e-mail.	I wasn't sure that you received the first e-mail.	70455449	1473776587978	1473776588071	s	83
136229	1481637	I wasn't sure that you received the first e-mail.	I wasn't sure that you received the first e-mail.	70455454	1473776588216	1473776588299	n	78
136229	1481637	I wasn't sure that you received the first e-mail.	I wasn't sure that you received the first e-mail.	70455457	1473776588347	1473776588439	t	84
136229	1481637	I wasn't sure that you received the first e-mail.	I wasn't sure that you received the first e-mail.	70455461	1473776590491	1473776590565	'	222
136229	1481637	I wasn't sure that you received the first e-mail.	I wasn't sure that you received the first e-mail.	70455926	1473776591761	1473776591834	BKSP	8
136229	1481637	I wasn't sure that you received the first e-mail.	I wasn't sure that you received the first e-mail.	70455929	1473776591918	1473776592005	BKSP	8
136229	1481637	I wasn't sure that you received the first e-mail.	I wasn't sure that you received the first e-mail.	70455934	1473776592103	1473776592146	BKSP	8
136229	1481637	I wasn't sure that you received the first e-mail.	I wasn't sure that you received the first e-mail.	70455938	1473776592981	1473776593079	s	83
136229	1481637	I wasn't sure that you received the first e-mail.	I wasn't sure that you received the first e-mail.	70455940	1473776593405	1473776593472	'	222
136229	1481637	I wasn't sure that you received the first e-mail.	I wasn't sure that you received the first e-mail.	70455944	1473776593880	1473776593978	t	84
136229	1481637	I wasn't sure that you received the first e-mail.	I wasn't sure that you received the first e-mail.	70455947	1473776594513	1473776594626	BKSP	8
136229	1481637	I wasn't sure that you received the first e-mail.	I wasn't sure that you received the first e-mail.	70455951	1473776594699	1473776594776	BKSP	8
136229	1481637	I wasn't sure that you received the first e-mail.	I wasn't sure that you received the first e-mail.	70455954	1473776594854	1473776594941	BKSP	8
136229	1481637	I wasn't sure that you received the first e-mail.	I wasn't sure that you received the first e-mail.	70455960	1473776596227	1473776596313	n	78
136229	1481637	I wasn't sure that you received the first e-mail.	I wasn't sure that you received the first e-mail.	70455968	1473776596741	1473776596813	'	222
136229	1481637	I wasn't sure that you received the first e-mail.	I wasn't sure that you received the first e-mail.	70456030	1473776597091	1473776597184	t	84
136229	1481637	I wasn't sure that you received the first e-mail.	I wasn't sure that you received the first e-mail.	70456032	1473776597472	1473776597535	 	32
136229	1481637	I wasn't sure that you received the first e-mail.	I wasn't sure that you received the first e-mail.	70456037	1473776597709	1473776597811	s	83
136229	1481637	I wasn't sure that you received the first e-mail.	I wasn't sure that you received the first e-mail.	70456040	1473776597854	1473776597927	u	85
136229	1481637	I wasn't sure that you received the first e-mail.	I wasn't sure that you received the first e-mail.	70456047	1473776598005	1473776598157	r	82
136229	1481637	I wasn't sure that you received the first e-mail.	I wasn't sure that you received the first e-mail.	70456091	1473776598105	1473776598192	e	69
136229	1481637	I wasn't sure that you received the first e-mail.	I wasn't sure that you received the first e-mail.	70456095	1473776598170	1473776598252	 	32
136229	1481637	I wasn't sure that you received the first e-mail.	I wasn't sure that you received the first e-mail.	70456099	1473776598369	1473776598507	t	84
136229	1481637	I wasn't sure that you received the first e-mail.	I wasn't sure that you received the first e-mail.	70456103	1473776598484	1473776598597	h	72
136229	1481637	I wasn't sure that you received the first e-mail.	I wasn't sure that you received the first e-mail.	70456108	1473776598685	1473776598832	a	65
136229	1481637	I wasn't sure that you received the first e-mail.	I wasn't sure that you received the first e-mail.	70456196	1473776598815	1473776598908	t	84
136229	1481637	I wasn't sure that you received the first e-mail.	I wasn't sure that you received the first e-mail.	70456201	1473776598909	1473776598998	 	32
136229	1481637	I wasn't sure that you received the first e-mail.	I wasn't sure that you received the first e-mail.	70456205	1473776599524	1473776599620	y	89
136229	1481637	I wasn't sure that you received the first e-mail.	I wasn't sure that you received the first e-mail.	70456209	1473776599654	1473776599716	o	79
136229	1481637	I wasn't sure that you received the first e-mail.	I wasn't sure that you received the first e-mail.	70456219	1473776599889	1473776599956	u	85
136229	1481637	I wasn't sure that you received the first e-mail.	I wasn't sure that you received the first e-mail.	70456228	1473776600019	1473776600087	 	32
136229	1481637	I wasn't sure that you received the first e-mail.	I wasn't sure that you received the first e-mail.	70456355	1473776600398	1473776600493	r	82
136229	1481637	I wasn't sure that you received the first e-mail.	I wasn't sure that you received the first e-mail.	70456359	1473776600817	1473776600910	e	69
136229	1481637	I wasn't sure that you received the first e-mail.	I wasn't sure that you received the first e-mail.	70456366	1473776601267	1473776601359	c	67
136229	1481637	I wasn't sure that you received the first e-mail.	I wasn't sure that you received the first e-mail.	70456372	1473776601933	1473776602041	e	69
136229	1481637	I wasn't sure that you received the first e-mail.	I wasn't sure that you received the first e-mail.	70456379	1473776602149	1473776602226	i	73
136229	1481637	I wasn't sure that you received the first e-mail.	I wasn't sure that you received the first e-mail.	70456447	1473776602342	1473776602464	v	86
136229	1481637	I wasn't sure that you received the first e-mail.	I wasn't sure that you received the first e-mail.	70456449	1473776602494	1473776602569	e	69
136229	1481637	I wasn't sure that you received the first e-mail.	I wasn't sure that you received the first e-mail.	70456451	1473776602929	1473776603021	d	68
136229	1481637	I wasn't sure that you received the first e-mail.	I wasn't sure that you received the first e-mail.	70456453	1473776603120	1473776603212	 	32
136229	1481637	I wasn't sure that you received the first e-mail.	I wasn't sure that you received the first e-mail.	70456455	1473776603377	1473776603547	t	84
136229	1481637	I wasn't sure that you received the first e-mail.	I wasn't sure that you received the first e-mail.	70456511	1473776603536	1473776603621	h	72
136229	1481637	I wasn't sure that you received the first e-mail.	I wasn't sure that you received the first e-mail.	70456513	1473776603725	1473776603807	e	69
136229	1481637	I wasn't sure that you received the first e-mail.	I wasn't sure that you received the first e-mail.	70456519	1473776603865	1473776603937	 	32
136229	1481637	I wasn't sure that you received the first e-mail.	I wasn't sure that you received the first e-mail.	70456526	1473776604288	1473776604355	f	70
136229	1481637	I wasn't sure that you received the first e-mail.	I wasn't sure that you received the first e-mail.	70456531	1473776604765	1473776604842	i	73
136229	1481637	I wasn't sure that you received the first e-mail.	I wasn't sure that you received the first e-mail.	70456536	1473776604901	1473776605024	s	83
136229	1481637	I wasn't sure that you received the first e-mail.	I wasn't sure that you received the first e-mail.	70456757	1473776605132	1473776605169	t	84
136229	1481637	I wasn't sure that you received the first e-mail.	I wasn't sure that you received the first e-mail.	70456762	1473776605727	1473776605829	BKSP	8
136229	1481637	I wasn't sure that you received the first e-mail.	I wasn't sure that you received the first e-mail.	70456768	1473776605847	1473776605929	r	82
136229	1481637	I wasn't sure that you received the first e-mail.	I wasn't sure that you received the first e-mail.	70456774	1473776606022	1473776606090	t	84
136229	1481637	I wasn't sure that you received the first e-mail.	I wasn't sure that you received the first e-mail.	70456779	1473776606657	1473776606735	BKSP	8
136229	1481637	I wasn't sure that you received the first e-mail.	I wasn't sure that you received the first e-mail.	70456785	1473776606823	1473776606910	BKSP	8
136229	1481637	I wasn't sure that you received the first e-mail.	I wasn't sure that you received the first e-mail.	70456789	1473776608642	1473776608726	BKSP	8
136229	1481637	I wasn't sure that you received the first e-mail.	I wasn't sure that you received the first e-mail.	70456791	1473776608773	1473776608876	r	82
136229	1481637	I wasn't sure that you received the first e-mail.	I wasn't sure that you received the first e-mail.	70456797	1473776609194	1473776609366	s	83
136229	1481637	I wasn't sure that you received the first e-mail.	I wasn't sure that you received the first e-mail.	70456873	1473776609342	1473776609439	t	84
136229	1481637	I wasn't sure that you received the first e-mail.	I wasn't sure that you received the first e-mail.	70456875	1473776609907	1473776609989	 	32
136229	1481637	I wasn't sure that you received the first e-mail.	I wasn't sure that you received the first e-mail.	70456881	1473776610107	1473776610195	e	69
136229	1481637	I wasn't sure that you received the first e-mail.	I wasn't sure that you received the first e-mail.	70456885	1473776610273	1473776610330	m	77
136229	1481637	I wasn't sure that you received the first e-mail.	I wasn't sure that you received the first e-mail.	70456891	1473776610882	1473776610964	BKSP	8
136229	1481637	I wasn't sure that you received the first e-mail.	I wasn't sure that you received the first e-mail.	70456893	1473776611243	1473776611300	-	189
136229	1481637	I wasn't sure that you received the first e-mail.	I wasn't sure that you received the first e-mail.	70456900	1473776611353	1473776611443	a	65
136229	1481637	I wasn't sure that you received the first e-mail.	I wasn't sure that you received the first e-mail.	70457032	1473776612056	1473776612138	BKSP	8
136229	1481637	I wasn't sure that you received the first e-mail.	I wasn't sure that you received the first e-mail.	70457035	1473776612608	1473776612680	m	77
136229	1481637	I wasn't sure that you received the first e-mail.	I wasn't sure that you received the first e-mail.	70457038	1473776612682	1473776612767	a	65
136229	1481637	I wasn't sure that you received the first e-mail.	I wasn't sure that you received the first e-mail.	70457042	1473776612820	1473776612877	i	73
136229	1481637	I wasn't sure that you received the first e-mail.	I wasn't sure that you received the first e-mail.	70457047	1473776613001	1473776613073	l	76
136229	1481637	I wasn't sure that you received the first e-mail.	I wasn't sure that you received the first e-mail.	70457052	1473776613675	1473776613757	.	190
136229	1481682	Call me to give me a heads up.	Call me to give me a heads up.	70457317	1473776616459	1473776616579	c	67
136229	1481682	Call me to give me a heads up.	Call me to give me a heads up.	70457320	1473776616552	1473776616613	a	65
136229	1481682	Call me to give me a heads up.	Call me to give me a heads up.	70457323	1473776616921	1473776616988	BKSP	8
136229	1481682	Call me to give me a heads up.	Call me to give me a heads up.	70457326	1473776617096	1473776617159	BKSP	8
136229	1481682	Call me to give me a heads up.	Call me to give me a heads up.	70457337	1473776617192	1473776617542	SHIFT	16
136229	1481682	Call me to give me a heads up.	Call me to give me a heads up.	70457329	1473776617292	1473776617434	C	67
136229	1481682	Call me to give me a heads up.	Call me to give me a heads up.	70457332	1473776617455	1473776617513	A	65
136229	1481682	Call me to give me a heads up.	Call me to give me a heads up.	70457342	1473776618065	1473776618152	BKSP	8
136229	1481682	Call me to give me a heads up.	Call me to give me a heads up.	70457349	1473776618276	1473776618373	a	65
136229	1481682	Call me to give me a heads up.	Call me to give me a heads up.	70457386	1473776618874	1473776618936	l	76
136229	1481682	Call me to give me a heads up.	Call me to give me a heads up.	70457389	1473776618999	1473776619081	l	76
136229	1481682	Call me to give me a heads up.	Call me to give me a heads up.	70457393	1473776619104	1473776619191	 	32
136229	1481682	Call me to give me a heads up.	Call me to give me a heads up.	70457398	1473776619255	1473776619357	m	77
136229	1481682	Call me to give me a heads up.	Call me to give me a heads up.	70457402	1473776619359	1473776619446	e	69
136229	1481682	Call me to give me a heads up.	Call me to give me a heads up.	70457503	1473776619488	1473776619565	 	32
136229	1481682	Call me to give me a heads up.	Call me to give me a heads up.	70457506	1473776620007	1473776620085	t	84
136229	1481682	Call me to give me a heads up.	Call me to give me a heads up.	70457512	1473776620098	1473776620200	o	79
136229	1481682	Call me to give me a heads up.	Call me to give me a heads up.	70457521	1473776620318	1473776620401	 	32
136229	1481682	Call me to give me a heads up.	Call me to give me a heads up.	70457526	1473776621121	1473776621184	f	70
136229	1481682	Call me to give me a heads up.	Call me to give me a heads up.	70457691	1473776621437	1473776621537	BKSP	8
136229	1481682	Call me to give me a heads up.	Call me to give me a heads up.	70457693	1473776621585	1473776621662	g	71
136229	1481682	Call me to give me a heads up.	Call me to give me a heads up.	70457695	1473776621750	1473776621816	o	79
136229	1481682	Call me to give me a heads up.	Call me to give me a heads up.	70457698	1473776622190	1473776622287	BKSP	8
136229	1481682	Call me to give me a heads up.	Call me to give me a heads up.	70457701	1473776623033	1473776623115	i	73
136229	1481682	Call me to give me a heads up.	Call me to give me a heads up.	70457705	1473776623117	1473776623230	v	86
136229	1481682	Call me to give me a heads up.	Call me to give me a heads up.	70457813	1473776623208	1473776623311	e	69
136229	1481682	Call me to give me a heads up.	Call me to give me a heads up.	70457814	1473776623349	1473776623436	 	32
136229	1481682	Call me to give me a heads up.	Call me to give me a heads up.	70457815	1473776624208	1473776624305	m	77
136229	1481682	Call me to give me a heads up.	Call me to give me a heads up.	70457816	1473776624293	1473776624376	e	69
136229	1481682	Call me to give me a heads up.	Call me to give me a heads up.	70457818	1473776624439	1473776624544	 	32
136229	1481682	Call me to give me a heads up.	Call me to give me a heads up.	70457821	1473776624896	1473776624984	a	65
136229	1481682	Call me to give me a heads up.	Call me to give me a heads up.	70457929	1473776625087	1473776625194	 	32
136229	1481682	Call me to give me a heads up.	Call me to give me a heads up.	70457933	1473776625585	1473776625678	h	72
136229	1481682	Call me to give me a heads up.	Call me to give me a heads up.	70457937	1473776625696	1473776625773	e	69
136229	1481682	Call me to give me a heads up.	Call me to give me a heads up.	70457943	1473776625940	1473776626048	a	65
136229	1481682	Call me to give me a heads up.	Call me to give me a heads up.	70457947	1473776626381	1473776626464	a	65
136229	1481682	Call me to give me a heads up.	Call me to give me a heads up.	70458087	1473776626715	1473776626811	BKSP	8
136229	1481682	Call me to give me a heads up.	Call me to give me a heads up.	70458090	1473776626812	1473776626946	d	68
136229	1481682	Call me to give me a heads up.	Call me to give me a heads up.	70458094	1473776626974	1473776627076	s	83
136229	1481682	Call me to give me a heads up.	Call me to give me a heads up.	70458099	1473776627170	1473776627277	 	32
136229	1481682	Call me to give me a heads up.	Call me to give me a heads up.	70458103	1473776627828	1473776627895	u	85
136229	1481682	Call me to give me a heads up.	Call me to give me a heads up.	70458107	1473776628088	1473776628135	p	80
136229	1481682	Call me to give me a heads up.	Call me to give me a heads up.	70458155	1473776628444	1473776628559	.	190
136229	1481709	England star Paul Gascoigne was one of the recipients of the loans.	England star Paul Gascoigne was one of the recipients of the loans.	70458394	1473776630699	1473776631008	SHIFT	16
136229	1481709	England star Paul Gascoigne was one of the recipients of the loans.	England star Paul Gascoigne was one of the recipients of the loans.	70458401	1473776630925	1473776631058	E	69
136229	1481709	England star Paul Gascoigne was one of the recipients of the loans.	England star Paul Gascoigne was one of the recipients of the loans.	70458405	1473776631296	1473776631378	n	78
136229	1481709	England star Paul Gascoigne was one of the recipients of the loans.	England star Paul Gascoigne was one of the recipients of the loans.	70458407	1473776631507	1473776631607	g	71
136229	1481709	England star Paul Gascoigne was one of the recipients of the loans.	England star Paul Gascoigne was one of the recipients of the loans.	70458411	1473776631630	1473776631733	l	76
136229	1481709	England star Paul Gascoigne was one of the recipients of the loans.	England star Paul Gascoigne was one of the recipients of the loans.	70458415	1473776631755	1473776631852	a	65
136229	1481709	England star Paul Gascoigne was one of the recipients of the loans.	England star Paul Gascoigne was one of the recipients of the loans.	70458497	1473776631911	1473776631998	n	78
136229	1481709	England star Paul Gascoigne was one of the recipients of the loans.	England star Paul Gascoigne was one of the recipients of the loans.	70458498	1473776632081	1473776632178	d	68
136229	1481709	England star Paul Gascoigne was one of the recipients of the loans.	England star Paul Gascoigne was one of the recipients of the loans.	70458501	1473776632272	1473776632324	 	32
136229	1481709	England star Paul Gascoigne was one of the recipients of the loans.	England star Paul Gascoigne was one of the recipients of the loans.	70458505	1473776632655	1473776632747	s	83
136229	1481709	England star Paul Gascoigne was one of the recipients of the loans.	England star Paul Gascoigne was one of the recipients of the loans.	70458510	1473776632915	1473776633047	t	84
136229	1481709	England star Paul Gascoigne was one of the recipients of the loans.	England star Paul Gascoigne was one of the recipients of the loans.	70458604	1473776633059	1473776633248	a	65
136229	1481709	England star Paul Gascoigne was one of the recipients of the loans.	England star Paul Gascoigne was one of the recipients of the loans.	70458612	1473776633266	1473776633348	r	82
136229	1481709	England star Paul Gascoigne was one of the recipients of the loans.	England star Paul Gascoigne was one of the recipients of the loans.	70458619	1473776634116	1473776634182	 	32
136229	1481709	England star Paul Gascoigne was one of the recipients of the loans.	England star Paul Gascoigne was one of the recipients of the loans.	70458627	1473776634210	1473776634428	SHIFT	16
136229	1481709	England star Paul Gascoigne was one of the recipients of the loans.	England star Paul Gascoigne was one of the recipients of the loans.	70458635	1473776634366	1473776634458	P	80
136229	1481709	England star Paul Gascoigne was one of the recipients of the loans.	England star Paul Gascoigne was one of the recipients of the loans.	70458642	1473776634471	1473776634582	a	65
136229	1481709	England star Paul Gascoigne was one of the recipients of the loans.	England star Paul Gascoigne was one of the recipients of the loans.	70458803	1473776634724	1473776634805	u	85
136229	1481709	England star Paul Gascoigne was one of the recipients of the loans.	England star Paul Gascoigne was one of the recipients of the loans.	70458806	1473776634965	1473776635062	l	76
136229	1481709	England star Paul Gascoigne was one of the recipients of the loans.	England star Paul Gascoigne was one of the recipients of the loans.	70458809	1473776635311	1473776635413	 	32
136229	1481709	England star Paul Gascoigne was one of the recipients of the loans.	England star Paul Gascoigne was one of the recipients of the loans.	70458821	1473776635734	1473776636761	SHIFT	16
136229	1481709	England star Paul Gascoigne was one of the recipients of the loans.	England star Paul Gascoigne was one of the recipients of the loans.	70458816	1473776636619	1473776636726	G	71
136229	1481709	England star Paul Gascoigne was one of the recipients of the loans.	England star Paul Gascoigne was one of the recipients of the loans.	70458827	1473776636919	1473776637002	a	65
136229	1481709	England star Paul Gascoigne was one of the recipients of the loans.	England star Paul Gascoigne was one of the recipients of the loans.	70459097	1473776637668	1473776637741	c	67
136229	1481709	England star Paul Gascoigne was one of the recipients of the loans.	England star Paul Gascoigne was one of the recipients of the loans.	70459101	1473776638084	1473776638186	BKSP	8
136229	1481709	England star Paul Gascoigne was one of the recipients of the loans.	England star Paul Gascoigne was one of the recipients of the loans.	70459104	1473776638204	1473776638302	s	83
136229	1481709	England star Paul Gascoigne was one of the recipients of the loans.	England star Paul Gascoigne was one of the recipients of the loans.	70459108	1473776638862	1473776638960	c	67
136229	1481709	England star Paul Gascoigne was one of the recipients of the loans.	England star Paul Gascoigne was one of the recipients of the loans.	70459111	1473776639048	1473776639126	o	79
136229	1481709	England star Paul Gascoigne was one of the recipients of the loans.	England star Paul Gascoigne was one of the recipients of the loans.	70459114	1473776640504	1473776640580	i	73
136229	1481709	England star Paul Gascoigne was one of the recipients of the loans.	England star Paul Gascoigne was one of the recipients of the loans.	70459226	1473776640806	1473776640884	g	71
136229	1481709	England star Paul Gascoigne was one of the recipients of the loans.	England star Paul Gascoigne was one of the recipients of the loans.	70459234	1473776641275	1473776641357	n	78
136229	1481709	England star Paul Gascoigne was one of the recipients of the loans.	England star Paul Gascoigne was one of the recipients of the loans.	70459239	1473776641341	1473776641427	e	69
136229	1481709	England star Paul Gascoigne was one of the recipients of the loans.	England star Paul Gascoigne was one of the recipients of the loans.	70459248	1473776641616	1473776641706	 	32
136229	1481709	England star Paul Gascoigne was one of the recipients of the loans.	England star Paul Gascoigne was one of the recipients of the loans.	70459255	1473776641859	1473776641975	w	87
136229	1481709	England star Paul Gascoigne was one of the recipients of the loans.	England star Paul Gascoigne was one of the recipients of the loans.	70459410	1473776642043	1473776642090	s	65
136229	1481709	England star Paul Gascoigne was one of the recipients of the loans.	England star Paul Gascoigne was one of the recipients of the loans.	70459415	1473776642163	1473776642221	a	65
136229	1481709	England star Paul Gascoigne was one of the recipients of the loans.	England star Paul Gascoigne was one of the recipients of the loans.	70459421	1473776642847	1473776642935	BKSP	8
136229	1481709	England star Paul Gascoigne was one of the recipients of the loans.	England star Paul Gascoigne was one of the recipients of the loans.	70459427	1473776643277	1473776643359	 	32
136229	1481709	England star Paul Gascoigne was one of the recipients of the loans.	England star Paul Gascoigne was one of the recipients of the loans.	70459431	1473776643946	1473776644063	o	79
136229	1481709	England star Paul Gascoigne was one of the recipients of the loans.	England star Paul Gascoigne was one of the recipients of the loans.	70459520	1473776644016	1473776644098	n	78
136229	1481709	England star Paul Gascoigne was one of the recipients of the loans.	England star Paul Gascoigne was one of the recipients of the loans.	70459523	1473776644146	1473776644238	e	69
136229	1481709	England star Paul Gascoigne was one of the recipients of the loans.	England star Paul Gascoigne was one of the recipients of the loans.	70459527	1473776644357	1473776644434	 	32
136229	1481709	England star Paul Gascoigne was one of the recipients of the loans.	England star Paul Gascoigne was one of the recipients of the loans.	70459535	1473776644648	1473776644747	o	79
136229	1481709	England star Paul Gascoigne was one of the recipients of the loans.	England star Paul Gascoigne was one of the recipients of the loans.	70459543	1473776645086	1473776645162	f	70
136229	1481709	England star Paul Gascoigne was one of the recipients of the loans.	England star Paul Gascoigne was one of the recipients of the loans.	70459550	1473776645185	1473776645268	 	32
136229	1481709	England star Paul Gascoigne was one of the recipients of the loans.	England star Paul Gascoigne was one of the recipients of the loans.	70459641	1473776645416	1473776645538	t	84
136229	1481709	England star Paul Gascoigne was one of the recipients of the loans.	England star Paul Gascoigne was one of the recipients of the loans.	70459645	1473776645506	1473776645613	h	72
136229	1481709	England star Paul Gascoigne was one of the recipients of the loans.	England star Paul Gascoigne was one of the recipients of the loans.	70459653	1473776645779	1473776645887	e	69
136229	1481709	England star Paul Gascoigne was one of the recipients of the loans.	England star Paul Gascoigne was one of the recipients of the loans.	70459658	1473776645943	1473776646041	 	32
136229	1481709	England star Paul Gascoigne was one of the recipients of the loans.	England star Paul Gascoigne was one of the recipients of the loans.	70459662	1473776646566	1473776646697	r	82
136229	1481709	England star Paul Gascoigne was one of the recipients of the loans.	England star Paul Gascoigne was one of the recipients of the loans.	70459786	1473776646656	1473776646776	e	69
136229	1481709	England star Paul Gascoigne was one of the recipients of the loans.	England star Paul Gascoigne was one of the recipients of the loans.	70459793	1473776647109	1473776647201	c	67
136229	1481709	England star Paul Gascoigne was one of the recipients of the loans.	England star Paul Gascoigne was one of the recipients of the loans.	70459802	1473776647474	1473776647551	i	73
136229	1481709	England star Paul Gascoigne was one of the recipients of the loans.	England star Paul Gascoigne was one of the recipients of the loans.	70459809	1473776647925	1473776647980	p	80
136229	1481709	England star Paul Gascoigne was one of the recipients of the loans.	England star Paul Gascoigne was one of the recipients of the loans.	70459818	1473776648252	1473776648349	i	73
136229	1481709	England star Paul Gascoigne was one of the recipients of the loans.	England star Paul Gascoigne was one of the recipients of the loans.	70459822	1473776648447	1473776648545	e	69
136229	1481709	England star Paul Gascoigne was one of the recipients of the loans.	England star Paul Gascoigne was one of the recipients of the loans.	70459923	1473776648673	1473776648753	n	78
136229	1481709	England star Paul Gascoigne was one of the recipients of the loans.	England star Paul Gascoigne was one of the recipients of the loans.	70459927	1473776649426	1473776649538	t	84
136229	1481709	England star Paul Gascoigne was one of the recipients of the loans.	England star Paul Gascoigne was one of the recipients of the loans.	70459932	1473776649651	1473776649751	s	83
136229	1481709	England star Paul Gascoigne was one of the recipients of the loans.	England star Paul Gascoigne was one of the recipients of the loans.	70459938	1473776649860	1473776649959	 	32
136229	1481709	England star Paul Gascoigne was one of the recipients of the loans.	England star Paul Gascoigne was one of the recipients of the loans.	70459941	1473776650063	1473776650141	o	79
136229	1481709	England star Paul Gascoigne was one of the recipients of the loans.	England star Paul Gascoigne was one of the recipients of the loans.	70460027	1473776650239	1473776650331	f	70
136229	1481709	England star Paul Gascoigne was one of the recipients of the loans.	England star Paul Gascoigne was one of the recipients of the loans.	70460032	1473776650381	1473776650453	 	32
136229	1481709	England star Paul Gascoigne was one of the recipients of the loans.	England star Paul Gascoigne was one of the recipients of the loans.	70460044	1473776650621	1473776650743	t	84
136229	1481709	England star Paul Gascoigne was one of the recipients of the loans.	England star Paul Gascoigne was one of the recipients of the loans.	70460050	1473776650725	1473776650817	h	72
136229	1481709	England star Paul Gascoigne was one of the recipients of the loans.	England star Paul Gascoigne was one of the recipients of the loans.	70460058	1473776650936	1473776651026	e	69
136229	1481709	England star Paul Gascoigne was one of the recipients of the loans.	England star Paul Gascoigne was one of the recipients of the loans.	70460146	1473776651066	1473776651178	 	32
136229	1481709	England star Paul Gascoigne was one of the recipients of the loans.	England star Paul Gascoigne was one of the recipients of the loans.	70460150	1473776651371	1473776651454	l	76
136229	1481709	England star Paul Gascoigne was one of the recipients of the loans.	England star Paul Gascoigne was one of the recipients of the loans.	70460157	1473776651537	1473776651639	o	79
136229	1481709	England star Paul Gascoigne was one of the recipients of the loans.	England star Paul Gascoigne was one of the recipients of the loans.	70460160	1473776651641	1473776651732	a	65
136229	1481709	England star Paul Gascoigne was one of the recipients of the loans.	England star Paul Gascoigne was one of the recipients of the loans.	70460166	1473776652250	1473776652317	n	78
136229	1481709	England star Paul Gascoigne was one of the recipients of the loans.	England star Paul Gascoigne was one of the recipients of the loans.	70460400	1473776652435	1473776652512	d	68
136229	1481709	England star Paul Gascoigne was one of the recipients of the loans.	England star Paul Gascoigne was one of the recipients of the loans.	70460409	1473776652671	1473776652761	s	83
136229	1481709	England star Paul Gascoigne was one of the recipients of the loans.	England star Paul Gascoigne was one of the recipients of the loans.	70460416	1473776653048	1473776653155	BKSP	8
136229	1481709	England star Paul Gascoigne was one of the recipients of the loans.	England star Paul Gascoigne was one of the recipients of the loans.	70460424	1473776653218	1473776653281	BKSP	8
136229	1481709	England star Paul Gascoigne was one of the recipients of the loans.	England star Paul Gascoigne was one of the recipients of the loans.	70460430	1473776653439	1473776653536	s	83
136229	1481709	England star Paul Gascoigne was one of the recipients of the loans.	England star Paul Gascoigne was one of the recipients of the loans.	70460437	1473776654891	1473776654987	.	190
136229	1481755	Can you call me at home?	Can you call me at home?	70460734	1473776657276	1473776657680	SHIFT	16
136229	1481755	Can you call me at home?	Can you call me at home?	70460738	1473776657577	1473776657710	C	67
136229	1481755	Can you call me at home?	Can you call me at home?	70460746	1473776657712	1473776657818	a	65
136229	1481755	Can you call me at home?	Can you call me at home?	70460752	1473776658305	1473776658382	n	78
136229	1481755	Can you call me at home?	Can you call me at home?	70460758	1473776658626	1473776658708	 	32
136229	1481755	Can you call me at home?	Can you call me at home?	70460763	1473776659091	1473776659172	y	89
136229	1481755	Can you call me at home?	Can you call me at home?	70460826	1473776659184	1473776659223	o	79
136229	1481755	Can you call me at home?	Can you call me at home?	70460828	1473776659366	1473776659438	u	85
136229	1481755	Can you call me at home?	Can you call me at home?	70460832	1473776659527	1473776659594	 	32
136229	1481755	Can you call me at home?	Can you call me at home?	70460836	1473776660195	1473776660337	c	67
136229	1481755	Can you call me at home?	Can you call me at home?	70460841	1473776660339	1473776660437	a	65
136229	1481755	Can you call me at home?	Can you call me at home?	70460872	1473776660495	1473776660568	l	76
136229	1481755	Can you call me at home?	Can you call me at home?	70460878	1473776660641	1473776660703	l	76
136229	1481755	Can you call me at home?	Can you call me at home?	70460883	1473776660762	1473776660833	 	32
136229	1481755	Can you call me at home?	Can you call me at home?	70460888	1473776660899	1473776661011	m	77
136229	1481755	Can you call me at home?	Can you call me at home?	70460893	1473776661030	1473776661107	e	69
136229	1481755	Can you call me at home?	Can you call me at home?	70460930	1473776661189	1473776661267	 	32
136229	1481755	Can you call me at home?	Can you call me at home?	70460931	1473776661560	1473776661662	a	65
136229	1481755	Can you call me at home?	Can you call me at home?	70460936	1473776661705	1473776661787	t	84
136229	1481755	Can you call me at home?	Can you call me at home?	70460941	1473776661789	1473776661880	 	32
136229	1481755	Can you call me at home?	Can you call me at home?	70460945	1473776661983	1473776662063	h	72
136229	1481755	Can you call me at home?	Can you call me at home?	70461008	1473776662092	1473776662204	o	79
136229	1481755	Can you call me at home?	Can you call me at home?	70461016	1473776662177	1473776662265	m	77
136229	1481755	Can you call me at home?	Can you call me at home?	70461024	1473776662253	1473776662320	e	69
136229	1481755	Can you call me at home?	Can you call me at home?	70461032	1473776662649	1473776662869	SHIFT	16
136229	1481755	Can you call me at home?	Can you call me at home?	70461038	1473776662819	1473776662919	?	191
136229	1481771	I think these will be just fine.	I think these will be just fine.	70461304	1473776664924	1473776665099	SHIFT	16
136229	1481771	I think these will be just fine.	I think these will be just fine.	70461300	1473776665019	1473776665094	I	73
136229	1481771	I think these will be just fine.	I think these will be just fine.	70461310	1473776665188	1473776665271	 	32
136229	1481771	I think these will be just fine.	I think these will be just fine.	70461312	1473776665324	1473776665481	t	84
136229	1481771	I think these will be just fine.	I think these will be just fine.	70461318	1473776665444	1473776665537	h	72
136229	1481771	I think these will be just fine.	I think these will be just fine.	70461320	1473776666422	1473776666505	i	73
136229	1481771	I think these will be just fine.	I think these will be just fine.	70461397	1473776666603	1473776666710	n	78
136229	1481771	I think these will be just fine.	I think these will be just fine.	70461405	1473776666698	1473776666795	k	75
136229	1481771	I think these will be just fine.	I think these will be just fine.	70461419	1473776666865	1473776666933	 	32
136229	1481771	I think these will be just fine.	I think these will be just fine.	70461427	1473776667281	1473776667428	t	84
136229	1481771	I think these will be just fine.	I think these will be just fine.	70461517	1473776667376	1473776667493	h	72
136229	1481771	I think these will be just fine.	I think these will be just fine.	70461520	1473776667632	1473776667714	e	69
136229	1481771	I think these will be just fine.	I think these will be just fine.	70461523	1473776667915	1473776668002	s	83
136229	1481771	I think these will be just fine.	I think these will be just fine.	70461528	1473776668129	1473776668196	e	69
136229	1481771	I think these will be just fine.	I think these will be just fine.	70461532	1473776668264	1473776668336	 	32
136229	1481771	I think these will be just fine.	I think these will be just fine.	70461538	1473776668510	1473776668577	w	87
136229	1481771	I think these will be just fine.	I think these will be just fine.	70461592	1473776668600	1473776668677	i	73
136229	1481771	I think these will be just fine.	I think these will be just fine.	70461596	1473776668815	1473776668885	l	76
136229	1481771	I think these will be just fine.	I think these will be just fine.	70461600	1473776668953	1473776669016	l	76
136229	1481771	I think these will be just fine.	I think these will be just fine.	70461604	1473776669029	1473776669096	 	32
136229	1481771	I think these will be just fine.	I think these will be just fine.	70461608	1473776669308	1473776669450	b	66
136229	1481771	I think these will be just fine.	I think these will be just fine.	70461728	1473776669408	1473776669526	e	69
136229	1481771	I think these will be just fine.	I think these will be just fine.	70461732	1473776669864	1473776669949	 	32
136229	1481771	I think these will be just fine.	I think these will be just fine.	70461735	1473776670206	1473776670283	j	74
136229	1481771	I think these will be just fine.	I think these will be just fine.	70461739	1473776670457	1473776670519	u	85
136229	1481771	I think these will be just fine.	I think these will be just fine.	70461745	1473776670742	1473776670830	s	83
136229	1481771	I think these will be just fine.	I think these will be just fine.	70461749	1473776671075	1473776671177	 	32
136229	1481771	I think these will be just fine.	I think these will be just fine.	70461912	1473776671415	1473776671503	BKSP	8
136229	1481771	I think these will be just fine.	I think these will be just fine.	70461915	1473776671575	1473776671633	BKSP	8
136229	1481771	I think these will be just fine.	I think these will be just fine.	70461918	1473776671686	1473776671748	t	84
136229	1481771	I think these will be just fine.	I think these will be just fine.	70461921	1473776672495	1473776672567	BKSP	8
136229	1481771	I think these will be just fine.	I think these will be just fine.	70461924	1473776672595	1473776672749	s	83
136229	1481771	I think these will be just fine.	I think these will be just fine.	70461927	1473776672750	1473776672853	t	84
136229	1481771	I think these will be just fine.	I think these will be just fine.	70461928	1473776673409	1473776673491	 	32
136229	1481771	I think these will be just fine.	I think these will be just fine.	70461930	1473776673725	1473776673797	f	70
136229	1481771	I think these will be just fine.	I think these will be just fine.	70461989	1473776673809	1473776673913	i	73
136229	1481771	I think these will be just fine.	I think these will be just fine.	70461993	1473776673875	1473776673955	n	78
136229	1481771	I think these will be just fine.	I think these will be just fine.	70461997	1473776673957	1473776674045	e	69
136229	1481771	I think these will be just fine.	I think these will be just fine.	70462001	1473776674704	1473776674761	.	190
136229	1481789	Perhaps there was a glitch.	Perhaps there was a glitch	70462296	1473776677270	1473776677503	SHIFT	16
136229	1481789	Perhaps there was a glitch.	Perhaps there was a glitch	70462292	1473776677391	1473776677468	P	80
136229	1481789	Perhaps there was a glitch.	Perhaps there was a glitch	70462301	1473776677671	1473776677834	e	69
136229	1481789	Perhaps there was a glitch.	Perhaps there was a glitch	70462308	1473776677787	1473776677884	r	82
136229	1481789	Perhaps there was a glitch.	Perhaps there was a glitch	70462311	1473776679305	1473776679431	h	72
136229	1481789	Perhaps there was a glitch.	Perhaps there was a glitch	70462397	1473776679399	1473776679526	a	65
136229	1481789	Perhaps there was a glitch.	Perhaps there was a glitch	70462399	1473776679539	1473776679611	p	80
136229	1481789	Perhaps there was a glitch.	Perhaps there was a glitch	70462403	1473776679690	1473776679772	s	83
136229	1481789	Perhaps there was a glitch.	Perhaps there was a glitch	70462408	1473776680610	1473776680707	 	32
136229	1481789	Perhaps there was a glitch.	Perhaps there was a glitch	70462413	1473776680709	1473776680848	t	84
136229	1481789	Perhaps there was a glitch.	Perhaps there was a glitch	70462481	1473776680790	1473776680902	h	72
136229	1481789	Perhaps there was a glitch.	Perhaps there was a glitch	70462487	1473776681058	1473776681211	e	69
136229	1481789	Perhaps there was a glitch.	Perhaps there was a glitch	70462494	1473776681174	1473776681336	r	82
136229	1481789	Perhaps there was a glitch.	Perhaps there was a glitch	70462499	1473776681284	1473776681391	e	69
136229	1481789	Perhaps there was a glitch.	Perhaps there was a glitch	70462504	1473776681424	1473776681496	 	32
136229	1481789	Perhaps there was a glitch.	Perhaps there was a glitch	70462508	1473776681619	1473776681742	w	87
136229	1481789	Perhaps there was a glitch.	Perhaps there was a glitch	70462599	1473776681725	1473776681893	a	65
136229	1481789	Perhaps there was a glitch.	Perhaps there was a glitch	70462606	1473776681840	1473776681973	s	83
136229	1481789	Perhaps there was a glitch.	Perhaps there was a glitch	70462615	1473776681974	1473776682060	 	32
136229	1481789	Perhaps there was a glitch.	Perhaps there was a glitch	70462623	1473776682103	1473776682221	a	65
136229	1481789	Perhaps there was a glitch.	Perhaps there was a glitch	70462631	1473776682209	1473776682291	 	32
136229	1481789	Perhaps there was a glitch.	Perhaps there was a glitch	70462641	1473776682774	1473776682851	g	71
136229	1481789	Perhaps there was a glitch.	Perhaps there was a glitch	70462788	1473776682894	1473776682981	l	76
136229	1481789	Perhaps there was a glitch.	Perhaps there was a glitch	70462789	1473776683132	1473776683214	i	73
136229	1481789	Perhaps there was a glitch.	Perhaps there was a glitch	70462790	1473776684190	1473776684304	t	84
136229	1481789	Perhaps there was a glitch.	Perhaps there was a glitch	70462791	1473776684323	1473776684434	h	72
136229	1481789	Perhaps there was a glitch.	Perhaps there was a glitch	70462792	1473776684939	1473776685045	BKSP	8
136229	1481789	Perhaps there was a glitch.	Perhaps there was a glitch	70462794	1473776685196	1473776685298	c	67
136229	1481789	Perhaps there was a glitch.	Perhaps there was a glitch	70462802	1473776685311	1473776685408	h	72
136229	1481808	I'm pleased with my speeds.	I'm pleased with my speeds.	70463108	1473776687575	1473776687813	SHIFT	16
136229	1481808	I'm pleased with my speeds.	I'm pleased with my speeds.	70463099	1473776687705	1473776687798	I	73
136229	1481808	I'm pleased with my speeds.	I'm pleased with my speeds.	70463119	1473776688944	1473776689031	'	222
136229	1481808	I'm pleased with my speeds.	I'm pleased with my speeds.	70463127	1473776689396	1473776689478	m	77
136229	1481808	I'm pleased with my speeds.	I'm pleased with my speeds.	70463134	1473776689817	1473776689899	 	32
136229	1481808	I'm pleased with my speeds.	I'm pleased with my speeds.	70463141	1473776690306	1473776690446	p	80
136229	1481808	I'm pleased with my speeds.	I'm pleased with my speeds.	70463214	1473776690355	1473776690503	l	76
136229	1481808	I'm pleased with my speeds.	I'm pleased with my speeds.	70463218	1473776690576	1473776690678	e	69
136229	1481808	I'm pleased with my speeds.	I'm pleased with my speeds.	70463223	1473776690680	1473776690869	a	65
136229	1481808	I'm pleased with my speeds.	I'm pleased with my speeds.	70463228	1473776690871	1473776690965	s	83
136229	1481808	I'm pleased with my speeds.	I'm pleased with my speeds.	70463232	1473776691083	1473776691152	e	69
136229	1481808	I'm pleased with my speeds.	I'm pleased with my speeds.	70463236	1473776691715	1473776691797	d	68
136229	1481808	I'm pleased with my speeds.	I'm pleased with my speeds.	70463280	1473776691860	1473776691942	 	32
136229	1481808	I'm pleased with my speeds.	I'm pleased with my speeds.	70463284	1473776692204	1473776692301	w	87
136229	1481808	I'm pleased with my speeds.	I'm pleased with my speeds.	70463290	1473776692314	1473776692391	i	73
136229	1481808	I'm pleased with my speeds.	I'm pleased with my speeds.	70463296	1473776692528	1473776692655	t	84
136229	1481808	I'm pleased with my speeds.	I'm pleased with my speeds.	70463355	1473776692603	1473776692716	h	72
136229	1481808	I'm pleased with my speeds.	I'm pleased with my speeds.	70463361	1473776692754	1473776692841	 	32
136229	1481808	I'm pleased with my speeds.	I'm pleased with my speeds.	70463367	1473776692959	1473776693036	m	77
136229	1481808	I'm pleased with my speeds.	I'm pleased with my speeds.	70463373	1473776693080	1473776693149	y	89
136229	1481808	I'm pleased with my speeds.	I'm pleased with my speeds.	70463377	1473776693182	1473776693254	 	32
136229	1481808	I'm pleased with my speeds.	I'm pleased with my speeds.	70463381	1473776693431	1473776693514	s	83
136229	1481808	I'm pleased with my speeds.	I'm pleased with my speeds.	70463442	1473776693596	1473776693669	p	80
136229	1481808	I'm pleased with my speeds.	I'm pleased with my speeds.	70463446	1473776693772	1473776693849	e	69
136229	1481808	I'm pleased with my speeds.	I'm pleased with my speeds.	70463447	1473776693912	1473776693990	e	69
136229	1481808	I'm pleased with my speeds.	I'm pleased with my speeds.	70463449	1473776694620	1473776694778	d	68
136229	1481808	I'm pleased with my speeds.	I'm pleased with my speeds.	70463483	1473776694746	1473776694838	s	83
136229	1481808	I'm pleased with my speeds.	I'm pleased with my speeds.	70463485	1473776695478	1473776695571	.	190
136229	1481822	If he'll sign no issues with Barclays.	If he'll sigh no issues with Barclays.	70463702	1473776697601	1473776697738	SHIFT	16
136229	1481822	If he'll sign no issues with Barclays.	If he'll sigh no issues with Barclays.	70463707	1473776697681	1473776697758	I	73
136229	1481822	If he'll sign no issues with Barclays.	If he'll sigh no issues with Barclays.	70463714	1473776697856	1473776697938	f	70
136229	1481822	If he'll sign no issues with Barclays.	If he'll sigh no issues with Barclays.	70463724	1473776697921	1473776698024	 	32
136229	1481822	If he'll sign no issues with Barclays.	If he'll sigh no issues with Barclays.	70463735	1473776698408	1473776698526	h	72
136229	1481822	If he'll sign no issues with Barclays.	If he'll sigh no issues with Barclays.	70463743	1473776698549	1473776698627	e	69
136229	1481822	If he'll sign no issues with Barclays.	If he'll sigh no issues with Barclays.	70463846	1473776699386	1473776699460	'	222
136229	1481822	If he'll sign no issues with Barclays.	If he'll sigh no issues with Barclays.	70463852	1473776700045	1473776700102	l	76
136229	1481822	If he'll sign no issues with Barclays.	If he'll sigh no issues with Barclays.	70463860	1473776700174	1473776700224	l	76
136229	1481822	If he'll sign no issues with Barclays.	If he'll sigh no issues with Barclays.	70463868	1473776700238	1473776700305	 	32
136229	1481822	If he'll sign no issues with Barclays.	If he'll sigh no issues with Barclays.	70463875	1473776700921	1473776701009	s	83
136229	1481822	If he'll sign no issues with Barclays.	If he'll sigh no issues with Barclays.	70463936	1473776701032	1473776701109	i	73
136229	1481822	If he'll sign no issues with Barclays.	If he'll sigh no issues with Barclays.	70463941	1473776701220	1473776701368	g	71
136229	1481822	If he'll sign no issues with Barclays.	If he'll sigh no issues with Barclays.	70463948	1473776701315	1473776701427	h	72
136229	1481822	If he'll sign no issues with Barclays.	If he'll sigh no issues with Barclays.	70463959	1473776701462	1473776701549	 	32
136229	1481822	If he'll sign no issues with Barclays.	If he'll sigh no issues with Barclays.	70463965	1473776701932	1473776702085	n	78
136229	1481822	If he'll sign no issues with Barclays.	If he'll sigh no issues with Barclays.	70464043	1473776702053	1473776702155	o	79
136229	1481822	If he'll sign no issues with Barclays.	If he'll sigh no issues with Barclays.	70464049	1473776702226	1473776702293	 	32
136229	1481822	If he'll sign no issues with Barclays.	If he'll sigh no issues with Barclays.	70464054	1473776702562	1473776702619	i	73
136229	1481822	If he'll sign no issues with Barclays.	If he'll sigh no issues with Barclays.	70464060	1473776702762	1473776702834	s	83
136229	1481822	If he'll sign no issues with Barclays.	If he'll sigh no issues with Barclays.	70464064	1473776702912	1473776702980	s	83
136229	1481822	If he'll sign no issues with Barclays.	If he'll sigh no issues with Barclays.	70464070	1473776703241	1473776703328	u	85
136229	1481822	If he'll sign no issues with Barclays.	If he'll sigh no issues with Barclays.	70464136	1473776703713	1473776703790	e	69
136229	1481822	If he'll sign no issues with Barclays.	If he'll sigh no issues with Barclays.	70464141	1473776703879	1473776703966	s	83
136229	1481822	If he'll sign no issues with Barclays.	If he'll sigh no issues with Barclays.	70464148	1473776704184	1473776704274	 	32
136229	1481822	If he'll sign no issues with Barclays.	If he'll sigh no issues with Barclays.	70464155	1473776704645	1473776704722	w	87
136229	1481822	If he'll sign no issues with Barclays.	If he'll sigh no issues with Barclays.	70464158	1473776704746	1473776704803	i	73
136229	1481822	If he'll sign no issues with Barclays.	If he'll sigh no issues with Barclays.	70464225	1473776704961	1473776705129	t	84
136229	1481822	If he'll sign no issues with Barclays.	If he'll sigh no issues with Barclays.	70464219	1473776705047	1473776705109	h	72
136229	1481822	If he'll sign no issues with Barclays.	If he'll sigh no issues with Barclays.	70464233	1473776705420	1473776705507	 	32
136229	1481822	If he'll sign no issues with Barclays.	If he'll sigh no issues with Barclays.	70464236	1473776705892	1473776706074	SHIFT	16
136229	1481822	If he'll sign no issues with Barclays.	If he'll sigh no issues with Barclays.	70464240	1473776706017	1473776706104	B	66
136229	1481822	If he'll sign no issues with Barclays.	If he'll sigh no issues with Barclays.	70464247	1473776706147	1473776706244	a	65
136229	1481822	If he'll sign no issues with Barclays.	If he'll sigh no issues with Barclays.	70464340	1473776706592	1473776706690	r	82
136229	1481822	If he'll sign no issues with Barclays.	If he'll sigh no issues with Barclays.	70464343	1473776706993	1473776707105	c	67
136229	1481822	If he'll sign no issues with Barclays.	If he'll sigh no issues with Barclays.	70464348	1473776707128	1473776707201	l	76
136229	1481822	If he'll sign no issues with Barclays.	If he'll sigh no issues with Barclays.	70464353	1473776707302	1473776707369	a	65
136229	1481822	If he'll sign no issues with Barclays.	If he'll sigh no issues with Barclays.	70464354	1473776707903	1473776707985	y	89
136229	1481822	If he'll sign no issues with Barclays.	If he'll sigh no issues with Barclays.	70464455	1473776708074	1473776708156	s	83
136229	1481843	It must be accompanied by increased productivity.	It must be accompanied by increased productivity.	70464688	1473776712560	1473776712741	SHIFT	16
136229	1481843	It must be accompanied by increased productivity.	It must be accompanied by increased productivity.	70464690	1473776712679	1473776712756	I	73
136229	1481843	It must be accompanied by increased productivity.	It must be accompanied by increased productivity.	70464694	1473776713050	1473776713142	t	84
136229	1481843	It must be accompanied by increased productivity.	It must be accompanied by increased productivity.	70464698	1473776713210	1473776713287	 	32
136229	1481843	It must be accompanied by increased productivity.	It must be accompanied by increased productivity.	70464701	1473776713413	1473776713510	m	77
136229	1481843	It must be accompanied by increased productivity.	It must be accompanied by increased productivity.	70464704	1473776713728	1473776713810	u	85
136229	1481843	It must be accompanied by increased productivity.	It must be accompanied by increased productivity.	70464728	1473776713838	1473776713925	s	83
136229	1481843	It must be accompanied by increased productivity.	It must be accompanied by increased productivity.	70464738	1473776714064	1473776714146	t	84
136229	1481843	It must be accompanied by increased productivity.	It must be accompanied by increased productivity.	70464747	1473776714209	1473776714281	 	32
136229	1481843	It must be accompanied by increased productivity.	It must be accompanied by increased productivity.	70464754	1473776714576	1473776714708	b	66
136229	1481843	It must be accompanied by increased productivity.	It must be accompanied by increased productivity.	70464825	1473776714671	1473776714779	e	69
136229	1481843	It must be accompanied by increased productivity.	It must be accompanied by increased productivity.	70464827	1473776714780	1473776714869	 	32
136229	1481843	It must be accompanied by increased productivity.	It must be accompanied by increased productivity.	70464831	1473776714977	1473776715084	a	65
136229	1481843	It must be accompanied by increased productivity.	It must be accompanied by increased productivity.	70464833	1473776715248	1473776715317	c	67
136229	1481843	It must be accompanied by increased productivity.	It must be accompanied by increased productivity.	70464835	1473776715604	1473776715687	c	67
136229	1481843	It must be accompanied by increased productivity.	It must be accompanied by increased productivity.	70464839	1473776715831	1473776715948	o	79
136229	1481843	It must be accompanied by increased productivity.	It must be accompanied by increased productivity.	70464915	1473776715906	1473776716003	m	77
136229	1481843	It must be accompanied by increased productivity.	It must be accompanied by increased productivity.	70464920	1473776716156	1473776716254	p	80
136229	1481843	It must be accompanied by increased productivity.	It must be accompanied by increased productivity.	70464925	1473776716287	1473776716361	a	65
136229	1481843	It must be accompanied by increased productivity.	It must be accompanied by increased productivity.	70464930	1473776716520	1473776716596	n	78
136229	1481843	It must be accompanied by increased productivity.	It must be accompanied by increased productivity.	70464935	1473776717120	1473776717212	i	73
136229	1481843	It must be accompanied by increased productivity.	It must be accompanied by increased productivity.	70464939	1473776717353	1473776717450	e	69
136229	1481843	It must be accompanied by increased productivity.	It must be accompanied by increased productivity.	70465006	1473776717564	1473776717684	d	68
136229	1481843	It must be accompanied by increased productivity.	It must be accompanied by increased productivity.	70465008	1473776717808	1473776717890	 	32
136229	1481843	It must be accompanied by increased productivity.	It must be accompanied by increased productivity.	70465010	1473776718169	1473776718270	b	66
136229	1481843	It must be accompanied by increased productivity.	It must be accompanied by increased productivity.	70465012	1473776718366	1473776718429	y	89
136229	1481843	It must be accompanied by increased productivity.	It must be accompanied by increased productivity.	70465015	1473776718527	1473776718608	 	32
136229	1481843	It must be accompanied by increased productivity.	It must be accompanied by increased productivity.	70465095	1473776719042	1473776719184	i	73
136229	1481843	It must be accompanied by increased productivity.	It must be accompanied by increased productivity.	70465101	1473776719172	1473776719279	n	78
136229	1481843	It must be accompanied by increased productivity.	It must be accompanied by increased productivity.	70465107	1473776719540	1473776719637	c	67
136229	1481843	It must be accompanied by increased productivity.	It must be accompanied by increased productivity.	70465111	1473776719870	1473776719977	r	82
136229	1481843	It must be accompanied by increased productivity.	It must be accompanied by increased productivity.	70465115	1473776719990	1473776720087	e	69
136229	1481843	It must be accompanied by increased productivity.	It must be accompanied by increased productivity.	70465163	1473776720241	1473776720333	a	65
136229	1481843	It must be accompanied by increased productivity.	It must be accompanied by increased productivity.	70465169	1473776720858	1473776720951	s	83
136229	1481843	It must be accompanied by increased productivity.	It must be accompanied by increased productivity.	70465176	1473776721194	1473776721276	e	69
136229	1481843	It must be accompanied by increased productivity.	It must be accompanied by increased productivity.	70465184	1473776721339	1473776721434	d	68
136229	1481843	It must be accompanied by increased productivity.	It must be accompanied by increased productivity.	70465192	1473776721522	1473776721619	 	32
136229	1481843	It must be accompanied by increased productivity.	It must be accompanied by increased productivity.	70465347	1473776722117	1473776722205	p	80
136229	1481843	It must be accompanied by increased productivity.	It must be accompanied by increased productivity.	70465354	1473776722242	1473776722345	r	82
136229	1481843	It must be accompanied by increased productivity.	It must be accompanied by increased productivity.	70465364	1473776722481	1473776722558	i	73
136229	1481843	It must be accompanied by increased productivity.	It must be accompanied by increased productivity.	70465373	1473776723141	1473776723219	BKSP	8
136229	1481843	It must be accompanied by increased productivity.	It must be accompanied by increased productivity.	70465381	1473776723440	1473776723492	o	79
136229	1481843	It must be accompanied by increased productivity.	It must be accompanied by increased productivity.	70465388	1473776723989	1473776724077	d	68
136229	1481843	It must be accompanied by increased productivity.	It must be accompanied by increased productivity.	70465479	1473776724245	1473776724332	u	85
136229	1481843	It must be accompanied by increased productivity.	It must be accompanied by increased productivity.	70465484	1473776724414	1473776724500	c	67
136229	1481843	It must be accompanied by increased productivity.	It must be accompanied by increased productivity.	70465490	1473776725043	1473776725106	t	84
136229	1481843	It must be accompanied by increased productivity.	It must be accompanied by increased productivity.	70465495	1473776725124	1473776725186	t	84
136229	1481843	It must be accompanied by increased productivity.	It must be accompanied by increased productivity.	70465498	1473776725592	1473776725669	=	187
136229	1481843	It must be accompanied by increased productivity.	It must be accompanied by increased productivity.	70465636	1473776725827	1473776725869	i	73
136229	1481843	It must be accompanied by increased productivity.	It must be accompanied by increased productivity.	70465644	1473776726103	1473776726165	BKSP	8
136229	1481843	It must be accompanied by increased productivity.	It must be accompanied by increased productivity.	70465647	1473776726263	1473776726325	BKSP	8
136229	1481843	It must be accompanied by increased productivity.	It must be accompanied by increased productivity.	70465652	1473776726441	1473776726513	BKSP	8
136229	1481843	It must be accompanied by increased productivity.	It must be accompanied by increased productivity.	70465658	1473776726633	1473776726682	BKSP	8
136229	1481843	It must be accompanied by increased productivity.	It must be accompanied by increased productivity.	70465664	1473776727555	1473776727612	t	84
136229	1481843	It must be accompanied by increased productivity.	It must be accompanied by increased productivity.	70465669	1473776727711	1473776727764	i	73
136229	1481843	It must be accompanied by increased productivity.	It must be accompanied by increased productivity.	70465676	1473776727897	1473776727959	v	86
136229	1481843	It must be accompanied by increased productivity.	It must be accompanied by increased productivity.	70465680	1473776728122	1473776728195	i	73
136229	1481843	It must be accompanied by increased productivity.	It must be accompanied by increased productivity.	70465754	1473776729050	1473776729128	t	84
136229	1481843	It must be accompanied by increased productivity.	It must be accompanied by increased productivity.	70465756	1473776729317	1473776729378	i	73
136229	1481843	It must be accompanied by increased productivity.	It must be accompanied by increased productivity.	70465758	1473776729869	1473776729996	BKSP	8
136229	1481843	It must be accompanied by increased productivity.	It must be accompanied by increased productivity.	70465760	1473776729998	1473776730071	y	89
136229	1481873	Thanks for checking with me.	Thanks for checking with me.	70465930	1473776732863	1473776733166	SHIFT	16
136229	1481873	Thanks for checking with me.	Thanks for checking with me.	70465931	1473776733143	1473776733256	T	84
136229	1481873	Thanks for checking with me.	Thanks for checking with me.	70465938	1473776733244	1473776733311	h	72
136229	1481873	Thanks for checking with me.	Thanks for checking with me.	70465945	1473776733399	1473776733496	a	65
136229	1481873	Thanks for checking with me.	Thanks for checking with me.	70465955	1473776733577	1473776733702	n	78
136229	1481873	Thanks for checking with me.	Thanks for checking with me.	70465957	1473776733737	1473776733835	k	75
136229	1481873	Thanks for checking with me.	Thanks for checking with me.	70466009	1473776733904	1473776733970	s	83
136229	1481873	Thanks for checking with me.	Thanks for checking with me.	70466010	1473776734113	1473776734195	 	32
136229	1481873	Thanks for checking with me.	Thanks for checking with me.	70466011	1473776734657	1473776734737	f	70
136229	1481873	Thanks for checking with me.	Thanks for checking with me.	70466012	1473776734787	1473776734914	o	79
136229	1481873	Thanks for checking with me.	Thanks for checking with me.	70466013	1473776734957	1473776735035	r	82
136229	1481873	Thanks for checking with me.	Thanks for checking with me.	70466076	1473776735263	1473776735345	 	32
136229	1481873	Thanks for checking with me.	Thanks for checking with me.	70466077	1473776735606	1473776735689	c	67
136229	1481873	Thanks for checking with me.	Thanks for checking with me.	70466080	1473776735690	1473776735774	h	72
136229	1481873	Thanks for checking with me.	Thanks for checking with me.	70466084	1473776736358	1473776736440	e	69
136229	1481873	Thanks for checking with me.	Thanks for checking with me.	70466088	1473776736540	1473776736623	c	67
136229	1481873	Thanks for checking with me.	Thanks for checking with me.	70466106	1473776736651	1473776736730	k	75
136229	1481873	Thanks for checking with me.	Thanks for checking with me.	70466110	1473776736870	1473776737002	i	73
136229	1481873	Thanks for checking with me.	Thanks for checking with me.	70466115	1473776737004	1473776737078	n	78
136229	1481873	Thanks for checking with me.	Thanks for checking with me.	70466121	1473776737080	1473776737143	g	71
136229	1481873	Thanks for checking with me.	Thanks for checking with me.	70466124	1473776737241	1473776737314	 	32
136229	1481873	Thanks for checking with me.	Thanks for checking with me.	70466148	1473776737462	1473776737537	w	87
136229	1481873	Thanks for checking with me.	Thanks for checking with me.	70466151	1473776737595	1473776737657	i	73
136229	1481873	Thanks for checking with me.	Thanks for checking with me.	70466154	1473776737815	1473776737916	t	84
136229	1481873	Thanks for checking with me.	Thanks for checking with me.	70466159	1473776737884	1473776737976	h	72
136229	1481873	Thanks for checking with me.	Thanks for checking with me.	70466217	1473776737944	1473776738021	 	32
136229	1481873	Thanks for checking with me.	Thanks for checking with me.	70466221	1473776738134	1473776738197	m	77
136229	1481873	Thanks for checking with me.	Thanks for checking with me.	70466224	1473776738160	1473776738227	e	69
136229	1481888	I hope this answers your question.	I hope this answers your question.	70466411	1473776740994	1473776741131	SHIFT	16
136229	1481888	I hope this answers your question.	I hope this answers your question.	70466415	1473776741099	1473776741162	I	73
136229	1481888	I hope this answers your question.	I hope this answers your question.	70466419	1473776741350	1473776741427	 	32
136229	1481888	I hope this answers your question.	I hope this answers your question.	70466422	1473776741918	1473776742005	h	72
136229	1481888	I hope this answers your question.	I hope this answers your question.	70466425	1473776742018	1473776742110	o	79
136229	1481888	I hope this answers your question.	I hope this answers your question.	70466428	1473776742213	1473776742306	p	80
136229	1481888	I hope this answers your question.	I hope this answers your question.	70466457	1473776742334	1473776742416	e	69
136229	1481888	I hope this answers your question.	I hope this answers your question.	70466459	1473776742494	1473776742546	 	32
136229	1481888	I hope this answers your question.	I hope this answers your question.	70466463	1473776742777	1473776742928	t	84
136229	1481888	I hope this answers your question.	I hope this answers your question.	70466465	1473776742891	1473776742979	h	72
136229	1481888	I hope this answers your question.	I hope this answers your question.	70466469	1473776742981	1473776743049	i	73
136229	1481888	I hope this answers your question.	I hope this answers your question.	70466569	1473776743147	1473776743229	s	83
136229	1481888	I hope this answers your question.	I hope this answers your question.	70466575	1473776743262	1473776743334	 	32
136229	1481888	I hope this answers your question.	I hope this answers your question.	70466577	1473776743417	1473776743500	a	65
136229	1481888	I hope this answers your question.	I hope this answers your question.	70466580	1473776743577	1473776743663	n	78
136229	1481888	I hope this answers your question.	I hope this answers your question.	70466583	1473776744556	1473776744641	s	83
136229	1481888	I hope this answers your question.	I hope this answers your question.	70466708	1473776744744	1473776744856	w	87
136229	1481888	I hope this answers your question.	I hope this answers your question.	70466713	1473776745810	1473776745924	e	69
136229	1481888	I hope this answers your question.	I hope this answers your question.	70466721	1473776745912	1473776746010	r	82
136229	1481888	I hope this answers your question.	I hope this answers your question.	70466727	1473776746188	1473776746275	s	83
136229	1481888	I hope this answers your question.	I hope this answers your question.	70466731	1473776746747	1473776746844	 	32
136229	1481888	I hope this answers your question.	I hope this answers your question.	70466772	1473776747182	1473776747274	y	89
136229	1481888	I hope this answers your question.	I hope this answers your question.	70466777	1473776747276	1473776747359	o	79
136229	1481888	I hope this answers your question.	I hope this answers your question.	70466782	1473776747502	1473776747570	u	85
136229	1481888	I hope this answers your question.	I hope this answers your question.	70466785	1473776747605	1473776747693	r	82
136229	1481888	I hope this answers your question.	I hope this answers your question.	70466789	1473776747731	1473776747803	 	32
136229	1481888	I hope this answers your question.	I hope this answers your question.	70466924	1473776748316	1473776748388	q	81
136229	1481888	I hope this answers your question.	I hope this answers your question.	70466928	1473776748390	1473776748468	u	85
136229	1481888	I hope this answers your question.	I hope this answers your question.	70466932	1473776748734	1473776748827	r	82
136229	1481888	I hope this answers your question.	I hope this answers your question.	70466937	1473776748910	1473776748976	s	83
136229	1481888	I hope this answers your question.	I hope this answers your question.	70466941	1473776749524	1473776749607	BKSP	8
136229	1481888	I hope this answers your question.	I hope this answers your question.	70466947	1473776749962	1473776750030	BKSP	8
136229	1481888	I hope this answers your question.	I hope this answers your question.	70466951	1473776750333	1473776750435	e	69
136229	1481888	I hope this answers your question.	I hope this answers your question.	70466984	1473776750478	1473776750576	s	83
136229	1481888	I hope this answers your question.	I hope this answers your question.	70466986	1473776750717	1473776750783	t	84
136229	1481888	I hope this answers your question.	I hope this answers your question.	70466987	1473776750875	1473776750988	i	73
136229	1481888	I hope this answers your question.	I hope this answers your question.	70466990	1473776750961	1473776751068	o	79
136229	1481888	I hope this answers your question.	I hope this answers your question.	70466991	1473776751156	1473776751243	n	78
136229	1481888	I hope this answers your question.	I hope this answers your question.	70467013	1473776751810	1473776751880	.	190
136229	1481906	Good luck this week, I can't see any sure things out there.	Good luck this week, I can't see any thing out there.	70467253	1473776753747	1473776753945	SHIFT	16
136229	1481906	Good luck this week, I can't see any sure things out there.	Good luck this week, I can't see any thing out there.	70467262	1473776753922	1473776754030	G	71
136229	1481906	Good luck this week, I can't see any sure things out there.	Good luck this week, I can't see any thing out there.	70467269	1473776754043	1473776754106	i	73
136229	1481906	Good luck this week, I can't see any sure things out there.	Good luck this week, I can't see any thing out there.	70467275	1473776754214	1473776754256	i	73
136229	1481906	Good luck this week, I can't see any sure things out there.	Good luck this week, I can't see any thing out there.	70467280	1473776754524	1473776754602	BKSP	8
136229	1481906	Good luck this week, I can't see any sure things out there.	Good luck this week, I can't see any thing out there.	70467283	1473776754667	1473776754739	BKSP	8
136229	1481906	Good luck this week, I can't see any sure things out there.	Good luck this week, I can't see any thing out there.	70467286	1473776755189	1473776755261	o	79
136229	1481906	Good luck this week, I can't see any sure things out there.	Good luck this week, I can't see any thing out there.	70467288	1473776755334	1473776755386	o	79
136229	1481906	Good luck this week, I can't see any sure things out there.	Good luck this week, I can't see any thing out there.	70467343	1473776755399	1473776755487	d	68
136229	1481906	Good luck this week, I can't see any sure things out there.	Good luck this week, I can't see any thing out there.	70467348	1473776755762	1473776755820	 	32
136229	1481906	Good luck this week, I can't see any sure things out there.	Good luck this week, I can't see any thing out there.	70467354	1473776756023	1473776756090	l	76
136229	1481906	Good luck this week, I can't see any sure things out there.	Good luck this week, I can't see any thing out there.	70467359	1473776756554	1473776756632	u	85
136229	1481906	Good luck this week, I can't see any sure things out there.	Good luck this week, I can't see any thing out there.	70467365	1473776756645	1473776756714	c	67
136229	1481906	Good luck this week, I can't see any sure things out there.	Good luck this week, I can't see any thing out there.	70467389	1473776756772	1473776756830	k	75
136229	1481906	Good luck this week, I can't see any sure things out there.	Good luck this week, I can't see any thing out there.	70467393	1473776756858	1473776756959	 	32
136229	1481906	Good luck this week, I can't see any sure things out there.	Good luck this week, I can't see any thing out there.	70467400	1473776757082	1473776757204	t	84
136229	1481906	Good luck this week, I can't see any sure things out there.	Good luck this week, I can't see any thing out there.	70467406	1473776757177	1473776757275	h	72
136229	1481906	Good luck this week, I can't see any sure things out there.	Good luck this week, I can't see any thing out there.	70467433	1473776757263	1473776757330	i	73
136229	1481906	Good luck this week, I can't see any sure things out there.	Good luck this week, I can't see any thing out there.	70467437	1473776757508	1473776757595	s	83
136229	1481906	Good luck this week, I can't see any sure things out there.	Good luck this week, I can't see any thing out there.	70467441	1473776757703	1473776757768	 	32
136229	1481906	Good luck this week, I can't see any sure things out there.	Good luck this week, I can't see any thing out there.	70467444	1473776757826	1473776757921	w	87
136229	1481906	Good luck this week, I can't see any sure things out there.	Good luck this week, I can't see any thing out there.	70467447	1473776758036	1473776758108	e	69
136229	1481906	Good luck this week, I can't see any sure things out there.	Good luck this week, I can't see any thing out there.	70467452	1473776758176	1473776758248	e	69
136229	1481906	Good luck this week, I can't see any sure things out there.	Good luck this week, I can't see any thing out there.	70467534	1473776758377	1473776758443	k	75
136229	1481906	Good luck this week, I can't see any sure things out there.	Good luck this week, I can't see any thing out there.	70467538	1473776759087	1473776759163	,	188
136229	1481906	Good luck this week, I can't see any sure things out there.	Good luck this week, I can't see any thing out there.	70467543	1473776759306	1473776759378	 	32
136229	1481906	Good luck this week, I can't see any sure things out there.	Good luck this week, I can't see any thing out there.	70467548	1473776759775	1473776759917	SHIFT	16
136229	1481906	Good luck this week, I can't see any sure things out there.	Good luck this week, I can't see any thing out there.	70467553	1473776759885	1473776759950	I	73
136229	1481906	Good luck this week, I can't see any sure things out there.	Good luck this week, I can't see any thing out there.	70467559	1473776760115	1473776760168	 	32
136229	1481906	Good luck this week, I can't see any sure things out there.	Good luck this week, I can't see any thing out there.	70467694	1473776760941	1473776761080	c	67
136229	1481906	Good luck this week, I can't see any sure things out there.	Good luck this week, I can't see any thing out there.	70467699	1473776761048	1473776761150	a	65
136229	1481906	Good luck this week, I can't see any sure things out there.	Good luck this week, I can't see any thing out there.	70467705	1473776761902	1473776761998	n	78
136229	1481906	Good luck this week, I can't see any sure things out there.	Good luck this week, I can't see any thing out there.	70467711	1473776762232	1473776762324	'	222
136229	1481906	Good luck this week, I can't see any sure things out there.	Good luck this week, I can't see any thing out there.	70467718	1473776762432	1473776762520	t	84
136229	1481906	Good luck this week, I can't see any sure things out there.	Good luck this week, I can't see any thing out there.	70467765	1473776762821	1473776762898	 	32
136229	1481906	Good luck this week, I can't see any sure things out there.	Good luck this week, I can't see any thing out there.	70467769	1473776762936	1473776763018	s	83
136229	1481906	Good luck this week, I can't see any sure things out there.	Good luck this week, I can't see any thing out there.	70467774	1473776763371	1473776763448	e	69
136229	1481906	Good luck this week, I can't see any sure things out there.	Good luck this week, I can't see any thing out there.	70467778	1473776763501	1473776763569	e	69
136229	1481906	Good luck this week, I can't see any sure things out there.	Good luck this week, I can't see any thing out there.	70467785	1473776763612	1473776763689	 	32
136229	1481906	Good luck this week, I can't see any sure things out there.	Good luck this week, I can't see any thing out there.	70467834	1473776763727	1473776763816	a	65
136229	1481906	Good luck this week, I can't see any sure things out there.	Good luck this week, I can't see any thing out there.	70467838	1473776763870	1473776763927	n	78
136229	1481906	Good luck this week, I can't see any sure things out there.	Good luck this week, I can't see any thing out there.	70467841	1473776764435	1473776764517	y	89
136229	1481906	Good luck this week, I can't see any sure things out there.	Good luck this week, I can't see any thing out there.	70467847	1473776764545	1473776764602	 	32
136229	1481906	Good luck this week, I can't see any sure things out there.	Good luck this week, I can't see any thing out there.	70467851	1473776764670	1473776764795	t	84
136229	1481906	Good luck this week, I can't see any sure things out there.	Good luck this week, I can't see any thing out there.	70467939	1473776764765	1473776764850	h	72
136229	1481906	Good luck this week, I can't see any sure things out there.	Good luck this week, I can't see any thing out there.	70467945	1473776764934	1473776765035	i	73
136229	1481906	Good luck this week, I can't see any sure things out there.	Good luck this week, I can't see any thing out there.	70467950	1473776765088	1473776765180	n	78
136229	1481906	Good luck this week, I can't see any sure things out there.	Good luck this week, I can't see any thing out there.	70467959	1473776765218	1473776765291	g	71
136229	1481906	Good luck this week, I can't see any sure things out there.	Good luck this week, I can't see any thing out there.	70467964	1473776766282	1473776766364	 	32
136229	1481906	Good luck this week, I can't see any sure things out there.	Good luck this week, I can't see any thing out there.	70467966	1473776766512	1473776766590	o	79
136229	1481906	Good luck this week, I can't see any sure things out there.	Good luck this week, I can't see any thing out there.	70467988	1473776766782	1473776766848	u	85
136229	1481906	Good luck this week, I can't see any sure things out there.	Good luck this week, I can't see any thing out there.	70467992	1473776766906	1473776766978	t	84
136229	1481906	Good luck this week, I can't see any sure things out there.	Good luck this week, I can't see any thing out there.	70467999	1473776767035	1473776767102	 	32
136229	1481906	Good luck this week, I can't see any sure things out there.	Good luck this week, I can't see any thing out there.	70468004	1473776767201	1473776767343	t	84
136229	1481906	Good luck this week, I can't see any sure things out there.	Good luck this week, I can't see any thing out there.	70468078	1473776767306	1473776767393	h	72
136229	1481906	Good luck this week, I can't see any sure things out there.	Good luck this week, I can't see any thing out there.	70468081	1473776767526	1473776767664	e	69
136229	1481906	Good luck this week, I can't see any sure things out there.	Good luck this week, I can't see any thing out there.	70468083	1473776767602	1473776767714	r	82
136229	1481906	Good luck this week, I can't see any sure things out there.	Good luck this week, I can't see any thing out there.	70468086	1473776768050	1473776768157	e	69
136229	1481930	He can be explosive, but he is also erratic.	He can be explosive, but he is also erratic.	70469049	1473776768761	1473776785444	.	190
136229	1481930	He can be explosive, but he is also erratic.	He can be explosive, but he is also erratic.	70468209	1473776770602	1473776771073	SHIFT	16
136229	1481930	He can be explosive, but he is also erratic.	He can be explosive, but he is also erratic.	70468206	1473776770971	1473776771046	H	72
136229	1481930	He can be explosive, but he is also erratic.	He can be explosive, but he is also erratic.	70468211	1473776771048	1473776771138	E	69
136229	1481930	He can be explosive, but he is also erratic.	He can be explosive, but he is also erratic.	70468214	1473776771216	1473776771289	 	32
136229	1481930	He can be explosive, but he is also erratic.	He can be explosive, but he is also erratic.	70468219	1473776771291	1473776771429	c	67
136229	1481930	He can be explosive, but he is also erratic.	He can be explosive, but he is also erratic.	70468350	1473776771407	1473776771504	a	65
136229	1481930	He can be explosive, but he is also erratic.	He can be explosive, but he is also erratic.	70468352	1473776771493	1473776771570	n	78
136229	1481930	He can be explosive, but he is also erratic.	He can be explosive, but he is also erratic.	70468357	1473776772085	1473776772157	BKSP	8
136229	1481930	He can be explosive, but he is also erratic.	He can be explosive, but he is also erratic.	70468359	1473776772250	1473776772308	BKSP	8
136229	1481930	He can be explosive, but he is also erratic.	He can be explosive, but he is also erratic.	70468363	1473776772381	1473776772443	BKSP	8
136229	1481930	He can be explosive, but he is also erratic.	He can be explosive, but he is also erratic.	70468366	1473776772521	1473776772583	BKSP	8
136229	1481930	He can be explosive, but he is also erratic.	He can be explosive, but he is also erratic.	70468368	1473776772661	1473776772738	BKSP	8
136229	1481930	He can be explosive, but he is also erratic.	He can be explosive, but he is also erratic.	70468371	1473776773399	1473776773476	e	69
136229	1481930	He can be explosive, but he is also erratic.	He can be explosive, but he is also erratic.	70468374	1473776773540	1473776773622	 	32
136229	1481930	He can be explosive, but he is also erratic.	He can be explosive, but he is also erratic.	70468377	1473776773650	1473776773787	c	67
136229	1481930	He can be explosive, but he is also erratic.	He can be explosive, but he is also erratic.	70468402	1473776773760	1473776773841	a	65
136229	1481930	He can be explosive, but he is also erratic.	He can be explosive, but he is also erratic.	70468408	1473776773868	1473776773940	n	78
136229	1481930	He can be explosive, but he is also erratic.	He can be explosive, but he is also erratic.	70468415	1473776774008	1473776774076	 	32
136229	1481930	He can be explosive, but he is also erratic.	He can be explosive, but he is also erratic.	70468420	1473776774282	1473776774400	b	66
136229	1481930	He can be explosive, but he is also erratic.	He can be explosive, but he is also erratic.	70468426	1473776774388	1473776774480	e	69
136229	1481930	He can be explosive, but he is also erratic.	He can be explosive, but he is also erratic.	70468433	1473776774538	1473776774596	 	32
136229	1481930	He can be explosive, but he is also erratic.	He can be explosive, but he is also erratic.	70468508	1473776774774	1473776774865	e	69
136229	1481930	He can be explosive, but he is also erratic.	He can be explosive, but he is also erratic.	70468514	1473776774957	1473776775059	x	88
136229	1481930	He can be explosive, but he is also erratic.	He can be explosive, but he is also erratic.	70468518	1473776775317	1473776775420	p	80
136229	1481930	He can be explosive, but he is also erratic.	He can be explosive, but he is also erratic.	70468520	1473776775798	1473776775870	l	76
136229	1481930	He can be explosive, but he is also erratic.	He can be explosive, but he is also erratic.	70468524	1473776775981	1473776776039	o	79
136229	1481930	He can be explosive, but he is also erratic.	He can be explosive, but he is also erratic.	70468586	1473776776121	1473776776198	s	83
136229	1481930	He can be explosive, but he is also erratic.	He can be explosive, but he is also erratic.	70468591	1473776776327	1473776776369	i	73
136229	1481930	He can be explosive, but he is also erratic.	He can be explosive, but he is also erratic.	70468594	1473776776578	1473776776690	v	86
136229	1481930	He can be explosive, but he is also erratic.	He can be explosive, but he is also erratic.	70468597	1473776776709	1473776776811	e	69
136229	1481930	He can be explosive, but he is also erratic.	He can be explosive, but he is also erratic.	70468601	1473776777191	1473776777288	,	188
136229	1481930	He can be explosive, but he is also erratic.	He can be explosive, but he is also erratic.	70468639	1473776777386	1473776777458	 	32
136229	1481930	He can be explosive, but he is also erratic.	He can be explosive, but he is also erratic.	70468644	1473776777900	1473776777977	b	66
136229	1481930	He can be explosive, but he is also erratic.	He can be explosive, but he is also erratic.	70468649	1473776778040	1473776778110	u	85
136229	1481930	He can be explosive, but he is also erratic.	He can be explosive, but he is also erratic.	70468653	1473776778167	1473776778238	t	84
136229	1481930	He can be explosive, but he is also erratic.	He can be explosive, but he is also erratic.	70468655	1473776778266	1473776778363	 	32
136229	1481930	He can be explosive, but he is also erratic.	He can be explosive, but he is also erratic.	70468701	1473776778920	1473776778997	h	72
136229	1481930	He can be explosive, but he is also erratic.	He can be explosive, but he is also erratic.	70468707	1473776779095	1473776779186	e	69
136229	1481930	He can be explosive, but he is also erratic.	He can be explosive, but he is also erratic.	70468711	1473776779256	1473776779339	 	32
136229	1481930	He can be explosive, but he is also erratic.	He can be explosive, but he is also erratic.	70468715	1473776779437	1473776779499	i	73
136229	1481930	He can be explosive, but he is also erratic.	He can be explosive, but he is also erratic.	70468718	1473776779517	1473776779589	s	83
136229	1481930	He can be explosive, but he is also erratic.	He can be explosive, but he is also erratic.	70468765	1473776779627	1473776779695	 	32
136229	1481930	He can be explosive, but he is also erratic.	He can be explosive, but he is also erratic.	70468770	1473776779768	1473776779870	a	65
136229	1481930	He can be explosive, but he is also erratic.	He can be explosive, but he is also erratic.	70468777	1473776780086	1473776780169	l	76
136229	1481930	He can be explosive, but he is also erratic.	He can be explosive, but he is also erratic.	70468780	1473776780347	1473776780419	s	83
136229	1481930	He can be explosive, but he is also erratic.	He can be explosive, but he is also erratic.	70468784	1473776780497	1473776780560	o	79
136229	1481930	He can be explosive, but he is also erratic.	He can be explosive, but he is also erratic.	70468810	1473776780603	1473776780685	 	32
136229	1481930	He can be explosive, but he is also erratic.	He can be explosive, but he is also erratic.	70468814	1473776780859	1473776780915	e	69
136229	1481930	He can be explosive, but he is also erratic.	He can be explosive, but he is also erratic.	70468815	1473776781077	1473776781152	r	82
136229	1481930	He can be explosive, but he is also erratic.	He can be explosive, but he is also erratic.	70468817	1473776781206	1473776781283	r	82
136229	1481930	He can be explosive, but he is also erratic.	He can be explosive, but he is also erratic.	70468821	1473776781366	1473776781458	a	65
136229	1481930	He can be explosive, but he is also erratic.	He can be explosive, but he is also erratic.	70468978	1473776782040	1473776782107	c	67
136229	1481930	He can be explosive, but he is also erratic.	He can be explosive, but he is also erratic.	70468983	1473776782641	1473776782733	BKSP	8
136229	1481930	He can be explosive, but he is also erratic.	He can be explosive, but he is also erratic.	70468993	1473776783064	1473776783101	BKSP	8
136229	1481930	He can be explosive, but he is also erratic.	He can be explosive, but he is also erratic.	70468999	1473776783811	1473776783878	a	65
136229	1481930	He can be explosive, but he is also erratic.	He can be explosive, but he is also erratic.	70469004	1473776784034	1473776784106	t	84
136229	1481930	He can be explosive, but he is also erratic.	He can be explosive, but he is also erratic.	70469009	1473776784198	1473776784255	i	73
136229	1481930	He can be explosive, but he is also erratic.	He can be explosive, but he is also erratic.	70469012	1473776784508	1473776784595	c	67
136229	1481953	I may take the opportunity to run some errands.	I may take the opportunity to run some errands.	70469237	1473776787225	1473776787377	SHIFT	16
136229	1481953	I may take the opportunity to run some errands.	I may take the opportunity to run some errands.	70469243	1473776787350	1473776787422	I	73
136229	1481953	I may take the opportunity to run some errands.	I may take the opportunity to run some errands.	70469249	1473776787486	1473776787558	 	32
136229	1481953	I may take the opportunity to run some errands.	I may take the opportunity to run some errands.	70469252	1473776787671	1473776787753	m	77
136229	1481953	I may take the opportunity to run some errands.	I may take the opportunity to run some errands.	70469256	1473776787801	1473776787914	a	65
136229	1481953	I may take the opportunity to run some errands.	I may take the opportunity to run some errands.	70469262	1473776788584	1473776788621	t	84
136229	1481953	I may take the opportunity to run some errands.	I may take the opportunity to run some errands.	70469342	1473776789012	1473776789095	BKSP	8
136229	1481953	I may take the opportunity to run some errands.	I may take the opportunity to run some errands.	70469347	1473776789148	1473776789198	y	89
136229	1481953	I may take the opportunity to run some errands.	I may take the opportunity to run some errands.	70469352	1473776789298	1473776789361	 	32
136229	1481953	I may take the opportunity to run some errands.	I may take the opportunity to run some errands.	70469356	1473776789619	1473776789786	t	84
136229	1481953	I may take the opportunity to run some errands.	I may take the opportunity to run some errands.	70469362	1473776789987	1473776790074	a	65
136229	1481953	I may take the opportunity to run some errands.	I may take the opportunity to run some errands.	70469368	1473776790103	1473776790190	k	75
136229	1481953	I may take the opportunity to run some errands.	I may take the opportunity to run some errands.	70469395	1473776790284	1473776790365	e	69
136229	1481953	I may take the opportunity to run some errands.	I may take the opportunity to run some errands.	70469402	1473776790433	1473776790520	 	32
136229	1481953	I may take the opportunity to run some errands.	I may take the opportunity to run some errands.	70469406	1473776790679	1473776790806	t	84
136229	1481953	I may take the opportunity to run some errands.	I may take the opportunity to run some errands.	70469408	1473776790769	1473776790876	h	72
136229	1481953	I may take the opportunity to run some errands.	I may take the opportunity to run some errands.	70469412	1473776790964	1473776791055	e	69
136229	1481953	I may take the opportunity to run some errands.	I may take the opportunity to run some errands.	70469525	1473776791092	1473776791175	 	32
136229	1481953	I may take the opportunity to run some errands.	I may take the opportunity to run some errands.	70469528	1473776791557	1473776791624	o	79
136229	1481953	I may take the opportunity to run some errands.	I may take the opportunity to run some errands.	70469533	1473776792150	1473776792225	p	80
136229	1481953	I may take the opportunity to run some errands.	I may take the opportunity to run some errands.	70469537	1473776792460	1473776792502	p	80
136229	1481953	I may take the opportunity to run some errands.	I may take the opportunity to run some errands.	70469543	1473776792921	1473776793006	o	79
136229	1481953	I may take the opportunity to run some errands.	I may take the opportunity to run some errands.	70469615	1473776793282	1473776793376	r	82
136229	1481953	I may take the opportunity to run some errands.	I may take the opportunity to run some errands.	70469622	1473776794138	1473776794215	t	84
136229	1481953	I may take the opportunity to run some errands.	I may take the opportunity to run some errands.	70469630	1473776794228	1473776794350	u	85
136229	1481953	I may take the opportunity to run some errands.	I may take the opportunity to run some errands.	70469637	1473776794328	1473776794450	n	78
136229	1481953	I may take the opportunity to run some errands.	I may take the opportunity to run some errands.	70469643	1473776794618	1473776794701	i	73
136229	1481953	I may take the opportunity to run some errands.	I may take the opportunity to run some errands.	70469680	1473776794984	1473776795119	t	84
136229	1481953	I may take the opportunity to run some errands.	I may take the opportunity to run some errands.	70469686	1473776795092	1473776795189	y	89
136229	1481953	I may take the opportunity to run some errands.	I may take the opportunity to run some errands.	70469690	1473776795297	1473776795379	 	32
136229	1481953	I may take the opportunity to run some errands.	I may take the opportunity to run some errands.	70469694	1473776795478	1473776795535	t	84
136229	1481953	I may take the opportunity to run some errands.	I may take the opportunity to run some errands.	70469700	1473776795549	1473776795651	o	79
136229	1481953	I may take the opportunity to run some errands.	I may take the opportunity to run some errands.	70469780	1473776795689	1473776795761	 	32
136229	1481953	I may take the opportunity to run some errands.	I may take the opportunity to run some errands.	70469782	1473776796312	1473776796379	r	82
136229	1481953	I may take the opportunity to run some errands.	I may take the opportunity to run some errands.	70469788	1473776796483	1473776796629	u	85
136229	1481953	I may take the opportunity to run some errands.	I may take the opportunity to run some errands.	70469785	1473776796543	1473776796625	n	78
136229	1481953	I may take the opportunity to run some errands.	I may take the opportunity to run some errands.	70469794	1473776796748	1473776796805	 	32
136229	1481953	I may take the opportunity to run some errands.	I may take the opportunity to run some errands.	70469833	1473776797252	1473776797324	s	83
136229	1481953	I may take the opportunity to run some errands.	I may take the opportunity to run some errands.	70469837	1473776797351	1473776797469	o	79
136229	1481953	I may take the opportunity to run some errands.	I may take the opportunity to run some errands.	70469844	1473776797426	1473776797544	m	77
136229	1481953	I may take the opportunity to run some errands.	I may take the opportunity to run some errands.	70469849	1473776797546	1473776797614	e	69
136229	1481953	I may take the opportunity to run some errands.	I may take the opportunity to run some errands.	70469854	1473776797692	1473776797764	 	32
136229	1481953	I may take the opportunity to run some errands.	I may take the opportunity to run some errands.	70469914	1473776798106	1473776798188	e	69
136229	1481953	I may take the opportunity to run some errands.	I may take the opportunity to run some errands.	70469915	1473776798299	1473776798360	r	82
136229	1481953	I may take the opportunity to run some errands.	I may take the opportunity to run some errands.	70469916	1473776798415	1473776798487	r	82
136229	1481953	I may take the opportunity to run some errands.	I may take the opportunity to run some errands.	70469918	1473776798635	1473776798728	a	65
136229	1481953	I may take the opportunity to run some errands.	I may take the opportunity to run some errands.	70469920	1473776798841	1473776798933	n	78
136229	1481953	I may take the opportunity to run some errands.	I may take the opportunity to run some errands.	70470043	1473776799714	1473776799846	d	68
136229	1481953	I may take the opportunity to run some errands.	I may take the opportunity to run some errands.	70470047	1473776799819	1473776799917	s	83
136229	1481953	I may take the opportunity to run some errands.	I may take the opportunity to run some errands.	70470050	1473776800564	1473776800641	.	190
