PARTICIPANT_ID	TEST_SECTION_ID	SENTENCE	USER_INPUT	KEYSTROKE_ID	PRESS_TIME	RELEASE_TIME	LETTER	KEYCODE
140228	1523947	We talked quietly while everybody gathered.	We talked quietly while everyboy gathered..	72440881	1473810461085	1473810461281	SHIFT	16
140228	1523947	We talked quietly while everybody gathered.	We talked quietly while everyboy gathered..	72440886	1473810461275	1473810461357	W	87
140228	1523947	We talked quietly while everybody gathered.	We talked quietly while everyboy gathered..	72440889	1473810461394	1473810461474	e	69
140228	1523947	We talked quietly while everybody gathered.	We talked quietly while everyboy gathered..	72440895	1473810461432	1473810461553	 	32
140228	1523947	We talked quietly while everybody gathered.	We talked quietly while everyboy gathered..	72440900	1473810461589	1473810461672	t	84
140228	1523947	We talked quietly while everybody gathered.	We talked quietly while everyboy gathered..	72440913	1473810461666	1473810461765	a	65
140228	1523947	We talked quietly while everybody gathered.	We talked quietly while everyboy gathered..	72440915	1473810461720	1473810461844	l	76
140228	1523947	We talked quietly while everybody gathered.	We talked quietly while everyboy gathered..	72440917	1473810461802	1473810461884	k	75
140228	1523947	We talked quietly while everybody gathered.	We talked quietly while everyboy gathered..	72440920	1473810461920	1473810462001	e	69
140228	1523947	We talked quietly while everybody gathered.	We talked quietly while everyboy gathered..	72440925	1473810462075	1473810462155	d	68
140228	1523947	We talked quietly while everybody gathered.	We talked quietly while everyboy gathered..	72440931	1473810462158	1473810462234	 	32
140228	1523947	We talked quietly while everybody gathered.	We talked quietly while everyboy gathered..	72440957	1473810462346	1473810462464	q	81
140228	1523947	We talked quietly while everybody gathered.	We talked quietly while everyboy gathered..	72440960	1473810462501	1473810462581	u	85
140228	1523947	We talked quietly while everybody gathered.	We talked quietly while everyboy gathered..	72440963	1473810462618	1473810462698	i	73
140228	1523947	We talked quietly while everybody gathered.	We talked quietly while everyboy gathered..	72440965	1473810462734	1473810462853	e	69
140228	1523947	We talked quietly while everybody gathered.	We talked quietly while everyboy gathered..	72440969	1473810462927	1473810463016	t	84
140228	1523947	We talked quietly while everybody gathered.	We talked quietly while everyboy gathered..	72441006	1473810463128	1473810463223	l	76
140228	1523947	We talked quietly while everybody gathered.	We talked quietly while everyboy gathered..	72441009	1473810463297	1473810463416	y	89
140228	1523947	We talked quietly while everybody gathered.	We talked quietly while everyboy gathered..	72441011	1473810463373	1473810463494	 	32
140228	1523947	We talked quietly while everybody gathered.	We talked quietly while everyboy gathered..	72441014	1473810463530	1473810463573	w	87
140228	1523947	We talked quietly while everybody gathered.	We talked quietly while everyboy gathered..	72441018	1473810463647	1473810463727	h	72
140228	1523947	We talked quietly while everybody gathered.	We talked quietly while everyboy gathered..	72441023	1473810463763	1473810463881	i	73
140228	1523947	We talked quietly while everybody gathered.	We talked quietly while everyboy gathered..	72441024	1473810463884	1473810464000	l	76
140228	1523947	We talked quietly while everybody gathered.	We talked quietly while everyboy gathered..	72441026	1473810463995	1473810464076	e	69
140228	1523947	We talked quietly while everybody gathered.	We talked quietly while everyboy gathered..	72441028	1473810464079	1473810464156	 	32
140228	1523947	We talked quietly while everybody gathered.	We talked quietly while everyboy gathered..	72441030	1473810464230	1473810464272	e	69
140228	1523947	We talked quietly while everybody gathered.	We talked quietly while everyboy gathered..	72441034	1473810464347	1473810464427	v	86
140228	1523947	We talked quietly while everybody gathered.	We talked quietly while everyboy gathered..	72441036	1473810464463	1473810464582	e	69
140228	1523947	We talked quietly while everybody gathered.	We talked quietly while everyboy gathered..	72441039	1473810464540	1473810464622	r	82
140228	1523947	We talked quietly while everybody gathered.	We talked quietly while everyboy gathered..	72441043	1473810464624	1473810464701	y	89
140228	1523947	We talked quietly while everybody gathered.	We talked quietly while everyboy gathered..	72441048	1473810464738	1473810464817	b	66
140228	1523947	We talked quietly while everybody gathered.	We talked quietly while everyboy gathered..	72441066	1473810464822	1473810464897	o	79
140228	1523947	We talked quietly while everybody gathered.	We talked quietly while everyboy gathered..	72441068	1473810464932	1473810465050	y	89
140228	1523947	We talked quietly while everybody gathered.	We talked quietly while everyboy gathered..	72441071	1473810465053	1473810465130	 	32
140228	1523947	We talked quietly while everybody gathered.	We talked quietly while everyboy gathered..	72441074	1473810465204	1473810465246	d	68
140228	1523947	We talked quietly while everybody gathered.	We talked quietly while everyboy gathered..	72441077	1473810465434	1473810465518	BKSP	8
140228	1523947	We talked quietly while everybody gathered.	We talked quietly while everyboy gathered..	72441120	1473810465511	1473810465556	g	71
140228	1523947	We talked quietly while everybody gathered.	We talked quietly while everyboy gathered..	72441123	1473810465668	1473810465710	a	65
140228	1523947	We talked quietly while everybody gathered.	We talked quietly while everyboy gathered..	72441127	1473810466127	1473810466207	h	72
140228	1523947	We talked quietly while everybody gathered.	We talked quietly while everyboy gathered..	72441128	1473810466434	1473810466476	BKSP	8
140228	1523947	We talked quietly while everybody gathered.	We talked quietly while everyboy gathered..	72441132	1473810466513	1473810466592	t	84
140228	1523947	We talked quietly while everybody gathered.	We talked quietly while everyboy gathered..	72441133	1473810466595	1473810466678	h	72
140228	1523947	We talked quietly while everybody gathered.	We talked quietly while everyboy gathered..	72441160	1473810466636	1473810466757	e	69
140228	1523947	We talked quietly while everybody gathered.	We talked quietly while everyboy gathered..	72441163	1473810466715	1473810466838	r	82
140228	1523947	We talked quietly while everybody gathered.	We talked quietly while everyboy gathered..	72441165	1473810466832	1473810466952	e	69
140228	1523947	We talked quietly while everybody gathered.	We talked quietly while everyboy gathered..	72441168	1473810467026	1473810467083	d	68
140228	1523947	We talked quietly while everybody gathered.	We talked quietly while everyboy gathered..	72441174	1473810467086	1473810467176	.	190
140228	1523960	Please let me know what days you plan on taking off.	Pelase let me know what days you plan on taking off.	72441443	1473810472358	1473810472597	SHIFT	16
140228	1523960	Please let me know what days you plan on taking off.	Pelase let me know what days you plan on taking off.	72441441	1473810472510	1473810472591	P	80
140228	1523960	Please let me know what days you plan on taking off.	Pelase let me know what days you plan on taking off.	72441445	1473810472704	1473810472826	l	69
140228	1523960	Please let me know what days you plan on taking off.	Pelase let me know what days you plan on taking off.	72441447	1473810472784	1473810472981	a	65
140228	1523960	Please let me know what days you plan on taking off.	Pelase let me know what days you plan on taking off.	72441470	1473810472939	1473810473059	s	83
140228	1523960	Please let me know what days you plan on taking off.	Pelase let me know what days you plan on taking off.	72441472	1473810473017	1473810473138	e	69
140228	1523960	Please let me know what days you plan on taking off.	Pelase let me know what days you plan on taking off.	72441475	1473810473096	1473810473178	 	32
140228	1523960	Please let me know what days you plan on taking off.	Pelase let me know what days you plan on taking off.	72441478	1473810473215	1473810473295	l	76
140228	1523960	Please let me know what days you plan on taking off.	Pelase let me know what days you plan on taking off.	72441480	1473810473331	1473810473412	e	69
140228	1523960	Please let me know what days you plan on taking off.	Pelase let me know what days you plan on taking off.	72441484	1473810473562	1473810473642	t	84
140228	1523960	Please let me know what days you plan on taking off.	Pelase let me know what days you plan on taking off.	72441489	1473810473645	1473810473721	 	32
140228	1523960	Please let me know what days you plan on taking off.	Pelase let me know what days you plan on taking off.	72441493	1473810473757	1473810473851	m	77
140228	1523960	Please let me know what days you plan on taking off.	Pelase let me know what days you plan on taking off.	72441498	1473810473845	1473810473932	e	69
140228	1523960	Please let me know what days you plan on taking off.	Pelase let me know what days you plan on taking off.	72441501	1473810473935	1473810474014	 	32
140228	1523960	Please let me know what days you plan on taking off.	Pelase let me know what days you plan on taking off.	72441521	1473810474008	1473810474149	k	75
140228	1523960	Please let me know what days you plan on taking off.	Pelase let me know what days you plan on taking off.	72441520	1473810474048	1473810474142	n	78
140228	1523960	Please let me know what days you plan on taking off.	Pelase let me know what days you plan on taking off.	72441523	1473810474087	1473810474226	o	79
140228	1523960	Please let me know what days you plan on taking off.	Pelase let me know what days you plan on taking off.	72441525	1473810474185	1473810474306	w	87
140228	1523960	Please let me know what days you plan on taking off.	Pelase let me know what days you plan on taking off.	72441526	1473810474229	1473810474346	 	32
140228	1523960	Please let me know what days you plan on taking off.	Pelase let me know what days you plan on taking off.	72441529	1473810474420	1473810474537	w	87
140228	1523960	Please let me know what days you plan on taking off.	Pelase let me know what days you plan on taking off.	72441542	1473810474540	1473810474618	h	72
140228	1523960	Please let me know what days you plan on taking off.	Pelase let me know what days you plan on taking off.	72441543	1473810474575	1473810474734	a	65
140228	1523960	Please let me know what days you plan on taking off.	Pelase let me know what days you plan on taking off.	72441545	1473810474692	1473810474775	t	84
140228	1523960	Please let me know what days you plan on taking off.	Pelase let me know what days you plan on taking off.	72441547	1473810474811	1473810474929	 	32
140228	1523960	Please let me know what days you plan on taking off.	Pelase let me know what days you plan on taking off.	72441548	1473810475080	1473810475162	d	68
140228	1523960	Please let me know what days you plan on taking off.	Pelase let me know what days you plan on taking off.	72441568	1473810475156	1473810475238	a	65
140228	1523960	Please let me know what days you plan on taking off.	Pelase let me know what days you plan on taking off.	72441570	1473810475240	1473810475318	y	89
140228	1523960	Please let me know what days you plan on taking off.	Pelase let me know what days you plan on taking off.	72441573	1473810475353	1473810475472	s	83
140228	1523960	Please let me know what days you plan on taking off.	Pelase let me know what days you plan on taking off.	72441576	1473810475430	1473810475513	 	32
140228	1523960	Please let me know what days you plan on taking off.	Pelase let me know what days you plan on taking off.	72441580	1473810475587	1473810475667	y	89
140228	1523960	Please let me know what days you plan on taking off.	Pelase let me know what days you plan on taking off.	72441584	1473810475669	1473810475784	o	79
140228	1523960	Please let me know what days you plan on taking off.	Pelase let me know what days you plan on taking off.	72441594	1473810475742	1473810475864	u	85
140228	1523960	Please let me know what days you plan on taking off.	Pelase let me know what days you plan on taking off.	72441596	1473810475786	1473810475869	 	32
140228	1523960	Please let me know what days you plan on taking off.	Pelase let me know what days you plan on taking off.	72441599	1473810475940	1473810476020	p	80
140228	1523960	Please let me know what days you plan on taking off.	Pelase let me know what days you plan on taking off.	72441605	1473810476056	1473810476136	l	76
140228	1523960	Please let me know what days you plan on taking off.	Pelase let me know what days you plan on taking off.	72441610	1473810476173	1473810476252	a	65
140228	1523960	Please let me know what days you plan on taking off.	Pelase let me know what days you plan on taking off.	72441614	1473810476255	1473810476332	n	78
140228	1523960	Please let me know what days you plan on taking off.	Pelase let me know what days you plan on taking off.	72441644	1473810476558	1473810476639	 	32
140228	1523960	Please let me know what days you plan on taking off.	Pelase let me know what days you plan on taking off.	72441648	1473810476675	1473810476756	o	79
140228	1523960	Please let me know what days you plan on taking off.	Pelase let me know what days you plan on taking off.	72441654	1473810476713	1473810476834	n	78
140228	1523960	Please let me know what days you plan on taking off.	Pelase let me know what days you plan on taking off.	72441658	1473810476792	1473810476913	 	32
140228	1523960	Please let me know what days you plan on taking off.	Pelase let me know what days you plan on taking off.	72441662	1473810476949	1473810476991	t	84
140228	1523960	Please let me know what days you plan on taking off.	Pelase let me know what days you plan on taking off.	72441667	1473810477030	1473810477148	a	65
140228	1523960	Please let me know what days you plan on taking off.	Pelase let me know what days you plan on taking off.	72441671	1473810477106	1473810477189	k	75
140228	1523960	Please let me know what days you plan on taking off.	Pelase let me know what days you plan on taking off.	72441674	1473810477263	1473810477344	i	73
140228	1523960	Please let me know what days you plan on taking off.	Pelase let me know what days you plan on taking off.	72441676	1473810477301	1473810477422	n	78
140228	1523960	Please let me know what days you plan on taking off.	Pelase let me know what days you plan on taking off.	72441691	1473810477380	1473810477463	g	71
140228	1523960	Please let me know what days you plan on taking off.	Pelase let me know what days you plan on taking off.	72441693	1473810477424	1473810477505	 	32
140228	1523960	Please let me know what days you plan on taking off.	Pelase let me know what days you plan on taking off.	72441695	1473810477500	1473810477606	o	79
140228	1523960	Please let me know what days you plan on taking off.	Pelase let me know what days you plan on taking off.	72441698	1473810477601	1473810477683	f	70
140228	1523960	Please let me know what days you plan on taking off.	Pelase let me know what days you plan on taking off.	72441701	1473810477757	1473810477837	f	70
140228	1523960	Please let me know what days you plan on taking off.	Pelase let me know what days you plan on taking off.	72441704	1473810477874	1473810477954	.	190
140228	1523972	Michael has his holiday performance.	Michael has his holiday perfomrance/	72441881	1473810481464	1473810481621	SHIFT	16
140228	1523972	Michael has his holiday performance.	Michael has his holiday perfomrance/	72441882	1473810481578	1473810481661	M	77
140228	1523972	Michael has his holiday performance.	Michael has his holiday perfomrance/	72441883	1473810481697	1473810481778	i	73
140228	1523972	Michael has his holiday performance.	Michael has his holiday perfomrance/	72441886	1473810481890	1473810482008	c	67
140228	1523972	Michael has his holiday performance.	Michael has his holiday perfomrance/	72441888	1473810482010	1473810482086	h	72
140228	1523972	Michael has his holiday performance.	Michael has his holiday perfomrance/	72441890	1473810482123	1473810482204	a	65
140228	1523972	Michael has his holiday performance.	Michael has his holiday perfomrance/	72441903	1473810482240	1473810482320	e	69
140228	1523972	Michael has his holiday performance.	Michael has his holiday perfomrance/	72441904	1473810482322	1473810482399	l	76
140228	1523972	Michael has his holiday performance.	Michael has his holiday perfomrance/	72441906	1473810482473	1473810482591	 	32
140228	1523972	Michael has his holiday performance.	Michael has his holiday perfomrance/	72441911	1473810482780	1473810482863	h	72
140228	1523972	Michael has his holiday performance.	Michael has his holiday perfomrance/	72441957	1473810482857	1473810482977	a	65
140228	1523972	Michael has his holiday performance.	Michael has his holiday perfomrance/	72441963	1473810482935	1473810483056	s	83
140228	1523972	Michael has his holiday performance.	Michael has his holiday perfomrance/	72441967	1473810483014	1473810483097	 	32
140228	1523972	Michael has his holiday performance.	Michael has his holiday perfomrance/	72441971	1473810483133	1473810483213	i	73
140228	1523972	Michael has his holiday performance.	Michael has his holiday perfomrance/	72441975	1473810483287	1473810483367	s	83
140228	1523972	Michael has his holiday performance.	Michael has his holiday perfomrance/	72441977	1473810483518	1473810483598	BKSP	8
140228	1523972	Michael has his holiday performance.	Michael has his holiday perfomrance/	72441981	1473810483672	1473810483715	BKSP	8
140228	1523972	Michael has his holiday performance.	Michael has his holiday perfomrance/	72441982	1473810483789	1473810483869	h	72
140228	1523972	Michael has his holiday performance.	Michael has his holiday perfomrance/	72441984	1473810483870	1473810483948	i	73
140228	1523972	Michael has his holiday performance.	Michael has his holiday perfomrance/	72441987	1473810483906	1473810483988	s	83
140228	1523972	Michael has his holiday performance.	Michael has his holiday perfomrance/	72441993	1473810483991	1473810484068	 	32
140228	1523972	Michael has his holiday performance.	Michael has his holiday perfomrance/	72441996	1473810484142	1473810484221	h	72
140228	1523972	Michael has his holiday performance.	Michael has his holiday perfomrance/	72442000	1473810484224	1473810484301	o	79
140228	1523972	Michael has his holiday performance.	Michael has his holiday perfomrance/	72442021	1473810484375	1473810484455	l	76
140228	1523972	Michael has his holiday performance.	Michael has his holiday perfomrance/	72442027	1473810484491	1473810484574	i	73
140228	1523972	Michael has his holiday performance.	Michael has his holiday perfomrance/	72442032	1473810484568	1473810484689	d	68
140228	1523972	Michael has his holiday performance.	Michael has his holiday perfomrance/	72442035	1473810484646	1473810484768	a	65
140228	1523972	Michael has his holiday performance.	Michael has his holiday perfomrance/	72442066	1473810484725	1473810484846	y	89
140228	1523972	Michael has his holiday performance.	Michael has his holiday perfomrance/	72442073	1473810484804	1473810484925	 	32
140228	1523972	Michael has his holiday performance.	Michael has his holiday perfomrance/	72442079	1473810485037	1473810485155	p	80
140228	1523972	Michael has his holiday performance.	Michael has his holiday perfomrance/	72442082	1473810485198	1473810485354	e	69
140228	1523972	Michael has his holiday performance.	Michael has his holiday perfomrance/	72442084	1473810485274	1473810485395	r	82
140228	1523972	Michael has his holiday performance.	Michael has his holiday perfomrance/	72442086	1473810485431	1473810485550	f	70
140228	1523972	Michael has his holiday performance.	Michael has his holiday perfomrance/	72442089	1473810485469	1473810485557	o	79
140228	1523972	Michael has his holiday performance.	Michael has his holiday perfomrance/	72442092	1473810485626	1473810485707	m	77
140228	1523972	Michael has his holiday performance.	Michael has his holiday perfomrance/	72442096	1473810485664	1473810485746	r	82
140228	1523972	Michael has his holiday performance.	Michael has his holiday perfomrance/	72442167	1473810485784	1473810485943	a	65
140228	1523972	Michael has his holiday performance.	Michael has his holiday perfomrance/	72442100	1473810485860	1473810485904	n	78
140228	1523972	Michael has his holiday performance.	Michael has his holiday perfomrance/	72442171	1473810485899	1473810486058	c	67
140228	1523972	Michael has his holiday performance.	Michael has his holiday perfomrance/	72442173	1473810486017	1473810486099	e	69
140228	1523972	Michael has his holiday performance.	Michael has his holiday perfomrance/	72442176	1473810486783	1473810486866	/	191
140228	1523981	Call me to give me a heads up.	Call me to give me a heads up.	72442330	1473810489153	1473810489309	SHIFT	16
140228	1523981	Call me to give me a heads up.	Call me to give me a heads up.	72442337	1473810489267	1473810489390	C	67
140228	1523981	Call me to give me a heads up.	Call me to give me a heads up.	72442344	1473810489348	1473810489485	a	65
140228	1523981	Call me to give me a heads up.	Call me to give me a heads up.	72442350	1473810489427	1473810489490	l	76
140228	1523981	Call me to give me a heads up.	Call me to give me a heads up.	72442362	1473810489560	1473810489641	l	76
140228	1523981	Call me to give me a heads up.	Call me to give me a heads up.	72442370	1473810489676	1473810489797	 	32
140228	1523981	Call me to give me a heads up.	Call me to give me a heads up.	72442374	1473810489791	1473810489876	m	77
140228	1523981	Call me to give me a heads up.	Call me to give me a heads up.	72442380	1473810489870	1473810489952	e	69
140228	1523981	Call me to give me a heads up.	Call me to give me a heads up.	72442385	1473810489954	1473810490031	 	32
140228	1523981	Call me to give me a heads up.	Call me to give me a heads up.	72442386	1473810490067	1473810490185	t	84
140228	1523981	Call me to give me a heads up.	Call me to give me a heads up.	72442388	1473810490144	1473810490226	o	79
140228	1523981	Call me to give me a heads up.	Call me to give me a heads up.	72442398	1473810490188	1473810490305	 	32
140228	1523981	Call me to give me a heads up.	Call me to give me a heads up.	72442403	1473810490341	1473810490460	g	71
140228	1523981	Call me to give me a heads up.	Call me to give me a heads up.	72442409	1473810490418	1473810490500	i	73
140228	1523981	Call me to give me a heads up.	Call me to give me a heads up.	72442415	1473810490536	1473810490657	v	86
140228	1523981	Call me to give me a heads up.	Call me to give me a heads up.	72442419	1473810490651	1473810490734	e	69
140228	1523981	Call me to give me a heads up.	Call me to give me a heads up.	72442430	1473810490691	1473810490774	 	32
140228	1523981	Call me to give me a heads up.	Call me to give me a heads up.	72442432	1473810490811	1473810490856	m	77
140228	1523981	Call me to give me a heads up.	Call me to give me a heads up.	72442437	1473810490849	1473810490931	e	69
140228	1523981	Call me to give me a heads up.	Call me to give me a heads up.	72442441	1473810490934	1473810491010	 	32
140228	1523981	Call me to give me a heads up.	Call me to give me a heads up.	72442446	1473810491047	1473810491128	a	65
140228	1523981	Call me to give me a heads up.	Call me to give me a heads up.	72442475	1473810491085	1473810491168	 	32
140228	1523981	Call me to give me a heads up.	Call me to give me a heads up.	72442478	1473810491243	1473810491322	h	72
140228	1523981	Call me to give me a heads up.	Call me to give me a heads up.	72442483	1473810491358	1473810491477	e	69
140228	1523981	Call me to give me a heads up.	Call me to give me a heads up.	72442487	1473810491435	1473810491593	a	65
140228	1523981	Call me to give me a heads up.	Call me to give me a heads up.	72442490	1473810491595	1473810491710	d	68
140228	1523981	Call me to give me a heads up.	Call me to give me a heads up.	72442494	1473810491746	1473810491865	s	83
140228	1523981	Call me to give me a heads up.	Call me to give me a heads up.	72442539	1473810491901	1473810491982	.	190
140228	1523981	Call me to give me a heads up.	Call me to give me a heads up.	72442541	1473810492322	1473810492365	 	32
140228	1523981	Call me to give me a heads up.	Call me to give me a heads up.	72442543	1473810492515	1473810492595	BKSP	8
140228	1523981	Call me to give me a heads up.	Call me to give me a heads up.	72442544	1473810492631	1473810492714	BKSP	8
140228	1523981	Call me to give me a heads up.	Call me to give me a heads up.	72442545	1473810492708	1473810492790	 	32
140228	1523981	Call me to give me a heads up.	Call me to give me a heads up.	72442546	1473810492827	1473810492945	u	85
140228	1523981	Call me to give me a heads up.	Call me to give me a heads up.	72442554	1473810492903	1473810492986	p	80
140228	1523981	Call me to give me a heads up.	Call me to give me a heads up.	72442555	1473810493098	1473810493178	.	190
140228	1524012	Tell her to get my expense report done.	Tell her to get my expense report done.	72443440	1473810512104	1473810512262	SHIFT	16
140228	1524012	Tell her to get my expense report done.	Tell her to get my expense report done.	72443443	1473810512257	1473810512301	T	84
140228	1524012	Tell her to get my expense report done.	Tell her to get my expense report done.	72443445	1473810512375	1473810512455	e	69
140228	1524012	Tell her to get my expense report done.	Tell her to get my expense report done.	72443447	1473810512457	1473810512496	l	76
140228	1524012	Tell her to get my expense report done.	Tell her to get my expense report done.	72443450	1473810512571	1473810512650	l	76
140228	1524012	Tell her to get my expense report done.	Tell her to get my expense report done.	72443455	1473810512653	1473810512730	 	32
140228	1524012	Tell her to get my expense report done.	Tell her to get my expense report done.	72443464	1473810512766	1473810512848	h	72
140228	1524012	Tell her to get my expense report done.	Tell her to get my expense report done.	72443466	1473810512843	1473810512962	e	69
140228	1524012	Tell her to get my expense report done.	Tell her to get my expense report done.	72443469	1473810512921	1473810513004	r	82
140228	1524012	Tell her to get my expense report done.	Tell her to get my expense report done.	72443474	1473810512965	1473810513044	 	32
140228	1524012	Tell her to get my expense report done.	Tell her to get my expense report done.	72443478	1473810513081	1473810513180	t	84
140228	1524012	Tell her to get my expense report done.	Tell her to get my expense report done.	72443484	1473810513119	1473810513221	o	79
140228	1524012	Tell her to get my expense report done.	Tell her to get my expense report done.	72443486	1473810513183	1473810513301	 	32
140228	1524012	Tell her to get my expense report done.	Tell her to get my expense report done.	72443494	1473810513296	1473810513380	g	71
140228	1524012	Tell her to get my expense report done.	Tell her to get my expense report done.	72443500	1473810513374	1473810513513	e	69
140228	1524012	Tell her to get my expense report done.	Tell her to get my expense report done.	72443507	1473810513453	1473810513555	t	84
140228	1524012	Tell her to get my expense report done.	Tell her to get my expense report done.	72443529	1473810513516	1473810513633	 	32
140228	1524012	Tell her to get my expense report done.	Tell her to get my expense report done.	72443532	1473810513707	1473810513788	m	77
140228	1524012	Tell her to get my expense report done.	Tell her to get my expense report done.	72443534	1473810513899	1473810514018	y	89
140228	1524012	Tell her to get my expense report done.	Tell her to get my expense report done.	72443539	1473810513976	1473810514099	 	32
140228	1524012	Tell her to get my expense report done.	Tell her to get my expense report done.	72443544	1473810514093	1473810514175	e	69
140228	1524012	Tell her to get my expense report done.	Tell her to get my expense report done.	72443549	1473810514249	1473810514330	x	88
140228	1524012	Tell her to get my expense report done.	Tell her to get my expense report done.	72443567	1473810514332	1473810514411	p	80
140228	1524012	Tell her to get my expense report done.	Tell her to get my expense report done.	72443568	1473810514405	1473810514525	e	69
140228	1524012	Tell her to get my expense report done.	Tell her to get my expense report done.	72443570	1473810514527	1473810514614	n	78
140228	1524012	Tell her to get my expense report done.	Tell her to get my expense report done.	72443572	1473810514993	1473810515112	s	83
140228	1524012	Tell her to get my expense report done.	Tell her to get my expense report done.	72443602	1473810515070	1473810515191	e	69
140228	1524012	Tell her to get my expense report done.	Tell her to get my expense report done.	72443605	1473810515148	1473810515231	 	32
140228	1524012	Tell her to get my expense report done.	Tell her to get my expense report done.	72443608	1473810515419	1473810515538	r	82
140228	1524012	Tell her to get my expense report done.	Tell her to get my expense report done.	72443610	1473810515496	1473810515616	e	69
140228	1524012	Tell her to get my expense report done.	Tell her to get my expense report done.	72443612	1473810515618	1473810515695	p	80
140228	1524012	Tell her to get my expense report done.	Tell her to get my expense report done.	72443616	1473810515731	1473810515852	o	79
140228	1524012	Tell her to get my expense report done.	Tell her to get my expense report done.	72443629	1473810515846	1473810515928	r	82
140228	1524012	Tell her to get my expense report done.	Tell her to get my expense report done.	72443635	1473810516002	1473810516082	t	84
140228	1524012	Tell her to get my expense report done.	Tell her to get my expense report done.	72443638	1473810516085	1473810516162	 	32
140228	1524012	Tell her to get my expense report done.	Tell her to get my expense report done.	72443644	1473810516204	1473810516322	d	68
140228	1524012	Tell her to get my expense report done.	Tell her to get my expense report done.	72443649	1473810516325	1473810516403	o	79
140228	1524012	Tell her to get my expense report done.	Tell her to get my expense report done.	72443658	1473810516397	1473810516482	n	78
140228	1524012	Tell her to get my expense report done.	Tell her to get my expense report done.	72443661	1473810516476	1473810516558	e	69
140228	1524012	Tell her to get my expense report done.	Tell her to get my expense report done.	72443665	1473810516561	1473810516637	.	190
140228	1524016	Thanks - that's what I was hoping it was.	Thanks - that's what I was hoing it was.	72458939	1473810831757	1473810831946	SHIFT	16
140228	1524016	Thanks - that's what I was hoping it was.	Thanks - that's what I was hoing it was.	72458943	1473810831946	1473810832028	T	84
140228	1524016	Thanks - that's what I was hoping it was.	Thanks - that's what I was hoing it was.	72458949	1473810832028	1473810832096	h	72
140228	1524016	Thanks - that's what I was hoping it was.	Thanks - that's what I was hoing it was.	72458955	1473810832121	1473810832237	a	65
140228	1524016	Thanks - that's what I was hoping it was.	Thanks - that's what I was hoing it was.	72458962	1473810832186	1473810832288	n	78
140228	1524016	Thanks - that's what I was hoping it was.	Thanks - that's what I was hoing it was.	72459043	1473810832237	1473810832305	k	75
140228	1524016	Thanks - that's what I was hoping it was.	Thanks - that's what I was hoing it was.	72459048	1473810832352	1473810832438	s	83
140228	1524016	Thanks - that's what I was hoping it was.	Thanks - that's what I was hoing it was.	72459056	1473810832735	1473810832821	 	32
140228	1524016	Thanks - that's what I was hoping it was.	Thanks - that's what I was hoing it was.	72459067	1473810832868	1473810833149	SHIFT	16
140228	1524016	Thanks - that's what I was hoping it was.	Thanks - that's what I was hoing it was.	72459061	1473810833024	1473810833133	_	189
140228	1524016	Thanks - that's what I was hoping it was.	Thanks - that's what I was hoing it was.	72459074	1473810833539	1473810833604	BKSP	8
140228	1524016	Thanks - that's what I was hoping it was.	Thanks - that's what I was hoing it was.	72459076	1473810833714	1473810833796	-	189
140228	1524016	Thanks - that's what I was hoping it was.	Thanks - that's what I was hoing it was.	72459079	1473810833905	1473810833988	 	32
140228	1524016	Thanks - that's what I was hoping it was.	Thanks - that's what I was hoing it was.	72459122	1473810834034	1473810834203	SHIFT	16
140228	1524016	Thanks - that's what I was hoping it was.	Thanks - that's what I was hoing it was.	72459127	1473810834144	1473810834250	T	84
140228	1524016	Thanks - that's what I was hoping it was.	Thanks - that's what I was hoing it was.	72459132	1473810834250	1473810834313	h	72
140228	1524016	Thanks - that's what I was hoping it was.	Thanks - that's what I was hoing it was.	72459138	1473810834526	1473810834618	BKSP	8
140228	1524016	Thanks - that's what I was hoping it was.	Thanks - that's what I was hoing it was.	72459142	1473810834711	1473810834779	BKSP	8
140228	1524016	Thanks - that's what I was hoping it was.	Thanks - that's what I was hoing it was.	72459150	1473810834826	1473810834918	t	84
140228	1524016	Thanks - that's what I was hoping it was.	Thanks - that's what I was hoing it was.	72459157	1473810834918	1473810835014	h	72
140228	1524016	Thanks - that's what I was hoping it was.	Thanks - that's what I was hoing it was.	72459184	1473810834972	1473810835104	a	65
140228	1524016	Thanks - that's what I was hoping it was.	Thanks - that's what I was hoing it was.	72459186	1473810835043	1473810835182	t	84
140228	1524016	Thanks - that's what I was hoping it was.	Thanks - that's what I was hoing it was.	72459192	1473810835291	1473810835385	'	222
140228	1524016	Thanks - that's what I was hoping it was.	Thanks - that's what I was hoing it was.	72459197	1473810835416	1473810835513	s	83
140228	1524016	Thanks - that's what I was hoping it was.	Thanks - that's what I was hoing it was.	72459206	1473810835513	1473810835594	 	32
140228	1524016	Thanks - that's what I was hoping it was.	Thanks - that's what I was hoing it was.	72459213	1473810835735	1473810835887	w	87
140228	1524016	Thanks - that's what I was hoping it was.	Thanks - that's what I was hoing it was.	72459261	1473810835821	1473810835984	a	65
140228	1524016	Thanks - that's what I was hoping it was.	Thanks - that's what I was hoing it was.	72459265	1473810836140	1473810836188	BKSP	8
140228	1524016	Thanks - that's what I was hoping it was.	Thanks - that's what I was hoing it was.	72459268	1473810836299	1473810836400	h	72
140228	1524016	Thanks - that's what I was hoping it was.	Thanks - that's what I was hoing it was.	72459273	1473810836357	1473810836484	a	65
140228	1524016	Thanks - that's what I was hoping it was.	Thanks - that's what I was hoing it was.	72459278	1473810836413	1473810836526	t	84
140228	1524016	Thanks - that's what I was hoping it was.	Thanks - that's what I was hoing it was.	72459284	1473810836487	1473810836553	 	32
140228	1524016	Thanks - that's what I was hoping it was.	Thanks - that's what I was hoing it was.	72459291	1473810836709	1473810836889	SHIFT	16
140228	1524016	Thanks - that's what I was hoping it was.	Thanks - that's what I was hoing it was.	72459317	1473810836818	1473810836928	I	73
140228	1524016	Thanks - that's what I was hoping it was.	Thanks - that's what I was hoing it was.	72459320	1473810836884	1473810836953	 	32
140228	1524016	Thanks - that's what I was hoping it was.	Thanks - that's what I was hoing it was.	72459325	1473810837000	1473810837098	w	87
140228	1524016	Thanks - that's what I was hoping it was.	Thanks - that's what I was hoing it was.	72459330	1473810837053	1473810837222	a	65
140228	1524016	Thanks - that's what I was hoping it was.	Thanks - that's what I was hoing it was.	72459334	1473810837151	1473810837280	s	83
140228	1524016	Thanks - that's what I was hoping it was.	Thanks - that's what I was hoing it was.	72459339	1473810837225	1473810837327	 	32
140228	1524016	Thanks - that's what I was hoping it was.	Thanks - that's what I was hoing it was.	72459342	1473810837405	1473810837541	h	72
140228	1524016	Thanks - that's what I was hoping it was.	Thanks - that's what I was hoing it was.	72459404	1473810837470	1473810837601	o	79
140228	1524016	Thanks - that's what I was hoping it was.	Thanks - that's what I was hoing it was.	72459407	1473810837727	1473810837866	i	73
140228	1524016	Thanks - that's what I was hoping it was.	Thanks - that's what I was hoing it was.	72459411	1473810837866	1473810837964	n	78
140228	1524016	Thanks - that's what I was hoping it was.	Thanks - that's what I was hoing it was.	72459415	1473810837921	1473810837987	g	71
140228	1524016	Thanks - that's what I was hoping it was.	Thanks - that's what I was hoing it was.	72459419	1473810838003	1473810838119	 	32
140228	1524016	Thanks - that's what I was hoping it was.	Thanks - that's what I was hoing it was.	72459422	1473810838596	1473810838667	i	73
140228	1524016	Thanks - that's what I was hoping it was.	Thanks - that's what I was hoing it was.	72459437	1473810838681	1473810838832	t	84
140228	1524016	Thanks - that's what I was hoping it was.	Thanks - that's what I was hoing it was.	72459440	1473810838764	1473810838862	 	32
140228	1524016	Thanks - that's what I was hoping it was.	Thanks - that's what I was hoing it was.	72459447	1473810838893	1473810839046	w	87
140228	1524016	Thanks - that's what I was hoping it was.	Thanks - that's what I was hoing it was.	72459452	1473810838985	1473810839171	a	65
140228	1524016	Thanks - that's what I was hoping it was.	Thanks - that's what I was hoing it was.	72459465	1473810839102	1473810839176	s	83
140228	1524016	Thanks - that's what I was hoping it was.	Thanks - that's what I was hoing it was.	72459466	1473810839399	1473810839488	.	190
140228	1524350	He was replaced by Kent Graham.	He was replaced by Kent Graham.	72459768	1473810842701	1473810844155	SHIFT	16
140228	1524350	He was replaced by Kent Graham.	He was replaced by Kent Graham.	72459770	1473810844140	1473810844235	H	72
140228	1524350	He was replaced by Kent Graham.	He was replaced by Kent Graham.	72459776	1473810844313	1473810844427	e	69
140228	1524350	He was replaced by Kent Graham.	He was replaced by Kent Graham.	72459784	1473810844427	1473810844520	 	32
140228	1524350	He was replaced by Kent Graham.	He was replaced by Kent Graham.	72459791	1473810844551	1473810844703	w	87
140228	1524350	He was replaced by Kent Graham.	He was replaced by Kent Graham.	72459806	1473810844653	1473810844794	a	65
140228	1524350	He was replaced by Kent Graham.	He was replaced by Kent Graham.	72459809	1473810844722	1473810844854	s	83
140228	1524350	He was replaced by Kent Graham.	He was replaced by Kent Graham.	72459812	1473810844797	1473810844870	 	32
140228	1524350	He was replaced by Kent Graham.	He was replaced by Kent Graham.	72459815	1473810844932	1473810845071	r	82
140228	1524350	He was replaced by Kent Graham.	He was replaced by Kent Graham.	72459821	1473810845021	1473810845149	e	69
140228	1524350	He was replaced by Kent Graham.	He was replaced by Kent Graham.	72459830	1473810845149	1473810845237	p	80
140228	1524350	He was replaced by Kent Graham.	He was replaced by Kent Graham.	72459875	1473810845319	1473810845402	l	76
140228	1524350	He was replaced by Kent Graham.	He was replaced by Kent Graham.	72459877	1473810845402	1473810845582	a	65
140228	1524350	He was replaced by Kent Graham.	He was replaced by Kent Graham.	72459881	1473810845517	1473810845654	c	67
140228	1524350	He was replaced by Kent Graham.	He was replaced by Kent Graham.	72459886	1473810845604	1473810845732	e	69
140228	1524350	He was replaced by Kent Graham.	He was replaced by Kent Graham.	72459890	1473810846075	1473810846168	d	68
140228	1524350	He was replaced by Kent Graham.	He was replaced by Kent Graham.	72459914	1473810846168	1473810846254	 	32
140228	1524350	He was replaced by Kent Graham.	He was replaced by Kent Graham.	72459915	1473810846332	1473810846436	b	66
140228	1524350	He was replaced by Kent Graham.	He was replaced by Kent Graham.	72459917	1473810846436	1473810846570	y	89
140228	1524350	He was replaced by Kent Graham.	He was replaced by Kent Graham.	72459921	1473810846519	1473810846602	 	32
140228	1524350	He was replaced by Kent Graham.	He was replaced by Kent Graham.	72459943	1473810846680	1473810846851	SHIFT	16
140228	1524350	He was replaced by Kent Graham.	He was replaced by Kent Graham.	72459923	1473810846742	1473810846851	K	75
140228	1524350	He was replaced by Kent Graham.	He was replaced by Kent Graham.	72459947	1473810846883	1473810846955	e	69
140228	1524350	He was replaced by Kent Graham.	He was replaced by Kent Graham.	72459950	1473810846987	1473810847100	n	78
140228	1524350	He was replaced by Kent Graham.	He was replaced by Kent Graham.	72459953	1473810847100	1473810847187	t	84
140228	1524350	He was replaced by Kent Graham.	He was replaced by Kent Graham.	72459956	1473810847234	1473810847290	 	32
140228	1524350	He was replaced by Kent Graham.	He was replaced by Kent Graham.	72459959	1473810847293	1473810847456	SHIFT	16
140228	1524350	He was replaced by Kent Graham.	He was replaced by Kent Graham.	72459978	1473810847385	1473810847487	G	71
140228	1524350	He was replaced by Kent Graham.	He was replaced by Kent Graham.	72459983	1473810847571	1473810847703	r	82
140228	1524350	He was replaced by Kent Graham.	He was replaced by Kent Graham.	72459989	1473810847652	1473810847735	a	65
140228	1524350	He was replaced by Kent Graham.	He was replaced by Kent Graham.	72459993	1473810847766	1473810847854	h	72
140228	1524350	He was replaced by Kent Graham.	He was replaced by Kent Graham.	72459997	1473810847980	1473810848063	a	65
140228	1524350	He was replaced by Kent Graham.	He was replaced by Kent Graham.	72460000	1473810848172	1473810848252	m	77
140228	1524350	He was replaced by Kent Graham.	He was replaced by Kent Graham.	72460007	1473810848440	1473810848520	.	190
140228	1524357	What is going on?	What is going on?	72460215	1473810851933	1473810852104	SHIFT	16
140228	1524357	What is going on?	What is going on?	72460220	1473810852058	1473810852151	W	87
140228	1524357	What is going on?	What is going on?	72460227	1473810852182	1473810852303	h	72
140228	1524357	What is going on?	What is going on?	72460230	1473810852270	1473810852380	a	65
140228	1524357	What is going on?	What is going on?	72460234	1473810852337	1473810852450	t	84
140228	1524357	What is going on?	What is going on?	72460236	1473810852824	1473810852917	 	32
140228	1524357	What is going on?	What is going on?	72460241	1473810852996	1473810853065	i	73
140228	1524357	What is going on?	What is going on?	72460244	1473810853061	1473810853128	s	83
140228	1524357	What is going on?	What is going on?	72460248	1473810853128	1473810853179	 	32
140228	1524357	What is going on?	What is going on?	72460253	1473810853210	1473810853294	g	71
140228	1524357	What is going on?	What is going on?	72460260	1473810853294	1473810853455	o	79
140228	1524357	What is going on?	What is going on?	72460294	1473810853337	1473810853493	i	73
140228	1524357	What is going on?	What is going on?	72460298	1473810853420	1473810853546	n	78
140228	1524357	What is going on?	What is going on?	72460302	1473810853489	1473810853611	g	71
140228	1524357	What is going on?	What is going on?	72460308	1473810853546	1473810853630	 	32
140228	1524357	What is going on?	What is going on?	72460313	1473810853676	1473810853824	o	79
140228	1524357	What is going on?	What is going on?	72460317	1473810853766	1473810853885	n	78
140228	1524357	What is going on?	What is going on?	72460324	1473810854156	1473810854369	SHIFT	16
140228	1524357	What is going on?	What is going on?	72460307	1473810854283	1473810854404	?	191
140228	1524365	On appeal they were finally placed in Division Two.	On appeal the wer efinally placed in Division Two.	72460481	1473810856684	1473810856942	SHIFT	16
140228	1524365	On appeal they were finally placed in Division Two.	On appeal the wer efinally placed in Division Two.	72460484	1473810856872	1473810856970	O	79
140228	1524365	On appeal they were finally placed in Division Two.	On appeal the wer efinally placed in Division Two.	72460487	1473810857235	1473810857318	n	78
140228	1524365	On appeal they were finally placed in Division Two.	On appeal the wer efinally placed in Division Two.	72460492	1473810857318	1473810857401	 	32
140228	1524365	On appeal they were finally placed in Division Two.	On appeal the wer efinally placed in Division Two.	72460495	1473810857432	1473810857566	a	65
140228	1524365	On appeal they were finally placed in Division Two.	On appeal the wer efinally placed in Division Two.	72460497	1473810857566	1473810857626	p	80
140228	1524365	On appeal they were finally placed in Division Two.	On appeal the wer efinally placed in Division Two.	72460510	1473810857694	1473810857762	p	80
140228	1524365	On appeal they were finally placed in Division Two.	On appeal the wer efinally placed in Division Two.	72460515	1473810857809	1473810857946	e	69
140228	1524365	On appeal they were finally placed in Division Two.	On appeal the wer efinally placed in Division Two.	72460520	1473810857893	1473810858028	a	65
140228	1524365	On appeal they were finally placed in Division Two.	On appeal the wer efinally placed in Division Two.	72460525	1473810857978	1473810858091	l	76
140228	1524365	On appeal they were finally placed in Division Two.	On appeal the wer efinally placed in Division Two.	72460530	1473810858091	1473810858170	 	32
140228	1524365	On appeal they were finally placed in Division Two.	On appeal the wer efinally placed in Division Two.	72460548	1473810858217	1473810858334	t	84
140228	1524365	On appeal they were finally placed in Division Two.	On appeal the wer efinally placed in Division Two.	72460550	1473810858334	1473810858436	h	72
140228	1524365	On appeal they were finally placed in Division Two.	On appeal the wer efinally placed in Division Two.	72460554	1473810858420	1473810858553	e	69
140228	1524365	On appeal they were finally placed in Division Two.	On appeal the wer efinally placed in Division Two.	72460557	1473810858486	1473810858600	 	32
140228	1524365	On appeal they were finally placed in Division Two.	On appeal the wer efinally placed in Division Two.	72460560	1473810858631	1473810858759	w	87
140228	1524365	On appeal they were finally placed in Division Two.	On appeal the wer efinally placed in Division Two.	72460575	1473810858759	1473810858850	e	69
140228	1524365	On appeal they were finally placed in Division Two.	On appeal the wer efinally placed in Division Two.	72460580	1473810858850	1473810858937	r	82
140228	1524365	On appeal they were finally placed in Division Two.	On appeal the wer efinally placed in Division Two.	72460585	1473810858937	1473810859047	 	32
140228	1524365	On appeal they were finally placed in Division Two.	On appeal the wer efinally placed in Division Two.	72460582	1473810858998	1473810859041	e	69
140228	1524365	On appeal they were finally placed in Division Two.	On appeal the wer efinally placed in Division Two.	72460588	1473810859147	1473810859285	f	70
140228	1524365	On appeal they were finally placed in Division Two.	On appeal the wer efinally placed in Division Two.	72460608	1473810859229	1473810859312	i	73
140228	1524365	On appeal they were finally placed in Division Two.	On appeal the wer efinally placed in Division Two.	72460611	1473810859344	1473810859458	n	78
140228	1524365	On appeal they were finally placed in Division Two.	On appeal the wer efinally placed in Division Two.	72460613	1473810859427	1473810859510	a	65
140228	1524365	On appeal they were finally placed in Division Two.	On appeal the wer efinally placed in Division Two.	72460616	1473810859510	1473810859579	l	76
140228	1524365	On appeal they were finally placed in Division Two.	On appeal the wer efinally placed in Division Two.	72460619	1473810859649	1473810859737	l	76
140228	1524365	On appeal they were finally placed in Division Two.	On appeal the wer efinally placed in Division Two.	72460623	1473810859768	1473810859916	y	89
140228	1524365	On appeal they were finally placed in Division Two.	On appeal the wer efinally placed in Division Two.	72460638	1473810859851	1473810859945	 	32
140228	1524365	On appeal they were finally placed in Division Two.	On appeal the wer efinally placed in Division Two.	72460641	1473810859993	1473810860086	p	80
140228	1524365	On appeal they were finally placed in Division Two.	On appeal the wer efinally placed in Division Two.	72460645	1473810860117	1473810860250	l	76
140228	1524365	On appeal they were finally placed in Division Two.	On appeal the wer efinally placed in Division Two.	72460648	1473810860234	1473810860419	a	65
140228	1524365	On appeal they were finally placed in Division Two.	On appeal the wer efinally placed in Division Two.	72460650	1473810860336	1473810860470	c	67
140228	1524365	On appeal they were finally placed in Division Two.	On appeal the wer efinally placed in Division Two.	72460662	1473810860419	1473810860535	e	69
140228	1524365	On appeal they were finally placed in Division Two.	On appeal the wer efinally placed in Division Two.	72460665	1473810860613	1473810860758	d	68
140228	1524365	On appeal they were finally placed in Division Two.	On appeal the wer efinally placed in Division Two.	72460668	1473810860695	1473810860780	 	32
140228	1524365	On appeal they were finally placed in Division Two.	On appeal the wer efinally placed in Division Two.	72460673	1473810860826	1473810860979	i	73
140228	1524365	On appeal they were finally placed in Division Two.	On appeal the wer efinally placed in Division Two.	72460677	1473810860918	1473810861079	n	78
140228	1524365	On appeal they were finally placed in Division Two.	On appeal the wer efinally placed in Division Two.	72460734	1473810861011	1473810861150	 	32
140228	1524365	On appeal they were finally placed in Division Two.	On appeal the wer efinally placed in Division Two.	72460738	1473810861368	1473810861508	SHIFT	16
140228	1524365	On appeal they were finally placed in Division Two.	On appeal the wer efinally placed in Division Two.	72460742	1473810861493	1473810861599	D	68
140228	1524365	On appeal they were finally placed in Division Two.	On appeal the wer efinally placed in Division Two.	72460746	1473810861662	1473810861736	i	73
140228	1524365	On appeal they were finally placed in Division Two.	On appeal the wer efinally placed in Division Two.	72460750	1473810861727	1473810861826	v	86
140228	1524365	On appeal they were finally placed in Division Two.	On appeal the wer efinally placed in Division Two.	72460753	1473810862345	1473810862411	i	73
140228	1524365	On appeal they were finally placed in Division Two.	On appeal the wer efinally placed in Division Two.	72460757	1473810862489	1473810862586	s	83
140228	1524365	On appeal they were finally placed in Division Two.	On appeal the wer efinally placed in Division Two.	72460762	1473810862537	1473810862734	i	73
140228	1524365	On appeal they were finally placed in Division Two.	On appeal the wer efinally placed in Division Two.	72460760	1473810862586	1473810862703	o	79
140228	1524365	On appeal they were finally placed in Division Two.	On appeal the wer efinally placed in Division Two.	72460767	1473810862653	1473810862802	n	78
140228	1524365	On appeal they were finally placed in Division Two.	On appeal the wer efinally placed in Division Two.	72460771	1473810862734	1473810862868	 	32
140228	1524365	On appeal they were finally placed in Division Two.	On appeal the wer efinally placed in Division Two.	72460782	1473810862868	1473810863076	SHIFT	16
140228	1524365	On appeal they were finally placed in Division Two.	On appeal the wer efinally placed in Division Two.	72460777	1473810862977	1473810863060	T	84
140228	1524365	On appeal they were finally placed in Division Two.	On appeal the wer efinally placed in Division Two.	72460786	1473810863107	1473810863153	e	69
140228	1524365	On appeal they were finally placed in Division Two.	On appeal the wer efinally placed in Division Two.	72460828	1473810863297	1473810863339	w	87
140228	1524365	On appeal they were finally placed in Division Two.	On appeal the wer efinally placed in Division Two.	72460832	1473810863556	1473810863618	BKSP	8
140228	1524365	On appeal they were finally placed in Division Two.	On appeal the wer efinally placed in Division Two.	72460836	1473810863681	1473810863786	BKSP	8
140228	1524365	On appeal they were finally placed in Division Two.	On appeal the wer efinally placed in Division Two.	72460840	1473810863817	1473810863903	w	87
140228	1524365	On appeal they were finally placed in Division Two.	On appeal the wer efinally placed in Division Two.	72460841	1473810863903	1473810863993	o	79
140228	1524365	On appeal they were finally placed in Division Two.	On appeal the wer efinally placed in Division Two.	72460843	1473810864071	1473810864169	.	190
140228	1524365	On appeal they were finally placed in Division Two.	On appeal the wer efinally placed in Division Two.	72460844	1473810864263	1473810864341	SHIFT	16
140228	1524378	We are all doing reasonably well, I think.	We are all doing tresonably well, I think.	72461032	1473810868982	1473810869302	SHIFT	16
140228	1524378	We are all doing reasonably well, I think.	We are all doing tresonably well, I think.	72461030	1473810869203	1473810869302	W	87
140228	1524378	We are all doing reasonably well, I think.	We are all doing tresonably well, I think.	72461035	1473810869364	1473810869468	e	69
140228	1524378	We are all doing reasonably well, I think.	We are all doing tresonably well, I think.	72461037	1473810869468	1473810869552	 	32
140228	1524378	We are all doing reasonably well, I think.	We are all doing tresonably well, I think.	72461039	1473810869583	1473810869711	a	65
140228	1524378	We are all doing reasonably well, I think.	We are all doing tresonably well, I think.	72461054	1473810869643	1473810869762	r	82
140228	1524378	We are all doing reasonably well, I think.	We are all doing tresonably well, I think.	72461057	1473810869711	1473810869794	e	69
140228	1524378	We are all doing reasonably well, I think.	We are all doing tresonably well, I think.	72461060	1473810869794	1473810869876	 	32
140228	1524378	We are all doing reasonably well, I think.	We are all doing tresonably well, I think.	72461062	1473810869956	1473810870096	a	65
140228	1524378	We are all doing reasonably well, I think.	We are all doing tresonably well, I think.	72461063	1473810870096	1473810870160	l	76
140228	1524378	We are all doing reasonably well, I think.	We are all doing tresonably well, I think.	72461064	1473810870252	1473810870358	l	76
140228	1524378	We are all doing reasonably well, I think.	We are all doing tresonably well, I think.	72461078	1473810870302	1473810870418	 	32
140228	1524378	We are all doing reasonably well, I think.	We are all doing tresonably well, I think.	72461080	1473810870496	1473810870578	d	68
140228	1524378	We are all doing reasonably well, I think.	We are all doing tresonably well, I think.	72461085	1473810870578	1473810870749	o	79
140228	1524378	We are all doing reasonably well, I think.	We are all doing tresonably well, I think.	72461088	1473810870659	1473810870836	i	73
140228	1524378	We are all doing reasonably well, I think.	We are all doing tresonably well, I think.	72461118	1473810870749	1473810870886	n	78
140228	1524378	We are all doing reasonably well, I think.	We are all doing tresonably well, I think.	72461121	1473810870836	1473810870935	g	71
140228	1524378	We are all doing reasonably well, I think.	We are all doing tresonably well, I think.	72461123	1473810870886	1473810870998	 	32
140228	1524378	We are all doing reasonably well, I think.	We are all doing tresonably well, I think.	72461125	1473810871045	1473810871169	t	84
140228	1524378	We are all doing reasonably well, I think.	We are all doing tresonably well, I think.	72461128	1473810871099	1473810871220	r	82
140228	1524378	We are all doing reasonably well, I think.	We are all doing tresonably well, I think.	72461131	1473810871169	1473810871299	e	69
140228	1524378	We are all doing reasonably well, I think.	We are all doing tresonably well, I think.	72461134	1473810871408	1473810871560	s	83
140228	1524378	We are all doing reasonably well, I think.	We are all doing tresonably well, I think.	72461183	1473810871499	1473810871648	o	79
140228	1524378	We are all doing reasonably well, I think.	We are all doing tresonably well, I think.	72461189	1473810871617	1473810871703	n	78
140228	1524378	We are all doing reasonably well, I think.	We are all doing tresonably well, I think.	72461195	1473810871750	1473810871867	a	65
140228	1524378	We are all doing reasonably well, I think.	We are all doing tresonably well, I think.	72461200	1473810871883	1473810872001	l	76
140228	1524378	We are all doing reasonably well, I think.	We are all doing tresonably well, I think.	72461205	1473810872442	1473810872503	BKSP	8
140228	1524378	We are all doing reasonably well, I think.	We are all doing tresonably well, I think.	72461208	1473810872535	1473810872617	b	66
140228	1524378	We are all doing reasonably well, I think.	We are all doing tresonably well, I think.	72461211	1473810872617	1473810872703	l	76
140228	1524378	We are all doing reasonably well, I think.	We are all doing tresonably well, I think.	72461220	1473810872751	1473810872930	y	89
140228	1524378	We are all doing reasonably well, I think.	We are all doing tresonably well, I think.	72461223	1473810872866	1473810872971	 	32
140228	1524378	We are all doing reasonably well, I think.	We are all doing tresonably well, I think.	72461227	1473810873115	1473810873253	w	87
140228	1524378	We are all doing reasonably well, I think.	We are all doing tresonably well, I think.	72461231	1473810873203	1473810873367	e	69
140228	1524378	We are all doing reasonably well, I think.	We are all doing tresonably well, I think.	72461276	1473810873284	1473810873367	l	76
140228	1524378	We are all doing reasonably well, I think.	We are all doing tresonably well, I think.	72461278	1473810873429	1473810873502	l	76
140228	1524378	We are all doing reasonably well, I think.	We are all doing tresonably well, I think.	72461282	1473810873564	1473810873724	,	188
140228	1524378	We are all doing reasonably well, I think.	We are all doing tresonably well, I think.	72461286	1473810873668	1473810873753	 	32
140228	1524378	We are all doing reasonably well, I think.	We are all doing tresonably well, I think.	72461290	1473810873862	1473810874020	SHIFT	16
140228	1524378	We are all doing reasonably well, I think.	We are all doing tresonably well, I think.	72461294	1473810873971	1473810874119	I	73
140228	1524378	We are all doing reasonably well, I think.	We are all doing tresonably well, I think.	72461302	1473810874052	1473810874152	 	32
140228	1524378	We are all doing reasonably well, I think.	We are all doing tresonably well, I think.	72461306	1473810874184	1473810874267	t	84
140228	1524378	We are all doing reasonably well, I think.	We are all doing tresonably well, I think.	72461309	1473810874283	1473810874336	h	72
140228	1524378	We are all doing reasonably well, I think.	We are all doing tresonably well, I think.	72461312	1473810874338	1473810874456	i	73
140228	1524378	We are all doing reasonably well, I think.	We are all doing tresonably well, I think.	72461317	1473810874395	1473810874579	n	78
140228	1524378	We are all doing reasonably well, I think.	We are all doing tresonably well, I think.	72461326	1473810874510	1473810874607	k	75
140228	1524378	We are all doing reasonably well, I think.	We are all doing tresonably well, I think.	72461333	1473810874670	1473810874801	.	190
140228	1524382	I think FMV is probably less than fifty.	I think FMV is probably less than fifty.	72461431	1473810877099	1473810877396	SHIFT	16
140228	1524382	I think FMV is probably less than fifty.	I think FMV is probably less than fifty.	72461432	1473810877333	1473810877469	I	73
140228	1524382	I think FMV is probably less than fifty.	I think FMV is probably less than fifty.	72461433	1473810877419	1473810877500	 	32
140228	1524382	I think FMV is probably less than fifty.	I think FMV is probably less than fifty.	72461435	1473810877548	1473810877652	t	84
140228	1524382	I think FMV is probably less than fifty.	I think FMV is probably less than fifty.	72461437	1473810877609	1473810877677	h	72
140228	1524382	I think FMV is probably less than fifty.	I think FMV is probably less than fifty.	72461441	1473810877677	1473810877807	i	73
140228	1524382	I think FMV is probably less than fifty.	I think FMV is probably less than fifty.	72461478	1473810877807	1473810877961	n	78
140228	1524382	I think FMV is probably less than fifty.	I think FMV is probably less than fifty.	72461480	1473810877900	1473810878035	k	75
140228	1524382	I think FMV is probably less than fifty.	I think FMV is probably less than fifty.	72461484	1473810877963	1473810878066	 	32
140228	1524382	I think FMV is probably less than fifty.	I think FMV is probably less than fifty.	72461498	1473810878066	1473810878575	SHIFT	16
140228	1524382	I think FMV is probably less than fifty.	I think FMV is probably less than fifty.	72461487	1473810878144	1473810878226	F	70
140228	1524382	I think FMV is probably less than fifty.	I think FMV is probably less than fifty.	72461493	1473810878304	1473810878419	V	86
140228	1524382	I think FMV is probably less than fifty.	I think FMV is probably less than fifty.	72461502	1473810878700	1473810878758	BKSP	8
140228	1524382	I think FMV is probably less than fifty.	I think FMV is probably less than fifty.	72461511	1473810878817	1473810879210	SHIFT	16
140228	1524382	I think FMV is probably less than fifty.	I think FMV is probably less than fifty.	72461505	1473810878897	1473810879036	M	77
140228	1524382	I think FMV is probably less than fifty.	I think FMV is probably less than fifty.	72461510	1473810878986	1473810879115	V	86
140228	1524382	I think FMV is probably less than fifty.	I think FMV is probably less than fifty.	72461512	1473810879147	1473810879236	 	32
140228	1524382	I think FMV is probably less than fifty.	I think FMV is probably less than fifty.	72461513	1473810879345	1473810879444	i	73
140228	1524382	I think FMV is probably less than fifty.	I think FMV is probably less than fifty.	72461514	1473810879444	1473810879526	s	83
140228	1524382	I think FMV is probably less than fifty.	I think FMV is probably less than fifty.	72461515	1473810879526	1473810879586	 	32
140228	1524382	I think FMV is probably less than fifty.	I think FMV is probably less than fifty.	72461516	1473810879714	1473810879786	p	80
140228	1524382	I think FMV is probably less than fifty.	I think FMV is probably less than fifty.	72461532	1473810879786	1473810879898	r	82
140228	1524382	I think FMV is probably less than fifty.	I think FMV is probably less than fifty.	72461534	1473810879898	1473810879986	o	79
140228	1524382	I think FMV is probably less than fifty.	I think FMV is probably less than fifty.	72461537	1473810880033	1473810880151	b	66
140228	1524382	I think FMV is probably less than fifty.	I think FMV is probably less than fifty.	72461540	1473810880151	1473810880298	a	65
140228	1524382	I think FMV is probably less than fifty.	I think FMV is probably less than fifty.	72461542	1473810880234	1473810880365	b	66
140228	1524382	I think FMV is probably less than fifty.	I think FMV is probably less than fifty.	72461543	1473810880365	1473810880453	l	76
140228	1524382	I think FMV is probably less than fifty.	I think FMV is probably less than fifty.	72461545	1473810880453	1473810880565	y	89
140228	1524382	I think FMV is probably less than fifty.	I think FMV is probably less than fifty.	72461547	1473810880502	1473810880585	 	32
140228	1524382	I think FMV is probably less than fifty.	I think FMV is probably less than fifty.	72461549	1473810880616	1473810880765	l	76
140228	1524382	I think FMV is probably less than fifty.	I think FMV is probably less than fifty.	72461551	1473810880797	1473810880886	e	69
140228	1524382	I think FMV is probably less than fifty.	I think FMV is probably less than fifty.	72461553	1473810880964	1473810881032	s	83
140228	1524382	I think FMV is probably less than fifty.	I think FMV is probably less than fifty.	72461555	1473810881100	1473810881186	s	83
140228	1524382	I think FMV is probably less than fifty.	I think FMV is probably less than fifty.	72461557	1473810881186	1473810881301	 	32
140228	1524382	I think FMV is probably less than fifty.	I think FMV is probably less than fifty.	72461559	1473810881269	1473810881427	t	84
140228	1524382	I think FMV is probably less than fifty.	I think FMV is probably less than fifty.	72461562	1473810881361	1473810881476	h	72
140228	1524382	I think FMV is probably less than fifty.	I think FMV is probably less than fifty.	72461566	1473810881444	1473810881514	a	65
140228	1524382	I think FMV is probably less than fifty.	I think FMV is probably less than fifty.	72461571	1473810881653	1473810881792	n	78
140228	1524382	I think FMV is probably less than fifty.	I think FMV is probably less than fifty.	72461592	1473810881734	1473810881851	 	32
140228	1524382	I think FMV is probably less than fifty.	I think FMV is probably less than fifty.	72461594	1473810882007	1473810882100	f	70
140228	1524382	I think FMV is probably less than fifty.	I think FMV is probably less than fifty.	72461595	1473810882131	1473810882203	i	73
140228	1524382	I think FMV is probably less than fifty.	I think FMV is probably less than fifty.	72461596	1473810882236	1473810882348	f	70
140228	1524382	I think FMV is probably less than fifty.	I think FMV is probably less than fifty.	72461597	1473810882457	1473810882552	t	84
140228	1524382	I think FMV is probably less than fifty.	I think FMV is probably less than fifty.	72461601	1473810882584	1473810882667	y	89
140228	1524382	I think FMV is probably less than fifty.	I think FMV is probably less than fifty.	72461608	1473810882932	1473810883019	.	190
140228	1524400	Call me anytime for information.	Call me anytime for information.	72462160	1473810896233	1473810896443	SHIFT	16
140228	1524400	Call me anytime for information.	Call me anytime for information.	72462162	1473810896373	1473810896474	C	67
140228	1524400	Call me anytime for information.	Call me anytime for information.	72462163	1473810896459	1473810896557	a	65
140228	1524400	Call me anytime for information.	Call me anytime for information.	72462164	1473810896557	1473810896608	l	76
140228	1524400	Call me anytime for information.	Call me anytime for information.	72462166	1473810896671	1473810896782	l	76
140228	1524400	Call me anytime for information.	Call me anytime for information.	72462178	1473810896732	1473810896880	 	32
140228	1524400	Call me anytime for information.	Call me anytime for information.	72462181	1473810896848	1473810896947	m	77
140228	1524400	Call me anytime for information.	Call me anytime for information.	72462182	1473810896947	1473810897048	e	69
140228	1524400	Call me anytime for information.	Call me anytime for information.	72462185	1473810897005	1473810897106	 	32
140228	1524400	Call me anytime for information.	Call me anytime for information.	72462187	1473810897137	1473810897246	a	65
140228	1524400	Call me anytime for information.	Call me anytime for information.	72462199	1473810897203	1473810897305	n	78
140228	1524400	Call me anytime for information.	Call me anytime for information.	72462200	1473810897399	1473810897481	y	89
140228	1524400	Call me anytime for information.	Call me anytime for information.	72462201	1473810897512	1473810897623	t	84
140228	1524400	Call me anytime for information.	Call me anytime for information.	72462203	1473810897580	1473810897700	i	73
140228	1524400	Call me anytime for information.	Call me anytime for information.	72462205	1473810897648	1473810897783	m	77
140228	1524400	Call me anytime for information.	Call me anytime for information.	72462210	1473810897731	1473810897832	e	69
140228	1524400	Call me anytime for information.	Call me anytime for information.	72462211	1473810897783	1473810897864	 	32
140228	1524400	Call me anytime for information.	Call me anytime for information.	72462212	1473810897896	1473810898002	f	70
140228	1524400	Call me anytime for information.	Call me anytime for information.	72462213	1473810897960	1473810898078	o	79
140228	1524400	Call me anytime for information.	Call me anytime for information.	72462214	1473810898078	1473810898182	 	82
140228	1524400	Call me anytime for information.	Call me anytime for information.	72462231	1473810898214	1473810898399	i	73
140228	1524400	Call me anytime for information.	Call me anytime for information.	72462234	1473810898329	1473810898428	n	78
140228	1524400	Call me anytime for information.	Call me anytime for information.	72462237	1473810898459	1473810898589	f	70
140228	1524400	Call me anytime for information.	Call me anytime for information.	72462241	1473810898589	1473810898633	o	79
140228	1524400	Call me anytime for information.	Call me anytime for information.	72462243	1473810898680	1473810898766	r	82
140228	1524400	Call me anytime for information.	Call me anytime for information.	72462251	1473810898766	1473810898847	m	77
140228	1524400	Call me anytime for information.	Call me anytime for information.	72462253	1473810898847	1473810898933	a	65
140228	1524400	Call me anytime for information.	Call me anytime for information.	72462256	1473810898964	1473810899065	t	84
140228	1524400	Call me anytime for information.	Call me anytime for information.	72462266	1473810899016	1473810899232	i	73
140228	1524400	Call me anytime for information.	Call me anytime for information.	72462259	1473810899065	1473810899182	o	79
140228	1524400	Call me anytime for information.	Call me anytime for information.	72462268	1473810899114	1473810899264	n	78
140228	1524400	Call me anytime for information.	Call me anytime for information.	72462270	1473810899343	1473810899425	.	190
