PARTICIPANT_ID	TEST_SECTION_ID	SENTENCE	USER_INPUT	KEYSTROKE_ID	PRESS_TIME	RELEASE_TIME	LETTER	KEYCODE
140921	1531931	He disputed reports that Wheatley would be out four weeks.	He dusputed reports taht Wheatley would be out four weeks.	72815579	1473819690195	1473819693473	SHIFT	16
140921	1531931	He disputed reports that Wheatley would be out four weeks.	He dusputed reports taht Wheatley would be out four weeks.	72815582	1473819693458	1473819693537	H	72
140921	1531931	He disputed reports that Wheatley would be out four weeks.	He dusputed reports taht Wheatley would be out four weeks.	72815586	1473819693553	1473819693657	e	69
140921	1531931	He disputed reports that Wheatley would be out four weeks.	He dusputed reports taht Wheatley would be out four weeks.	72815590	1473819693625	1473819693761	 	32
140921	1531931	He disputed reports that Wheatley would be out four weeks.	He dusputed reports taht Wheatley would be out four weeks.	72815595	1473819693753	1473819693871	d	68
140921	1531931	He disputed reports that Wheatley would be out four weeks.	He dusputed reports taht Wheatley would be out four weeks.	72815610	1473819693870	1473819693930	u	85
140921	1531931	He disputed reports that Wheatley would be out four weeks.	He dusputed reports taht Wheatley would be out four weeks.	72815612	1473819693953	1473819694080	s	83
140921	1531931	He disputed reports that Wheatley would be out four weeks.	He dusputed reports taht Wheatley would be out four weeks.	72815615	1473819694073	1473819694185	p	80
140921	1531931	He disputed reports that Wheatley would be out four weeks.	He dusputed reports taht Wheatley would be out four weeks.	72815619	1473819694249	1473819694345	u	85
140921	1531931	He disputed reports that Wheatley would be out four weeks.	He dusputed reports taht Wheatley would be out four weeks.	72815622	1473819694370	1473819694533	t	84
140921	1531931	He disputed reports that Wheatley would be out four weeks.	He dusputed reports taht Wheatley would be out four weeks.	72815626	1473819694457	1473819694553	e	69
140921	1531931	He disputed reports that Wheatley would be out four weeks.	He dusputed reports taht Wheatley would be out four weeks.	72815628	1473819694617	1473819694729	d	68
140921	1531931	He disputed reports that Wheatley would be out four weeks.	He dusputed reports taht Wheatley would be out four weeks.	72815630	1473819694689	1473819694800	 	32
140921	1531931	He disputed reports that Wheatley would be out four weeks.	He dusputed reports taht Wheatley would be out four weeks.	72815634	1473819694769	1473819694952	r	82
140921	1531931	He disputed reports that Wheatley would be out four weeks.	He dusputed reports taht Wheatley would be out four weeks.	72815653	1473819694849	1473819694977	e	69
140921	1531931	He disputed reports that Wheatley would be out four weeks.	He dusputed reports taht Wheatley would be out four weeks.	72815658	1473819694937	1473819695097	p	80
140921	1531931	He disputed reports that Wheatley would be out four weeks.	He dusputed reports taht Wheatley would be out four weeks.	72815665	1473819695049	1473819695168	o	79
140921	1531931	He disputed reports that Wheatley would be out four weeks.	He dusputed reports taht Wheatley would be out four weeks.	72815669	1473819695153	1473819695224	r	82
140921	1531931	He disputed reports that Wheatley would be out four weeks.	He dusputed reports taht Wheatley would be out four weeks.	72815672	1473819695321	1473819695457	t	84
140921	1531931	He disputed reports that Wheatley would be out four weeks.	He dusputed reports taht Wheatley would be out four weeks.	72815673	1473819695409	1473819695576	s	83
140921	1531931	He disputed reports that Wheatley would be out four weeks.	He dusputed reports taht Wheatley would be out four weeks.	72815678	1473819695553	1473819695657	 	32
140921	1531931	He disputed reports that Wheatley would be out four weeks.	He dusputed reports taht Wheatley would be out four weeks.	72815680	1473819695584	1473819695705	t	84
140921	1531931	He disputed reports that Wheatley would be out four weeks.	He dusputed reports taht Wheatley would be out four weeks.	72815682	1473819695713	1473819695883	a	65
140921	1531931	He disputed reports that Wheatley would be out four weeks.	He dusputed reports taht Wheatley would be out four weeks.	72815681	1473819695753	1473819695817	h	72
140921	1531931	He disputed reports that Wheatley would be out four weeks.	He dusputed reports taht Wheatley would be out four weeks.	72815684	1473819695858	1473819695977	t	84
140921	1531931	He disputed reports that Wheatley would be out four weeks.	He dusputed reports taht Wheatley would be out four weeks.	72815695	1473819695929	1473819696041	 	32
140921	1531931	He disputed reports that Wheatley would be out four weeks.	He dusputed reports taht Wheatley would be out four weeks.	72815699	1473819696025	1473819696193	SHIFT	16
140921	1531931	He disputed reports that Wheatley would be out four weeks.	He dusputed reports taht Wheatley would be out four weeks.	72815702	1473819696137	1473819696320	W	87
140921	1531931	He disputed reports that Wheatley would be out four weeks.	He dusputed reports taht Wheatley would be out four weeks.	72815705	1473819696313	1473819696425	h	72
140921	1531931	He disputed reports that Wheatley would be out four weeks.	He dusputed reports taht Wheatley would be out four weeks.	72815708	1473819696465	1473819696569	e	69
140921	1531931	He disputed reports that Wheatley would be out four weeks.	He dusputed reports taht Wheatley would be out four weeks.	72815711	1473819696545	1473819696713	a	65
140921	1531931	He disputed reports that Wheatley would be out four weeks.	He dusputed reports taht Wheatley would be out four weeks.	72815717	1473819696657	1473819696761	t	84
140921	1531931	He disputed reports that Wheatley would be out four weeks.	He dusputed reports taht Wheatley would be out four weeks.	72815720	1473819696785	1473819696904	l	76
140921	1531931	He disputed reports that Wheatley would be out four weeks.	He dusputed reports taht Wheatley would be out four weeks.	72815722	1473819696881	1473819697016	e	69
140921	1531931	He disputed reports that Wheatley would be out four weeks.	He dusputed reports taht Wheatley would be out four weeks.	72815725	1473819696993	1473819697121	y	89
140921	1531931	He disputed reports that Wheatley would be out four weeks.	He dusputed reports taht Wheatley would be out four weeks.	72815728	1473819697073	1473819697201	 	32
140921	1531931	He disputed reports that Wheatley would be out four weeks.	He dusputed reports taht Wheatley would be out four weeks.	72815740	1473819697169	1473819697281	w	87
140921	1531931	He disputed reports that Wheatley would be out four weeks.	He dusputed reports taht Wheatley would be out four weeks.	72815741	1473819697226	1473819697361	o	79
140921	1531931	He disputed reports that Wheatley would be out four weeks.	He dusputed reports taht Wheatley would be out four weeks.	72815743	1473819697321	1473819697425	u	85
140921	1531931	He disputed reports that Wheatley would be out four weeks.	He dusputed reports taht Wheatley would be out four weeks.	72815760	1473819697489	1473819697634	l	76
140921	1531931	He disputed reports that Wheatley would be out four weeks.	He dusputed reports taht Wheatley would be out four weeks.	72815745	1473819697521	1473819697633	d	68
140921	1531931	He disputed reports that Wheatley would be out four weeks.	He dusputed reports taht Wheatley would be out four weeks.	72815763	1473819697601	1473819697729	 	32
140921	1531931	He disputed reports that Wheatley would be out four weeks.	He dusputed reports taht Wheatley would be out four weeks.	72815766	1473819697705	1473819697785	b	66
140921	1531931	He disputed reports that Wheatley would be out four weeks.	He dusputed reports taht Wheatley would be out four weeks.	72815768	1473819697841	1473819697945	e	69
140921	1531931	He disputed reports that Wheatley would be out four weeks.	He dusputed reports taht Wheatley would be out four weeks.	72815770	1473819697905	1473819698000	 	32
140921	1531931	He disputed reports that Wheatley would be out four weeks.	He dusputed reports taht Wheatley would be out four weeks.	72815773	1473819697961	1473819698104	o	79
140921	1531931	He disputed reports that Wheatley would be out four weeks.	He dusputed reports taht Wheatley would be out four weeks.	72815778	1473819698049	1473819698145	u	85
140921	1531931	He disputed reports that Wheatley would be out four weeks.	He dusputed reports taht Wheatley would be out four weeks.	72815781	1473819698120	1473819698226	t	84
140921	1531931	He disputed reports that Wheatley would be out four weeks.	He dusputed reports taht Wheatley would be out four weeks.	72815784	1473819698193	1473819698328	 	32
140921	1531931	He disputed reports that Wheatley would be out four weeks.	He dusputed reports taht Wheatley would be out four weeks.	72815787	1473819698321	1473819698417	f	70
140921	1531931	He disputed reports that Wheatley would be out four weeks.	He dusputed reports taht Wheatley would be out four weeks.	72815789	1473819698369	1473819698545	o	79
140921	1531931	He disputed reports that Wheatley would be out four weeks.	He dusputed reports taht Wheatley would be out four weeks.	72815803	1473819698473	1473819698577	u	85
140921	1531931	He disputed reports that Wheatley would be out four weeks.	He dusputed reports taht Wheatley would be out four weeks.	72815807	1473819698561	1473819698689	r	82
140921	1531931	He disputed reports that Wheatley would be out four weeks.	He dusputed reports taht Wheatley would be out four weeks.	72815810	1473819698650	1473819698760	 	32
140921	1531931	He disputed reports that Wheatley would be out four weeks.	He dusputed reports taht Wheatley would be out four weeks.	72815815	1473819698753	1473819698872	w	87
140921	1531931	He disputed reports that Wheatley would be out four weeks.	He dusputed reports taht Wheatley would be out four weeks.	72815818	1473819698817	1473819698928	e	69
140921	1531931	He disputed reports that Wheatley would be out four weeks.	He dusputed reports taht Wheatley would be out four weeks.	72815819	1473819699009	1473819699081	e	69
140921	1531931	He disputed reports that Wheatley would be out four weeks.	He dusputed reports taht Wheatley would be out four weeks.	72815886	1473819699089	1473819699185	k	75
140921	1531931	He disputed reports that Wheatley would be out four weeks.	He dusputed reports taht Wheatley would be out four weeks.	72815892	1473819699193	1473819699297	s	83
140921	1531931	He disputed reports that Wheatley would be out four weeks.	He dusputed reports taht Wheatley would be out four weeks.	72815895	1473819699249	1473819699377	.	190
140921	1531942	He is one of three Eagles who will be held out of the game.	He is one of three Eagles who will be held out of the game. 	72815994	1473819702689	1473819702928	SHIFT	16
140921	1531942	He is one of three Eagles who will be held out of the game.	He is one of three Eagles who will be held out of the game. 	72815997	1473819702857	1473819702968	H	72
140921	1531942	He is one of three Eagles who will be held out of the game.	He is one of three Eagles who will be held out of the game. 	72816000	1473819702953	1473819703064	e	69
140921	1531942	He is one of three Eagles who will be held out of the game.	He is one of three Eagles who will be held out of the game. 	72816008	1473819703026	1473819703120	 	32
140921	1531942	He is one of three Eagles who will be held out of the game.	He is one of three Eagles who will be held out of the game. 	72816015	1473819703105	1473819703216	i	73
140921	1531942	He is one of three Eagles who will be held out of the game.	He is one of three Eagles who will be held out of the game. 	72816030	1473819703185	1473819703312	s	83
140921	1531942	He is one of three Eagles who will be held out of the game.	He is one of three Eagles who will be held out of the game. 	72816034	1473819703273	1473819703368	 	32
140921	1531942	He is one of three Eagles who will be held out of the game.	He is one of three Eagles who will be held out of the game. 	72816037	1473819703353	1473819703512	o	79
140921	1531942	He is one of three Eagles who will be held out of the game.	He is one of three Eagles who will be held out of the game. 	72816040	1473819703440	1473819703560	n	78
140921	1531942	He is one of three Eagles who will be held out of the game.	He is one of three Eagles who will be held out of the game. 	72816042	1473819703528	1473819703641	e	69
140921	1531942	He is one of three Eagles who will be held out of the game.	He is one of three Eagles who will be held out of the game. 	72816048	1473819703601	1473819703688	 	32
140921	1531942	He is one of three Eagles who will be held out of the game.	He is one of three Eagles who will be held out of the game. 	72816051	1473819703697	1473819703825	o	79
140921	1531942	He is one of three Eagles who will be held out of the game.	He is one of three Eagles who will be held out of the game. 	72816054	1473819703761	1473819703856	f	70
140921	1531942	He is one of three Eagles who will be held out of the game.	He is one of three Eagles who will be held out of the game. 	72816057	1473819703833	1473819703952	 	32
140921	1531942	He is one of three Eagles who will be held out of the game.	He is one of three Eagles who will be held out of the game. 	72816059	1473819703937	1473819704032	t	84
140921	1531942	He is one of three Eagles who will be held out of the game.	He is one of three Eagles who will be held out of the game. 	72816065	1473819704017	1473819704121	h	72
140921	1531942	He is one of three Eagles who will be held out of the game.	He is one of three Eagles who will be held out of the game. 	72816068	1473819704128	1473819704257	r	82
140921	1531942	He is one of three Eagles who will be held out of the game.	He is one of three Eagles who will be held out of the game. 	72816070	1473819704201	1473819704304	e	69
140921	1531942	He is one of three Eagles who will be held out of the game.	He is one of three Eagles who will be held out of the game. 	72816072	1473819704361	1473819704440	e	69
140921	1531942	He is one of three Eagles who will be held out of the game.	He is one of three Eagles who will be held out of the game. 	72816074	1473819704417	1473819704537	 	32
140921	1531942	He is one of three Eagles who will be held out of the game.	He is one of three Eagles who will be held out of the game. 	72816078	1473819704528	1473819704697	SHIFT	16
140921	1531942	He is one of three Eagles who will be held out of the game.	He is one of three Eagles who will be held out of the game. 	72816097	1473819704617	1473819704777	E	69
140921	1531942	He is one of three Eagles who will be held out of the game.	He is one of three Eagles who will be held out of the game. 	72816101	1473819704769	1473819704896	a	65
140921	1531942	He is one of three Eagles who will be held out of the game.	He is one of three Eagles who will be held out of the game. 	72816107	1473819704849	1473819704976	g	71
140921	1531942	He is one of three Eagles who will be held out of the game.	He is one of three Eagles who will be held out of the game. 	72816112	1473819704929	1473819705065	l	76
140921	1531942	He is one of three Eagles who will be held out of the game.	He is one of three Eagles who will be held out of the game. 	72816117	1473819705033	1473819705153	e	69
140921	1531942	He is one of three Eagles who will be held out of the game.	He is one of three Eagles who will be held out of the game. 	72816128	1473819705089	1473819705185	s	83
140921	1531942	He is one of three Eagles who will be held out of the game.	He is one of three Eagles who will be held out of the game. 	72816130	1473819705169	1473819705280	 	32
140921	1531942	He is one of three Eagles who will be held out of the game.	He is one of three Eagles who will be held out of the game. 	72816134	1473819705272	1473819705392	w	87
140921	1531942	He is one of three Eagles who will be held out of the game.	He is one of three Eagles who will be held out of the game. 	72816136	1473819705353	1473819705473	h	72
140921	1531942	He is one of three Eagles who will be held out of the game.	He is one of three Eagles who will be held out of the game. 	72816138	1473819705425	1473819705544	o	79
140921	1531942	He is one of three Eagles who will be held out of the game.	He is one of three Eagles who will be held out of the game. 	72816149	1473819705513	1473819705632	 	32
140921	1531942	He is one of three Eagles who will be held out of the game.	He is one of three Eagles who will be held out of the game. 	72816151	1473819705625	1473819705760	w	87
140921	1531942	He is one of three Eagles who will be held out of the game.	He is one of three Eagles who will be held out of the game. 	72816153	1473819705729	1473819705824	i	73
140921	1531942	He is one of three Eagles who will be held out of the game.	He is one of three Eagles who will be held out of the game. 	72816156	1473819705897	1473819705968	l	76
140921	1531942	He is one of three Eagles who will be held out of the game.	He is one of three Eagles who will be held out of the game. 	72816159	1473819706044	1473819706136	l	76
140921	1531942	He is one of three Eagles who will be held out of the game.	He is one of three Eagles who will be held out of the game. 	72816168	1473819706129	1473819706224	 	32
140921	1531942	He is one of three Eagles who will be held out of the game.	He is one of three Eagles who will be held out of the game. 	72816169	1473819706233	1473819706328	b	66
140921	1531942	He is one of three Eagles who will be held out of the game.	He is one of three Eagles who will be held out of the game. 	72816170	1473819706321	1473819706432	e	69
140921	1531942	He is one of three Eagles who will be held out of the game.	He is one of three Eagles who will be held out of the game. 	72816171	1473819706393	1473819706488	 	32
140921	1531942	He is one of three Eagles who will be held out of the game.	He is one of three Eagles who will be held out of the game. 	72816173	1473819706649	1473819706745	h	72
140921	1531942	He is one of three Eagles who will be held out of the game.	He is one of three Eagles who will be held out of the game. 	72816175	1473819706753	1473819706840	e	69
140921	1531942	He is one of three Eagles who will be held out of the game.	He is one of three Eagles who will be held out of the game. 	72816189	1473819706857	1473819706936	l	76
140921	1531942	He is one of three Eagles who will be held out of the game.	He is one of three Eagles who will be held out of the game. 	72816191	1473819706953	1473819707056	d	68
140921	1531942	He is one of three Eagles who will be held out of the game.	He is one of three Eagles who will be held out of the game. 	72816193	1473819707017	1473819707112	 	32
140921	1531942	He is one of three Eagles who will be held out of the game.	He is one of three Eagles who will be held out of the game. 	72816197	1473819707161	1473819707329	o	79
140921	1531942	He is one of three Eagles who will be held out of the game.	He is one of three Eagles who will be held out of the game. 	72816207	1473819707265	1473819707392	u	85
140921	1531942	He is one of three Eagles who will be held out of the game.	He is one of three Eagles who will be held out of the game. 	72816210	1473819707369	1473819707480	t	84
140921	1531942	He is one of three Eagles who will be held out of the game.	He is one of three Eagles who will be held out of the game. 	72816215	1473819707457	1473819707536	 	32
140921	1531942	He is one of three Eagles who will be held out of the game.	He is one of three Eagles who will be held out of the game. 	72816220	1473819707561	1473819707696	o	79
140921	1531942	He is one of three Eagles who will be held out of the game.	He is one of three Eagles who will be held out of the game. 	72816224	1473819707633	1473819707739	f	70
140921	1531942	He is one of three Eagles who will be held out of the game.	He is one of three Eagles who will be held out of the game. 	72816233	1473819707713	1473819707832	 	32
140921	1531942	He is one of three Eagles who will be held out of the game.	He is one of three Eagles who will be held out of the game. 	72816236	1473819707817	1473819707912	t	84
140921	1531942	He is one of three Eagles who will be held out of the game.	He is one of three Eagles who will be held out of the game. 	72816240	1473819707921	1473819708000	h	72
140921	1531942	He is one of three Eagles who will be held out of the game.	He is one of three Eagles who will be held out of the game. 	72816243	1473819707985	1473819708113	e	69
140921	1531942	He is one of three Eagles who will be held out of the game.	He is one of three Eagles who will be held out of the game. 	72816247	1473819708041	1473819708176	 	32
140921	1531942	He is one of three Eagles who will be held out of the game.	He is one of three Eagles who will be held out of the game. 	72816266	1473819708129	1473819708248	g	71
140921	1531942	He is one of three Eagles who will be held out of the game.	He is one of three Eagles who will be held out of the game. 	72816268	1473819708184	1473819708329	a	65
140921	1531942	He is one of three Eagles who will be held out of the game.	He is one of three Eagles who will be held out of the game. 	72816270	1473819708281	1473819708417	m	77
140921	1531942	He is one of three Eagles who will be held out of the game.	He is one of three Eagles who will be held out of the game. 	72816272	1473819708377	1473819708488	e	69
140921	1531942	He is one of three Eagles who will be held out of the game.	He is one of three Eagles who will be held out of the game. 	72816276	1473819708513	1473819708632	.	190
140921	1531942	He is one of three Eagles who will be held out of the game.	He is one of three Eagles who will be held out of the game. 	72816279	1473819708737	1473819708784	 	32
140921	1531949	Hey TK, how are you doing?	Hey TK, how are you doing?	72816367	1473819710472	1473819710625	SHIFT	16
140921	1531949	Hey TK, how are you doing?	Hey TK, how are you doing?	72816370	1473819710593	1473819710698	H	72
140921	1531949	Hey TK, how are you doing?	Hey TK, how are you doing?	72816376	1473819710672	1473819710840	e	69
140921	1531949	Hey TK, how are you doing?	Hey TK, how are you doing?	72816385	1473819710801	1473819710936	y	89
140921	1531949	Hey TK, how are you doing?	Hey TK, how are you doing?	72816391	1473819710889	1473819710984	 	32
140921	1531949	Hey TK, how are you doing?	Hey TK, how are you doing?	72816397	1473819711032	1473819711256	SHIFT	16
140921	1531949	Hey TK, how are you doing?	Hey TK, how are you doing?	72816462	1473819711145	1473819711272	T	84
140921	1531949	Hey TK, how are you doing?	Hey TK, how are you doing?	72816466	1473819711481	1473819711568	k	75
140921	1531949	Hey TK, how are you doing?	Hey TK, how are you doing?	72816469	1473819711841	1473819711920	BKSP	8
140921	1531949	Hey TK, how are you doing?	Hey TK, how are you doing?	72816474	1473819711984	1473819712248	SHIFT	16
140921	1531949	Hey TK, how are you doing?	Hey TK, how are you doing?	72816472	1473819712081	1473819712160	K	75
140921	1531949	Hey TK, how are you doing?	Hey TK, how are you doing?	72816475	1473819712321	1473819712448	,	188
140921	1531949	Hey TK, how are you doing?	Hey TK, how are you doing?	72816476	1473819712497	1473819712600	 	32
140921	1531949	Hey TK, how are you doing?	Hey TK, how are you doing?	72816477	1473819712633	1473819712785	h	72
140921	1531949	Hey TK, how are you doing?	Hey TK, how are you doing?	72816480	1473819712745	1473819712896	o	79
140921	1531949	Hey TK, how are you doing?	Hey TK, how are you doing?	72816483	1473819712824	1473819712952	w	87
140921	1531949	Hey TK, how are you doing?	Hey TK, how are you doing?	72816487	1473819712921	1473819713024	 	32
140921	1531949	Hey TK, how are you doing?	Hey TK, how are you doing?	72816492	1473819712993	1473819713128	a	65
140921	1531949	Hey TK, how are you doing?	Hey TK, how are you doing?	72816495	1473819713072	1473819713200	r	82
140921	1531949	Hey TK, how are you doing?	Hey TK, how are you doing?	72816499	1473819713153	1473819713256	e	69
140921	1531949	Hey TK, how are you doing?	Hey TK, how are you doing?	72816500	1473819713208	1473819713320	 	32
140921	1531949	Hey TK, how are you doing?	Hey TK, how are you doing?	72816501	1473819713297	1473819713408	y	89
140921	1531949	Hey TK, how are you doing?	Hey TK, how are you doing?	72816502	1473819713385	1473819713504	o	79
140921	1531949	Hey TK, how are you doing?	Hey TK, how are you doing?	72816503	1473819713441	1473819713536	u	85
140921	1531949	Hey TK, how are you doing?	Hey TK, how are you doing?	72816504	1473819713513	1473819713632	 	32
140921	1531949	Hey TK, how are you doing?	Hey TK, how are you doing?	72816507	1473819713609	1473819713736	d	68
140921	1531949	Hey TK, how are you doing?	Hey TK, how are you doing?	72816510	1473819713649	1473819713768	o	79
140921	1531949	Hey TK, how are you doing?	Hey TK, how are you doing?	72816512	1473819713721	1473819713889	i	73
140921	1531949	Hey TK, how are you doing?	Hey TK, how are you doing?	72816515	1473819713841	1473819713936	n	78
140921	1531949	Hey TK, how are you doing?	Hey TK, how are you doing?	72816560	1473819713921	1473819714016	g	71
140921	1531949	Hey TK, how are you doing?	Hey TK, how are you doing?	72816562	1473819714056	1473819714272	SHIFT	16
140921	1531949	Hey TK, how are you doing?	Hey TK, how are you doing?	72816564	1473819714953	1473819715088	?	191
140921	1531954	Tried reaching you earlier.	Tried reaching you earlier.	72816641	1473819716961	1473819717048	T	84
140921	1531954	Tried reaching you earlier.	Tried reaching you earlier.	72816644	1473819717145	1473819717239	r	82
140921	1531954	Tried reaching you earlier.	Tried reaching you earlier.	72816646	1473819717233	1473819717352	i	73
140921	1531954	Tried reaching you earlier.	Tried reaching you earlier.	72816648	1473819717304	1473819717368	e	69
140921	1531954	Tried reaching you earlier.	Tried reaching you earlier.	72816650	1473819717472	1473819717560	d	68
140921	1531954	Tried reaching you earlier.	Tried reaching you earlier.	72816656	1473819717537	1473819717632	 	32
140921	1531954	Tried reaching you earlier.	Tried reaching you earlier.	72816657	1473819717641	1473819717799	r	82
140921	1531954	Tried reaching you earlier.	Tried reaching you earlier.	72816658	1473819717721	1473819717824	e	69
140921	1531954	Tried reaching you earlier.	Tried reaching you earlier.	72816659	1473819717784	1473819717904	a	65
140921	1531954	Tried reaching you earlier.	Tried reaching you earlier.	72816660	1473819717920	1473819718048	c	67
140921	1531954	Tried reaching you earlier.	Tried reaching you earlier.	72816666	1473819717992	1473819718096	h	72
140921	1531954	Tried reaching you earlier.	Tried reaching you earlier.	72816667	1473819718113	1473819718288	i	73
140921	1531954	Tried reaching you earlier.	Tried reaching you earlier.	72816668	1473819718224	1473819718336	n	78
140921	1531954	Tried reaching you earlier.	Tried reaching you earlier.	72816669	1473819718297	1473819718375	g	71
140921	1531954	Tried reaching you earlier.	Tried reaching you earlier.	72816670	1473819718368	1473819718488	 	32
140921	1531954	Tried reaching you earlier.	Tried reaching you earlier.	72816674	1473819718473	1473819718560	y	89
140921	1531954	Tried reaching you earlier.	Tried reaching you earlier.	72816676	1473819718512	1473819718656	o	79
140921	1531954	Tried reaching you earlier.	Tried reaching you earlier.	72816679	1473819718584	1473819718712	u	85
140921	1531954	Tried reaching you earlier.	Tried reaching you earlier.	72816681	1473819718697	1473819718808	 	32
140921	1531954	Tried reaching you earlier.	Tried reaching you earlier.	72816683	1473819718769	1473819718946	e	69
140921	1531954	Tried reaching you earlier.	Tried reaching you earlier.	72816702	1473819718865	1473819719000	a	65
140921	1531954	Tried reaching you earlier.	Tried reaching you earlier.	72816705	1473819718929	1473819719055	r	82
140921	1531954	Tried reaching you earlier.	Tried reaching you earlier.	72816707	1473819719081	1473819719218	l	76
140921	1531954	Tried reaching you earlier.	Tried reaching you earlier.	72816710	1473819719176	1473819719295	i	73
140921	1531954	Tried reaching you earlier.	Tried reaching you earlier.	72816715	1473819719217	1473819719352	e	69
140921	1531954	Tried reaching you earlier.	Tried reaching you earlier.	72816720	1473819719289	1473819719408	r	82
140921	1531954	Tried reaching you earlier.	Tried reaching you earlier.	72816725	1473819719473	1473819719584	.	190
140921	1531961	He should still be able to play in the team's next game.	He should still be able to play in the team's next game.	72816815	1473819721568	1473819721776	SHIFT	16
140921	1531961	He should still be able to play in the team's next game.	He should still be able to play in the team's next game.	72816820	1473819721696	1473819721815	H	72
140921	1531961	He should still be able to play in the team's next game.	He should still be able to play in the team's next game.	72816823	1473819721809	1473819721952	e	69
140921	1531961	He should still be able to play in the team's next game.	He should still be able to play in the team's next game.	72816829	1473819721912	1473819722040	 	32
140921	1531961	He should still be able to play in the team's next game.	He should still be able to play in the team's next game.	72816833	1473819722008	1473819722160	s	83
140921	1531961	He should still be able to play in the team's next game.	He should still be able to play in the team's next game.	72816840	1473819722120	1473819722256	h	72
140921	1531961	He should still be able to play in the team's next game.	He should still be able to play in the team's next game.	72816842	1473819722208	1473819722360	o	79
140921	1531961	He should still be able to play in the team's next game.	He should still be able to play in the team's next game.	72816846	1473819722297	1473819722400	u	85
140921	1531961	He should still be able to play in the team's next game.	He should still be able to play in the team's next game.	72816849	1473819722488	1473819722640	l	76
140921	1531961	He should still be able to play in the team's next game.	He should still be able to play in the team's next game.	72816877	1473819722537	1473819722647	d	68
140921	1531961	He should still be able to play in the team's next game.	He should still be able to play in the team's next game.	72816879	1473819722624	1473819722728	 	32
140921	1531961	He should still be able to play in the team's next game.	He should still be able to play in the team's next game.	72816880	1473819722704	1473819722824	s	83
140921	1531961	He should still be able to play in the team's next game.	He should still be able to play in the team's next game.	72816881	1473819722793	1473819722912	t	84
140921	1531961	He should still be able to play in the team's next game.	He should still be able to play in the team's next game.	72816882	1473819722880	1473819722952	i	73
140921	1531961	He should still be able to play in the team's next game.	He should still be able to play in the team's next game.	72816883	1473819722992	1473819723136	l	76
140921	1531961	He should still be able to play in the team's next game.	He should still be able to play in the team's next game.	72816884	1473819723208	1473819723336	l	76
140921	1531961	He should still be able to play in the team's next game.	He should still be able to play in the team's next game.	72816886	1473819723337	1473819723432	 	32
140921	1531961	He should still be able to play in the team's next game.	He should still be able to play in the team's next game.	72816888	1473819723384	1473819723496	b	66
140921	1531961	He should still be able to play in the team's next game.	He should still be able to play in the team's next game.	72816891	1473819723536	1473819723656	e	69
140921	1531961	He should still be able to play in the team's next game.	He should still be able to play in the team's next game.	72816895	1473819723617	1473819723728	 	32
140921	1531961	He should still be able to play in the team's next game.	He should still be able to play in the team's next game.	72816922	1473819723696	1473819723816	a	65
140921	1531961	He should still be able to play in the team's next game.	He should still be able to play in the team's next game.	72816926	1473819723856	1473819723960	b	66
140921	1531961	He should still be able to play in the team's next game.	He should still be able to play in the team's next game.	72816931	1473819723976	1473819724072	l	76
140921	1531961	He should still be able to play in the team's next game.	He should still be able to play in the team's next game.	72816937	1473819724056	1473819724184	e	69
140921	1531961	He should still be able to play in the team's next game.	He should still be able to play in the team's next game.	72816940	1473819724144	1473819724248	 	32
140921	1531961	He should still be able to play in the team's next game.	He should still be able to play in the team's next game.	72816943	1473819724222	1473819724336	t	84
140921	1531961	He should still be able to play in the team's next game.	He should still be able to play in the team's next game.	72816944	1473819724288	1473819724400	o	79
140921	1531961	He should still be able to play in the team's next game.	He should still be able to play in the team's next game.	72816946	1473819724408	1473819724456	 	32
140921	1531961	He should still be able to play in the team's next game.	He should still be able to play in the team's next game.	72816950	1473819724520	1473819724712	p	80
140921	1531961	He should still be able to play in the team's next game.	He should still be able to play in the team's next game.	72816954	1473819724648	1473819724776	l	76
140921	1531961	He should still be able to play in the team's next game.	He should still be able to play in the team's next game.	72816967	1473819724744	1473819724888	a	65
140921	1531961	He should still be able to play in the team's next game.	He should still be able to play in the team's next game.	72816970	1473819724816	1473819724936	y	89
140921	1531961	He should still be able to play in the team's next game.	He should still be able to play in the team's next game.	72816974	1473819724896	1473819725000	 	32
140921	1531961	He should still be able to play in the team's next game.	He should still be able to play in the team's next game.	72816977	1473819724976	1473819725128	i	73
140921	1531961	He should still be able to play in the team's next game.	He should still be able to play in the team's next game.	72816979	1473819725072	1473819725184	n	78
140921	1531961	He should still be able to play in the team's next game.	He should still be able to play in the team's next game.	72816981	1473819725169	1473819725272	 	32
140921	1531961	He should still be able to play in the team's next game.	He should still be able to play in the team's next game.	72816982	1473819725240	1473819725344	t	84
140921	1531961	He should still be able to play in the team's next game.	He should still be able to play in the team's next game.	72816983	1473819725352	1473819725448	h	72
140921	1531961	He should still be able to play in the team's next game.	He should still be able to play in the team's next game.	72816985	1473819725416	1473819725536	e	69
140921	1531961	He should still be able to play in the team's next game.	He should still be able to play in the team's next game.	72816989	1473819725488	1473819725600	 	32
140921	1531961	He should still be able to play in the team's next game.	He should still be able to play in the team's next game.	72817034	1473819725561	1473819725704	t	84
140921	1531961	He should still be able to play in the team's next game.	He should still be able to play in the team's next game.	72817039	1473819725632	1473819725743	e	69
140921	1531961	He should still be able to play in the team's next game.	He should still be able to play in the team's next game.	72817042	1473819725688	1473819725815	a	65
140921	1531961	He should still be able to play in the team's next game.	He should still be able to play in the team's next game.	72817047	1473819725808	1473819725920	m	77
140921	1531961	He should still be able to play in the team's next game.	He should still be able to play in the team's next game.	72817050	1473819726256	1473819726384	'	222
140921	1531961	He should still be able to play in the team's next game.	He should still be able to play in the team's next game.	72817078	1473819726344	1473819726464	s	83
140921	1531961	He should still be able to play in the team's next game.	He should still be able to play in the team's next game.	72817080	1473819726424	1473819726519	 	32
140921	1531961	He should still be able to play in the team's next game.	He should still be able to play in the team's next game.	72817083	1473819726704	1473819726832	n	78
140921	1531961	He should still be able to play in the team's next game.	He should still be able to play in the team's next game.	72817086	1473819726752	1473819726856	e	69
140921	1531961	He should still be able to play in the team's next game.	He should still be able to play in the team's next game.	72817088	1473819726928	1473819727015	x	88
140921	1531961	He should still be able to play in the team's next game.	He should still be able to play in the team's next game.	72817091	1473819727073	1473819727192	t	84
140921	1531961	He should still be able to play in the team's next game.	He should still be able to play in the team's next game.	72817099	1473819727160	1473819727287	 	32
140921	1531961	He should still be able to play in the team's next game.	He should still be able to play in the team's next game.	72817102	1473819727280	1473819727376	g	71
140921	1531961	He should still be able to play in the team's next game.	He should still be able to play in the team's next game.	72817107	1473819727328	1473819727480	a	65
140921	1531961	He should still be able to play in the team's next game.	He should still be able to play in the team's next game.	72817110	1473819727408	1473819727584	m	77
140921	1531961	He should still be able to play in the team's next game.	He should still be able to play in the team's next game.	72817115	1473819727520	1473819727624	e	69
140921	1531961	He should still be able to play in the team's next game.	He should still be able to play in the team's next game.	72817123	1473819727608	1473819727728	.	190
140921	1531969	But his father likes what he sees from his son's engine.	But his father likes what he sees form his son's engine.	72817254	1473819729280	1473819729568	SHIFT	16
140921	1531969	But his father likes what he sees from his son's engine.	But his father likes what he sees form his son's engine.	72817255	1473819729456	1473819729568	B	66
140921	1531969	But his father likes what he sees from his son's engine.	But his father likes what he sees form his son's engine.	72817256	1473819729592	1473819729736	u	85
140921	1531969	But his father likes what he sees from his son's engine.	But his father likes what he sees form his son's engine.	72817257	1473819729696	1473819729793	t	84
140921	1531969	But his father likes what he sees from his son's engine.	But his father likes what he sees form his son's engine.	72817259	1473819729768	1473819729880	 	32
140921	1531969	But his father likes what he sees from his son's engine.	But his father likes what he sees form his son's engine.	72817263	1473819729920	1473819730151	h	72
140921	1531969	But his father likes what he sees from his son's engine.	But his father likes what he sees form his son's engine.	72817286	1473819730144	1473819730264	i	73
140921	1531969	But his father likes what he sees from his son's engine.	But his father likes what he sees form his son's engine.	72817292	1473819730176	1473819730344	s	83
140921	1531969	But his father likes what he sees from his son's engine.	But his father likes what he sees form his son's engine.	72817297	1473819730264	1473819730384	 	32
140921	1531969	But his father likes what he sees from his son's engine.	But his father likes what he sees form his son's engine.	72817301	1473819730352	1473819730455	f	70
140921	1531969	But his father likes what he sees from his son's engine.	But his father likes what he sees form his son's engine.	72817305	1473819730432	1473819730584	a	65
140921	1531969	But his father likes what he sees from his son's engine.	But his father likes what he sees form his son's engine.	72817314	1473819730544	1473819730648	t	84
140921	1531969	But his father likes what he sees from his son's engine.	But his father likes what he sees form his son's engine.	72817318	1473819730640	1473819730736	h	72
140921	1531969	But his father likes what he sees from his son's engine.	But his father likes what he sees form his son's engine.	72817322	1473819730696	1473819730831	e	69
140921	1531969	But his father likes what he sees from his son's engine.	But his father likes what he sees form his son's engine.	72817326	1473819730768	1473819730880	r	82
140921	1531969	But his father likes what he sees from his son's engine.	But his father likes what he sees form his son's engine.	72817330	1473819730824	1473819730935	 	32
140921	1531969	But his father likes what he sees from his son's engine.	But his father likes what he sees form his son's engine.	72817351	1473819730896	1473819731024	l	76
140921	1531969	But his father likes what he sees from his son's engine.	But his father likes what he sees form his son's engine.	72817356	1473819730968	1473819731072	i	73
140921	1531969	But his father likes what he sees from his son's engine.	But his father likes what he sees form his son's engine.	72817358	1473819731080	1473819731248	k	75
140921	1531969	But his father likes what he sees from his son's engine.	But his father likes what he sees form his son's engine.	72817360	1473819731184	1473819731359	e	69
140921	1531969	But his father likes what he sees from his son's engine.	But his father likes what he sees form his son's engine.	72817366	1473819731288	1473819731384	s	83
140921	1531969	But his father likes what he sees from his son's engine.	But his father likes what he sees form his son's engine.	72817367	1473819731352	1473819731456	 	32
140921	1531969	But his father likes what he sees from his son's engine.	But his father likes what he sees form his son's engine.	72817368	1473819731480	1473819731591	w	87
140921	1531969	But his father likes what he sees from his son's engine.	But his father likes what he sees form his son's engine.	72817369	1473819731584	1473819731671	h	72
140921	1531969	But his father likes what he sees from his son's engine.	But his father likes what he sees form his son's engine.	72817370	1473819731664	1473819731808	a	65
140921	1531969	But his father likes what he sees from his son's engine.	But his father likes what he sees form his son's engine.	72817371	1473819731728	1473819731856	t	84
140921	1531969	But his father likes what he sees from his son's engine.	But his father likes what he sees form his son's engine.	72817387	1473819731824	1473819731920	 	32
140921	1531969	But his father likes what he sees from his son's engine.	But his father likes what he sees form his son's engine.	72817391	1473819731936	1473819732040	h	72
140921	1531969	But his father likes what he sees from his son's engine.	But his father likes what he sees form his son's engine.	72817395	1473819731968	1473819732087	e	69
140921	1531969	But his father likes what he sees from his son's engine.	But his father likes what he sees form his son's engine.	72817398	1473819732072	1473819732175	 	32
140921	1531969	But his father likes what he sees from his son's engine.	But his father likes what he sees form his son's engine.	72817401	1473819732264	1473819732384	s	83
140921	1531969	But his father likes what he sees from his son's engine.	But his father likes what he sees form his son's engine.	72817428	1473819732336	1473819732424	e	69
140921	1531969	But his father likes what he sees from his son's engine.	But his father likes what he sees form his son's engine.	72817432	1473819732496	1473819732656	e	69
140921	1531969	But his father likes what he sees from his son's engine.	But his father likes what he sees form his son's engine.	72817436	1473819732600	1473819732728	s	83
140921	1531969	But his father likes what he sees from his son's engine.	But his father likes what he sees form his son's engine.	72817440	1473819732664	1473819732784	 	32
140921	1531969	But his father likes what he sees from his son's engine.	But his father likes what he sees form his son's engine.	72817444	1473819732808	1473819732888	f	70
140921	1531969	But his father likes what he sees from his son's engine.	But his father likes what he sees form his son's engine.	72817452	1473819732968	1473819733136	r	79
140921	1531969	But his father likes what he sees from his son's engine.	But his father likes what he sees form his son's engine.	72817454	1473819733056	1473819733191	m	77
140921	1531969	But his father likes what he sees from his son's engine.	But his father likes what he sees form his son's engine.	72817458	1473819733192	1473819733312	 	32
140921	1531969	But his father likes what he sees from his son's engine.	But his father likes what he sees form his son's engine.	72817464	1473819733336	1473819733479	h	72
140921	1531969	But his father likes what he sees from his son's engine.	But his father likes what he sees form his son's engine.	72817468	1473819733432	1473819733568	i	73
140921	1531969	But his father likes what he sees from his son's engine.	But his father likes what he sees form his son's engine.	72817472	1473819733464	1473819733610	s	83
140921	1531969	But his father likes what he sees from his son's engine.	But his father likes what he sees form his son's engine.	72817506	1473819733584	1473819733711	 	32
140921	1531969	But his father likes what he sees from his son's engine.	But his father likes what he sees form his son's engine.	72817509	1473819733704	1473819733848	s	83
140921	1531969	But his father likes what he sees from his son's engine.	But his father likes what he sees form his son's engine.	72817512	1473819733768	1473819733935	o	79
140921	1531969	But his father likes what he sees from his son's engine.	But his father likes what he sees form his son's engine.	72817515	1473819734032	1473819734096	'	222
140921	1531969	But his father likes what he sees from his son's engine.	But his father likes what he sees form his son's engine.	72817516	1473819734368	1473819734424	BKSP	8
140921	1531969	But his father likes what he sees from his son's engine.	But his father likes what he sees form his son's engine.	72817517	1473819734544	1473819734663	n	78
140921	1531969	But his father likes what he sees from his son's engine.	But his father likes what he sees form his son's engine.	72817518	1473819734704	1473819734784	s	83
140921	1531969	But his father likes what he sees from his son's engine.	But his father likes what he sees form his son's engine.	72817543	1473819734976	1473819735056	BKSP	8
140921	1531969	But his father likes what he sees from his son's engine.	But his father likes what he sees form his son's engine.	72817547	1473819735184	1473819735304	'	222
140921	1531969	But his father likes what he sees from his son's engine.	But his father likes what he sees form his son's engine.	72817549	1473819735264	1473819735391	s	83
140921	1531969	But his father likes what he sees from his son's engine.	But his father likes what he sees form his son's engine.	72817551	1473819735384	1473819735512	 	32
140921	1531969	But his father likes what he sees from his son's engine.	But his father likes what he sees form his son's engine.	72817553	1473819735632	1473819735752	e	69
140921	1531969	But his father likes what he sees from his son's engine.	But his father likes what he sees form his son's engine.	72817565	1473819735745	1473819735857	n	78
140921	1531969	But his father likes what he sees from his son's engine.	But his father likes what he sees form his son's engine.	72817567	1473819735856	1473819735959	g	71
140921	1531969	But his father likes what he sees from his son's engine.	But his father likes what he sees form his son's engine.	72817569	1473819735952	1473819736096	i	73
140921	1531969	But his father likes what he sees from his son's engine.	But his father likes what he sees form his son's engine.	72817571	1473819736064	1473819736167	n	78
140921	1531969	But his father likes what he sees from his son's engine.	But his father likes what he sees form his son's engine.	72817572	1473819736136	1473819736223	e	69
140921	1531969	But his father likes what he sees from his son's engine.	But his father likes what he sees form his son's engine.	72817573	1473819736256	1473819736376	.	190
140921	1531977	Do you want to eat lunch somewhere before?	Do you want to eat lunch somewhere before"?	72817686	1473819737784	1473819737815	d	68
140921	1531977	Do you want to eat lunch somewhere before?	Do you want to eat lunch somewhere before"?	72817691	1473819737872	1473819738160	SHIFT	16
140921	1531977	Do you want to eat lunch somewhere before?	Do you want to eat lunch somewhere before"?	72817694	1473819738056	1473819738183	D	68
140921	1531977	Do you want to eat lunch somewhere before?	Do you want to eat lunch somewhere before"?	72817697	1473819738344	1473819738392	BKSP	8
140921	1531977	Do you want to eat lunch somewhere before?	Do you want to eat lunch somewhere before"?	72817699	1473819738456	1473819738536	BKSP	8
140921	1531977	Do you want to eat lunch somewhere before?	Do you want to eat lunch somewhere before"?	72817701	1473819738616	1473819738768	SHIFT	16
140921	1531977	Do you want to eat lunch somewhere before?	Do you want to eat lunch somewhere before"?	72817707	1473819738696	1473819738839	D	68
140921	1531977	Do you want to eat lunch somewhere before?	Do you want to eat lunch somewhere before"?	72817710	1473819738832	1473819738903	o	79
140921	1531977	Do you want to eat lunch somewhere before?	Do you want to eat lunch somewhere before"?	72817719	1473819738928	1473819739015	 	32
140921	1531977	Do you want to eat lunch somewhere before?	Do you want to eat lunch somewhere before"?	72817709	1473819738975	1473819739087	y	89
140921	1531977	Do you want to eat lunch somewhere before?	Do you want to eat lunch somewhere before"?	72817716	1473819739024	1473819739176	o	79
140921	1531977	Do you want to eat lunch somewhere before?	Do you want to eat lunch somewhere before"?	72817723	1473819739112	1473819739231	u	85
140921	1531977	Do you want to eat lunch somewhere before?	Do you want to eat lunch somewhere before"?	72817727	1473819739199	1473819739311	 	32
140921	1531977	Do you want to eat lunch somewhere before?	Do you want to eat lunch somewhere before"?	72817732	1473819739247	1473819739408	w	87
140921	1531977	Do you want to eat lunch somewhere before?	Do you want to eat lunch somewhere before"?	72817762	1473819739328	1473819739479	a	65
140921	1531977	Do you want to eat lunch somewhere before?	Do you want to eat lunch somewhere before"?	72817763	1473819739424	1473819739544	n	78
140921	1531977	Do you want to eat lunch somewhere before?	Do you want to eat lunch somewhere before"?	72817765	1473819739536	1473819739656	t	84
140921	1531977	Do you want to eat lunch somewhere before?	Do you want to eat lunch somewhere before"?	72817767	1473819739640	1473819739743	 	32
140921	1531977	Do you want to eat lunch somewhere before?	Do you want to eat lunch somewhere before"?	72817769	1473819739816	1473819739936	t	84
140921	1531977	Do you want to eat lunch somewhere before?	Do you want to eat lunch somewhere before"?	72817770	1473819740008	1473819740151	o	79
140921	1531977	Do you want to eat lunch somewhere before?	Do you want to eat lunch somewhere before"?	72817784	1473819740104	1473819740207	 	32
140921	1531977	Do you want to eat lunch somewhere before?	Do you want to eat lunch somewhere before"?	72817787	1473819740200	1473819740360	e	69
140921	1531977	Do you want to eat lunch somewhere before?	Do you want to eat lunch somewhere before"?	72817789	1473819740280	1473819740431	a	65
140921	1531977	Do you want to eat lunch somewhere before?	Do you want to eat lunch somewhere before"?	72817793	1473819740384	1473819740535	t	84
140921	1531977	Do you want to eat lunch somewhere before?	Do you want to eat lunch somewhere before"?	72817796	1473819740496	1473819740599	 	32
140921	1531977	Do you want to eat lunch somewhere before?	Do you want to eat lunch somewhere before"?	72817797	1473819740608	1473819740783	l	76
140921	1531977	Do you want to eat lunch somewhere before?	Do you want to eat lunch somewhere before"?	72817806	1473819740696	1473819740799	u	85
140921	1531977	Do you want to eat lunch somewhere before?	Do you want to eat lunch somewhere before"?	72817808	1473819740944	1473819741039	n	78
140921	1531977	Do you want to eat lunch somewhere before?	Do you want to eat lunch somewhere before"?	72817811	1473819741056	1473819741175	c	67
140921	1531977	Do you want to eat lunch somewhere before?	Do you want to eat lunch somewhere before"?	72817813	1473819741184	1473819741288	h	72
140921	1531977	Do you want to eat lunch somewhere before?	Do you want to eat lunch somewhere before"?	72817815	1473819741248	1473819741375	 	32
140921	1531977	Do you want to eat lunch somewhere before?	Do you want to eat lunch somewhere before"?	72817826	1473819741360	1473819741495	s	83
140921	1531977	Do you want to eat lunch somewhere before?	Do you want to eat lunch somewhere before"?	72817829	1473819741440	1473819741592	o	79
140921	1531977	Do you want to eat lunch somewhere before?	Do you want to eat lunch somewhere before"?	72817832	1473819741544	1473819741663	m	77
140921	1531977	Do you want to eat lunch somewhere before?	Do you want to eat lunch somewhere before"?	72817837	1473819741640	1473819741759	e	69
140921	1531977	Do you want to eat lunch somewhere before?	Do you want to eat lunch somewhere before"?	72817840	1473819741744	1473819741936	w	87
140921	1531977	Do you want to eat lunch somewhere before?	Do you want to eat lunch somewhere before"?	72817894	1473819741896	1473819741999	h	72
140921	1531977	Do you want to eat lunch somewhere before?	Do you want to eat lunch somewhere before"?	72817899	1473819741960	1473819742095	e	69
140921	1531977	Do you want to eat lunch somewhere before?	Do you want to eat lunch somewhere before"?	72817903	1473819742056	1473819742247	r	82
140921	1531977	Do you want to eat lunch somewhere before?	Do you want to eat lunch somewhere before"?	72817906	1473819742184	1473819742303	e	69
140921	1531977	Do you want to eat lunch somewhere before?	Do you want to eat lunch somewhere before"?	72817910	1473819742512	1473819742623	 	32
140921	1531977	Do you want to eat lunch somewhere before?	Do you want to eat lunch somewhere before"?	72817917	1473819742824	1473819742999	e	69
140921	1531977	Do you want to eat lunch somewhere before?	Do you want to eat lunch somewhere before"?	72817941	1473819743128	1473819743247	BKSP	8
140921	1531977	Do you want to eat lunch somewhere before?	Do you want to eat lunch somewhere before"?	72817944	1473819743224	1473819743327	b	66
140921	1531977	Do you want to eat lunch somewhere before?	Do you want to eat lunch somewhere before"?	72817947	1473819743392	1473819743519	e	69
140921	1531977	Do you want to eat lunch somewhere before?	Do you want to eat lunch somewhere before"?	72817948	1473819743448	1473819743544	f	70
140921	1531977	Do you want to eat lunch somewhere before?	Do you want to eat lunch somewhere before"?	72817949	1473819743552	1473819743671	o	79
140921	1531977	Do you want to eat lunch somewhere before?	Do you want to eat lunch somewhere before"?	72817966	1473819743656	1473819743783	r	82
140921	1531977	Do you want to eat lunch somewhere before?	Do you want to eat lunch somewhere before"?	72817971	1473819743720	1473819743823	e	69
140921	1531977	Do you want to eat lunch somewhere before?	Do you want to eat lunch somewhere before"?	72817988	1473819743855	1473819744071	SHIFT	16
140921	1531977	Do you want to eat lunch somewhere before?	Do you want to eat lunch somewhere before"?	72817977	1473819743880	1473819743903	"	222
140921	1531977	Do you want to eat lunch somewhere before?	Do you want to eat lunch somewhere before"?	72817983	1473819743928	1473819743983	?	191
140921	1531987	I want to thank everyone involved.	I want to thank everyone invovled.	72818113	1473819745943	1473819746103	SHIFT	16
140921	1531987	I want to thank everyone involved.	I want to thank everyone invovled.	72818115	1473819746056	1473819746207	I	73
140921	1531987	I want to thank everyone involved.	I want to thank everyone invovled.	72818118	1473819746168	1473819746287	 	32
140921	1531987	I want to thank everyone involved.	I want to thank everyone invovled.	72818119	1473819746231	1473819746367	w	87
140921	1531987	I want to thank everyone involved.	I want to thank everyone invovled.	72818121	1473819746312	1473819746471	a	65
140921	1531987	I want to thank everyone involved.	I want to thank everyone invovled.	72818146	1473819746408	1473819746513	n	78
140921	1531987	I want to thank everyone involved.	I want to thank everyone invovled.	72818149	1473819746487	1473819746614	t	84
140921	1531987	I want to thank everyone involved.	I want to thank everyone invovled.	72818153	1473819746608	1473819746713	 	32
140921	1531987	I want to thank everyone involved.	I want to thank everyone invovled.	72818158	1473819746712	1473819746823	t	84
140921	1531987	I want to thank everyone involved.	I want to thank everyone invovled.	72818162	1473819746808	1473819746927	o	79
140921	1531987	I want to thank everyone involved.	I want to thank everyone invovled.	72818181	1473819746880	1473819746977	 	32
140921	1531987	I want to thank everyone involved.	I want to thank everyone invovled.	72818184	1473819746960	1473819747055	t	84
140921	1531987	I want to thank everyone involved.	I want to thank everyone invovled.	72818189	1473819747064	1473819747159	h	72
140921	1531987	I want to thank everyone involved.	I want to thank everyone invovled.	72818191	1473819747128	1473819747287	a	65
140921	1531987	I want to thank everyone involved.	I want to thank everyone invovled.	72818193	1473819747280	1473819747399	n	78
140921	1531987	I want to thank everyone involved.	I want to thank everyone invovled.	72818215	1473819747336	1473819747500	k	75
140921	1531987	I want to thank everyone involved.	I want to thank everyone invovled.	72818219	1473819747456	1473819747591	 	32
140921	1531987	I want to thank everyone involved.	I want to thank everyone invovled.	72818223	1473819747664	1473819747743	e	69
140921	1531987	I want to thank everyone involved.	I want to thank everyone invovled.	72818225	1473819747816	1473819747887	v	86
140921	1531987	I want to thank everyone involved.	I want to thank everyone invovled.	72818228	1473819747952	1473819748063	e	69
140921	1531987	I want to thank everyone involved.	I want to thank everyone invovled.	72818255	1473819748023	1473819748079	r	82
140921	1531987	I want to thank everyone involved.	I want to thank everyone invovled.	72818258	1473819748176	1473819748279	y	89
140921	1531987	I want to thank everyone involved.	I want to thank everyone invovled.	72818262	1473819748455	1473819748623	o	79
140921	1531987	I want to thank everyone involved.	I want to thank everyone invovled.	72818266	1473819748560	1473819748711	n	78
140921	1531987	I want to thank everyone involved.	I want to thank everyone invovled.	72818270	1473819748680	1473819748807	e	69
140921	1531987	I want to thank everyone involved.	I want to thank everyone invovled.	72818289	1473819748744	1473819748847	 	32
140921	1531987	I want to thank everyone involved.	I want to thank everyone invovled.	72818293	1473819748856	1473819748991	i	73
140921	1531987	I want to thank everyone involved.	I want to thank everyone invovled.	72818299	1473819748928	1473819749046	n	78
140921	1531987	I want to thank everyone involved.	I want to thank everyone invovled.	72818302	1473819749040	1473819749159	v	86
140921	1531987	I want to thank everyone involved.	I want to thank everyone invovled.	72818307	1473819749448	1473819749519	o	79
140921	1531987	I want to thank everyone involved.	I want to thank everyone invovled.	72818317	1473819749616	1473819749704	v	86
140921	1531987	I want to thank everyone involved.	I want to thank everyone invovled.	72818346	1473819749694	1473819749799	l	76
140921	1531987	I want to thank everyone involved.	I want to thank everyone invovled.	72818349	1473819749808	1473819749879	e	69
140921	1531987	I want to thank everyone involved.	I want to thank everyone invovled.	72818356	1473819749968	1473819750087	d	68
140921	1531987	I want to thank everyone involved.	I want to thank everyone invovled.	72818360	1473819750080	1473819750175	.	190
140921	1531994	You must therefore take full responsibility for virus checking.	YOu must therefore take full responsibility for virus checking.	72818570	1473819752552	1473819752855	SHIFT	16
140921	1531994	You must therefore take full responsibility for virus checking.	YOu must therefore take full responsibility for virus checking.	72818578	1473819752744	1473819752864	Y	89
140921	1531994	You must therefore take full responsibility for virus checking.	YOu must therefore take full responsibility for virus checking.	72818583	1473819752840	1473819753023	O	79
140921	1531994	You must therefore take full responsibility for virus checking.	YOu must therefore take full responsibility for virus checking.	72818589	1473819752928	1473819753055	u	85
140921	1531994	You must therefore take full responsibility for virus checking.	YOu must therefore take full responsibility for virus checking.	72818593	1473819753008	1473819753103	 	32
140921	1531994	You must therefore take full responsibility for virus checking.	YOu must therefore take full responsibility for virus checking.	72818596	1473819753151	1473819753295	m	77
140921	1531994	You must therefore take full responsibility for virus checking.	YOu must therefore take full responsibility for virus checking.	72818584	1473819753311	1473819753486	s	83
140921	1531994	You must therefore take full responsibility for virus checking.	YOu must therefore take full responsibility for virus checking.	72818579	1473819753335	1473819753407	u	85
140921	1531994	You must therefore take full responsibility for virus checking.	YOu must therefore take full responsibility for virus checking.	72818590	1473819753480	1473819753560	t	84
140921	1531994	You must therefore take full responsibility for virus checking.	YOu must therefore take full responsibility for virus checking.	72818595	1473819753503	1473819753639	 	32
140921	1531994	You must therefore take full responsibility for virus checking.	YOu must therefore take full responsibility for virus checking.	72818598	1473819753648	1473819753727	t	84
140921	1531994	You must therefore take full responsibility for virus checking.	YOu must therefore take full responsibility for virus checking.	72818651	1473819753755	1473819753855	h	72
140921	1531994	You must therefore take full responsibility for virus checking.	YOu must therefore take full responsibility for virus checking.	72818656	1473819754015	1473819754079	BKSP	8
140921	1531994	You must therefore take full responsibility for virus checking.	YOu must therefore take full responsibility for virus checking.	72818664	1473819754183	1473819754239	BKSP	8
140921	1531994	You must therefore take full responsibility for virus checking.	YOu must therefore take full responsibility for virus checking.	72818670	1473819754319	1473819754367	BKSP	8
140921	1531994	You must therefore take full responsibility for virus checking.	YOu must therefore take full responsibility for virus checking.	72818677	1473819754431	1473819754487	BKSP	8
140921	1531994	You must therefore take full responsibility for virus checking.	YOu must therefore take full responsibility for virus checking.	72818688	1473819754551	1473819754599	BKSP	8
140921	1531994	You must therefore take full responsibility for virus checking.	YOu must therefore take full responsibility for virus checking.	72818694	1473819754663	1473819754727	BKSP	8
140921	1531994	You must therefore take full responsibility for virus checking.	YOu must therefore take full responsibility for virus checking.	72818701	1473819754872	1473819754983	u	85
140921	1531994	You must therefore take full responsibility for virus checking.	YOu must therefore take full responsibility for virus checking.	72818708	1473819754944	1473819755071	s	83
140921	1531994	You must therefore take full responsibility for virus checking.	YOu must therefore take full responsibility for virus checking.	72818711	1473819755023	1473819755143	t	84
140921	1531994	You must therefore take full responsibility for virus checking.	YOu must therefore take full responsibility for virus checking.	72818726	1473819755088	1473819755199	 	32
140921	1531994	You must therefore take full responsibility for virus checking.	YOu must therefore take full responsibility for virus checking.	72818730	1473819755263	1473819755351	t	84
140921	1531994	You must therefore take full responsibility for virus checking.	YOu must therefore take full responsibility for virus checking.	72818732	1473819755392	1473819755439	h	72
140921	1531994	You must therefore take full responsibility for virus checking.	YOu must therefore take full responsibility for virus checking.	72818734	1473819755783	1473819755886	e	69
140921	1531994	You must therefore take full responsibility for virus checking.	YOu must therefore take full responsibility for virus checking.	72818735	1473819755863	1473819756031	r	82
140921	1531994	You must therefore take full responsibility for virus checking.	YOu must therefore take full responsibility for virus checking.	72818771	1473819755983	1473819756079	e	69
140921	1531994	You must therefore take full responsibility for virus checking.	YOu must therefore take full responsibility for virus checking.	72818773	1473819756376	1473819756471	f	70
140921	1531994	You must therefore take full responsibility for virus checking.	YOu must therefore take full responsibility for virus checking.	72818775	1473819756528	1473819756671	o	79
140921	1531994	You must therefore take full responsibility for virus checking.	YOu must therefore take full responsibility for virus checking.	72818777	1473819756624	1473819756782	r	82
140921	1531994	You must therefore take full responsibility for virus checking.	YOu must therefore take full responsibility for virus checking.	72818786	1473819756719	1473819756886	e	69
140921	1531994	You must therefore take full responsibility for virus checking.	YOu must therefore take full responsibility for virus checking.	72818787	1473819756776	1473819756895	 	32
140921	1531994	You must therefore take full responsibility for virus checking.	YOu must therefore take full responsibility for virus checking.	72818788	1473819756879	1473819757007	t	84
140921	1531994	You must therefore take full responsibility for virus checking.	YOu must therefore take full responsibility for virus checking.	72818789	1473819756959	1473819757095	a	65
140921	1531994	You must therefore take full responsibility for virus checking.	YOu must therefore take full responsibility for virus checking.	72818790	1473819757063	1473819757168	k	75
140921	1531994	You must therefore take full responsibility for virus checking.	YOu must therefore take full responsibility for virus checking.	72818791	1473819757159	1473819757271	e	69
140921	1531994	You must therefore take full responsibility for virus checking.	YOu must therefore take full responsibility for virus checking.	72818817	1473819757240	1473819757383	 	32
140921	1531994	You must therefore take full responsibility for virus checking.	YOu must therefore take full responsibility for virus checking.	72818822	1473819757360	1473819757494	f	70
140921	1531994	You must therefore take full responsibility for virus checking.	YOu must therefore take full responsibility for virus checking.	72818827	1473819757408	1473819757495	u	85
140921	1531994	You must therefore take full responsibility for virus checking.	YOu must therefore take full responsibility for virus checking.	72818833	1473819757735	1473819757791	l	76
140921	1531994	You must therefore take full responsibility for virus checking.	YOu must therefore take full responsibility for virus checking.	72818839	1473819757927	1473819758007	l	76
140921	1531994	You must therefore take full responsibility for virus checking.	YOu must therefore take full responsibility for virus checking.	72818843	1473819758215	1473819758318	 	32
140921	1531994	You must therefore take full responsibility for virus checking.	YOu must therefore take full responsibility for virus checking.	72818872	1473819758287	1473819758455	r	82
140921	1531994	You must therefore take full responsibility for virus checking.	YOu must therefore take full responsibility for virus checking.	72818875	1473819758375	1473819758535	e	69
140921	1531994	You must therefore take full responsibility for virus checking.	YOu must therefore take full responsibility for virus checking.	72818880	1473819758464	1473819758631	s	83
140921	1531994	You must therefore take full responsibility for virus checking.	YOu must therefore take full responsibility for virus checking.	72818885	1473819758584	1473819758775	p	80
140921	1531994	You must therefore take full responsibility for virus checking.	YOu must therefore take full responsibility for virus checking.	72818889	1473819758719	1473819758855	o	79
140921	1531994	You must therefore take full responsibility for virus checking.	YOu must therefore take full responsibility for virus checking.	72818892	1473819758904	1473819759031	n	78
140921	1531994	You must therefore take full responsibility for virus checking.	YOu must therefore take full responsibility for virus checking.	72818920	1473819759024	1473819759151	s	83
140921	1531994	You must therefore take full responsibility for virus checking.	YOu must therefore take full responsibility for virus checking.	72818923	1473819759160	1473819759263	i	73
140921	1531994	You must therefore take full responsibility for virus checking.	YOu must therefore take full responsibility for virus checking.	72818929	1473819759280	1473819759399	b	66
140921	1531994	You must therefore take full responsibility for virus checking.	YOu must therefore take full responsibility for virus checking.	72818936	1473819759455	1473819759671	i	73
140921	1531994	You must therefore take full responsibility for virus checking.	YOu must therefore take full responsibility for virus checking.	72818941	1473819759607	1473819759855	l	76
140921	1531994	You must therefore take full responsibility for virus checking.	YOu must therefore take full responsibility for virus checking.	72818967	1473819759799	1473819759918	i	73
140921	1531994	You must therefore take full responsibility for virus checking.	YOu must therefore take full responsibility for virus checking.	72818972	1473819759912	1473819759975	t	84
140921	1531994	You must therefore take full responsibility for virus checking.	YOu must therefore take full responsibility for virus checking.	72818977	1473819760040	1473819760143	y	89
140921	1531994	You must therefore take full responsibility for virus checking.	YOu must therefore take full responsibility for virus checking.	72818986	1473819760111	1473819760215	 	32
140921	1531994	You must therefore take full responsibility for virus checking.	YOu must therefore take full responsibility for virus checking.	72818993	1473819760775	1473819760831	f	70
140921	1531994	You must therefore take full responsibility for virus checking.	YOu must therefore take full responsibility for virus checking.	72819001	1473819760863	1473819760991	o	79
140921	1531994	You must therefore take full responsibility for virus checking.	YOu must therefore take full responsibility for virus checking.	72819046	1473819760919	1473819761038	r	82
140921	1531994	You must therefore take full responsibility for virus checking.	YOu must therefore take full responsibility for virus checking.	72819051	1473819761015	1473819761111	 	32
140921	1531994	You must therefore take full responsibility for virus checking.	YOu must therefore take full responsibility for virus checking.	72819053	1473819761183	1473819761287	v	86
140921	1531994	You must therefore take full responsibility for virus checking.	YOu must therefore take full responsibility for virus checking.	72819055	1473819761567	1473819761686	i	73
140921	1531994	You must therefore take full responsibility for virus checking.	YOu must therefore take full responsibility for virus checking.	72819060	1473819761767	1473819761863	r	82
140921	1531994	You must therefore take full responsibility for virus checking.	YOu must therefore take full responsibility for virus checking.	72819065	1473819761863	1473819761958	u	85
140921	1531994	You must therefore take full responsibility for virus checking.	YOu must therefore take full responsibility for virus checking.	72819084	1473819761951	1473819762062	s	83
140921	1531994	You must therefore take full responsibility for virus checking.	YOu must therefore take full responsibility for virus checking.	72819087	1473819762023	1473819762119	 	32
140921	1531994	You must therefore take full responsibility for virus checking.	YOu must therefore take full responsibility for virus checking.	72819089	1473819762167	1473819762279	c	67
140921	1531994	You must therefore take full responsibility for virus checking.	YOu must therefore take full responsibility for virus checking.	72819091	1473819762255	1473819762375	h	72
140921	1531994	You must therefore take full responsibility for virus checking.	YOu must therefore take full responsibility for virus checking.	72819094	1473819762343	1473819762439	e	69
140921	1531994	You must therefore take full responsibility for virus checking.	YOu must therefore take full responsibility for virus checking.	72819098	1473819762511	1473819762623	c	67
140921	1531994	You must therefore take full responsibility for virus checking.	YOu must therefore take full responsibility for virus checking.	72819117	1473819762575	1473819762687	k	75
140921	1531994	You must therefore take full responsibility for virus checking.	YOu must therefore take full responsibility for virus checking.	72819119	1473819762767	1473819762856	i	73
140921	1531994	You must therefore take full responsibility for virus checking.	YOu must therefore take full responsibility for virus checking.	72819121	1473819762831	1473819762943	n	78
140921	1531994	You must therefore take full responsibility for virus checking.	YOu must therefore take full responsibility for virus checking.	72819123	1473819762903	1473819762999	g	71
140921	1531994	You must therefore take full responsibility for virus checking.	YOu must therefore take full responsibility for virus checking.	72819125	1473819763023	1473819763127	.	190
140921	1532007	Let's wait until Monday.	Let's wait until Monday.	72819241	1473819765063	1473819765287	SHIFT	16
140921	1532007	Let's wait until Monday.	Let's wait until Monday.	72819244	1473819765191	1473819765326	L	76
140921	1532007	Let's wait until Monday.	Let's wait until Monday.	72819247	1473819765319	1473819765447	e	69
140921	1532007	Let's wait until Monday.	Let's wait until Monday.	72819254	1473819765414	1473819765526	t	84
140921	1532007	Let's wait until Monday.	Let's wait until Monday.	72819262	1473819765503	1473819765647	'	222
140921	1532007	Let's wait until Monday.	Let's wait until Monday.	72819276	1473819765623	1473819765710	s	83
140921	1532007	Let's wait until Monday.	Let's wait until Monday.	72819278	1473819765704	1473819765791	 	32
140921	1532007	Let's wait until Monday.	Let's wait until Monday.	72819284	1473819765807	1473819765918	w	87
140921	1532007	Let's wait until Monday.	Let's wait until Monday.	72819288	1473819765863	1473819765974	a	65
140921	1532007	Let's wait until Monday.	Let's wait until Monday.	72819290	1473819765959	1473819766078	i	73
140921	1532007	Let's wait until Monday.	Let's wait until Monday.	72819299	1473819766047	1473819766166	t	84
140921	1532007	Let's wait until Monday.	Let's wait until Monday.	72819303	1473819766143	1473819766238	 	32
140921	1532007	Let's wait until Monday.	Let's wait until Monday.	72819306	1473819766231	1473819766366	u	85
140921	1532007	Let's wait until Monday.	Let's wait until Monday.	72819311	1473819766343	1473819766471	n	78
140921	1532007	Let's wait until Monday.	Let's wait until Monday.	72819314	1473819766471	1473819766575	t	84
140921	1532007	Let's wait until Monday.	Let's wait until Monday.	72819360	1473819766551	1473819766711	i	73
140921	1532007	Let's wait until Monday.	Let's wait until Monday.	72819369	1473819766695	1473819766847	l	76
140921	1532007	Let's wait until Monday.	Let's wait until Monday.	72819378	1473819766823	1473819766927	 	32
140921	1532007	Let's wait until Monday.	Let's wait until Monday.	72819385	1473819766943	1473819767103	SHIFT	16
140921	1532007	Let's wait until Monday.	Let's wait until Monday.	72819389	1473819767015	1473819767175	M	77
140921	1532007	Let's wait until Monday.	Let's wait until Monday.	72819394	1473819767135	1473819767335	o	79
140921	1532007	Let's wait until Monday.	Let's wait until Monday.	72819403	1473819767287	1473819767430	n	78
140921	1532007	Let's wait until Monday.	Let's wait until Monday.	72819404	1473819767351	1473819767438	d	68
140921	1532007	Let's wait until Monday.	Let's wait until Monday.	72819408	1473819767423	1473819767551	a	65
140921	1532007	Let's wait until Monday.	Let's wait until Monday.	72819413	1473819767511	1473819767607	y	89
140921	1532007	Let's wait until Monday.	Let's wait until Monday.	72819418	1473819767567	1473819767687	.	190
140921	1532014	I wonder if RBS is another institution which could move quickly.	I wonder if RBS is anotehr institution which could move quickly.	72819514	1473819769423	1473819769655	SHIFT	16
140921	1532014	I wonder if RBS is another institution which could move quickly.	I wonder if RBS is anotehr institution which could move quickly.	72819518	1473819769591	1473819769719	I	73
140921	1532014	I wonder if RBS is another institution which could move quickly.	I wonder if RBS is anotehr institution which could move quickly.	72819526	1473819769687	1473819769824	 	32
140921	1532014	I wonder if RBS is another institution which could move quickly.	I wonder if RBS is anotehr institution which could move quickly.	72819534	1473819769767	1473819769878	w	87
140921	1532014	I wonder if RBS is another institution which could move quickly.	I wonder if RBS is anotehr institution which could move quickly.	72819540	1473819769807	1473819769982	o	79
140921	1532014	I wonder if RBS is another institution which could move quickly.	I wonder if RBS is anotehr institution which could move quickly.	72819552	1473819769911	1473819770054	n	78
140921	1532014	I wonder if RBS is another institution which could move quickly.	I wonder if RBS is anotehr institution which could move quickly.	72819549	1473819769991	1473819770046	d	68
140921	1532014	I wonder if RBS is another institution which could move quickly.	I wonder if RBS is anotehr institution which could move quickly.	72819556	1473819770119	1473819770254	e	69
140921	1532014	I wonder if RBS is another institution which could move quickly.	I wonder if RBS is anotehr institution which could move quickly.	72819558	1473819770159	1473819770295	r	82
140921	1532014	I wonder if RBS is another institution which could move quickly.	I wonder if RBS is anotehr institution which could move quickly.	72819560	1473819770247	1473819770350	 	32
140921	1532014	I wonder if RBS is another institution which could move quickly.	I wonder if RBS is anotehr institution which could move quickly.	72819598	1473819770343	1473819770472	i	73
140921	1532014	I wonder if RBS is another institution which could move quickly.	I wonder if RBS is anotehr institution which could move quickly.	72819602	1473819770407	1473819770518	f	70
140921	1532014	I wonder if RBS is another institution which could move quickly.	I wonder if RBS is anotehr institution which could move quickly.	72819607	1473819770495	1473819770575	 	32
140921	1532014	I wonder if RBS is another institution which could move quickly.	I wonder if RBS is anotehr institution which could move quickly.	72819639	1473819770598	1473819771134	SHIFT	16
140921	1532014	I wonder if RBS is another institution which could move quickly.	I wonder if RBS is anotehr institution which could move quickly.	72819614	1473819770695	1473819770799	R	82
140921	1532014	I wonder if RBS is another institution which could move quickly.	I wonder if RBS is anotehr institution which could move quickly.	72819618	1473819770831	1473819770951	B	66
140921	1532014	I wonder if RBS is another institution which could move quickly.	I wonder if RBS is anotehr institution which could move quickly.	72819626	1473819770991	1473819771111	S	83
140921	1532014	I wonder if RBS is another institution which could move quickly.	I wonder if RBS is anotehr institution which could move quickly.	72819642	1473819771095	1473819771198	 	32
140921	1532014	I wonder if RBS is another institution which could move quickly.	I wonder if RBS is anotehr institution which could move quickly.	72819648	1473819771303	1473819771415	i	73
140921	1532014	I wonder if RBS is another institution which could move quickly.	I wonder if RBS is anotehr institution which could move quickly.	72819654	1473819771343	1473819771486	s	83
140921	1532014	I wonder if RBS is another institution which could move quickly.	I wonder if RBS is anotehr institution which could move quickly.	72819657	1473819771479	1473819771583	 	32
140921	1532014	I wonder if RBS is another institution which could move quickly.	I wonder if RBS is anotehr institution which could move quickly.	72819661	1473819771591	1473819771727	a	65
140921	1532014	I wonder if RBS is another institution which could move quickly.	I wonder if RBS is anotehr institution which could move quickly.	72819668	1473819771671	1473819771790	n	78
140921	1532014	I wonder if RBS is another institution which could move quickly.	I wonder if RBS is anotehr institution which could move quickly.	72819672	1473819771767	1473819771919	o	79
140921	1532014	I wonder if RBS is another institution which could move quickly.	I wonder if RBS is anotehr institution which could move quickly.	72819675	1473819771815	1473819771919	t	84
140921	1532014	I wonder if RBS is another institution which could move quickly.	I wonder if RBS is anotehr institution which could move quickly.	72819691	1473819771991	1473819772134	h	69
140921	1532014	I wonder if RBS is another institution which could move quickly.	I wonder if RBS is anotehr institution which could move quickly.	72819696	1473819772079	1473819772200	r	82
140921	1532014	I wonder if RBS is another institution which could move quickly.	I wonder if RBS is anotehr institution which could move quickly.	72819702	1473819772167	1473819772255	 	32
140921	1532014	I wonder if RBS is another institution which could move quickly.	I wonder if RBS is anotehr institution which could move quickly.	72819708	1473819772303	1473819772431	i	73
140921	1532014	I wonder if RBS is another institution which could move quickly.	I wonder if RBS is anotehr institution which could move quickly.	72819711	1473819772375	1473819772478	n	78
140921	1532014	I wonder if RBS is another institution which could move quickly.	I wonder if RBS is anotehr institution which could move quickly.	72819716	1473819772487	1473819772617	s	83
140921	1532014	I wonder if RBS is another institution which could move quickly.	I wonder if RBS is anotehr institution which could move quickly.	72819757	1473819772591	1473819772687	u	85
140921	1532014	I wonder if RBS is another institution which could move quickly.	I wonder if RBS is anotehr institution which could move quickly.	72819758	1473819772695	1473819772814	t	84
140921	1532014	I wonder if RBS is another institution which could move quickly.	I wonder if RBS is anotehr institution which could move quickly.	72819759	1473819772903	1473819772966	BKSP	8
140921	1532014	I wonder if RBS is another institution which could move quickly.	I wonder if RBS is anotehr institution which could move quickly.	72819760	1473819773055	1473819773094	BKSP	8
140921	1532014	I wonder if RBS is another institution which could move quickly.	I wonder if RBS is anotehr institution which could move quickly.	72819762	1473819773175	1473819773206	BKSP	8
140921	1532014	I wonder if RBS is another institution which could move quickly.	I wonder if RBS is anotehr institution which could move quickly.	72819764	1473819773367	1473819773462	t	84
140921	1532014	I wonder if RBS is another institution which could move quickly.	I wonder if RBS is anotehr institution which could move quickly.	72819767	1473819773655	1473819773743	BKSP	8
140921	1532014	I wonder if RBS is another institution which could move quickly.	I wonder if RBS is anotehr institution which could move quickly.	72819771	1473819773791	1473819773911	s	83
140921	1532014	I wonder if RBS is another institution which could move quickly.	I wonder if RBS is anotehr institution which could move quickly.	72819776	1473819773871	1473819773982	t	84
140921	1532014	I wonder if RBS is another institution which could move quickly.	I wonder if RBS is anotehr institution which could move quickly.	72819780	1473819774071	1473819774182	i	73
140921	1532014	I wonder if RBS is another institution which could move quickly.	I wonder if RBS is anotehr institution which could move quickly.	72819821	1473819774239	1473819774342	t	84
140921	1532014	I wonder if RBS is another institution which could move quickly.	I wonder if RBS is anotehr institution which could move quickly.	72819825	1473819774335	1473819774414	u	85
140921	1532014	I wonder if RBS is another institution which could move quickly.	I wonder if RBS is anotehr institution which could move quickly.	72819829	1473819775271	1473819775360	t	84
140921	1532014	I wonder if RBS is another institution which could move quickly.	I wonder if RBS is anotehr institution which could move quickly.	72819831	1473819775335	1473819775558	i	73
140921	1532014	I wonder if RBS is another institution which could move quickly.	I wonder if RBS is anotehr institution which could move quickly.	72819841	1473819775423	1473819775590	o	79
140921	1532014	I wonder if RBS is another institution which could move quickly.	I wonder if RBS is anotehr institution which could move quickly.	72819844	1473819775503	1473819775630	n	78
140921	1532014	I wonder if RBS is another institution which could move quickly.	I wonder if RBS is anotehr institution which could move quickly.	72819847	1473819775615	1473819775726	 	32
140921	1532014	I wonder if RBS is another institution which could move quickly.	I wonder if RBS is anotehr institution which could move quickly.	72819851	1473819775671	1473819775809	w	87
140921	1532014	I wonder if RBS is another institution which could move quickly.	I wonder if RBS is anotehr institution which could move quickly.	72819853	1473819775783	1473819775894	h	72
140921	1532014	I wonder if RBS is another institution which could move quickly.	I wonder if RBS is anotehr institution which could move quickly.	72819855	1473819775871	1473819776038	i	73
140921	1532014	I wonder if RBS is another institution which could move quickly.	I wonder if RBS is anotehr institution which could move quickly.	72819859	1473819775958	1473819776063	c	67
140921	1532014	I wonder if RBS is another institution which could move quickly.	I wonder if RBS is anotehr institution which could move quickly.	72819861	1473819776079	1473819776166	h	72
140921	1532014	I wonder if RBS is another institution which could move quickly.	I wonder if RBS is anotehr institution which could move quickly.	72819863	1473819776127	1473819776230	 	32
140921	1532014	I wonder if RBS is another institution which could move quickly.	I wonder if RBS is anotehr institution which could move quickly.	72819865	1473819776263	1473819776382	c	67
140921	1532014	I wonder if RBS is another institution which could move quickly.	I wonder if RBS is anotehr institution which could move quickly.	72819869	1473819776319	1473819776446	o	79
140921	1532014	I wonder if RBS is another institution which could move quickly.	I wonder if RBS is anotehr institution which could move quickly.	72819892	1473819776383	1473819776503	u	85
140921	1532014	I wonder if RBS is another institution which could move quickly.	I wonder if RBS is anotehr institution which could move quickly.	72819895	1473819776575	1473819776711	l	76
140921	1532014	I wonder if RBS is another institution which could move quickly.	I wonder if RBS is anotehr institution which could move quickly.	72819901	1473819776671	1473819776766	d	68
140921	1532014	I wonder if RBS is another institution which could move quickly.	I wonder if RBS is anotehr institution which could move quickly.	72819904	1473819776727	1473819776838	 	32
140921	1532014	I wonder if RBS is another institution which could move quickly.	I wonder if RBS is anotehr institution which could move quickly.	72819909	1473819776863	1473819777022	m	77
140921	1532014	I wonder if RBS is another institution which could move quickly.	I wonder if RBS is anotehr institution which could move quickly.	72819925	1473819776991	1473819777127	o	79
140921	1532014	I wonder if RBS is another institution which could move quickly.	I wonder if RBS is anotehr institution which could move quickly.	72819929	1473819777071	1473819777174	v	86
140921	1532014	I wonder if RBS is another institution which could move quickly.	I wonder if RBS is anotehr institution which could move quickly.	72819934	1473819777191	1473819777310	e	69
140921	1532014	I wonder if RBS is another institution which could move quickly.	I wonder if RBS is anotehr institution which could move quickly.	72819939	1473819777287	1473819777398	 	32
140921	1532014	I wonder if RBS is another institution which could move quickly.	I wonder if RBS is anotehr institution which could move quickly.	72819945	1473819777375	1473819777510	q	81
140921	1532014	I wonder if RBS is another institution which could move quickly.	I wonder if RBS is anotehr institution which could move quickly.	72819975	1473819777479	1473819777542	u	85
140921	1532014	I wonder if RBS is another institution which could move quickly.	I wonder if RBS is anotehr institution which could move quickly.	72819982	1473819777639	1473819777718	i	73
140921	1532014	I wonder if RBS is another institution which could move quickly.	I wonder if RBS is anotehr institution which could move quickly.	72819986	1473819777759	1473819777854	c	67
140921	1532014	I wonder if RBS is another institution which could move quickly.	I wonder if RBS is anotehr institution which could move quickly.	72819992	1473819777847	1473819777942	k	75
140921	1532014	I wonder if RBS is another institution which could move quickly.	I wonder if RBS is anotehr institution which could move quickly.	72819995	1473819777991	1473819778078	l	76
140921	1532014	I wonder if RBS is another institution which could move quickly.	I wonder if RBS is anotehr institution which could move quickly.	72820005	1473819778023	1473819778126	y	89
140921	1532014	I wonder if RBS is another institution which could move quickly.	I wonder if RBS is anotehr institution which could move quickly.	72820007	1473819778175	1473819778294	.	190
140921	1532026	Travis is in charge.	Travis is in charge.	72820095	1473819779710	1473819779974	SHIFT	16
140921	1532026	Travis is in charge.	Travis is in charge.	72820102	1473819779911	1473819780118	T	84
140921	1532026	Travis is in charge.	Travis is in charge.	72820108	1473819780039	1473819780142	r	82
140921	1532026	Travis is in charge.	Travis is in charge.	72820112	1473819780111	1473819780262	a	65
140921	1532026	Travis is in charge.	Travis is in charge.	72820115	1473819780255	1473819780376	v	86
140921	1532026	Travis is in charge.	Travis is in charge.	72820155	1473819780375	1473819780510	i	73
140921	1532026	Travis is in charge.	Travis is in charge.	72820161	1473819780455	1473819780582	s	83
140921	1532026	Travis is in charge.	Travis is in charge.	72820164	1473819780543	1473819780662	 	32
140921	1532026	Travis is in charge.	Travis is in charge.	72820167	1473819780687	1473819780838	i	73
140921	1532026	Travis is in charge.	Travis is in charge.	72820171	1473819780767	1473819780862	n	78
140921	1532026	Travis is in charge.	Travis is in charge.	72820176	1473819781087	1473819781158	BKSP	8
140921	1532026	Travis is in charge.	Travis is in charge.	72820178	1473819781247	1473819781342	s	83
140921	1532026	Travis is in charge.	Travis is in charge.	72820195	1473819781311	1473819781414	 	32
140921	1532026	Travis is in charge.	Travis is in charge.	72820200	1473819781423	1473819781590	i	73
140921	1532026	Travis is in charge.	Travis is in charge.	72820203	1473819781527	1473819781646	n	78
140921	1532026	Travis is in charge.	Travis is in charge.	72820210	1473819781662	1473819781742	 	32
140921	1532026	Travis is in charge.	Travis is in charge.	72820214	1473819781855	1473819781950	c	67
140921	1532026	Travis is in charge.	Travis is in charge.	72820220	1473819781959	1473819782046	h	72
140921	1532026	Travis is in charge.	Travis is in charge.	72820243	1473819782022	1473819782158	a	65
140921	1532026	Travis is in charge.	Travis is in charge.	72820245	1473819782119	1473819782214	r	82
140921	1532026	Travis is in charge.	Travis is in charge.	72820249	1473819782287	1473819782398	g	71
140921	1532026	Travis is in charge.	Travis is in charge.	72820253	1473819782351	1473819782461	e	69
140921	1532026	Travis is in charge.	Travis is in charge.	72820257	1473819782455	1473819782582	.	190
140921	1532033	We are heartened by the many notes of care and concern.	We are heartened by the many notes of care and concern.	72820391	1473819784646	1473819784838	SHIFT	16
140921	1532033	We are heartened by the many notes of care and concern.	We are heartened by the many notes of care and concern.	72820393	1473819784767	1473819784920	W	87
140921	1532033	We are heartened by the many notes of care and concern.	We are heartened by the many notes of care and concern.	72820396	1473819784894	1473819785030	e	69
140921	1532033	We are heartened by the many notes of care and concern.	We are heartened by the many notes of care and concern.	72820399	1473819784991	1473819785119	 	32
140921	1532033	We are heartened by the many notes of care and concern.	We are heartened by the many notes of care and concern.	72820404	1473819785071	1473819785238	a	65
140921	1532033	We are heartened by the many notes of care and concern.	We are heartened by the many notes of care and concern.	72820423	1473819785175	1473819785318	r	82
140921	1532033	We are heartened by the many notes of care and concern.	We are heartened by the many notes of care and concern.	72820428	1473819785240	1473819785390	e	69
140921	1532033	We are heartened by the many notes of care and concern.	We are heartened by the many notes of care and concern.	72820432	1473819785335	1473819785454	 	32
140921	1532033	We are heartened by the many notes of care and concern.	We are heartened by the many notes of care and concern.	72820436	1473819785494	1473819785622	h	72
140921	1532033	We are heartened by the many notes of care and concern.	We are heartened by the many notes of care and concern.	72820439	1473819785551	1473819785725	e	69
140921	1532033	We are heartened by the many notes of care and concern.	We are heartened by the many notes of care and concern.	72820452	1473819785631	1473819785782	a	65
140921	1532033	We are heartened by the many notes of care and concern.	We are heartened by the many notes of care and concern.	72820456	1473819785719	1473819785814	r	82
140921	1532033	We are heartened by the many notes of care and concern.	We are heartened by the many notes of care and concern.	72820461	1473819785903	1473819786022	t	84
140921	1532033	We are heartened by the many notes of care and concern.	We are heartened by the many notes of care and concern.	72820465	1473819785950	1473819786062	e	69
140921	1532033	We are heartened by the many notes of care and concern.	We are heartened by the many notes of care and concern.	72820469	1473819786070	1473819786206	n	78
140921	1532033	We are heartened by the many notes of care and concern.	We are heartened by the many notes of care and concern.	72820473	1473819786167	1473819786238	e	69
140921	1532033	We are heartened by the many notes of care and concern.	We are heartened by the many notes of care and concern.	72820475	1473819786335	1473819786422	d	68
140921	1532033	We are heartened by the many notes of care and concern.	We are heartened by the many notes of care and concern.	72820486	1473819786399	1473819786550	 	32
140921	1532033	We are heartened by the many notes of care and concern.	We are heartened by the many notes of care and concern.	72820491	1473819786511	1473819786582	b	66
140921	1532033	We are heartened by the many notes of care and concern.	We are heartened by the many notes of care and concern.	72820494	1473819786710	1473819786822	y	89
140921	1532033	We are heartened by the many notes of care and concern.	We are heartened by the many notes of care and concern.	72820501	1473819786815	1473819786926	 	32
140921	1532033	We are heartened by the many notes of care and concern.	We are heartened by the many notes of care and concern.	72820506	1473819786910	1473819787016	t	84
140921	1532033	We are heartened by the many notes of care and concern.	We are heartened by the many notes of care and concern.	72820539	1473819787014	1473819787110	h	72
140921	1532033	We are heartened by the many notes of care and concern.	We are heartened by the many notes of care and concern.	72820545	1473819787071	1473819787182	e	69
140921	1532033	We are heartened by the many notes of care and concern.	We are heartened by the many notes of care and concern.	72820551	1473819787143	1473819787237	 	32
140921	1532033	We are heartened by the many notes of care and concern.	We are heartened by the many notes of care and concern.	72820554	1473819787231	1473819787350	m	77
140921	1532033	We are heartened by the many notes of care and concern.	We are heartened by the many notes of care and concern.	72820557	1473819787335	1473819787462	a	65
140921	1532033	We are heartened by the many notes of care and concern.	We are heartened by the many notes of care and concern.	72820560	1473819787463	1473819787574	n	78
140921	1532033	We are heartened by the many notes of care and concern.	We are heartened by the many notes of care and concern.	72820569	1473819787527	1473819787645	y	89
140921	1532033	We are heartened by the many notes of care and concern.	We are heartened by the many notes of care and concern.	72820573	1473819787607	1473819787694	 	32
140921	1532033	We are heartened by the many notes of care and concern.	We are heartened by the many notes of care and concern.	72820577	1473819787734	1473819787950	n	78
140921	1532033	We are heartened by the many notes of care and concern.	We are heartened by the many notes of care and concern.	72820581	1473819787911	1473819788030	o	79
140921	1532033	We are heartened by the many notes of care and concern.	We are heartened by the many notes of care and concern.	72820586	1473819787966	1473819788142	t	84
140921	1532033	We are heartened by the many notes of care and concern.	We are heartened by the many notes of care and concern.	72820617	1473819788039	1473819788222	e	69
140921	1532033	We are heartened by the many notes of care and concern.	We are heartened by the many notes of care and concern.	72820619	1473819788126	1473819788302	s	83
140921	1532033	We are heartened by the many notes of care and concern.	We are heartened by the many notes of care and concern.	72820622	1473819788231	1473819788326	 	32
140921	1532033	We are heartened by the many notes of care and concern.	We are heartened by the many notes of care and concern.	72820625	1473819788358	1473819788494	o	79
140921	1532033	We are heartened by the many notes of care and concern.	We are heartened by the many notes of care and concern.	72820630	1473819788422	1473819788526	f	70
140921	1532033	We are heartened by the many notes of care and concern.	We are heartened by the many notes of care and concern.	72820633	1473819788495	1473819788566	 	32
140921	1532033	We are heartened by the many notes of care and concern.	We are heartened by the many notes of care and concern.	72820639	1473819788638	1473819788733	c	67
140921	1532033	We are heartened by the many notes of care and concern.	We are heartened by the many notes of care and concern.	72820656	1473819788726	1473819788870	a	65
140921	1532033	We are heartened by the many notes of care and concern.	We are heartened by the many notes of care and concern.	72820662	1473819788831	1473819788990	r	82
140921	1532033	We are heartened by the many notes of care and concern.	We are heartened by the many notes of care and concern.	72820667	1473819788919	1473819789046	e	69
140921	1532033	We are heartened by the many notes of care and concern.	We are heartened by the many notes of care and concern.	72820673	1473819788998	1473819789111	 	32
140921	1532033	We are heartened by the many notes of care and concern.	We are heartened by the many notes of care and concern.	72820679	1473819789086	1473819789214	a	65
140921	1532033	We are heartened by the many notes of care and concern.	We are heartened by the many notes of care and concern.	72820705	1473819789199	1473819789294	n	78
140921	1532033	We are heartened by the many notes of care and concern.	We are heartened by the many notes of care and concern.	72820711	1473819789278	1473819789398	d	68
140921	1532033	We are heartened by the many notes of care and concern.	We are heartened by the many notes of care and concern.	72820718	1473819789342	1473819789446	 	32
140921	1532033	We are heartened by the many notes of care and concern.	We are heartened by the many notes of care and concern.	72820723	1473819789479	1473819789574	c	67
140921	1532033	We are heartened by the many notes of care and concern.	We are heartened by the many notes of care and concern.	72820729	1473819789566	1473819789718	o	79
140921	1532033	We are heartened by the many notes of care and concern.	We are heartened by the many notes of care and concern.	72820799	1473819789631	1473819789758	n	78
140921	1532033	We are heartened by the many notes of care and concern.	We are heartened by the many notes of care and concern.	72820802	1473819789702	1473819789774	c	67
140921	1532033	We are heartened by the many notes of care and concern.	We are heartened by the many notes of care and concern.	72820807	1473819789814	1473819789942	e	69
140921	1532033	We are heartened by the many notes of care and concern.	We are heartened by the many notes of care and concern.	72820811	1473819789878	1473819790014	r	82
140921	1532033	We are heartened by the many notes of care and concern.	We are heartened by the many notes of care and concern.	72820817	1473819790230	1473819790318	n	78
140921	1532033	We are heartened by the many notes of care and concern.	We are heartened by the many notes of care and concern.	72820821	1473819790406	1473819790518	.	190
140921	1532042	Presuming we can afford headcount?	Presuming we can afford headcount?	72820935	1473819792334	1473819792542	SHIFT	16
140921	1532042	Presuming we can afford headcount?	Presuming we can afford headcount?	72820937	1473819792478	1473819792590	P	80
140921	1532042	Presuming we can afford headcount?	Presuming we can afford headcount?	72820939	1473819792574	1473819792709	r	82
140921	1532042	Presuming we can afford headcount?	Presuming we can afford headcount?	72820941	1473819792638	1473819792790	e	69
140921	1532042	Presuming we can afford headcount?	Presuming we can afford headcount?	72820943	1473819792702	1473819792830	s	83
140921	1532042	Presuming we can afford headcount?	Presuming we can afford headcount?	72820946	1473819792870	1473819792974	i	73
140921	1532042	Presuming we can afford headcount?	Presuming we can afford headcount?	72820982	1473819793198	1473819793278	BKSP	8
140921	1532042	Presuming we can afford headcount?	Presuming we can afford headcount?	72820986	1473819793398	1473819793502	u	85
140921	1532042	Presuming we can afford headcount?	Presuming we can afford headcount?	72820990	1473819793543	1473819793725	m	77
140921	1532042	Presuming we can afford headcount?	Presuming we can afford headcount?	72820994	1473819793718	1473819793901	i	73
140921	1532042	Presuming we can afford headcount?	Presuming we can afford headcount?	72821024	1473819793846	1473819793983	n	78
140921	1532042	Presuming we can afford headcount?	Presuming we can afford headcount?	72821021	1473819793870	1473819793973	g	71
140921	1532042	Presuming we can afford headcount?	Presuming we can afford headcount?	72821027	1473819793967	1473819794070	 	32
140921	1532042	Presuming we can afford headcount?	Presuming we can afford headcount?	72821030	1473819794030	1473819794166	w	87
140921	1532042	Presuming we can afford headcount?	Presuming we can afford headcount?	72821033	1473819794110	1473819794254	e	69
140921	1532042	Presuming we can afford headcount?	Presuming we can afford headcount?	72821037	1473819794222	1473819794326	 	32
140921	1532042	Presuming we can afford headcount?	Presuming we can afford headcount?	72821040	1473819794398	1473819794478	c	67
140921	1532042	Presuming we can afford headcount?	Presuming we can afford headcount?	72821050	1473819794463	1473819794590	a	65
140921	1532042	Presuming we can afford headcount?	Presuming we can afford headcount?	72821052	1473819794558	1473819794646	n	78
140921	1532042	Presuming we can afford headcount?	Presuming we can afford headcount?	72821056	1473819794678	1473819794782	 	32
140921	1532042	Presuming we can afford headcount?	Presuming we can afford headcount?	72821059	1473819794750	1473819794878	a	65
140921	1532042	Presuming we can afford headcount?	Presuming we can afford headcount?	72821062	1473819794830	1473819794910	f	70
140921	1532042	Presuming we can afford headcount?	Presuming we can afford headcount?	72821066	1473819794982	1473819795070	f	70
140921	1532042	Presuming we can afford headcount?	Presuming we can afford headcount?	72821085	1473819795094	1473819795214	o	79
140921	1532042	Presuming we can afford headcount?	Presuming we can afford headcount?	72821089	1473819795150	1473819795238	r	82
140921	1532042	Presuming we can afford headcount?	Presuming we can afford headcount?	72821093	1473819795318	1473819795430	d	68
140921	1532042	Presuming we can afford headcount?	Presuming we can afford headcount?	72821097	1473819795390	1473819795502	 	32
140921	1532042	Presuming we can afford headcount?	Presuming we can afford headcount?	72821101	1473819795574	1473819795710	h	72
140921	1532042	Presuming we can afford headcount?	Presuming we can afford headcount?	72821149	1473819795622	1473819795750	e	69
140921	1532042	Presuming we can afford headcount?	Presuming we can afford headcount?	72821150	1473819795718	1473819795846	a	65
140921	1532042	Presuming we can afford headcount?	Presuming we can afford headcount?	72821151	1473819796686	1473819796742	d	68
140921	1532042	Presuming we can afford headcount?	Presuming we can afford headcount?	72821152	1473819796839	1473819796942	c	67
140921	1532042	Presuming we can afford headcount?	Presuming we can afford headcount?	72821154	1473819796870	1473819797046	o	79
140921	1532042	Presuming we can afford headcount?	Presuming we can afford headcount?	72821200	1473819796950	1473819797094	u	85
140921	1532042	Presuming we can afford headcount?	Presuming we can afford headcount?	72821203	1473819797062	1473819797158	n	78
140921	1532042	Presuming we can afford headcount?	Presuming we can afford headcount?	72821205	1473819797134	1473819797221	t	84
140921	1532042	Presuming we can afford headcount?	Presuming we can afford headcount?	72821207	1473819797542	1473819797702	?	191
140921	1532054	Any other use is expressly prohibited.	Any other use is expressly prohibired.	72821354	1473819799614	1473819799725	A	65
140921	1532054	Any other use is expressly prohibited.	Any other use is expressly prohibired.	72821360	1473819799718	1473819799862	n	78
140921	1532054	Any other use is expressly prohibited.	Any other use is expressly prohibired.	72821364	1473819799862	1473819800006	y	89
140921	1532054	Any other use is expressly prohibited.	Any other use is expressly prohibired.	72821369	1473819800118	1473819800230	 	32
140921	1532054	Any other use is expressly prohibited.	Any other use is expressly prohibired.	72821371	1473819800278	1473819800438	o	79
140921	1532054	Any other use is expressly prohibited.	Any other use is expressly prohibired.	72821372	1473819800382	1473819800478	t	84
140921	1532054	Any other use is expressly prohibited.	Any other use is expressly prohibired.	72821374	1473819800486	1473819800606	h	72
140921	1532054	Any other use is expressly prohibited.	Any other use is expressly prohibired.	72821377	1473819800542	1473819800694	e	69
140921	1532054	Any other use is expressly prohibited.	Any other use is expressly prohibired.	72821381	1473819800630	1473819800758	r	82
140921	1532054	Any other use is expressly prohibited.	Any other use is expressly prohibired.	72821385	1473819800718	1473819800806	 	32
140921	1532054	Any other use is expressly prohibited.	Any other use is expressly prohibired.	72821446	1473819800766	1473819800901	u	85
140921	1532054	Any other use is expressly prohibited.	Any other use is expressly prohibired.	72821449	1473819800862	1473819801005	s	83
140921	1532054	Any other use is expressly prohibited.	Any other use is expressly prohibired.	72821453	1473819800934	1473819801078	e	69
140921	1532054	Any other use is expressly prohibited.	Any other use is expressly prohibired.	72821457	1473819801038	1473819801134	 	32
140921	1532054	Any other use is expressly prohibited.	Any other use is expressly prohibired.	72821461	1473819801150	1473819801229	o	79
140921	1532054	Any other use is expressly prohibited.	Any other use is expressly prohibired.	72821467	1473819801446	1473819801502	BKSP	8
140921	1532054	Any other use is expressly prohibited.	Any other use is expressly prohibired.	72821473	1473819801646	1473819801742	i	73
140921	1532054	Any other use is expressly prohibited.	Any other use is expressly prohibired.	72821505	1473819801702	1473819801822	s	83
140921	1532054	Any other use is expressly prohibited.	Any other use is expressly prohibired.	72821509	1473819801774	1473819801910	 	32
140921	1532054	Any other use is expressly prohibited.	Any other use is expressly prohibired.	72821518	1473819801934	1473819802006	e	69
140921	1532054	Any other use is expressly prohibited.	Any other use is expressly prohibired.	72821523	1473819802110	1473819802221	x	88
140921	1532054	Any other use is expressly prohibited.	Any other use is expressly prohibired.	72821527	1473819802198	1473819802325	p	80
140921	1532054	Any other use is expressly prohibited.	Any other use is expressly prohibired.	72821531	1473819802326	1473819802462	r	82
140921	1532054	Any other use is expressly prohibited.	Any other use is expressly prohibired.	72821562	1473819802374	1473819802526	e	69
140921	1532054	Any other use is expressly prohibited.	Any other use is expressly prohibired.	72821563	1473819802446	1473819802533	s	83
140921	1532054	Any other use is expressly prohibited.	Any other use is expressly prohibired.	72821564	1473819802630	1473819802710	s	83
140921	1532054	Any other use is expressly prohibited.	Any other use is expressly prohibired.	72821565	1473819802702	1473819802837	l	76
140921	1532054	Any other use is expressly prohibited.	Any other use is expressly prohibired.	72821566	1473819802838	1473819802981	y	89
140921	1532054	Any other use is expressly prohibited.	Any other use is expressly prohibired.	72821570	1473819802926	1473819803038	 	32
140921	1532054	Any other use is expressly prohibited.	Any other use is expressly prohibired.	72821574	1473819803118	1473819803270	p	80
140921	1532054	Any other use is expressly prohibited.	Any other use is expressly prohibired.	72821624	1473819803286	1473819803398	r	82
140921	1532054	Any other use is expressly prohibited.	Any other use is expressly prohibired.	72821627	1473819803446	1473819803574	o	79
140921	1532054	Any other use is expressly prohibited.	Any other use is expressly prohibired.	72821630	1473819803686	1473819803806	h	72
140921	1532054	Any other use is expressly prohibited.	Any other use is expressly prohibired.	72821632	1473819803822	1473819803949	i	73
140921	1532054	Any other use is expressly prohibited.	Any other use is expressly prohibired.	72821637	1473819803958	1473819804085	b	66
140921	1532054	Any other use is expressly prohibited.	Any other use is expressly prohibired.	72821685	1473819804078	1473819804189	i	73
140921	1532054	Any other use is expressly prohibited.	Any other use is expressly prohibired.	72821687	1473819804238	1473819804398	r	82
140921	1532054	Any other use is expressly prohibited.	Any other use is expressly prohibired.	72821690	1473819804381	1473819804470	e	69
140921	1532054	Any other use is expressly prohibited.	Any other use is expressly prohibired.	72821693	1473819804542	1473819804654	d	68
140921	1532054	Any other use is expressly prohibited.	Any other use is expressly prohibired.	72821700	1473819804678	1473819804718	.	190
