PARTICIPANT_ID	TEST_SECTION_ID	SENTENCE	USER_INPUT	KEYSTROKE_ID	PRESS_TIME	RELEASE_TIME	LETTER	KEYCODE
14172	152970	Michael said his day was rotten.	Micheal said his day was rotten.	7270724	1472089453383	1472089453592	SHIFT	16
14172	152970	Michael said his day was rotten.	Micheal said his day was rotten.	7270725	1472089453510	1472089453610	M	77
14172	152970	Michael said his day was rotten.	Micheal said his day was rotten.	7270726	1472089453613	1472089453706	i	73
14172	152970	Michael said his day was rotten.	Micheal said his day was rotten.	7270727	1472089453702	1472089453807	c	67
14172	152970	Michael said his day was rotten.	Micheal said his day was rotten.	7270731	1472089453745	1472089453857	h	72
14172	152970	Michael said his day was rotten.	Micheal said his day was rotten.	7270735	1472089453884	1472089453990	e	69
14172	152970	Michael said his day was rotten.	Micheal said his day was rotten.	7270751	1472089454035	1472089454160	a	65
14172	152970	Michael said his day was rotten.	Micheal said his day was rotten.	7270752	1472089454146	1472089454233	l	76
14172	152970	Michael said his day was rotten.	Micheal said his day was rotten.	7270753	1472089454340	1472089454439	 	32
14172	152970	Michael said his day was rotten.	Micheal said his day was rotten.	7270754	1472089454403	1472089454547	s	83
14172	152970	Michael said his day was rotten.	Micheal said his day was rotten.	7270762	1472089454505	1472089454640	a	65
14172	152970	Michael said his day was rotten.	Micheal said his day was rotten.	7270766	1472089454628	1472089454713	i	73
14172	152970	Michael said his day was rotten.	Micheal said his day was rotten.	7270769	1472089454704	1472089454809	d	68
14172	152970	Michael said his day was rotten.	Micheal said his day was rotten.	7270772	1472089454859	1472089454945	 	32
14172	152970	Michael said his day was rotten.	Micheal said his day was rotten.	7270775	1472089455042	1472089455136	h	72
14172	152970	Michael said his day was rotten.	Micheal said his day was rotten.	7270777	1472089455141	1472089455240	i	73
14172	152970	Michael said his day was rotten.	Micheal said his day was rotten.	7270792	1472089455251	1472089455341	s	83
14172	152970	Michael said his day was rotten.	Micheal said his day was rotten.	7270795	1472089455354	1472089455451	 	32
14172	152970	Michael said his day was rotten.	Micheal said his day was rotten.	7270798	1472089455604	1472089455758	d	68
14172	152970	Michael said his day was rotten.	Micheal said his day was rotten.	7270802	1472089455721	1472089455845	a	65
14172	152970	Michael said his day was rotten.	Micheal said his day was rotten.	7270822	1472089455835	1472089455921	y	89
14172	152970	Michael said his day was rotten.	Micheal said his day was rotten.	7270825	1472089455937	1472089456027	 	32
14172	152970	Michael said his day was rotten.	Micheal said his day was rotten.	7270827	1472089456311	1472089456401	w	87
14172	152970	Michael said his day was rotten.	Micheal said his day was rotten.	7270829	1472089456469	1472089456635	a	65
14172	152970	Michael said his day was rotten.	Micheal said his day was rotten.	7270831	1472089456577	1472089456704	s	83
14172	152970	Michael said his day was rotten.	Micheal said his day was rotten.	7270833	1472089456709	1472089456794	 	32
14172	152970	Michael said his day was rotten.	Micheal said his day was rotten.	7270847	1472089456862	1472089456965	r	82
14172	152970	Michael said his day was rotten.	Micheal said his day was rotten.	7270849	1472089456999	1472089457087	o	79
14172	152970	Michael said his day was rotten.	Micheal said his day was rotten.	7270851	1472089457109	1472089457183	t	84
14172	152970	Michael said his day was rotten.	Micheal said his day was rotten.	7270853	1472089457242	1472089457325	t	84
14172	152970	Michael said his day was rotten.	Micheal said his day was rotten.	7270855	1472089457395	1472089457487	e	69
14172	152970	Michael said his day was rotten.	Micheal said his day was rotten.	7270886	1472089457532	1472089457600	n	78
14172	152970	Michael said his day was rotten.	Micheal said his day was rotten.	7270890	1472089457735	1472089457845	.	190
14172	152979	Man I don't want to get sick again.	Man I don't want to get sick again.	7271014	1472089460569	1472089460810	SHIFT	16
14172	152979	Man I don't want to get sick again.	Man I don't want to get sick again.	7271016	1472089460753	1472089460845	M	77
14172	152979	Man I don't want to get sick again.	Man I don't want to get sick again.	7271018	1472089460883	1472089460958	a	65
14172	152979	Man I don't want to get sick again.	Man I don't want to get sick again.	7271020	1472089461122	1472089461230	 	32
14172	152979	Man I don't want to get sick again.	Man I don't want to get sick again.	7271023	1472089461273	1472089461492	SHIFT	16
14172	152979	Man I don't want to get sick again.	Man I don't want to get sick again.	7271025	1472089461575	1472089461657	BKSP	8
14172	152979	Man I don't want to get sick again.	Man I don't want to get sick again.	7271028	1472089461880	1472089461968	n	78
14172	152979	Man I don't want to get sick again.	Man I don't want to get sick again.	7271032	1472089461977	1472089462067	 	32
14172	152979	Man I don't want to get sick again.	Man I don't want to get sick again.	7271054	1472089462087	1472089462242	SHIFT	16
14172	152979	Man I don't want to get sick again.	Man I don't want to get sick again.	7271056	1472089462202	1472089462283	I	73
14172	152979	Man I don't want to get sick again.	Man I don't want to get sick again.	7271059	1472089462382	1472089462467	 	32
14172	152979	Man I don't want to get sick again.	Man I don't want to get sick again.	7271060	1472089462436	1472089462526	d	68
14172	152979	Man I don't want to get sick again.	Man I don't want to get sick again.	7271063	1472089462532	1472089462622	o	79
14172	152979	Man I don't want to get sick again.	Man I don't want to get sick again.	7271065	1472089462635	1472089462732	n	78
14172	152979	Man I don't want to get sick again.	Man I don't want to get sick again.	7271091	1472089462847	1472089462940	'	222
14172	152979	Man I don't want to get sick again.	Man I don't want to get sick again.	7271093	1472089462955	1472089463041	t	84
14172	152979	Man I don't want to get sick again.	Man I don't want to get sick again.	7271094	1472089463085	1472089463185	 	32
14172	152979	Man I don't want to get sick again.	Man I don't want to get sick again.	7271095	1472089463171	1472089463250	w	87
14172	152979	Man I don't want to get sick again.	Man I don't want to get sick again.	7271096	1472089463313	1472089463411	a	65
14172	152979	Man I don't want to get sick again.	Man I don't want to get sick again.	7271108	1472089463418	1472089463512	n	78
14172	152979	Man I don't want to get sick again.	Man I don't want to get sick again.	7271111	1472089463508	1472089463598	t	84
14172	152979	Man I don't want to get sick again.	Man I don't want to get sick again.	7271116	1472089463620	1472089463706	 	32
14172	152979	Man I don't want to get sick again.	Man I don't want to get sick again.	7271120	1472089463796	1472089463890	t	84
14172	152979	Man I don't want to get sick again.	Man I don't want to get sick again.	7271127	1472089463891	1472089463981	o	79
14172	152979	Man I don't want to get sick again.	Man I don't want to get sick again.	7271149	1472089463971	1472089464090	 	32
14172	152979	Man I don't want to get sick again.	Man I don't want to get sick again.	7271151	1472089464206	1472089464309	g	71
14172	152979	Man I don't want to get sick again.	Man I don't want to get sick again.	7271155	1472089464293	1472089464383	e	69
14172	152979	Man I don't want to get sick again.	Man I don't want to get sick again.	7271158	1472089464401	1472089464484	t	84
14172	152979	Man I don't want to get sick again.	Man I don't want to get sick again.	7271161	1472089464509	1472089464606	 	32
14172	152979	Man I don't want to get sick again.	Man I don't want to get sick again.	7271165	1472089464653	1472089464736	s	83
14172	152979	Man I don't want to get sick again.	Man I don't want to get sick again.	7271178	1472089464745	1472089464833	i	73
14172	152979	Man I don't want to get sick again.	Man I don't want to get sick again.	7271180	1472089464825	1472089464920	c	67
14172	152979	Man I don't want to get sick again.	Man I don't want to get sick again.	7271183	1472089464933	1472089465030	k	75
14172	152979	Man I don't want to get sick again.	Man I don't want to get sick again.	7271186	1472089465122	1472089465222	 	32
14172	152979	Man I don't want to get sick again.	Man I don't want to get sick again.	7271214	1472089465212	1472089465307	a	65
14172	152979	Man I don't want to get sick again.	Man I don't want to get sick again.	7271216	1472089465318	1472089465410	g	71
14172	152979	Man I don't want to get sick again.	Man I don't want to get sick again.	7271220	1472089465424	1472089465521	a	65
14172	152979	Man I don't want to get sick again.	Man I don't want to get sick again.	7271223	1472089465513	1472089465610	i	73
14172	152979	Man I don't want to get sick again.	Man I don't want to get sick again.	7271228	1472089465637	1472089465731	n	78
14172	152979	Man I don't want to get sick again.	Man I don't want to get sick again.	7271231	1472089465844	1472089465943	.	190
14172	152985	If you need John speak up now.	If oyou need John speak up now	7271345	1472089468080	1472089468456	SHIFT	16
14172	152985	If you need John speak up now.	If oyou need John speak up now	7271349	1472089468353	1472089468457	I	73
14172	152985	If you need John speak up now.	If oyou need John speak up now	7271354	1472089468512	1472089468596	f	70
14172	152985	If you need John speak up now.	If oyou need John speak up now	7271358	1472089468593	1472089468686	 	32
14172	152985	If you need John speak up now.	If oyou need John speak up now	7271362	1472089468753	1472089468841	o	79
14172	152985	If you need John speak up now.	If oyou need John speak up now	7271367	1472089468848	1472089468955	u	85
14172	152985	If you need John speak up now.	If oyou need John speak up now	7271401	1472089469201	1472089469276	BKSP	8
14172	152985	If you need John speak up now.	If oyou need John speak up now	7271402	1472089469319	1472089469406	y	89
14172	152985	If you need John speak up now.	If oyou need John speak up now	7271403	1472089469415	1472089469507	o	79
14172	152985	If you need John speak up now.	If oyou need John speak up now	7271404	1472089469534	1472089469633	u	85
14172	152985	If you need John speak up now.	If oyou need John speak up now	7271405	1472089469615	1472089469688	 	32
14172	152985	If you need John speak up now.	If oyou need John speak up now	7271406	1472089469753	1472089469845	n	78
14172	152985	If you need John speak up now.	If oyou need John speak up now	7271444	1472089469854	1472089469940	e	69
14172	152985	If you need John speak up now.	If oyou need John speak up now	7271447	1472089470010	1472089470119	e	69
14172	152985	If you need John speak up now.	If oyou need John speak up now	7271450	1472089470076	1472089470199	d	68
14172	152985	If you need John speak up now.	If oyou need John speak up now	7271455	1472089470195	1472089470288	 	32
14172	152985	If you need John speak up now.	If oyou need John speak up now	7271459	1472089470402	1472089470605	SHIFT	16
14172	152985	If you need John speak up now.	If oyou need John speak up now	7271495	1472089470569	1472089470669	J	74
14172	152985	If you need John speak up now.	If oyou need John speak up now	7271497	1472089470672	1472089470762	o	79
14172	152985	If you need John speak up now.	If oyou need John speak up now	7271499	1472089471051	1472089471137	h	72
14172	152985	If you need John speak up now.	If oyou need John speak up now	7271501	1472089471164	1472089471245	n	78
14172	152985	If you need John speak up now.	If oyou need John speak up now	7271503	1472089471348	1472089471430	 	32
14172	152985	If you need John speak up now.	If oyou need John speak up now	7271505	1472089471452	1472089471546	s	83
14172	152985	If you need John speak up now.	If oyou need John speak up now	7271525	1472089471563	1472089471650	p	80
14172	152985	If you need John speak up now.	If oyou need John speak up now	7271529	1472089471672	1472089471760	e	69
14172	152985	If you need John speak up now.	If oyou need John speak up now	7271534	1472089472056	1472089472183	a	65
14172	152985	If you need John speak up now.	If oyou need John speak up now	7271538	1472089472423	1472089472526	k	75
14172	152985	If you need John speak up now.	If oyou need John speak up now	7271542	1472089472576	1472089472630	 	32
14172	152985	If you need John speak up now.	If oyou need John speak up now	7271594	1472089472997	1472089473079	u	85
14172	152985	If you need John speak up now.	If oyou need John speak up now	7271596	1472089473278	1472089473372	p	80
14172	152985	If you need John speak up now.	If oyou need John speak up now	7271599	1472089473379	1472089473489	 	32
14172	152985	If you need John speak up now.	If oyou need John speak up now	7271602	1472089473563	1472089473671	n	78
14172	152985	If you need John speak up now.	If oyou need John speak up now	7271604	1472089473674	1472089473772	o	79
14172	152985	If you need John speak up now.	If oyou need John speak up now	7271611	1472089473780	1472089473874	w	87
14172	152996	I got the impression that this is a message for internal use.	I got the impression that this is a message for internal use.	7271740	1472089477502	1472089477787	SHIFT	16
14172	152996	I got the impression that this is a message for internal use.	I got the impression that this is a message for internal use.	7271743	1472089477775	1472089477871	I	73
14172	152996	I got the impression that this is a message for internal use.	I got the impression that this is a message for internal use.	7271747	1472089477868	1472089477951	 	32
14172	152996	I got the impression that this is a message for internal use.	I got the impression that this is a message for internal use.	7271753	1472089478075	1472089478143	g	71
14172	152996	I got the impression that this is a message for internal use.	I got the impression that this is a message for internal use.	7271760	1472089478151	1472089478239	o	79
14172	152996	I got the impression that this is a message for internal use.	I got the impression that this is a message for internal use.	7271767	1472089478240	1472089478324	t	84
14172	152996	I got the impression that this is a message for internal use.	I got the impression that this is a message for internal use.	7271777	1472089478360	1472089478459	 	32
14172	152996	I got the impression that this is a message for internal use.	I got the impression that this is a message for internal use.	7271778	1472089478428	1472089478516	t	84
14172	152996	I got the impression that this is a message for internal use.	I got the impression that this is a message for internal use.	7271779	1472089478543	1472089478639	h	72
14172	152996	I got the impression that this is a message for internal use.	I got the impression that this is a message for internal use.	7271780	1472089478587	1472089478673	e	69
14172	152996	I got the impression that this is a message for internal use.	I got the impression that this is a message for internal use.	7271781	1472089478719	1472089478823	 	32
14172	152996	I got the impression that this is a message for internal use.	I got the impression that this is a message for internal use.	7271837	1472089478917	1472089478950	i	73
14172	152996	I got the impression that this is a message for internal use.	I got the impression that this is a message for internal use.	7271838	1472089479031	1472089479103	m	77
14172	152996	I got the impression that this is a message for internal use.	I got the impression that this is a message for internal use.	7271840	1472089479371	1472089479466	BKSP	8
14172	152996	I got the impression that this is a message for internal use.	I got the impression that this is a message for internal use.	7271842	1472089479927	1472089479986	m	77
14172	152996	I got the impression that this is a message for internal use.	I got the impression that this is a message for internal use.	7271843	1472089480098	1472089480205	p	80
14172	152996	I got the impression that this is a message for internal use.	I got the impression that this is a message for internal use.	7271853	1472089480197	1472089480329	r	82
14172	152996	I got the impression that this is a message for internal use.	I got the impression that this is a message for internal use.	7271855	1472089480266	1472089480399	e	69
14172	152996	I got the impression that this is a message for internal use.	I got the impression that this is a message for internal use.	7271859	1472089480451	1472089480536	s	83
14172	152996	I got the impression that this is a message for internal use.	I got the impression that this is a message for internal use.	7271861	1472089480581	1472089480667	s	83
14172	152996	I got the impression that this is a message for internal use.	I got the impression that this is a message for internal use.	7271863	1472089480698	1472089480820	i	73
14172	152996	I got the impression that this is a message for internal use.	I got the impression that this is a message for internal use.	7271877	1472089480805	1472089480889	o	79
14172	152996	I got the impression that this is a message for internal use.	I got the impression that this is a message for internal use.	7271878	1472089480909	1472089481010	n	78
14172	152996	I got the impression that this is a message for internal use.	I got the impression that this is a message for internal use.	7271879	1472089480936	1472089481030	 	32
14172	152996	I got the impression that this is a message for internal use.	I got the impression that this is a message for internal use.	7271880	1472089481143	1472089481230	t	84
14172	152996	I got the impression that this is a message for internal use.	I got the impression that this is a message for internal use.	7271881	1472089481224	1472089481329	h	72
14172	152996	I got the impression that this is a message for internal use.	I got the impression that this is a message for internal use.	7271907	1472089481298	1472089481397	a	65
14172	152996	I got the impression that this is a message for internal use.	I got the impression that this is a message for internal use.	7271911	1472089481430	1472089481525	t	84
14172	152996	I got the impression that this is a message for internal use.	I got the impression that this is a message for internal use.	7271916	1472089481533	1472089481612	 	32
14172	152996	I got the impression that this is a message for internal use.	I got the impression that this is a message for internal use.	7271921	1472089481707	1472089481801	t	84
14172	152996	I got the impression that this is a message for internal use.	I got the impression that this is a message for internal use.	7271926	1472089481788	1472089481923	h	72
14172	152996	I got the impression that this is a message for internal use.	I got the impression that this is a message for internal use.	7271949	1472089481875	1472089481986	i	73
14172	152996	I got the impression that this is a message for internal use.	I got the impression that this is a message for internal use.	7271952	1472089481974	1472089482073	s	83
14172	152996	I got the impression that this is a message for internal use.	I got the impression that this is a message for internal use.	7271954	1472089482050	1472089482143	 	32
14172	152996	I got the impression that this is a message for internal use.	I got the impression that this is a message for internal use.	7271956	1472089482192	1472089482305	i	73
14172	152996	I got the impression that this is a message for internal use.	I got the impression that this is a message for internal use.	7271959	1472089482282	1472089482370	s	83
14172	152996	I got the impression that this is a message for internal use.	I got the impression that this is a message for internal use.	7271962	1472089482394	1472089482507	 	32
14172	152996	I got the impression that this is a message for internal use.	I got the impression that this is a message for internal use.	7271990	1472089482478	1472089482592	a	65
14172	152996	I got the impression that this is a message for internal use.	I got the impression that this is a message for internal use.	7271991	1472089482601	1472089482707	 	32
14172	152996	I got the impression that this is a message for internal use.	I got the impression that this is a message for internal use.	7271992	1472089482798	1472089482908	m	77
14172	152996	I got the impression that this is a message for internal use.	I got the impression that this is a message for internal use.	7271993	1472089482871	1472089482975	e	69
14172	152996	I got the impression that this is a message for internal use.	I got the impression that this is a message for internal use.	7271994	1472089483115	1472089483208	s	83
14172	152996	I got the impression that this is a message for internal use.	I got the impression that this is a message for internal use.	7271996	1472089483274	1472089483371	s	83
14172	152996	I got the impression that this is a message for internal use.	I got the impression that this is a message for internal use.	7271998	1472089483425	1472089483527	a	65
14172	152996	I got the impression that this is a message for internal use.	I got the impression that this is a message for internal use.	7271999	1472089483495	1472089483592	g	71
14172	152996	I got the impression that this is a message for internal use.	I got the impression that this is a message for internal use.	7272000	1472089483639	1472089483740	e	69
14172	152996	I got the impression that this is a message for internal use.	I got the impression that this is a message for internal use.	7272001	1472089483726	1472089483812	 	32
14172	152996	I got the impression that this is a message for internal use.	I got the impression that this is a message for internal use.	7272002	1472089483938	1472089484060	f	70
14172	152996	I got the impression that this is a message for internal use.	I got the impression that this is a message for internal use.	7272022	1472089484093	1472089484198	o	79
14172	152996	I got the impression that this is a message for internal use.	I got the impression that this is a message for internal use.	7272024	1472089484195	1472089484311	r	82
14172	152996	I got the impression that this is a message for internal use.	I got the impression that this is a message for internal use.	7272025	1472089484318	1472089484404	 	32
14172	152996	I got the impression that this is a message for internal use.	I got the impression that this is a message for internal use.	7272026	1472089484447	1472089484546	i	73
14172	152996	I got the impression that this is a message for internal use.	I got the impression that this is a message for internal use.	7272027	1472089484550	1472089484661	n	78
14172	152996	I got the impression that this is a message for internal use.	I got the impression that this is a message for internal use.	7272034	1472089484651	1472089484741	t	84
14172	152996	I got the impression that this is a message for internal use.	I got the impression that this is a message for internal use.	7272036	1472089484761	1472089484916	e	69
14172	152996	I got the impression that this is a message for internal use.	I got the impression that this is a message for internal use.	7272038	1472089484860	1472089484962	r	82
14172	152996	I got the impression that this is a message for internal use.	I got the impression that this is a message for internal use.	7272040	1472089484956	1472089485037	n	78
14172	152996	I got the impression that this is a message for internal use.	I got the impression that this is a message for internal use.	7272042	1472089485067	1472089485179	a	65
14172	152996	I got the impression that this is a message for internal use.	I got the impression that this is a message for internal use.	7272044	1472089485185	1472089485278	l	76
14172	152996	I got the impression that this is a message for internal use.	I got the impression that this is a message for internal use.	7272049	1472089485296	1472089485377	 	32
14172	152996	I got the impression that this is a message for internal use.	I got the impression that this is a message for internal use.	7272051	1472089485494	1472089485582	u	85
14172	152996	I got the impression that this is a message for internal use.	I got the impression that this is a message for internal use.	7272053	1472089485546	1472089485640	s	83
14172	152996	I got the impression that this is a message for internal use.	I got the impression that this is a message for internal use.	7272056	1472089485719	1472089485818	e	69
14172	153007	Add a Star Trek convention and sports memorabilia show to the mix.	Add a Star Trek convention and sports memorabilia show to the mix.	7272604	1472089485802	1472089498983	.	190
14172	153007	Add a Star Trek convention and sports memorabilia show to the mix.	Add a Star Trek convention and sports memorabilia show to the mix.	7272153	1472089487822	1472089488192	SHIFT	16
14172	153007	Add a Star Trek convention and sports memorabilia show to the mix.	Add a Star Trek convention and sports memorabilia show to the mix.	7272155	1472089488132	1472089488318	A	65
14172	153007	Add a Star Trek convention and sports memorabilia show to the mix.	Add a Star Trek convention and sports memorabilia show to the mix.	7272157	1472089488278	1472089488376	d	68
14172	153007	Add a Star Trek convention and sports memorabilia show to the mix.	Add a Star Trek convention and sports memorabilia show to the mix.	7272158	1472089488444	1472089488534	d	68
14172	153007	Add a Star Trek convention and sports memorabilia show to the mix.	Add a Star Trek convention and sports memorabilia show to the mix.	7272160	1472089488566	1472089488667	 	32
14172	153007	Add a Star Trek convention and sports memorabilia show to the mix.	Add a Star Trek convention and sports memorabilia show to the mix.	7272162	1472089488675	1472089488889	SHIFT	16
14172	153007	Add a Star Trek convention and sports memorabilia show to the mix.	Add a Star Trek convention and sports memorabilia show to the mix.	7272164	1472089489117	1472089489227	a	65
14172	153007	Add a Star Trek convention and sports memorabilia show to the mix.	Add a Star Trek convention and sports memorabilia show to the mix.	7272167	1472089489263	1472089489362	 	32
14172	153007	Add a Star Trek convention and sports memorabilia show to the mix.	Add a Star Trek convention and sports memorabilia show to the mix.	7272169	1472089489335	1472089489542	SHIFT	16
14172	153007	Add a Star Trek convention and sports memorabilia show to the mix.	Add a Star Trek convention and sports memorabilia show to the mix.	7272172	1472089489493	1472089489600	S	83
14172	153007	Add a Star Trek convention and sports memorabilia show to the mix.	Add a Star Trek convention and sports memorabilia show to the mix.	7272178	1472089489611	1472089489717	t	84
14172	153007	Add a Star Trek convention and sports memorabilia show to the mix.	Add a Star Trek convention and sports memorabilia show to the mix.	7272183	1472089489657	1472089489748	a	65
14172	153007	Add a Star Trek convention and sports memorabilia show to the mix.	Add a Star Trek convention and sports memorabilia show to the mix.	7272190	1472089489800	1472089489897	r	82
14172	153007	Add a Star Trek convention and sports memorabilia show to the mix.	Add a Star Trek convention and sports memorabilia show to the mix.	7272218	1472089489878	1472089489958	 	32
14172	153007	Add a Star Trek convention and sports memorabilia show to the mix.	Add a Star Trek convention and sports memorabilia show to the mix.	7272222	1472089490000	1472089490160	SHIFT	16
14172	153007	Add a Star Trek convention and sports memorabilia show to the mix.	Add a Star Trek convention and sports memorabilia show to the mix.	7272227	1472089490110	1472089490209	T	84
14172	153007	Add a Star Trek convention and sports memorabilia show to the mix.	Add a Star Trek convention and sports memorabilia show to the mix.	7272233	1472089490295	1472089490392	r	82
14172	153007	Add a Star Trek convention and sports memorabilia show to the mix.	Add a Star Trek convention and sports memorabilia show to the mix.	7272238	1472089490384	1472089490473	e	69
14172	153007	Add a Star Trek convention and sports memorabilia show to the mix.	Add a Star Trek convention and sports memorabilia show to the mix.	7272241	1472089490551	1472089490655	k	75
14172	153007	Add a Star Trek convention and sports memorabilia show to the mix.	Add a Star Trek convention and sports memorabilia show to the mix.	7272243	1472089490688	1472089490767	 	32
14172	153007	Add a Star Trek convention and sports memorabilia show to the mix.	Add a Star Trek convention and sports memorabilia show to the mix.	7272260	1472089490871	1472089490961	c	67
14172	153007	Add a Star Trek convention and sports memorabilia show to the mix.	Add a Star Trek convention and sports memorabilia show to the mix.	7272262	1472089490964	1472089491051	o	79
14172	153007	Add a Star Trek convention and sports memorabilia show to the mix.	Add a Star Trek convention and sports memorabilia show to the mix.	7272265	1472089491071	1472089491175	n	78
14172	153007	Add a Star Trek convention and sports memorabilia show to the mix.	Add a Star Trek convention and sports memorabilia show to the mix.	7272268	1472089491296	1472089491384	v	86
14172	153007	Add a Star Trek convention and sports memorabilia show to the mix.	Add a Star Trek convention and sports memorabilia show to the mix.	7272295	1472089491359	1472089491445	e	69
14172	153007	Add a Star Trek convention and sports memorabilia show to the mix.	Add a Star Trek convention and sports memorabilia show to the mix.	7272297	1472089491478	1472089491580	n	78
14172	153007	Add a Star Trek convention and sports memorabilia show to the mix.	Add a Star Trek convention and sports memorabilia show to the mix.	7272301	1472089491559	1472089491653	t	84
14172	153007	Add a Star Trek convention and sports memorabilia show to the mix.	Add a Star Trek convention and sports memorabilia show to the mix.	7272304	1472089491685	1472089491836	i	73
14172	153007	Add a Star Trek convention and sports memorabilia show to the mix.	Add a Star Trek convention and sports memorabilia show to the mix.	7272308	1472089491784	1472089491917	o	79
14172	153007	Add a Star Trek convention and sports memorabilia show to the mix.	Add a Star Trek convention and sports memorabilia show to the mix.	7272311	1472089491924	1472089492025	n	78
14172	153007	Add a Star Trek convention and sports memorabilia show to the mix.	Add a Star Trek convention and sports memorabilia show to the mix.	7272317	1472089491993	1472089492079	 	32
14172	153007	Add a Star Trek convention and sports memorabilia show to the mix.	Add a Star Trek convention and sports memorabilia show to the mix.	7272318	1472089492132	1472089492246	a	65
14172	153007	Add a Star Trek convention and sports memorabilia show to the mix.	Add a Star Trek convention and sports memorabilia show to the mix.	7272320	1472089492242	1472089492341	n	78
14172	153007	Add a Star Trek convention and sports memorabilia show to the mix.	Add a Star Trek convention and sports memorabilia show to the mix.	7272322	1472089492303	1472089492397	d	68
14172	153007	Add a Star Trek convention and sports memorabilia show to the mix.	Add a Star Trek convention and sports memorabilia show to the mix.	7272324	1472089492435	1472089492542	 	32
14172	153007	Add a Star Trek convention and sports memorabilia show to the mix.	Add a Star Trek convention and sports memorabilia show to the mix.	7272346	1472089492534	1472089492639	s	83
14172	153007	Add a Star Trek convention and sports memorabilia show to the mix.	Add a Star Trek convention and sports memorabilia show to the mix.	7272348	1472089492637	1472089492757	p	80
14172	153007	Add a Star Trek convention and sports memorabilia show to the mix.	Add a Star Trek convention and sports memorabilia show to the mix.	7272351	1472089492719	1472089492854	o	79
14172	153007	Add a Star Trek convention and sports memorabilia show to the mix.	Add a Star Trek convention and sports memorabilia show to the mix.	7272356	1472089492888	1472089492935	t	82
14172	153007	Add a Star Trek convention and sports memorabilia show to the mix.	Add a Star Trek convention and sports memorabilia show to the mix.	7272361	1472089493200	1472089493286	s	83
14172	153007	Add a Star Trek convention and sports memorabilia show to the mix.	Add a Star Trek convention and sports memorabilia show to the mix.	7272384	1472089493381	1472089493475	 	32
14172	153007	Add a Star Trek convention and sports memorabilia show to the mix.	Add a Star Trek convention and sports memorabilia show to the mix.	7272386	1472089493609	1472089493672	m	77
14172	153007	Add a Star Trek convention and sports memorabilia show to the mix.	Add a Star Trek convention and sports memorabilia show to the mix.	7272390	1472089493649	1472089493757	e	69
14172	153007	Add a Star Trek convention and sports memorabilia show to the mix.	Add a Star Trek convention and sports memorabilia show to the mix.	7272391	1472089493798	1472089493929	m	77
14172	153007	Add a Star Trek convention and sports memorabilia show to the mix.	Add a Star Trek convention and sports memorabilia show to the mix.	7272423	1472089493920	1472089494027	o	79
14172	153007	Add a Star Trek convention and sports memorabilia show to the mix.	Add a Star Trek convention and sports memorabilia show to the mix.	7272425	1472089494042	1472089494141	r	82
14172	153007	Add a Star Trek convention and sports memorabilia show to the mix.	Add a Star Trek convention and sports memorabilia show to the mix.	7272426	1472089494220	1472089494317	a	65
14172	153007	Add a Star Trek convention and sports memorabilia show to the mix.	Add a Star Trek convention and sports memorabilia show to the mix.	7272428	1472089494416	1472089494502	b	66
14172	153007	Add a Star Trek convention and sports memorabilia show to the mix.	Add a Star Trek convention and sports memorabilia show to the mix.	7272429	1472089494591	1472089494679	i	73
14172	153007	Add a Star Trek convention and sports memorabilia show to the mix.	Add a Star Trek convention and sports memorabilia show to the mix.	7272431	1472089494752	1472089494849	l	76
14172	153007	Add a Star Trek convention and sports memorabilia show to the mix.	Add a Star Trek convention and sports memorabilia show to the mix.	7272445	1472089494921	1472089495017	i	73
14172	153007	Add a Star Trek convention and sports memorabilia show to the mix.	Add a Star Trek convention and sports memorabilia show to the mix.	7272447	1472089494988	1472089495107	a	65
14172	153007	Add a Star Trek convention and sports memorabilia show to the mix.	Add a Star Trek convention and sports memorabilia show to the mix.	7272449	1472089495150	1472089495240	 	32
14172	153007	Add a Star Trek convention and sports memorabilia show to the mix.	Add a Star Trek convention and sports memorabilia show to the mix.	7272450	1472089495305	1472089495449	s	83
14172	153007	Add a Star Trek convention and sports memorabilia show to the mix.	Add a Star Trek convention and sports memorabilia show to the mix.	7272495	1472089495433	1472089495501	h	72
14172	153007	Add a Star Trek convention and sports memorabilia show to the mix.	Add a Star Trek convention and sports memorabilia show to the mix.	7272496	1472089495491	1472089495530	j	74
14172	153007	Add a Star Trek convention and sports memorabilia show to the mix.	Add a Star Trek convention and sports memorabilia show to the mix.	7272498	1472089495565	1472089495649	o	79
14172	153007	Add a Star Trek convention and sports memorabilia show to the mix.	Add a Star Trek convention and sports memorabilia show to the mix.	7272501	1472089495683	1472089495739	w	87
14172	153007	Add a Star Trek convention and sports memorabilia show to the mix.	Add a Star Trek convention and sports memorabilia show to the mix.	7272505	1472089496028	1472089496088	BKSP	8
14172	153007	Add a Star Trek convention and sports memorabilia show to the mix.	Add a Star Trek convention and sports memorabilia show to the mix.	7272510	1472089496122	1472089496208	BKSP	8
14172	153007	Add a Star Trek convention and sports memorabilia show to the mix.	Add a Star Trek convention and sports memorabilia show to the mix.	7272513	1472089496414	1472089496517	BKSP	8
14172	153007	Add a Star Trek convention and sports memorabilia show to the mix.	Add a Star Trek convention and sports memorabilia show to the mix.	7272517	1472089496634	1472089496727	o	79
14172	153007	Add a Star Trek convention and sports memorabilia show to the mix.	Add a Star Trek convention and sports memorabilia show to the mix.	7272527	1472089496699	1472089496798	w	87
14172	153007	Add a Star Trek convention and sports memorabilia show to the mix.	Add a Star Trek convention and sports memorabilia show to the mix.	7272530	1472089496836	1472089496921	 	32
14172	153007	Add a Star Trek convention and sports memorabilia show to the mix.	Add a Star Trek convention and sports memorabilia show to the mix.	7272534	1472089496900	1472089496977	t	84
14172	153007	Add a Star Trek convention and sports memorabilia show to the mix.	Add a Star Trek convention and sports memorabilia show to the mix.	7272539	1472089497035	1472089497125	o	79
14172	153007	Add a Star Trek convention and sports memorabilia show to the mix.	Add a Star Trek convention and sports memorabilia show to the mix.	7272544	1472089497066	1472089497172	 	32
14172	153007	Add a Star Trek convention and sports memorabilia show to the mix.	Add a Star Trek convention and sports memorabilia show to the mix.	7272550	1472089497237	1472089497320	t	84
14172	153007	Add a Star Trek convention and sports memorabilia show to the mix.	Add a Star Trek convention and sports memorabilia show to the mix.	7272579	1472089497322	1472089497420	h	72
14172	153007	Add a Star Trek convention and sports memorabilia show to the mix.	Add a Star Trek convention and sports memorabilia show to the mix.	7272582	1472089497417	1472089497519	e	69
14172	153007	Add a Star Trek convention and sports memorabilia show to the mix.	Add a Star Trek convention and sports memorabilia show to the mix.	7272584	1472089497517	1472089497606	 	32
14172	153007	Add a Star Trek convention and sports memorabilia show to the mix.	Add a Star Trek convention and sports memorabilia show to the mix.	7272587	1472089497808	1472089497890	i	73
14172	153007	Add a Star Trek convention and sports memorabilia show to the mix.	Add a Star Trek convention and sports memorabilia show to the mix.	7272589	1472089498268	1472089498357	BKSP	8
14172	153007	Add a Star Trek convention and sports memorabilia show to the mix.	Add a Star Trek convention and sports memorabilia show to the mix.	7272591	1472089498486	1472089498580	m	77
14172	153007	Add a Star Trek convention and sports memorabilia show to the mix.	Add a Star Trek convention and sports memorabilia show to the mix.	7272600	1472089498603	1472089498697	i	73
14172	153007	Add a Star Trek convention and sports memorabilia show to the mix.	Add a Star Trek convention and sports memorabilia show to the mix.	7272602	1472089498763	1472089498852	x	88
14172	153018	We're not aware of any possible changes at Stanford Stadium.	we're not aware of any possible changes at Stanford Standium.	7272787	1472089503909	1472089504149	SHIFT	16
14172	153018	We're not aware of any possible changes at Stanford Stadium.	we're not aware of any possible changes at Stanford Standium.	7272788	1472089504153	1472089504301	w	87
14172	153018	We're not aware of any possible changes at Stanford Stadium.	we're not aware of any possible changes at Stanford Standium.	7272791	1472089504241	1472089504362	e	69
14172	153018	We're not aware of any possible changes at Stanford Stadium.	we're not aware of any possible changes at Stanford Standium.	7272793	1472089504464	1472089504561	'	222
14172	153018	We're not aware of any possible changes at Stanford Stadium.	we're not aware of any possible changes at Stanford Standium.	7272794	1472089504549	1472089504670	r	82
14172	153018	We're not aware of any possible changes at Stanford Stadium.	we're not aware of any possible changes at Stanford Standium.	7272812	1472089504616	1472089504729	e	69
14172	153018	We're not aware of any possible changes at Stanford Stadium.	we're not aware of any possible changes at Stanford Standium.	7272815	1472089504757	1472089504834	 	32
14172	153018	We're not aware of any possible changes at Stanford Stadium.	we're not aware of any possible changes at Stanford Standium.	7272816	1472089504935	1472089505084	n	78
14172	153018	We're not aware of any possible changes at Stanford Stadium.	we're not aware of any possible changes at Stanford Standium.	7272817	1472089505041	1472089505141	o	79
14172	153018	We're not aware of any possible changes at Stanford Stadium.	we're not aware of any possible changes at Stanford Standium.	7272818	1472089505107	1472089505216	t	84
14172	153018	We're not aware of any possible changes at Stanford Stadium.	we're not aware of any possible changes at Stanford Standium.	7272819	1472089505227	1472089505320	 	32
14172	153018	We're not aware of any possible changes at Stanford Stadium.	we're not aware of any possible changes at Stanford Standium.	7272869	1472089505430	1472089505561	a	65
14172	153018	We're not aware of any possible changes at Stanford Stadium.	we're not aware of any possible changes at Stanford Standium.	7272871	1472089505571	1472089505688	w	87
14172	153018	We're not aware of any possible changes at Stanford Stadium.	we're not aware of any possible changes at Stanford Standium.	7272873	1472089505761	1472089505842	a	65
14172	153018	We're not aware of any possible changes at Stanford Stadium.	we're not aware of any possible changes at Stanford Standium.	7272875	1472089506040	1472089506238	r	82
14172	153018	We're not aware of any possible changes at Stanford Stadium.	we're not aware of any possible changes at Stanford Standium.	7272891	1472089506162	1472089506285	e	69
14172	153018	We're not aware of any possible changes at Stanford Stadium.	we're not aware of any possible changes at Stanford Standium.	7272893	1472089506300	1472089506422	 	32
14172	153018	We're not aware of any possible changes at Stanford Stadium.	we're not aware of any possible changes at Stanford Standium.	7272895	1472089506444	1472089506528	o	79
14172	153018	We're not aware of any possible changes at Stanford Stadium.	we're not aware of any possible changes at Stanford Standium.	7272897	1472089506530	1472089506636	f	70
14172	153018	We're not aware of any possible changes at Stanford Stadium.	we're not aware of any possible changes at Stanford Standium.	7272899	1472089506638	1472089506741	 	32
14172	153018	We're not aware of any possible changes at Stanford Stadium.	we're not aware of any possible changes at Stanford Standium.	7272933	1472089506719	1472089506791	a	65
14172	153018	We're not aware of any possible changes at Stanford Stadium.	we're not aware of any possible changes at Stanford Standium.	7272936	1472089506840	1472089506926	n	78
14172	153018	We're not aware of any possible changes at Stanford Stadium.	we're not aware of any possible changes at Stanford Standium.	7272939	1472089507070	1472089507160	y	89
14172	153018	We're not aware of any possible changes at Stanford Stadium.	we're not aware of any possible changes at Stanford Standium.	7272941	1472089507186	1472089507279	 	32
14172	153018	We're not aware of any possible changes at Stanford Stadium.	we're not aware of any possible changes at Stanford Standium.	7272943	1472089507464	1472089507574	p	80
14172	153018	We're not aware of any possible changes at Stanford Stadium.	we're not aware of any possible changes at Stanford Standium.	7272945	1472089507661	1472089507764	o	79
14172	153018	We're not aware of any possible changes at Stanford Stadium.	we're not aware of any possible changes at Stanford Standium.	7272953	1472089507847	1472089507926	s	83
14172	153018	We're not aware of any possible changes at Stanford Stadium.	we're not aware of any possible changes at Stanford Standium.	7272955	1472089507986	1472089508077	s	83
14172	153018	We're not aware of any possible changes at Stanford Stadium.	we're not aware of any possible changes at Stanford Standium.	7272960	1472089508106	1472089508202	i	73
14172	153018	We're not aware of any possible changes at Stanford Stadium.	we're not aware of any possible changes at Stanford Standium.	7272963	1472089508216	1472089508297	b	66
14172	153018	We're not aware of any possible changes at Stanford Stadium.	we're not aware of any possible changes at Stanford Standium.	7272965	1472089508299	1472089508409	l	76
14172	153018	We're not aware of any possible changes at Stanford Stadium.	we're not aware of any possible changes at Stanford Standium.	7272968	1472089508412	1472089508501	e	69
14172	153018	We're not aware of any possible changes at Stanford Stadium.	we're not aware of any possible changes at Stanford Standium.	7272969	1472089508516	1472089508614	 	32
14172	153018	We're not aware of any possible changes at Stanford Stadium.	we're not aware of any possible changes at Stanford Standium.	7272970	1472089508606	1472089508701	c	67
14172	153018	We're not aware of any possible changes at Stanford Stadium.	we're not aware of any possible changes at Stanford Standium.	7272971	1472089508707	1472089508806	h	72
14172	153018	We're not aware of any possible changes at Stanford Stadium.	we're not aware of any possible changes at Stanford Standium.	7272987	1472089508752	1472089508881	a	65
14172	153018	We're not aware of any possible changes at Stanford Stadium.	we're not aware of any possible changes at Stanford Standium.	7272988	1472089508878	1472089508970	n	78
14172	153018	We're not aware of any possible changes at Stanford Stadium.	we're not aware of any possible changes at Stanford Standium.	7272989	1472089509052	1472089509139	g	71
14172	153018	We're not aware of any possible changes at Stanford Stadium.	we're not aware of any possible changes at Stanford Standium.	7272990	1472089509106	1472089509207	e	69
14172	153018	We're not aware of any possible changes at Stanford Stadium.	we're not aware of any possible changes at Stanford Standium.	7272991	1472089509292	1472089509382	s	83
14172	153018	We're not aware of any possible changes at Stanford Stadium.	we're not aware of any possible changes at Stanford Standium.	7273048	1472089509359	1472089509459	 	32
14172	153018	We're not aware of any possible changes at Stanford Stadium.	we're not aware of any possible changes at Stanford Standium.	7273051	1472089509542	1472089509654	a	65
14172	153018	We're not aware of any possible changes at Stanford Stadium.	we're not aware of any possible changes at Stanford Standium.	7273054	1472089509860	1472089509946	 	32
14172	153018	We're not aware of any possible changes at Stanford Stadium.	we're not aware of any possible changes at Stanford Standium.	7273057	1472089510147	1472089510239	BKSP	8
14172	153018	We're not aware of any possible changes at Stanford Stadium.	we're not aware of any possible changes at Stanford Standium.	7273059	1472089510273	1472089510362	t	84
14172	153018	We're not aware of any possible changes at Stanford Stadium.	we're not aware of any possible changes at Stanford Standium.	7273061	1472089510416	1472089510505	 	32
14172	153018	We're not aware of any possible changes at Stanford Stadium.	we're not aware of any possible changes at Stanford Standium.	7273062	1472089510504	1472089510722	SHIFT	16
14172	153018	We're not aware of any possible changes at Stanford Stadium.	we're not aware of any possible changes at Stanford Standium.	7273083	1472089510667	1472089510779	S	83
14172	153018	We're not aware of any possible changes at Stanford Stadium.	we're not aware of any possible changes at Stanford Standium.	7273086	1472089510826	1472089510920	t	84
14172	153018	We're not aware of any possible changes at Stanford Stadium.	we're not aware of any possible changes at Stanford Standium.	7273090	1472089510905	1472089510995	a	65
14172	153018	We're not aware of any possible changes at Stanford Stadium.	we're not aware of any possible changes at Stanford Standium.	7273096	1472089511024	1472089511127	n	78
14172	153018	We're not aware of any possible changes at Stanford Stadium.	we're not aware of any possible changes at Stanford Standium.	7273102	1472089511131	1472089511194	f	70
14172	153018	We're not aware of any possible changes at Stanford Stadium.	we're not aware of any possible changes at Stanford Standium.	7273110	1472089511355	1472089511456	f	70
14172	153018	We're not aware of any possible changes at Stanford Stadium.	we're not aware of any possible changes at Stanford Standium.	7273148	1472089511514	1472089511600	o	79
14172	153018	We're not aware of any possible changes at Stanford Stadium.	we're not aware of any possible changes at Stanford Standium.	7273150	1472089511771	1472089511848	BKSP	8
14172	153018	We're not aware of any possible changes at Stanford Stadium.	we're not aware of any possible changes at Stanford Standium.	7273154	1472089511882	1472089511974	BKSP	8
14172	153018	We're not aware of any possible changes at Stanford Stadium.	we're not aware of any possible changes at Stanford Standium.	7273158	1472089512204	1472089512292	o	79
14172	153018	We're not aware of any possible changes at Stanford Stadium.	we're not aware of any possible changes at Stanford Standium.	7273160	1472089512283	1472089512382	r	82
14172	153018	We're not aware of any possible changes at Stanford Stadium.	we're not aware of any possible changes at Stanford Standium.	7273162	1472089512486	1472089512582	d	68
14172	153018	We're not aware of any possible changes at Stanford Stadium.	we're not aware of any possible changes at Stanford Standium.	7273164	1472089512668	1472089512754	 	32
14172	153018	We're not aware of any possible changes at Stanford Stadium.	we're not aware of any possible changes at Stanford Standium.	7273190	1472089512774	1472089512961	SHIFT	16
14172	153018	We're not aware of any possible changes at Stanford Stadium.	we're not aware of any possible changes at Stanford Standium.	7273192	1472089512923	1472089513017	S	83
14172	153018	We're not aware of any possible changes at Stanford Stadium.	we're not aware of any possible changes at Stanford Standium.	7273194	1472089513021	1472089513116	t	84
14172	153018	We're not aware of any possible changes at Stanford Stadium.	we're not aware of any possible changes at Stanford Standium.	7273196	1472089513098	1472089513190	a	65
14172	153018	We're not aware of any possible changes at Stanford Stadium.	we're not aware of any possible changes at Stanford Standium.	7273198	1472089513237	1472089513338	n	78
14172	153018	We're not aware of any possible changes at Stanford Stadium.	we're not aware of any possible changes at Stanford Standium.	7273200	1472089513549	1472089513642	d	68
14172	153018	We're not aware of any possible changes at Stanford Stadium.	we're not aware of any possible changes at Stanford Standium.	7273223	1472089513730	1472089513832	i	73
14172	153018	We're not aware of any possible changes at Stanford Stadium.	we're not aware of any possible changes at Stanford Standium.	7273224	1472089513920	1472089514009	u	85
14172	153018	We're not aware of any possible changes at Stanford Stadium.	we're not aware of any possible changes at Stanford Standium.	7273225	1472089514099	1472089514185	m	77
14172	153018	We're not aware of any possible changes at Stanford Stadium.	we're not aware of any possible changes at Stanford Standium.	7273227	1472089514307	1472089514402	.	190
14172	153031	He also ruled out extending the safe areas.	He also ruled out extending the safe areas.	7273336	1472089516735	1472089517037	SHIFT	16
14172	153031	He also ruled out extending the safe areas.	He also ruled out extending the safe areas.	7273338	1472089516975	1472089517071	H	72
14172	153031	He also ruled out extending the safe areas.	He also ruled out extending the safe areas.	7273340	1472089517079	1472089517167	e	69
14172	153031	He also ruled out extending the safe areas.	He also ruled out extending the safe areas.	7273343	1472089517176	1472089517278	 	32
14172	153031	He also ruled out extending the safe areas.	He also ruled out extending the safe areas.	7273345	1472089517268	1472089517377	a	65
14172	153031	He also ruled out extending the safe areas.	He also ruled out extending the safe areas.	7273357	1472089517374	1472089517478	l	76
14172	153031	He also ruled out extending the safe areas.	He also ruled out extending the safe areas.	7273361	1472089517457	1472089517536	s	83
14172	153031	He also ruled out extending the safe areas.	He also ruled out extending the safe areas.	7273363	1472089517579	1472089517683	o	79
14172	153031	He also ruled out extending the safe areas.	He also ruled out extending the safe areas.	7273365	1472089517668	1472089517740	 	32
14172	153031	He also ruled out extending the safe areas.	He also ruled out extending the safe areas.	7273366	1472089517822	1472089517918	r	82
14172	153031	He also ruled out extending the safe areas.	He also ruled out extending the safe areas.	7273367	1472089517925	1472089518011	u	85
14172	153031	He also ruled out extending the safe areas.	He also ruled out extending the safe areas.	7273389	1472089518105	1472089518218	l	76
14172	153031	He also ruled out extending the safe areas.	He also ruled out extending the safe areas.	7273390	1472089518179	1472089518332	e	69
14172	153031	He also ruled out extending the safe areas.	He also ruled out extending the safe areas.	7273392	1472089518282	1472089518393	d	68
14172	153031	He also ruled out extending the safe areas.	He also ruled out extending the safe areas.	7273393	1472089518397	1472089518498	 	32
14172	153031	He also ruled out extending the safe areas.	He also ruled out extending the safe areas.	7273395	1472089518582	1472089518696	o	79
14172	153031	He also ruled out extending the safe areas.	He also ruled out extending the safe areas.	7273430	1472089518703	1472089518807	u	85
14172	153031	He also ruled out extending the safe areas.	He also ruled out extending the safe areas.	7273432	1472089518797	1472089518901	t	84
14172	153031	He also ruled out extending the safe areas.	He also ruled out extending the safe areas.	7273434	1472089518925	1472089519028	 	32
14172	153031	He also ruled out extending the safe areas.	He also ruled out extending the safe areas.	7273436	1472089519016	1472089519109	e	69
14172	153031	He also ruled out extending the safe areas.	He also ruled out extending the safe areas.	7273438	1472089519241	1472089519335	x	88
14172	153031	He also ruled out extending the safe areas.	He also ruled out extending the safe areas.	7273449	1472089519378	1472089519474	t	84
14172	153031	He also ruled out extending the safe areas.	He also ruled out extending the safe areas.	7273452	1472089519495	1472089519583	e	69
14172	153031	He also ruled out extending the safe areas.	He also ruled out extending the safe areas.	7273458	1472089519587	1472089519686	n	78
14172	153031	He also ruled out extending the safe areas.	He also ruled out extending the safe areas.	7273465	1472089519692	1472089519783	d	68
14172	153031	He also ruled out extending the safe areas.	He also ruled out extending the safe areas.	7273480	1472089519768	1472089519867	i	73
14172	153031	He also ruled out extending the safe areas.	He also ruled out extending the safe areas.	7273483	1472089519881	1472089519987	n	78
14172	153031	He also ruled out extending the safe areas.	He also ruled out extending the safe areas.	7273486	1472089519982	1472089520083	g	71
14172	153031	He also ruled out extending the safe areas.	He also ruled out extending the safe areas.	7273490	1472089520097	1472089520198	 	32
14172	153031	He also ruled out extending the safe areas.	He also ruled out extending the safe areas.	7273497	1472089520229	1472089520322	t	84
14172	153031	He also ruled out extending the safe areas.	He also ruled out extending the safe areas.	7273518	1472089520299	1472089520405	h	72
14172	153031	He also ruled out extending the safe areas.	He also ruled out extending the safe areas.	7273520	1472089520398	1472089520490	e	69
14172	153031	He also ruled out extending the safe areas.	He also ruled out extending the safe areas.	7273522	1472089520503	1472089520611	 	32
14172	153031	He also ruled out extending the safe areas.	He also ruled out extending the safe areas.	7273526	1472089520612	1472089520780	s	83
14172	153031	He also ruled out extending the safe areas.	He also ruled out extending the safe areas.	7273530	1472089520737	1472089520818	a	65
14172	153031	He also ruled out extending the safe areas.	He also ruled out extending the safe areas.	7273544	1472089520782	1472089520883	f	70
14172	153031	He also ruled out extending the safe areas.	He also ruled out extending the safe areas.	7273545	1472089520908	1472089521000	e	69
14172	153031	He also ruled out extending the safe areas.	He also ruled out extending the safe areas.	7273546	1472089521006	1472089521105	 	32
14172	153031	He also ruled out extending the safe areas.	He also ruled out extending the safe areas.	7273548	1472089521089	1472089521188	a	65
14172	153031	He also ruled out extending the safe areas.	He also ruled out extending the safe areas.	7273551	1472089521253	1472089521334	r	82
14172	153031	He also ruled out extending the safe areas.	He also ruled out extending the safe areas.	7273566	1472089521325	1472089521406	e	69
14172	153031	He also ruled out extending the safe areas.	He also ruled out extending the safe areas.	7273567	1472089521508	1472089521599	a	65
14172	153031	He also ruled out extending the safe areas.	He also ruled out extending the safe areas.	7273568	1472089521582	1472089521728	s	83
14172	153031	He also ruled out extending the safe areas.	He also ruled out extending the safe areas.	7273569	1472089522058	1472089522182	.	190
14172	153040	Are you being a baby?	Are you being a baby?	7273674	1472089524171	1472089524489	SHIFT	16
14172	153040	Are you being a baby?	Are you being a baby?	7273677	1472089524431	1472089524555	A	65
14172	153040	Are you being a baby?	Are you being a baby?	7273679	1472089524663	1472089524763	r	82
14172	153040	Are you being a baby?	Are you being a baby?	7273683	1472089524688	1472089524820	e	69
14172	153040	Are you being a baby?	Are you being a baby?	7273688	1472089524821	1472089524908	 	32
14172	153040	Are you being a baby?	Are you being a baby?	7273694	1472089524943	1472089525022	y	89
14172	153040	Are you being a baby?	Are you being a baby?	7273725	1472089524984	1472089525027	o	79
14172	153040	Are you being a baby?	Are you being a baby?	7273726	1472089525044	1472089525134	u	85
14172	153040	Are you being a baby?	Are you being a baby?	7273727	1472089525538	1472089525631	 	32
14172	153040	Are you being a baby?	Are you being a baby?	7273728	1472089525669	1472089525763	b	66
14172	153040	Are you being a baby?	Are you being a baby?	7273729	1472089525743	1472089525848	e	69
14172	153040	Are you being a baby?	Are you being a baby?	7273731	1472089525849	1472089525954	i	73
14172	153040	Are you being a baby?	Are you being a baby?	7273757	1472089525977	1472089526080	n	78
14172	153040	Are you being a baby?	Are you being a baby?	7273764	1472089526046	1472089526143	g	71
14172	153040	Are you being a baby?	Are you being a baby?	7273768	1472089526185	1472089526284	 	32
14172	153040	Are you being a baby?	Are you being a baby?	7273774	1472089526248	1472089526356	a	65
14172	153040	Are you being a baby?	Are you being a baby?	7273779	1472089526381	1472089526478	 	32
14172	153040	Are you being a baby?	Are you being a baby?	7273790	1472089526570	1472089526660	b	66
14172	153040	Are you being a baby?	Are you being a baby?	7273792	1472089526608	1472089526709	a	65
14172	153040	Are you being a baby?	Are you being a baby?	7273797	1472089526811	1472089526903	b	66
14172	153040	Are you being a baby?	Are you being a baby?	7273802	1472089526925	1472089527017	y	89
14172	153040	Are you being a baby?	Are you being a baby?	7273807	1472089527097	1472089527231	SHIFT	16
14172	153046	He is suffering from a strained left shoulder.	He is suffering from a strained left shoulder.	7273959	1472089530451	1472089530635	SHIFT	16
14172	153046	He is suffering from a strained left shoulder.	He is suffering from a strained left shoulder.	7273963	1472089530601	1472089530696	H	72
14172	153046	He is suffering from a strained left shoulder.	He is suffering from a strained left shoulder.	7273968	1472089530714	1472089530800	e	69
14172	153046	He is suffering from a strained left shoulder.	He is suffering from a strained left shoulder.	7273974	1472089530797	1472089530889	 	32
14172	153046	He is suffering from a strained left shoulder.	He is suffering from a strained left shoulder.	7273978	1472089530923	1472089531011	i	73
14172	153046	He is suffering from a strained left shoulder.	He is suffering from a strained left shoulder.	7274011	1472089531008	1472089531090	s	83
14172	153046	He is suffering from a strained left shoulder.	He is suffering from a strained left shoulder.	7274015	1472089531098	1472089531204	 	32
14172	153046	He is suffering from a strained left shoulder.	He is suffering from a strained left shoulder.	7274017	1472089531217	1472089531312	s	83
14172	153046	He is suffering from a strained left shoulder.	He is suffering from a strained left shoulder.	7274019	1472089531300	1472089531395	u	85
14172	153046	He is suffering from a strained left shoulder.	He is suffering from a strained left shoulder.	7274020	1472089531411	1472089531498	f	70
14172	153046	He is suffering from a strained left shoulder.	He is suffering from a strained left shoulder.	7274023	1472089531568	1472089531653	f	70
14172	153046	He is suffering from a strained left shoulder.	He is suffering from a strained left shoulder.	7274049	1472089531637	1472089531800	e	69
14172	153046	He is suffering from a strained left shoulder.	He is suffering from a strained left shoulder.	7274051	1472089531743	1472089531865	r	82
14172	153046	He is suffering from a strained left shoulder.	He is suffering from a strained left shoulder.	7274053	1472089531857	1472089531950	i	73
14172	153046	He is suffering from a strained left shoulder.	He is suffering from a strained left shoulder.	7274054	1472089531942	1472089532060	n	78
14172	153046	He is suffering from a strained left shoulder.	He is suffering from a strained left shoulder.	7274056	1472089532050	1472089532129	g	71
14172	153046	He is suffering from a strained left shoulder.	He is suffering from a strained left shoulder.	7274058	1472089532163	1472089532267	 	32
14172	153046	He is suffering from a strained left shoulder.	He is suffering from a strained left shoulder.	7274090	1472089532343	1472089532530	d	68
14172	153046	He is suffering from a strained left shoulder.	He is suffering from a strained left shoulder.	7274092	1472089532678	1472089532781	BKSP	8
14172	153046	He is suffering from a strained left shoulder.	He is suffering from a strained left shoulder.	7274095	1472089532775	1472089532893	f	70
14172	153046	He is suffering from a strained left shoulder.	He is suffering from a strained left shoulder.	7274097	1472089532852	1472089532969	r	82
14172	153046	He is suffering from a strained left shoulder.	He is suffering from a strained left shoulder.	7274100	1472089532944	1472089533086	o	79
14172	153046	He is suffering from a strained left shoulder.	He is suffering from a strained left shoulder.	7274130	1472089533049	1472089533160	m	77
14172	153046	He is suffering from a strained left shoulder.	He is suffering from a strained left shoulder.	7274132	1472089533261	1472089533371	 	32
14172	153046	He is suffering from a strained left shoulder.	He is suffering from a strained left shoulder.	7274134	1472089533397	1472089533513	a	65
14172	153046	He is suffering from a strained left shoulder.	He is suffering from a strained left shoulder.	7274137	1472089533520	1472089533616	 	32
14172	153046	He is suffering from a strained left shoulder.	He is suffering from a strained left shoulder.	7274141	1472089533617	1472089533717	s	83
14172	153046	He is suffering from a strained left shoulder.	He is suffering from a strained left shoulder.	7274148	1472089533749	1472089533839	t	84
14172	153046	He is suffering from a strained left shoulder.	He is suffering from a strained left shoulder.	7274157	1472089533870	1472089533963	r	82
14172	153046	He is suffering from a strained left shoulder.	He is suffering from a strained left shoulder.	7274159	1472089533991	1472089534109	a	65
14172	153046	He is suffering from a strained left shoulder.	He is suffering from a strained left shoulder.	7274163	1472089534101	1472089534196	i	73
14172	153046	He is suffering from a strained left shoulder.	He is suffering from a strained left shoulder.	7274167	1472089534198	1472089534320	n	78
14172	153046	He is suffering from a strained left shoulder.	He is suffering from a strained left shoulder.	7274190	1472089534288	1472089534445	e	69
14172	153046	He is suffering from a strained left shoulder.	He is suffering from a strained left shoulder.	7274192	1472089534382	1472089534503	d	68
14172	153046	He is suffering from a strained left shoulder.	He is suffering from a strained left shoulder.	7274195	1472089534506	1472089534602	 	32
14172	153046	He is suffering from a strained left shoulder.	He is suffering from a strained left shoulder.	7274199	1472089534705	1472089534812	l	76
14172	153046	He is suffering from a strained left shoulder.	He is suffering from a strained left shoulder.	7274203	1472089534776	1472089534967	e	69
14172	153046	He is suffering from a strained left shoulder.	He is suffering from a strained left shoulder.	7274243	1472089534893	1472089535055	f	70
14172	153046	He is suffering from a strained left shoulder.	He is suffering from a strained left shoulder.	7274244	1472089535165	1472089535246	t	84
14172	153046	He is suffering from a strained left shoulder.	He is suffering from a strained left shoulder.	7274245	1472089535251	1472089535338	 	32
14172	153046	He is suffering from a strained left shoulder.	He is suffering from a strained left shoulder.	7274246	1472089535512	1472089535608	s	83
14172	153046	He is suffering from a strained left shoulder.	He is suffering from a strained left shoulder.	7274247	1472089535739	1472089535823	h	72
14172	153046	He is suffering from a strained left shoulder.	He is suffering from a strained left shoulder.	7274250	1472089535890	1472089535975	o	79
14172	153046	He is suffering from a strained left shoulder.	He is suffering from a strained left shoulder.	7274270	1472089535973	1472089536071	u	85
14172	153046	He is suffering from a strained left shoulder.	He is suffering from a strained left shoulder.	7274272	1472089536155	1472089536262	l	76
14172	153046	He is suffering from a strained left shoulder.	He is suffering from a strained left shoulder.	7274275	1472089536241	1472089536338	d	68
14172	153046	He is suffering from a strained left shoulder.	He is suffering from a strained left shoulder.	7274279	1472089536335	1472089536491	e	69
14172	153046	He is suffering from a strained left shoulder.	He is suffering from a strained left shoulder.	7274283	1472089536437	1472089536538	r	82
14172	153055	The wind was strong and gusting.	The wind was too strong and gusting.	7274413	1472089538864	1472089539499	SHIFT	16
14172	153055	The wind was strong and gusting.	The wind was too strong and gusting.	7274415	1472089539439	1472089539529	T	84
14172	153055	The wind was strong and gusting.	The wind was too strong and gusting.	7274418	1472089539598	1472089539705	h	72
14172	153055	The wind was strong and gusting.	The wind was too strong and gusting.	7274424	1472089539702	1472089539796	e	69
14172	153055	The wind was strong and gusting.	The wind was too strong and gusting.	7274428	1472089539820	1472089539922	 	32
14172	153055	The wind was strong and gusting.	The wind was too strong and gusting.	7274468	1472089539895	1472089540001	w	87
14172	153055	The wind was strong and gusting.	The wind was too strong and gusting.	7274471	1472089539996	1472089540084	i	73
14172	153055	The wind was strong and gusting.	The wind was too strong and gusting.	7274475	1472089540104	1472089540223	n	78
14172	153055	The wind was strong and gusting.	The wind was too strong and gusting.	7274478	1472089540183	1472089540275	d	68
14172	153055	The wind was strong and gusting.	The wind was too strong and gusting.	7274480	1472089540317	1472089540419	 	32
14172	153055	The wind was strong and gusting.	The wind was too strong and gusting.	7274481	1472089540423	1472089540515	w	87
14172	153055	The wind was strong and gusting.	The wind was too strong and gusting.	7274497	1472089540594	1472089540659	a	65
14172	153055	The wind was strong and gusting.	The wind was too strong and gusting.	7274501	1472089540646	1472089540778	s	83
14172	153055	The wind was strong and gusting.	The wind was too strong and gusting.	7274507	1472089540733	1472089540837	 	32
14172	153055	The wind was strong and gusting.	The wind was too strong and gusting.	7274513	1472089540941	1472089541033	t	84
14172	153055	The wind was strong and gusting.	The wind was too strong and gusting.	7274520	1472089541037	1472089541119	o	79
14172	153055	The wind was strong and gusting.	The wind was too strong and gusting.	7274540	1472089541148	1472089541253	o	79
14172	153055	The wind was strong and gusting.	The wind was too strong and gusting.	7274543	1472089541264	1472089541350	 	32
14172	153055	The wind was strong and gusting.	The wind was too strong and gusting.	7274546	1472089541399	1472089541481	s	83
14172	153055	The wind was strong and gusting.	The wind was too strong and gusting.	7274551	1472089541629	1472089541775	t	84
14172	153055	The wind was strong and gusting.	The wind was too strong and gusting.	7274564	1472089541717	1472089541832	r	82
14172	153055	The wind was strong and gusting.	The wind was too strong and gusting.	7274566	1472089541807	1472089541908	o	79
14172	153055	The wind was strong and gusting.	The wind was too strong and gusting.	7274569	1472089541915	1472089542027	n	78
14172	153055	The wind was strong and gusting.	The wind was too strong and gusting.	7274573	1472089542000	1472089542085	g	71
14172	153055	The wind was strong and gusting.	The wind was too strong and gusting.	7274577	1472089542131	1472089542232	 	32
14172	153055	The wind was strong and gusting.	The wind was too strong and gusting.	7274610	1472089542187	1472089542348	a	65
14172	153055	The wind was strong and gusting.	The wind was too strong and gusting.	7274612	1472089542323	1472089542422	n	78
14172	153055	The wind was strong and gusting.	The wind was too strong and gusting.	7274614	1472089542397	1472089542496	d	68
14172	153055	The wind was strong and gusting.	The wind was too strong and gusting.	7274616	1472089542526	1472089542627	 	32
14172	153055	The wind was strong and gusting.	The wind was too strong and gusting.	7274618	1472089542792	1472089542884	g	71
14172	153055	The wind was strong and gusting.	The wind was too strong and gusting.	7274619	1472089542926	1472089543012	u	85
14172	153055	The wind was strong and gusting.	The wind was too strong and gusting.	7274640	1472089543026	1472089543131	s	83
14172	153055	The wind was strong and gusting.	The wind was too strong and gusting.	7274642	1472089543228	1472089543315	t	84
14172	153055	The wind was strong and gusting.	The wind was too strong and gusting.	7274646	1472089543327	1472089543412	i	73
14172	153055	The wind was strong and gusting.	The wind was too strong and gusting.	7274651	1472089543493	1472089543592	n	78
14172	153055	The wind was strong and gusting.	The wind was too strong and gusting.	7274655	1472089543567	1472089543659	g	71
14172	153061	Laveranues Coles will be the top receiver in his absence.	Laveranues Coles will be the top reciever in his absence.	7274951	1472089545825	1472089549945	SHIFT	16
14172	153061	Laveranues Coles will be the top receiver in his absence.	Laveranues Coles will be the top reciever in his absence.	7274953	1472089549890	1472089549994	L	76
14172	153061	Laveranues Coles will be the top receiver in his absence.	Laveranues Coles will be the top reciever in his absence.	7274955	1472089550009	1472089550146	a	65
14172	153061	Laveranues Coles will be the top receiver in his absence.	Laveranues Coles will be the top reciever in his absence.	7274957	1472089550146	1472089550236	v	86
14172	153061	Laveranues Coles will be the top receiver in his absence.	Laveranues Coles will be the top reciever in his absence.	7274961	1472089550480	1472089550639	e	69
14172	153061	Laveranues Coles will be the top receiver in his absence.	Laveranues Coles will be the top reciever in his absence.	7275039	1472089550559	1472089550682	r	82
14172	153061	Laveranues Coles will be the top receiver in his absence.	Laveranues Coles will be the top reciever in his absence.	7275041	1472089551666	1472089551759	a	65
14172	153061	Laveranues Coles will be the top receiver in his absence.	Laveranues Coles will be the top reciever in his absence.	7275046	1472089551770	1472089551869	n	78
14172	153061	Laveranues Coles will be the top receiver in his absence.	Laveranues Coles will be the top reciever in his absence.	7275051	1472089551962	1472089552058	u	85
14172	153061	Laveranues Coles will be the top receiver in his absence.	Laveranues Coles will be the top reciever in his absence.	7275054	1472089552254	1472089552354	e	69
14172	153061	Laveranues Coles will be the top receiver in his absence.	Laveranues Coles will be the top reciever in his absence.	7275058	1472089552426	1472089552513	s	83
14172	153061	Laveranues Coles will be the top receiver in his absence.	Laveranues Coles will be the top reciever in his absence.	7275080	1472089552536	1472089552610	 	32
14172	153061	Laveranues Coles will be the top receiver in his absence.	Laveranues Coles will be the top reciever in his absence.	7275082	1472089552668	1472089552805	SHIFT	16
14172	153061	Laveranues Coles will be the top receiver in his absence.	Laveranues Coles will be the top reciever in his absence.	7275085	1472089552754	1472089552865	C	67
14172	153061	Laveranues Coles will be the top receiver in his absence.	Laveranues Coles will be the top reciever in his absence.	7275088	1472089552826	1472089552915	o	79
14172	153061	Laveranues Coles will be the top receiver in his absence.	Laveranues Coles will be the top reciever in his absence.	7275092	1472089552965	1472089553075	l	76
14172	153061	Laveranues Coles will be the top receiver in his absence.	Laveranues Coles will be the top reciever in his absence.	7275113	1472089553026	1472089553120	e	69
14172	153061	Laveranues Coles will be the top receiver in his absence.	Laveranues Coles will be the top reciever in his absence.	7275117	1472089553201	1472089553284	s	83
14172	153061	Laveranues Coles will be the top receiver in his absence.	Laveranues Coles will be the top reciever in his absence.	7275121	1472089553323	1472089553415	 	32
14172	153061	Laveranues Coles will be the top receiver in his absence.	Laveranues Coles will be the top reciever in his absence.	7275126	1472089553408	1472089553489	w	87
14172	153061	Laveranues Coles will be the top receiver in his absence.	Laveranues Coles will be the top reciever in his absence.	7275130	1472089553516	1472089553606	i	73
14172	153061	Laveranues Coles will be the top receiver in his absence.	Laveranues Coles will be the top reciever in his absence.	7275134	1472089553684	1472089553773	l	76
14172	153061	Laveranues Coles will be the top receiver in his absence.	Laveranues Coles will be the top reciever in his absence.	7275156	1472089553801	1472089553897	l	76
14172	153061	Laveranues Coles will be the top receiver in his absence.	Laveranues Coles will be the top reciever in his absence.	7275163	1472089553889	1472089553982	 	32
14172	153061	Laveranues Coles will be the top receiver in his absence.	Laveranues Coles will be the top reciever in his absence.	7275168	1472089554040	1472089554139	b	66
14172	153061	Laveranues Coles will be the top receiver in his absence.	Laveranues Coles will be the top reciever in his absence.	7275174	1472089554081	1472089554183	e	69
14172	153061	Laveranues Coles will be the top receiver in his absence.	Laveranues Coles will be the top reciever in his absence.	7275182	1472089554238	1472089554339	 	32
14172	153061	Laveranues Coles will be the top receiver in his absence.	Laveranues Coles will be the top reciever in his absence.	7275197	1472089554273	1472089554365	t	84
14172	153061	Laveranues Coles will be the top receiver in his absence.	Laveranues Coles will be the top reciever in his absence.	7275198	1472089554413	1472089554507	h	72
14172	153061	Laveranues Coles will be the top receiver in his absence.	Laveranues Coles will be the top reciever in his absence.	7275203	1472089554456	1472089554568	e	69
14172	153061	Laveranues Coles will be the top receiver in his absence.	Laveranues Coles will be the top reciever in his absence.	7275209	1472089554597	1472089554693	 	32
14172	153061	Laveranues Coles will be the top receiver in his absence.	Laveranues Coles will be the top reciever in his absence.	7275214	1472089554850	1472089554951	t	84
14172	153061	Laveranues Coles will be the top receiver in his absence.	Laveranues Coles will be the top reciever in his absence.	7275219	1472089554955	1472089555083	o	79
14172	153061	Laveranues Coles will be the top receiver in his absence.	Laveranues Coles will be the top reciever in his absence.	7275255	1472089555038	1472089555141	p	80
14172	153061	Laveranues Coles will be the top receiver in his absence.	Laveranues Coles will be the top reciever in his absence.	7275258	1472089555150	1472089555225	 	32
14172	153061	Laveranues Coles will be the top receiver in his absence.	Laveranues Coles will be the top reciever in his absence.	7275262	1472089555357	1472089555472	r	82
14172	153061	Laveranues Coles will be the top receiver in his absence.	Laveranues Coles will be the top reciever in his absence.	7275267	1472089555420	1472089555539	e	69
14172	153061	Laveranues Coles will be the top receiver in his absence.	Laveranues Coles will be the top reciever in his absence.	7275271	1472089555666	1472089555744	c	67
14172	153061	Laveranues Coles will be the top receiver in his absence.	Laveranues Coles will be the top reciever in his absence.	7275274	1472089556042	1472089556135	i	73
14172	153061	Laveranues Coles will be the top receiver in his absence.	Laveranues Coles will be the top reciever in his absence.	7275279	1472089556408	1472089556505	e	69
14172	153061	Laveranues Coles will be the top receiver in his absence.	Laveranues Coles will be the top reciever in his absence.	7275281	1472089556538	1472089556628	v	86
14172	153061	Laveranues Coles will be the top receiver in his absence.	Laveranues Coles will be the top reciever in his absence.	7275284	1472089556633	1472089556796	e	69
14172	153061	Laveranues Coles will be the top receiver in his absence.	Laveranues Coles will be the top reciever in his absence.	7275286	1472089556729	1472089556838	r	82
14172	153061	Laveranues Coles will be the top receiver in his absence.	Laveranues Coles will be the top reciever in his absence.	7275288	1472089556845	1472089556929	 	32
14172	153061	Laveranues Coles will be the top receiver in his absence.	Laveranues Coles will be the top reciever in his absence.	7275320	1472089557053	1472089557152	i	73
14172	153061	Laveranues Coles will be the top receiver in his absence.	Laveranues Coles will be the top reciever in his absence.	7275323	1472089557242	1472089557347	n	78
14172	153061	Laveranues Coles will be the top receiver in his absence.	Laveranues Coles will be the top reciever in his absence.	7275327	1472089557440	1472089557541	 	32
14172	153061	Laveranues Coles will be the top receiver in his absence.	Laveranues Coles will be the top reciever in his absence.	7275329	1472089557554	1472089557647	h	72
14172	153061	Laveranues Coles will be the top receiver in his absence.	Laveranues Coles will be the top reciever in his absence.	7275330	1472089557667	1472089557766	i	73
14172	153061	Laveranues Coles will be the top receiver in his absence.	Laveranues Coles will be the top reciever in his absence.	7275343	1472089557774	1472089557862	s	83
14172	153061	Laveranues Coles will be the top receiver in his absence.	Laveranues Coles will be the top reciever in his absence.	7275346	1472089557901	1472089558006	 	32
14172	153061	Laveranues Coles will be the top receiver in his absence.	Laveranues Coles will be the top reciever in his absence.	7275348	1472089558040	1472089558141	a	65
14172	153061	Laveranues Coles will be the top receiver in his absence.	Laveranues Coles will be the top reciever in his absence.	7275349	1472089558217	1472089558310	b	66
14172	153061	Laveranues Coles will be the top receiver in his absence.	Laveranues Coles will be the top reciever in his absence.	7275350	1472089558326	1472089558425	s	83
14172	153061	Laveranues Coles will be the top receiver in his absence.	Laveranues Coles will be the top reciever in his absence.	7275388	1472089558598	1472089558699	e	69
14172	153061	Laveranues Coles will be the top receiver in his absence.	Laveranues Coles will be the top reciever in his absence.	7275392	1472089558739	1472089558828	n	78
14172	153061	Laveranues Coles will be the top receiver in his absence.	Laveranues Coles will be the top reciever in his absence.	7275395	1472089558992	1472089559080	c	67
14172	153061	Laveranues Coles will be the top receiver in his absence.	Laveranues Coles will be the top reciever in his absence.	7275398	1472089559095	1472089559194	e	69
14172	153076	Our schedule now calls for critical communication in the afternoons.	OUr schedule now calls for crtical communication in the afternoons.	7275547	1472089561556	1472089561909	SHIFT	16
14172	153076	Our schedule now calls for critical communication in the afternoons.	OUr schedule now calls for crtical communication in the afternoons.	7275549	1472089561915	1472089562017	u	85
14172	153076	Our schedule now calls for critical communication in the afternoons.	OUr schedule now calls for crtical communication in the afternoons.	7275550	1472089562263	1472089562329	BKSP	8
14172	153076	Our schedule now calls for critical communication in the afternoons.	OUr schedule now calls for crtical communication in the afternoons.	7275551	1472089562457	1472089562635	SHIFT	16
14172	153076	Our schedule now calls for critical communication in the afternoons.	OUr schedule now calls for crtical communication in the afternoons.	7275553	1472089562508	1472089562661	O	79
14172	153076	Our schedule now calls for critical communication in the afternoons.	OUr schedule now calls for crtical communication in the afternoons.	7275555	1472089562621	1472089562731	U	85
14172	153076	Our schedule now calls for critical communication in the afternoons.	OUr schedule now calls for crtical communication in the afternoons.	7275557	1472089562773	1472089562870	r	82
14172	153076	Our schedule now calls for critical communication in the afternoons.	OUr schedule now calls for crtical communication in the afternoons.	7275560	1472089562886	1472089562990	 	32
14172	153076	Our schedule now calls for critical communication in the afternoons.	OUr schedule now calls for crtical communication in the afternoons.	7275587	1472089563154	1472089563297	s	83
14172	153076	Our schedule now calls for critical communication in the afternoons.	OUr schedule now calls for crtical communication in the afternoons.	7275593	1472089563244	1472089563352	c	67
14172	153076	Our schedule now calls for critical communication in the afternoons.	OUr schedule now calls for crtical communication in the afternoons.	7275598	1472089563335	1472089563424	h	72
14172	153076	Our schedule now calls for critical communication in the afternoons.	OUr schedule now calls for crtical communication in the afternoons.	7275602	1472089563443	1472089563527	e	69
14172	153076	Our schedule now calls for critical communication in the afternoons.	OUr schedule now calls for crtical communication in the afternoons.	7275604	1472089563587	1472089563707	u	85
14172	153076	Our schedule now calls for critical communication in the afternoons.	OUr schedule now calls for crtical communication in the afternoons.	7275634	1472089564052	1472089564144	BKSP	8
14172	153076	Our schedule now calls for critical communication in the afternoons.	OUr schedule now calls for crtical communication in the afternoons.	7275638	1472089564172	1472089564259	d	68
14172	153076	Our schedule now calls for critical communication in the afternoons.	OUr schedule now calls for crtical communication in the afternoons.	7275646	1472089564273	1472089564354	u	85
14172	153076	Our schedule now calls for critical communication in the afternoons.	OUr schedule now calls for crtical communication in the afternoons.	7275650	1472089564452	1472089564541	l	76
14172	153076	Our schedule now calls for critical communication in the afternoons.	OUr schedule now calls for crtical communication in the afternoons.	7275654	1472089564565	1472089564655	e	69
14172	153076	Our schedule now calls for critical communication in the afternoons.	OUr schedule now calls for crtical communication in the afternoons.	7275661	1472089564706	1472089564792	 	32
14172	153076	Our schedule now calls for critical communication in the afternoons.	OUr schedule now calls for crtical communication in the afternoons.	7275680	1472089564878	1472089565008	n	78
14172	153076	Our schedule now calls for critical communication in the afternoons.	OUr schedule now calls for crtical communication in the afternoons.	7275683	1472089564968	1472089565096	o	79
14172	153076	Our schedule now calls for critical communication in the afternoons.	OUr schedule now calls for crtical communication in the afternoons.	7275686	1472089565091	1472089565182	w	87
14172	153076	Our schedule now calls for critical communication in the afternoons.	OUr schedule now calls for crtical communication in the afternoons.	7275689	1472089565231	1472089565344	 	32
14172	153076	Our schedule now calls for critical communication in the afternoons.	OUr schedule now calls for crtical communication in the afternoons.	7275692	1472089565508	1472089565656	c	67
14172	153076	Our schedule now calls for critical communication in the afternoons.	OUr schedule now calls for crtical communication in the afternoons.	7275704	1472089565605	1472089565731	a	65
14172	153076	Our schedule now calls for critical communication in the afternoons.	OUr schedule now calls for crtical communication in the afternoons.	7275707	1472089565739	1472089565814	l	76
14172	153076	Our schedule now calls for critical communication in the afternoons.	OUr schedule now calls for crtical communication in the afternoons.	7275713	1472089565847	1472089565938	l	76
14172	153076	Our schedule now calls for critical communication in the afternoons.	OUr schedule now calls for crtical communication in the afternoons.	7275719	1472089565928	1472089566040	s	83
14172	153076	Our schedule now calls for critical communication in the afternoons.	OUr schedule now calls for crtical communication in the afternoons.	7275725	1472089566083	1472089566158	 	32
14172	153076	Our schedule now calls for critical communication in the afternoons.	OUr schedule now calls for crtical communication in the afternoons.	7275758	1472089566146	1472089566236	f	70
14172	153076	Our schedule now calls for critical communication in the afternoons.	OUr schedule now calls for crtical communication in the afternoons.	7275760	1472089566277	1472089566372	o	79
14172	153076	Our schedule now calls for critical communication in the afternoons.	OUr schedule now calls for crtical communication in the afternoons.	7275762	1472089566364	1472089566450	r	82
14172	153076	Our schedule now calls for critical communication in the afternoons.	OUr schedule now calls for crtical communication in the afternoons.	7275766	1472089566502	1472089566603	 	32
14172	153076	Our schedule now calls for critical communication in the afternoons.	OUr schedule now calls for crtical communication in the afternoons.	7275771	1472089566609	1472089566692	c	67
14172	153076	Our schedule now calls for critical communication in the afternoons.	OUr schedule now calls for crtical communication in the afternoons.	7275775	1472089566791	1472089566891	r	82
14172	153076	Our schedule now calls for critical communication in the afternoons.	OUr schedule now calls for crtical communication in the afternoons.	7275785	1472089567044	1472089567131	t	84
14172	153076	Our schedule now calls for critical communication in the afternoons.	OUr schedule now calls for crtical communication in the afternoons.	7275786	1472089567146	1472089567242	i	73
14172	153076	Our schedule now calls for critical communication in the afternoons.	OUr schedule now calls for crtical communication in the afternoons.	7275788	1472089567262	1472089567373	c	67
14172	153076	Our schedule now calls for critical communication in the afternoons.	OUr schedule now calls for crtical communication in the afternoons.	7275790	1472089567371	1472089567485	a	65
14172	153076	Our schedule now calls for critical communication in the afternoons.	OUr schedule now calls for crtical communication in the afternoons.	7275821	1472089567482	1472089567579	l	76
14172	153076	Our schedule now calls for critical communication in the afternoons.	OUr schedule now calls for crtical communication in the afternoons.	7275829	1472089567619	1472089567703	 	32
14172	153076	Our schedule now calls for critical communication in the afternoons.	OUr schedule now calls for crtical communication in the afternoons.	7275835	1472089567817	1472089567903	c	67
14172	153076	Our schedule now calls for critical communication in the afternoons.	OUr schedule now calls for crtical communication in the afternoons.	7275839	1472089567908	1472089568008	o	79
14172	153076	Our schedule now calls for critical communication in the afternoons.	OUr schedule now calls for crtical communication in the afternoons.	7275841	1472089568107	1472089568173	m	77
14172	153076	Our schedule now calls for critical communication in the afternoons.	OUr schedule now calls for crtical communication in the afternoons.	7275844	1472089568220	1472089568314	m	77
14172	153076	Our schedule now calls for critical communication in the afternoons.	OUr schedule now calls for crtical communication in the afternoons.	7275854	1472089568423	1472089568504	u	85
14172	153076	Our schedule now calls for critical communication in the afternoons.	OUr schedule now calls for crtical communication in the afternoons.	7275857	1472089568582	1472089568666	n	78
14172	153076	Our schedule now calls for critical communication in the afternoons.	OUr schedule now calls for crtical communication in the afternoons.	7275859	1472089568677	1472089568780	i	73
14172	153076	Our schedule now calls for critical communication in the afternoons.	OUr schedule now calls for crtical communication in the afternoons.	7275861	1472089568762	1472089568867	c	67
14172	153076	Our schedule now calls for critical communication in the afternoons.	OUr schedule now calls for crtical communication in the afternoons.	7275877	1472089568813	1472089568924	a	65
14172	153076	Our schedule now calls for critical communication in the afternoons.	OUr schedule now calls for crtical communication in the afternoons.	7275881	1472089568989	1472089569074	t	84
14172	153076	Our schedule now calls for critical communication in the afternoons.	OUr schedule now calls for crtical communication in the afternoons.	7275883	1472089569058	1472089569179	i	73
14172	153076	Our schedule now calls for critical communication in the afternoons.	OUr schedule now calls for crtical communication in the afternoons.	7275888	1472089569141	1472089569242	o	79
14172	153076	Our schedule now calls for critical communication in the afternoons.	OUr schedule now calls for crtical communication in the afternoons.	7275891	1472089569278	1472089569387	n	78
14172	153076	Our schedule now calls for critical communication in the afternoons.	OUr schedule now calls for crtical communication in the afternoons.	7275917	1472089569372	1472089569456	 	32
14172	153076	Our schedule now calls for critical communication in the afternoons.	OUr schedule now calls for crtical communication in the afternoons.	7275921	1472089569541	1472089569665	i	73
14172	153076	Our schedule now calls for critical communication in the afternoons.	OUr schedule now calls for crtical communication in the afternoons.	7275924	1472089569747	1472089569848	n	78
14172	153076	Our schedule now calls for critical communication in the afternoons.	OUr schedule now calls for crtical communication in the afternoons.	7275927	1472089569944	1472089570057	 	32
14172	153076	Our schedule now calls for critical communication in the afternoons.	OUr schedule now calls for crtical communication in the afternoons.	7275933	1472089570042	1472089570170	t	84
14172	153076	Our schedule now calls for critical communication in the afternoons.	OUr schedule now calls for crtical communication in the afternoons.	7275944	1472089570167	1472089570269	h	72
14172	153076	Our schedule now calls for critical communication in the afternoons.	OUr schedule now calls for crtical communication in the afternoons.	7275946	1472089570246	1472089570365	e	69
14172	153076	Our schedule now calls for critical communication in the afternoons.	OUr schedule now calls for crtical communication in the afternoons.	7275948	1472089570370	1472089570475	 	32
14172	153076	Our schedule now calls for critical communication in the afternoons.	OUr schedule now calls for crtical communication in the afternoons.	7275951	1472089570481	1472089570588	a	65
14172	153076	Our schedule now calls for critical communication in the afternoons.	OUr schedule now calls for crtical communication in the afternoons.	7275953	1472089570598	1472089570698	f	70
14172	153076	Our schedule now calls for critical communication in the afternoons.	OUr schedule now calls for crtical communication in the afternoons.	7275982	1472089570681	1472089570773	t	84
14172	153076	Our schedule now calls for critical communication in the afternoons.	OUr schedule now calls for crtical communication in the afternoons.	7275985	1472089570733	1472089570855	e	69
14172	153076	Our schedule now calls for critical communication in the afternoons.	OUr schedule now calls for crtical communication in the afternoons.	7275987	1472089570809	1472089570910	r	82
14172	153076	Our schedule now calls for critical communication in the afternoons.	OUr schedule now calls for crtical communication in the afternoons.	7275990	1472089570932	1472089571025	n	78
14172	153076	Our schedule now calls for critical communication in the afternoons.	OUr schedule now calls for crtical communication in the afternoons.	7275993	1472089571087	1472089571164	o	79
14172	153076	Our schedule now calls for critical communication in the afternoons.	OUr schedule now calls for crtical communication in the afternoons.	7275996	1472089571220	1472089571304	o	79
14172	153076	Our schedule now calls for critical communication in the afternoons.	OUr schedule now calls for crtical communication in the afternoons.	7276000	1472089571364	1472089571459	n	78
14172	153076	Our schedule now calls for critical communication in the afternoons.	OUr schedule now calls for crtical communication in the afternoons.	7276002	1472089571465	1472089571555	s	83
14172	153076	Our schedule now calls for critical communication in the afternoons.	OUr schedule now calls for crtical communication in the afternoons.	7276005	1472089571623	1472089571733	.	190
14172	153087	After leaving the navy in he joined the merchant marines.	After leaving the navy in he jouned the merchant marines.	7276142	1472089574460	1472089574660	SHIFT	16
14172	153087	After leaving the navy in he joined the merchant marines.	After leaving the navy in he jouned the merchant marines.	7276145	1472089574607	1472089574728	A	65
14172	153087	After leaving the navy in he joined the merchant marines.	After leaving the navy in he jouned the merchant marines.	7276146	1472089574678	1472089574774	f	70
14172	153087	After leaving the navy in he joined the merchant marines.	After leaving the navy in he jouned the merchant marines.	7276147	1472089574756	1472089574846	t	84
14172	153087	After leaving the navy in he joined the merchant marines.	After leaving the navy in he jouned the merchant marines.	7276148	1472089574853	1472089574961	e	69
14172	153087	After leaving the navy in he joined the merchant marines.	After leaving the navy in he jouned the merchant marines.	7276167	1472089574907	1472089575043	r	82
14172	153087	After leaving the navy in he joined the merchant marines.	After leaving the navy in he jouned the merchant marines.	7276170	1472089574981	1472089575075	 	32
14172	153087	After leaving the navy in he joined the merchant marines.	After leaving the navy in he jouned the merchant marines.	7276172	1472089575161	1472089575266	l	76
14172	153087	After leaving the navy in he joined the merchant marines.	After leaving the navy in he jouned the merchant marines.	7276174	1472089575217	1472089575300	e	69
14172	153087	After leaving the navy in he joined the merchant marines.	After leaving the navy in he jouned the merchant marines.	7276178	1472089575363	1472089575491	a	65
14172	153087	After leaving the navy in he joined the merchant marines.	After leaving the navy in he jouned the merchant marines.	7276202	1472089575473	1472089575579	v	86
14172	153087	After leaving the navy in he joined the merchant marines.	After leaving the navy in he jouned the merchant marines.	7276205	1472089575576	1472089575675	i	73
14172	153087	After leaving the navy in he joined the merchant marines.	After leaving the navy in he jouned the merchant marines.	7276209	1472089575676	1472089575793	n	78
14172	153087	After leaving the navy in he joined the merchant marines.	After leaving the navy in he jouned the merchant marines.	7276211	1472089575782	1472089575870	g	71
14172	153087	After leaving the navy in he joined the merchant marines.	After leaving the navy in he jouned the merchant marines.	7276214	1472089575892	1472089575988	 	32
14172	153087	After leaving the navy in he joined the merchant marines.	After leaving the navy in he jouned the merchant marines.	7276266	1472089575980	1472089576061	t	84
14172	153087	After leaving the navy in he joined the merchant marines.	After leaving the navy in he jouned the merchant marines.	7276271	1472089576066	1472089576164	h	72
14172	153087	After leaving the navy in he joined the merchant marines.	After leaving the navy in he jouned the merchant marines.	7276279	1472089576122	1472089576234	e	69
14172	153087	After leaving the navy in he joined the merchant marines.	After leaving the navy in he jouned the merchant marines.	7276287	1472089576270	1472089576360	 	32
14172	153087	After leaving the navy in he joined the merchant marines.	After leaving the navy in he jouned the merchant marines.	7276294	1472089576429	1472089576497	n	78
14172	153087	After leaving the navy in he joined the merchant marines.	After leaving the navy in he jouned the merchant marines.	7276301	1472089576865	1472089576984	a	65
14172	153087	After leaving the navy in he joined the merchant marines.	After leaving the navy in he jouned the merchant marines.	7276388	1472089576959	1472089577051	c	67
14172	153087	After leaving the navy in he joined the merchant marines.	After leaving the navy in he jouned the merchant marines.	7276392	1472089577440	1472089577559	BKSP	8
14172	153087	After leaving the navy in he joined the merchant marines.	After leaving the navy in he jouned the merchant marines.	7276397	1472089577570	1472089577656	v	86
14172	153087	After leaving the navy in he joined the merchant marines.	After leaving the navy in he jouned the merchant marines.	7276402	1472089577693	1472089577775	y	89
14172	153087	After leaving the navy in he joined the merchant marines.	After leaving the navy in he jouned the merchant marines.	7276407	1472089577885	1472089577975	 	32
14172	153087	After leaving the navy in he joined the merchant marines.	After leaving the navy in he jouned the merchant marines.	7276415	1472089578124	1472089578234	i	73
14172	153087	After leaving the navy in he joined the merchant marines.	After leaving the navy in he jouned the merchant marines.	7276422	1472089578266	1472089578373	n	78
14172	153087	After leaving the navy in he joined the merchant marines.	After leaving the navy in he jouned the merchant marines.	7276452	1472089578477	1472089578576	 	32
14172	153087	After leaving the navy in he joined the merchant marines.	After leaving the navy in he jouned the merchant marines.	7276459	1472089578851	1472089578942	h	72
14172	153087	After leaving the navy in he joined the merchant marines.	After leaving the navy in he jouned the merchant marines.	7276466	1472089578957	1472089579051	e	69
14172	153087	After leaving the navy in he joined the merchant marines.	After leaving the navy in he jouned the merchant marines.	7276472	1472089579065	1472089579155	 	32
14172	153087	After leaving the navy in he joined the merchant marines.	After leaving the navy in he jouned the merchant marines.	7276475	1472089579274	1472089579393	j	74
14172	153087	After leaving the navy in he joined the merchant marines.	After leaving the navy in he jouned the merchant marines.	7276484	1472089579395	1472089579522	o	79
14172	153087	After leaving the navy in he joined the merchant marines.	After leaving the navy in he jouned the merchant marines.	7276487	1472089579507	1472089579614	u	85
14172	153087	After leaving the navy in he joined the merchant marines.	After leaving the navy in he jouned the merchant marines.	7276491	1472089579686	1472089579792	n	78
14172	153087	After leaving the navy in he joined the merchant marines.	After leaving the navy in he jouned the merchant marines.	7276496	1472089579773	1472089579942	e	69
14172	153087	After leaving the navy in he joined the merchant marines.	After leaving the navy in he jouned the merchant marines.	7276530	1472089579886	1472089580002	d	68
14172	153087	After leaving the navy in he joined the merchant marines.	After leaving the navy in he jouned the merchant marines.	7276532	1472089580003	1472089580094	 	32
14172	153087	After leaving the navy in he joined the merchant marines.	After leaving the navy in he jouned the merchant marines.	7276534	1472089580119	1472089580202	t	84
14172	153087	After leaving the navy in he joined the merchant marines.	After leaving the navy in he jouned the merchant marines.	7276536	1472089580189	1472089580289	h	72
14172	153087	After leaving the navy in he joined the merchant marines.	After leaving the navy in he jouned the merchant marines.	7276538	1472089580280	1472089580368	e	69
14172	153087	After leaving the navy in he joined the merchant marines.	After leaving the navy in he jouned the merchant marines.	7276540	1472089580376	1472089580479	 	32
14172	153087	After leaving the navy in he joined the merchant marines.	After leaving the navy in he jouned the merchant marines.	7276553	1472089580591	1472089580717	m	77
14172	153087	After leaving the navy in he joined the merchant marines.	After leaving the navy in he jouned the merchant marines.	7276555	1472089580670	1472089580822	e	69
14172	153087	After leaving the navy in he joined the merchant marines.	After leaving the navy in he jouned the merchant marines.	7276558	1472089580761	1472089580860	r	82
14172	153087	After leaving the navy in he joined the merchant marines.	After leaving the navy in he jouned the merchant marines.	7276562	1472089580962	1472089581054	c	67
14172	153087	After leaving the navy in he joined the merchant marines.	After leaving the navy in he jouned the merchant marines.	7276591	1472089581040	1472089581135	h	72
14172	153087	After leaving the navy in he joined the merchant marines.	After leaving the navy in he jouned the merchant marines.	7276593	1472089581123	1472089581222	a	65
14172	153087	After leaving the navy in he joined the merchant marines.	After leaving the navy in he jouned the merchant marines.	7276596	1472089581226	1472089581328	n	78
14172	153087	After leaving the navy in he joined the merchant marines.	After leaving the navy in he jouned the merchant marines.	7276599	1472089581338	1472089581401	t	84
14172	153087	After leaving the navy in he joined the merchant marines.	After leaving the navy in he jouned the merchant marines.	7276604	1472089581464	1472089581550	 	32
14172	153087	After leaving the navy in he joined the merchant marines.	After leaving the navy in he jouned the merchant marines.	7276611	1472089581677	1472089581776	m	77
14172	153087	After leaving the navy in he joined the merchant marines.	After leaving the navy in he jouned the merchant marines.	7276628	1472089581800	1472089581912	a	65
14172	153087	After leaving the navy in he joined the merchant marines.	After leaving the navy in he jouned the merchant marines.	7276629	1472089581980	1472089582065	r	82
14172	153087	After leaving the navy in he joined the merchant marines.	After leaving the navy in he jouned the merchant marines.	7276630	1472089582076	1472089582173	i	73
14172	153087	After leaving the navy in he joined the merchant marines.	After leaving the navy in he jouned the merchant marines.	7276631	1472089582266	1472089582364	n	78
14172	153087	After leaving the navy in he joined the merchant marines.	After leaving the navy in he jouned the merchant marines.	7276645	1472089582324	1472089582416	e	69
14172	153087	After leaving the navy in he joined the merchant marines.	After leaving the navy in he jouned the merchant marines.	7276648	1472089582481	1472089582569	s	83
14172	153104	We controlled the race from the start and I'm satisfied.	We controlled the race form the start and I'm satisfied.	7277604	1472089582570	1472089596343	.	190
14172	153104	We controlled the race from the start and I'm satisfied.	We controlled the race form the start and I'm satisfied.	7276804	1472089585054	1472089585335	SHIFT	16
14172	153104	We controlled the race from the start and I'm satisfied.	We controlled the race form the start and I'm satisfied.	7276810	1472089585260	1472089585406	W	87
14172	153104	We controlled the race from the start and I'm satisfied.	We controlled the race form the start and I'm satisfied.	7276816	1472089585337	1472089585462	e	69
14172	153104	We controlled the race from the start and I'm satisfied.	We controlled the race form the start and I'm satisfied.	7276820	1472089585426	1472089585534	 	32
14172	153104	We controlled the race from the start and I'm satisfied.	We controlled the race form the start and I'm satisfied.	7276824	1472089585570	1472089585656	c	67
14172	153104	We controlled the race from the start and I'm satisfied.	We controlled the race form the start and I'm satisfied.	7276898	1472089585645	1472089585742	o	79
14172	153104	We controlled the race from the start and I'm satisfied.	We controlled the race form the start and I'm satisfied.	7276905	1472089585755	1472089585873	n	78
14172	153104	We controlled the race from the start and I'm satisfied.	We controlled the race form the start and I'm satisfied.	7276909	1472089585863	1472089586026	r	82
14172	153104	We controlled the race from the start and I'm satisfied.	We controlled the race form the start and I'm satisfied.	7276912	1472089585989	1472089586091	e	69
14172	153104	We controlled the race from the start and I'm satisfied.	We controlled the race form the start and I'm satisfied.	7276914	1472089586304	1472089586375	BKSP	8
14172	153104	We controlled the race from the start and I'm satisfied.	We controlled the race form the start and I'm satisfied.	7276917	1472089586407	1472089586470	BKSP	8
14172	153104	We controlled the race from the start and I'm satisfied.	We controlled the race form the start and I'm satisfied.	7276919	1472089586885	1472089586987	t	84
14172	153104	We controlled the race from the start and I'm satisfied.	We controlled the race form the start and I'm satisfied.	7276936	1472089586937	1472089587052	r	82
14172	153104	We controlled the race from the start and I'm satisfied.	We controlled the race form the start and I'm satisfied.	7276943	1472089587070	1472089587168	o	79
14172	153104	We controlled the race from the start and I'm satisfied.	We controlled the race form the start and I'm satisfied.	7276950	1472089587247	1472089587320	l	76
14172	153104	We controlled the race from the start and I'm satisfied.	We controlled the race form the start and I'm satisfied.	7276957	1472089587353	1472089587450	l	76
14172	153104	We controlled the race from the start and I'm satisfied.	We controlled the race form the start and I'm satisfied.	7276967	1472089587416	1472089587564	e	69
14172	153104	We controlled the race from the start and I'm satisfied.	We controlled the race form the start and I'm satisfied.	7277000	1472089587499	1472089587627	d	68
14172	153104	We controlled the race from the start and I'm satisfied.	We controlled the race form the start and I'm satisfied.	7277003	1472089587628	1472089587730	 	32
14172	153104	We controlled the race from the start and I'm satisfied.	We controlled the race form the start and I'm satisfied.	7277008	1472089587909	1472089588015	t	84
14172	153104	We controlled the race from the start and I'm satisfied.	We controlled the race form the start and I'm satisfied.	7277011	1472089587994	1472089588096	h	72
14172	153104	We controlled the race from the start and I'm satisfied.	We controlled the race form the start and I'm satisfied.	7277015	1472089588088	1472089588203	e	69
14172	153104	We controlled the race from the start and I'm satisfied.	We controlled the race form the start and I'm satisfied.	7277039	1472089588194	1472089588303	 	32
14172	153104	We controlled the race from the start and I'm satisfied.	We controlled the race form the start and I'm satisfied.	7277042	1472089588295	1472089588383	r	82
14172	153104	We controlled the race from the start and I'm satisfied.	We controlled the race form the start and I'm satisfied.	7277045	1472089588511	1472089588644	a	65
14172	153104	We controlled the race from the start and I'm satisfied.	We controlled the race form the start and I'm satisfied.	7277051	1472089588601	1472089588736	c	67
14172	153104	We controlled the race from the start and I'm satisfied.	We controlled the race form the start and I'm satisfied.	7277060	1472089588740	1472089588847	e	69
14172	153104	We controlled the race from the start and I'm satisfied.	We controlled the race form the start and I'm satisfied.	7277102	1472089588807	1472089588912	 	32
14172	153104	We controlled the race from the start and I'm satisfied.	We controlled the race form the start and I'm satisfied.	7277106	1472089588944	1472089589091	f	70
14172	153104	We controlled the race from the start and I'm satisfied.	We controlled the race form the start and I'm satisfied.	7277109	1472089589101	1472089589229	r	79
14172	153104	We controlled the race from the start and I'm satisfied.	We controlled the race form the start and I'm satisfied.	7277112	1472089589247	1472089589366	m	77
14172	153104	We controlled the race from the start and I'm satisfied.	We controlled the race form the start and I'm satisfied.	7277114	1472089589479	1472089589587	 	32
14172	153104	We controlled the race from the start and I'm satisfied.	We controlled the race form the start and I'm satisfied.	7277123	1472089589605	1472089589704	t	84
14172	153104	We controlled the race from the start and I'm satisfied.	We controlled the race form the start and I'm satisfied.	7277125	1472089589695	1472089589798	h	72
14172	153104	We controlled the race from the start and I'm satisfied.	We controlled the race form the start and I'm satisfied.	7277127	1472089589747	1472089589845	e	69
14172	153104	We controlled the race from the start and I'm satisfied.	We controlled the race form the start and I'm satisfied.	7277129	1472089589889	1472089590002	 	32
14172	153104	We controlled the race from the start and I'm satisfied.	We controlled the race form the start and I'm satisfied.	7277132	1472089590009	1472089590124	d	68
14172	153104	We controlled the race from the start and I'm satisfied.	We controlled the race form the start and I'm satisfied.	7277219	1472089590184	1472089590279	t	84
14172	153104	We controlled the race from the start and I'm satisfied.	We controlled the race form the start and I'm satisfied.	7277221	1472089590487	1472089590547	BKSP	8
14172	153104	We controlled the race from the start and I'm satisfied.	We controlled the race form the start and I'm satisfied.	7277223	1472089590588	1472089590689	BKSP	8
14172	153104	We controlled the race from the start and I'm satisfied.	We controlled the race form the start and I'm satisfied.	7277225	1472089590790	1472089590909	s	83
14172	153104	We controlled the race from the start and I'm satisfied.	We controlled the race form the start and I'm satisfied.	7277227	1472089590930	1472089591013	t	84
14172	153104	We controlled the race from the start and I'm satisfied.	We controlled the race form the start and I'm satisfied.	7277232	1472089591376	1472089591482	a	65
14172	153104	We controlled the race from the start and I'm satisfied.	We controlled the race form the start and I'm satisfied.	7277238	1472089591507	1472089591598	r	82
14172	153104	We controlled the race from the start and I'm satisfied.	We controlled the race form the start and I'm satisfied.	7277275	1472089591632	1472089591731	t	84
14172	153104	We controlled the race from the start and I'm satisfied.	We controlled the race form the start and I'm satisfied.	7277279	1472089591871	1472089591975	 	32
14172	153104	We controlled the race from the start and I'm satisfied.	We controlled the race form the start and I'm satisfied.	7277282	1472089592117	1472089592247	a	65
14172	153104	We controlled the race from the start and I'm satisfied.	We controlled the race form the start and I'm satisfied.	7277286	1472089592238	1472089592335	n	78
14172	153104	We controlled the race from the start and I'm satisfied.	We controlled the race form the start and I'm satisfied.	7277345	1472089592312	1472089592388	d	68
14172	153104	We controlled the race from the start and I'm satisfied.	We controlled the race form the start and I'm satisfied.	7277351	1472089592424	1472089592530	 	32
14172	153104	We controlled the race from the start and I'm satisfied.	We controlled the race form the start and I'm satisfied.	7277361	1472089592537	1472089592728	SHIFT	16
14172	153104	We controlled the race from the start and I'm satisfied.	We controlled the race form the start and I'm satisfied.	7277357	1472089592633	1472089592721	I	73
14172	153104	We controlled the race from the start and I'm satisfied.	We controlled the race form the start and I'm satisfied.	7277366	1472089593095	1472089593195	'	222
14172	153104	We controlled the race from the start and I'm satisfied.	We controlled the race form the start and I'm satisfied.	7277371	1472089593298	1472089593397	m	77
14172	153104	We controlled the race from the start and I'm satisfied.	We controlled the race form the start and I'm satisfied.	7277530	1472089593390	1472089593472	 	32
14172	153104	We controlled the race from the start and I'm satisfied.	We controlled the race form the start and I'm satisfied.	7277533	1472089593517	1472089593618	s	83
14172	153104	We controlled the race from the start and I'm satisfied.	We controlled the race form the start and I'm satisfied.	7277538	1472089593717	1472089593834	a	65
14172	153104	We controlled the race from the start and I'm satisfied.	We controlled the race form the start and I'm satisfied.	7277542	1472089594515	1472089594599	t	84
14172	153104	We controlled the race from the start and I'm satisfied.	We controlled the race form the start and I'm satisfied.	7277547	1472089594651	1472089594750	i	73
14172	153104	We controlled the race from the start and I'm satisfied.	We controlled the race form the start and I'm satisfied.	7277551	1472089595580	1472089595683	s	83
14172	153104	We controlled the race from the start and I'm satisfied.	We controlled the race form the start and I'm satisfied.	7277588	1472089595906	1472089596000	f	70
14172	153104	We controlled the race from the start and I'm satisfied.	We controlled the race form the start and I'm satisfied.	7277591	1472089596024	1472089596105	i	73
14172	153104	We controlled the race from the start and I'm satisfied.	We controlled the race form the start and I'm satisfied.	7277593	1472089596092	1472089596227	e	69
14172	153104	We controlled the race from the start and I'm satisfied.	We controlled the race form the start and I'm satisfied.	7277595	1472089596191	1472089596276	d	68
14172	153123	For safety reasons, the turkey will be carved in a private ceremony.	For saftery reasons, the turkey will be carves in a private cermony.	7277854	1472089598797	1472089599159	SHIFT	16
14172	153123	For safety reasons, the turkey will be carved in a private ceremony.	For saftery reasons, the turkey will be carves in a private cermony.	7277858	1472089599103	1472089599210	F	70
14172	153123	For safety reasons, the turkey will be carved in a private ceremony.	For saftery reasons, the turkey will be carves in a private cermony.	7277863	1472089599204	1472089599301	o	79
14172	153123	For safety reasons, the turkey will be carved in a private ceremony.	For saftery reasons, the turkey will be carves in a private cermony.	7277869	1472089599309	1472089599409	r	82
14172	153123	For safety reasons, the turkey will be carved in a private ceremony.	For saftery reasons, the turkey will be carves in a private cermony.	7277875	1472089599428	1472089599532	 	32
14172	153123	For safety reasons, the turkey will be carved in a private ceremony.	For saftery reasons, the turkey will be carves in a private cermony.	7277884	1472089599543	1472089599687	s	83
14172	153123	For safety reasons, the turkey will be carved in a private ceremony.	For saftery reasons, the turkey will be carves in a private cermony.	7277935	1472089599628	1472089599750	a	65
14172	153123	For safety reasons, the turkey will be carved in a private ceremony.	For saftery reasons, the turkey will be carves in a private cermony.	7277938	1472089599803	1472089599900	f	70
14172	153123	For safety reasons, the turkey will be carved in a private ceremony.	For saftery reasons, the turkey will be carves in a private cermony.	7277943	1472089599956	1472089600042	t	84
14172	153123	For safety reasons, the turkey will be carved in a private ceremony.	For saftery reasons, the turkey will be carves in a private cermony.	7277946	1472089600030	1472089600185	e	69
14172	153123	For safety reasons, the turkey will be carved in a private ceremony.	For saftery reasons, the turkey will be carves in a private cermony.	7277954	1472089600153	1472089600221	r	82
14172	153123	For safety reasons, the turkey will be carved in a private ceremony.	For saftery reasons, the turkey will be carves in a private cermony.	7277965	1472089600367	1472089600453	y	89
14172	153123	For safety reasons, the turkey will be carved in a private ceremony.	For saftery reasons, the turkey will be carves in a private cermony.	7278006	1472089600539	1472089600624	 	32
14172	153123	For safety reasons, the turkey will be carved in a private ceremony.	For saftery reasons, the turkey will be carves in a private cermony.	7278009	1472089600744	1472089600847	r	82
14172	153123	For safety reasons, the turkey will be carved in a private ceremony.	For saftery reasons, the turkey will be carves in a private cermony.	7278015	1472089600969	1472089601054	e	69
14172	153123	For safety reasons, the turkey will be carved in a private ceremony.	For saftery reasons, the turkey will be carves in a private cermony.	7278018	1472089601165	1472089601304	a	65
14172	153123	For safety reasons, the turkey will be carved in a private ceremony.	For saftery reasons, the turkey will be carves in a private cermony.	7278041	1472089601273	1472089601373	s	83
14172	153123	For safety reasons, the turkey will be carved in a private ceremony.	For saftery reasons, the turkey will be carves in a private cermony.	7278044	1472089601394	1472089601540	o	79
14172	153123	For safety reasons, the turkey will be carved in a private ceremony.	For saftery reasons, the turkey will be carves in a private cermony.	7278052	1472089601511	1472089601619	n	78
14172	153123	For safety reasons, the turkey will be carved in a private ceremony.	For saftery reasons, the turkey will be carves in a private cermony.	7278057	1472089601598	1472089601695	s	83
14172	153123	For safety reasons, the turkey will be carved in a private ceremony.	For saftery reasons, the turkey will be carves in a private cermony.	7278061	1472089601746	1472089601841	,	188
14172	153123	For safety reasons, the turkey will be carved in a private ceremony.	For saftery reasons, the turkey will be carves in a private cermony.	7278064	1472089601862	1472089601929	 	32
14172	153123	For safety reasons, the turkey will be carved in a private ceremony.	For saftery reasons, the turkey will be carves in a private cermony.	7278083	1472089602061	1472089602140	t	84
14172	153123	For safety reasons, the turkey will be carved in a private ceremony.	For saftery reasons, the turkey will be carves in a private cermony.	7278086	1472089602122	1472089602222	h	72
14172	153123	For safety reasons, the turkey will be carved in a private ceremony.	For saftery reasons, the turkey will be carves in a private cermony.	7278088	1472089602219	1472089602314	e	69
14172	153123	For safety reasons, the turkey will be carved in a private ceremony.	For saftery reasons, the turkey will be carves in a private cermony.	7278090	1472089602307	1472089602415	 	32
14172	153123	For safety reasons, the turkey will be carved in a private ceremony.	For saftery reasons, the turkey will be carves in a private cermony.	7278168	1472089602412	1472089602499	t	84
14172	153123	For safety reasons, the turkey will be carved in a private ceremony.	For saftery reasons, the turkey will be carves in a private cermony.	7278173	1472089602524	1472089602624	u	85
14172	153123	For safety reasons, the turkey will be carved in a private ceremony.	For saftery reasons, the turkey will be carves in a private cermony.	7278177	1472089602650	1472089602747	r	82
14172	153123	For safety reasons, the turkey will be carved in a private ceremony.	For saftery reasons, the turkey will be carves in a private cermony.	7278179	1472089602752	1472089602850	k	75
14172	153123	For safety reasons, the turkey will be carved in a private ceremony.	For saftery reasons, the turkey will be carves in a private cermony.	7278182	1472089603157	1472089603272	e	69
14172	153123	For safety reasons, the turkey will be carved in a private ceremony.	For saftery reasons, the turkey will be carves in a private cermony.	7278187	1472089603319	1472089603396	y	89
14172	153123	For safety reasons, the turkey will be carved in a private ceremony.	For saftery reasons, the turkey will be carves in a private cermony.	7278227	1472089603389	1472089603492	 	32
14172	153123	For safety reasons, the turkey will be carved in a private ceremony.	For saftery reasons, the turkey will be carves in a private cermony.	7278231	1472089603546	1472089603639	w	87
14172	153123	For safety reasons, the turkey will be carved in a private ceremony.	For saftery reasons, the turkey will be carves in a private cermony.	7278235	1472089603666	1472089603751	i	73
14172	153123	For safety reasons, the turkey will be carved in a private ceremony.	For saftery reasons, the turkey will be carves in a private cermony.	7278239	1472089603834	1472089603922	l	76
14172	153123	For safety reasons, the turkey will be carved in a private ceremony.	For saftery reasons, the turkey will be carves in a private cermony.	7278242	1472089603962	1472089604045	l	76
14172	153123	For safety reasons, the turkey will be carved in a private ceremony.	For saftery reasons, the turkey will be carves in a private cermony.	7278246	1472089604143	1472089604239	 	32
14172	153123	For safety reasons, the turkey will be carved in a private ceremony.	For saftery reasons, the turkey will be carves in a private cermony.	7278258	1472089604299	1472089604383	b	66
14172	153123	For safety reasons, the turkey will be carved in a private ceremony.	For saftery reasons, the turkey will be carves in a private cermony.	7278260	1472089604384	1472089604473	e	69
14172	153123	For safety reasons, the turkey will be carved in a private ceremony.	For saftery reasons, the turkey will be carves in a private cermony.	7278265	1472089604516	1472089604615	 	32
14172	153123	For safety reasons, the turkey will be carved in a private ceremony.	For saftery reasons, the turkey will be carves in a private cermony.	7278270	1472089604581	1472089604722	c	67
14172	153123	For safety reasons, the turkey will be carved in a private ceremony.	For saftery reasons, the turkey will be carves in a private cermony.	7278392	1472089604664	1472089604772	a	65
14172	153123	For safety reasons, the turkey will be carved in a private ceremony.	For saftery reasons, the turkey will be carves in a private cermony.	7278399	1472089604886	1472089605023	r	82
14172	153123	For safety reasons, the turkey will be carved in a private ceremony.	For saftery reasons, the turkey will be carves in a private cermony.	7278405	1472089605917	1472089606003	v	86
14172	153123	For safety reasons, the turkey will be carved in a private ceremony.	For saftery reasons, the turkey will be carves in a private cermony.	7278409	1472089605985	1472089606073	e	69
14172	153123	For safety reasons, the turkey will be carved in a private ceremony.	For saftery reasons, the turkey will be carves in a private cermony.	7278412	1472089606149	1472089606235	s	83
14172	153123	For safety reasons, the turkey will be carved in a private ceremony.	For saftery reasons, the turkey will be carves in a private cermony.	7278442	1472089606219	1472089606309	 	32
14172	153123	For safety reasons, the turkey will be carved in a private ceremony.	For saftery reasons, the turkey will be carves in a private cermony.	7278448	1472089606339	1472089606433	i	73
14172	153123	For safety reasons, the turkey will be carved in a private ceremony.	For saftery reasons, the turkey will be carves in a private cermony.	7278453	1472089606455	1472089606561	n	78
14172	153123	For safety reasons, the turkey will be carved in a private ceremony.	For saftery reasons, the turkey will be carves in a private cermony.	7278457	1472089606657	1472089606765	 	32
14172	153123	For safety reasons, the turkey will be carved in a private ceremony.	For saftery reasons, the turkey will be carves in a private cermony.	7278462	1472089606730	1472089606830	a	65
14172	153123	For safety reasons, the turkey will be carved in a private ceremony.	For saftery reasons, the turkey will be carves in a private cermony.	7278466	1472089606851	1472089606947	 	32
14172	153123	For safety reasons, the turkey will be carved in a private ceremony.	For saftery reasons, the turkey will be carves in a private cermony.	7278511	1472089607065	1472089607162	p	80
14172	153123	For safety reasons, the turkey will be carved in a private ceremony.	For saftery reasons, the turkey will be carves in a private cermony.	7278512	1472089607216	1472089607325	r	82
14172	153123	For safety reasons, the turkey will be carved in a private ceremony.	For saftery reasons, the turkey will be carves in a private cermony.	7278513	1472089607456	1472089607551	i	73
14172	153123	For safety reasons, the turkey will be carved in a private ceremony.	For saftery reasons, the turkey will be carves in a private cermony.	7278515	1472089607707	1472089607804	v	86
14172	153123	For safety reasons, the turkey will be carved in a private ceremony.	For saftery reasons, the turkey will be carves in a private cermony.	7278517	1472089607824	1472089607913	a	65
14172	153123	For safety reasons, the turkey will be carved in a private ceremony.	For saftery reasons, the turkey will be carves in a private cermony.	7278571	1472089607931	1472089608026	t	84
14172	153123	For safety reasons, the turkey will be carved in a private ceremony.	For saftery reasons, the turkey will be carves in a private cermony.	7278575	1472089608046	1472089608149	e	69
14172	153123	For safety reasons, the turkey will be carved in a private ceremony.	For saftery reasons, the turkey will be carves in a private cermony.	7278576	1472089608142	1472089608248	 	32
14172	153123	For safety reasons, the turkey will be carved in a private ceremony.	For saftery reasons, the turkey will be carves in a private cermony.	7278579	1472089608280	1472089608378	c	67
14172	153123	For safety reasons, the turkey will be carved in a private ceremony.	For saftery reasons, the turkey will be carves in a private cermony.	7278583	1472089608387	1472089608563	e	69
14172	153123	For safety reasons, the turkey will be carved in a private ceremony.	For saftery reasons, the turkey will be carves in a private cermony.	7278614	1472089608504	1472089608630	r	82
14172	153123	For safety reasons, the turkey will be carved in a private ceremony.	For saftery reasons, the turkey will be carves in a private cermony.	7278616	1472089608621	1472089608717	m	77
14172	153123	For safety reasons, the turkey will be carved in a private ceremony.	For saftery reasons, the turkey will be carves in a private cermony.	7278620	1472089608742	1472089608854	o	79
14172	153123	For safety reasons, the turkey will be carved in a private ceremony.	For saftery reasons, the turkey will be carves in a private cermony.	7278624	1472089608879	1472089608974	n	78
14172	153123	For safety reasons, the turkey will be carved in a private ceremony.	For saftery reasons, the turkey will be carves in a private cermony.	7278628	1472089609071	1472089609190	y	89
