PARTICIPANT_ID	TEST_SECTION_ID	SENTENCE	USER_INPUT	KEYSTROKE_ID	PRESS_TIME	RELEASE_TIME	LETTER	KEYCODE
142707	1552842	I will be thinking of you.	I will be thinking of you.	73816930	1473848514806	1473848514905	CAPS_LOCK	20
142707	1552842	I will be thinking of you.	I will be thinking of you.	73816933	1473848514921	1473848514984	I	73
142707	1552842	I will be thinking of you.	I will be thinking of you.	73816936	1473848514985	1473848515081	CAPS_LOCK	20
142707	1552842	I will be thinking of you.	I will be thinking of you.	73816938	1473848515106	1473848515160	 	32
142707	1552842	I will be thinking of you.	I will be thinking of you.	73816941	1473848515233	1473848515289	w	81
142707	1552842	I will be thinking of you.	I will be thinking of you.	73816943	1473848515313	1473848515369	i	73
142707	1552842	I will be thinking of you.	I will be thinking of you.	73817015	1473848515529	1473848515552	l	76
142707	1552842	I will be thinking of you.	I will be thinking of you.	73817019	1473848515889	1473848515952	BKSP	8
142707	1552842	I will be thinking of you.	I will be thinking of you.	73817023	1473848516041	1473848516096	BKSP	8
142707	1552842	I will be thinking of you.	I will be thinking of you.	73817026	1473848516177	1473848516249	BKSP	8
142707	1552842	I will be thinking of you.	I will be thinking of you.	73817029	1473848516337	1473848516384	w	87
142707	1552842	I will be thinking of you.	I will be thinking of you.	73817031	1473848516721	1473848516776	BKSP	8
142707	1552842	I will be thinking of you.	I will be thinking of you.	73817032	1473848516873	1473848516936	BKSP	8
142707	1552842	I will be thinking of you.	I will be thinking of you.	73817033	1473848517161	1473848517264	w	87
142707	1552842	I will be thinking of you.	I will be thinking of you.	73817034	1473848517329	1473848517392	i	73
142707	1552842	I will be thinking of you.	I will be thinking of you.	73817035	1473848517497	1473848517560	l	76
142707	1552842	I will be thinking of you.	I will be thinking of you.	73817037	1473848517625	1473848517688	l	76
142707	1552842	I will be thinking of you.	I will be thinking of you.	73817039	1473848517801	1473848517848	 	32
142707	1552842	I will be thinking of you.	I will be thinking of you.	73817041	1473848517937	1473848518001	b	66
142707	1552842	I will be thinking of you.	I will be thinking of you.	73817043	1473848518001	1473848518097	e	69
142707	1552842	I will be thinking of you.	I will be thinking of you.	73817047	1473848518097	1473848518160	 	32
142707	1552842	I will be thinking of you.	I will be thinking of you.	73817058	1473848518217	1473848518264	t	84
142707	1552842	I will be thinking of you.	I will be thinking of you.	73817060	1473848518297	1473848518360	h	72
142707	1552842	I will be thinking of you.	I will be thinking of you.	73817062	1473848518409	1473848518480	i	73
142707	1552842	I will be thinking of you.	I will be thinking of you.	73817064	1473848518545	1473848518608	n	78
142707	1552842	I will be thinking of you.	I will be thinking of you.	73817067	1473848518689	1473848518776	k	75
142707	1552842	I will be thinking of you.	I will be thinking of you.	73817086	1473848518880	1473848518936	i	73
142707	1552842	I will be thinking of you.	I will be thinking of you.	73817087	1473848519001	1473848519080	n	78
142707	1552842	I will be thinking of you.	I will be thinking of you.	73817088	1473848519104	1473848519160	g	71
142707	1552842	I will be thinking of you.	I will be thinking of you.	73817089	1473848519177	1473848519241	 	32
142707	1552842	I will be thinking of you.	I will be thinking of you.	73817090	1473848519328	1473848519384	o	79
142707	1552842	I will be thinking of you.	I will be thinking of you.	73817105	1473848519401	1473848519488	f	70
142707	1552842	I will be thinking of you.	I will be thinking of you.	73817107	1473848519505	1473848519576	 	32
142707	1552842	I will be thinking of you.	I will be thinking of you.	73817109	1473848519633	1473848519688	y	89
142707	1552842	I will be thinking of you.	I will be thinking of you.	73817111	1473848519689	1473848519753	o	79
142707	1552842	I will be thinking of you.	I will be thinking of you.	73817114	1473848519825	1473848519880	u	85
142707	1552842	I will be thinking of you.	I will be thinking of you.	73817122	1473848520009	1473848520073	.	190
142707	1552850	Have not added Westport on yet.	Have not added Westport on ye.	73817179	1473848521081	1473848521161	CAPS_LOCK	20
142707	1552850	Have not added Westport on yet.	Have not added Westport on ye.	73817182	1473848521176	1473848521240	H	72
142707	1552850	Have not added Westport on yet.	Have not added Westport on ye.	73817187	1473848521241	1473848521305	CAPS_LOCK	20
142707	1552850	Have not added Westport on yet.	Have not added Westport on ye.	73817192	1473848521400	1473848521472	a	65
142707	1552850	Have not added Westport on yet.	Have not added Westport on ye.	73817196	1473848521473	1473848521528	v	86
142707	1552850	Have not added Westport on yet.	Have not added Westport on ye.	73817199	1473848521592	1473848521665	e	69
142707	1552850	Have not added Westport on yet.	Have not added Westport on ye.	73817218	1473848521640	1473848521697	 	32
142707	1552850	Have not added Westport on yet.	Have not added Westport on ye.	73817219	1473848521793	1473848521865	n	78
142707	1552850	Have not added Westport on yet.	Have not added Westport on ye.	73817220	1473848521937	1473848522008	o	79
142707	1552850	Have not added Westport on yet.	Have not added Westport on ye.	73817221	1473848522025	1473848522081	t	84
142707	1552850	Have not added Westport on yet.	Have not added Westport on ye.	73817222	1473848522113	1473848522176	 	32
142707	1552850	Have not added Westport on yet.	Have not added Westport on ye.	73817223	1473848522241	1473848522321	a	65
142707	1552850	Have not added Westport on yet.	Have not added Westport on ye.	73817241	1473848522433	1473848522489	d	68
142707	1552850	Have not added Westport on yet.	Have not added Westport on ye.	73817243	1473848522544	1473848522600	d	68
142707	1552850	Have not added Westport on yet.	Have not added Westport on ye.	73817245	1473848522697	1473848522776	e	69
142707	1552850	Have not added Westport on yet.	Have not added Westport on ye.	73817247	1473848522809	1473848522889	d	68
142707	1552850	Have not added Westport on yet.	Have not added Westport on ye.	73817250	1473848522921	1473848522984	 	32
142707	1552850	Have not added Westport on yet.	Have not added Westport on ye.	73817292	1473848523217	1473848523320	CAPS_LOCK	20
142707	1552850	Have not added Westport on yet.	Have not added Westport on ye.	73817295	1473848523360	1473848523448	W	87
142707	1552850	Have not added Westport on yet.	Have not added Westport on ye.	73817298	1473848523419	1473848523488	CAPS_LOCK	20
142707	1552850	Have not added Westport on yet.	Have not added Westport on ye.	73817302	1473848523633	1473848523712	e	69
142707	1552850	Have not added Westport on yet.	Have not added Westport on ye.	73817308	1473848523792	1473848523865	s	83
142707	1552850	Have not added Westport on yet.	Have not added Westport on ye.	73817313	1473848523896	1473848523960	t	84
142707	1552850	Have not added Westport on yet.	Have not added Westport on ye.	73817317	1473848524384	1473848524432	p	80
142707	1552850	Have not added Westport on yet.	Have not added Westport on ye.	73817325	1473848524505	1473848524560	o	79
142707	1552850	Have not added Westport on yet.	Have not added Westport on ye.	73817327	1473848524577	1473848524640	r	82
142707	1552850	Have not added Westport on yet.	Have not added Westport on ye.	73817329	1473848524705	1473848524777	t	84
142707	1552850	Have not added Westport on yet.	Have not added Westport on ye.	73817331	1473848524777	1473848524840	 	32
142707	1552850	Have not added Westport on yet.	Have not added Westport on ye.	73817334	1473848524921	1473848524992	o	79
142707	1552850	Have not added Westport on yet.	Have not added Westport on ye.	73817346	1473848525049	1473848525121	n	78
142707	1552850	Have not added Westport on yet.	Have not added Westport on ye.	73817347	1473848525185	1473848525257	 	32
142707	1552850	Have not added Westport on yet.	Have not added Westport on ye.	73817348	1473848525337	1473848525408	y	89
142707	1552850	Have not added Westport on yet.	Have not added Westport on ye.	73817349	1473848525408	1473848525480	e	69
142707	1552850	Have not added Westport on yet.	Have not added Westport on ye.	73817350	1473848525569	1473848525624	.	190
142707	1552857	A bad thing has been turned into a good thing and.	A bad thing has been turned into a good thing and.	73817443	1473848526721	1473848526802	CAPS_LOCK	20
142707	1552857	A bad thing has been turned into a good thing and.	A bad thing has been turned into a good thing and.	73817445	1473848526880	1473848526944	CAPS_LOCK	20
142707	1552857	A bad thing has been turned into a good thing and.	A bad thing has been turned into a good thing and.	73817447	1473848527209	1473848527336	CAPS_LOCK	20
142707	1552857	A bad thing has been turned into a good thing and.	A bad thing has been turned into a good thing and.	73817448	1473848527433	1473848527472	S	65
142707	1552857	A bad thing has been turned into a good thing and.	A bad thing has been turned into a good thing and.	73817449	1473848527921	1473848527984	BKSP	8
142707	1552857	A bad thing has been turned into a good thing and.	A bad thing has been turned into a good thing and.	73817450	1473848528065	1473848528208	CAPS_LOCK	20
142707	1552857	A bad thing has been turned into a good thing and.	A bad thing has been turned into a good thing and.	73817453	1473848528249	1473848528312	 	32
142707	1552857	A bad thing has been turned into a good thing and.	A bad thing has been turned into a good thing and.	73817455	1473848528408	1473848528472	b	66
142707	1552857	A bad thing has been turned into a good thing and.	A bad thing has been turned into a good thing and.	73817465	1473848528450	1473848528521	a	65
142707	1552857	A bad thing has been turned into a good thing and.	A bad thing has been turned into a good thing and.	73817467	1473848528617	1473848528696	d	68
142707	1552857	A bad thing has been turned into a good thing and.	A bad thing has been turned into a good thing and.	73817469	1473848528697	1473848528768	 	32
142707	1552857	A bad thing has been turned into a good thing and.	A bad thing has been turned into a good thing and.	73817473	1473848528849	1473848528905	t	84
142707	1552857	A bad thing has been turned into a good thing and.	A bad thing has been turned into a good thing and.	73817476	1473848528905	1473848528953	h	72
142707	1552857	A bad thing has been turned into a good thing and.	A bad thing has been turned into a good thing and.	73817478	1473848529025	1473848529088	i	73
142707	1552857	A bad thing has been turned into a good thing and.	A bad thing has been turned into a good thing and.	73817489	1473848529161	1473848529240	n	78
142707	1552857	A bad thing has been turned into a good thing and.	A bad thing has been turned into a good thing and.	73817491	1473848529209	1473848529281	g	71
142707	1552857	A bad thing has been turned into a good thing and.	A bad thing has been turned into a good thing and.	73817493	1473848529361	1473848529432	 	32
142707	1552857	A bad thing has been turned into a good thing and.	A bad thing has been turned into a good thing and.	73817496	1473848529569	1473848529632	h	72
142707	1552857	A bad thing has been turned into a good thing and.	A bad thing has been turned into a good thing and.	73817499	1473848529648	1473848529697	a	65
142707	1552857	A bad thing has been turned into a good thing and.	A bad thing has been turned into a good thing and.	73817512	1473848529792	1473848529888	s	83
142707	1552857	A bad thing has been turned into a good thing and.	A bad thing has been turned into a good thing and.	73817514	1473848529873	1473848529928	 	32
142707	1552857	A bad thing has been turned into a good thing and.	A bad thing has been turned into a good thing and.	73817516	1473848530017	1473848530105	b	66
142707	1552857	A bad thing has been turned into a good thing and.	A bad thing has been turned into a good thing and.	73817518	1473848530073	1473848530136	e	69
142707	1552857	A bad thing has been turned into a good thing and.	A bad thing has been turned into a good thing and.	73817522	1473848530201	1473848530289	e	69
142707	1552857	A bad thing has been turned into a good thing and.	A bad thing has been turned into a good thing and.	73817547	1473848530291	1473848530352	n	78
142707	1552857	A bad thing has been turned into a good thing and.	A bad thing has been turned into a good thing and.	73817548	1473848530433	1473848530496	 	32
142707	1552857	A bad thing has been turned into a good thing and.	A bad thing has been turned into a good thing and.	73817550	1473848530513	1473848530608	t	84
142707	1552857	A bad thing has been turned into a good thing and.	A bad thing has been turned into a good thing and.	73817553	1473848530665	1473848530729	u	85
142707	1552857	A bad thing has been turned into a good thing and.	A bad thing has been turned into a good thing and.	73817556	1473848530769	1473848530848	r	82
142707	1552857	A bad thing has been turned into a good thing and.	A bad thing has been turned into a good thing and.	73817570	1473848530897	1473848530984	n	78
142707	1552857	A bad thing has been turned into a good thing and.	A bad thing has been turned into a good thing and.	73817572	1473848530985	1473848531073	e	69
142707	1552857	A bad thing has been turned into a good thing and.	A bad thing has been turned into a good thing and.	73817573	1473848531137	1473848531209	d	68
142707	1552857	A bad thing has been turned into a good thing and.	A bad thing has been turned into a good thing and.	73817574	1473848531209	1473848531264	 	32
142707	1552857	A bad thing has been turned into a good thing and.	A bad thing has been turned into a good thing and.	73817575	1473848531505	1473848531568	i	73
142707	1552857	A bad thing has been turned into a good thing and.	A bad thing has been turned into a good thing and.	73817590	1473848531640	1473848531728	n	78
142707	1552857	A bad thing has been turned into a good thing and.	A bad thing has been turned into a good thing and.	73817593	1473848531729	1473848531792	t	84
142707	1552857	A bad thing has been turned into a good thing and.	A bad thing has been turned into a good thing and.	73817596	1473848531817	1473848531880	o	79
142707	1552857	A bad thing has been turned into a good thing and.	A bad thing has been turned into a good thing and.	73817599	1473848531985	1473848532056	 	32
142707	1552857	A bad thing has been turned into a good thing and.	A bad thing has been turned into a good thing and.	73817601	1473848532225	1473848532312	g	71
142707	1552857	A bad thing has been turned into a good thing and.	A bad thing has been turned into a good thing and.	73817635	1473848532353	1473848532424	o	79
142707	1552857	A bad thing has been turned into a good thing and.	A bad thing has been turned into a good thing and.	73817639	1473848532705	1473848532769	BKSP	8
142707	1552857	A bad thing has been turned into a good thing and.	A bad thing has been turned into a good thing and.	73817642	1473848532849	1473848532913	BKSP	8
142707	1552857	A bad thing has been turned into a good thing and.	A bad thing has been turned into a good thing and.	73817645	1473848532961	1473848533056	a	65
142707	1552857	A bad thing has been turned into a good thing and.	A bad thing has been turned into a good thing and.	73817648	1473848533113	1473848533176	 	32
142707	1552857	A bad thing has been turned into a good thing and.	A bad thing has been turned into a good thing and.	73817652	1473848533233	1473848533313	g	71
142707	1552857	A bad thing has been turned into a good thing and.	A bad thing has been turned into a good thing and.	73817656	1473848533345	1473848533408	o	79
142707	1552857	A bad thing has been turned into a good thing and.	A bad thing has been turned into a good thing and.	73817690	1473848533481	1473848533545	o	79
142707	1552857	A bad thing has been turned into a good thing and.	A bad thing has been turned into a good thing and.	73817692	1473848533569	1473848533601	f	68
142707	1552857	A bad thing has been turned into a good thing and.	A bad thing has been turned into a good thing and.	73817695	1473848533649	1473848533729	 	32
142707	1552857	A bad thing has been turned into a good thing and.	A bad thing has been turned into a good thing and.	73817698	1473848534265	1473848534329	BKSP	8
142707	1552857	A bad thing has been turned into a good thing and.	A bad thing has been turned into a good thing and.	73817701	1473848534417	1473848534480	BKSP	8
142707	1552857	A bad thing has been turned into a good thing and.	A bad thing has been turned into a good thing and.	73817705	1473848534705	1473848534769	 	32
142707	1552857	A bad thing has been turned into a good thing and.	A bad thing has been turned into a good thing and.	73817716	1473848534817	1473848534896	t	84
142707	1552857	A bad thing has been turned into a good thing and.	A bad thing has been turned into a good thing and.	73817718	1473848534937	1473848535001	h	72
142707	1552857	A bad thing has been turned into a good thing and.	A bad thing has been turned into a good thing and.	73817722	1473848535049	1473848535136	i	73
142707	1552857	A bad thing has been turned into a good thing and.	A bad thing has been turned into a good thing and.	73817726	1473848535201	1473848535288	n	78
142707	1552857	A bad thing has been turned into a good thing and.	A bad thing has been turned into a good thing and.	73817731	1473848535289	1473848535328	g	71
142707	1552857	A bad thing has been turned into a good thing and.	A bad thing has been turned into a good thing and.	73817748	1473848535393	1473848535465	 	32
142707	1552857	A bad thing has been turned into a good thing and.	A bad thing has been turned into a good thing and.	73817750	1473848535529	1473848535601	a	65
142707	1552857	A bad thing has been turned into a good thing and.	A bad thing has been turned into a good thing and.	73817752	1473848535601	1473848535656	n	78
142707	1552857	A bad thing has been turned into a good thing and.	A bad thing has been turned into a good thing and.	73817754	1473848535713	1473848535761	d	68
142707	1552857	A bad thing has been turned into a good thing and.	A bad thing has been turned into a good thing and.	73817756	1473848535809	1473848535872	.	190
142707	1552865	I hadn't done that for a while - too busy, I guess.	I hadn't done that for a while- too busy, I guess.	73817814	1473848536945	1473848537024	CAPS_LOCK	20
142707	1552865	I hadn't done that for a while - too busy, I guess.	I hadn't done that for a while- too busy, I guess.	73817815	1473848537025	1473848537113	I	73
142707	1552865	I hadn't done that for a while - too busy, I guess.	I hadn't done that for a while- too busy, I guess.	73817816	1473848537114	1473848537193	CAPS_LOCK	20
142707	1552865	I hadn't done that for a while - too busy, I guess.	I hadn't done that for a while- too busy, I guess.	73817818	1473848537208	1473848537272	 	32
142707	1552865	I hadn't done that for a while - too busy, I guess.	I hadn't done that for a while- too busy, I guess.	73817822	1473848537352	1473848537408	h	72
142707	1552865	I hadn't done that for a while - too busy, I guess.	I hadn't done that for a while- too busy, I guess.	73817825	1473848537432	1473848537496	a	65
142707	1552865	I hadn't done that for a while - too busy, I guess.	I hadn't done that for a while- too busy, I guess.	73817828	1473848537625	1473848537664	d	68
142707	1552865	I hadn't done that for a while - too busy, I guess.	I hadn't done that for a while- too busy, I guess.	73817904	1473848537809	1473848537872	n	78
142707	1552865	I hadn't done that for a while - too busy, I guess.	I hadn't done that for a while- too busy, I guess.	73817905	1473848538217	1473848538288	'	191
142707	1552865	I hadn't done that for a while - too busy, I guess.	I hadn't done that for a while- too busy, I guess.	73817908	1473848538313	1473848538393	t	84
142707	1552865	I hadn't done that for a while - too busy, I guess.	I hadn't done that for a while- too busy, I guess.	73817911	1473848538465	1473848538520	 	32
142707	1552865	I hadn't done that for a while - too busy, I guess.	I hadn't done that for a while- too busy, I guess.	73817914	1473848539449	1473848539496	h	72
142707	1552865	I hadn't done that for a while - too busy, I guess.	I hadn't done that for a while- too busy, I guess.	73817955	1473848539705	1473848539769	BKSP	8
142707	1552865	I hadn't done that for a while - too busy, I guess.	I hadn't done that for a while- too busy, I guess.	73817957	1473848539832	1473848539896	d	68
142707	1552865	I hadn't done that for a while - too busy, I guess.	I hadn't done that for a while- too busy, I guess.	73817960	1473848539937	1473848539993	o	79
142707	1552865	I hadn't done that for a while - too busy, I guess.	I hadn't done that for a while- too busy, I guess.	73817964	1473848540305	1473848540377	n	78
142707	1552865	I hadn't done that for a while - too busy, I guess.	I hadn't done that for a while- too busy, I guess.	73817970	1473848540393	1473848540496	e	69
142707	1552865	I hadn't done that for a while - too busy, I guess.	I hadn't done that for a while- too busy, I guess.	73817973	1473848540496	1473848540561	 	32
142707	1552865	I hadn't done that for a while - too busy, I guess.	I hadn't done that for a while- too busy, I guess.	73817992	1473848540601	1473848540649	t	84
142707	1552865	I hadn't done that for a while - too busy, I guess.	I hadn't done that for a while- too busy, I guess.	73817997	1473848540681	1473848540752	h	72
142707	1552865	I hadn't done that for a while - too busy, I guess.	I hadn't done that for a while- too busy, I guess.	73818003	1473848540809	1473848540872	a	65
142707	1552865	I hadn't done that for a while - too busy, I guess.	I hadn't done that for a while- too busy, I guess.	73818008	1473848540889	1473848540952	t	84
142707	1552865	I hadn't done that for a while - too busy, I guess.	I hadn't done that for a while- too busy, I guess.	73818012	1473848541057	1473848541112	 	32
142707	1552865	I hadn't done that for a while - too busy, I guess.	I hadn't done that for a while- too busy, I guess.	73818028	1473848541145	1473848541264	f	70
142707	1552865	I hadn't done that for a while - too busy, I guess.	I hadn't done that for a while- too busy, I guess.	73818030	1473848541225	1473848541288	o	79
142707	1552865	I hadn't done that for a while - too busy, I guess.	I hadn't done that for a while- too busy, I guess.	73818035	1473848541329	1473848541433	r	82
142707	1552865	I hadn't done that for a while - too busy, I guess.	I hadn't done that for a while- too busy, I guess.	73818038	1473848541449	1473848541520	 	32
142707	1552865	I hadn't done that for a while - too busy, I guess.	I hadn't done that for a while- too busy, I guess.	73818041	1473848541609	1473848541680	w	87
142707	1552865	I hadn't done that for a while - too busy, I guess.	I hadn't done that for a while- too busy, I guess.	73818074	1473848542161	1473848542224	BKSP	8
142707	1552865	I hadn't done that for a while - too busy, I guess.	I hadn't done that for a while- too busy, I guess.	73818076	1473848542297	1473848542400	a	65
142707	1552865	I hadn't done that for a while - too busy, I guess.	I hadn't done that for a while- too busy, I guess.	73818079	1473848542425	1473848542489	 	32
142707	1552865	I hadn't done that for a while - too busy, I guess.	I hadn't done that for a while- too busy, I guess.	73818082	1473848542521	1473848542616	w	87
142707	1552865	I hadn't done that for a while - too busy, I guess.	I hadn't done that for a while- too busy, I guess.	73818085	1473848542617	1473848542680	h	72
142707	1552865	I hadn't done that for a while - too busy, I guess.	I hadn't done that for a while- too busy, I guess.	73818088	1473848542753	1473848542825	i	73
142707	1552865	I hadn't done that for a while - too busy, I guess.	I hadn't done that for a while- too busy, I guess.	73818130	1473848542945	1473848543017	l	76
142707	1552865	I hadn't done that for a while - too busy, I guess.	I hadn't done that for a while- too busy, I guess.	73818132	1473848543081	1473848543136	e	69
142707	1552865	I hadn't done that for a while - too busy, I guess.	I hadn't done that for a while- too busy, I guess.	73818134	1473848543521	1473848543576	-	189
142707	1552865	I hadn't done that for a while - too busy, I guess.	I hadn't done that for a while- too busy, I guess.	73818135	1473848543777	1473848543841	 	32
142707	1552865	I hadn't done that for a while - too busy, I guess.	I hadn't done that for a while- too busy, I guess.	73818136	1473848543937	1473848544024	CAPS_LOCK	20
142707	1552865	I hadn't done that for a while - too busy, I guess.	I hadn't done that for a while- too busy, I guess.	73818137	1473848544025	1473848544088	T	84
142707	1552865	I hadn't done that for a while - too busy, I guess.	I hadn't done that for a while- too busy, I guess.	73818208	1473848544120	1473848544194	CAPS_LOCK	20
142707	1552865	I hadn't done that for a while - too busy, I guess.	I hadn't done that for a while- too busy, I guess.	73818211	1473848544248	1473848544296	o	79
142707	1552865	I hadn't done that for a while - too busy, I guess.	I hadn't done that for a while- too busy, I guess.	73818215	1473848544601	1473848544672	BKSP	8
142707	1552865	I hadn't done that for a while - too busy, I guess.	I hadn't done that for a while- too busy, I guess.	73818218	1473848544753	1473848544825	BKSP	8
142707	1552865	I hadn't done that for a while - too busy, I guess.	I hadn't done that for a while- too busy, I guess.	73818220	1473848544945	1473848545024	y	89
142707	1552865	I hadn't done that for a while - too busy, I guess.	I hadn't done that for a while- too busy, I guess.	73818222	1473848545065	1473848545112	o	79
142707	1552865	I hadn't done that for a while - too busy, I guess.	I hadn't done that for a while- too busy, I guess.	73818224	1473848545193	1473848545265	o	79
142707	1552865	I hadn't done that for a while - too busy, I guess.	I hadn't done that for a while- too busy, I guess.	73818225	1473848545585	1473848545696	BKSP	8
142707	1552865	I hadn't done that for a while - too busy, I guess.	I hadn't done that for a while- too busy, I guess.	73818226	1473848545737	1473848545800	BKSP	8
142707	1552865	I hadn't done that for a while - too busy, I guess.	I hadn't done that for a while- too busy, I guess.	73818227	1473848545881	1473848545953	BKSP	8
142707	1552865	I hadn't done that for a while - too busy, I guess.	I hadn't done that for a while- too busy, I guess.	73818228	1473848546041	1473848546120	t	84
142707	1552865	I hadn't done that for a while - too busy, I guess.	I hadn't done that for a while- too busy, I guess.	73818241	1473848546217	1473848546281	o	79
142707	1552865	I hadn't done that for a while - too busy, I guess.	I hadn't done that for a while- too busy, I guess.	73818243	1473848546353	1473848546425	o	79
142707	1552865	I hadn't done that for a while - too busy, I guess.	I hadn't done that for a while- too busy, I guess.	73818246	1473848546553	1473848546625	 	32
142707	1552865	I hadn't done that for a while - too busy, I guess.	I hadn't done that for a while- too busy, I guess.	73818248	1473848546793	1473848546865	b	66
142707	1552865	I hadn't done that for a while - too busy, I guess.	I hadn't done that for a while- too busy, I guess.	73818249	1473848546945	1473848547017	u	85
142707	1552865	I hadn't done that for a while - too busy, I guess.	I hadn't done that for a while- too busy, I guess.	73818270	1473848547020	1473848547112	s	83
142707	1552865	I hadn't done that for a while - too busy, I guess.	I hadn't done that for a while- too busy, I guess.	73818273	1473848547113	1473848547168	y	89
142707	1552865	I hadn't done that for a while - too busy, I guess.	I hadn't done that for a while- too busy, I guess.	73818276	1473848547409	1473848547473	,	188
142707	1552865	I hadn't done that for a while - too busy, I guess.	I hadn't done that for a while- too busy, I guess.	73818279	1473848547785	1473848547841	 	32
142707	1552865	I hadn't done that for a while - too busy, I guess.	I hadn't done that for a while- too busy, I guess.	73818284	1473848548185	1473848548224	i	73
142707	1552865	I hadn't done that for a while - too busy, I guess.	I hadn't done that for a while- too busy, I guess.	73818328	1473848548641	1473848548696	BKSP	8
142707	1552865	I hadn't done that for a while - too busy, I guess.	I hadn't done that for a while- too busy, I guess.	73818330	1473848548729	1473848548832	CAPS_LOCK	20
142707	1552865	I hadn't done that for a while - too busy, I guess.	I hadn't done that for a while- too busy, I guess.	73818334	1473848548857	1473848548920	I	73
142707	1552865	I hadn't done that for a while - too busy, I guess.	I hadn't done that for a while- too busy, I guess.	73818338	1473848548921	1473848548994	CAPS_LOCK	20
142707	1552865	I hadn't done that for a while - too busy, I guess.	I hadn't done that for a while- too busy, I guess.	73818340	1473848549032	1473848549104	 	32
142707	1552865	I hadn't done that for a while - too busy, I guess.	I hadn't done that for a while- too busy, I guess.	73818342	1473848549224	1473848549288	g	71
142707	1552865	I hadn't done that for a while - too busy, I guess.	I hadn't done that for a while- too busy, I guess.	73818346	1473848549344	1473848549400	y	89
142707	1552865	I hadn't done that for a while - too busy, I guess.	I hadn't done that for a while- too busy, I guess.	73818349	1473848549425	1473848549489	e	69
142707	1552865	I hadn't done that for a while - too busy, I guess.	I hadn't done that for a while- too busy, I guess.	73818408	1473848549585	1473848549648	s	83
142707	1552865	I hadn't done that for a while - too busy, I guess.	I hadn't done that for a while- too busy, I guess.	73818413	1473848549801	1473848549856	BKSP	8
142707	1552865	I hadn't done that for a while - too busy, I guess.	I hadn't done that for a while- too busy, I guess.	73818419	1473848549961	1473848550016	BKSP	8
142707	1552865	I hadn't done that for a while - too busy, I guess.	I hadn't done that for a while- too busy, I guess.	73818423	1473848550105	1473848550176	BKSP	8
142707	1552865	I hadn't done that for a while - too busy, I guess.	I hadn't done that for a while- too busy, I guess.	73818429	1473848550176	1473848550224	e	69
142707	1552865	I hadn't done that for a while - too busy, I guess.	I hadn't done that for a while- too busy, I guess.	73818434	1473848550369	1473848550425	u	85
142707	1552865	I hadn't done that for a while - too busy, I guess.	I hadn't done that for a while- too busy, I guess.	73818442	1473848550977	1473848551040	BKSP	8
142707	1552865	I hadn't done that for a while - too busy, I guess.	I hadn't done that for a while- too busy, I guess.	73818447	1473848551137	1473848551208	BKSP	8
142707	1552865	I hadn't done that for a while - too busy, I guess.	I hadn't done that for a while- too busy, I guess.	73818450	1473848551360	1473848551433	u	85
142707	1552865	I hadn't done that for a while - too busy, I guess.	I hadn't done that for a while- too busy, I guess.	73818453	1473848551473	1473848551585	e	69
142707	1552865	I hadn't done that for a while - too busy, I guess.	I hadn't done that for a while- too busy, I guess.	73818465	1473848551721	1473848551817	s	83
142707	1552865	I hadn't done that for a while - too busy, I guess.	I hadn't done that for a while- too busy, I guess.	73818466	1473848551873	1473848551945	s	83
142707	1552865	I hadn't done that for a while - too busy, I guess.	I hadn't done that for a while- too busy, I guess.	73818468	1473848551945	1473848552017	.	190
142707	1552879	He is listed as probable for this week's game.	He is listed as probable for this week's game.	73818560	1473848553489	1473848553545	CAPS_LOCK	20
142707	1552879	He is listed as probable for this week's game.	He is listed as probable for this week's game.	73818562	1473848553610	1473848553664	H	72
142707	1552879	He is listed as probable for this week's game.	He is listed as probable for this week's game.	73818564	1473848553633	1473848553705	CAPS_LOCK	20
142707	1552879	He is listed as probable for this week's game.	He is listed as probable for this week's game.	73818566	1473848553832	1473848553915	e	69
142707	1552879	He is listed as probable for this week's game.	He is listed as probable for this week's game.	73818570	1473848554305	1473848554369	 	32
142707	1552879	He is listed as probable for this week's game.	He is listed as probable for this week's game.	73818573	1473848554489	1473848554544	i	73
142707	1552879	He is listed as probable for this week's game.	He is listed as probable for this week's game.	73818577	1473848554602	1473848554696	s	83
142707	1552879	He is listed as probable for this week's game.	He is listed as probable for this week's game.	73818601	1473848554745	1473848554817	 	32
142707	1552879	He is listed as probable for this week's game.	He is listed as probable for this week's game.	73818605	1473848554993	1473848555072	l	76
142707	1552879	He is listed as probable for this week's game.	He is listed as probable for this week's game.	73818611	1473848555177	1473848555240	i	73
142707	1552879	He is listed as probable for this week's game.	He is listed as probable for this week's game.	73818617	1473848555257	1473848555352	s	83
142707	1552879	He is listed as probable for this week's game.	He is listed as probable for this week's game.	73818623	1473848555393	1473848555464	t	84
142707	1552879	He is listed as probable for this week's game.	He is listed as probable for this week's game.	73818648	1473848555481	1473848555561	e	69
142707	1552879	He is listed as probable for this week's game.	He is listed as probable for this week's game.	73818650	1473848555657	1473848555721	d	68
142707	1552879	He is listed as probable for this week's game.	He is listed as probable for this week's game.	73818652	1473848555761	1473848555832	 	32
142707	1552879	He is listed as probable for this week's game.	He is listed as probable for this week's game.	73818654	1473848556041	1473848556096	a	65
142707	1552879	He is listed as probable for this week's game.	He is listed as probable for this week's game.	73818656	1473848556193	1473848556264	s	83
142707	1552879	He is listed as probable for this week's game.	He is listed as probable for this week's game.	73818688	1473848556281	1473848556353	 	32
142707	1552879	He is listed as probable for this week's game.	He is listed as probable for this week's game.	73818689	1473848556521	1473848556592	p	80
142707	1552879	He is listed as probable for this week's game.	He is listed as probable for this week's game.	73818690	1473848556609	1473848556673	r	82
142707	1552879	He is listed as probable for this week's game.	He is listed as probable for this week's game.	73818691	1473848556737	1473848556776	o	79
142707	1552879	He is listed as probable for this week's game.	He is listed as probable for this week's game.	73818692	1473848557273	1473848557337	b	66
142707	1552879	He is listed as probable for this week's game.	He is listed as probable for this week's game.	73818729	1473848557633	1473848557688	a	65
142707	1552879	He is listed as probable for this week's game.	He is listed as probable for this week's game.	73818730	1473848557961	1473848558025	b	66
142707	1552879	He is listed as probable for this week's game.	He is listed as probable for this week's game.	73818731	1473848558265	1473848558329	l	76
142707	1552879	He is listed as probable for this week's game.	He is listed as probable for this week's game.	73818732	1473848558425	1473848558504	e	69
142707	1552879	He is listed as probable for this week's game.	He is listed as probable for this week's game.	73818733	1473848558584	1473848558656	 	32
142707	1552879	He is listed as probable for this week's game.	He is listed as probable for this week's game.	73818739	1473848558897	1473848559001	f	70
142707	1552879	He is listed as probable for this week's game.	He is listed as probable for this week's game.	73818742	1473848559041	1473848559113	o	79
142707	1552879	He is listed as probable for this week's game.	He is listed as probable for this week's game.	73818745	1473848559113	1473848559177	r	82
142707	1552879	He is listed as probable for this week's game.	He is listed as probable for this week's game.	73818748	1473848559225	1473848559288	 	32
142707	1552879	He is listed as probable for this week's game.	He is listed as probable for this week's game.	73818751	1473848559321	1473848559377	t	84
142707	1552879	He is listed as probable for this week's game.	He is listed as probable for this week's game.	73818781	1473848559432	1473848559489	h	72
142707	1552879	He is listed as probable for this week's game.	He is listed as probable for this week's game.	73818785	1473848559569	1473848559633	i	73
142707	1552879	He is listed as probable for this week's game.	He is listed as probable for this week's game.	73818788	1473848559657	1473848559760	s	83
142707	1552879	He is listed as probable for this week's game.	He is listed as probable for this week's game.	73818791	1473848559761	1473848559840	 	32
142707	1552879	He is listed as probable for this week's game.	He is listed as probable for this week's game.	73818793	1473848559897	1473848559993	w	87
142707	1552879	He is listed as probable for this week's game.	He is listed as probable for this week's game.	73818826	1473848560089	1473848560128	e	69
142707	1552879	He is listed as probable for this week's game.	He is listed as probable for this week's game.	73818830	1473848560192	1473848560281	e	69
142707	1552879	He is listed as probable for this week's game.	He is listed as probable for this week's game.	73818833	1473848560297	1473848560361	k	75
142707	1552879	He is listed as probable for this week's game.	He is listed as probable for this week's game.	73818835	1473848560777	1473848560848	'	191
142707	1552879	He is listed as probable for this week's game.	He is listed as probable for this week's game.	73818838	1473848560865	1473848560928	s	83
142707	1552879	He is listed as probable for this week's game.	He is listed as probable for this week's game.	73818894	1473848561073	1473848561145	 	32
142707	1552879	He is listed as probable for this week's game.	He is listed as probable for this week's game.	73818896	1473848561393	1473848561456	g	71
142707	1552879	He is listed as probable for this week's game.	He is listed as probable for this week's game.	73818898	1473848561489	1473848561561	a	65
142707	1552879	He is listed as probable for this week's game.	He is listed as probable for this week's game.	73818902	1473848561641	1473848561672	n	78
142707	1552879	He is listed as probable for this week's game.	He is listed as probable for this week's game.	73818905	1473848562497	1473848562552	BKSP	8
142707	1552879	He is listed as probable for this week's game.	He is listed as probable for this week's game.	73818911	1473848562713	1473848562777	m	77
142707	1552879	He is listed as probable for this week's game.	He is listed as probable for this week's game.	73818937	1473848563081	1473848563177	e	69
142707	1552879	He is listed as probable for this week's game.	He is listed as probable for this week's game.	73818939	1473848563761	1473848563816	.	190
142707	1552886	I will need to have my memory refreshed.	I will need to have memory refreshed.	73819061	1473848565081	1473848565177	CAPS_LOCK	20
142707	1552886	I will need to have my memory refreshed.	I will need to have memory refreshed.	73819065	1473848565192	1473848565256	i	73
142707	1552886	I will need to have my memory refreshed.	I will need to have memory refreshed.	73819071	1473848565313	1473848565370	CAPS_LOCK	20
142707	1552886	I will need to have my memory refreshed.	I will need to have memory refreshed.	73819077	1473848566065	1473848566129	BKSP	8
142707	1552886	I will need to have my memory refreshed.	I will need to have memory refreshed.	73819081	1473848567041	1473848567104	I	73
142707	1552886	I will need to have my memory refreshed.	I will need to have memory refreshed.	73819085	1473848567393	1473848567528	CAPS_LOCK	20
142707	1552886	I will need to have my memory refreshed.	I will need to have memory refreshed.	73819090	1473848567571	1473848567640	 	32
142707	1552886	I will need to have my memory refreshed.	I will need to have memory refreshed.	73819095	1473848567680	1473848567760	w	87
142707	1552886	I will need to have my memory refreshed.	I will need to have memory refreshed.	73819101	1473848567808	1473848567880	i	73
142707	1552886	I will need to have my memory refreshed.	I will need to have memory refreshed.	73819117	1473848567993	1473848568056	l	76
142707	1552886	I will need to have my memory refreshed.	I will need to have memory refreshed.	73819119	1473848568113	1473848568176	l	76
142707	1552886	I will need to have my memory refreshed.	I will need to have memory refreshed.	73819120	1473848568313	1473848568376	 	32
142707	1552886	I will need to have my memory refreshed.	I will need to have memory refreshed.	73819121	1473848568504	1473848568561	n	78
142707	1552886	I will need to have my memory refreshed.	I will need to have memory refreshed.	73819122	1473848568593	1473848568664	e	69
142707	1552886	I will need to have my memory refreshed.	I will need to have memory refreshed.	73819123	1473848568737	1473848568824	e	69
142707	1552886	I will need to have my memory refreshed.	I will need to have memory refreshed.	73819124	1473848568905	1473848568960	d	68
142707	1552886	I will need to have my memory refreshed.	I will need to have memory refreshed.	73819126	1473848568993	1473848569049	 	32
142707	1552886	I will need to have my memory refreshed.	I will need to have memory refreshed.	73819128	1473848569097	1473848569161	t	84
142707	1552886	I will need to have my memory refreshed.	I will need to have memory refreshed.	73819130	1473848569185	1473848569257	o	79
142707	1552886	I will need to have my memory refreshed.	I will need to have memory refreshed.	73819140	1473848569361	1473848569425	 	32
142707	1552886	I will need to have my memory refreshed.	I will need to have memory refreshed.	73819142	1473848569505	1473848569576	h	72
142707	1552886	I will need to have my memory refreshed.	I will need to have memory refreshed.	73819145	1473848569577	1473848569657	a	65
142707	1552886	I will need to have my memory refreshed.	I will need to have memory refreshed.	73819150	1473848569673	1473848569737	v	86
142707	1552886	I will need to have my memory refreshed.	I will need to have memory refreshed.	73819153	1473848569777	1473848569856	e	69
142707	1552886	I will need to have my memory refreshed.	I will need to have memory refreshed.	73819167	1473848569840	1473848569913	 	32
142707	1552886	I will need to have my memory refreshed.	I will need to have memory refreshed.	73819170	1473848570025	1473848570096	m	77
142707	1552886	I will need to have my memory refreshed.	I will need to have memory refreshed.	73819174	1473848570097	1473848570200	e	69
142707	1552886	I will need to have my memory refreshed.	I will need to have memory refreshed.	73819179	1473848570200	1473848570273	m	77
142707	1552886	I will need to have my memory refreshed.	I will need to have memory refreshed.	73819182	1473848570345	1473848570417	o	79
142707	1552886	I will need to have my memory refreshed.	I will need to have memory refreshed.	73819185	1473848570417	1473848570472	r	82
142707	1552886	I will need to have my memory refreshed.	I will need to have memory refreshed.	73819301	1473848570537	1473848570601	y	89
142707	1552886	I will need to have my memory refreshed.	I will need to have memory refreshed.	73819302	1473848571201	1473848571265	 	32
142707	1552886	I will need to have my memory refreshed.	I will need to have memory refreshed.	73819303	1473848571449	1473848571520	BKSP	8
142707	1552886	I will need to have my memory refreshed.	I will need to have memory refreshed.	73819304	1473848571601	1473848571673	BKSP	8
142707	1552886	I will need to have my memory refreshed.	I will need to have memory refreshed.	73819305	1473848571761	1473848571833	BKSP	8
142707	1552886	I will need to have my memory refreshed.	I will need to have memory refreshed.	73819307	1473848573657	1473848573736	r	82
142707	1552886	I will need to have my memory refreshed.	I will need to have memory refreshed.	73819309	1473848573809	1473848573848	y	89
142707	1552886	I will need to have my memory refreshed.	I will need to have memory refreshed.	73819311	1473848574617	1473848574689	 	32
142707	1552886	I will need to have my memory refreshed.	I will need to have memory refreshed.	73819343	1473848574961	1473848575056	r	82
142707	1552886	I will need to have my memory refreshed.	I will need to have memory refreshed.	73819348	1473848575161	1473848575257	e	69
142707	1552886	I will need to have my memory refreshed.	I will need to have memory refreshed.	73819353	1473848575361	1473848575448	f	70
142707	1552886	I will need to have my memory refreshed.	I will need to have memory refreshed.	73819357	1473848575609	1473848575681	r	82
142707	1552886	I will need to have my memory refreshed.	I will need to have memory refreshed.	73819360	1473848575985	1473848576113	e	69
142707	1552886	I will need to have my memory refreshed.	I will need to have memory refreshed.	73819380	1473848576265	1473848576385	s	83
142707	1552886	I will need to have my memory refreshed.	I will need to have memory refreshed.	73819381	1473848576921	1473848577001	h	72
142707	1552886	I will need to have my memory refreshed.	I will need to have memory refreshed.	73819382	1473848577001	1473848577080	e	69
142707	1552886	I will need to have my memory refreshed.	I will need to have memory refreshed.	73819383	1473848577153	1473848577224	d	68
142707	1552886	I will need to have my memory refreshed.	I will need to have memory refreshed.	73819384	1473848577553	1473848577617	.	190
142707	1552893	Did you see Laura's message.?	Did you see Laura's message?	73819435	1473848578777	1473848578888	CAPS_LOCK	20
142707	1552893	Did you see Laura's message.?	Did you see Laura's message?	73819438	1473848578889	1473848578928	D	68
142707	1552893	Did you see Laura's message.?	Did you see Laura's message?	73819441	1473848578969	1473848579033	CAPS_LOCK	20
142707	1552893	Did you see Laura's message.?	Did you see Laura's message?	73819445	1473848579104	1473848579177	i	73
142707	1552893	Did you see Laura's message.?	Did you see Laura's message?	73819451	1473848579208	1473848579265	d	68
142707	1552893	Did you see Laura's message.?	Did you see Laura's message?	73819459	1473848579328	1473848579392	 	32
142707	1552893	Did you see Laura's message.?	Did you see Laura's message?	73819463	1473848579497	1473848579560	y	89
142707	1552893	Did you see Laura's message.?	Did you see Laura's message?	73819476	1473848579564	1473848579632	o	79
142707	1552893	Did you see Laura's message.?	Did you see Laura's message?	73819477	1473848579729	1473848579801	u	85
142707	1552893	Did you see Laura's message.?	Did you see Laura's message?	73819478	1473848579897	1473848579976	 	32
142707	1552893	Did you see Laura's message.?	Did you see Laura's message?	73819479	1473848579977	1473848580065	s	83
142707	1552893	Did you see Laura's message.?	Did you see Laura's message?	73819480	1473848580153	1473848580208	e	69
142707	1552893	Did you see Laura's message.?	Did you see Laura's message?	73819502	1473848580257	1473848580360	e	69
142707	1552893	Did you see Laura's message.?	Did you see Laura's message?	73819503	1473848580336	1473848580400	 	32
142707	1552893	Did you see Laura's message.?	Did you see Laura's message?	73819504	1473848580673	1473848580784	CAPS_LOCK	20
142707	1552893	Did you see Laura's message.?	Did you see Laura's message?	73819506	1473848580817	1473848580888	L	76
142707	1552893	Did you see Laura's message.?	Did you see Laura's message?	73819508	1473848580888	1473848580952	CAPS_LOCK	20
142707	1552893	Did you see Laura's message.?	Did you see Laura's message?	73819510	1473848581056	1473848581129	a	65
142707	1552893	Did you see Laura's message.?	Did you see Laura's message?	73819512	1473848581200	1473848581302	u	85
142707	1552893	Did you see Laura's message.?	Did you see Laura's message?	73819537	1473848581593	1473848581673	r	82
142707	1552893	Did you see Laura's message.?	Did you see Laura's message?	73819538	1473848581826	1473848581904	a	65
142707	1552893	Did you see Laura's message.?	Did you see Laura's message?	73819539	1473848582409	1473848582464	'	191
142707	1552893	Did you see Laura's message.?	Did you see Laura's message?	73819540	1473848582465	1473848582560	s	83
142707	1552893	Did you see Laura's message.?	Did you see Laura's message?	73819541	1473848582609	1473848582657	 	32
142707	1552893	Did you see Laura's message.?	Did you see Laura's message?	73819555	1473848582753	1473848582817	m	77
142707	1552893	Did you see Laura's message.?	Did you see Laura's message?	73819560	1473848582817	1473848582896	e	69
142707	1552893	Did you see Laura's message.?	Did you see Laura's message?	73819565	1473848582977	1473848583033	s	83
142707	1552893	Did you see Laura's message.?	Did you see Laura's message?	73819569	1473848583097	1473848583169	s	83
142707	1552893	Did you see Laura's message.?	Did you see Laura's message?	73819571	1473848583257	1473848583337	a	65
142707	1552893	Did you see Laura's message.?	Did you see Laura's message?	73819596	1473848583361	1473848583424	g	71
142707	1552893	Did you see Laura's message.?	Did you see Laura's message?	73819598	1473848583449	1473848583488	e	69
142707	1552893	Did you see Laura's message.?	Did you see Laura's message?	73819600	1473848583785	1473848583841	?	187
142707	1552899	Chase back office and their restart plan updates individually.	Chase back office and their restart plan updates individually.	73819649	1473848585305	1473848585416	CAPS_LOCK	20
142707	1552899	Chase back office and their restart plan updates individually.	Chase back office and their restart plan updates individually.	73819651	1473848585520	1473848585568	C	67
142707	1552899	Chase back office and their restart plan updates individually.	Chase back office and their restart plan updates individually.	73819654	1473848585592	1473848585688	CAPS_LOCK	20
142707	1552899	Chase back office and their restart plan updates individually.	Chase back office and their restart plan updates individually.	73819657	1473848585697	1473848585768	h	72
142707	1552899	Chase back office and their restart plan updates individually.	Chase back office and their restart plan updates individually.	73819661	1473848585800	1473848585864	a	65
142707	1552899	Chase back office and their restart plan updates individually.	Chase back office and their restart plan updates individually.	73819664	1473848585984	1473848586072	s	83
142707	1552899	Chase back office and their restart plan updates individually.	Chase back office and their restart plan updates individually.	73819670	1473848586161	1473848586240	e	69
142707	1552899	Chase back office and their restart plan updates individually.	Chase back office and their restart plan updates individually.	73819679	1473848586289	1473848586369	 	32
142707	1552899	Chase back office and their restart plan updates individually.	Chase back office and their restart plan updates individually.	73819680	1473848586729	1473848586793	b	66
142707	1552899	Chase back office and their restart plan updates individually.	Chase back office and their restart plan updates individually.	73819681	1473848586817	1473848586888	a	65
142707	1552899	Chase back office and their restart plan updates individually.	Chase back office and their restart plan updates individually.	73819683	1473848586993	1473848587089	c	67
142707	1552899	Chase back office and their restart plan updates individually.	Chase back office and their restart plan updates individually.	73819699	1473848587033	1473848587120	k	75
142707	1552899	Chase back office and their restart plan updates individually.	Chase back office and their restart plan updates individually.	73819701	1473848587209	1473848587264	 	32
142707	1552899	Chase back office and their restart plan updates individually.	Chase back office and their restart plan updates individually.	73819703	1473848587361	1473848587433	o	79
142707	1552899	Chase back office and their restart plan updates individually.	Chase back office and their restart plan updates individually.	73819705	1473848587433	1473848587496	f	70
142707	1552899	Chase back office and their restart plan updates individually.	Chase back office and their restart plan updates individually.	73819707	1473848587553	1473848587617	f	70
142707	1552899	Chase back office and their restart plan updates individually.	Chase back office and their restart plan updates individually.	73819708	1473848587649	1473848587721	i	73
142707	1552899	Chase back office and their restart plan updates individually.	Chase back office and their restart plan updates individually.	73819735	1473848587745	1473848587872	c	67
142707	1552899	Chase back office and their restart plan updates individually.	Chase back office and their restart plan updates individually.	73819736	1473848587904	1473848588032	e	69
142707	1552899	Chase back office and their restart plan updates individually.	Chase back office and their restart plan updates individually.	73819738	1473848588033	1473848588105	 	32
142707	1552899	Chase back office and their restart plan updates individually.	Chase back office and their restart plan updates individually.	73819740	1473848588409	1473848588489	a	65
142707	1552899	Chase back office and their restart plan updates individually.	Chase back office and their restart plan updates individually.	73819742	1473848588513	1473848588585	n	78
142707	1552899	Chase back office and their restart plan updates individually.	Chase back office and their restart plan updates individually.	73819748	1473848588609	1473848588680	d	68
142707	1552899	Chase back office and their restart plan updates individually.	Chase back office and their restart plan updates individually.	73819751	1473848588697	1473848588760	 	32
142707	1552899	Chase back office and their restart plan updates individually.	Chase back office and their restart plan updates individually.	73819754	1473848588825	1473848588889	t	84
142707	1552899	Chase back office and their restart plan updates individually.	Chase back office and their restart plan updates individually.	73819757	1473848588921	1473848588977	h	72
142707	1552899	Chase back office and their restart plan updates individually.	Chase back office and their restart plan updates individually.	73819760	1473848589049	1473848589144	e	69
142707	1552899	Chase back office and their restart plan updates individually.	Chase back office and their restart plan updates individually.	73819777	1473848589161	1473848589233	i	73
142707	1552899	Chase back office and their restart plan updates individually.	Chase back office and their restart plan updates individually.	73819778	1473848589305	1473848589353	r	82
142707	1552899	Chase back office and their restart plan updates individually.	Chase back office and their restart plan updates individually.	73819779	1473848589729	1473848589809	 	32
142707	1552899	Chase back office and their restart plan updates individually.	Chase back office and their restart plan updates individually.	73819780	1473848589921	1473848590009	r	82
142707	1552899	Chase back office and their restart plan updates individually.	Chase back office and their restart plan updates individually.	73819781	1473848590145	1473848590185	e	87
142707	1552899	Chase back office and their restart plan updates individually.	Chase back office and their restart plan updates individually.	73819816	1473848591025	1473848591096	BKSP	8
142707	1552899	Chase back office and their restart plan updates individually.	Chase back office and their restart plan updates individually.	73819818	1473848591193	1473848591256	BKSP	8
142707	1552899	Chase back office and their restart plan updates individually.	Chase back office and their restart plan updates individually.	73819822	1473848591297	1473848591361	e	69
142707	1552899	Chase back office and their restart plan updates individually.	Chase back office and their restart plan updates individually.	73819825	1473848591505	1473848591609	s	83
142707	1552899	Chase back office and their restart plan updates individually.	Chase back office and their restart plan updates individually.	73819827	1473848591641	1473848591728	t	84
142707	1552899	Chase back office and their restart plan updates individually.	Chase back office and their restart plan updates individually.	73819829	1473848591729	1473848591809	a	65
142707	1552899	Chase back office and their restart plan updates individually.	Chase back office and their restart plan updates individually.	73819831	1473848591945	1473848592025	r	82
142707	1552899	Chase back office and their restart plan updates individually.	Chase back office and their restart plan updates individually.	73819856	1473848592105	1473848592176	t	84
142707	1552899	Chase back office and their restart plan updates individually.	Chase back office and their restart plan updates individually.	73819859	1473848592241	1473848592313	 	32
142707	1552899	Chase back office and their restart plan updates individually.	Chase back office and their restart plan updates individually.	73819861	1473848592457	1473848592520	p	80
142707	1552899	Chase back office and their restart plan updates individually.	Chase back office and their restart plan updates individually.	73819864	1473848592609	1473848592697	l	76
142707	1552899	Chase back office and their restart plan updates individually.	Chase back office and their restart plan updates individually.	73819867	1473848592713	1473848592793	a	65
142707	1552899	Chase back office and their restart plan updates individually.	Chase back office and their restart plan updates individually.	73819906	1473848592849	1473848592912	n	78
142707	1552899	Chase back office and their restart plan updates individually.	Chase back office and their restart plan updates individually.	73819907	1473848593009	1473848593073	 	32
142707	1552899	Chase back office and their restart plan updates individually.	Chase back office and their restart plan updates individually.	73819908	1473848593897	1473848593952	u	85
142707	1552899	Chase back office and their restart plan updates individually.	Chase back office and their restart plan updates individually.	73819909	1473848594105	1473848594177	p	80
142707	1552899	Chase back office and their restart plan updates individually.	Chase back office and their restart plan updates individually.	73819910	1473848594281	1473848594345	d	68
142707	1552899	Chase back office and their restart plan updates individually.	Chase back office and their restart plan updates individually.	73819917	1473848594473	1473848594560	a	65
142707	1552899	Chase back office and their restart plan updates individually.	Chase back office and their restart plan updates individually.	73819919	1473848594537	1473848594609	t	84
142707	1552899	Chase back office and their restart plan updates individually.	Chase back office and their restart plan updates individually.	73819922	1473848594689	1473848594769	e	69
142707	1552899	Chase back office and their restart plan updates individually.	Chase back office and their restart plan updates individually.	73819925	1473848594865	1473848594928	s	83
142707	1552899	Chase back office and their restart plan updates individually.	Chase back office and their restart plan updates individually.	73819928	1473848594961	1473848595025	 	32
142707	1552899	Chase back office and their restart plan updates individually.	Chase back office and their restart plan updates individually.	73819989	1473848595169	1473848595233	i	73
142707	1552899	Chase back office and their restart plan updates individually.	Chase back office and their restart plan updates individually.	73819991	1473848595376	1473848595457	n	78
142707	1552899	Chase back office and their restart plan updates individually.	Chase back office and their restart plan updates individually.	73819993	1473848595569	1473848595649	d	68
142707	1552899	Chase back office and their restart plan updates individually.	Chase back office and their restart plan updates individually.	73819995	1473848596265	1473848596328	i	73
142707	1552899	Chase back office and their restart plan updates individually.	Chase back office and their restart plan updates individually.	73819998	1473848597017	1473848597096	v	86
142707	1552899	Chase back office and their restart plan updates individually.	Chase back office and their restart plan updates individually.	73820018	1473848597289	1473848597353	i	73
142707	1552899	Chase back office and their restart plan updates individually.	Chase back office and their restart plan updates individually.	73820020	1473848597505	1473848597560	d	68
142707	1552899	Chase back office and their restart plan updates individually.	Chase back office and their restart plan updates individually.	73820022	1473848597585	1473848597657	u	85
142707	1552899	Chase back office and their restart plan updates individually.	Chase back office and their restart plan updates individually.	73820025	1473848597729	1473848597776	a	65
142707	1552899	Chase back office and their restart plan updates individually.	Chase back office and their restart plan updates individually.	73820030	1473848597856	1473848597920	l	76
142707	1552899	Chase back office and their restart plan updates individually.	Chase back office and their restart plan updates individually.	73820052	1473848598008	1473848598097	l	76
142707	1552899	Chase back office and their restart plan updates individually.	Chase back office and their restart plan updates individually.	73820054	1473848598265	1473848598320	y	89
142707	1552899	Chase back office and their restart plan updates individually.	Chase back office and their restart plan updates individually.	73820056	1473848598425	1473848598473	.	190
142707	1552909	A report Thursday showed wholesale prices fell 0.1 percent in April.	A report Thursday showed wholesale prices fell 0.1 percent in April.	73820098	1473848599667	1473848599800	CAPS_LOCK	20
142707	1552909	A report Thursday showed wholesale prices fell 0.1 percent in April.	A report Thursday showed wholesale prices fell 0.1 percent in April.	73820102	1473848600112	1473848600185	A	65
142707	1552909	A report Thursday showed wholesale prices fell 0.1 percent in April.	A report Thursday showed wholesale prices fell 0.1 percent in April.	73820106	1473848600217	1473848600321	CAPS_LOCK	20
142707	1552909	A report Thursday showed wholesale prices fell 0.1 percent in April.	A report Thursday showed wholesale prices fell 0.1 percent in April.	73820111	1473848600392	1473848600456	 	32
142707	1552909	A report Thursday showed wholesale prices fell 0.1 percent in April.	A report Thursday showed wholesale prices fell 0.1 percent in April.	73820113	1473848600656	1473848600713	r	82
142707	1552909	A report Thursday showed wholesale prices fell 0.1 percent in April.	A report Thursday showed wholesale prices fell 0.1 percent in April.	73820115	1473848600849	1473848600888	e	87
142707	1552909	A report Thursday showed wholesale prices fell 0.1 percent in April.	A report Thursday showed wholesale prices fell 0.1 percent in April.	73820120	1473848600977	1473848601033	p	80
142707	1552909	A report Thursday showed wholesale prices fell 0.1 percent in April.	A report Thursday showed wholesale prices fell 0.1 percent in April.	73820122	1473848601105	1473848601176	o	79
142707	1552909	A report Thursday showed wholesale prices fell 0.1 percent in April.	A report Thursday showed wholesale prices fell 0.1 percent in April.	73820125	1473848601209	1473848601272	r	82
142707	1552909	A report Thursday showed wholesale prices fell 0.1 percent in April.	A report Thursday showed wholesale prices fell 0.1 percent in April.	73820130	1473848601361	1473848601441	t	84
142707	1552909	A report Thursday showed wholesale prices fell 0.1 percent in April.	A report Thursday showed wholesale prices fell 0.1 percent in April.	73820134	1473848601497	1473848601568	 	32
142707	1552909	A report Thursday showed wholesale prices fell 0.1 percent in April.	A report Thursday showed wholesale prices fell 0.1 percent in April.	73820206	1473848601761	1473848601832	BKSP	8
142707	1552909	A report Thursday showed wholesale prices fell 0.1 percent in April.	A report Thursday showed wholesale prices fell 0.1 percent in April.	73820209	1473848601929	1473848601993	BKSP	8
142707	1552909	A report Thursday showed wholesale prices fell 0.1 percent in April.	A report Thursday showed wholesale prices fell 0.1 percent in April.	73820214	1473848602081	1473848602145	BKSP	8
142707	1552909	A report Thursday showed wholesale prices fell 0.1 percent in April.	A report Thursday showed wholesale prices fell 0.1 percent in April.	73820219	1473848602233	1473848602313	BKSP	8
142707	1552909	A report Thursday showed wholesale prices fell 0.1 percent in April.	A report Thursday showed wholesale prices fell 0.1 percent in April.	73820221	1473848602401	1473848602457	BKSP	8
142707	1552909	A report Thursday showed wholesale prices fell 0.1 percent in April.	A report Thursday showed wholesale prices fell 0.1 percent in April.	73820223	1473848602553	1473848602609	BKSP	8
142707	1552909	A report Thursday showed wholesale prices fell 0.1 percent in April.	A report Thursday showed wholesale prices fell 0.1 percent in April.	73820225	1473848602745	1473848602800	BKSP	8
142707	1552909	A report Thursday showed wholesale prices fell 0.1 percent in April.	A report Thursday showed wholesale prices fell 0.1 percent in April.	73820227	1473848603017	1473848603137	e	69
142707	1552909	A report Thursday showed wholesale prices fell 0.1 percent in April.	A report Thursday showed wholesale prices fell 0.1 percent in April.	73820229	1473848603265	1473848603329	p	80
142707	1552909	A report Thursday showed wholesale prices fell 0.1 percent in April.	A report Thursday showed wholesale prices fell 0.1 percent in April.	73820233	1473848603425	1473848603472	o	79
142707	1552909	A report Thursday showed wholesale prices fell 0.1 percent in April.	A report Thursday showed wholesale prices fell 0.1 percent in April.	73820236	1473848603473	1473848603553	r	82
142707	1552909	A report Thursday showed wholesale prices fell 0.1 percent in April.	A report Thursday showed wholesale prices fell 0.1 percent in April.	73820239	1473848603633	1473848603721	t	84
142707	1552909	A report Thursday showed wholesale prices fell 0.1 percent in April.	A report Thursday showed wholesale prices fell 0.1 percent in April.	73820266	1473848604464	1473848604536	 	32
142707	1552909	A report Thursday showed wholesale prices fell 0.1 percent in April.	A report Thursday showed wholesale prices fell 0.1 percent in April.	73820270	1473848604714	1473848604817	CAPS_LOCK	20
142707	1552909	A report Thursday showed wholesale prices fell 0.1 percent in April.	A report Thursday showed wholesale prices fell 0.1 percent in April.	73820273	1473848604848	1473848604913	R	82
142707	1552909	A report Thursday showed wholesale prices fell 0.1 percent in April.	A report Thursday showed wholesale prices fell 0.1 percent in April.	73820277	1473848604913	1473848604992	CAPS_LOCK	20
142707	1552909	A report Thursday showed wholesale prices fell 0.1 percent in April.	A report Thursday showed wholesale prices fell 0.1 percent in April.	73820281	1473848605104	1473848605184	h	72
142707	1552909	A report Thursday showed wholesale prices fell 0.1 percent in April.	A report Thursday showed wholesale prices fell 0.1 percent in April.	73820284	1473848605280	1473848605345	u	85
142707	1552909	A report Thursday showed wholesale prices fell 0.1 percent in April.	A report Thursday showed wholesale prices fell 0.1 percent in April.	73820287	1473848605409	1473848605472	r	82
142707	1552909	A report Thursday showed wholesale prices fell 0.1 percent in April.	A report Thursday showed wholesale prices fell 0.1 percent in April.	73820350	1473848605633	1473848605705	s	83
142707	1552909	A report Thursday showed wholesale prices fell 0.1 percent in April.	A report Thursday showed wholesale prices fell 0.1 percent in April.	73820352	1473848606144	1473848606225	BKSP	8
142707	1552909	A report Thursday showed wholesale prices fell 0.1 percent in April.	A report Thursday showed wholesale prices fell 0.1 percent in April.	73820355	1473848606313	1473848606377	BKSP	8
142707	1552909	A report Thursday showed wholesale prices fell 0.1 percent in April.	A report Thursday showed wholesale prices fell 0.1 percent in April.	73820358	1473848606481	1473848606545	BKSP	8
142707	1552909	A report Thursday showed wholesale prices fell 0.1 percent in April.	A report Thursday showed wholesale prices fell 0.1 percent in April.	73820359	1473848606649	1473848606704	BKSP	8
142707	1552909	A report Thursday showed wholesale prices fell 0.1 percent in April.	A report Thursday showed wholesale prices fell 0.1 percent in April.	73820361	1473848606937	1473848607033	BKSP	8
142707	1552909	A report Thursday showed wholesale prices fell 0.1 percent in April.	A report Thursday showed wholesale prices fell 0.1 percent in April.	73820362	1473848607425	1473848607497	t	84
142707	1552909	A report Thursday showed wholesale prices fell 0.1 percent in April.	A report Thursday showed wholesale prices fell 0.1 percent in April.	73820363	1473848607889	1473848607962	BKSP	8
142707	1552909	A report Thursday showed wholesale prices fell 0.1 percent in April.	A report Thursday showed wholesale prices fell 0.1 percent in April.	73820365	1473848608058	1473848608168	CAPS_LOCK	20
142707	1552909	A report Thursday showed wholesale prices fell 0.1 percent in April.	A report Thursday showed wholesale prices fell 0.1 percent in April.	73820368	1473848608184	1473848608240	T	84
142707	1552909	A report Thursday showed wholesale prices fell 0.1 percent in April.	A report Thursday showed wholesale prices fell 0.1 percent in April.	73820371	1473848608257	1473848608344	CAPS_LOCK	20
142707	1552909	A report Thursday showed wholesale prices fell 0.1 percent in April.	A report Thursday showed wholesale prices fell 0.1 percent in April.	73820372	1473848608384	1473848608464	h	72
142707	1552909	A report Thursday showed wholesale prices fell 0.1 percent in April.	A report Thursday showed wholesale prices fell 0.1 percent in April.	73820375	1473848608528	1473848608592	u	85
142707	1552909	A report Thursday showed wholesale prices fell 0.1 percent in April.	A report Thursday showed wholesale prices fell 0.1 percent in April.	73820389	1473848608616	1473848608681	r	82
142707	1552909	A report Thursday showed wholesale prices fell 0.1 percent in April.	A report Thursday showed wholesale prices fell 0.1 percent in April.	73820392	1473848608873	1473848608921	s	83
142707	1552909	A report Thursday showed wholesale prices fell 0.1 percent in April.	A report Thursday showed wholesale prices fell 0.1 percent in April.	73820394	1473848609289	1473848609336	d	68
142707	1552909	A report Thursday showed wholesale prices fell 0.1 percent in April.	A report Thursday showed wholesale prices fell 0.1 percent in April.	73820396	1473848609489	1473848609553	a	65
142707	1552909	A report Thursday showed wholesale prices fell 0.1 percent in April.	A report Thursday showed wholesale prices fell 0.1 percent in April.	73820399	1473848609617	1473848609673	y	89
142707	1552909	A report Thursday showed wholesale prices fell 0.1 percent in April.	A report Thursday showed wholesale prices fell 0.1 percent in April.	73820426	1473848610121	1473848610209	 	32
142707	1552909	A report Thursday showed wholesale prices fell 0.1 percent in April.	A report Thursday showed wholesale prices fell 0.1 percent in April.	73820428	1473848610241	1473848610328	s	83
142707	1552909	A report Thursday showed wholesale prices fell 0.1 percent in April.	A report Thursday showed wholesale prices fell 0.1 percent in April.	73820432	1473848610361	1473848610424	h	72
142707	1552909	A report Thursday showed wholesale prices fell 0.1 percent in April.	A report Thursday showed wholesale prices fell 0.1 percent in April.	73820434	1473848610528	1473848610608	o	79
142707	1552909	A report Thursday showed wholesale prices fell 0.1 percent in April.	A report Thursday showed wholesale prices fell 0.1 percent in April.	73820437	1473848610608	1473848610696	w	87
142707	1552909	A report Thursday showed wholesale prices fell 0.1 percent in April.	A report Thursday showed wholesale prices fell 0.1 percent in April.	73820502	1473848611185	1473848611308	e	69
142707	1552909	A report Thursday showed wholesale prices fell 0.1 percent in April.	A report Thursday showed wholesale prices fell 0.1 percent in April.	73820504	1473848611376	1473848611433	d	68
142707	1552909	A report Thursday showed wholesale prices fell 0.1 percent in April.	A report Thursday showed wholesale prices fell 0.1 percent in April.	73820507	1473848611529	1473848611601	 	32
142707	1552909	A report Thursday showed wholesale prices fell 0.1 percent in April.	A report Thursday showed wholesale prices fell 0.1 percent in April.	73820508	1473848612297	1473848612393	w	87
142707	1552909	A report Thursday showed wholesale prices fell 0.1 percent in April.	A report Thursday showed wholesale prices fell 0.1 percent in April.	73820510	1473848612441	1473848612505	h	72
142707	1552909	A report Thursday showed wholesale prices fell 0.1 percent in April.	A report Thursday showed wholesale prices fell 0.1 percent in April.	73820530	1473848612625	1473848612673	o	79
142707	1552909	A report Thursday showed wholesale prices fell 0.1 percent in April.	A report Thursday showed wholesale prices fell 0.1 percent in April.	73820533	1473848612969	1473848613049	l	76
142707	1552909	A report Thursday showed wholesale prices fell 0.1 percent in April.	A report Thursday showed wholesale prices fell 0.1 percent in April.	73820535	1473848613105	1473848613177	e	69
142707	1552909	A report Thursday showed wholesale prices fell 0.1 percent in April.	A report Thursday showed wholesale prices fell 0.1 percent in April.	73820537	1473848613297	1473848613361	s	83
142707	1552909	A report Thursday showed wholesale prices fell 0.1 percent in April.	A report Thursday showed wholesale prices fell 0.1 percent in April.	73820539	1473848613433	1473848613521	a	65
142707	1552909	A report Thursday showed wholesale prices fell 0.1 percent in April.	A report Thursday showed wholesale prices fell 0.1 percent in April.	73820541	1473848613545	1473848613608	l	76
142707	1552909	A report Thursday showed wholesale prices fell 0.1 percent in April.	A report Thursday showed wholesale prices fell 0.1 percent in April.	73820542	1473848613649	1473848613736	e	69
142707	1552909	A report Thursday showed wholesale prices fell 0.1 percent in April.	A report Thursday showed wholesale prices fell 0.1 percent in April.	73820543	1473848613737	1473848613809	 	32
142707	1552909	A report Thursday showed wholesale prices fell 0.1 percent in April.	A report Thursday showed wholesale prices fell 0.1 percent in April.	73820544	1473848613913	1473848613985	p	80
142707	1552909	A report Thursday showed wholesale prices fell 0.1 percent in April.	A report Thursday showed wholesale prices fell 0.1 percent in April.	73820545	1473848613986	1473848614048	r	82
142707	1552909	A report Thursday showed wholesale prices fell 0.1 percent in April.	A report Thursday showed wholesale prices fell 0.1 percent in April.	73820551	1473848614089	1473848614169	i	73
142707	1552909	A report Thursday showed wholesale prices fell 0.1 percent in April.	A report Thursday showed wholesale prices fell 0.1 percent in April.	73820552	1473848614209	1473848614313	c	67
142707	1552909	A report Thursday showed wholesale prices fell 0.1 percent in April.	A report Thursday showed wholesale prices fell 0.1 percent in April.	73820553	1473848614416	1473848614488	e	69
142707	1552909	A report Thursday showed wholesale prices fell 0.1 percent in April.	A report Thursday showed wholesale prices fell 0.1 percent in April.	73820554	1473848614585	1473848614657	s	83
142707	1552909	A report Thursday showed wholesale prices fell 0.1 percent in April.	A report Thursday showed wholesale prices fell 0.1 percent in April.	73820555	1473848614697	1473848614752	 	32
142707	1552909	A report Thursday showed wholesale prices fell 0.1 percent in April.	A report Thursday showed wholesale prices fell 0.1 percent in April.	73820577	1473848614801	1473848614873	f	70
142707	1552909	A report Thursday showed wholesale prices fell 0.1 percent in April.	A report Thursday showed wholesale prices fell 0.1 percent in April.	73820579	1473848614969	1473848615041	e	69
142707	1552909	A report Thursday showed wholesale prices fell 0.1 percent in April.	A report Thursday showed wholesale prices fell 0.1 percent in April.	73820581	1473848615081	1473848615145	l	76
142707	1552909	A report Thursday showed wholesale prices fell 0.1 percent in April.	A report Thursday showed wholesale prices fell 0.1 percent in April.	73820583	1473848615209	1473848615280	l	76
142707	1552909	A report Thursday showed wholesale prices fell 0.1 percent in April.	A report Thursday showed wholesale prices fell 0.1 percent in April.	73820586	1473848615401	1473848615465	 	32
142707	1552909	A report Thursday showed wholesale prices fell 0.1 percent in April.	A report Thursday showed wholesale prices fell 0.1 percent in April.	73820656	1473848615577	1473848615641	0	48
142707	1552909	A report Thursday showed wholesale prices fell 0.1 percent in April.	A report Thursday showed wholesale prices fell 0.1 percent in April.	73820659	1473848615777	1473848615865	.	190
142707	1552909	A report Thursday showed wholesale prices fell 0.1 percent in April.	A report Thursday showed wholesale prices fell 0.1 percent in April.	73820661	1473848616401	1473848616528	1	49
142707	1552909	A report Thursday showed wholesale prices fell 0.1 percent in April.	A report Thursday showed wholesale prices fell 0.1 percent in April.	73820664	1473848616897	1473848616985	 	32
142707	1552909	A report Thursday showed wholesale prices fell 0.1 percent in April.	A report Thursday showed wholesale prices fell 0.1 percent in April.	73820667	1473848617161	1473848617233		221
142707	1552909	A report Thursday showed wholesale prices fell 0.1 percent in April.	A report Thursday showed wholesale prices fell 0.1 percent in April.	73820694	1473848617600	1473848617657	BKSP	8
142707	1552909	A report Thursday showed wholesale prices fell 0.1 percent in April.	A report Thursday showed wholesale prices fell 0.1 percent in April.	73820695	1473848617801	1473848617873	p	80
142707	1552909	A report Thursday showed wholesale prices fell 0.1 percent in April.	A report Thursday showed wholesale prices fell 0.1 percent in April.	73820696	1473848617912	1473848618041	e	69
142707	1552909	A report Thursday showed wholesale prices fell 0.1 percent in April.	A report Thursday showed wholesale prices fell 0.1 percent in April.	73820697	1473848618113	1473848618185	r	82
142707	1552909	A report Thursday showed wholesale prices fell 0.1 percent in April.	A report Thursday showed wholesale prices fell 0.1 percent in April.	73820698	1473848618313	1473848618392	c	67
142707	1552909	A report Thursday showed wholesale prices fell 0.1 percent in April.	A report Thursday showed wholesale prices fell 0.1 percent in April.	73820699	1473848618497	1473848618585	e	69
142707	1552909	A report Thursday showed wholesale prices fell 0.1 percent in April.	A report Thursday showed wholesale prices fell 0.1 percent in April.	73820723	1473848618729	1473848618801	n	78
142707	1552909	A report Thursday showed wholesale prices fell 0.1 percent in April.	A report Thursday showed wholesale prices fell 0.1 percent in April.	73820728	1473848618849	1473848618912	t	84
142707	1552909	A report Thursday showed wholesale prices fell 0.1 percent in April.	A report Thursday showed wholesale prices fell 0.1 percent in April.	73820732	1473848618968	1473848619049	 	32
142707	1552909	A report Thursday showed wholesale prices fell 0.1 percent in April.	A report Thursday showed wholesale prices fell 0.1 percent in April.	73820738	1473848619161	1473848619225	i	73
142707	1552909	A report Thursday showed wholesale prices fell 0.1 percent in April.	A report Thursday showed wholesale prices fell 0.1 percent in April.	73820740	1473848619305	1473848619385	n	78
142707	1552909	A report Thursday showed wholesale prices fell 0.1 percent in April.	A report Thursday showed wholesale prices fell 0.1 percent in April.	73820781	1473848619465	1473848619529	 	32
142707	1552909	A report Thursday showed wholesale prices fell 0.1 percent in April.	A report Thursday showed wholesale prices fell 0.1 percent in April.	73820785	1473848619545	1473848619640	CAPS_LOCK	20
142707	1552909	A report Thursday showed wholesale prices fell 0.1 percent in April.	A report Thursday showed wholesale prices fell 0.1 percent in April.	73820790	1473848619688	1473848619744	A	65
142707	1552909	A report Thursday showed wholesale prices fell 0.1 percent in April.	A report Thursday showed wholesale prices fell 0.1 percent in April.	73820793	1473848619745	1473848619816	CAPS_LOCK	20
142707	1552909	A report Thursday showed wholesale prices fell 0.1 percent in April.	A report Thursday showed wholesale prices fell 0.1 percent in April.	73820797	1473848620665	1473848620744	p	80
142707	1552909	A report Thursday showed wholesale prices fell 0.1 percent in April.	A report Thursday showed wholesale prices fell 0.1 percent in April.	73820802	1473848620760	1473848620833	r	82
142707	1552909	A report Thursday showed wholesale prices fell 0.1 percent in April.	A report Thursday showed wholesale prices fell 0.1 percent in April.	73820803	1473848620857	1473848620929	i	73
142707	1552909	A report Thursday showed wholesale prices fell 0.1 percent in April.	A report Thursday showed wholesale prices fell 0.1 percent in April.	73820808	1473848621025	1473848621089	l	76
142707	1552909	A report Thursday showed wholesale prices fell 0.1 percent in April.	A report Thursday showed wholesale prices fell 0.1 percent in April.	73820809	1473848621217	1473848621281	.	190
142707	1552925	Board meeting running long.	Board meeting runnning long.	73820839	1473848622569	1473848622656	CAPS_LOCK	20
142707	1552925	Board meeting running long.	Board meeting runnning long.	73820842	1473848622657	1473848622737	B	66
142707	1552925	Board meeting running long.	Board meeting runnning long.	73820849	1473848622738	1473848622832	CAPS_LOCK	20
142707	1552925	Board meeting running long.	Board meeting runnning long.	73820853	1473848622849	1473848622920	o	79
142707	1552925	Board meeting running long.	Board meeting runnning long.	73820858	1473848623097	1473848623192	a	65
142707	1552925	Board meeting running long.	Board meeting runnning long.	73820863	1473848623345	1473848623425	r	82
142707	1552925	Board meeting running long.	Board meeting runnning long.	73820866	1473848623513	1473848623593	d	68
142707	1552925	Board meeting running long.	Board meeting runnning long.	73820871	1473848623625	1473848623681	 	32
142707	1552925	Board meeting running long.	Board meeting runnning long.	73820874	1473848623801	1473848623888	m	77
142707	1552925	Board meeting running long.	Board meeting runnning long.	73820877	1473848623889	1473848623953	e	69
142707	1552925	Board meeting running long.	Board meeting runnning long.	73820880	1473848624025	1473848624121	e	69
142707	1552925	Board meeting running long.	Board meeting runnning long.	73820884	1473848624201	1473848624273	t	84
142707	1552925	Board meeting running long.	Board meeting runnning long.	73820914	1473848624321	1473848624376	i	73
142707	1552925	Board meeting running long.	Board meeting runnning long.	73820916	1473848624473	1473848624552	n	78
142707	1552925	Board meeting running long.	Board meeting runnning long.	73820918	1473848624553	1473848624641	g	71
142707	1552925	Board meeting running long.	Board meeting runnning long.	73820920	1473848624705	1473848624776	 	32
142707	1552925	Board meeting running long.	Board meeting runnning long.	73820922	1473848624801	1473848624881	r	82
142707	1552925	Board meeting running long.	Board meeting runnning long.	73820945	1473848624905	1473848624969	u	85
142707	1552925	Board meeting running long.	Board meeting runnning long.	73820946	1473848625073	1473848625128	n	78
142707	1552925	Board meeting running long.	Board meeting runnning long.	73820947	1473848625193	1473848625281	n	78
142707	1552925	Board meeting running long.	Board meeting runnning long.	73820948	1473848625625	1473848625713	n	78
142707	1552925	Board meeting running long.	Board meeting runnning long.	73820949	1473848625801	1473848625873	i	73
142707	1552925	Board meeting running long.	Board meeting runnning long.	73821005	1473848626777	1473848626857	n	78
142707	1552925	Board meeting running long.	Board meeting runnning long.	73821006	1473848626857	1473848626920	g	71
142707	1552925	Board meeting running long.	Board meeting runnning long.	73821009	1473848626961	1473848627041	 	32
142707	1552925	Board meeting running long.	Board meeting runnning long.	73821012	1473848627089	1473848627144	a	65
142707	1552925	Board meeting running long.	Board meeting runnning long.	73821015	1473848627433	1473848627497	BKSP	8
142707	1552925	Board meeting running long.	Board meeting runnning long.	73821018	1473848627577	1473848627625	BKSP	8
142707	1552925	Board meeting running long.	Board meeting runnning long.	73821020	1473848627760	1473848627841	l	76
142707	1552925	Board meeting running long.	Board meeting runnning long.	73821034	1473848627921	1473848627977	o	79
142707	1552925	Board meeting running long.	Board meeting runnning long.	73821036	1473848628153	1473848628217	BKSP	8
142707	1552925	Board meeting running long.	Board meeting runnning long.	73821038	1473848628305	1473848628345	BKSP	8
142707	1552925	Board meeting running long.	Board meeting runnning long.	73821039	1473848628505	1473848628561	 	32
142707	1552925	Board meeting running long.	Board meeting runnning long.	73821040	1473848628689	1473848628761	l	76
142707	1552925	Board meeting running long.	Board meeting runnning long.	73821041	1473848628824	1473848628889	o	79
142707	1552925	Board meeting running long.	Board meeting runnning long.	73821042	1473848628944	1473848629024	m	77
142707	1552925	Board meeting running long.	Board meeting runnning long.	73821100	1473848629027	1473848629096	g	71
142707	1552925	Board meeting running long.	Board meeting runnning long.	73821101	1473848629441	1473848629497	BKSP	8
142707	1552925	Board meeting running long.	Board meeting runnning long.	73821103	1473848629577	1473848629648	BKSP	8
142707	1552925	Board meeting running long.	Board meeting runnning long.	73821106	1473848629720	1473848629809	n	78
142707	1552925	Board meeting running long.	Board meeting runnning long.	73821110	1473848630569	1473848630641	g	71
142707	1552925	Board meeting running long.	Board meeting runnning long.	73821114	1473848630769	1473848630825	.	190
142707	1552933	The Portal User IDs and Passwords are created by you.	The Portal User IdDs and passwords are created by you.	73821199	1473848632225	1473848632329	CAPS_LOCK	20
142707	1552933	The Portal User IDs and Passwords are created by you.	The Portal User IdDs and passwords are created by you.	73821204	1473848632352	1473848632424	T	84
142707	1552933	The Portal User IDs and Passwords are created by you.	The Portal User IdDs and passwords are created by you.	73821206	1473848632425	1473848632512	CAPS_LOCK	20
142707	1552933	The Portal User IDs and Passwords are created by you.	The Portal User IdDs and passwords are created by you.	73821208	1473848632513	1473848632576	h	72
142707	1552933	The Portal User IDs and Passwords are created by you.	The Portal User IdDs and passwords are created by you.	73821210	1473848632656	1473848632720	e	69
142707	1552933	The Portal User IDs and Passwords are created by you.	The Portal User IdDs and passwords are created by you.	73821212	1473848632721	1473848632793	 	32
142707	1552933	The Portal User IDs and Passwords are created by you.	The Portal User IdDs and passwords are created by you.	73821214	1473848633081	1473848633168	CAPS_LOCK	20
142707	1552933	The Portal User IDs and Passwords are created by you.	The Portal User IdDs and passwords are created by you.	73821216	1473848633192	1473848633273		221
142707	1552933	The Portal User IDs and Passwords are created by you.	The Portal User IdDs and passwords are created by you.	73821287	1473848633276	1473848633337	CAPS_LOCK	20
142707	1552933	The Portal User IDs and Passwords are created by you.	The Portal User IdDs and passwords are created by you.	73821288	1473848633408	1473848633450	p	79
142707	1552933	The Portal User IDs and Passwords are created by you.	The Portal User IdDs and passwords are created by you.	73821289	1473848633553	1473848633608	r	82
142707	1552933	The Portal User IDs and Passwords are created by you.	The Portal User IdDs and passwords are created by you.	73821290	1473848633913	1473848633985	BKSP	8
142707	1552933	The Portal User IDs and Passwords are created by you.	The Portal User IdDs and passwords are created by you.	73821291	1473848634081	1473848634145	BKSP	8
142707	1552933	The Portal User IDs and Passwords are created by you.	The Portal User IdDs and passwords are created by you.	73821293	1473848634225	1473848634305	BKSP	8
142707	1552933	The Portal User IDs and Passwords are created by you.	The Portal User IdDs and passwords are created by you.	73821295	1473848634601	1473848634673	BKSP	8
142707	1552933	The Portal User IDs and Passwords are created by you.	The Portal User IdDs and passwords are created by you.	73821300	1473848634761	1473848634840	CAPS_LOCK	20
142707	1552933	The Portal User IDs and Passwords are created by you.	The Portal User IdDs and passwords are created by you.	73821305	1473848634872	1473848634945	P	80
142707	1552933	The Portal User IDs and Passwords are created by you.	The Portal User IdDs and passwords are created by you.	73821309	1473848634945	1473848635024	CAPS_LOCK	20
142707	1552933	The Portal User IDs and Passwords are created by you.	The Portal User IdDs and passwords are created by you.	73821313	1473848635083	1473848635153	o	79
142707	1552933	The Portal User IDs and Passwords are created by you.	The Portal User IdDs and passwords are created by you.	73821329	1473848635216	1473848635288	r	82
142707	1552933	The Portal User IDs and Passwords are created by you.	The Portal User IdDs and passwords are created by you.	73821331	1473848635385	1473848635441	t	84
142707	1552933	The Portal User IDs and Passwords are created by you.	The Portal User IdDs and passwords are created by you.	73821334	1473848635593	1473848635649	a	65
142707	1552933	The Portal User IDs and Passwords are created by you.	The Portal User IdDs and passwords are created by you.	73821337	1473848635713	1473848635785	l	76
142707	1552933	The Portal User IDs and Passwords are created by you.	The Portal User IdDs and passwords are created by you.	73821339	1473848635897	1473848635961	 	32
142707	1552933	The Portal User IDs and Passwords are created by you.	The Portal User IdDs and passwords are created by you.	73821365	1473848636297	1473848636392	CAPS_LOCK	20
142707	1552933	The Portal User IDs and Passwords are created by you.	The Portal User IdDs and passwords are created by you.	73821366	1473848636432	1473848636497	U	85
142707	1552933	The Portal User IDs and Passwords are created by you.	The Portal User IdDs and passwords are created by you.	73821367	1473848636500	1473848636552	CAPS_LOCK	20
142707	1552933	The Portal User IDs and Passwords are created by you.	The Portal User IdDs and passwords are created by you.	73821368	1473848636672	1473848636744	s	83
142707	1552933	The Portal User IDs and Passwords are created by you.	The Portal User IdDs and passwords are created by you.	73821369	1473848636857	1473848636937	e	69
142707	1552933	The Portal User IDs and Passwords are created by you.	The Portal User IdDs and passwords are created by you.	73821370	1473848637033	1473848637121	r	82
142707	1552933	The Portal User IDs and Passwords are created by you.	The Portal User IdDs and passwords are created by you.	73821372	1473848637233	1473848637304	 	32
142707	1552933	The Portal User IDs and Passwords are created by you.	The Portal User IdDs and passwords are created by you.	73821449	1473848637465	1473848637577	CAPS_LOCK	20
142707	1552933	The Portal User IDs and Passwords are created by you.	The Portal User IdDs and passwords are created by you.	73821450	1473848637578	1473848637641	I	73
142707	1552933	The Portal User IDs and Passwords are created by you.	The Portal User IdDs and passwords are created by you.	73821451	1473848637672	1473848637752	CAPS_LOCK	20
142707	1552933	The Portal User IDs and Passwords are created by you.	The Portal User IdDs and passwords are created by you.	73821452	1473848637912	1473848637976	d	68
142707	1552933	The Portal User IDs and Passwords are created by you.	The Portal User IdDs and passwords are created by you.	73821453	1473848638513	1473848638665	CAPS_LOCK	20
142707	1552933	The Portal User IDs and Passwords are created by you.	The Portal User IdDs and passwords are created by you.	73821454	1473848638744	1473848638768	D	68
142707	1552933	The Portal User IDs and Passwords are created by you.	The Portal User IdDs and passwords are created by you.	73821455	1473848639209	1473848639352	CAPS_LOCK	20
142707	1552933	The Portal User IDs and Passwords are created by you.	The Portal User IdDs and passwords are created by you.	73821456	1473848639416	1473848639496	s	83
142707	1552933	The Portal User IDs and Passwords are created by you.	The Portal User IdDs and passwords are created by you.	73821458	1473848639857	1473848639929	 	32
142707	1552933	The Portal User IDs and Passwords are created by you.	The Portal User IdDs and passwords are created by you.	73821464	1473848640001	1473848640097	a	65
142707	1552933	The Portal User IDs and Passwords are created by you.	The Portal User IdDs and passwords are created by you.	73821466	1473848640137	1473848640209	n	78
142707	1552933	The Portal User IDs and Passwords are created by you.	The Portal User IdDs and passwords are created by you.	73821469	1473848640225	1473848640297	d	68
142707	1552933	The Portal User IDs and Passwords are created by you.	The Portal User IdDs and passwords are created by you.	73821472	1473848640328	1473848640400	 	32
142707	1552933	The Portal User IDs and Passwords are created by you.	The Portal User IdDs and passwords are created by you.	73821476	1473848640521	1473848640585	p	80
142707	1552933	The Portal User IDs and Passwords are created by you.	The Portal User IdDs and passwords are created by you.	73821502	1473848640617	1473848640697	a	65
142707	1552933	The Portal User IDs and Passwords are created by you.	The Portal User IdDs and passwords are created by you.	73821505	1473848640849	1473848640921	s	83
142707	1552933	The Portal User IDs and Passwords are created by you.	The Portal User IdDs and passwords are created by you.	73821508	1473848640977	1473848641081	s	83
142707	1552933	The Portal User IDs and Passwords are created by you.	The Portal User IdDs and passwords are created by you.	73821510	1473848641177	1473848641323	w	87
142707	1552933	The Portal User IDs and Passwords are created by you.	The Portal User IdDs and passwords are created by you.	73821513	1473848641323	1473848641360	o	79
142707	1552933	The Portal User IDs and Passwords are created by you.	The Portal User IdDs and passwords are created by you.	73821522	1473848641408	1473848641472	r	82
142707	1552933	The Portal User IDs and Passwords are created by you.	The Portal User IdDs and passwords are created by you.	73821525	1473848641585	1473848641633	f	68
142707	1552933	The Portal User IDs and Passwords are created by you.	The Portal User IdDs and passwords are created by you.	73821528	1473848641993	1473848642057	BKSP	8
142707	1552933	The Portal User IDs and Passwords are created by you.	The Portal User IdDs and passwords are created by you.	73821530	1473848642417	1473848642536	s	83
142707	1552933	The Portal User IDs and Passwords are created by you.	The Portal User IdDs and passwords are created by you.	73821532	1473848642633	1473848642696	 	32
142707	1552933	The Portal User IDs and Passwords are created by you.	The Portal User IdDs and passwords are created by you.	73821567	1473848642793	1473848642881	a	65
142707	1552933	The Portal User IDs and Passwords are created by you.	The Portal User IdDs and passwords are created by you.	73821570	1473848643049	1473848643120	r	82
142707	1552933	The Portal User IDs and Passwords are created by you.	The Portal User IdDs and passwords are created by you.	73821573	1473848643217	1473848643272	e	69
142707	1552933	The Portal User IDs and Passwords are created by you.	The Portal User IdDs and passwords are created by you.	73821575	1473848643328	1473848643401	 	32
142707	1552933	The Portal User IDs and Passwords are created by you.	The Portal User IdDs and passwords are created by you.	73821576	1473848643473	1473848643569	c	67
142707	1552933	The Portal User IDs and Passwords are created by you.	The Portal User IdDs and passwords are created by you.	73821596	1473848643705	1473848643769	r	82
142707	1552933	The Portal User IDs and Passwords are created by you.	The Portal User IdDs and passwords are created by you.	73821597	1473848644033	1473848644121	a	65
142707	1552933	The Portal User IDs and Passwords are created by you.	The Portal User IdDs and passwords are created by you.	73821598	1473848644161	1473848644225	t	84
142707	1552933	The Portal User IDs and Passwords are created by you.	The Portal User IdDs and passwords are created by you.	73821599	1473848644273	1473848644361	e	69
142707	1552933	The Portal User IDs and Passwords are created by you.	The Portal User IdDs and passwords are created by you.	73821601	1473848644449	1473848644520	d	68
142707	1552933	The Portal User IDs and Passwords are created by you.	The Portal User IdDs and passwords are created by you.	73821653	1473848644522	1473848644585	 	32
142707	1552933	The Portal User IDs and Passwords are created by you.	The Portal User IdDs and passwords are created by you.	73821655	1473848644841	1473848644905	BKSP	8
142707	1552933	The Portal User IDs and Passwords are created by you.	The Portal User IdDs and passwords are created by you.	73821657	1473848645009	1473848645065	BKSP	8
142707	1552933	The Portal User IDs and Passwords are created by you.	The Portal User IdDs and passwords are created by you.	73821661	1473848645169	1473848645233	BKSP	8
142707	1552933	The Portal User IDs and Passwords are created by you.	The Portal User IdDs and passwords are created by you.	73821664	1473848645321	1473848645417	BKSP	8
142707	1552933	The Portal User IDs and Passwords are created by you.	The Portal User IdDs and passwords are created by you.	73821667	1473848645593	1473848645664	BKSP	8
142707	1552933	The Portal User IDs and Passwords are created by you.	The Portal User IdDs and passwords are created by you.	73821672	1473848645817	1473848645929	e	69
142707	1552933	The Portal User IDs and Passwords are created by you.	The Portal User IdDs and passwords are created by you.	73821676	1473848646017	1473848646121	a	65
142707	1552933	The Portal User IDs and Passwords are created by you.	The Portal User IdDs and passwords are created by you.	73821681	1473848646209	1473848646288	t	84
142707	1552933	The Portal User IDs and Passwords are created by you.	The Portal User IdDs and passwords are created by you.	73821685	1473848646289	1473848646369	e	69
142707	1552933	The Portal User IDs and Passwords are created by you.	The Portal User IdDs and passwords are created by you.	73821703	1473848646457	1473848646513	d	68
142707	1552933	The Portal User IDs and Passwords are created by you.	The Portal User IdDs and passwords are created by you.	73821705	1473848646537	1473848646601	 	32
142707	1552933	The Portal User IDs and Passwords are created by you.	The Portal User IdDs and passwords are created by you.	73821708	1473848646817	1473848646905	b	66
142707	1552933	The Portal User IDs and Passwords are created by you.	The Portal User IdDs and passwords are created by you.	73821711	1473848646984	1473848647040	y	89
142707	1552933	The Portal User IDs and Passwords are created by you.	The Portal User IdDs and passwords are created by you.	73821714	1473848647129	1473848647209	 	32
142707	1552933	The Portal User IDs and Passwords are created by you.	The Portal User IdDs and passwords are created by you.	73821717	1473848647320	1473848647360	y	89
142707	1552933	The Portal User IDs and Passwords are created by you.	The Portal User IdDs and passwords are created by you.	73821718	1473848647361	1473848647433	o	79
142707	1552933	The Portal User IDs and Passwords are created by you.	The Portal User IdDs and passwords are created by you.	73821719	1473848647505	1473848647569	u	85
142707	1552933	The Portal User IDs and Passwords are created by you.	The Portal User IdDs and passwords are created by you.	73821720	1473848647713	1473848647784	.	190
142707	1552948	Rookie Kevin Swayne will move into the starting lineup.	Rookie Keving Swayne move into the starting lineup.	73821827	1473848649121	1473848649264	CAPS_LOCK	20
142707	1552948	Rookie Kevin Swayne will move into the starting lineup.	Rookie Keving Swayne move into the starting lineup.	73821832	1473848649296	1473848649352	R	82
142707	1552948	Rookie Kevin Swayne will move into the starting lineup.	Rookie Keving Swayne move into the starting lineup.	73821836	1473848649377	1473848649465	CAPS_LOCK	20
142707	1552948	Rookie Kevin Swayne will move into the starting lineup.	Rookie Keving Swayne move into the starting lineup.	73821838	1473848649562	1473848649640	o	79
142707	1552948	Rookie Kevin Swayne will move into the starting lineup.	Rookie Keving Swayne move into the starting lineup.	73821840	1473848649913	1473848649969	o	79
142707	1552948	Rookie Kevin Swayne will move into the starting lineup.	Rookie Keving Swayne move into the starting lineup.	73821842	1473848650073	1473848650169	k	75
142707	1552948	Rookie Kevin Swayne will move into the starting lineup.	Rookie Keving Swayne move into the starting lineup.	73821844	1473848650241	1473848650313	i	73
142707	1552948	Rookie Kevin Swayne will move into the starting lineup.	Rookie Keving Swayne move into the starting lineup.	73821855	1473848650328	1473848650401	e	69
142707	1552948	Rookie Kevin Swayne will move into the starting lineup.	Rookie Keving Swayne move into the starting lineup.	73821856	1473848650441	1473848650513	 	32
142707	1552948	Rookie Kevin Swayne will move into the starting lineup.	Rookie Keving Swayne move into the starting lineup.	73821857	1473848650601	1473848650673	CAPS_LOCK	20
142707	1552948	Rookie Kevin Swayne will move into the starting lineup.	Rookie Keving Swayne move into the starting lineup.	73821858	1473848650674	1473848650736	K	75
142707	1552948	Rookie Kevin Swayne will move into the starting lineup.	Rookie Keving Swayne move into the starting lineup.	73821859	1473848650752	1473848650817	CAPS_LOCK	20
142707	1552948	Rookie Kevin Swayne will move into the starting lineup.	Rookie Keving Swayne move into the starting lineup.	73821860	1473848650953	1473848651017	e	69
142707	1552948	Rookie Kevin Swayne will move into the starting lineup.	Rookie Keving Swayne move into the starting lineup.	73821861	1473848651018	1473848651081	v	86
142707	1552948	Rookie Kevin Swayne will move into the starting lineup.	Rookie Keving Swayne move into the starting lineup.	73821913	1473848651201	1473848651273	i	73
142707	1552948	Rookie Kevin Swayne will move into the starting lineup.	Rookie Keving Swayne move into the starting lineup.	73821915	1473848651361	1473848651449	n	78
142707	1552948	Rookie Kevin Swayne will move into the starting lineup.	Rookie Keving Swayne move into the starting lineup.	73821919	1473848651489	1473848651561	g	71
142707	1552948	Rookie Kevin Swayne will move into the starting lineup.	Rookie Keving Swayne move into the starting lineup.	73821922	1473848651577	1473848651665	 	32
142707	1552948	Rookie Kevin Swayne will move into the starting lineup.	Rookie Keving Swayne move into the starting lineup.	73821927	1473848651849	1473848651952	CAPS_LOCK	20
142707	1552948	Rookie Kevin Swayne will move into the starting lineup.	Rookie Keving Swayne move into the starting lineup.	73821929	1473848651968	1473848652025	S	83
142707	1552948	Rookie Kevin Swayne will move into the starting lineup.	Rookie Keving Swayne move into the starting lineup.	73821978	1473848652057	1473848652144	CAPS_LOCK	20
142707	1552948	Rookie Kevin Swayne will move into the starting lineup.	Rookie Keving Swayne move into the starting lineup.	73821980	1473848652496	1473848652585	w	87
142707	1552948	Rookie Kevin Swayne will move into the starting lineup.	Rookie Keving Swayne move into the starting lineup.	73821982	1473848652673	1473848652736	a	65
142707	1552948	Rookie Kevin Swayne will move into the starting lineup.	Rookie Keving Swayne move into the starting lineup.	73821983	1473848652881	1473848652937	y	89
142707	1552948	Rookie Kevin Swayne will move into the starting lineup.	Rookie Keving Swayne move into the starting lineup.	73821984	1473848653089	1473848653160	n	78
142707	1552948	Rookie Kevin Swayne will move into the starting lineup.	Rookie Keving Swayne move into the starting lineup.	73821985	1473848653201	1473848653289	e	69
142707	1552948	Rookie Kevin Swayne will move into the starting lineup.	Rookie Keving Swayne move into the starting lineup.	73822025	1473848653312	1473848653384	 	32
142707	1552948	Rookie Kevin Swayne will move into the starting lineup.	Rookie Keving Swayne move into the starting lineup.	73822028	1473848653609	1473848653681	l	76
142707	1552948	Rookie Kevin Swayne will move into the starting lineup.	Rookie Keving Swayne move into the starting lineup.	73822036	1473848653937	1473848654001	BKSP	8
142707	1552948	Rookie Kevin Swayne will move into the starting lineup.	Rookie Keving Swayne move into the starting lineup.	73822041	1473848654137	1473848654225	m	77
142707	1552948	Rookie Kevin Swayne will move into the starting lineup.	Rookie Keving Swayne move into the starting lineup.	73822045	1473848654297	1473848654360	o	79
142707	1552948	Rookie Kevin Swayne will move into the starting lineup.	Rookie Keving Swayne move into the starting lineup.	73822049	1473848654385	1473848654489	v	86
142707	1552948	Rookie Kevin Swayne will move into the starting lineup.	Rookie Keving Swayne move into the starting lineup.	73822067	1473848654536	1473848654657	e	69
142707	1552948	Rookie Kevin Swayne will move into the starting lineup.	Rookie Keving Swayne move into the starting lineup.	73822068	1473848654640	1473848654712	 	32
142707	1552948	Rookie Kevin Swayne will move into the starting lineup.	Rookie Keving Swayne move into the starting lineup.	73822071	1473848654825	1473848654897	i	73
142707	1552948	Rookie Kevin Swayne will move into the starting lineup.	Rookie Keving Swayne move into the starting lineup.	73822072	1473848654953	1473848655032	n	78
142707	1552948	Rookie Kevin Swayne will move into the starting lineup.	Rookie Keving Swayne move into the starting lineup.	73822073	1473848655033	1473848655105	t	84
142707	1552948	Rookie Kevin Swayne will move into the starting lineup.	Rookie Keving Swayne move into the starting lineup.	73822105	1473848655144	1473848655209	o	79
142707	1552948	Rookie Kevin Swayne will move into the starting lineup.	Rookie Keving Swayne move into the starting lineup.	73822107	1473848655328	1473848655401	 	32
142707	1552948	Rookie Kevin Swayne will move into the starting lineup.	Rookie Keving Swayne move into the starting lineup.	73822110	1473848655713	1473848655801	t	84
142707	1552948	Rookie Kevin Swayne will move into the starting lineup.	Rookie Keving Swayne move into the starting lineup.	73822112	1473848655841	1473848655913	h	72
142707	1552948	Rookie Kevin Swayne will move into the starting lineup.	Rookie Keving Swayne move into the starting lineup.	73822113	1473848655945	1473848656032	e	69
142707	1552948	Rookie Kevin Swayne will move into the starting lineup.	Rookie Keving Swayne move into the starting lineup.	73822138	1473848656081	1473848656152	 	32
142707	1552948	Rookie Kevin Swayne will move into the starting lineup.	Rookie Keving Swayne move into the starting lineup.	73822142	1473848656289	1473848656369	s	83
142707	1552948	Rookie Kevin Swayne will move into the starting lineup.	Rookie Keving Swayne move into the starting lineup.	73822146	1473848656393	1473848656457	t	84
142707	1552948	Rookie Kevin Swayne will move into the starting lineup.	Rookie Keving Swayne move into the starting lineup.	73822152	1473848656521	1473848656601	a	65
142707	1552948	Rookie Kevin Swayne will move into the starting lineup.	Rookie Keving Swayne move into the starting lineup.	73822155	1473848656737	1473848656817	r	82
142707	1552948	Rookie Kevin Swayne will move into the starting lineup.	Rookie Keving Swayne move into the starting lineup.	73822161	1473848656913	1473848656969	t	84
142707	1552948	Rookie Kevin Swayne will move into the starting lineup.	Rookie Keving Swayne move into the starting lineup.	73822163	1473848657001	1473848657073	i	73
142707	1552948	Rookie Kevin Swayne will move into the starting lineup.	Rookie Keving Swayne move into the starting lineup.	73822165	1473848657153	1473848657233	n	78
142707	1552948	Rookie Kevin Swayne will move into the starting lineup.	Rookie Keving Swayne move into the starting lineup.	73822168	1473848657249	1473848657313	g	71
142707	1552948	Rookie Kevin Swayne will move into the starting lineup.	Rookie Keving Swayne move into the starting lineup.	73822172	1473848657345	1473848657425	 	32
142707	1552948	Rookie Kevin Swayne will move into the starting lineup.	Rookie Keving Swayne move into the starting lineup.	73822195	1473848657649	1473848657728	l	76
142707	1552948	Rookie Kevin Swayne will move into the starting lineup.	Rookie Keving Swayne move into the starting lineup.	73822197	1473848657825	1473848657881	i	73
142707	1552948	Rookie Kevin Swayne will move into the starting lineup.	Rookie Keving Swayne move into the starting lineup.	73822199	1473848657985	1473848658056	n	78
142707	1552948	Rookie Kevin Swayne will move into the starting lineup.	Rookie Keving Swayne move into the starting lineup.	73822201	1473848658073	1473848658137	e	69
142707	1552948	Rookie Kevin Swayne will move into the starting lineup.	Rookie Keving Swayne move into the starting lineup.	73822204	1473848658217	1473848658249	u	85
142707	1552948	Rookie Kevin Swayne will move into the starting lineup.	Rookie Keving Swayne move into the starting lineup.	73822223	1473848658393	1473848658457	p	80
142707	1552948	Rookie Kevin Swayne will move into the starting lineup.	Rookie Keving Swayne move into the starting lineup.	73822226	1473848658697	1473848658769	.	190
142707	1552953	How is it going?	How is it going?	73822314	1473848660065	1473848660160	CAPS_LOCK	20
142707	1552953	How is it going?	How is it going?	73822316	1473848660176	1473848660232	H	72
142707	1552953	How is it going?	How is it going?	73822318	1473848660249	1473848660336	CAPS_LOCK	20
142707	1552953	How is it going?	How is it going?	73822320	1473848660481	1473848660560	w	87
142707	1552953	How is it going?	How is it going?	73822322	1473848660593	1473848660672	 	32
142707	1552953	How is it going?	How is it going?	73822323	1473848661032	1473848661105	BKSP	8
142707	1552953	How is it going?	How is it going?	73822325	1473848661193	1473848661265	BKSP	8
142707	1552953	How is it going?	How is it going?	73822327	1473848661433	1473848661489	o	79
142707	1552953	How is it going?	How is it going?	73822329	1473848661521	1473848661625	w	87
142707	1552953	How is it going?	How is it going?	73822345	1473848661649	1473848661713	 	32
142707	1552953	How is it going?	How is it going?	73822348	1473848661849	1473848661913	i	73
142707	1552953	How is it going?	How is it going?	73822351	1473848661929	1473848662017	s	83
142707	1552953	How is it going?	How is it going?	73822354	1473848662057	1473848662137	 	32
142707	1552953	How is it going?	How is it going?	73822358	1473848662233	1473848662313	i	73
142707	1552953	How is it going?	How is it going?	73822385	1473848662441	1473848662520	 	32
142707	1552953	How is it going?	How is it going?	73822387	1473848662833	1473848662905	BKSP	8
142707	1552953	How is it going?	How is it going?	73822389	1473848662961	1473848663040	t	84
142707	1552953	How is it going?	How is it going?	73822395	1473848663089	1473848663160	 	32
142707	1552953	How is it going?	How is it going?	73822398	1473848663193	1473848663281	g	71
142707	1552953	How is it going?	How is it going?	73822402	1473848663337	1473848663401	o	79
142707	1552953	How is it going?	How is it going?	73822430	1473848663505	1473848663561	i	73
142707	1552953	How is it going?	How is it going?	73822432	1473848663625	1473848663713	n	78
142707	1552953	How is it going?	How is it going?	73822434	1473848663713	1473848663779	g	71
142707	1552953	How is it going?	How is it going?	73822438	1473848664009	1473848664297	SHIFT	16
142707	1552953	How is it going?	How is it going?	73822436	1473848664097	1473848664153	?	187
142707	1552958	Mansell has not forgotten what the ovals have meant to him, however.	Mansell has not forgetten what the ovals have meant to him,however.	73822509	1473848665729	1473848665817	CAPS_LOCK	20
142707	1552958	Mansell has not forgotten what the ovals have meant to him, however.	Mansell has not forgetten what the ovals have meant to him,however.	73822510	1473848665832	1473848665913	M	77
142707	1552958	Mansell has not forgotten what the ovals have meant to him, however.	Mansell has not forgetten what the ovals have meant to him,however.	73822512	1473848665913	1473848665977	CAPS_LOCK	20
142707	1552958	Mansell has not forgotten what the ovals have meant to him, however.	Mansell has not forgetten what the ovals have meant to him,however.	73822514	1473848666089	1473848666153	a	65
142707	1552958	Mansell has not forgotten what the ovals have meant to him, however.	Mansell has not forgetten what the ovals have meant to him,however.	73822519	1473848666154	1473848666224	n	78
142707	1552958	Mansell has not forgotten what the ovals have meant to him, however.	Mansell has not forgetten what the ovals have meant to him,however.	73822523	1473848666288	1473848666377	s	83
142707	1552958	Mansell has not forgotten what the ovals have meant to him, however.	Mansell has not forgetten what the ovals have meant to him,however.	73822528	1473848666489	1473848666569	e	69
142707	1552958	Mansell has not forgotten what the ovals have meant to him, however.	Mansell has not forgetten what the ovals have meant to him,however.	73822571	1473848666616	1473848666689	e	69
142707	1552958	Mansell has not forgotten what the ovals have meant to him, however.	Mansell has not forgetten what the ovals have meant to him,however.	73822572	1473848666705	1473848666776	l	76
142707	1552958	Mansell has not forgotten what the ovals have meant to him, however.	Mansell has not forgetten what the ovals have meant to him,however.	73822573	1473848667401	1473848667481	BKSP	8
142707	1552958	Mansell has not forgotten what the ovals have meant to him, however.	Mansell has not forgetten what the ovals have meant to him,however.	73822574	1473848667601	1473848667657	BKSP	8
142707	1552958	Mansell has not forgotten what the ovals have meant to him, however.	Mansell has not forgetten what the ovals have meant to him,however.	73822577	1473848667961	1473848668025	l	76
142707	1552958	Mansell has not forgotten what the ovals have meant to him, however.	Mansell has not forgetten what the ovals have meant to him,however.	73822579	1473848668097	1473848668160	l	76
142707	1552958	Mansell has not forgotten what the ovals have meant to him, however.	Mansell has not forgetten what the ovals have meant to him,however.	73822581	1473848668281	1473848668353	 	32
142707	1552958	Mansell has not forgotten what the ovals have meant to him, however.	Mansell has not forgetten what the ovals have meant to him,however.	73822587	1473848668440	1473848668504	h	72
142707	1552958	Mansell has not forgotten what the ovals have meant to him, however.	Mansell has not forgetten what the ovals have meant to him,however.	73822590	1473848668505	1473848668585	a	65
142707	1552958	Mansell has not forgotten what the ovals have meant to him, however.	Mansell has not forgetten what the ovals have meant to him,however.	73822595	1473848668673	1473848668760	s	83
142707	1552958	Mansell has not forgotten what the ovals have meant to him, however.	Mansell has not forgetten what the ovals have meant to him,however.	73822599	1473848668721	1473848668784	 	32
142707	1552958	Mansell has not forgotten what the ovals have meant to him, however.	Mansell has not forgetten what the ovals have meant to him,however.	73822604	1473848668881	1473848668945	n	78
142707	1552958	Mansell has not forgotten what the ovals have meant to him, however.	Mansell has not forgetten what the ovals have meant to him,however.	73822643	1473848669017	1473848669089	o	79
142707	1552958	Mansell has not forgotten what the ovals have meant to him, however.	Mansell has not forgetten what the ovals have meant to him,however.	73822644	1473848669105	1473848669176	t	84
142707	1552958	Mansell has not forgotten what the ovals have meant to him, however.	Mansell has not forgetten what the ovals have meant to him,however.	73822645	1473848669457	1473848669536	 	32
142707	1552958	Mansell has not forgotten what the ovals have meant to him, however.	Mansell has not forgetten what the ovals have meant to him,however.	73822646	1473848669601	1473848669720	f	70
142707	1552958	Mansell has not forgotten what the ovals have meant to him, however.	Mansell has not forgetten what the ovals have meant to him,however.	73822647	1473848669721	1473848669784	o	79
142707	1552958	Mansell has not forgotten what the ovals have meant to him, however.	Mansell has not forgetten what the ovals have meant to him,however.	73822674	1473848669801	1473848669921	r	82
142707	1552958	Mansell has not forgotten what the ovals have meant to him, however.	Mansell has not forgetten what the ovals have meant to him,however.	73822675	1473848669953	1473848670057	g	71
142707	1552958	Mansell has not forgotten what the ovals have meant to him, however.	Mansell has not forgetten what the ovals have meant to him,however.	73822676	1473848670161	1473848670257	e	69
142707	1552958	Mansell has not forgotten what the ovals have meant to him, however.	Mansell has not forgetten what the ovals have meant to him,however.	73822677	1473848670360	1473848670425	t	84
142707	1552958	Mansell has not forgotten what the ovals have meant to him, however.	Mansell has not forgetten what the ovals have meant to him,however.	73822678	1473848670481	1473848670553	t	84
142707	1552958	Mansell has not forgotten what the ovals have meant to him, however.	Mansell has not forgetten what the ovals have meant to him,however.	73822699	1473848670697	1473848670776	e	69
142707	1552958	Mansell has not forgotten what the ovals have meant to him, however.	Mansell has not forgetten what the ovals have meant to him,however.	73822700	1473848670833	1473848670913	n	78
142707	1552958	Mansell has not forgotten what the ovals have meant to him, however.	Mansell has not forgetten what the ovals have meant to him,however.	73822701	1473848670993	1473848671081	 	32
142707	1552958	Mansell has not forgotten what the ovals have meant to him, however.	Mansell has not forgetten what the ovals have meant to him,however.	73822702	1473848671097	1473848671193	w	87
142707	1552958	Mansell has not forgotten what the ovals have meant to him, however.	Mansell has not forgetten what the ovals have meant to him,however.	73822703	1473848671193	1473848671311	h	72
142707	1552958	Mansell has not forgotten what the ovals have meant to him, however.	Mansell has not forgetten what the ovals have meant to him,however.	73822742	1473848671314	1473848671400	a	65
142707	1552958	Mansell has not forgotten what the ovals have meant to him, however.	Mansell has not forgetten what the ovals have meant to him,however.	73822744	1473848671449	1473848671529	t	84
142707	1552958	Mansell has not forgotten what the ovals have meant to him, however.	Mansell has not forgetten what the ovals have meant to him,however.	73822746	1473848672577	1473848672649	 	32
142707	1552958	Mansell has not forgotten what the ovals have meant to him, however.	Mansell has not forgetten what the ovals have meant to him,however.	73822747	1473848672801	1473848672889	t	84
142707	1552958	Mansell has not forgotten what the ovals have meant to him, however.	Mansell has not forgetten what the ovals have meant to him,however.	73822750	1473848672929	1473848673009	h	72
142707	1552958	Mansell has not forgotten what the ovals have meant to him, however.	Mansell has not forgetten what the ovals have meant to him,however.	73822770	1473848673033	1473848673113	e	69
142707	1552958	Mansell has not forgotten what the ovals have meant to him, however.	Mansell has not forgetten what the ovals have meant to him,however.	73822772	1473848673161	1473848673224	 	32
142707	1552958	Mansell has not forgotten what the ovals have meant to him, however.	Mansell has not forgetten what the ovals have meant to him,however.	73822774	1473848673641	1473848673704	o	79
142707	1552958	Mansell has not forgotten what the ovals have meant to him, however.	Mansell has not forgetten what the ovals have meant to him,however.	73822776	1473848673705	1473848673785	v	86
142707	1552958	Mansell has not forgotten what the ovals have meant to him, however.	Mansell has not forgetten what the ovals have meant to him,however.	73822780	1473848673921	1473848674017	a	65
142707	1552958	Mansell has not forgotten what the ovals have meant to him, however.	Mansell has not forgetten what the ovals have meant to him,however.	73822788	1473848674041	1473848674120	l	76
142707	1552958	Mansell has not forgotten what the ovals have meant to him, however.	Mansell has not forgetten what the ovals have meant to him,however.	73822790	1473848674137	1473848674232	s	83
142707	1552958	Mansell has not forgotten what the ovals have meant to him, however.	Mansell has not forgetten what the ovals have meant to him,however.	73822794	1473848674265	1473848674345	 	32
142707	1552958	Mansell has not forgotten what the ovals have meant to him, however.	Mansell has not forgetten what the ovals have meant to him,however.	73822799	1473848674513	1473848674585	h	72
142707	1552958	Mansell has not forgotten what the ovals have meant to him, however.	Mansell has not forgetten what the ovals have meant to him,however.	73822803	1473848674609	1473848674689	a	65
142707	1552958	Mansell has not forgotten what the ovals have meant to him, however.	Mansell has not forgetten what the ovals have meant to him,however.	73822815	1473848674728	1473848674793	v	86
142707	1552958	Mansell has not forgotten what the ovals have meant to him, however.	Mansell has not forgetten what the ovals have meant to him,however.	73822818	1473848674817	1473848674912	e	69
142707	1552958	Mansell has not forgotten what the ovals have meant to him, however.	Mansell has not forgetten what the ovals have meant to him,however.	73822820	1473848674913	1473848674992	 	32
142707	1552958	Mansell has not forgotten what the ovals have meant to him, however.	Mansell has not forgetten what the ovals have meant to him,however.	73822824	1473848675169	1473848675261	m	77
142707	1552958	Mansell has not forgotten what the ovals have meant to him, however.	Mansell has not forgetten what the ovals have meant to him,however.	73822827	1473848675261	1473848675320	e	69
142707	1552958	Mansell has not forgotten what the ovals have meant to him, however.	Mansell has not forgetten what the ovals have meant to him,however.	73822860	1473848675441	1473848675537	a	65
142707	1552958	Mansell has not forgotten what the ovals have meant to him, however.	Mansell has not forgetten what the ovals have meant to him,however.	73822863	1473848675609	1473848675681	n	78
142707	1552958	Mansell has not forgotten what the ovals have meant to him, however.	Mansell has not forgetten what the ovals have meant to him,however.	73822865	1473848675729	1473848675801	t	84
142707	1552958	Mansell has not forgotten what the ovals have meant to him, however.	Mansell has not forgetten what the ovals have meant to him,however.	73822866	1473848675873	1473848675944	 	32
142707	1552958	Mansell has not forgotten what the ovals have meant to him, however.	Mansell has not forgetten what the ovals have meant to him,however.	73822867	1473848676169	1473848676241	t	84
142707	1552958	Mansell has not forgotten what the ovals have meant to him, however.	Mansell has not forgetten what the ovals have meant to him,however.	73822881	1473848676281	1473848676353	o	79
142707	1552958	Mansell has not forgotten what the ovals have meant to him, however.	Mansell has not forgetten what the ovals have meant to him,however.	73822883	1473848676457	1473848676512	 	32
142707	1552958	Mansell has not forgotten what the ovals have meant to him, however.	Mansell has not forgetten what the ovals have meant to him,however.	73822885	1473848676633	1473848676696	h	72
142707	1552958	Mansell has not forgotten what the ovals have meant to him, however.	Mansell has not forgetten what the ovals have meant to him,however.	73822890	1473848676801	1473848676873	i	73
142707	1552958	Mansell has not forgotten what the ovals have meant to him, however.	Mansell has not forgetten what the ovals have meant to him,however.	73822895	1473848676977	1473848677057	m	77
142707	1552958	Mansell has not forgotten what the ovals have meant to him, however.	Mansell has not forgetten what the ovals have meant to him,however.	73823020	1473848677425	1473848677496	.	190
142707	1552958	Mansell has not forgotten what the ovals have meant to him, however.	Mansell has not forgetten what the ovals have meant to him,however.	73823025	1473848677617	1473848677689	 	32
142707	1552958	Mansell has not forgotten what the ovals have meant to him, however.	Mansell has not forgetten what the ovals have meant to him,however.	73823028	1473848677857	1473848677880	h	72
142707	1552958	Mansell has not forgotten what the ovals have meant to him, however.	Mansell has not forgetten what the ovals have meant to him,however.	73823032	1473848678305	1473848678385	o	79
142707	1552958	Mansell has not forgotten what the ovals have meant to him, however.	Mansell has not forgetten what the ovals have meant to him,however.	73823036	1473848678601	1473848678680	BKSP	8
142707	1552958	Mansell has not forgotten what the ovals have meant to him, however.	Mansell has not forgetten what the ovals have meant to him,however.	73823037	1473848678753	1473848678832	BKSP	8
142707	1552958	Mansell has not forgotten what the ovals have meant to him, however.	Mansell has not forgetten what the ovals have meant to him,however.	73823041	1473848678913	1473848678985	BKSP	8
142707	1552958	Mansell has not forgotten what the ovals have meant to him, however.	Mansell has not forgetten what the ovals have meant to him,however.	73823042	1473848679169	1473848679248	BKSP	8
142707	1552958	Mansell has not forgotten what the ovals have meant to him, however.	Mansell has not forgetten what the ovals have meant to him,however.	73823044	1473848679785	1473848679865	,	188
142707	1552958	Mansell has not forgotten what the ovals have meant to him, however.	Mansell has not forgetten what the ovals have meant to him,however.	73823076	1473848680049	1473848680113	h	72
142707	1552958	Mansell has not forgotten what the ovals have meant to him, however.	Mansell has not forgetten what the ovals have meant to him,however.	73823077	1473848680217	1473848680288	o	79
142707	1552958	Mansell has not forgotten what the ovals have meant to him, however.	Mansell has not forgetten what the ovals have meant to him,however.	73823080	1473848680880	1473848681025	w	87
142707	1552958	Mansell has not forgotten what the ovals have meant to him, however.	Mansell has not forgetten what the ovals have meant to him,however.	73823083	1473848681137	1473848681217	e	69
142707	1552958	Mansell has not forgotten what the ovals have meant to him, however.	Mansell has not forgetten what the ovals have meant to him,however.	73823086	1473848681329	1473848681401	v	86
142707	1552958	Mansell has not forgotten what the ovals have meant to him, however.	Mansell has not forgetten what the ovals have meant to him,however.	73823122	1473848681449	1473848681537	e	69
142707	1552958	Mansell has not forgotten what the ovals have meant to him, however.	Mansell has not forgetten what the ovals have meant to him,however.	73823124	1473848681609	1473848681665	r	82
142707	1552958	Mansell has not forgotten what the ovals have meant to him, however.	Mansell has not forgetten what the ovals have meant to him,however.	73823125	1473848681745	1473848681809	.	190
142707	1552972	Get with Mary for format.	Get with Mary for format.	73823189	1473848683291	1473848683376	CAPS_LOCK	20
142707	1552972	Get with Mary for format.	Get with Mary for format.	73823191	1473848683377	1473848683440	G	71
142707	1552972	Get with Mary for format.	Get with Mary for format.	73823192	1473848683456	1473848683544	CAPS_LOCK	20
142707	1552972	Get with Mary for format.	Get with Mary for format.	73823193	1473848683961	1473848683985	o	79
142707	1552972	Get with Mary for format.	Get with Mary for format.	73823194	1473848684265	1473848684329	BKSP	8
142707	1552972	Get with Mary for format.	Get with Mary for format.	73823195	1473848684377	1473848684457	e	69
142707	1552972	Get with Mary for format.	Get with Mary for format.	73823196	1473848684561	1473848684616	t	84
142707	1552972	Get with Mary for format.	Get with Mary for format.	73823197	1473848684649	1473848684728	 	32
142707	1552972	Get with Mary for format.	Get with Mary for format.	73823207	1473848684792	1473848684880	w	87
142707	1552972	Get with Mary for format.	Get with Mary for format.	73823209	1473848684889	1473848684944	i	73
142707	1552972	Get with Mary for format.	Get with Mary for format.	73823211	1473848685017	1473848685080	t	84
142707	1552972	Get with Mary for format.	Get with Mary for format.	73823213	1473848685113	1473848685177	h	72
142707	1552972	Get with Mary for format.	Get with Mary for format.	73823217	1473848685281	1473848685352	 	32
142707	1552972	Get with Mary for format.	Get with Mary for format.	73823259	1473848685457	1473848685537	m	77
142707	1552972	Get with Mary for format.	Get with Mary for format.	73823261	1473848685537	1473848685609	a	65
142707	1552972	Get with Mary for format.	Get with Mary for format.	73823263	1473848685761	1473848685817	r	82
142707	1552972	Get with Mary for format.	Get with Mary for format.	73823266	1473848686017	1473848686089	BKSP	8
142707	1552972	Get with Mary for format.	Get with Mary for format.	73823269	1473848686169	1473848686241	BKSP	8
142707	1552972	Get with Mary for format.	Get with Mary for format.	73823272	1473848686329	1473848686376	BKSP	8
142707	1552972	Get with Mary for format.	Get with Mary for format.	73823274	1473848686417	1473848686537	CAPS_LOCK	20
142707	1552972	Get with Mary for format.	Get with Mary for format.	73823276	1473848686538	1473848686609	M	77
142707	1552972	Get with Mary for format.	Get with Mary for format.	73823279	1473848686633	1473848686744	CAPS_LOCK	20
142707	1552972	Get with Mary for format.	Get with Mary for format.	73823281	1473848686880	1473848686968	a	65
142707	1552972	Get with Mary for format.	Get with Mary for format.	73823298	1473848687113	1473848687193	r	82
142707	1552972	Get with Mary for format.	Get with Mary for format.	73823299	1473848687257	1473848687312	y	89
142707	1552972	Get with Mary for format.	Get with Mary for format.	73823300	1473848687449	1473848687529	 	32
142707	1552972	Get with Mary for format.	Get with Mary for format.	73823301	1473848687760	1473848687881	f	70
142707	1552972	Get with Mary for format.	Get with Mary for format.	73823303	1473848687881	1473848687937	o	79
142707	1552972	Get with Mary for format.	Get with Mary for format.	73823348	1473848687953	1473848688056	r	82
142707	1552972	Get with Mary for format.	Get with Mary for format.	73823350	1473848688153	1473848688201	 	32
142707	1552972	Get with Mary for format.	Get with Mary for format.	73823352	1473848688913	1473848689033	f	70
142707	1552972	Get with Mary for format.	Get with Mary for format.	73823355	1473848689097	1473848689152	o	79
142707	1552972	Get with Mary for format.	Get with Mary for format.	73823358	1473848689569	1473848689649	r	82
142707	1552972	Get with Mary for format.	Get with Mary for format.	73823415	1473848689937	1473848690009	m	77
142707	1552972	Get with Mary for format.	Get with Mary for format.	73823419	1473848690393	1473848690497	a	65
142707	1552972	Get with Mary for format.	Get with Mary for format.	73823424	1473848690657	1473848690729	t	84
142707	1552972	Get with Mary for format.	Get with Mary for format.	73823425	1473848690897	1473848690961	.	190
