PARTICIPANT_ID	TEST_SECTION_ID	SENTENCE	USER_INPUT	KEYSTROKE_ID	PRESS_TIME	RELEASE_TIME	LETTER	KEYCODE
144745	1574563	We're not a lock for the pole.	We're not a lock for the pole.	74854285	1473869619939	1473869620272	SHIFT	16
144745	1574563	We're not a lock for the pole.	We're not a lock for the pole.	74854287	1473869620122	1473869620334	W	87
144745	1574563	We're not a lock for the pole.	We're not a lock for the pole.	74854292	1473869620366	1473869620504	e	69
144745	1574563	We're not a lock for the pole.	We're not a lock for the pole.	74854296	1473869620754	1473869620854	'	222
144745	1574563	We're not a lock for the pole.	We're not a lock for the pole.	74854302	1473869621032	1473869621181	r	82
144745	1574563	We're not a lock for the pole.	We're not a lock for the pole.	74854361	1473869621124	1473869621272	e	69
144745	1574563	We're not a lock for the pole.	We're not a lock for the pole.	74854366	1473869621287	1473869621375	 	32
144745	1574563	We're not a lock for the pole.	We're not a lock for the pole.	74854370	1473869621422	1473869621613	n	78
144745	1574563	We're not a lock for the pole.	We're not a lock for the pole.	74854375	1473869621568	1473869621720	o	79
144745	1574563	We're not a lock for the pole.	We're not a lock for the pole.	74854381	1473869621668	1473869621767	t	84
144745	1574563	We're not a lock for the pole.	We're not a lock for the pole.	74854387	1473869621783	1473869621870	 	32
144745	1574563	We're not a lock for the pole.	We're not a lock for the pole.	74854546	1473869621939	1473869622108	a	65
144745	1574563	We're not a lock for the pole.	We're not a lock for the pole.	74854548	1473869622050	1473869622233	 	32
144745	1574563	We're not a lock for the pole.	We're not a lock for the pole.	74854550	1473869622249	1473869622409	 	32
144745	1574563	We're not a lock for the pole.	We're not a lock for the pole.	74854554	1473869623262	1473869623414	BKSP	8
144745	1574563	We're not a lock for the pole.	We're not a lock for the pole.	74854558	1473869623758	1473869623852	l	76
144745	1574563	We're not a lock for the pole.	We're not a lock for the pole.	74854564	1473869623914	1473869623988	o	79
144745	1574563	We're not a lock for the pole.	We're not a lock for the pole.	74854608	1473869624008	1473869624131	c	67
144745	1574563	We're not a lock for the pole.	We're not a lock for the pole.	74854617	1473869624163	1473869624292	k	75
144745	1574563	We're not a lock for the pole.	We're not a lock for the pole.	74854624	1473869624332	1473869624432	 	32
144745	1574563	We're not a lock for the pole.	We're not a lock for the pole.	74854629	1473869624463	1473869624576	f	70
144745	1574563	We're not a lock for the pole.	We're not a lock for the pole.	74854681	1473869624550	1473869624706	o	79
144745	1574563	We're not a lock for the pole.	We're not a lock for the pole.	74854686	1473869624683	1473869624796	r	82
144745	1574563	We're not a lock for the pole.	We're not a lock for the pole.	74854691	1473869624785	1473869624915	 	32
144745	1574563	We're not a lock for the pole.	We're not a lock for the pole.	74854695	1473869625025	1473869625103	t	84
144745	1574563	We're not a lock for the pole.	We're not a lock for the pole.	74854700	1473869625181	1473869625290	h	72
144745	1574563	We're not a lock for the pole.	We're not a lock for the pole.	74854771	1473869625266	1473869625373	e	69
144745	1574563	We're not a lock for the pole.	We're not a lock for the pole.	74854779	1473869625350	1473869625498	 	32
144745	1574563	We're not a lock for the pole.	We're not a lock for the pole.	74854783	1473869625608	1473869625777	p	80
144745	1574563	We're not a lock for the pole.	We're not a lock for the pole.	74854792	1473869625733	1473869625829	o	79
144745	1574563	We're not a lock for the pole.	We're not a lock for the pole.	74854798	1473869625894	1473869626016	l	76
144745	1574563	We're not a lock for the pole.	We're not a lock for the pole.	74854803	1473869626047	1473869626181	e	69
144745	1574563	We're not a lock for the pole.	We're not a lock for the pole.	74854867	1473869626548	1473869626647	.	190
144745	1574592	The exercises will be staged in the West and Mid-Pacific region.	The exercises will be staged in the West and Mid-Pacific region.	74855449	1473869633732	1473869633977	SHIFT	16
144745	1574592	The exercises will be staged in the West and Mid-Pacific region.	The exercises will be staged in the West and Mid-Pacific region.	74855451	1473869633901	1473869633993	T	84
144745	1574592	The exercises will be staged in the West and Mid-Pacific region.	The exercises will be staged in the West and Mid-Pacific region.	74855458	1473869634071	1473869634178	h	72
144745	1574592	The exercises will be staged in the West and Mid-Pacific region.	The exercises will be staged in the West and Mid-Pacific region.	74855464	1473869634121	1473869634241	e	69
144745	1574592	The exercises will be staged in the West and Mid-Pacific region.	The exercises will be staged in the West and Mid-Pacific region.	74855472	1473869634272	1473869634374	 	32
144745	1574592	The exercises will be staged in the West and Mid-Pacific region.	The exercises will be staged in the West and Mid-Pacific region.	74855480	1473869634389	1473869634523	e	69
144745	1574592	The exercises will be staged in the West and Mid-Pacific region.	The exercises will be staged in the West and Mid-Pacific region.	74855639	1473869634571	1473869634719	c	67
144745	1574592	The exercises will be staged in the West and Mid-Pacific region.	The exercises will be staged in the West and Mid-Pacific region.	74855646	1473869635190	1473869635321	s	83
144745	1574592	The exercises will be staged in the West and Mid-Pacific region.	The exercises will be staged in the West and Mid-Pacific region.	74855657	1473869635733	1473869635868	BKSP	8
144745	1574592	The exercises will be staged in the West and Mid-Pacific region.	The exercises will be staged in the West and Mid-Pacific region.	74855668	1473869635915	1473869636023	BKSP	8
144745	1574592	The exercises will be staged in the West and Mid-Pacific region.	The exercises will be staged in the West and Mid-Pacific region.	74855680	1473869636410	1473869636522	x	88
144745	1574592	The exercises will be staged in the West and Mid-Pacific region.	The exercises will be staged in the West and Mid-Pacific region.	74855689	1473869636616	1473869636789	e	69
144745	1574592	The exercises will be staged in the West and Mid-Pacific region.	The exercises will be staged in the West and Mid-Pacific region.	74855738	1473869636722	1473869636830	r	82
144745	1574592	The exercises will be staged in the West and Mid-Pacific region.	The exercises will be staged in the West and Mid-Pacific region.	74855740	1473869636955	1473869637071	c	67
144745	1574592	The exercises will be staged in the West and Mid-Pacific region.	The exercises will be staged in the West and Mid-Pacific region.	74855751	1473869637118	1473869637221	i	73
144745	1574592	The exercises will be staged in the West and Mid-Pacific region.	The exercises will be staged in the West and Mid-Pacific region.	74855758	1473869637237	1473869637369	s	83
144745	1574592	The exercises will be staged in the West and Mid-Pacific region.	The exercises will be staged in the West and Mid-Pacific region.	74855764	1473869637462	1473869637554	e	69
144745	1574592	The exercises will be staged in the West and Mid-Pacific region.	The exercises will be staged in the West and Mid-Pacific region.	74855771	1473869637619	1473869637735	s	83
144745	1574592	The exercises will be staged in the West and Mid-Pacific region.	The exercises will be staged in the West and Mid-Pacific region.	74855827	1473869637769	1473869637871	 	32
144745	1574592	The exercises will be staged in the West and Mid-Pacific region.	The exercises will be staged in the West and Mid-Pacific region.	74855832	1473869637999	1473869638101	w	87
144745	1574592	The exercises will be staged in the West and Mid-Pacific region.	The exercises will be staged in the West and Mid-Pacific region.	74855836	1473869638117	1473869638221	i	73
144745	1574592	The exercises will be staged in the West and Mid-Pacific region.	The exercises will be staged in the West and Mid-Pacific region.	74855845	1473869638328	1473869638391	l	76
144745	1574592	The exercises will be staged in the West and Mid-Pacific region.	The exercises will be staged in the West and Mid-Pacific region.	74855848	1473869638454	1473869638552	l	76
144745	1574592	The exercises will be staged in the West and Mid-Pacific region.	The exercises will be staged in the West and Mid-Pacific region.	74855921	1473869638679	1473869638788	 	32
144745	1574592	The exercises will be staged in the West and Mid-Pacific region.	The exercises will be staged in the West and Mid-Pacific region.	74855925	1473869638866	1473869638939	b	66
144745	1574592	The exercises will be staged in the West and Mid-Pacific region.	The exercises will be staged in the West and Mid-Pacific region.	74855931	1473869638991	1473869639116	e	69
144745	1574592	The exercises will be staged in the West and Mid-Pacific region.	The exercises will be staged in the West and Mid-Pacific region.	74855934	1473869639136	1473869639252	 	32
144745	1574592	The exercises will be staged in the West and Mid-Pacific region.	The exercises will be staged in the West and Mid-Pacific region.	74855939	1473869639486	1473869639537	d	68
144745	1574592	The exercises will be staged in the West and Mid-Pacific region.	The exercises will be staged in the West and Mid-Pacific region.	74856057	1473869640432	1473869640597	BKSP	8
144745	1574592	The exercises will be staged in the West and Mid-Pacific region.	The exercises will be staged in the West and Mid-Pacific region.	74856061	1473869640706	1473869640865	s	83
144745	1574592	The exercises will be staged in the West and Mid-Pacific region.	The exercises will be staged in the West and Mid-Pacific region.	74856065	1473869640881	1473869640968	t	84
144745	1574592	The exercises will be staged in the West and Mid-Pacific region.	The exercises will be staged in the West and Mid-Pacific region.	74856069	1473869640984	1473869641144	a	65
144745	1574592	The exercises will be staged in the West and Mid-Pacific region.	The exercises will be staged in the West and Mid-Pacific region.	74856070	1473869641237	1473869641319	g	71
144745	1574592	The exercises will be staged in the West and Mid-Pacific region.	The exercises will be staged in the West and Mid-Pacific region.	74856072	1473869641335	1473869641494	e	69
144745	1574592	The exercises will be staged in the West and Mid-Pacific region.	The exercises will be staged in the West and Mid-Pacific region.	74856108	1473869641607	1473869641749	d	68
144745	1574592	The exercises will be staged in the West and Mid-Pacific region.	The exercises will be staged in the West and Mid-Pacific region.	74856112	1473869641764	1473869641868	 	32
144745	1574592	The exercises will be staged in the West and Mid-Pacific region.	The exercises will be staged in the West and Mid-Pacific region.	74856118	1473869641978	1473869642095	i	73
144745	1574592	The exercises will be staged in the West and Mid-Pacific region.	The exercises will be staged in the West and Mid-Pacific region.	74856125	1473869642083	1473869642224	n	78
144745	1574592	The exercises will be staged in the West and Mid-Pacific region.	The exercises will be staged in the West and Mid-Pacific region.	74856181	1473869642202	1473869642318	 	32
144745	1574592	The exercises will be staged in the West and Mid-Pacific region.	The exercises will be staged in the West and Mid-Pacific region.	74856187	1473869642318	1473869642431	t	84
144745	1574592	The exercises will be staged in the West and Mid-Pacific region.	The exercises will be staged in the West and Mid-Pacific region.	74856197	1473869642415	1473869642501	h	72
144745	1574592	The exercises will be staged in the West and Mid-Pacific region.	The exercises will be staged in the West and Mid-Pacific region.	74856200	1473869642547	1473869642684	e	69
144745	1574592	The exercises will be staged in the West and Mid-Pacific region.	The exercises will be staged in the West and Mid-Pacific region.	74856206	1473869642670	1473869642794	 	32
144745	1574592	The exercises will be staged in the West and Mid-Pacific region.	The exercises will be staged in the West and Mid-Pacific region.	74856211	1473869643122	1473869643351	SHIFT	16
144745	1574592	The exercises will be staged in the West and Mid-Pacific region.	The exercises will be staged in the West and Mid-Pacific region.	74856247	1473869643268	1473869643412	W	87
144745	1574592	The exercises will be staged in the West and Mid-Pacific region.	The exercises will be staged in the West and Mid-Pacific region.	74856251	1473869643428	1473869643547	e	69
144745	1574592	The exercises will be staged in the West and Mid-Pacific region.	The exercises will be staged in the West and Mid-Pacific region.	74856255	1473869643612	1473869643744	s	83
144745	1574592	The exercises will be staged in the West and Mid-Pacific region.	The exercises will be staged in the West and Mid-Pacific region.	74856262	1473869643822	1473869643931	t	84
144745	1574592	The exercises will be staged in the West and Mid-Pacific region.	The exercises will be staged in the West and Mid-Pacific region.	74856267	1473869643977	1473869644111	 	32
144745	1574592	The exercises will be staged in the West and Mid-Pacific region.	The exercises will be staged in the West and Mid-Pacific region.	74856343	1473869644097	1473869644246	a	65
144745	1574592	The exercises will be staged in the West and Mid-Pacific region.	The exercises will be staged in the West and Mid-Pacific region.	74856346	1473869644241	1473869644301	n	78
144745	1574592	The exercises will be staged in the West and Mid-Pacific region.	The exercises will be staged in the West and Mid-Pacific region.	74856351	1473869644364	1473869644496	d	68
144745	1574592	The exercises will be staged in the West and Mid-Pacific region.	The exercises will be staged in the West and Mid-Pacific region.	74856356	1473869644606	1473869644734	 	32
144745	1574592	The exercises will be staged in the West and Mid-Pacific region.	The exercises will be staged in the West and Mid-Pacific region.	74856362	1473869644815	1473869645378	SHIFT	16
144745	1574592	The exercises will be staged in the West and Mid-Pacific region.	The exercises will be staged in the West and Mid-Pacific region.	74856370	1473869645278	1473869645378	M	77
144745	1574592	The exercises will be staged in the West and Mid-Pacific region.	The exercises will be staged in the West and Mid-Pacific region.	74856376	1473869645472	1473869645580	i	73
144745	1574592	The exercises will be staged in the West and Mid-Pacific region.	The exercises will be staged in the West and Mid-Pacific region.	74856528	1473869645653	1473869645778	d	68
144745	1574592	The exercises will be staged in the West and Mid-Pacific region.	The exercises will be staged in the West and Mid-Pacific region.	74856530	1473869646548	1473869646646	-	189
144745	1574592	The exercises will be staged in the West and Mid-Pacific region.	The exercises will be staged in the West and Mid-Pacific region.	74856533	1473869647115	1473869647561	SHIFT	16
144745	1574592	The exercises will be staged in the West and Mid-Pacific region.	The exercises will be staged in the West and Mid-Pacific region.	74856539	1473869647537	1473869647613	P	80
144745	1574592	The exercises will be staged in the West and Mid-Pacific region.	The exercises will be staged in the West and Mid-Pacific region.	74856545	1473869647662	1473869647809	a	65
144745	1574592	The exercises will be staged in the West and Mid-Pacific region.	The exercises will be staged in the West and Mid-Pacific region.	74856553	1473869647903	1473869648042	c	67
144745	1574592	The exercises will be staged in the West and Mid-Pacific region.	The exercises will be staged in the West and Mid-Pacific region.	74856617	1473869648073	1473869648161	i	73
144745	1574592	The exercises will be staged in the West and Mid-Pacific region.	The exercises will be staged in the West and Mid-Pacific region.	74856622	1473869648271	1473869648361	f	70
144745	1574592	The exercises will be staged in the West and Mid-Pacific region.	The exercises will be staged in the West and Mid-Pacific region.	74856631	1473869648424	1473869648528	i	73
144745	1574592	The exercises will be staged in the West and Mid-Pacific region.	The exercises will be staged in the West and Mid-Pacific region.	74856640	1473869648684	1473869648792	c	67
144745	1574592	The exercises will be staged in the West and Mid-Pacific region.	The exercises will be staged in the West and Mid-Pacific region.	74856649	1473869648839	1473869648943	 	32
144745	1574592	The exercises will be staged in the West and Mid-Pacific region.	The exercises will be staged in the West and Mid-Pacific region.	74856847	1473869649204	1473869649558	SHIFT	16
144745	1574592	The exercises will be staged in the West and Mid-Pacific region.	The exercises will be staged in the West and Mid-Pacific region.	74856853	1473869649460	1473869649589	R	82
144745	1574592	The exercises will be staged in the West and Mid-Pacific region.	The exercises will be staged in the West and Mid-Pacific region.	74856860	1473869649886	1473869650024	BKSP	8
144745	1574592	The exercises will be staged in the West and Mid-Pacific region.	The exercises will be staged in the West and Mid-Pacific region.	74856865	1473869650196	1473869650323	r	82
144745	1574592	The exercises will be staged in the West and Mid-Pacific region.	The exercises will be staged in the West and Mid-Pacific region.	74856872	1473869650323	1473869650473	e	69
144745	1574592	The exercises will be staged in the West and Mid-Pacific region.	The exercises will be staged in the West and Mid-Pacific region.	74856878	1473869650730	1473869650792	f	70
144745	1574592	The exercises will be staged in the West and Mid-Pacific region.	The exercises will be staged in the West and Mid-Pacific region.	74856883	1473869651067	1473869651189	BKSP	8
144745	1574592	The exercises will be staged in the West and Mid-Pacific region.	The exercises will be staged in the West and Mid-Pacific region.	74856889	1473869651205	1473869651306	g	71
144745	1574592	The exercises will be staged in the West and Mid-Pacific region.	The exercises will be staged in the West and Mid-Pacific region.	74856954	1473869651359	1473869651456	i	73
144745	1574592	The exercises will be staged in the West and Mid-Pacific region.	The exercises will be staged in the West and Mid-Pacific region.	74856958	1473869651534	1473869651703	o	79
144745	1574592	The exercises will be staged in the West and Mid-Pacific region.	The exercises will be staged in the West and Mid-Pacific region.	74856966	1473869651699	1473869651791	n	78
144745	1574592	The exercises will be staged in the West and Mid-Pacific region.	The exercises will be staged in the West and Mid-Pacific region.	74856971	1473869652109	1473869652206	.	190
144745	1574636	We will forward it to you as soon as we get it.	We will forward it to you as soon as we get it.	74857284	1473869657244	1473869657487	SHIFT	16
144745	1574636	We will forward it to you as soon as we get it.	We will forward it to you as soon as we get it.	74857289	1473869657420	1473869657565	W	87
144745	1574636	We will forward it to you as soon as we get it.	We will forward it to you as soon as we get it.	74857294	1473869657580	1473869657711	e	69
144745	1574636	We will forward it to you as soon as we get it.	We will forward it to you as soon as we get it.	74857305	1473869657697	1473869657832	 	32
144745	1574636	We will forward it to you as soon as we get it.	We will forward it to you as soon as we get it.	74857312	1473869658113	1473869658252	w	87
144745	1574636	We will forward it to you as soon as we get it.	We will forward it to you as soon as we get it.	74857339	1473869658201	1473869658300	i	73
144745	1574636	We will forward it to you as soon as we get it.	We will forward it to you as soon as we get it.	74857342	1473869658363	1473869658432	l	76
144745	1574636	We will forward it to you as soon as we get it.	We will forward it to you as soon as we get it.	74857347	1473869658480	1473869658583	l	76
144745	1574636	We will forward it to you as soon as we get it.	We will forward it to you as soon as we get it.	74857351	1473869658621	1473869658749	 	32
144745	1574636	We will forward it to you as soon as we get it.	We will forward it to you as soon as we get it.	74857354	1473869658972	1473869659084	f	70
144745	1574636	We will forward it to you as soon as we get it.	We will forward it to you as soon as we get it.	74857404	1473869659082	1473869659165	o	79
144745	1574636	We will forward it to you as soon as we get it.	We will forward it to you as soon as we get it.	74857408	1473869659197	1473869659298	r	82
144745	1574636	We will forward it to you as soon as we get it.	We will forward it to you as soon as we get it.	74857411	1473869659407	1473869659514	w	87
144745	1574636	We will forward it to you as soon as we get it.	We will forward it to you as soon as we get it.	74857417	1473869659630	1473869659740	SHIFT	16
144745	1574636	We will forward it to you as soon as we get it.	We will forward it to you as soon as we get it.	74857424	1473869659802	1473869659946	r	82
144745	1574636	We will forward it to you as soon as we get it.	We will forward it to you as soon as we get it.	74857430	1473869660017	1473869660149	d	68
144745	1574636	We will forward it to you as soon as we get it.	We will forward it to you as soon as we get it.	74857550	1473869660146	1473869660249	 	32
144745	1574636	We will forward it to you as soon as we get it.	We will forward it to you as soon as we get it.	74857554	1473869660281	1473869660411	i	73
144745	1574636	We will forward it to you as soon as we get it.	We will forward it to you as soon as we get it.	74857560	1473869660506	1473869660645	t	84
144745	1574636	We will forward it to you as soon as we get it.	We will forward it to you as soon as we get it.	74857566	1473869660786	1473869660850	BKSP	8
144745	1574636	We will forward it to you as soon as we get it.	We will forward it to you as soon as we get it.	74857571	1473869660913	1473869660995	BKSP	8
144745	1574636	We will forward it to you as soon as we get it.	We will forward it to you as soon as we get it.	74857577	1473869661042	1473869661132	BKSP	8
144745	1574636	We will forward it to you as soon as we get it.	We will forward it to you as soon as we get it.	74857578	1473869661195	1473869661264	BKSP	8
144745	1574636	We will forward it to you as soon as we get it.	We will forward it to you as soon as we get it.	74857580	1473869661327	1473869661428	BKSP	8
144745	1574636	We will forward it to you as soon as we get it.	We will forward it to you as soon as we get it.	74857582	1473869661538	1473869661676	a	65
144745	1574636	We will forward it to you as soon as we get it.	We will forward it to you as soon as we get it.	74857584	1473869661755	1473869661878	r	82
144745	1574636	We will forward it to you as soon as we get it.	We will forward it to you as soon as we get it.	74857587	1473869661956	1473869662088	d	68
144745	1574636	We will forward it to you as soon as we get it.	We will forward it to you as soon as we get it.	74857591	1473869662046	1473869662159	 	32
144745	1574636	We will forward it to you as soon as we get it.	We will forward it to you as soon as we get it.	74857596	1473869662175	1473869662320	i	73
144745	1574636	We will forward it to you as soon as we get it.	We will forward it to you as soon as we get it.	74857604	1473869662307	1473869662417	t	84
144745	1574636	We will forward it to you as soon as we get it.	We will forward it to you as soon as we get it.	74857614	1473869662397	1473869662540	 	32
144745	1574636	We will forward it to you as soon as we get it.	We will forward it to you as soon as we get it.	74857618	1473869662527	1473869662657	t	84
144745	1574636	We will forward it to you as soon as we get it.	We will forward it to you as soon as we get it.	74857655	1473869662550	1473869662747	o	79
144745	1574636	We will forward it to you as soon as we get it.	We will forward it to you as soon as we get it.	74857663	1473869662740	1473869662858	 	32
144745	1574636	We will forward it to you as soon as we get it.	We will forward it to you as soon as we get it.	74857669	1473869663088	1473869663219	y	89
144745	1574636	We will forward it to you as soon as we get it.	We will forward it to you as soon as we get it.	74857676	1473869663180	1473869663327	o	79
144745	1574636	We will forward it to you as soon as we get it.	We will forward it to you as soon as we get it.	74857685	1473869663263	1473869663400	u	85
144745	1574636	We will forward it to you as soon as we get it.	We will forward it to you as soon as we get it.	74857719	1473869663389	1473869663520	 	32
144745	1574636	We will forward it to you as soon as we get it.	We will forward it to you as soon as we get it.	74857722	1473869663692	1473869663880	a	65
144745	1574636	We will forward it to you as soon as we get it.	We will forward it to you as soon as we get it.	74857726	1473869663810	1473869663957	s	83
144745	1574636	We will forward it to you as soon as we get it.	We will forward it to you as soon as we get it.	74857733	1473869663962	1473869664106	 	32
144745	1574636	We will forward it to you as soon as we get it.	We will forward it to you as soon as we get it.	74857742	1473869664104	1473869664230	s	83
144745	1574636	We will forward it to you as soon as we get it.	We will forward it to you as soon as we get it.	74857828	1473869664179	1473869664315	o	79
144745	1574636	We will forward it to you as soon as we get it.	We will forward it to you as soon as we get it.	74857832	1473869664376	1473869664493	o	79
144745	1574636	We will forward it to you as soon as we get it.	We will forward it to you as soon as we get it.	74857834	1473869664727	1473869664826	n	78
144745	1574636	We will forward it to you as soon as we get it.	We will forward it to you as soon as we get it.	74857839	1473869664936	1473869665043	 	32
144745	1574636	We will forward it to you as soon as we get it.	We will forward it to you as soon as we get it.	74857843	1473869665105	1473869665254	a	65
144745	1574636	We will forward it to you as soon as we get it.	We will forward it to you as soon as we get it.	74857849	1473869665441	1473869665570	s	83
144745	1574636	We will forward it to you as soon as we get it.	We will forward it to you as soon as we get it.	74857885	1473869665617	1473869665710	 	32
144745	1574636	We will forward it to you as soon as we get it.	We will forward it to you as soon as we get it.	74857892	1473869665756	1473869665950	w	87
144745	1574636	We will forward it to you as soon as we get it.	We will forward it to you as soon as we get it.	74857897	1473869665903	1473869666041	e	69
144745	1574636	We will forward it to you as soon as we get it.	We will forward it to you as soon as we get it.	74857905	1473869666072	1473869666175	 	32
144745	1574636	We will forward it to you as soon as we get it.	We will forward it to you as soon as we get it.	74857913	1473869666409	1473869666510	g	71
144745	1574636	We will forward it to you as soon as we get it.	We will forward it to you as soon as we get it.	74857966	1473869666516	1473869666639	e	69
144745	1574636	We will forward it to you as soon as we get it.	We will forward it to you as soon as we get it.	74857974	1473869666589	1473869666689	t	84
144745	1574636	We will forward it to you as soon as we get it.	We will forward it to you as soon as we get it.	74857988	1473869666720	1473869666840	 	32
144745	1574636	We will forward it to you as soon as we get it.	We will forward it to you as soon as we get it.	74857999	1473869667090	1473869667174	i	73
144745	1574636	We will forward it to you as soon as we get it.	We will forward it to you as soon as we get it.	74858011	1473869667237	1473869667373	t	84
144745	1574636	We will forward it to you as soon as we get it.	We will forward it to you as soon as we get it.	74858029	1473869667560	1473869667673	.	190
144745	1574654	Please set something up.	Please set something up.	74858395	1473869670743	1473869671123	SHIFT	16
144745	1574654	Please set something up.	Please set something up.	74858391	1473869670852	1473869670920	{	219
144745	1574654	Please set something up.	Please set something up.	74858399	1473869671767	1473869671866	BKSP	8
144745	1574654	Please set something up.	Please set something up.	74858404	1473869671913	1473869672168	SHIFT	16
144745	1574654	Please set something up.	Please set something up.	74858408	1473869672054	1473869672205	P	80
144745	1574654	Please set something up.	Please set something up.	74858412	1473869672168	1473869672283	k	75
144745	1574654	Please set something up.	Please set something up.	74858417	1473869672361	1473869672484	e	69
144745	1574654	Please set something up.	Please set something up.	74858422	1473869672500	1473869672684	a	65
144745	1574654	Please set something up.	Please set something up.	74858701	1473869672617	1473869672786	s	83
144745	1574654	Please set something up.	Please set something up.	74858703	1473869673020	1473869673103	BKSP	8
144745	1574654	Please set something up.	Please set something up.	74858705	1473869673150	1473869673249	BKSP	8
144745	1574654	Please set something up.	Please set something up.	74858707	1473869673296	1473869673387	BKSP	8
144745	1574654	Please set something up.	Please set something up.	74858709	1473869673433	1473869673532	BKSP	8
144745	1574654	Please set something up.	Please set something up.	74858713	1473869673860	1473869673935	k	75
144745	1574654	Please set something up.	Please set something up.	74858717	1473869676967	1473869677097	l	76
144745	1574654	Please set something up.	Please set something up.	74858723	1473869677105	1473869677258	e	69
144745	1574654	Please set something up.	Please set something up.	74858730	1473869677216	1473869677474	a	65
144745	1574654	Please set something up.	Please set something up.	74858761	1473869677390	1473869677552	s	83
144745	1574654	Please set something up.	Please set something up.	74858763	1473869677612	1473869677728	e	69
144745	1574654	Please set something up.	Please set something up.	74858766	1473869677722	1473869677851	 	32
144745	1574654	Please set something up.	Please set something up.	74858767	1473869677903	1473869678033	s	83
144745	1574654	Please set something up.	Please set something up.	74858769	1473869678108	1473869678228	e	69
144745	1574654	Please set something up.	Please set something up.	74858772	1473869678287	1473869678378	t	84
144745	1574654	Please set something up.	Please set something up.	74858780	1473869678402	1473869678531	 	32
144745	1574654	Please set something up.	Please set something up.	74858782	1473869678593	1473869678739	s	83
144745	1574654	Please set something up.	Please set something up.	74858785	1473869678735	1473869678890	o	79
144745	1574654	Please set something up.	Please set something up.	74858789	1473869678834	1473869678960	m	77
144745	1574654	Please set something up.	Please set something up.	74858794	1473869678898	1473869679011	e	69
144745	1574654	Please set something up.	Please set something up.	74858795	1473869679105	1473869679241	t	84
144745	1574654	Please set something up.	Please set something up.	74858797	1473869679208	1473869679294	h	72
144745	1574654	Please set something up.	Please set something up.	74858800	1473869679263	1473869679463	i	73
144745	1574654	Please set something up.	Please set something up.	74858804	1473869679409	1473869679549	n	78
144745	1574654	Please set something up.	Please set something up.	74858876	1473869679542	1473869679672	g	71
144745	1574654	Please set something up.	Please set something up.	74858883	1473869679704	1473869679826	 	32
144745	1574654	Please set something up.	Please set something up.	74858888	1473869679983	1473869680093	u	85
144745	1574654	Please set something up.	Please set something up.	74858891	1473869680124	1473869680246	p	80
144745	1574654	Please set something up.	Please set something up.	74858897	1473869680356	1473869680476	.	190
144745	1574674	Hours are listed in 24hr format central time.	Hours are listed in 24hr format central time.	74859423	1473869686644	1473869686886	SHIFT	16
144745	1574674	Hours are listed in 24hr format central time.	Hours are listed in 24hr format central time.	74859429	1473869686805	1473869686901	H	72
144745	1574674	Hours are listed in 24hr format central time.	Hours are listed in 24hr format central time.	74859433	1473869686948	1473869687120	o	79
144745	1574674	Hours are listed in 24hr format central time.	Hours are listed in 24hr format central time.	74859436	1473869687053	1473869687183	u	85
144745	1574674	Hours are listed in 24hr format central time.	Hours are listed in 24hr format central time.	74859438	1473869687214	1473869687351	r	82
144745	1574674	Hours are listed in 24hr format central time.	Hours are listed in 24hr format central time.	74859440	1473869687429	1473869687549	s	83
144745	1574674	Hours are listed in 24hr format central time.	Hours are listed in 24hr format central time.	74859470	1473869687594	1473869687718	 	32
144745	1574674	Hours are listed in 24hr format central time.	Hours are listed in 24hr format central time.	74859472	1473869687733	1473869687834	a	65
144745	1574674	Hours are listed in 24hr format central time.	Hours are listed in 24hr format central time.	74859476	1473869687928	1473869688082	r	82
144745	1574674	Hours are listed in 24hr format central time.	Hours are listed in 24hr format central time.	74859478	1473869688098	1473869688246	e	69
144745	1574674	Hours are listed in 24hr format central time.	Hours are listed in 24hr format central time.	74859479	1473869688308	1473869688415	 	32
144745	1574674	Hours are listed in 24hr format central time.	Hours are listed in 24hr format central time.	74859533	1473869688553	1473869688635	l	76
144745	1574674	Hours are listed in 24hr format central time.	Hours are listed in 24hr format central time.	74859535	1473869688714	1473869688815	i	73
144745	1574674	Hours are listed in 24hr format central time.	Hours are listed in 24hr format central time.	74859538	1473869688831	1473869688965	s	83
144745	1574674	Hours are listed in 24hr format central time.	Hours are listed in 24hr format central time.	74859541	1473869689028	1473869689117	t	84
144745	1574674	Hours are listed in 24hr format central time.	Hours are listed in 24hr format central time.	74859544	1473869689117	1473869689300	e	69
144745	1574674	Hours are listed in 24hr format central time.	Hours are listed in 24hr format central time.	74859614	1473869689232	1473869689361	d	68
144745	1574674	Hours are listed in 24hr format central time.	Hours are listed in 24hr format central time.	74859618	1473869689386	1473869689531	 	32
144745	1574674	Hours are listed in 24hr format central time.	Hours are listed in 24hr format central time.	74859624	1473869689593	1473869689759	i	73
144745	1574674	Hours are listed in 24hr format central time.	Hours are listed in 24hr format central time.	74859628	1473869689700	1473869689830	n	78
144745	1574674	Hours are listed in 24hr format central time.	Hours are listed in 24hr format central time.	74859633	1473869689955	1473869690066	 	32
144745	1574674	Hours are listed in 24hr format central time.	Hours are listed in 24hr format central time.	74859639	1473869690456	1473869690580	2	50
144745	1574674	Hours are listed in 24hr format central time.	Hours are listed in 24hr format central time.	74859706	1473869690648	1473869690732	4	52
144745	1574674	Hours are listed in 24hr format central time.	Hours are listed in 24hr format central time.	74859709	1473869690919	1473869691015	h	72
144745	1574674	Hours are listed in 24hr format central time.	Hours are listed in 24hr format central time.	74859715	1473869691117	1473869691214	r	82
144745	1574674	Hours are listed in 24hr format central time.	Hours are listed in 24hr format central time.	74859719	1473869691292	1473869691381	 	32
144745	1574674	Hours are listed in 24hr format central time.	Hours are listed in 24hr format central time.	74859726	1473869691657	1473869691765	f	70
144745	1574674	Hours are listed in 24hr format central time.	Hours are listed in 24hr format central time.	74859832	1473869692093	1473869692197	o	79
144745	1574674	Hours are listed in 24hr format central time.	Hours are listed in 24hr format central time.	74859839	1473869692291	1473869692427	r	82
144745	1574674	Hours are listed in 24hr format central time.	Hours are listed in 24hr format central time.	74859847	1473869692828	1473869692931	m	77
144745	1574674	Hours are listed in 24hr format central time.	Hours are listed in 24hr format central time.	74859854	1473869692946	1473869693046	a	65
144745	1574674	Hours are listed in 24hr format central time.	Hours are listed in 24hr format central time.	74859861	1473869693171	1473869693303	t	84
144745	1574674	Hours are listed in 24hr format central time.	Hours are listed in 24hr format central time.	74859951	1473869693292	1473869693412	 	32
144745	1574674	Hours are listed in 24hr format central time.	Hours are listed in 24hr format central time.	74859956	1473869694054	1473869694159	c	67
144745	1574674	Hours are listed in 24hr format central time.	Hours are listed in 24hr format central time.	74859961	1473869694190	1473869694325	e	69
144745	1574674	Hours are listed in 24hr format central time.	Hours are listed in 24hr format central time.	74859968	1473869694325	1473869694430	n	78
144745	1574674	Hours are listed in 24hr format central time.	Hours are listed in 24hr format central time.	74859974	1473869694445	1473869694590	t	84
144745	1574674	Hours are listed in 24hr format central time.	Hours are listed in 24hr format central time.	74859979	1473869694715	1473869694842	r	82
144745	1574674	Hours are listed in 24hr format central time.	Hours are listed in 24hr format central time.	74860011	1473869694922	1473869694996	a	65
144745	1574674	Hours are listed in 24hr format central time.	Hours are listed in 24hr format central time.	74860017	1473869695043	1473869695144	l	76
144745	1574674	Hours are listed in 24hr format central time.	Hours are listed in 24hr format central time.	74860025	1473869695191	1473869695323	 	32
144745	1574674	Hours are listed in 24hr format central time.	Hours are listed in 24hr format central time.	74860033	1473869695310	1473869695445	t	84
144745	1574674	Hours are listed in 24hr format central time.	Hours are listed in 24hr format central time.	74860080	1473869695380	1473869695582	i	73
144745	1574674	Hours are listed in 24hr format central time.	Hours are listed in 24hr format central time.	74860085	1473869695528	1473869695641	m	77
144745	1574674	Hours are listed in 24hr format central time.	Hours are listed in 24hr format central time.	74860089	1473869695641	1473869695771	e	69
144745	1574693	Megan, I'm not sure why this is showing up.	Megan, I'm not sure why this is showing up.	74861369	1473869696021	1473869713156	.	190
144745	1574693	Megan, I'm not sure why this is showing up.	Megan, I'm not sure why this is showing up.	74860546	1473869702311	1473869702523	SHIFT	16
144745	1574693	Megan, I'm not sure why this is showing up.	Megan, I'm not sure why this is showing up.	74860550	1473869702453	1473869702570	M	77
144745	1574693	Megan, I'm not sure why this is showing up.	Megan, I'm not sure why this is showing up.	74860556	1473869702601	1473869702712	e	69
144745	1574693	Megan, I'm not sure why this is showing up.	Megan, I'm not sure why this is showing up.	74860562	1473869702775	1473869702854	g	71
144745	1574693	Megan, I'm not sure why this is showing up.	Megan, I'm not sure why this is showing up.	74860568	1473869702869	1473869703015	a	65
144745	1574693	Megan, I'm not sure why this is showing up.	Megan, I'm not sure why this is showing up.	74860572	1473869703033	1473869703101	n	78
144745	1574693	Megan, I'm not sure why this is showing up.	Megan, I'm not sure why this is showing up.	74860733	1473869703555	1473869703636	,	188
144745	1574693	Megan, I'm not sure why this is showing up.	Megan, I'm not sure why this is showing up.	74860736	1473869703839	1473869704279	SHIFT	16
144745	1574693	Megan, I'm not sure why this is showing up.	Megan, I'm not sure why this is showing up.	74860740	1473869704389	1473869704500	 	32
144745	1574693	Megan, I'm not sure why this is showing up.	Megan, I'm not sure why this is showing up.	74860749	1473869704500	1473869704862	SHIFT	16
144745	1574693	Megan, I'm not sure why this is showing up.	Megan, I'm not sure why this is showing up.	74860743	1473869704688	1473869704784	I	73
144745	1574693	Megan, I'm not sure why this is showing up.	Megan, I'm not sure why this is showing up.	74860756	1473869705128	1473869705250	'	222
144745	1574693	Megan, I'm not sure why this is showing up.	Megan, I'm not sure why this is showing up.	74860764	1473869705328	1473869705433	m	77
144745	1574693	Megan, I'm not sure why this is showing up.	Megan, I'm not sure why this is showing up.	74860819	1473869705483	1473869705583	 	32
144745	1574693	Megan, I'm not sure why this is showing up.	Megan, I'm not sure why this is showing up.	74860823	1473869705630	1473869705788	n	78
144745	1574693	Megan, I'm not sure why this is showing up.	Megan, I'm not sure why this is showing up.	74860828	1473869705747	1473869705900	o	79
144745	1574693	Megan, I'm not sure why this is showing up.	Megan, I'm not sure why this is showing up.	74860834	1473869705834	1473869705947	t	84
144745	1574693	Megan, I'm not sure why this is showing up.	Megan, I'm not sure why this is showing up.	74860840	1473869706257	1473869706381	 	32
144745	1574693	Megan, I'm not sure why this is showing up.	Megan, I'm not sure why this is showing up.	74860875	1473869706426	1473869706540	s	83
144745	1574693	Megan, I'm not sure why this is showing up.	Megan, I'm not sure why this is showing up.	74860877	1473869706516	1473869706616	u	85
144745	1574693	Megan, I'm not sure why this is showing up.	Megan, I'm not sure why this is showing up.	74860879	1473869706647	1473869706806	r	82
144745	1574693	Megan, I'm not sure why this is showing up.	Megan, I'm not sure why this is showing up.	74860881	1473869706748	1473869706890	e	69
144745	1574693	Megan, I'm not sure why this is showing up.	Megan, I'm not sure why this is showing up.	74861008	1473869706865	1473869706996	 	32
144745	1574693	Megan, I'm not sure why this is showing up.	Megan, I'm not sure why this is showing up.	74861018	1473869707028	1473869707192	w	87
144745	1574693	Megan, I'm not sure why this is showing up.	Megan, I'm not sure why this is showing up.	74861028	1473869707192	1473869707283	h	72
144745	1574693	Megan, I'm not sure why this is showing up.	Megan, I'm not sure why this is showing up.	74861034	1473869707377	1473869707463	t	84
144745	1574693	Megan, I'm not sure why this is showing up.	Megan, I'm not sure why this is showing up.	74861039	1473869707494	1473869707613	 	32
144745	1574693	Megan, I'm not sure why this is showing up.	Megan, I'm not sure why this is showing up.	74861043	1473869708196	1473869708298	BKSP	8
144745	1574693	Megan, I'm not sure why this is showing up.	Megan, I'm not sure why this is showing up.	74861044	1473869708799	1473869708920	y	89
144745	1574693	Megan, I'm not sure why this is showing up.	Megan, I'm not sure why this is showing up.	74861058	1473869708896	1473869708996	 	32
144745	1574693	Megan, I'm not sure why this is showing up.	Megan, I'm not sure why this is showing up.	74861063	1473869709043	1473869709163	t	84
144745	1574693	Megan, I'm not sure why this is showing up.	Megan, I'm not sure why this is showing up.	74861070	1473869709083	1473869709246	h	72
144745	1574693	Megan, I'm not sure why this is showing up.	Megan, I'm not sure why this is showing up.	74861075	1473869709210	1473869709375	i	73
144745	1574693	Megan, I'm not sure why this is showing up.	Megan, I'm not sure why this is showing up.	74861080	1473869709406	1473869709540	s	83
144745	1574693	Megan, I'm not sure why this is showing up.	Megan, I'm not sure why this is showing up.	74861160	1473869709512	1473869709620	 	32
144745	1574693	Megan, I'm not sure why this is showing up.	Megan, I'm not sure why this is showing up.	74861169	1473869709635	1473869709757	i	73
144745	1574693	Megan, I'm not sure why this is showing up.	Megan, I'm not sure why this is showing up.	74861175	1473869709772	1473869709869	s	83
144745	1574693	Megan, I'm not sure why this is showing up.	Megan, I'm not sure why this is showing up.	74861182	1473869709832	1473869709958	 	32
144745	1574693	Megan, I'm not sure why this is showing up.	Megan, I'm not sure why this is showing up.	74861187	1473869710005	1473869710062	a	65
144745	1574693	Megan, I'm not sure why this is showing up.	Megan, I'm not sure why this is showing up.	74861192	1473869710737	1473869710829	BKSP	8
144745	1574693	Megan, I'm not sure why this is showing up.	Megan, I'm not sure why this is showing up.	74861196	1473869710876	1473869710990	s	83
144745	1574693	Megan, I'm not sure why this is showing up.	Megan, I'm not sure why this is showing up.	74861226	1473869711007	1473869711108	h	72
144745	1574693	Megan, I'm not sure why this is showing up.	Megan, I'm not sure why this is showing up.	74861230	1473869711217	1473869711344	o	79
144745	1574693	Megan, I'm not sure why this is showing up.	Megan, I'm not sure why this is showing up.	74861237	1473869711344	1473869711473	w	87
144745	1574693	Megan, I'm not sure why this is showing up.	Megan, I'm not sure why this is showing up.	74861239	1473869711510	1473869711744	i	73
144745	1574693	Megan, I'm not sure why this is showing up.	Megan, I'm not sure why this is showing up.	74861346	1473869711679	1473869711823	n	78
144745	1574693	Megan, I'm not sure why this is showing up.	Megan, I'm not sure why this is showing up.	74861349	1473869712057	1473869712176	g	71
144745	1574693	Megan, I'm not sure why this is showing up.	Megan, I'm not sure why this is showing up.	74861354	1473869712176	1473869712290	 	32
144745	1574693	Megan, I'm not sure why this is showing up.	Megan, I'm not sure why this is showing up.	74861359	1473869712399	1473869712493	u	85
144745	1574693	Megan, I'm not sure why this is showing up.	Megan, I'm not sure why this is showing up.	74861364	1473869712728	1473869712826	p	80
144745	1574718	He cannot be in two places at once.	He cannot be in two places at once.	74861609	1473869716875	1473869717105	SHIFT	16
144745	1574718	He cannot be in two places at once.	He cannot be in two places at once.	74861614	1473869717035	1473869717137	H	72
144745	1574718	He cannot be in two places at once.	He cannot be in two places at once.	74861620	1473869717184	1473869717283	e	69
144745	1574718	He cannot be in two places at once.	He cannot be in two places at once.	74861626	1473869717271	1473869717402	 	32
144745	1574718	He cannot be in two places at once.	He cannot be in two places at once.	74861630	1473869717449	1473869717554	c	67
144745	1574718	He cannot be in two places at once.	He cannot be in two places at once.	74861637	1473869717570	1473869717718	o	79
144745	1574718	He cannot be in two places at once.	He cannot be in two places at once.	74861772	1473869717750	1473869717823	n	78
144745	1574718	He cannot be in two places at once.	He cannot be in two places at once.	74861777	1473869717886	1473869717986	n	78
144745	1574718	He cannot be in two places at once.	He cannot be in two places at once.	74861785	1473869718002	1473869718171	a	65
144745	1574718	He cannot be in two places at once.	He cannot be in two places at once.	74861792	1473869718135	1473869718253	o	79
144745	1574718	He cannot be in two places at once.	He cannot be in two places at once.	74861799	1473869718503	1473869718585	BKSP	8
144745	1574718	He cannot be in two places at once.	He cannot be in two places at once.	74861807	1473869718648	1473869718737	BKSP	8
144745	1574718	He cannot be in two places at once.	He cannot be in two places at once.	74861813	1473869718799	1473869718886	BKSP	8
144745	1574718	He cannot be in two places at once.	He cannot be in two places at once.	74861820	1473869718948	1473869719022	BKSP	8
144745	1574718	He cannot be in two places at once.	He cannot be in two places at once.	74861826	1473869719053	1473869719136	BKSP	8
144745	1574718	He cannot be in two places at once.	He cannot be in two places at once.	74861831	1473869719202	1473869719318	a	65
144745	1574718	He cannot be in two places at once.	He cannot be in two places at once.	74861871	1473869719333	1473869719453	n	78
144745	1574718	He cannot be in two places at once.	He cannot be in two places at once.	74861878	1473869719578	1473869719685	n	78
144745	1574718	He cannot be in two places at once.	He cannot be in two places at once.	74861887	1473869720046	1473869720136	o	79
144745	1574718	He cannot be in two places at once.	He cannot be in two places at once.	74861895	1473869720196	1473869720300	t	84
144745	1574718	He cannot be in two places at once.	He cannot be in two places at once.	74861902	1473869720315	1473869720399	 	32
144745	1574718	He cannot be in two places at once.	He cannot be in two places at once.	74861946	1473869720517	1473869720602	b	66
144745	1574718	He cannot be in two places at once.	He cannot be in two places at once.	74861953	1473869720642	1473869720746	e	69
144745	1574718	He cannot be in two places at once.	He cannot be in two places at once.	74861962	1473869720746	1473869720880	 	32
144745	1574718	He cannot be in two places at once.	He cannot be in two places at once.	74861968	1473869720896	1473869721067	i	73
144745	1574718	He cannot be in two places at once.	He cannot be in two places at once.	74862009	1473869721035	1473869721141	n	78
144745	1574718	He cannot be in two places at once.	He cannot be in two places at once.	74862012	1473869721188	1473869721322	 	32
144745	1574718	He cannot be in two places at once.	He cannot be in two places at once.	74862016	1473869721354	1473869721496	t	84
144745	1574718	He cannot be in two places at once.	He cannot be in two places at once.	74862020	1473869721527	1473869721666	w	87
144745	1574718	He cannot be in two places at once.	He cannot be in two places at once.	74862026	1473869721601	1473869721713	o	79
144745	1574718	He cannot be in two places at once.	He cannot be in two places at once.	74862033	1473869721744	1473869721880	 	32
144745	1574718	He cannot be in two places at once.	He cannot be in two places at once.	74862087	1473869722119	1473869722290	p	80
144745	1574718	He cannot be in two places at once.	He cannot be in two places at once.	74862092	1473869722233	1473869722335	l	76
144745	1574718	He cannot be in two places at once.	He cannot be in two places at once.	74862098	1473869722266	1473869722398	a	65
144745	1574718	He cannot be in two places at once.	He cannot be in two places at once.	74862102	1473869722491	1473869722580	c	67
144745	1574718	He cannot be in two places at once.	He cannot be in two places at once.	74862106	1473869722580	1473869722698	e	69
144745	1574718	He cannot be in two places at once.	He cannot be in two places at once.	74862144	1473869722788	1473869722911	s	83
144745	1574718	He cannot be in two places at once.	He cannot be in two places at once.	74862148	1473869722926	1473869723048	 	32
144745	1574718	He cannot be in two places at once.	He cannot be in two places at once.	74862154	1473869723047	1473869723179	a	65
144745	1574718	He cannot be in two places at once.	He cannot be in two places at once.	74862158	1473869723257	1473869723415	t	84
144745	1574718	He cannot be in two places at once.	He cannot be in two places at once.	74862255	1473869723411	1473869723512	 	32
144745	1574718	He cannot be in two places at once.	He cannot be in two places at once.	74862258	1473869723543	1473869723743	o	79
144745	1574718	He cannot be in two places at once.	He cannot be in two places at once.	74862261	1473869723692	1473869723794	n	78
144745	1574718	He cannot be in two places at once.	He cannot be in two places at once.	74862265	1473869723924	1473869724104	c	67
144745	1574718	He cannot be in two places at once.	He cannot be in two places at once.	74862267	1473869724059	1473869724211	e	69
144745	1574718	He cannot be in two places at once.	He cannot be in two places at once.	74862271	1473869724492	1473869724580	.	190
144745	1574732	Please call tomorrow if possible.	Please call tomorrow if possible.	74862593	1473869729158	1473869729360	SHIFT	16
144745	1574732	Please call tomorrow if possible.	Please call tomorrow if possible.	74862598	1473869729277	1473869729404	P	80
144745	1574732	Please call tomorrow if possible.	Please call tomorrow if possible.	74862608	1473869729357	1473869729489	L	76
144745	1574732	Please call tomorrow if possible.	Please call tomorrow if possible.	74862616	1473869729523	1473869729679	e	69
144745	1574732	Please call tomorrow if possible.	Please call tomorrow if possible.	74862625	1473869729672	1473869729828	a	65
144745	1574732	Please call tomorrow if possible.	Please call tomorrow if possible.	74862781	1473869729776	1473869729948	s	83
144745	1574732	Please call tomorrow if possible.	Please call tomorrow if possible.	74862783	1473869730017	1473869730126	e	69
144745	1574732	Please call tomorrow if possible.	Please call tomorrow if possible.	74862787	1473869730110	1473869730240	 	32
144745	1574732	Please call tomorrow if possible.	Please call tomorrow if possible.	74862791	1473869730485	1473869730559	BKSP	8
144745	1574732	Please call tomorrow if possible.	Please call tomorrow if possible.	74862795	1473869730606	1473869730689	BKSP	8
144745	1574732	Please call tomorrow if possible.	Please call tomorrow if possible.	74862800	1473869730752	1473869730840	BKSP	8
144745	1574732	Please call tomorrow if possible.	Please call tomorrow if possible.	74862806	1473869730903	1473869730975	BKSP	8
144745	1574732	Please call tomorrow if possible.	Please call tomorrow if possible.	74862813	1473869731037	1473869731109	BKSP	8
144745	1574732	Please call tomorrow if possible.	Please call tomorrow if possible.	74862823	1473869731187	1473869731243	BKSP	8
144745	1574732	Please call tomorrow if possible.	Please call tomorrow if possible.	74862831	1473869731566	1473869731657	l	76
144745	1574732	Please call tomorrow if possible.	Please call tomorrow if possible.	74862839	1473869731672	1473869731816	e	69
144745	1574732	Please call tomorrow if possible.	Please call tomorrow if possible.	74862854	1473869731786	1473869732006	a	65
144745	1574732	Please call tomorrow if possible.	Please call tomorrow if possible.	74862858	1473869731919	1473869732068	s	83
144745	1574732	Please call tomorrow if possible.	Please call tomorrow if possible.	74862865	1473869732115	1473869732236	e	69
144745	1574732	Please call tomorrow if possible.	Please call tomorrow if possible.	74862870	1473869732253	1473869732368	 	32
144745	1574732	Please call tomorrow if possible.	Please call tomorrow if possible.	74862876	1473869732383	1473869732480	c	67
144745	1574732	Please call tomorrow if possible.	Please call tomorrow if possible.	74862976	1473869732511	1473869732638	a	65
144745	1574732	Please call tomorrow if possible.	Please call tomorrow if possible.	74862881	1473869732549	1473869732620	l	76
144745	1574732	Please call tomorrow if possible.	Please call tomorrow if possible.	74862984	1473869733107	1473869733204	l	76
144745	1574732	Please call tomorrow if possible.	Please call tomorrow if possible.	74862991	1473869733391	1473869733471	 	32
144745	1574732	Please call tomorrow if possible.	Please call tomorrow if possible.	74862998	1473869733785	1473869733903	t	84
144745	1574732	Please call tomorrow if possible.	Please call tomorrow if possible.	74863004	1473869733918	1473869734128	o	79
144745	1574732	Please call tomorrow if possible.	Please call tomorrow if possible.	74863115	1473869734097	1473869734251	m	77
144745	1574732	Please call tomorrow if possible.	Please call tomorrow if possible.	74863119	1473869734501	1473869734617	o	79
144745	1574732	Please call tomorrow if possible.	Please call tomorrow if possible.	74863124	1473869735370	1473869735454	r	82
144745	1574732	Please call tomorrow if possible.	Please call tomorrow if possible.	74863130	1473869735516	1473869735581	r	82
144745	1574732	Please call tomorrow if possible.	Please call tomorrow if possible.	74863134	1473869735612	1473869735701	o	79
144745	1574732	Please call tomorrow if possible.	Please call tomorrow if possible.	74863144	1473869735748	1473869735866	w	87
144745	1574732	Please call tomorrow if possible.	Please call tomorrow if possible.	74863232	1473869735893	1473869736001	 	32
144745	1574732	Please call tomorrow if possible.	Please call tomorrow if possible.	74863235	1473869736471	1473869736537	i	73
144745	1574732	Please call tomorrow if possible.	Please call tomorrow if possible.	74863244	1473869736724	1473869736817	f	70
144745	1574732	Please call tomorrow if possible.	Please call tomorrow if possible.	74863249	1473869736833	1473869736965	 	32
144745	1574732	Please call tomorrow if possible.	Please call tomorrow if possible.	74863256	1473869737027	1473869737134	p	80
144745	1574732	Please call tomorrow if possible.	Please call tomorrow if possible.	74863300	1473869737213	1473869737300	o	79
144745	1574732	Please call tomorrow if possible.	Please call tomorrow if possible.	74863308	1473869737331	1473869737431	s	83
144745	1574732	Please call tomorrow if possible.	Please call tomorrow if possible.	74863319	1473869737494	1473869737605	s	83
144745	1574732	Please call tomorrow if possible.	Please call tomorrow if possible.	74863328	1473869737636	1473869737764	i	73
144745	1574732	Please call tomorrow if possible.	Please call tomorrow if possible.	74863334	1473869737829	1473869737932	b	66
144745	1574732	Please call tomorrow if possible.	Please call tomorrow if possible.	74863363	1473869738071	1473869738182	l	76
144745	1574732	Please call tomorrow if possible.	Please call tomorrow if possible.	74863372	1473869738229	1473869738348	e	69
144745	1574732	Please call tomorrow if possible.	Please call tomorrow if possible.	74863378	1473869738443	1473869738532	.	190
144745	1574756	Are you back in town?	Are you back in town?	74863715	1473869741683	1473869741912	SHIFT	16
144745	1574756	Are you back in town?	Are you back in town?	74863717	1473869741809	1473869741990	A	65
144745	1574756	Are you back in town?	Are you back in town?	74863719	1473869742084	1473869742211	r	82
144745	1574756	Are you back in town?	Are you back in town?	74863722	1473869742176	1473869742289	e	69
144745	1574756	Are you back in town?	Are you back in town?	74863726	1473869742358	1473869742488	 	32
144745	1574756	Are you back in town?	Are you back in town?	74863758	1473869742484	1473869742578	y	89
144745	1574756	Are you back in town?	Are you back in town?	74863761	1473869742578	1473869742729	o	79
144745	1574756	Are you back in town?	Are you back in town?	74863768	1473869742659	1473869742826	u	85
144745	1574756	Are you back in town?	Are you back in town?	74863771	1473869742775	1473869742877	 	32
144745	1574756	Are you back in town?	Are you back in town?	74863775	1473869742939	1473869743013	b	66
144745	1574756	Are you back in town?	Are you back in town?	74863780	1473869743029	1473869743172	a	65
144745	1574756	Are you back in town?	Are you back in town?	74863815	1473869743217	1473869743398	c	67
144745	1574756	Are you back in town?	Are you back in town?	74863817	1473869743358	1473869743473	k	75
144745	1574756	Are you back in town?	Are you back in town?	74863821	1473869743504	1473869743646	 	32
144745	1574756	Are you back in town?	Are you back in town?	74863824	1473869743593	1473869743765	i	73
144745	1574756	Are you back in town?	Are you back in town?	74863857	1473869743708	1473869743831	n	78
144745	1574756	Are you back in town?	Are you back in town?	74863860	1473869743862	1473869743976	 	32
144745	1574756	Are you back in town?	Are you back in town?	74863869	1473869744023	1473869744115	t	84
144745	1574756	Are you back in town?	Are you back in town?	74863874	1473869744077	1473869744208	o	79
144745	1574756	Are you back in town?	Are you back in town?	74863882	1473869744255	1473869744394	w	87
144745	1574756	Are you back in town?	Are you back in town?	74863903	1473869744345	1473869744423	n	78
144745	1574756	Are you back in town?	Are you back in town?	74863906	1473869744627	1473869744844	SHIFT	16
144745	1574756	Are you back in town?	Are you back in town?	74863911	1473869744768	1473869744929	?	191
144745	1574765	Arkansas called in 32 extra state police to the prison.	Arkansas called in 32 extra state police to the prison.	74864576	1473869753409	1473869753648	SHIFT	16
144745	1574765	Arkansas called in 32 extra state police to the prison.	Arkansas called in 32 extra state police to the prison.	74864578	1473869753549	1473869753711	A	65
144745	1574765	Arkansas called in 32 extra state police to the prison.	Arkansas called in 32 extra state police to the prison.	74864581	1473869753836	1473869753946	r	82
144745	1574765	Arkansas called in 32 extra state police to the prison.	Arkansas called in 32 extra state police to the prison.	74864584	1473869753993	1473869754098	k	75
144745	1574765	Arkansas called in 32 extra state police to the prison.	Arkansas called in 32 extra state police to the prison.	74864586	1473869754114	1473869754230	a	65
144745	1574765	Arkansas called in 32 extra state police to the prison.	Arkansas called in 32 extra state police to the prison.	74864588	1473869754278	1473869754366	n	78
144745	1574765	Arkansas called in 32 extra state police to the prison.	Arkansas called in 32 extra state police to the prison.	74864682	1473869754566	1473869754744	s	83
144745	1574765	Arkansas called in 32 extra state police to the prison.	Arkansas called in 32 extra state police to the prison.	74864691	1473869754776	1473869754976	a	65
144745	1574765	Arkansas called in 32 extra state police to the prison.	Arkansas called in 32 extra state police to the prison.	74864698	1473869754927	1473869755046	s	83
144745	1574765	Arkansas called in 32 extra state police to the prison.	Arkansas called in 32 extra state police to the prison.	74864704	1473869755342	1473869755431	 	32
144745	1574765	Arkansas called in 32 extra state police to the prison.	Arkansas called in 32 extra state police to the prison.	74864707	1473869755681	1473869755813	c	67
144745	1574765	Arkansas called in 32 extra state police to the prison.	Arkansas called in 32 extra state police to the prison.	74864752	1473869755795	1473869755929	a	65
144745	1574765	Arkansas called in 32 extra state police to the prison.	Arkansas called in 32 extra state police to the prison.	74864753	1473869755958	1473869756046	l	76
144745	1574765	Arkansas called in 32 extra state police to the prison.	Arkansas called in 32 extra state police to the prison.	74864756	1473869756109	1473869756184	l	76
144745	1574765	Arkansas called in 32 extra state police to the prison.	Arkansas called in 32 extra state police to the prison.	74864758	1473869756164	1473869756315	e	69
144745	1574765	Arkansas called in 32 extra state police to the prison.	Arkansas called in 32 extra state police to the prison.	74864760	1473869756265	1473869756391	d	68
144745	1574765	Arkansas called in 32 extra state police to the prison.	Arkansas called in 32 extra state police to the prison.	74864764	1473869756442	1473869756559	 	32
144745	1574765	Arkansas called in 32 extra state police to the prison.	Arkansas called in 32 extra state police to the prison.	74864878	1473869757092	1473869757237	i	73
144745	1574765	Arkansas called in 32 extra state police to the prison.	Arkansas called in 32 extra state police to the prison.	74864882	1473869757208	1473869757310	n	78
144745	1574765	Arkansas called in 32 extra state police to the prison.	Arkansas called in 32 extra state police to the prison.	74864888	1473869757645	1473869757745	 	32
144745	1574765	Arkansas called in 32 extra state police to the prison.	Arkansas called in 32 extra state police to the prison.	74864895	1473869757855	1473869758006	3	51
144745	1574765	Arkansas called in 32 extra state police to the prison.	Arkansas called in 32 extra state police to the prison.	74864986	1473869757959	1473869758100	2	50
144745	1574765	Arkansas called in 32 extra state police to the prison.	Arkansas called in 32 extra state police to the prison.	74864993	1473869758334	1473869758424	 	32
144745	1574765	Arkansas called in 32 extra state police to the prison.	Arkansas called in 32 extra state police to the prison.	74865000	1473869758533	1473869758644	e	69
144745	1574765	Arkansas called in 32 extra state police to the prison.	Arkansas called in 32 extra state police to the prison.	74865009	1473869758739	1473869758859	x	88
144745	1574765	Arkansas called in 32 extra state police to the prison.	Arkansas called in 32 extra state police to the prison.	74865017	1473869758969	1473869759066	t	84
144745	1574765	Arkansas called in 32 extra state police to the prison.	Arkansas called in 32 extra state police to the prison.	74865020	1473869759129	1473869759257	r	82
144745	1574765	Arkansas called in 32 extra state police to the prison.	Arkansas called in 32 extra state police to the prison.	74865079	1473869759326	1473869759471	a	65
144745	1574765	Arkansas called in 32 extra state police to the prison.	Arkansas called in 32 extra state police to the prison.	74865081	1473869759549	1473869759640	 	32
144745	1574765	Arkansas called in 32 extra state police to the prison.	Arkansas called in 32 extra state police to the prison.	74865085	1473869759874	1473869759990	s	83
144745	1574765	Arkansas called in 32 extra state police to the prison.	Arkansas called in 32 extra state police to the prison.	74865088	1473869760037	1473869760126	t	84
144745	1574765	Arkansas called in 32 extra state police to the prison.	Arkansas called in 32 extra state police to the prison.	74865093	1473869760141	1473869760259	a	65
144745	1574765	Arkansas called in 32 extra state police to the prison.	Arkansas called in 32 extra state police to the prison.	74865163	1473869760301	1473869760377	t	84
144745	1574765	Arkansas called in 32 extra state police to the prison.	Arkansas called in 32 extra state police to the prison.	74865167	1473869760439	1473869760571	e	69
144745	1574765	Arkansas called in 32 extra state police to the prison.	Arkansas called in 32 extra state police to the prison.	74865177	1473869760609	1473869760705	 	32
144745	1574765	Arkansas called in 32 extra state police to the prison.	Arkansas called in 32 extra state police to the prison.	74865184	1473869760924	1473869761025	p	80
144745	1574765	Arkansas called in 32 extra state police to the prison.	Arkansas called in 32 extra state police to the prison.	74865190	1473869761103	1473869761175	o	79
144745	1574765	Arkansas called in 32 extra state police to the prison.	Arkansas called in 32 extra state police to the prison.	74865229	1473869761267	1473869761342	l	76
144745	1574765	Arkansas called in 32 extra state police to the prison.	Arkansas called in 32 extra state police to the prison.	74865235	1473869761422	1473869761538	i	73
144745	1574765	Arkansas called in 32 extra state police to the prison.	Arkansas called in 32 extra state police to the prison.	74865240	1473869761538	1473869761685	c	67
144745	1574765	Arkansas called in 32 extra state police to the prison.	Arkansas called in 32 extra state police to the prison.	74865246	1473869761647	1473869761823	e	69
144745	1574765	Arkansas called in 32 extra state police to the prison.	Arkansas called in 32 extra state police to the prison.	74865251	1473869761901	1473869761989	 	32
144745	1574765	Arkansas called in 32 extra state police to the prison.	Arkansas called in 32 extra state police to the prison.	74865310	1473869762122	1473869762248	t	84
144745	1574765	Arkansas called in 32 extra state police to the prison.	Arkansas called in 32 extra state police to the prison.	74865312	1473869762221	1473869762351	o	79
144745	1574765	Arkansas called in 32 extra state police to the prison.	Arkansas called in 32 extra state police to the prison.	74865314	1473869762351	1473869762471	 	32
144745	1574765	Arkansas called in 32 extra state police to the prison.	Arkansas called in 32 extra state police to the prison.	74865316	1473869762502	1473869762605	t	84
144745	1574765	Arkansas called in 32 extra state police to the prison.	Arkansas called in 32 extra state police to the prison.	74865325	1473869762668	1473869762790	h	72
144745	1574765	Arkansas called in 32 extra state police to the prison.	Arkansas called in 32 extra state police to the prison.	74865378	1473869762772	1473869762893	e	69
144745	1574765	Arkansas called in 32 extra state police to the prison.	Arkansas called in 32 extra state police to the prison.	74865382	1473869762887	1473869763004	 	32
144745	1574765	Arkansas called in 32 extra state police to the prison.	Arkansas called in 32 extra state police to the prison.	74865386	1473869763161	1473869763302	p	80
144745	1574765	Arkansas called in 32 extra state police to the prison.	Arkansas called in 32 extra state police to the prison.	74865392	1473869763333	1473869763422	r	82
144745	1574765	Arkansas called in 32 extra state police to the prison.	Arkansas called in 32 extra state police to the prison.	74865396	1473869763438	1473869763539	i	73
144745	1574765	Arkansas called in 32 extra state police to the prison.	Arkansas called in 32 extra state police to the prison.	74865400	1473869763554	1473869763708	s	83
144745	1574765	Arkansas called in 32 extra state police to the prison.	Arkansas called in 32 extra state police to the prison.	74865439	1473869763844	1473869764040	o	79
144745	1574765	Arkansas called in 32 extra state police to the prison.	Arkansas called in 32 extra state police to the prison.	74865445	1473869763983	1473869764087	n	78
144745	1574765	Arkansas called in 32 extra state police to the prison.	Arkansas called in 32 extra state police to the prison.	74865452	1473869764399	1473869764472	.	190
144745	1574802	We are somewhat emasculated bystanders.	We are somewhat emasculated bystanders.	74866079	1473869772052	1473869772270	SHIFT	16
144745	1574802	We are somewhat emasculated bystanders.	We are somewhat emasculated bystanders.	74866084	1473869772219	1473869772360	W	87
144745	1574802	We are somewhat emasculated bystanders.	We are somewhat emasculated bystanders.	74866090	1473869772391	1473869772493	e	69
144745	1574802	We are somewhat emasculated bystanders.	We are somewhat emasculated bystanders.	74866097	1473869772540	1473869772657	 	32
144745	1574802	We are somewhat emasculated bystanders.	We are somewhat emasculated bystanders.	74866105	1473869772657	1473869772805	a	65
144745	1574802	We are somewhat emasculated bystanders.	We are somewhat emasculated bystanders.	74866111	1473869772859	1473869772969	r	82
144745	1574802	We are somewhat emasculated bystanders.	We are somewhat emasculated bystanders.	74866126	1473869772914	1473869773079	e	69
144745	1574802	We are somewhat emasculated bystanders.	We are somewhat emasculated bystanders.	74866129	1473869773095	1473869773223	 	32
144745	1574802	We are somewhat emasculated bystanders.	We are somewhat emasculated bystanders.	74866134	1473869773263	1473869773387	s	83
144745	1574802	We are somewhat emasculated bystanders.	We are somewhat emasculated bystanders.	74866139	1473869773377	1473869773532	o	79
144745	1574802	We are somewhat emasculated bystanders.	We are somewhat emasculated bystanders.	74866150	1473869773493	1473869773617	m	77
144745	1574802	We are somewhat emasculated bystanders.	We are somewhat emasculated bystanders.	74866197	1473869773606	1473869773691	e	69
144745	1574802	We are somewhat emasculated bystanders.	We are somewhat emasculated bystanders.	74866201	1473869773816	1473869773907	w	87
144745	1574802	We are somewhat emasculated bystanders.	We are somewhat emasculated bystanders.	74866209	1473869773938	1473869774011	h	72
144745	1574802	We are somewhat emasculated bystanders.	We are somewhat emasculated bystanders.	74866217	1473869774042	1473869774199	a	65
144745	1574802	We are somewhat emasculated bystanders.	We are somewhat emasculated bystanders.	74866225	1473869774190	1473869774276	t	84
144745	1574802	We are somewhat emasculated bystanders.	We are somewhat emasculated bystanders.	74866233	1473869774370	1473869774490	 	32
144745	1574802	We are somewhat emasculated bystanders.	We are somewhat emasculated bystanders.	74866331	1473869774763	1473869774902	e	69
144745	1574802	We are somewhat emasculated bystanders.	We are somewhat emasculated bystanders.	74866337	1473869774987	1473869775073	m	77
144745	1574802	We are somewhat emasculated bystanders.	We are somewhat emasculated bystanders.	74866343	1473869775136	1473869775290	a	65
144745	1574802	We are somewhat emasculated bystanders.	We are somewhat emasculated bystanders.	74866349	1473869775352	1473869775503	s	83
144745	1574802	We are somewhat emasculated bystanders.	We are somewhat emasculated bystanders.	74866353	1473869775798	1473869775906	c	67
144745	1574802	We are somewhat emasculated bystanders.	We are somewhat emasculated bystanders.	74866392	1473869775989	1473869776073	u	85
144745	1574802	We are somewhat emasculated bystanders.	We are somewhat emasculated bystanders.	74866396	1473869776370	1473869776506	l	76
144745	1574802	We are somewhat emasculated bystanders.	We are somewhat emasculated bystanders.	74866399	1473869776522	1473869776655	a	65
144745	1574802	We are somewhat emasculated bystanders.	We are somewhat emasculated bystanders.	74866402	1473869776655	1473869776758	t	84
144745	1574802	We are somewhat emasculated bystanders.	We are somewhat emasculated bystanders.	74866406	1473869776795	1473869776922	e	69
144745	1574802	We are somewhat emasculated bystanders.	We are somewhat emasculated bystanders.	74866475	1473869776948	1473869777100	d	68
144745	1574802	We are somewhat emasculated bystanders.	We are somewhat emasculated bystanders.	74866478	1473869777132	1473869777239	 	32
144745	1574802	We are somewhat emasculated bystanders.	We are somewhat emasculated bystanders.	74866481	1473869777726	1473869777825	b	66
144745	1574802	We are somewhat emasculated bystanders.	We are somewhat emasculated bystanders.	74866485	1473869777872	1473869777989	y	89
144745	1574802	We are somewhat emasculated bystanders.	We are somewhat emasculated bystanders.	74866487	1473869778084	1473869778234	s	83
144745	1574802	We are somewhat emasculated bystanders.	We are somewhat emasculated bystanders.	74866541	1473869778249	1473869778339	t	84
144745	1574802	We are somewhat emasculated bystanders.	We are somewhat emasculated bystanders.	74866545	1473869778464	1473869778569	n	78
144745	1574802	We are somewhat emasculated bystanders.	We are somewhat emasculated bystanders.	74866550	1473869778663	1473869778740	a	65
144745	1574802	We are somewhat emasculated bystanders.	We are somewhat emasculated bystanders.	74866559	1473869778928	1473869779005	BKSP	8
144745	1574802	We are somewhat emasculated bystanders.	We are somewhat emasculated bystanders.	74866565	1473869779052	1473869779139	BKSP	8
144745	1574802	We are somewhat emasculated bystanders.	We are somewhat emasculated bystanders.	74866571	1473869779202	1473869779336	a	65
144745	1574802	We are somewhat emasculated bystanders.	We are somewhat emasculated bystanders.	74866645	1473869779320	1473869779453	n	78
144745	1574802	We are somewhat emasculated bystanders.	We are somewhat emasculated bystanders.	74866656	1473869779500	1473869779631	d	68
144745	1574802	We are somewhat emasculated bystanders.	We are somewhat emasculated bystanders.	74866668	1473869779647	1473869779856	e	69
144745	1574802	We are somewhat emasculated bystanders.	We are somewhat emasculated bystanders.	74866677	1473869779798	1473869779919	r	82
144745	1574802	We are somewhat emasculated bystanders.	We are somewhat emasculated bystanders.	74866686	1473869779997	1473869780135	s	83
144745	1574828	Can you call me at home?	can you call me at home?	74867010	1473869783955	1473869784133	SHIFT	16
144745	1574828	Can you call me at home?	can you call me at home?	74867014	1473869784133	1473869784286	c	67
144745	1574828	Can you call me at home?	can you call me at home?	74867022	1473869784233	1473869784398	a	65
144745	1574828	Can you call me at home?	can you call me at home?	74867030	1473869784379	1473869784467	n	78
144745	1574828	Can you call me at home?	can you call me at home?	74867036	1473869784545	1473869784665	 	32
144745	1574828	Can you call me at home?	can you call me at home?	74867040	1473869784696	1473869784792	y	89
144745	1574828	Can you call me at home?	can you call me at home?	74867061	1473869784752	1473869784934	o	79
144745	1574828	Can you call me at home?	can you call me at home?	74867067	1473869784867	1473869785013	u	85
144745	1574828	Can you call me at home?	can you call me at home?	74867076	1473869784965	1473869785078	 	32
144745	1574828	Can you call me at home?	can you call me at home?	74867083	1473869785114	1473869785215	c	67
144745	1574828	Can you call me at home?	can you call me at home?	74867086	1473869785152	1473869785278	a	65
144745	1574828	Can you call me at home?	can you call me at home?	74867097	1473869785309	1473869785383	l	76
144745	1574828	Can you call me at home?	can you call me at home?	74867128	1473869785436	1473869785532	l	76
144745	1574828	Can you call me at home?	can you call me at home?	74867133	1473869785579	1473869785704	 	32
144745	1574828	Can you call me at home?	can you call me at home?	74867139	1473869785719	1473869785838	m	77
144745	1574828	Can you call me at home?	can you call me at home?	74867147	1473869785829	1473869785944	e	69
144745	1574828	Can you call me at home?	can you call me at home?	74867254	1473869785929	1473869786044	 	32
144745	1574828	Can you call me at home?	can you call me at home?	74867259	1473869786122	1473869786235	a	65
144745	1574828	Can you call me at home?	can you call me at home?	74867264	1473869786330	1473869786439	t	84
144745	1574828	Can you call me at home?	can you call me at home?	74867267	1473869786471	1473869786593	 	32
144745	1574828	Can you call me at home?	can you call me at home?	74867273	1473869786953	1473869787076	h	72
144745	1574828	Can you call me at home?	can you call me at home?	74867277	1473869787185	1473869787312	o	79
144745	1574828	Can you call me at home?	can you call me at home?	74867300	1473869787262	1473869787378	m	77
144745	1574828	Can you call me at home?	can you call me at home?	74867306	1473869787393	1473869787514	e	69
144745	1574828	Can you call me at home?	can you call me at home?	74867309	1473869787703	1473869787879	SHIFT	16
144745	1574838	Please respond if anyone has a different view.	Please respond if anyone has a different view.	74867673	1473869792811	1473869792959	SHIFT	16
144745	1574838	Please respond if anyone has a different view.	Please respond if anyone has a different view.	74867685	1473869792889	1473869793023	P	80
144745	1574838	Please respond if anyone has a different view.	Please respond if anyone has a different view.	74867694	1473869792975	1473869793101	l	76
144745	1574838	Please respond if anyone has a different view.	Please respond if anyone has a different view.	74867701	1473869793117	1473869793288	e	69
144745	1574838	Please respond if anyone has a different view.	Please respond if anyone has a different view.	74867710	1473869793259	1473869793458	a	65
144745	1574838	Please respond if anyone has a different view.	Please respond if anyone has a different view.	74867757	1473869793373	1473869793501	s	83
144745	1574838	Please respond if anyone has a different view.	Please respond if anyone has a different view.	74867759	1473869793567	1473869793703	e	69
144745	1574838	Please respond if anyone has a different view.	Please respond if anyone has a different view.	74867764	1473869793718	1473869793822	 	32
144745	1574838	Please respond if anyone has a different view.	Please respond if anyone has a different view.	74867768	1473869793884	1473869793993	r	82
144745	1574838	Please respond if anyone has a different view.	Please respond if anyone has a different view.	74867772	1473869793974	1473869794117	e	69
144745	1574838	Please respond if anyone has a different view.	Please respond if anyone has a different view.	74867777	1473869794211	1473869794322	s	83
144745	1574838	Please respond if anyone has a different view.	Please respond if anyone has a different view.	74867932	1473869794341	1473869794466	o	79
144745	1574838	Please respond if anyone has a different view.	Please respond if anyone has a different view.	74867938	1473869794567	1473869794687	n	78
144745	1574838	Please respond if anyone has a different view.	Please respond if anyone has a different view.	74867948	1473869794734	1473869794868	d	68
144745	1574838	Please respond if anyone has a different view.	Please respond if anyone has a different view.	74867953	1473869795135	1473869795255	 	32
144745	1574838	Please respond if anyone has a different view.	Please respond if anyone has a different view.	74867960	1473869795458	1473869795554	BKSP	8
144745	1574838	Please respond if anyone has a different view.	Please respond if anyone has a different view.	74867966	1473869795601	1473869795688	BKSP	8
144745	1574838	Please respond if anyone has a different view.	Please respond if anyone has a different view.	74867971	1473869795751	1473869795820	BKSP	8
144745	1574838	Please respond if anyone has a different view.	Please respond if anyone has a different view.	74867976	1473869795899	1473869795986	BKSP	8
144745	1574838	Please respond if anyone has a different view.	Please respond if anyone has a different view.	74867980	1473869796337	1473869796468	p	80
144745	1574838	Please respond if anyone has a different view.	Please respond if anyone has a different view.	74867992	1473869796531	1473869796682	o	79
144745	1574838	Please respond if anyone has a different view.	Please respond if anyone has a different view.	74867988	1473869796578	1473869796652	i	73
144745	1574838	Please respond if anyone has a different view.	Please respond if anyone has a different view.	74867996	1473869796668	1473869796786	n	78
144745	1574838	Please respond if anyone has a different view.	Please respond if anyone has a different view.	74868003	1473869796817	1473869796935	d	68
144745	1574838	Please respond if anyone has a different view.	Please respond if anyone has a different view.	74868008	1473869796982	1473869797087	 	32
144745	1574838	Please respond if anyone has a different view.	Please respond if anyone has a different view.	74868102	1473869797337	1473869797403	BKSP	8
144745	1574838	Please respond if anyone has a different view.	Please respond if anyone has a different view.	74868108	1473869797450	1473869797536	BKSP	8
144745	1574838	Please respond if anyone has a different view.	Please respond if anyone has a different view.	74868112	1473869797598	1473869797687	BKSP	8
144745	1574838	Please respond if anyone has a different view.	Please respond if anyone has a different view.	74868115	1473869797718	1473869797803	BKSP	8
144745	1574838	Please respond if anyone has a different view.	Please respond if anyone has a different view.	74868119	1473869797937	1473869798032	n	78
144745	1574838	Please respond if anyone has a different view.	Please respond if anyone has a different view.	74868121	1473869798094	1473869798188	d	68
144745	1574838	Please respond if anyone has a different view.	Please respond if anyone has a different view.	74868123	1473869798169	1473869798283	 	32
144745	1574838	Please respond if anyone has a different view.	Please respond if anyone has a different view.	74868125	1473869798382	1473869798473	i	73
144745	1574838	Please respond if anyone has a different view.	Please respond if anyone has a different view.	74868127	1473869798547	1473869798652	f	70
144745	1574838	Please respond if anyone has a different view.	Please respond if anyone has a different view.	74868150	1473869798654	1473869798749	 	32
144745	1574838	Please respond if anyone has a different view.	Please respond if anyone has a different view.	74868155	1473869798780	1473869798918	a	65
144745	1574838	Please respond if anyone has a different view.	Please respond if anyone has a different view.	74868161	1473869798869	1473869798954	n	78
144745	1574838	Please respond if anyone has a different view.	Please respond if anyone has a different view.	74868170	1473869799032	1473869799131	y	89
144745	1574838	Please respond if anyone has a different view.	Please respond if anyone has a different view.	74868175	1473869799256	1473869799450	o	79
144745	1574838	Please respond if anyone has a different view.	Please respond if anyone has a different view.	74868210	1473869799396	1473869799513	n	78
144745	1574838	Please respond if anyone has a different view.	Please respond if anyone has a different view.	74868213	1473869799544	1473869799655	e	69
144745	1574838	Please respond if anyone has a different view.	Please respond if anyone has a different view.	74868216	1473869799619	1473869799745	 	32
144745	1574838	Please respond if anyone has a different view.	Please respond if anyone has a different view.	74868219	1473869799781	1473869799886	h	72
144745	1574838	Please respond if anyone has a different view.	Please respond if anyone has a different view.	74868223	1473869799882	1473869800051	a	65
144745	1574838	Please respond if anyone has a different view.	Please respond if anyone has a different view.	74868278	1473869800006	1473869800176	s	83
144745	1574838	Please respond if anyone has a different view.	Please respond if anyone has a different view.	74868282	1473869800207	1473869800316	 	32
144745	1574838	Please respond if anyone has a different view.	Please respond if anyone has a different view.	74868285	1473869800332	1473869800462	a	65
144745	1574838	Please respond if anyone has a different view.	Please respond if anyone has a different view.	74868289	1473869800540	1473869800632	 	32
144745	1574838	Please respond if anyone has a different view.	Please respond if anyone has a different view.	74868290	1473869800832	1473869800929	d	68
144745	1574838	Please respond if anyone has a different view.	Please respond if anyone has a different view.	74868291	1473869800992	1473869801097	i	73
144745	1574838	Please respond if anyone has a different view.	Please respond if anyone has a different view.	74868318	1473869801233	1473869801284	f	70
144745	1574838	Please respond if anyone has a different view.	Please respond if anyone has a different view.	74868322	1473869801331	1473869801399	f	70
144745	1574838	Please respond if anyone has a different view.	Please respond if anyone has a different view.	74868325	1473869801430	1473869801621	e	69
144745	1574838	Please respond if anyone has a different view.	Please respond if anyone has a different view.	74868330	1473869801570	1473869801696	r	82
144745	1574838	Please respond if anyone has a different view.	Please respond if anyone has a different view.	74868336	1473869801696	1473869801798	n	78
144745	1574838	Please respond if anyone has a different view.	Please respond if anyone has a different view.	74868492	1473869801890	1473869802027	t	84
144745	1574838	Please respond if anyone has a different view.	Please respond if anyone has a different view.	74868499	1473869802073	1473869802181	 	32
144745	1574838	Please respond if anyone has a different view.	Please respond if anyone has a different view.	74868508	1473869802432	1473869802497	BKSP	8
144745	1574838	Please respond if anyone has a different view.	Please respond if anyone has a different view.	74868516	1473869802560	1473869802645	BKSP	8
144745	1574838	Please respond if anyone has a different view.	Please respond if anyone has a different view.	74868522	1473869802692	1473869802786	BKSP	8
144745	1574838	Please respond if anyone has a different view.	Please respond if anyone has a different view.	74868527	1473869803244	1473869803432	e	69
144745	1574838	Please respond if anyone has a different view.	Please respond if anyone has a different view.	74868531	1473869803375	1473869803500	r	82
144745	1574838	Please respond if anyone has a different view.	Please respond if anyone has a different view.	74868536	1473869803845	1473869803930	BKSP	8
144745	1574838	Please respond if anyone has a different view.	Please respond if anyone has a different view.	74868541	1473869804258	1473869804393	t	84
144745	1574838	Please respond if anyone has a different view.	Please respond if anyone has a different view.	74868625	1473869804627	1473869804713	BKSP	8
144745	1574838	Please respond if anyone has a different view.	Please respond if anyone has a different view.	74868635	1473869804853	1473869804945	n	78
144745	1574838	Please respond if anyone has a different view.	Please respond if anyone has a different view.	74868645	1473869805008	1473869805126	t	84
144745	1574838	Please respond if anyone has a different view.	Please respond if anyone has a different view.	74868654	1473869805158	1473869805245	 	32
144745	1574838	Please respond if anyone has a different view.	Please respond if anyone has a different view.	74868658	1473869805526	1473869805626	c	67
144745	1574838	Please respond if anyone has a different view.	Please respond if anyone has a different view.	74868663	1473869805673	1473869805757	i	73
144745	1574838	Please respond if anyone has a different view.	Please respond if anyone has a different view.	74868786	1473869805786	1473869805906	e	69
144745	1574838	Please respond if anyone has a different view.	Please respond if anyone has a different view.	74868789	1473869806000	1473869806124	w	87
144745	1574838	Please respond if anyone has a different view.	Please respond if anyone has a different view.	74868796	1473869806515	1473869806606	BKSP	8
144745	1574838	Please respond if anyone has a different view.	Please respond if anyone has a different view.	74868802	1473869806653	1473869806742	BKSP	8
144745	1574838	Please respond if anyone has a different view.	Please respond if anyone has a different view.	74868807	1473869806789	1473869806875	BKSP	8
144745	1574838	Please respond if anyone has a different view.	Please respond if anyone has a different view.	74868811	1473869806922	1473869807038	BKSP	8
144745	1574838	Please respond if anyone has a different view.	Please respond if anyone has a different view.	74868818	1473869807511	1473869807594	v	86
144745	1574838	Please respond if anyone has a different view.	Please respond if anyone has a different view.	74868825	1473869807609	1473869807693	i	73
144745	1574838	Please respond if anyone has a different view.	Please respond if anyone has a different view.	74868830	1473869807834	1473869807968	e	69
144745	1574838	Please respond if anyone has a different view.	Please respond if anyone has a different view.	74868847	1473869807927	1473869808073	w	87
144745	1574945	Try and re-draft and let me know.	Try and re-draft and let me know.	74872145	1473869853527	1473869853709	SHIFT	16
144745	1574945	Try and re-draft and let me know.	Try and re-draft and let me know.	74872150	1473869853652	1473869853745	T	84
144745	1574945	Try and re-draft and let me know.	Try and re-draft and let me know.	74872156	1473869853839	1473869853960	r	82
144745	1574945	Try and re-draft and let me know.	Try and re-draft and let me know.	74872160	1473869853960	1473869854060	y	89
144745	1574945	Try and re-draft and let me know.	Try and re-draft and let me know.	74872164	1473869854092	1473869854202	 	32
144745	1574945	Try and re-draft and let me know.	Try and re-draft and let me know.	74872208	1473869854193	1473869854328	a	65
144745	1574945	Try and re-draft and let me know.	Try and re-draft and let me know.	74872211	1473869854291	1473869854390	n	78
144745	1574945	Try and re-draft and let me know.	Try and re-draft and let me know.	74872215	1473869854441	1473869854561	d	68
144745	1574945	Try and re-draft and let me know.	Try and re-draft and let me know.	74872218	1473869854543	1473869854659	 	32
144745	1574945	Try and re-draft and let me know.	Try and re-draft and let me know.	74872224	1473869854831	1473869854963	r	82
144745	1574945	Try and re-draft and let me know.	Try and re-draft and let me know.	74872366	1473869854907	1473869855108	e	69
144745	1574945	Try and re-draft and let me know.	Try and re-draft and let me know.	74872372	1473869856002	1473869856093	-	189
144745	1574945	Try and re-draft and let me know.	Try and re-draft and let me know.	74872377	1473869856202	1473869856324	d	68
144745	1574945	Try and re-draft and let me know.	Try and re-draft and let me know.	74872385	1473869856648	1473869856773	r	82
144745	1574945	Try and re-draft and let me know.	Try and re-draft and let me know.	74872391	1473869856851	1473869856983	a	65
144745	1574945	Try and re-draft and let me know.	Try and re-draft and let me know.	74872443	1473869856973	1473869857089	f	70
144745	1574945	Try and re-draft and let me know.	Try and re-draft and let me know.	74872445	1473869857167	1473869857273	t	84
144745	1574945	Try and re-draft and let me know.	Try and re-draft and let me know.	74872449	1473869857304	1473869857419	 	32
144745	1574945	Try and re-draft and let me know.	Try and re-draft and let me know.	74872454	1473869857407	1473869857540	a	65
144745	1574945	Try and re-draft and let me know.	Try and re-draft and let me know.	74872460	1473869857491	1473869857587	n	78
144745	1574945	Try and re-draft and let me know.	Try and re-draft and let me know.	74872467	1473869857634	1473869857756	d	68
144745	1574945	Try and re-draft and let me know.	Try and re-draft and let me know.	74872520	1473869857777	1473869857903	 	32
144745	1574945	Try and re-draft and let me know.	Try and re-draft and let me know.	74872522	1473869857996	1473869858126	l	76
144745	1574945	Try and re-draft and let me know.	Try and re-draft and let me know.	74872527	1473869858088	1473869858232	e	69
144745	1574945	Try and re-draft and let me know.	Try and re-draft and let me know.	74872533	1473869858548	1473869858639	t	84
144745	1574945	Try and re-draft and let me know.	Try and re-draft and let me know.	74872538	1473869858655	1473869858755	 	32
144745	1574945	Try and re-draft and let me know.	Try and re-draft and let me know.	74872589	1473869858781	1473869858917	m	77
144745	1574945	Try and re-draft and let me know.	Try and re-draft and let me know.	74872591	1473869858903	1473869859009	e	69
144745	1574945	Try and re-draft and let me know.	Try and re-draft and let me know.	74872595	1473869858990	1473869859104	 	32
144745	1574945	Try and re-draft and let me know.	Try and re-draft and let me know.	74872599	1473869859244	1473869859323	l	76
144745	1574945	Try and re-draft and let me know.	Try and re-draft and let me know.	74872603	1473869859355	1473869859534	n	78
144745	1574945	Try and re-draft and let me know.	Try and re-draft and let me know.	74872752	1473869859467	1473869859601	o	79
144745	1574945	Try and re-draft and let me know.	Try and re-draft and let me know.	74872755	1473869859617	1473869859739	w	87
144745	1574945	Try and re-draft and let me know.	Try and re-draft and let me know.	74872759	1473869859895	1473869859972	BKSP	8
144745	1574945	Try and re-draft and let me know.	Try and re-draft and let me know.	74872763	1473869860019	1473869860104	BKSP	8
144745	1574945	Try and re-draft and let me know.	Try and re-draft and let me know.	74872768	1473869860167	1473869860237	BKSP	8
144745	1574945	Try and re-draft and let me know.	Try and re-draft and let me know.	74872772	1473869860284	1473869860370	BKSP	8
144745	1574945	Try and re-draft and let me know.	Try and re-draft and let me know.	74872779	1473869860671	1473869860800	l	76
144745	1574945	Try and re-draft and let me know.	Try and re-draft and let me know.	74872787	1473869861089	1473869861218	BKSP	8
144745	1574945	Try and re-draft and let me know.	Try and re-draft and let me know.	74872797	1473869861375	1473869861564	k	75
144745	1574945	Try and re-draft and let me know.	Try and re-draft and let me know.	74872806	1473869861514	1473869861703	n	78
144745	1574945	Try and re-draft and let me know.	Try and re-draft and let me know.	74872814	1473869861616	1473869861774	o	79
144745	1574945	Try and re-draft and let me know.	Try and re-draft and let me know.	74872823	1473869861753	1473869861883	w	87
144745	1575144	Thanks I needed that today!	Thanks I needed that today!	74882063	1473870008994	1473870009216	SHIFT	16
144745	1575144	Thanks I needed that today!	Thanks I needed that today!	74882067	1473870009135	1473870009247	T	84
144745	1575144	Thanks I needed that today!	Thanks I needed that today!	74882073	1473870009310	1473870009429	h	72
144745	1575144	Thanks I needed that today!	Thanks I needed that today!	74882076	1473870009429	1473870009578	a	65
144745	1575144	Thanks I needed that today!	Thanks I needed that today!	74882081	1473870009530	1473870009674	n	78
144745	1575144	Thanks I needed that today!	Thanks I needed that today!	74882137	1473870009644	1473870009816	k	75
144745	1575144	Thanks I needed that today!	Thanks I needed that today!	74882140	1473870009775	1473870009881	s	83
144745	1575144	Thanks I needed that today!	Thanks I needed that today!	74882143	1473870009896	1473870010028	 	32
144745	1575144	Thanks I needed that today!	Thanks I needed that today!	74882145	1473870010322	1473870010515	SHIFT	16
144745	1575144	Thanks I needed that today!	Thanks I needed that today!	74882149	1473870010459	1473870010546	I	73
144745	1575144	Thanks I needed that today!	Thanks I needed that today!	74882152	1473870010562	1473870010677	 	32
144745	1575144	Thanks I needed that today!	Thanks I needed that today!	74882159	1473870010755	1473870010862	n	78
144745	1575144	Thanks I needed that today!	Thanks I needed that today!	74882295	1473870010831	1473870010947	e	69
144745	1575144	Thanks I needed that today!	Thanks I needed that today!	74882299	1473870011011	1473870011093	e	69
144745	1575144	Thanks I needed that today!	Thanks I needed that today!	74882304	1473870011202	1473870011345	d	68
144745	1575144	Thanks I needed that today!	Thanks I needed that today!	74882308	1473870011376	1473870011543	e	69
144745	1575144	Thanks I needed that today!	Thanks I needed that today!	74882313	1473870011509	1473870011611	d	68
144745	1575144	Thanks I needed that today!	Thanks I needed that today!	74882319	1473870012601	1473870012712	 	32
144745	1575144	Thanks I needed that today!	Thanks I needed that today!	74882348	1473870012806	1473870012891	t	84
144745	1575144	Thanks I needed that today!	Thanks I needed that today!	74882353	1473870012955	1473870013057	h	72
144745	1575144	Thanks I needed that today!	Thanks I needed that today!	74882360	1473870013027	1473870013156	a	65
144745	1575144	Thanks I needed that today!	Thanks I needed that today!	74882368	1473870013139	1473870013243	t	84
144745	1575144	Thanks I needed that today!	Thanks I needed that today!	74882376	1473870013243	1473870013374	 	32
144745	1575144	Thanks I needed that today!	Thanks I needed that today!	74882401	1473870013487	1473870013597	t	84
144745	1575144	Thanks I needed that today!	Thanks I needed that today!	74882403	1473870013624	1473870013739	o	79
144745	1575144	Thanks I needed that today!	Thanks I needed that today!	74882405	1473870013755	1473870013924	d	68
144745	1575144	Thanks I needed that today!	Thanks I needed that today!	74882406	1473870013906	1473870014039	a	65
144745	1575144	Thanks I needed that today!	Thanks I needed that today!	74882408	1473870014054	1473870014143	y	89
144745	1575144	Thanks I needed that today!	Thanks I needed that today!	74882477	1473870014333	1473870014803	SHIFT	16
144745	1575144	Thanks I needed that today!	Thanks I needed that today!	74882472	1473870014631	1473870014709	!	49
