PARTICIPANT_ID	TEST_SECTION_ID	SENTENCE	USER_INPUT	KEYSTROKE_ID	PRESS_TIME	RELEASE_TIME	LETTER	KEYCODE
147930	1608345	Got your back while you pick up wine.	Got your back while you pick up wine.	76442075	1473895810461	1473895810582	SHIFT	16
147930	1608345	Got your back while you pick up wine.	Got your back while you pick up wine.	76442077	1473895810527	1473895810607	G	71
147930	1608345	Got your back while you pick up wine.	Got your back while you pick up wine.	76442082	1473895810616	1473895810682	o	79
147930	1608345	Got your back while you pick up wine.	Got your back while you pick up wine.	76442088	1473895810698	1473895810755	t	84
147930	1608345	Got your back while you pick up wine.	Got your back while you pick up wine.	76442094	1473895810776	1473895810837	 	32
147930	1608345	Got your back while you pick up wine.	Got your back while you pick up wine.	76442099	1473895810933	1473895810997	y	89
147930	1608345	Got your back while you pick up wine.	Got your back while you pick up wine.	76442115	1473895811048	1473895811152	o	79
147930	1608345	Got your back while you pick up wine.	Got your back while you pick up wine.	76442118	1473895811115	1473895811185	u	85
147930	1608345	Got your back while you pick up wine.	Got your back while you pick up wine.	76442121	1473895811250	1473895811331	r	82
147930	1608345	Got your back while you pick up wine.	Got your back while you pick up wine.	76442122	1473895811382	1473895811449	 	32
147930	1608345	Got your back while you pick up wine.	Got your back while you pick up wine.	76442123	1473895811533	1473895811599	b	66
147930	1608345	Got your back while you pick up wine.	Got your back while you pick up wine.	76442137	1473895811590	1473895811699	a	65
147930	1608345	Got your back while you pick up wine.	Got your back while you pick up wine.	76442138	1473895811694	1473895811793	c	67
147930	1608345	Got your back while you pick up wine.	Got your back while you pick up wine.	76442139	1473895811788	1473895811859	k	75
147930	1608345	Got your back while you pick up wine.	Got your back while you pick up wine.	76442140	1473895811945	1473895812010	 	32
147930	1608345	Got your back while you pick up wine.	Got your back while you pick up wine.	76442142	1473895812034	1473895812120	w	87
147930	1608345	Got your back while you pick up wine.	Got your back while you pick up wine.	76442145	1473895812128	1473895812192	h	72
147930	1608345	Got your back while you pick up wine.	Got your back while you pick up wine.	76442158	1473895812163	1473895812223	i	73
147930	1608345	Got your back while you pick up wine.	Got your back while you pick up wine.	76442161	1473895812318	1473895812384	l	76
147930	1608345	Got your back while you pick up wine.	Got your back while you pick up wine.	76442165	1473895812383	1473895812455	e	69
147930	1608345	Got your back while you pick up wine.	Got your back while you pick up wine.	76442168	1473895812471	1473895812527	 	32
147930	1608345	Got your back while you pick up wine.	Got your back while you pick up wine.	76442172	1473895812624	1473895812689	y	89
147930	1608345	Got your back while you pick up wine.	Got your back while you pick up wine.	76442175	1473895812751	1473895812829	o	79
147930	1608345	Got your back while you pick up wine.	Got your back while you pick up wine.	76442183	1473895812796	1473895812863	u	85
147930	1608345	Got your back while you pick up wine.	Got your back while you pick up wine.	76442185	1473895812957	1473895813013	 	32
147930	1608345	Got your back while you pick up wine.	Got your back while you pick up wine.	76442188	1473895813087	1473895813168	p	80
147930	1608345	Got your back while you pick up wine.	Got your back while you pick up wine.	76442193	1473895813138	1473895813202	i	73
147930	1608345	Got your back while you pick up wine.	Got your back while you pick up wine.	76442198	1473895813221	1473895813316	c	67
147930	1608345	Got your back while you pick up wine.	Got your back while you pick up wine.	76442230	1473895813286	1473895813357	k	75
147930	1608345	Got your back while you pick up wine.	Got your back while you pick up wine.	76442233	1473895813451	1473895813517	 	32
147930	1608345	Got your back while you pick up wine.	Got your back while you pick up wine.	76442237	1473895813617	1473895813676	u	85
147930	1608345	Got your back while you pick up wine.	Got your back while you pick up wine.	76442243	1473895813711	1473895813781	p	80
147930	1608345	Got your back while you pick up wine.	Got your back while you pick up wine.	76442246	1473895813872	1473895813940	 	32
147930	1608345	Got your back while you pick up wine.	Got your back while you pick up wine.	76442249	1473895813977	1473895814039	w	87
147930	1608345	Got your back while you pick up wine.	Got your back while you pick up wine.	76442267	1473895814021	1473895814094	i	73
147930	1608345	Got your back while you pick up wine.	Got your back while you pick up wine.	76442273	1473895814061	1473895814132	n	78
147930	1608345	Got your back while you pick up wine.	Got your back while you pick up wine.	76442277	1473895814169	1473895814251	e	69
147930	1608345	Got your back while you pick up wine.	Got your back while you pick up wine.	76442282	1473895814269	1473895814343	.	190
147930	1608363	Let us not invite unnecessary irritants to this relationship.	Let us not invite unnecessary irritants to this relationship.	76442663	1473895821237	1473895821384	SHIFT	16
147930	1608363	Let us not invite unnecessary irritants to this relationship.	Let us not invite unnecessary irritants to this relationship.	76442670	1473895821346	1473895821425	L	76
147930	1608363	Let us not invite unnecessary irritants to this relationship.	Let us not invite unnecessary irritants to this relationship.	76442677	1473895821428	1473895821541	e	69
147930	1608363	Let us not invite unnecessary irritants to this relationship.	Let us not invite unnecessary irritants to this relationship.	76442684	1473895821715	1473895821789	t	84
147930	1608363	Let us not invite unnecessary irritants to this relationship.	Let us not invite unnecessary irritants to this relationship.	76442689	1473895821833	1473895821901	 	32
147930	1608363	Let us not invite unnecessary irritants to this relationship.	Let us not invite unnecessary irritants to this relationship.	76442693	1473895821971	1473895822043	u	85
147930	1608363	Let us not invite unnecessary irritants to this relationship.	Let us not invite unnecessary irritants to this relationship.	76442700	1473895822068	1473895822136	s	83
147930	1608363	Let us not invite unnecessary irritants to this relationship.	Let us not invite unnecessary irritants to this relationship.	76442703	1473895822148	1473895822213	 	32
147930	1608363	Let us not invite unnecessary irritants to this relationship.	Let us not invite unnecessary irritants to this relationship.	76442709	1473895822284	1473895822374	n	78
147930	1608363	Let us not invite unnecessary irritants to this relationship.	Let us not invite unnecessary irritants to this relationship.	76442714	1473895822333	1473895822419	o	79
147930	1608363	Let us not invite unnecessary irritants to this relationship.	Let us not invite unnecessary irritants to this relationship.	76442716	1473895822431	1473895822520	t	84
147930	1608363	Let us not invite unnecessary irritants to this relationship.	Let us not invite unnecessary irritants to this relationship.	76442729	1473895822545	1473895822624	 	32
147930	1608363	Let us not invite unnecessary irritants to this relationship.	Let us not invite unnecessary irritants to this relationship.	76442733	1473895822714	1473895822795	i	73
147930	1608363	Let us not invite unnecessary irritants to this relationship.	Let us not invite unnecessary irritants to this relationship.	76442738	1473895822763	1473895822854	n	78
147930	1608363	Let us not invite unnecessary irritants to this relationship.	Let us not invite unnecessary irritants to this relationship.	76442743	1473895822897	1473895822972	v	86
147930	1608363	Let us not invite unnecessary irritants to this relationship.	Let us not invite unnecessary irritants to this relationship.	76442748	1473895823035	1473895823112	i	73
147930	1608363	Let us not invite unnecessary irritants to this relationship.	Let us not invite unnecessary irritants to this relationship.	76442772	1473895823153	1473895823250	t	84
147930	1608363	Let us not invite unnecessary irritants to this relationship.	Let us not invite unnecessary irritants to this relationship.	76442774	1473895823227	1473895823320	e	69
147930	1608363	Let us not invite unnecessary irritants to this relationship.	Let us not invite unnecessary irritants to this relationship.	76442776	1473895823344	1473895823428	 	32
147930	1608363	Let us not invite unnecessary irritants to this relationship.	Let us not invite unnecessary irritants to this relationship.	76442778	1473895823684	1473895823750	u	85
147930	1608363	Let us not invite unnecessary irritants to this relationship.	Let us not invite unnecessary irritants to this relationship.	76442780	1473895823856	1473895823918	n	78
147930	1608363	Let us not invite unnecessary irritants to this relationship.	Let us not invite unnecessary irritants to this relationship.	76442801	1473895823955	1473895824038	n	78
147930	1608363	Let us not invite unnecessary irritants to this relationship.	Let us not invite unnecessary irritants to this relationship.	76442804	1473895824093	1473895824177	e	69
147930	1608363	Let us not invite unnecessary irritants to this relationship.	Let us not invite unnecessary irritants to this relationship.	76442807	1473895824335	1473895824452	c	67
147930	1608363	Let us not invite unnecessary irritants to this relationship.	Let us not invite unnecessary irritants to this relationship.	76442808	1473895824459	1473895824547	e	69
147930	1608363	Let us not invite unnecessary irritants to this relationship.	Let us not invite unnecessary irritants to this relationship.	76442811	1473895824704	1473895824782	s	83
147930	1608363	Let us not invite unnecessary irritants to this relationship.	Let us not invite unnecessary irritants to this relationship.	76442818	1473895824899	1473895824969	a	65
147930	1608363	Let us not invite unnecessary irritants to this relationship.	Let us not invite unnecessary irritants to this relationship.	76442820	1473895825265	1473895825337	BKSP	8
147930	1608363	Let us not invite unnecessary irritants to this relationship.	Let us not invite unnecessary irritants to this relationship.	76442822	1473895825369	1473895825477	s	83
147930	1608363	Let us not invite unnecessary irritants to this relationship.	Let us not invite unnecessary irritants to this relationship.	76442824	1473895825444	1473895825541	a	65
147930	1608363	Let us not invite unnecessary irritants to this relationship.	Let us not invite unnecessary irritants to this relationship.	76442826	1473895825594	1473895825706	r	82
147930	1608363	Let us not invite unnecessary irritants to this relationship.	Let us not invite unnecessary irritants to this relationship.	76442853	1473895825705	1473895825788	y	89
147930	1608363	Let us not invite unnecessary irritants to this relationship.	Let us not invite unnecessary irritants to this relationship.	76442856	1473895825934	1473895825997	 	32
147930	1608363	Let us not invite unnecessary irritants to this relationship.	Let us not invite unnecessary irritants to this relationship.	76442859	1473895826090	1473895826168	i	73
147930	1608363	Let us not invite unnecessary irritants to this relationship.	Let us not invite unnecessary irritants to this relationship.	76442862	1473895826247	1473895826302	r	82
147930	1608363	Let us not invite unnecessary irritants to this relationship.	Let us not invite unnecessary irritants to this relationship.	76442864	1473895826394	1473895826477	r	82
147930	1608363	Let us not invite unnecessary irritants to this relationship.	Let us not invite unnecessary irritants to this relationship.	76442866	1473895826685	1473895826764	t	84
147930	1608363	Let us not invite unnecessary irritants to this relationship.	Let us not invite unnecessary irritants to this relationship.	76442906	1473895826976	1473895827040	BKSP	8
147930	1608363	Let us not invite unnecessary irritants to this relationship.	Let us not invite unnecessary irritants to this relationship.	76442912	1473895827174	1473895827246	i	73
147930	1608363	Let us not invite unnecessary irritants to this relationship.	Let us not invite unnecessary irritants to this relationship.	76442918	1473895827260	1473895827349	t	84
147930	1608363	Let us not invite unnecessary irritants to this relationship.	Let us not invite unnecessary irritants to this relationship.	76442923	1473895827424	1473895827516	a	65
147930	1608363	Let us not invite unnecessary irritants to this relationship.	Let us not invite unnecessary irritants to this relationship.	76442926	1473895827572	1473895827643	n	78
147930	1608363	Let us not invite unnecessary irritants to this relationship.	Let us not invite unnecessary irritants to this relationship.	76442928	1473895827691	1473895827789	t	84
147930	1608363	Let us not invite unnecessary irritants to this relationship.	Let us not invite unnecessary irritants to this relationship.	76442944	1473895827819	1473895827919	s	83
147930	1608363	Let us not invite unnecessary irritants to this relationship.	Let us not invite unnecessary irritants to this relationship.	76442946	1473895827965	1473895828028	 	32
147930	1608363	Let us not invite unnecessary irritants to this relationship.	Let us not invite unnecessary irritants to this relationship.	76442950	1473895828074	1473895828159	t	84
147930	1608363	Let us not invite unnecessary irritants to this relationship.	Let us not invite unnecessary irritants to this relationship.	76442954	1473895828130	1473895828199	o	79
147930	1608363	Let us not invite unnecessary irritants to this relationship.	Let us not invite unnecessary irritants to this relationship.	76442958	1473895828290	1473895828353	 	32
147930	1608363	Let us not invite unnecessary irritants to this relationship.	Let us not invite unnecessary irritants to this relationship.	76442976	1473895828380	1473895828456	t	84
147930	1608363	Let us not invite unnecessary irritants to this relationship.	Let us not invite unnecessary irritants to this relationship.	76442978	1473895828470	1473895828591	h	72
147930	1608363	Let us not invite unnecessary irritants to this relationship.	Let us not invite unnecessary irritants to this relationship.	76442981	1473895828557	1473895828650	i	73
147930	1608363	Let us not invite unnecessary irritants to this relationship.	Let us not invite unnecessary irritants to this relationship.	76442985	1473895828760	1473895828873	s	83
147930	1608363	Let us not invite unnecessary irritants to this relationship.	Let us not invite unnecessary irritants to this relationship.	76442987	1473895828927	1473895829025	 	32
147930	1608363	Let us not invite unnecessary irritants to this relationship.	Let us not invite unnecessary irritants to this relationship.	76443034	1473895829302	1473895829413	r	82
147930	1608363	Let us not invite unnecessary irritants to this relationship.	Let us not invite unnecessary irritants to this relationship.	76443038	1473895829377	1473895829468	e	69
147930	1608363	Let us not invite unnecessary irritants to this relationship.	Let us not invite unnecessary irritants to this relationship.	76443040	1473895829513	1473895829595	l	76
147930	1608363	Let us not invite unnecessary irritants to this relationship.	Let us not invite unnecessary irritants to this relationship.	76443041	1473895829721	1473895829811	a	65
147930	1608363	Let us not invite unnecessary irritants to this relationship.	Let us not invite unnecessary irritants to this relationship.	76443042	1473895829897	1473895829996	t	84
147930	1608363	Let us not invite unnecessary irritants to this relationship.	Let us not invite unnecessary irritants to this relationship.	76443063	1473895829978	1473895830059	i	73
147930	1608363	Let us not invite unnecessary irritants to this relationship.	Let us not invite unnecessary irritants to this relationship.	76443066	1473895830013	1473895830095	o	79
147930	1608363	Let us not invite unnecessary irritants to this relationship.	Let us not invite unnecessary irritants to this relationship.	76443071	1473895830164	1473895830234	n	78
147930	1608363	Let us not invite unnecessary irritants to this relationship.	Let us not invite unnecessary irritants to this relationship.	76443075	1473895830269	1473895830353	s	83
147930	1608363	Let us not invite unnecessary irritants to this relationship.	Let us not invite unnecessary irritants to this relationship.	76443076	1473895830331	1473895830394	h	72
147930	1608363	Let us not invite unnecessary irritants to this relationship.	Let us not invite unnecessary irritants to this relationship.	76443077	1473895830491	1473895830578	i	73
147930	1608363	Let us not invite unnecessary irritants to this relationship.	Let us not invite unnecessary irritants to this relationship.	76443079	1473895830549	1473895830626	p	80
147930	1608363	Let us not invite unnecessary irritants to this relationship.	Let us not invite unnecessary irritants to this relationship.	76443081	1473895830721	1473895830805	.	190
147930	1608376	Last year I made some mistakes here.	Last year I made some mistakes here.	76443315	1473895834653	1473895834785	SHIFT	16
147930	1608376	Last year I made some mistakes here.	Last year I made some mistakes here.	76443320	1473895834739	1473895834805	L	76
147930	1608376	Last year I made some mistakes here.	Last year I made some mistakes here.	76443323	1473895834798	1473895834913	a	65
147930	1608376	Last year I made some mistakes here.	Last year I made some mistakes here.	76443326	1473895834881	1473895834983	s	83
147930	1608376	Last year I made some mistakes here.	Last year I made some mistakes here.	76443329	1473895835011	1473895835090	t	84
147930	1608376	Last year I made some mistakes here.	Last year I made some mistakes here.	76443331	1473895835116	1473895835187	 	32
147930	1608376	Last year I made some mistakes here.	Last year I made some mistakes here.	76443339	1473895835298	1473895835374	y	89
147930	1608376	Last year I made some mistakes here.	Last year I made some mistakes here.	76443343	1473895835337	1473895835434	e	69
147930	1608376	Last year I made some mistakes here.	Last year I made some mistakes here.	76443348	1473895835396	1473895835494	a	65
147930	1608376	Last year I made some mistakes here.	Last year I made some mistakes here.	76443355	1473895835527	1473895835616	r	82
147930	1608376	Last year I made some mistakes here.	Last year I made some mistakes here.	76443374	1473895835612	1473895835665	 	32
147930	1608376	Last year I made some mistakes here.	Last year I made some mistakes here.	76443375	1473895835710	1473895835835	SHIFT	16
147930	1608376	Last year I made some mistakes here.	Last year I made some mistakes here.	76443376	1473895835784	1473895835847	I	73
147930	1608376	Last year I made some mistakes here.	Last year I made some mistakes here.	76443377	1473895835949	1473895835993	 	32
147930	1608376	Last year I made some mistakes here.	Last year I made some mistakes here.	76443378	1473895836050	1473895836136	m	77
147930	1608376	Last year I made some mistakes here.	Last year I made some mistakes here.	76443380	1473895836112	1473895836200	a	65
147930	1608376	Last year I made some mistakes here.	Last year I made some mistakes here.	76443409	1473895836185	1473895836297	d	68
147930	1608376	Last year I made some mistakes here.	Last year I made some mistakes here.	76443412	1473895836263	1473895836354	e	69
147930	1608376	Last year I made some mistakes here.	Last year I made some mistakes here.	76443415	1473895836350	1473895836426	 	32
147930	1608376	Last year I made some mistakes here.	Last year I made some mistakes here.	76443417	1473895836690	1473895836791	s	83
147930	1608376	Last year I made some mistakes here.	Last year I made some mistakes here.	76443419	1473895836789	1473895836867	o	79
147930	1608376	Last year I made some mistakes here.	Last year I made some mistakes here.	76443433	1473895836826	1473895836912	m	77
147930	1608376	Last year I made some mistakes here.	Last year I made some mistakes here.	76443436	1473895836927	1473895837013	e	69
147930	1608376	Last year I made some mistakes here.	Last year I made some mistakes here.	76443438	1473895837051	1473895837139	 	32
147930	1608376	Last year I made some mistakes here.	Last year I made some mistakes here.	76443440	1473895837250	1473895837341	m	77
147930	1608376	Last year I made some mistakes here.	Last year I made some mistakes here.	76443444	1473895837358	1473895837430	i	73
147930	1608376	Last year I made some mistakes here.	Last year I made some mistakes here.	76443454	1473895837426	1473895837519	s	83
147930	1608376	Last year I made some mistakes here.	Last year I made some mistakes here.	76443456	1473895837573	1473895837645	t	84
147930	1608376	Last year I made some mistakes here.	Last year I made some mistakes here.	76443459	1473895837681	1473895837760	a	65
147930	1608376	Last year I made some mistakes here.	Last year I made some mistakes here.	76443461	1473895837782	1473895837850	k	75
147930	1608376	Last year I made some mistakes here.	Last year I made some mistakes here.	76443463	1473895837851	1473895837961	e	69
147930	1608376	Last year I made some mistakes here.	Last year I made some mistakes here.	76443474	1473895837921	1473895838043	s	83
147930	1608376	Last year I made some mistakes here.	Last year I made some mistakes here.	76443479	1473895838059	1473895838127	 	32
147930	1608376	Last year I made some mistakes here.	Last year I made some mistakes here.	76443485	1473895838227	1473895838294	h	72
147930	1608376	Last year I made some mistakes here.	Last year I made some mistakes here.	76443490	1473895838263	1473895838345	e	69
147930	1608376	Last year I made some mistakes here.	Last year I made some mistakes here.	76443494	1473895838338	1473895838447	r	82
147930	1608376	Last year I made some mistakes here.	Last year I made some mistakes here.	76443503	1473895838412	1473895838513	e	69
147930	1608376	Last year I made some mistakes here.	Last year I made some mistakes here.	76443505	1473895838502	1473895838578	.	190
147930	1608385	Are you being a baby?	Are you being a baby?	76443589	1473895840872	1473895841039	SHIFT	16
147930	1608385	Are you being a baby?	Are you being a baby?	76443592	1473895840979	1473895841065	A	65
147930	1608385	Are you being a baby?	Are you being a baby?	76443595	1473895841076	1473895841182	r	82
147930	1608385	Are you being a baby?	Are you being a baby?	76443600	1473895841147	1473895841242	e	69
147930	1608385	Are you being a baby?	Are you being a baby?	76443603	1473895841216	1473895841289	 	32
147930	1608385	Are you being a baby?	Are you being a baby?	76443606	1473895841399	1473895841459	y	89
147930	1608385	Are you being a baby?	Are you being a baby?	76443616	1473895841532	1473895841607	o	79
147930	1608385	Are you being a baby?	Are you being a baby?	76443618	1473895841573	1473895841640	u	85
147930	1608385	Are you being a baby?	Are you being a baby?	76443620	1473895841724	1473895841783	 	32
147930	1608385	Are you being a baby?	Are you being a baby?	76443623	1473895841855	1473895841918	b	66
147930	1608385	Are you being a baby?	Are you being a baby?	76443626	1473895841924	1473895841985	e	69
147930	1608385	Are you being a baby?	Are you being a baby?	76443632	1473895841999	1473895842073	i	73
147930	1608385	Are you being a baby?	Are you being a baby?	76443635	1473895842033	1473895842110	n	78
147930	1608385	Are you being a baby?	Are you being a baby?	76443638	1473895842093	1473895842169	g	71
147930	1608385	Are you being a baby?	Are you being a baby?	76443641	1473895842197	1473895842268	 	32
147930	1608385	Are you being a baby?	Are you being a baby?	76443644	1473895842286	1473895842370	a	65
147930	1608385	Are you being a baby?	Are you being a baby?	76443678	1473895842357	1473895842426	 	32
147930	1608385	Are you being a baby?	Are you being a baby?	76443681	1473895842513	1473895842574	b	66
147930	1608385	Are you being a baby?	Are you being a baby?	76443684	1473895842609	1473895842693	a	65
147930	1608385	Are you being a baby?	Are you being a baby?	76443687	1473895842672	1473895842740	b	66
147930	1608385	Are you being a baby?	Are you being a baby?	76443689	1473895842798	1473895842860	y	89
147930	1608385	Are you being a baby?	Are you being a baby?	76443692	1473895843083	1473895843234	SHIFT	16
147930	1608385	Are you being a baby?	Are you being a baby?	76443686	1473895843150	1473895843236	?	191
147930	1608391	Arkansas called in 32 extra state police to the prison.	Arkansas called in 32 extra state police to the prison.	76444162	1473895852333	1473895852500	SHIFT	16
147930	1608391	Arkansas called in 32 extra state police to the prison.	Arkansas called in 32 extra state police to the prison.	76444168	1473895852456	1473895852558	A	65
147930	1608391	Arkansas called in 32 extra state police to the prison.	Arkansas called in 32 extra state police to the prison.	76444173	1473895852615	1473895852729	r	82
147930	1608391	Arkansas called in 32 extra state police to the prison.	Arkansas called in 32 extra state police to the prison.	76444176	1473895852807	1473895852887	k	75
147930	1608391	Arkansas called in 32 extra state police to the prison.	Arkansas called in 32 extra state police to the prison.	76444180	1473895852949	1473895853047	a	65
147930	1608391	Arkansas called in 32 extra state police to the prison.	Arkansas called in 32 extra state police to the prison.	76444181	1473895853112	1473895853202	n	78
147930	1608391	Arkansas called in 32 extra state police to the prison.	Arkansas called in 32 extra state police to the prison.	76444204	1473895853327	1473895853437	s	83
147930	1608391	Arkansas called in 32 extra state police to the prison.	Arkansas called in 32 extra state police to the prison.	76444207	1473895853463	1473895853568	a	65
147930	1608391	Arkansas called in 32 extra state police to the prison.	Arkansas called in 32 extra state police to the prison.	76444211	1473895853666	1473895853775	s	83
147930	1608391	Arkansas called in 32 extra state police to the prison.	Arkansas called in 32 extra state police to the prison.	76444218	1473895853855	1473895853944	 	32
147930	1608391	Arkansas called in 32 extra state police to the prison.	Arkansas called in 32 extra state police to the prison.	76444227	1473895853963	1473895854068	c	67
147930	1608391	Arkansas called in 32 extra state police to the prison.	Arkansas called in 32 extra state police to the prison.	76444266	1473895854057	1473895854159	a	65
147930	1608391	Arkansas called in 32 extra state police to the prison.	Arkansas called in 32 extra state police to the prison.	76444271	1473895854150	1473895854213	l	76
147930	1608391	Arkansas called in 32 extra state police to the prison.	Arkansas called in 32 extra state police to the prison.	76444278	1473895854275	1473895854372	l	76
147930	1608391	Arkansas called in 32 extra state police to the prison.	Arkansas called in 32 extra state police to the prison.	76444284	1473895854492	1473895854573	e	69
147930	1608391	Arkansas called in 32 extra state police to the prison.	Arkansas called in 32 extra state police to the prison.	76444292	1473895854661	1473895854737	d	68
147930	1608391	Arkansas called in 32 extra state police to the prison.	Arkansas called in 32 extra state police to the prison.	76444336	1473895854735	1473895854803	 	32
147930	1608391	Arkansas called in 32 extra state police to the prison.	Arkansas called in 32 extra state police to the prison.	76444337	1473895854873	1473895854954	i	73
147930	1608391	Arkansas called in 32 extra state police to the prison.	Arkansas called in 32 extra state police to the prison.	76444338	1473895854922	1473895854994	n	78
147930	1608391	Arkansas called in 32 extra state police to the prison.	Arkansas called in 32 extra state police to the prison.	76444339	1473895855086	1473895855172	 	32
147930	1608391	Arkansas called in 32 extra state police to the prison.	Arkansas called in 32 extra state police to the prison.	76444343	1473895855744	1473895855851	3	51
147930	1608391	Arkansas called in 32 extra state police to the prison.	Arkansas called in 32 extra state police to the prison.	76444362	1473895855810	1473895855912	2	50
147930	1608391	Arkansas called in 32 extra state police to the prison.	Arkansas called in 32 extra state police to the prison.	76444366	1473895855953	1473895856049	 	32
147930	1608391	Arkansas called in 32 extra state police to the prison.	Arkansas called in 32 extra state police to the prison.	76444370	1473895856127	1473895856198	e	69
147930	1608391	Arkansas called in 32 extra state police to the prison.	Arkansas called in 32 extra state police to the prison.	76444374	1473895856322	1473895856399	x	88
147930	1608391	Arkansas called in 32 extra state police to the prison.	Arkansas called in 32 extra state police to the prison.	76444379	1473895856491	1473895856578	t	84
147930	1608391	Arkansas called in 32 extra state police to the prison.	Arkansas called in 32 extra state police to the prison.	76444406	1473895856538	1473895856620	r	82
147930	1608391	Arkansas called in 32 extra state police to the prison.	Arkansas called in 32 extra state police to the prison.	76444407	1473895856624	1473895856729	a	65
147930	1608391	Arkansas called in 32 extra state police to the prison.	Arkansas called in 32 extra state police to the prison.	76444408	1473895856829	1473895856928	 	32
147930	1608391	Arkansas called in 32 extra state police to the prison.	Arkansas called in 32 extra state police to the prison.	76444410	1473895857344	1473895857408	s	83
147930	1608391	Arkansas called in 32 extra state police to the prison.	Arkansas called in 32 extra state police to the prison.	76444414	1473895857516	1473895857596	t	84
147930	1608391	Arkansas called in 32 extra state police to the prison.	Arkansas called in 32 extra state police to the prison.	76444419	1473895857611	1473895857717	a	65
147930	1608391	Arkansas called in 32 extra state police to the prison.	Arkansas called in 32 extra state police to the prison.	76444442	1473895857754	1473895857857	t	84
147930	1608391	Arkansas called in 32 extra state police to the prison.	Arkansas called in 32 extra state police to the prison.	76444445	1473895857831	1473895857925	e	69
147930	1608391	Arkansas called in 32 extra state police to the prison.	Arkansas called in 32 extra state police to the prison.	76444449	1473895857979	1473895858052	 	32
147930	1608391	Arkansas called in 32 extra state police to the prison.	Arkansas called in 32 extra state police to the prison.	76444453	1473895858147	1473895858266	p	80
147930	1608391	Arkansas called in 32 extra state police to the prison.	Arkansas called in 32 extra state police to the prison.	76444496	1473895858237	1473895858322	o	79
147930	1608391	Arkansas called in 32 extra state police to the prison.	Arkansas called in 32 extra state police to the prison.	76444498	1473895858443	1473895858572	l	76
147930	1608391	Arkansas called in 32 extra state police to the prison.	Arkansas called in 32 extra state police to the prison.	76444500	1473895858543	1473895858633	i	73
147930	1608391	Arkansas called in 32 extra state police to the prison.	Arkansas called in 32 extra state police to the prison.	76444504	1473895858669	1473895858755	c	67
147930	1608391	Arkansas called in 32 extra state police to the prison.	Arkansas called in 32 extra state police to the prison.	76444509	1473895858730	1473895858826	e	69
147930	1608391	Arkansas called in 32 extra state police to the prison.	Arkansas called in 32 extra state police to the prison.	76444512	1473895858919	1473895859005	 	32
147930	1608391	Arkansas called in 32 extra state police to the prison.	Arkansas called in 32 extra state police to the prison.	76444522	1473895859082	1473895859172	t	84
147930	1608391	Arkansas called in 32 extra state police to the prison.	Arkansas called in 32 extra state police to the prison.	76444524	1473895859136	1473895859212	o	79
147930	1608391	Arkansas called in 32 extra state police to the prison.	Arkansas called in 32 extra state police to the prison.	76444526	1473895859289	1473895859358	 	32
147930	1608391	Arkansas called in 32 extra state police to the prison.	Arkansas called in 32 extra state police to the prison.	76444528	1473895859375	1473895859449	t	84
147930	1608391	Arkansas called in 32 extra state police to the prison.	Arkansas called in 32 extra state police to the prison.	76444555	1473895859443	1473895859518	h	72
147930	1608391	Arkansas called in 32 extra state police to the prison.	Arkansas called in 32 extra state police to the prison.	76444561	1473895859516	1473895859598	e	69
147930	1608391	Arkansas called in 32 extra state police to the prison.	Arkansas called in 32 extra state police to the prison.	76444566	1473895859609	1473895859675	 	32
147930	1608391	Arkansas called in 32 extra state police to the prison.	Arkansas called in 32 extra state police to the prison.	76444571	1473895859738	1473895859823	p	80
147930	1608391	Arkansas called in 32 extra state police to the prison.	Arkansas called in 32 extra state police to the prison.	76444577	1473895859838	1473895859927	r	82
147930	1608391	Arkansas called in 32 extra state police to the prison.	Arkansas called in 32 extra state police to the prison.	76444582	1473895859953	1473895860033	i	73
147930	1608391	Arkansas called in 32 extra state police to the prison.	Arkansas called in 32 extra state police to the prison.	76444596	1473895860093	1473895860183	s	83
147930	1608391	Arkansas called in 32 extra state police to the prison.	Arkansas called in 32 extra state police to the prison.	76444598	1473895860171	1473895860254	o	79
147930	1608391	Arkansas called in 32 extra state police to the prison.	Arkansas called in 32 extra state police to the prison.	76444600	1473895860232	1473895860310	n	78
147930	1608391	Arkansas called in 32 extra state police to the prison.	Arkansas called in 32 extra state police to the prison.	76444602	1473895860451	1473895860536	.	190
147930	1608411	Kay Mann is going to take the lead on this.	Kay Mann is going to take the lead on this.	76444835	1473895864580	1473895864756	SHIFT	16
147930	1608411	Kay Mann is going to take the lead on this.	Kay Mann is going to take the lead on this.	76444839	1473895864688	1473895864781	K	75
147930	1608411	Kay Mann is going to take the lead on this.	Kay Mann is going to take the lead on this.	76444848	1473895864820	1473895864925	a	65
147930	1608411	Kay Mann is going to take the lead on this.	Kay Mann is going to take the lead on this.	76444854	1473895864950	1473895865018	y	89
147930	1608411	Kay Mann is going to take the lead on this.	Kay Mann is going to take the lead on this.	76444863	1473895865120	1473895865178	 	32
147930	1608411	Kay Mann is going to take the lead on this.	Kay Mann is going to take the lead on this.	76444868	1473895865196	1473895865325	SHIFT	16
147930	1608411	Kay Mann is going to take the lead on this.	Kay Mann is going to take the lead on this.	76444888	1473895865283	1473895865359	M	77
147930	1608411	Kay Mann is going to take the lead on this.	Kay Mann is going to take the lead on this.	76444891	1473895865387	1473895865466	a	65
147930	1608411	Kay Mann is going to take the lead on this.	Kay Mann is going to take the lead on this.	76444896	1473895865521	1473895865583	n	78
147930	1608411	Kay Mann is going to take the lead on this.	Kay Mann is going to take the lead on this.	76444899	1473895865646	1473895865723	n	78
147930	1608411	Kay Mann is going to take the lead on this.	Kay Mann is going to take the lead on this.	76444903	1473895865847	1473895865918	 	32
147930	1608411	Kay Mann is going to take the lead on this.	Kay Mann is going to take the lead on this.	76444906	1473895865965	1473895866041	i	73
147930	1608411	Kay Mann is going to take the lead on this.	Kay Mann is going to take the lead on this.	76444914	1473895866056	1473895866130	s	83
147930	1608411	Kay Mann is going to take the lead on this.	Kay Mann is going to take the lead on this.	76444918	1473895866134	1473895866212	 	32
147930	1608411	Kay Mann is going to take the lead on this.	Kay Mann is going to take the lead on this.	76444924	1473895866240	1473895866345	g	71
147930	1608411	Kay Mann is going to take the lead on this.	Kay Mann is going to take the lead on this.	76444931	1473895866305	1473895866365	o	79
147930	1608411	Kay Mann is going to take the lead on this.	Kay Mann is going to take the lead on this.	76444939	1473895866435	1473895866520	i	73
147930	1608411	Kay Mann is going to take the lead on this.	Kay Mann is going to take the lead on this.	76444953	1473895866475	1473895866561	n	78
147930	1608411	Kay Mann is going to take the lead on this.	Kay Mann is going to take the lead on this.	76444954	1473895866564	1473895866639	g	71
147930	1608411	Kay Mann is going to take the lead on this.	Kay Mann is going to take the lead on this.	76444956	1473895866635	1473895866707	 	32
147930	1608411	Kay Mann is going to take the lead on this.	Kay Mann is going to take the lead on this.	76444958	1473895866777	1473895866842	o	84
147930	1608411	Kay Mann is going to take the lead on this.	Kay Mann is going to take the lead on this.	76444959	1473895866922	1473895867008	 	32
147930	1608411	Kay Mann is going to take the lead on this.	Kay Mann is going to take the lead on this.	76444992	1473895867059	1473895867134	t	84
147930	1608411	Kay Mann is going to take the lead on this.	Kay Mann is going to take the lead on this.	76444999	1473895867183	1473895867269	a	65
147930	1608411	Kay Mann is going to take the lead on this.	Kay Mann is going to take the lead on this.	76445004	1473895867290	1473895867364	k	75
147930	1608411	Kay Mann is going to take the lead on this.	Kay Mann is going to take the lead on this.	76445010	1473895867401	1473895867492	e	69
147930	1608411	Kay Mann is going to take the lead on this.	Kay Mann is going to take the lead on this.	76445013	1473895867512	1473895867582	 	32
147930	1608411	Kay Mann is going to take the lead on this.	Kay Mann is going to take the lead on this.	76445024	1473895867625	1473895867693	t	84
147930	1608411	Kay Mann is going to take the lead on this.	Kay Mann is going to take the lead on this.	76445028	1473895867693	1473895867773	h	72
147930	1608411	Kay Mann is going to take the lead on this.	Kay Mann is going to take the lead on this.	76445034	1473895867787	1473895867866	e	69
147930	1608411	Kay Mann is going to take the lead on this.	Kay Mann is going to take the lead on this.	76445038	1473895867883	1473895867949	 	32
147930	1608411	Kay Mann is going to take the lead on this.	Kay Mann is going to take the lead on this.	76445044	1473895868010	1473895868084	l	76
147930	1608411	Kay Mann is going to take the lead on this.	Kay Mann is going to take the lead on this.	76445081	1473895868089	1473895868198	a	65
147930	1608411	Kay Mann is going to take the lead on this.	Kay Mann is going to take the lead on this.	76445087	1473895868208	1473895868335	e	69
147930	1608411	Kay Mann is going to take the lead on this.	Kay Mann is going to take the lead on this.	76445092	1473895868480	1473895868534	BKSP	8
147930	1608411	Kay Mann is going to take the lead on this.	Kay Mann is going to take the lead on this.	76445094	1473895868598	1473895868669	BKSP	8
147930	1608411	Kay Mann is going to take the lead on this.	Kay Mann is going to take the lead on this.	76445097	1473895868654	1473895868740	e	69
147930	1608411	Kay Mann is going to take the lead on this.	Kay Mann is going to take the lead on this.	76445100	1473895868697	1473895868799	a	65
147930	1608411	Kay Mann is going to take the lead on this.	Kay Mann is going to take the lead on this.	76445101	1473895868824	1473895868934	d	68
147930	1608411	Kay Mann is going to take the lead on this.	Kay Mann is going to take the lead on this.	76445106	1473895868960	1473895869017	 	32
147930	1608411	Kay Mann is going to take the lead on this.	Kay Mann is going to take the lead on this.	76445109	1473895869080	1473895869165	o	79
147930	1608411	Kay Mann is going to take the lead on this.	Kay Mann is going to take the lead on this.	76445111	1473895869128	1473895869205	n	78
147930	1608411	Kay Mann is going to take the lead on this.	Kay Mann is going to take the lead on this.	76445113	1473895869279	1473895869348	 	32
147930	1608411	Kay Mann is going to take the lead on this.	Kay Mann is going to take the lead on this.	76445116	1473895869367	1473895869441	t	84
147930	1608411	Kay Mann is going to take the lead on this.	Kay Mann is going to take the lead on this.	76445126	1473895869445	1473895869516	h	72
147930	1608411	Kay Mann is going to take the lead on this.	Kay Mann is going to take the lead on this.	76445130	1473895869486	1473895869551	i	73
147930	1608411	Kay Mann is going to take the lead on this.	Kay Mann is going to take the lead on this.	76445134	1473895869525	1473895869614	s	83
147930	1608411	Kay Mann is going to take the lead on this.	Kay Mann is going to take the lead on this.	76445137	1473895869668	1473895869742	.	190
147930	1608422	No need to send to FL.	No need to send to FL.	76445385	1473895873499	1473895873685	SHIFT	16
147930	1608422	No need to send to FL.	No need to send to FL.	76445388	1473895873622	1473895873689	N	78
147930	1608422	No need to send to FL.	No need to send to FL.	76445391	1473895873719	1473895873794	o	79
147930	1608422	No need to send to FL.	No need to send to FL.	76445394	1473895873877	1473895873933	 	32
147930	1608422	No need to send to FL.	No need to send to FL.	76445397	1473895874006	1473895874083	n	78
147930	1608422	No need to send to FL.	No need to send to FL.	76445400	1473895874085	1473895874152	e	69
147930	1608422	No need to send to FL.	No need to send to FL.	76445417	1473895874234	1473895874299	e	69
147930	1608422	No need to send to FL.	No need to send to FL.	76445421	1473895874388	1473895874481	d	68
147930	1608422	No need to send to FL.	No need to send to FL.	76445427	1473895874497	1473895874565	 	32
147930	1608422	No need to send to FL.	No need to send to FL.	76445433	1473895874617	1473895874686	t	84
147930	1608422	No need to send to FL.	No need to send to FL.	76445456	1473895874663	1473895874741	o	79
147930	1608422	No need to send to FL.	No need to send to FL.	76445459	1473895874801	1473895874880	 	32
147930	1608422	No need to send to FL.	No need to send to FL.	76445463	1473895874908	1473895875066	s	83
147930	1608422	No need to send to FL.	No need to send to FL.	76445468	1473895875024	1473895875117	e	69
147930	1608422	No need to send to FL.	No need to send to FL.	76445474	1473895875141	1473895875215	n	78
147930	1608422	No need to send to FL.	No need to send to FL.	76445480	1473895875234	1473895875310	d	68
147930	1608422	No need to send to FL.	No need to send to FL.	76445508	1473895875353	1473895875432	 	32
147930	1608422	No need to send to FL.	No need to send to FL.	76445511	1473895875482	1473895875551	t	84
147930	1608422	No need to send to FL.	No need to send to FL.	76445513	1473895875535	1473895875609	o	79
147930	1608422	No need to send to FL.	No need to send to FL.	76445516	1473895875686	1473895875748	 	32
147930	1608422	No need to send to FL.	No need to send to FL.	76445532	1473895875763	1473895876076	SHIFT	16
147930	1608422	No need to send to FL.	No need to send to FL.	76445520	1473895875856	1473895875951	F	70
147930	1608422	No need to send to FL.	No need to send to FL.	76445530	1473895875932	1473895876019	L	76
147930	1608422	No need to send to FL.	No need to send to FL.	76445533	1473895876127	1473895876206	.	190
147930	1608426	The hospital was hit by electricity cuts.	The hospital was hit by electricity cuts.	76445744	1473895880547	1473895880701	SHIFT	16
147930	1608426	The hospital was hit by electricity cuts.	The hospital was hit by electricity cuts.	76445747	1473895880631	1473895880720	T	84
147930	1608426	The hospital was hit by electricity cuts.	The hospital was hit by electricity cuts.	76445753	1473895880717	1473895880781	h	72
147930	1608426	The hospital was hit by electricity cuts.	The hospital was hit by electricity cuts.	76445757	1473895880796	1473895880869	e	69
147930	1608426	The hospital was hit by electricity cuts.	The hospital was hit by electricity cuts.	76445759	1473895880888	1473895880962	 	32
147930	1608426	The hospital was hit by electricity cuts.	The hospital was hit by electricity cuts.	76445762	1473895881000	1473895881042	s	83
147930	1608426	The hospital was hit by electricity cuts.	The hospital was hit by electricity cuts.	76445826	1473895881070	1473895881163	h	72
147930	1608426	The hospital was hit by electricity cuts.	The hospital was hit by electricity cuts.	76445830	1473895881366	1473895881424	BKSP	8
147930	1608426	The hospital was hit by electricity cuts.	The hospital was hit by electricity cuts.	76445837	1473895881484	1473895881558	BKSP	8
147930	1608426	The hospital was hit by electricity cuts.	The hospital was hit by electricity cuts.	76445844	1473895881706	1473895881796	h	72
147930	1608426	The hospital was hit by electricity cuts.	The hospital was hit by electricity cuts.	76445853	1473895881760	1473895881859	o	79
147930	1608426	The hospital was hit by electricity cuts.	The hospital was hit by electricity cuts.	76445860	1473895882010	1473895882120	s	83
147930	1608426	The hospital was hit by electricity cuts.	The hospital was hit by electricity cuts.	76445868	1473895882206	1473895882294	t	84
147930	1608426	The hospital was hit by electricity cuts.	The hospital was hit by electricity cuts.	76445955	1473895882279	1473895882376	p	80
147930	1608426	The hospital was hit by electricity cuts.	The hospital was hit by electricity cuts.	76445960	1473895882341	1473895882431	i	73
147930	1608426	The hospital was hit by electricity cuts.	The hospital was hit by electricity cuts.	76445963	1473895883023	1473895883084	BKSP	8
147930	1608426	The hospital was hit by electricity cuts.	The hospital was hit by electricity cuts.	76445967	1473895883146	1473895883222	BKSP	8
147930	1608426	The hospital was hit by electricity cuts.	The hospital was hit by electricity cuts.	76445971	1473895883341	1473895883411	i	73
147930	1608426	The hospital was hit by electricity cuts.	The hospital was hit by electricity cuts.	76445973	1473895883650	1473895883710	BKSP	8
147930	1608426	The hospital was hit by electricity cuts.	The hospital was hit by electricity cuts.	76445975	1473895883780	1473895883850	BKSP	8
147930	1608426	The hospital was hit by electricity cuts.	The hospital was hit by electricity cuts.	76445979	1473895883976	1473895884081	p	80
147930	1608426	The hospital was hit by electricity cuts.	The hospital was hit by electricity cuts.	76445983	1473895884039	1473895884132	i	73
147930	1608426	The hospital was hit by electricity cuts.	The hospital was hit by electricity cuts.	76445989	1473895884213	1473895884285	t	84
147930	1608426	The hospital was hit by electricity cuts.	The hospital was hit by electricity cuts.	76446005	1473895884365	1473895884468	a	65
147930	1608426	The hospital was hit by electricity cuts.	The hospital was hit by electricity cuts.	76446007	1473895884469	1473895884543	l	76
147930	1608426	The hospital was hit by electricity cuts.	The hospital was hit by electricity cuts.	76446009	1473895884638	1473895884717	 	32
147930	1608426	The hospital was hit by electricity cuts.	The hospital was hit by electricity cuts.	76446010	1473895884951	1473895885057	w	87
147930	1608426	The hospital was hit by electricity cuts.	The hospital was hit by electricity cuts.	76446024	1473895885045	1473895885173	a	65
147930	1608426	The hospital was hit by electricity cuts.	The hospital was hit by electricity cuts.	76446026	1473895885143	1473895885248	s	83
147930	1608426	The hospital was hit by electricity cuts.	The hospital was hit by electricity cuts.	76446032	1473895885222	1473895885297	 	32
147930	1608426	The hospital was hit by electricity cuts.	The hospital was hit by electricity cuts.	76446035	1473895885395	1473895885487	h	72
147930	1608426	The hospital was hit by electricity cuts.	The hospital was hit by electricity cuts.	76446038	1473895885446	1473895885542	i	73
147930	1608426	The hospital was hit by electricity cuts.	The hospital was hit by electricity cuts.	76446053	1473895885515	1473895885619	t	84
147930	1608426	The hospital was hit by electricity cuts.	The hospital was hit by electricity cuts.	76446056	1473895885673	1473895885751	 	32
147930	1608426	The hospital was hit by electricity cuts.	The hospital was hit by electricity cuts.	76446058	1473895885903	1473895885981	b	66
147930	1608426	The hospital was hit by electricity cuts.	The hospital was hit by electricity cuts.	76446061	1473895886043	1473895886113	u	89
147930	1608426	The hospital was hit by electricity cuts.	The hospital was hit by electricity cuts.	76446063	1473895886221	1473895886300	 	32
147930	1608426	The hospital was hit by electricity cuts.	The hospital was hit by electricity cuts.	76446128	1473895886486	1473895886595	e	69
147930	1608426	The hospital was hit by electricity cuts.	The hospital was hit by electricity cuts.	76446131	1473895886997	1473895887059	BKSP	8
147930	1608426	The hospital was hit by electricity cuts.	The hospital was hit by electricity cuts.	76446133	1473895887125	1473895887186	BKSP	8
147930	1608426	The hospital was hit by electricity cuts.	The hospital was hit by electricity cuts.	76446135	1473895887255	1473895887316	BKSP	8
147930	1608426	The hospital was hit by electricity cuts.	The hospital was hit by electricity cuts.	76446140	1473895887689	1473895887769	 	32
147930	1608426	The hospital was hit by electricity cuts.	The hospital was hit by electricity cuts.	76446145	1473895887898	1473895887973	e	69
147930	1608426	The hospital was hit by electricity cuts.	The hospital was hit by electricity cuts.	76446276	1473895888015	1473895888076	k	76
147930	1608426	The hospital was hit by electricity cuts.	The hospital was hit by electricity cuts.	76446279	1473895888117	1473895888189	e	69
147930	1608426	The hospital was hit by electricity cuts.	The hospital was hit by electricity cuts.	76446283	1473895888461	1473895888521	BKSP	8
147930	1608426	The hospital was hit by electricity cuts.	The hospital was hit by electricity cuts.	76446285	1473895888594	1473895888655	BKSP	8
147930	1608426	The hospital was hit by electricity cuts.	The hospital was hit by electricity cuts.	76446288	1473895888722	1473895888785	BKSP	8
147930	1608426	The hospital was hit by electricity cuts.	The hospital was hit by electricity cuts.	76446291	1473895889259	1473895889326	l	76
147930	1608426	The hospital was hit by electricity cuts.	The hospital was hit by electricity cuts.	76446295	1473895889385	1473895889474	e	69
147930	1608426	The hospital was hit by electricity cuts.	The hospital was hit by electricity cuts.	76446299	1473895889647	1473895889743	c	67
147930	1608426	The hospital was hit by electricity cuts.	The hospital was hit by electricity cuts.	76446303	1473895889869	1473895889917	t	84
147930	1608426	The hospital was hit by electricity cuts.	The hospital was hit by electricity cuts.	76446325	1473895890087	1473895890176	r	82
147930	1608426	The hospital was hit by electricity cuts.	The hospital was hit by electricity cuts.	76446329	1473895890264	1473895890334	i	73
147930	1608426	The hospital was hit by electricity cuts.	The hospital was hit by electricity cuts.	76446333	1473895890526	1473895890617	c	67
147930	1608426	The hospital was hit by electricity cuts.	The hospital was hit by electricity cuts.	76446337	1473895890638	1473895890721	i	73
147930	1608426	The hospital was hit by electricity cuts.	The hospital was hit by electricity cuts.	76446341	1473895890782	1473895890866	t	84
147930	1608426	The hospital was hit by electricity cuts.	The hospital was hit by electricity cuts.	76446354	1473895890871	1473895890943	y	89
147930	1608426	The hospital was hit by electricity cuts.	The hospital was hit by electricity cuts.	76446355	1473895891056	1473895891150	 	32
147930	1608426	The hospital was hit by electricity cuts.	The hospital was hit by electricity cuts.	76446357	1473895891163	1473895891246	c	67
147930	1608426	The hospital was hit by electricity cuts.	The hospital was hit by electricity cuts.	76446359	1473895891259	1473895891328	u	85
147930	1608426	The hospital was hit by electricity cuts.	The hospital was hit by electricity cuts.	76446361	1473895891375	1473895891496	t	84
147930	1608426	The hospital was hit by electricity cuts.	The hospital was hit by electricity cuts.	76446362	1473895891499	1473895891606	s	83
147930	1608444	In his last years he had been living at the nursing home.	In his last years he had been living at the nursing home.	76446507	1473895894967	1473895895101	SHIFT	16
147930	1608444	In his last years he had been living at the nursing home.	In his last years he had been living at the nursing home.	76446509	1473895895061	1473895895157	I	73
147930	1608444	In his last years he had been living at the nursing home.	In his last years he had been living at the nursing home.	76446513	1473895895196	1473895895277	n	78
147930	1608444	In his last years he had been living at the nursing home.	In his last years he had been living at the nursing home.	76446516	1473895895351	1473895895407	 	32
147930	1608444	In his last years he had been living at the nursing home.	In his last years he had been living at the nursing home.	76446519	1473895895486	1473895895582	h	72
147930	1608444	In his last years he had been living at the nursing home.	In his last years he had been living at the nursing home.	76446525	1473895895543	1473895895625	i	73
147930	1608444	In his last years he had been living at the nursing home.	In his last years he had been living at the nursing home.	76446529	1473895895646	1473895895725	s	83
147930	1608444	In his last years he had been living at the nursing home.	In his last years he had been living at the nursing home.	76446531	1473895895740	1473895895823	 	32
147930	1608444	In his last years he had been living at the nursing home.	In his last years he had been living at the nursing home.	76446534	1473895895903	1473895895975	l	76
147930	1608444	In his last years he had been living at the nursing home.	In his last years he had been living at the nursing home.	76446538	1473895895999	1473895896102	a	65
147930	1608444	In his last years he had been living at the nursing home.	In his last years he had been living at the nursing home.	76446549	1473895896071	1473895896182	s	83
147930	1608444	In his last years he had been living at the nursing home.	In his last years he had been living at the nursing home.	76446552	1473895896203	1473895896264	t	84
147930	1608444	In his last years he had been living at the nursing home.	In his last years he had been living at the nursing home.	76446556	1473895896371	1473895896424	 	32
147930	1608444	In his last years he had been living at the nursing home.	In his last years he had been living at the nursing home.	76446559	1473895896516	1473895896593	y	89
147930	1608444	In his last years he had been living at the nursing home.	In his last years he had been living at the nursing home.	76446562	1473895896576	1473895896666	e	69
147930	1608444	In his last years he had been living at the nursing home.	In his last years he had been living at the nursing home.	76446584	1473895896629	1473895896727	a	65
147930	1608444	In his last years he had been living at the nursing home.	In his last years he had been living at the nursing home.	76446586	1473895896748	1473895896856	r	82
147930	1608444	In his last years he had been living at the nursing home.	In his last years he had been living at the nursing home.	76446588	1473895896821	1473895896927	s	83
147930	1608444	In his last years he had been living at the nursing home.	In his last years he had been living at the nursing home.	76446591	1473895896944	1473895897014	 	32
147930	1608444	In his last years he had been living at the nursing home.	In his last years he had been living at the nursing home.	76446596	1473895897112	1473895897193	h	72
147930	1608444	In his last years he had been living at the nursing home.	In his last years he had been living at the nursing home.	76446601	1473895897267	1473895897363	e	69
147930	1608444	In his last years he had been living at the nursing home.	In his last years he had been living at the nursing home.	76446619	1473895897413	1473895897479	 	32
147930	1608444	In his last years he had been living at the nursing home.	In his last years he had been living at the nursing home.	76446621	1473895897574	1473895897652	h	72
147930	1608444	In his last years he had been living at the nursing home.	In his last years he had been living at the nursing home.	76446622	1473895897660	1473895897754	a	65
147930	1608444	In his last years he had been living at the nursing home.	In his last years he had been living at the nursing home.	76446624	1473895897778	1473895897889	d	68
147930	1608444	In his last years he had been living at the nursing home.	In his last years he had been living at the nursing home.	76446627	1473895897914	1473895897998	 	32
147930	1608444	In his last years he had been living at the nursing home.	In his last years he had been living at the nursing home.	76446652	1473895898101	1473895898180	b	66
147930	1608444	In his last years he had been living at the nursing home.	In his last years he had been living at the nursing home.	76446656	1473895898175	1473895898221	e	69
147930	1608444	In his last years he had been living at the nursing home.	In his last years he had been living at the nursing home.	76446660	1473895898298	1473895898376	e	69
147930	1608444	In his last years he had been living at the nursing home.	In his last years he had been living at the nursing home.	76446665	1473895898442	1473895898539	n	78
147930	1608444	In his last years he had been living at the nursing home.	In his last years he had been living at the nursing home.	76446668	1473895898628	1473895898715	 	32
147930	1608444	In his last years he had been living at the nursing home.	In his last years he had been living at the nursing home.	76446678	1473895898776	1473895898886	l	76
147930	1608444	In his last years he had been living at the nursing home.	In his last years he had been living at the nursing home.	76446681	1473895898858	1473895898934	i	73
147930	1608444	In his last years he had been living at the nursing home.	In his last years he had been living at the nursing home.	76446685	1473895898977	1473895899070	v	86
147930	1608444	In his last years he had been living at the nursing home.	In his last years he had been living at the nursing home.	76446687	1473895899063	1473895899149	i	73
147930	1608444	In his last years he had been living at the nursing home.	In his last years he had been living at the nursing home.	76446694	1473895899117	1473895899192	n	78
147930	1608444	In his last years he had been living at the nursing home.	In his last years he had been living at the nursing home.	76446696	1473895899237	1473895899317	g	71
147930	1608444	In his last years he had been living at the nursing home.	In his last years he had been living at the nursing home.	76446698	1473895899334	1473895899415	 	32
147930	1608444	In his last years he had been living at the nursing home.	In his last years he had been living at the nursing home.	76446699	1473895899466	1473895899552	a	65
147930	1608444	In his last years he had been living at the nursing home.	In his last years he had been living at the nursing home.	76446701	1473895899597	1473895899672	t	84
147930	1608444	In his last years he had been living at the nursing home.	In his last years he had been living at the nursing home.	76446703	1473895899713	1473895899788	 	32
147930	1608444	In his last years he had been living at the nursing home.	In his last years he had been living at the nursing home.	76446717	1473895899854	1473895899924	t	84
147930	1608444	In his last years he had been living at the nursing home.	In his last years he had been living at the nursing home.	76446719	1473895899923	1473895900017	h	72
147930	1608444	In his last years he had been living at the nursing home.	In his last years he had been living at the nursing home.	76446720	1473895900079	1473895900162	e	69
147930	1608444	In his last years he had been living at the nursing home.	In his last years he had been living at the nursing home.	76446723	1473895900201	1473895900287	 	32
147930	1608444	In his last years he had been living at the nursing home.	In his last years he had been living at the nursing home.	76446725	1473895900385	1473895900513	n	78
147930	1608444	In his last years he had been living at the nursing home.	In his last years he had been living at the nursing home.	76446734	1473895900476	1473895900579	u	85
147930	1608444	In his last years he had been living at the nursing home.	In his last years he had been living at the nursing home.	76446736	1473895900598	1473895900694	r	82
147930	1608444	In his last years he had been living at the nursing home.	In his last years he had been living at the nursing home.	76446740	1473895900830	1473895900925	s	83
147930	1608444	In his last years he had been living at the nursing home.	In his last years he had been living at the nursing home.	76446743	1473895900934	1473895901015	i	73
147930	1608444	In his last years he had been living at the nursing home.	In his last years he had been living at the nursing home.	76446746	1473895900978	1473895901062	n	78
147930	1608444	In his last years he had been living at the nursing home.	In his last years he had been living at the nursing home.	76446759	1473895901054	1473895901140	g	71
147930	1608444	In his last years he had been living at the nursing home.	In his last years he had been living at the nursing home.	76446762	1473895901155	1473895901225	 	32
147930	1608444	In his last years he had been living at the nursing home.	In his last years he had been living at the nursing home.	76446765	1473895901324	1473895901396	h	72
147930	1608444	In his last years he had been living at the nursing home.	In his last years he had been living at the nursing home.	76446767	1473895901461	1473895901549	o	79
147930	1608444	In his last years he had been living at the nursing home.	In his last years he had been living at the nursing home.	76446768	1473895901512	1473895901589	m	77
147930	1608444	In his last years he had been living at the nursing home.	In his last years he had been living at the nursing home.	76446769	1473895901601	1473895901678	e	69
147930	1608450	Have not added Westport on yet.	Have not added Westport on yet.	76446917	1473895906444	1473895906615	SHIFT	16
147930	1608450	Have not added Westport on yet.	Have not added Westport on yet.	76446918	1473895906575	1473895906646	H	72
147930	1608450	Have not added Westport on yet.	Have not added Westport on yet.	76446919	1473895906660	1473895906744	s	65
147930	1608450	Have not added Westport on yet.	Have not added Westport on yet.	76446920	1473895906769	1473895906844	v	86
147930	1608450	Have not added Westport on yet.	Have not added Westport on yet.	76446922	1473895906866	1473895906965	e	69
147930	1608450	Have not added Westport on yet.	Have not added Westport on yet.	76446979	1473895906968	1473895907031	 	32
147930	1608450	Have not added Westport on yet.	Have not added Westport on yet.	76446983	1473895907473	1473895907535	BKSP	8
147930	1608450	Have not added Westport on yet.	Have not added Westport on yet.	76446988	1473895907603	1473895907664	BKSP	8
147930	1608450	Have not added Westport on yet.	Have not added Westport on yet.	76446992	1473895907732	1473895907783	BKSP	8
147930	1608450	Have not added Westport on yet.	Have not added Westport on yet.	76446997	1473895907844	1473895907906	BKSP	8
147930	1608450	Have not added Westport on yet.	Have not added Westport on yet.	76447004	1473895907939	1473895908056	v	86
147930	1608450	Have not added Westport on yet.	Have not added Westport on yet.	76447008	1473895908010	1473895908112	e	69
147930	1608450	Have not added Westport on yet.	Have not added Westport on yet.	76447012	1473895908180	1473895908232	 	32
147930	1608450	Have not added Westport on yet.	Have not added Westport on yet.	76447014	1473895908324	1473895908398	n	78
147930	1608450	Have not added Westport on yet.	Have not added Westport on yet.	76447018	1473895908360	1473895908457	o	79
147930	1608450	Have not added Westport on yet.	Have not added Westport on yet.	76447019	1473895908532	1473895908630	t	84
147930	1608450	Have not added Westport on yet.	Have not added Westport on yet.	76447021	1473895908657	1473895908743	 	32
147930	1608450	Have not added Westport on yet.	Have not added Westport on yet.	76447023	1473895908785	1473895908870	a	65
147930	1608450	Have not added Westport on yet.	Have not added Westport on yet.	76447025	1473895908958	1473895909017	d	68
147930	1608450	Have not added Westport on yet.	Have not added Westport on yet.	76447027	1473895909087	1473895909164	d	68
147930	1608450	Have not added Westport on yet.	Have not added Westport on yet.	76447032	1473895909257	1473895909318	e	69
147930	1608450	Have not added Westport on yet.	Have not added Westport on yet.	76447034	1473895909381	1473895909470	d	68
147930	1608450	Have not added Westport on yet.	Have not added Westport on yet.	76447038	1473895909472	1473895909538	 	32
147930	1608450	Have not added Westport on yet.	Have not added Westport on yet.	76447041	1473895909555	1473895909687	SHIFT	16
147930	1608450	Have not added Westport on yet.	Have not added Westport on yet.	76447046	1473895909639	1473895909727	W	87
147930	1608450	Have not added Westport on yet.	Have not added Westport on yet.	76447052	1473895909776	1473895909872	e	69
147930	1608450	Have not added Westport on yet.	Have not added Westport on yet.	76447067	1473895909936	1473895910028	s	83
147930	1608450	Have not added Westport on yet.	Have not added Westport on yet.	76447069	1473895910137	1473895910223	t	84
147930	1608450	Have not added Westport on yet.	Have not added Westport on yet.	76447071	1473895910292	1473895910385	p	80
147930	1608450	Have not added Westport on yet.	Have not added Westport on yet.	76447073	1473895910350	1473895910444	o	79
147930	1608450	Have not added Westport on yet.	Have not added Westport on yet.	76447077	1473895910654	1473895910774	r	82
147930	1608450	Have not added Westport on yet.	Have not added Westport on yet.	76447129	1473895910723	1473895910833	t	84
147930	1608450	Have not added Westport on yet.	Have not added Westport on yet.	76447131	1473895910854	1473895910914	 	32
147930	1608450	Have not added Westport on yet.	Have not added Westport on yet.	76447133	1473895910965	1473895911061	o	79
147930	1608450	Have not added Westport on yet.	Have not added Westport on yet.	76447136	1473895911028	1473895911109	n	78
147930	1608450	Have not added Westport on yet.	Have not added Westport on yet.	76447138	1473895911189	1473895911268	 	32
147930	1608450	Have not added Westport on yet.	Have not added Westport on yet.	76447140	1473895911506	1473895911565	BKSP	8
147930	1608450	Have not added Westport on yet.	Have not added Westport on yet.	76447143	1473895911639	1473895911696	BKSP	8
147930	1608450	Have not added Westport on yet.	Have not added Westport on yet.	76447147	1473895911765	1473895911821	BKSP	8
147930	1608450	Have not added Westport on yet.	Have not added Westport on yet.	76447151	1473895912607	1473895912699	o	79
147930	1608450	Have not added Westport on yet.	Have not added Westport on yet.	76447162	1473895912654	1473895912740	n	78
147930	1608450	Have not added Westport on yet.	Have not added Westport on yet.	76447165	1473895912808	1473895912879	 	32
147930	1608450	Have not added Westport on yet.	Have not added Westport on yet.	76447168	1473895912989	1473895913059	y	89
147930	1608450	Have not added Westport on yet.	Have not added Westport on yet.	76447171	1473895913052	1473895913167	e	69
147930	1608450	Have not added Westport on yet.	Have not added Westport on yet.	76447174	1473895913130	1473895913247	t	84
147930	1608458	Do not send small, unsuspecting children to check on my progress.	Do not send small, unsuspecting children to check on my progress.	76447440	1473895925503	1473895925692	SHIFT	16
147930	1608458	Do not send small, unsuspecting children to check on my progress.	Do not send small, unsuspecting children to check on my progress.	76447442	1473895925625	1473895925750	D	68
147930	1608458	Do not send small, unsuspecting children to check on my progress.	Do not send small, unsuspecting children to check on my progress.	76447443	1473895925713	1473895925790	o	79
147930	1608458	Do not send small, unsuspecting children to check on my progress.	Do not send small, unsuspecting children to check on my progress.	76447444	1473895925844	1473895925917	 	32
147930	1608458	Do not send small, unsuspecting children to check on my progress.	Do not send small, unsuspecting children to check on my progress.	76447445	1473895925995	1473895926074	n	78
147930	1608458	Do not send small, unsuspecting children to check on my progress.	Do not send small, unsuspecting children to check on my progress.	76447459	1473895926019	1473895926127	o	79
147930	1608458	Do not send small, unsuspecting children to check on my progress.	Do not send small, unsuspecting children to check on my progress.	76447462	1473895926194	1473895926281	t	84
147930	1608458	Do not send small, unsuspecting children to check on my progress.	Do not send small, unsuspecting children to check on my progress.	76447463	1473895926294	1473895926375	 	32
147930	1608458	Do not send small, unsuspecting children to check on my progress.	Do not send small, unsuspecting children to check on my progress.	76447465	1473895926548	1473895926679	s	83
147930	1608458	Do not send small, unsuspecting children to check on my progress.	Do not send small, unsuspecting children to check on my progress.	76447467	1473895926634	1473895926714	e	69
147930	1608458	Do not send small, unsuspecting children to check on my progress.	Do not send small, unsuspecting children to check on my progress.	76447470	1473895926719	1473895926795	n	78
147930	1608458	Do not send small, unsuspecting children to check on my progress.	Do not send small, unsuspecting children to check on my progress.	76447484	1473895926814	1473895926903	d	68
147930	1608458	Do not send small, unsuspecting children to check on my progress.	Do not send small, unsuspecting children to check on my progress.	76447486	1473895926924	1473895927013	 	32
147930	1608458	Do not send small, unsuspecting children to check on my progress.	Do not send small, unsuspecting children to check on my progress.	76447488	1473895927064	1473895927162	c	67
147930	1608458	Do not send small, unsuspecting children to check on my progress.	Do not send small, unsuspecting children to check on my progress.	76447489	1473895927174	1473895927247	m	77
147930	1608458	Do not send small, unsuspecting children to check on my progress.	Do not send small, unsuspecting children to check on my progress.	76447490	1473895927468	1473895927525	BKSP	8
147930	1608458	Do not send small, unsuspecting children to check on my progress.	Do not send small, unsuspecting children to check on my progress.	76447491	1473895927582	1473895927651	BKSP	8
147930	1608458	Do not send small, unsuspecting children to check on my progress.	Do not send small, unsuspecting children to check on my progress.	76447492	1473895927687	1473895927782	s	83
147930	1608458	Do not send small, unsuspecting children to check on my progress.	Do not send small, unsuspecting children to check on my progress.	76447495	1473895927764	1473895927834	m	77
147930	1608458	Do not send small, unsuspecting children to check on my progress.	Do not send small, unsuspecting children to check on my progress.	76447497	1473895927851	1473895927940	a	65
147930	1608458	Do not send small, unsuspecting children to check on my progress.	Do not send small, unsuspecting children to check on my progress.	76447499	1473895927951	1473895928008	l	76
147930	1608458	Do not send small, unsuspecting children to check on my progress.	Do not send small, unsuspecting children to check on my progress.	76447501	1473895928054	1473895928130	l	76
147930	1608458	Do not send small, unsuspecting children to check on my progress.	Do not send small, unsuspecting children to check on my progress.	76447502	1473895928251	1473895928328	,	188
147930	1608458	Do not send small, unsuspecting children to check on my progress.	Do not send small, unsuspecting children to check on my progress.	76447504	1473895928403	1473895928497	 	32
147930	1608458	Do not send small, unsuspecting children to check on my progress.	Do not send small, unsuspecting children to check on my progress.	76447518	1473895928594	1473895928698	u	85
147930	1608458	Do not send small, unsuspecting children to check on my progress.	Do not send small, unsuspecting children to check on my progress.	76447521	1473895928673	1473895928769	n	78
147930	1608458	Do not send small, unsuspecting children to check on my progress.	Do not send small, unsuspecting children to check on my progress.	76447523	1473895928833	1473895928925	s	83
147930	1608458	Do not send small, unsuspecting children to check on my progress.	Do not send small, unsuspecting children to check on my progress.	76447525	1473895928957	1473895929026	p	80
147930	1608458	Do not send small, unsuspecting children to check on my progress.	Do not send small, unsuspecting children to check on my progress.	76447527	1473895929254	1473895929323	BKSP	8
147930	1608458	Do not send small, unsuspecting children to check on my progress.	Do not send small, unsuspecting children to check on my progress.	76447528	1473895929434	1473895929504	u	85
147930	1608458	Do not send small, unsuspecting children to check on my progress.	Do not send small, unsuspecting children to check on my progress.	76447539	1473895929583	1473895929662	s	83
147930	1608458	Do not send small, unsuspecting children to check on my progress.	Do not send small, unsuspecting children to check on my progress.	76447540	1473895929701	1473895929770	p	80
147930	1608458	Do not send small, unsuspecting children to check on my progress.	Do not send small, unsuspecting children to check on my progress.	76447541	1473895930034	1473895930121	e	69
147930	1608458	Do not send small, unsuspecting children to check on my progress.	Do not send small, unsuspecting children to check on my progress.	76447542	1473895930205	1473895930295	c	67
147930	1608458	Do not send small, unsuspecting children to check on my progress.	Do not send small, unsuspecting children to check on my progress.	76447543	1473895930425	1473895930487	t	84
147930	1608458	Do not send small, unsuspecting children to check on my progress.	Do not send small, unsuspecting children to check on my progress.	76447544	1473895930497	1473895930578	i	73
147930	1608458	Do not send small, unsuspecting children to check on my progress.	Do not send small, unsuspecting children to check on my progress.	76447545	1473895930538	1473895930615	n	78
147930	1608458	Do not send small, unsuspecting children to check on my progress.	Do not send small, unsuspecting children to check on my progress.	76447546	1473895930633	1473895930698	g	71
147930	1608458	Do not send small, unsuspecting children to check on my progress.	Do not send small, unsuspecting children to check on my progress.	76447547	1473895930726	1473895930814	 	32
147930	1608458	Do not send small, unsuspecting children to check on my progress.	Do not send small, unsuspecting children to check on my progress.	76447548	1473895930864	1473895930962	c	67
147930	1608458	Do not send small, unsuspecting children to check on my progress.	Do not send small, unsuspecting children to check on my progress.	76447551	1473895930963	1473895931058	h	72
147930	1608458	Do not send small, unsuspecting children to check on my progress.	Do not send small, unsuspecting children to check on my progress.	76447553	1473895931035	1473895931113	i	73
147930	1608458	Do not send small, unsuspecting children to check on my progress.	Do not send small, unsuspecting children to check on my progress.	76447556	1473895931212	1473895931292	l	76
147930	1608458	Do not send small, unsuspecting children to check on my progress.	Do not send small, unsuspecting children to check on my progress.	76447559	1473895931333	1473895931400	d	68
147930	1608458	Do not send small, unsuspecting children to check on my progress.	Do not send small, unsuspecting children to check on my progress.	76447562	1473895931501	1473895931615	r	82
147930	1608458	Do not send small, unsuspecting children to check on my progress.	Do not send small, unsuspecting children to check on my progress.	76447570	1473895931563	1473895931665	e	69
147930	1608458	Do not send small, unsuspecting children to check on my progress.	Do not send small, unsuspecting children to check on my progress.	76447571	1473895931683	1473895931756	n	78
147930	1608458	Do not send small, unsuspecting children to check on my progress.	Do not send small, unsuspecting children to check on my progress.	76447572	1473895931845	1473895931912	 	32
147930	1608458	Do not send small, unsuspecting children to check on my progress.	Do not send small, unsuspecting children to check on my progress.	76447573	1473895931921	1473895932000	t	84
147930	1608458	Do not send small, unsuspecting children to check on my progress.	Do not send small, unsuspecting children to check on my progress.	76447574	1473895931984	1473895932056	o	79
147930	1608458	Do not send small, unsuspecting children to check on my progress.	Do not send small, unsuspecting children to check on my progress.	76447575	1473895932111	1473895932181	 	32
147930	1608458	Do not send small, unsuspecting children to check on my progress.	Do not send small, unsuspecting children to check on my progress.	76447576	1473895932200	1473895932277	c	67
147930	1608458	Do not send small, unsuspecting children to check on my progress.	Do not send small, unsuspecting children to check on my progress.	76447577	1473895932284	1473895932349	h	72
147930	1608458	Do not send small, unsuspecting children to check on my progress.	Do not send small, unsuspecting children to check on my progress.	76447578	1473895932357	1473895932426	e	69
147930	1608458	Do not send small, unsuspecting children to check on my progress.	Do not send small, unsuspecting children to check on my progress.	76447579	1473895932485	1473895932588	c	67
147930	1608458	Do not send small, unsuspecting children to check on my progress.	Do not send small, unsuspecting children to check on my progress.	76447594	1473895932551	1473895932624	k	75
147930	1608458	Do not send small, unsuspecting children to check on my progress.	Do not send small, unsuspecting children to check on my progress.	76447596	1473895932686	1473895932743	 	32
147930	1608458	Do not send small, unsuspecting children to check on my progress.	Do not send small, unsuspecting children to check on my progress.	76447599	1473895932790	1473895932863	o	79
147930	1608458	Do not send small, unsuspecting children to check on my progress.	Do not send small, unsuspecting children to check on my progress.	76447602	1473895932834	1473895932899	n	78
147930	1608458	Do not send small, unsuspecting children to check on my progress.	Do not send small, unsuspecting children to check on my progress.	76447606	1473895932949	1473895933011	 	32
147930	1608458	Do not send small, unsuspecting children to check on my progress.	Do not send small, unsuspecting children to check on my progress.	76447609	1473895933082	1473895933139	p	80
147930	1608458	Do not send small, unsuspecting children to check on my progress.	Do not send small, unsuspecting children to check on my progress.	76447619	1473895933493	1473895933561	BKSP	8
147930	1608458	Do not send small, unsuspecting children to check on my progress.	Do not send small, unsuspecting children to check on my progress.	76447621	1473895933665	1473895933743	m	77
147930	1608458	Do not send small, unsuspecting children to check on my progress.	Do not send small, unsuspecting children to check on my progress.	76447623	1473895933804	1473895933882	y	89
147930	1608458	Do not send small, unsuspecting children to check on my progress.	Do not send small, unsuspecting children to check on my progress.	76447625	1473895933874	1473895933955	 	32
147930	1608458	Do not send small, unsuspecting children to check on my progress.	Do not send small, unsuspecting children to check on my progress.	76447627	1473895934020	1473895934088	p	80
147930	1608458	Do not send small, unsuspecting children to check on my progress.	Do not send small, unsuspecting children to check on my progress.	76447629	1473895934117	1473895934188	r	82
147930	1608458	Do not send small, unsuspecting children to check on my progress.	Do not send small, unsuspecting children to check on my progress.	76447639	1473895934197	1473895934268	o	79
147930	1608458	Do not send small, unsuspecting children to check on my progress.	Do not send small, unsuspecting children to check on my progress.	76447640	1473895934371	1473895934444	g	71
147930	1608458	Do not send small, unsuspecting children to check on my progress.	Do not send small, unsuspecting children to check on my progress.	76447641	1473895934467	1473895934577	r	82
147930	1608458	Do not send small, unsuspecting children to check on my progress.	Do not send small, unsuspecting children to check on my progress.	76447642	1473895934525	1473895934602	e	69
147930	1608458	Do not send small, unsuspecting children to check on my progress.	Do not send small, unsuspecting children to check on my progress.	76447643	1473895934707	1473895934750	s	83
147930	1608458	Do not send small, unsuspecting children to check on my progress.	Do not send small, unsuspecting children to check on my progress.	76447644	1473895934810	1473895934894	s	83
147930	1608465	Please call tomorrow if possible.	Please call tomorrow is possible.	76447782	1473895934889	1473895942114	.	190
147930	1608465	Please call tomorrow if possible.	Please call tomorrow is possible.	76447702	1473895938615	1473895938769	SHIFT	16
147930	1608465	Please call tomorrow if possible.	Please call tomorrow is possible.	76447703	1473895938725	1473895938825	P	80
147930	1608465	Please call tomorrow if possible.	Please call tomorrow is possible.	76447704	1473895938805	1473895938889	l	76
147930	1608465	Please call tomorrow if possible.	Please call tomorrow is possible.	76447705	1473895938867	1473895938995	e	69
147930	1608465	Please call tomorrow if possible.	Please call tomorrow is possible.	76447706	1473895938956	1473895939112	a	65
147930	1608465	Please call tomorrow if possible.	Please call tomorrow is possible.	76447720	1473895939090	1473895939264	s	83
147930	1608465	Please call tomorrow if possible.	Please call tomorrow is possible.	76447722	1473895939223	1473895939330	e	69
147930	1608465	Please call tomorrow if possible.	Please call tomorrow is possible.	76447725	1473895939405	1473895939498	 	32
147930	1608465	Please call tomorrow if possible.	Please call tomorrow is possible.	76447727	1473895939533	1473895939635	c	67
147930	1608465	Please call tomorrow if possible.	Please call tomorrow is possible.	76447730	1473895939635	1473895939724	a	65
147930	1608465	Please call tomorrow if possible.	Please call tomorrow is possible.	76447738	1473895939717	1473895939782	l	76
147930	1608465	Please call tomorrow if possible.	Please call tomorrow is possible.	76447740	1473895939838	1473895939912	l	76
147930	1608465	Please call tomorrow if possible.	Please call tomorrow is possible.	76447741	1473895939973	1473895940048	 	32
147930	1608465	Please call tomorrow if possible.	Please call tomorrow is possible.	76447742	1473895940095	1473895940175	t	84
147930	1608465	Please call tomorrow if possible.	Please call tomorrow is possible.	76447743	1473895940157	1473895940237	o	79
147930	1608465	Please call tomorrow if possible.	Please call tomorrow is possible.	76447744	1473895940218	1473895940328	m	77
147930	1608465	Please call tomorrow if possible.	Please call tomorrow is possible.	76447745	1473895940312	1473895940396	o	79
147930	1608465	Please call tomorrow if possible.	Please call tomorrow is possible.	76447746	1473895940440	1473895940482	r	82
147930	1608465	Please call tomorrow if possible.	Please call tomorrow is possible.	76447747	1473895940562	1473895940655	r	82
147930	1608465	Please call tomorrow if possible.	Please call tomorrow is possible.	76447748	1473895940659	1473895940730	o	79
147930	1608465	Please call tomorrow if possible.	Please call tomorrow is possible.	76447749	1473895940761	1473895940817	w	87
147930	1608465	Please call tomorrow if possible.	Please call tomorrow is possible.	76447757	1473895940859	1473895940930	 	32
147930	1608465	Please call tomorrow if possible.	Please call tomorrow is possible.	76447758	1473895940992	1473895941069	i	73
147930	1608465	Please call tomorrow if possible.	Please call tomorrow is possible.	76447760	1473895941088	1473895941154	s	83
147930	1608465	Please call tomorrow if possible.	Please call tomorrow is possible.	76447761	1473895941169	1473895941237	 	32
147930	1608465	Please call tomorrow if possible.	Please call tomorrow is possible.	76447763	1473895941323	1473895941415	p	80
147930	1608465	Please call tomorrow if possible.	Please call tomorrow is possible.	76447766	1473895941380	1473895941463	o	79
147930	1608465	Please call tomorrow if possible.	Please call tomorrow is possible.	76447769	1473895941493	1473895941557	s	83
147930	1608465	Please call tomorrow if possible.	Please call tomorrow is possible.	76447772	1473895941631	1473895941753	s	83
147930	1608465	Please call tomorrow if possible.	Please call tomorrow is possible.	76447775	1473895941695	1473895941780	i	73
147930	1608465	Please call tomorrow if possible.	Please call tomorrow is possible.	76447780	1473895941749	1473895941816	b	66
147930	1608465	Please call tomorrow if possible.	Please call tomorrow is possible.	76447783	1473895941876	1473895941949	l	76
147930	1608465	Please call tomorrow if possible.	Please call tomorrow is possible.	76447777	1473895941968	1473895942056	e	69
147930	1608469	Nice weather for it.	Nice weather for it.	76447824	1473895944083	1473895944256	SHIFT	16
147930	1608469	Nice weather for it.	Nice weather for it.	76447825	1473895944184	1473895944264	N	78
147930	1608469	Nice weather for it.	Nice weather for it.	76447826	1473895944413	1473895944488	i	73
147930	1608469	Nice weather for it.	Nice weather for it.	76447827	1473895944508	1473895944607	c	67
147930	1608469	Nice weather for it.	Nice weather for it.	76447828	1473895944575	1473895944656	e	69
147930	1608469	Nice weather for it.	Nice weather for it.	76447829	1473895944681	1473895944768	 	32
147930	1608469	Nice weather for it.	Nice weather for it.	76447830	1473895944932	1473895945050	w	87
147930	1608469	Nice weather for it.	Nice weather for it.	76447831	1473895945010	1473895945155	e	69
147930	1608469	Nice weather for it.	Nice weather for it.	76447832	1473895945231	1473895945273	a	65
147930	1608469	Nice weather for it.	Nice weather for it.	76447833	1473895945535	1473895945602	BKSP	8
147930	1608469	Nice weather for it.	Nice weather for it.	76447834	1473895945665	1473895945737	BKSP	8
147930	1608469	Nice weather for it.	Nice weather for it.	76447835	1473895946169	1473895946287	e	69
147930	1608469	Nice weather for it.	Nice weather for it.	76447841	1473895946237	1473895946341	a	65
147930	1608469	Nice weather for it.	Nice weather for it.	76447843	1473895946487	1473895946565	t	84
147930	1608469	Nice weather for it.	Nice weather for it.	76447844	1473895946585	1473895946657	h	72
147930	1608469	Nice weather for it.	Nice weather for it.	76447845	1473895946665	1473895946753	e	69
147930	1608469	Nice weather for it.	Nice weather for it.	76447846	1473895946725	1473895946808	r	82
147930	1608469	Nice weather for it.	Nice weather for it.	76447847	1473895946843	1473895946912	 	32
147930	1608469	Nice weather for it.	Nice weather for it.	76447848	1473895946942	1473895947010	f	70
147930	1608469	Nice weather for it.	Nice weather for it.	76447849	1473895947003	1473895947072	o	79
147930	1608469	Nice weather for it.	Nice weather for it.	76447850	1473895947092	1473895947178	r	82
147930	1608469	Nice weather for it.	Nice weather for it.	76447851	1473895947161	1473895947223	 	32
147930	1608469	Nice weather for it.	Nice weather for it.	76447852	1473895947233	1473895947301	i	73
147930	1608469	Nice weather for it.	Nice weather for it.	76447853	1473895947308	1473895947400	t	84
147930	1608469	Nice weather for it.	Nice weather for it.	76447854	1473895947405	1473895947491	.	190
147930	1608471	These are big storms and traffic isn't moving.	These are big storms and traffic isn't moving.	76447925	1473895953505	1473895953658	SHIFT	16
147930	1608471	These are big storms and traffic isn't moving.	These are big storms and traffic isn't moving.	76447926	1473895953624	1473895953699	T	84
147930	1608471	These are big storms and traffic isn't moving.	These are big storms and traffic isn't moving.	76447927	1473895953694	1473895953762	h	72
147930	1608471	These are big storms and traffic isn't moving.	These are big storms and traffic isn't moving.	76447928	1473895953796	1473895953887	e	69
147930	1608471	These are big storms and traffic isn't moving.	These are big storms and traffic isn't moving.	76447929	1473895954015	1473895954129	s	83
147930	1608471	These are big storms and traffic isn't moving.	These are big storms and traffic isn't moving.	76447930	1473895954090	1473895954189	e	69
147930	1608471	These are big storms and traffic isn't moving.	These are big storms and traffic isn't moving.	76447931	1473895954248	1473895954332	 	32
147930	1608471	These are big storms and traffic isn't moving.	These are big storms and traffic isn't moving.	76447932	1473895954350	1473895954466	a	65
147930	1608471	These are big storms and traffic isn't moving.	These are big storms and traffic isn't moving.	76447933	1473895954425	1473895954540	r	82
147930	1608471	These are big storms and traffic isn't moving.	These are big storms and traffic isn't moving.	76447934	1473895954504	1473895954582	e	69
147930	1608471	These are big storms and traffic isn't moving.	These are big storms and traffic isn't moving.	76447935	1473895954574	1473895954638	 	32
147930	1608471	These are big storms and traffic isn't moving.	These are big storms and traffic isn't moving.	76447936	1473895954719	1473895954811	b	66
147930	1608471	These are big storms and traffic isn't moving.	These are big storms and traffic isn't moving.	76447937	1473895954767	1473895954867	i	73
147930	1608471	These are big storms and traffic isn't moving.	These are big storms and traffic isn't moving.	76447939	1473895954835	1473895954919	g	71
147930	1608471	These are big storms and traffic isn't moving.	These are big storms and traffic isn't moving.	76447941	1473895954965	1473895955047	 	32
147930	1608471	These are big storms and traffic isn't moving.	These are big storms and traffic isn't moving.	76447944	1473895955063	1473895955119	s	83
147930	1608471	These are big storms and traffic isn't moving.	These are big storms and traffic isn't moving.	76447957	1473895955210	1473895955274	t	84
147930	1608471	These are big storms and traffic isn't moving.	These are big storms and traffic isn't moving.	76447959	1473895955314	1473895955386	o	79
147930	1608471	These are big storms and traffic isn't moving.	These are big storms and traffic isn't moving.	76447961	1473895955422	1473895955495	r	82
147930	1608471	These are big storms and traffic isn't moving.	These are big storms and traffic isn't moving.	76447962	1473895955517	1473895955594	m	77
147930	1608471	These are big storms and traffic isn't moving.	These are big storms and traffic isn't moving.	76447963	1473895955614	1473895955683	s	83
147930	1608471	These are big storms and traffic isn't moving.	These are big storms and traffic isn't moving.	76447967	1473895955725	1473895955802	 	32
147930	1608471	These are big storms and traffic isn't moving.	These are big storms and traffic isn't moving.	76447971	1473895955817	1473895955939	a	65
147930	1608471	These are big storms and traffic isn't moving.	These are big storms and traffic isn't moving.	76447975	1473895956009	1473895956090	n	78
147930	1608471	These are big storms and traffic isn't moving.	These are big storms and traffic isn't moving.	76447979	1473895956077	1473895956190	d	68
147930	1608471	These are big storms and traffic isn't moving.	These are big storms and traffic isn't moving.	76447982	1473895956201	1473895956294	 	32
147930	1608471	These are big storms and traffic isn't moving.	These are big storms and traffic isn't moving.	76447992	1473895956388	1473895956441	t	84
147930	1608471	These are big storms and traffic isn't moving.	These are big storms and traffic isn't moving.	76447995	1473895956537	1473895956645	r	82
147930	1608471	These are big storms and traffic isn't moving.	These are big storms and traffic isn't moving.	76447996	1473895956635	1473895956734	a	65
147930	1608471	These are big storms and traffic isn't moving.	These are big storms and traffic isn't moving.	76447997	1473895956829	1473895956900	f	70
147930	1608471	These are big storms and traffic isn't moving.	These are big storms and traffic isn't moving.	76447998	1473895956957	1473895957049	f	70
147930	1608471	These are big storms and traffic isn't moving.	These are big storms and traffic isn't moving.	76447999	1473895957068	1473895957144	i	73
147930	1608471	These are big storms and traffic isn't moving.	These are big storms and traffic isn't moving.	76448001	1473895957151	1473895957235	c	67
147930	1608471	These are big storms and traffic isn't moving.	These are big storms and traffic isn't moving.	76448003	1473895957283	1473895957357	 	32
147930	1608471	These are big storms and traffic isn't moving.	These are big storms and traffic isn't moving.	76448005	1473895957444	1473895957518	i	73
147930	1608471	These are big storms and traffic isn't moving.	These are big storms and traffic isn't moving.	76448007	1473895957531	1473895957623	s	83
147930	1608471	These are big storms and traffic isn't moving.	These are big storms and traffic isn't moving.	76448014	1473895957627	1473895957699	n	78
147930	1608471	These are big storms and traffic isn't moving.	These are big storms and traffic isn't moving.	76448015	1473895957791	1473895957856	'	192
147930	1608471	These are big storms and traffic isn't moving.	These are big storms and traffic isn't moving.	76448016	1473895957880	1473895957956	t	84
147930	1608471	These are big storms and traffic isn't moving.	These are big storms and traffic isn't moving.	76448017	1473895957966	1473895958027	 	32
147930	1608471	These are big storms and traffic isn't moving.	These are big storms and traffic isn't moving.	76448018	1473895958091	1473895958192	m	77
147930	1608471	These are big storms and traffic isn't moving.	These are big storms and traffic isn't moving.	76448019	1473895958156	1473895958233	o	79
147930	1608471	These are big storms and traffic isn't moving.	These are big storms and traffic isn't moving.	76448020	1473895958232	1473895958327	v	86
147930	1608471	These are big storms and traffic isn't moving.	These are big storms and traffic isn't moving.	76448021	1473895958327	1473895958417	i	73
147930	1608471	These are big storms and traffic isn't moving.	These are big storms and traffic isn't moving.	76448023	1473895958387	1473895958473	n	78
147930	1608471	These are big storms and traffic isn't moving.	These are big storms and traffic isn't moving.	76448025	1473895958477	1473895958568	g	71
147930	1608471	These are big storms and traffic isn't moving.	These are big storms and traffic isn't moving.	76448027	1473895958624	1473895958702	.	190
147930	1608474	Jan, sorry for the inconvenience.	Jan, sorry for the inconvenience.	76448077	1473895963161	1473895963533	SHIFT	16
147930	1608474	Jan, sorry for the inconvenience.	Jan, sorry for the inconvenience.	76448078	1473895963458	1473895963535	J	74
147930	1608474	Jan, sorry for the inconvenience.	Jan, sorry for the inconvenience.	76448079	1473895963560	1473895963653	a	65
147930	1608474	Jan, sorry for the inconvenience.	Jan, sorry for the inconvenience.	76448080	1473895963656	1473895963728	n	78
147930	1608474	Jan, sorry for the inconvenience.	Jan, sorry for the inconvenience.	76448081	1473895963936	1473895964011	,	188
147930	1608474	Jan, sorry for the inconvenience.	Jan, sorry for the inconvenience.	76448082	1473895964106	1473895964186	 	32
147930	1608474	Jan, sorry for the inconvenience.	Jan, sorry for the inconvenience.	76448086	1473895964376	1473895964452	s	83
147930	1608474	Jan, sorry for the inconvenience.	Jan, sorry for the inconvenience.	76448088	1473895964450	1473895964526	o	79
147930	1608474	Jan, sorry for the inconvenience.	Jan, sorry for the inconvenience.	76448090	1473895964553	1473895964611	r	82
147930	1608474	Jan, sorry for the inconvenience.	Jan, sorry for the inconvenience.	76448092	1473895964675	1473895964777	r	82
147930	1608474	Jan, sorry for the inconvenience.	Jan, sorry for the inconvenience.	76448098	1473895964743	1473895964816	y	89
147930	1608474	Jan, sorry for the inconvenience.	Jan, sorry for the inconvenience.	76448099	1473895964916	1473895965001	 	32
147930	1608474	Jan, sorry for the inconvenience.	Jan, sorry for the inconvenience.	76448100	1473895965003	1473895965068	f	70
147930	1608474	Jan, sorry for the inconvenience.	Jan, sorry for the inconvenience.	76448101	1473895965100	1473895965170	o	79
147930	1608474	Jan, sorry for the inconvenience.	Jan, sorry for the inconvenience.	76448102	1473895965167	1473895965236	r	82
147930	1608474	Jan, sorry for the inconvenience.	Jan, sorry for the inconvenience.	76448103	1473895965265	1473895965326	 	32
147930	1608474	Jan, sorry for the inconvenience.	Jan, sorry for the inconvenience.	76448109	1473895965366	1473895965433	t	84
147930	1608474	Jan, sorry for the inconvenience.	Jan, sorry for the inconvenience.	76448110	1473895965419	1473895965495	h	72
147930	1608474	Jan, sorry for the inconvenience.	Jan, sorry for the inconvenience.	76448111	1473895965514	1473895965581	e	69
147930	1608474	Jan, sorry for the inconvenience.	Jan, sorry for the inconvenience.	76448112	1473895965597	1473895965668	 	32
147930	1608474	Jan, sorry for the inconvenience.	Jan, sorry for the inconvenience.	76448113	1473895965751	1473895965838	i	73
147930	1608474	Jan, sorry for the inconvenience.	Jan, sorry for the inconvenience.	76448120	1473895965799	1473895965894	n	78
147930	1608474	Jan, sorry for the inconvenience.	Jan, sorry for the inconvenience.	76448122	1473895965993	1473895966083	c	67
147930	1608474	Jan, sorry for the inconvenience.	Jan, sorry for the inconvenience.	76448123	1473895966115	1473895966204	o	79
147930	1608474	Jan, sorry for the inconvenience.	Jan, sorry for the inconvenience.	76448124	1473895966170	1473895966262	n	78
147930	1608474	Jan, sorry for the inconvenience.	Jan, sorry for the inconvenience.	76448125	1473895966373	1473895966448	v	86
147930	1608474	Jan, sorry for the inconvenience.	Jan, sorry for the inconvenience.	76448126	1473895966561	1473895966644	e	69
147930	1608474	Jan, sorry for the inconvenience.	Jan, sorry for the inconvenience.	76448133	1473895966800	1473895966918	n	78
147930	1608474	Jan, sorry for the inconvenience.	Jan, sorry for the inconvenience.	76448134	1473895966895	1473895966991	i	73
147930	1608474	Jan, sorry for the inconvenience.	Jan, sorry for the inconvenience.	76448135	1473895967140	1473895967273	e	69
147930	1608474	Jan, sorry for the inconvenience.	Jan, sorry for the inconvenience.	76448136	1473895967548	1473895967618	c	67
147930	1608474	Jan, sorry for the inconvenience.	Jan, sorry for the inconvenience.	76448137	1473895967892	1473895967955	BKSP	8
147930	1608474	Jan, sorry for the inconvenience.	Jan, sorry for the inconvenience.	76448138	1473895968078	1473895968146	n	78
147930	1608474	Jan, sorry for the inconvenience.	Jan, sorry for the inconvenience.	76448139	1473895968129	1473895968230	c	67
147930	1608474	Jan, sorry for the inconvenience.	Jan, sorry for the inconvenience.	76448140	1473895968184	1473895968275	e	69
