PARTICIPANT_ID	TEST_SECTION_ID	SENTENCE	USER_INPUT	KEYSTROKE_ID	PRESS_TIME	RELEASE_TIME	LETTER	KEYCODE
154974	1683106	Please pass along my thanks, though.	Please pass along my thanks, though.	79981304	1473972979453	1473972979564	p	80
154974	1683106	Please pass along my thanks, though.	Please pass along my thanks, though.	79981310	1473972980340	1473972980452	BKSP	8
154974	1683106	Please pass along my thanks, though.	Please pass along my thanks, though.	79981313	1473972980620	1473972980868	SHIFT	16
154974	1683106	Please pass along my thanks, though.	Please pass along my thanks, though.	79981318	1473972980756	1473972980868	P	80
154974	1683106	Please pass along my thanks, though.	Please pass along my thanks, though.	79981322	1473972980964	1473972981140	l	76
154974	1683106	Please pass along my thanks, though.	Please pass along my thanks, though.	79981325	1473972981196	1473972981316	e	69
154974	1683106	Please pass along my thanks, though.	Please pass along my thanks, though.	79981329	1473972981412	1473972981540	a	65
154974	1683106	Please pass along my thanks, though.	Please pass along my thanks, though.	79981381	1473972981548	1473972981692	s	83
154974	1683106	Please pass along my thanks, though.	Please pass along my thanks, though.	79981384	1473972981732	1473972981868	 	32
154974	1683106	Please pass along my thanks, though.	Please pass along my thanks, though.	79981389	1473972982276	1473972982372	BKSP	8
154974	1683106	Please pass along my thanks, though.	Please pass along my thanks, though.	79981394	1473972982365	1473972982532	e	69
154974	1683106	Please pass along my thanks, though.	Please pass along my thanks, though.	79981398	1473972982508	1473972982636	 	32
154974	1683106	Please pass along my thanks, though.	Please pass along my thanks, though.	79981403	1473972982756	1473972982884	p	80
154974	1683106	Please pass along my thanks, though.	Please pass along my thanks, though.	79981440	1473972982868	1473972982988	a	65
154974	1683106	Please pass along my thanks, though.	Please pass along my thanks, though.	79981442	1473972983084	1473972983156	s	83
154974	1683106	Please pass along my thanks, though.	Please pass along my thanks, though.	79981445	1473972983292	1473972983428	s	83
154974	1683106	Please pass along my thanks, though.	Please pass along my thanks, though.	79981448	1473972983436	1473972983540	 	32
154974	1683106	Please pass along my thanks, though.	Please pass along my thanks, though.	79981451	1473972983620	1473972983748	a	65
154974	1683106	Please pass along my thanks, though.	Please pass along my thanks, though.	79981541	1473972983740	1473972983884	l	76
154974	1683106	Please pass along my thanks, though.	Please pass along my thanks, though.	79981545	1473972983924	1473972984044	n	78
154974	1683106	Please pass along my thanks, though.	Please pass along my thanks, though.	79981549	1473972984116	1473972984228	n	78
154974	1683106	Please pass along my thanks, though.	Please pass along my thanks, though.	79981553	1473972984516	1473972984596	BKSP	8
154974	1683106	Please pass along my thanks, though.	Please pass along my thanks, though.	79981555	1473972984644	1473972984724	BKSP	8
154974	1683106	Please pass along my thanks, though.	Please pass along my thanks, though.	79981557	1473972985196	1473972985388	o	79
154974	1683106	Please pass along my thanks, though.	Please pass along my thanks, though.	79981560	1473972985372	1473972985484	n	78
154974	1683106	Please pass along my thanks, though.	Please pass along my thanks, though.	79981564	1473972985516	1473972985628	g	71
154974	1683106	Please pass along my thanks, though.	Please pass along my thanks, though.	79981584	1473972985676	1473972985804	 	32
154974	1683106	Please pass along my thanks, though.	Please pass along my thanks, though.	79981587	1473972985932	1473972986036	m	77
154974	1683106	Please pass along my thanks, though.	Please pass along my thanks, though.	79981591	1473972986140	1473972986244	y	89
154974	1683106	Please pass along my thanks, though.	Please pass along my thanks, though.	79981595	1473972986260	1473972986388	 	32
154974	1683106	Please pass along my thanks, though.	Please pass along my thanks, though.	79981600	1473972986492	1473972986604	t	84
154974	1683106	Please pass along my thanks, though.	Please pass along my thanks, though.	79981627	1473972986556	1473972986652	h	72
154974	1683106	Please pass along my thanks, though.	Please pass along my thanks, though.	79981629	1473972986644	1473972986764	a	65
154974	1683106	Please pass along my thanks, though.	Please pass along my thanks, though.	79981630	1473972986780	1473972986876	n	78
154974	1683106	Please pass along my thanks, though.	Please pass along my thanks, though.	79981631	1473972987100	1473972987188	k	75
154974	1683106	Please pass along my thanks, though.	Please pass along my thanks, though.	79981632	1473972987260	1473972987364	s	83
154974	1683106	Please pass along my thanks, though.	Please pass along my thanks, though.	79981633	1473972987796	1473972987916	,	188
154974	1683106	Please pass along my thanks, though.	Please pass along my thanks, though.	79981659	1473972987980	1473972988108	 	32
154974	1683106	Please pass along my thanks, though.	Please pass along my thanks, though.	79981663	1473972988380	1473972988484	t	84
154974	1683106	Please pass along my thanks, though.	Please pass along my thanks, though.	79981666	1473972988420	1473972988556	h	72
154974	1683106	Please pass along my thanks, though.	Please pass along my thanks, though.	79981671	1473972988556	1473972988692	o	79
154974	1683106	Please pass along my thanks, though.	Please pass along my thanks, though.	79981898	1473972988668	1473972988756	u	85
154974	1683106	Please pass along my thanks, though.	Please pass along my thanks, though.	79981902	1473972989076	1473972989116	g	71
154974	1683106	Please pass along my thanks, though.	Please pass along my thanks, though.	79981911	1473972989692	1473972989788	h	72
154974	1683106	Please pass along my thanks, though.	Please pass along my thanks, though.	79981916	1473972990036	1473972990172	/	191
154974	1683106	Please pass along my thanks, though.	Please pass along my thanks, though.	79981921	1473972990580	1473972990692	BKSP	8
154974	1683106	Please pass along my thanks, though.	Please pass along my thanks, though.	79981924	1473972991156	1473972991236	/	191
154974	1683106	Please pass along my thanks, though.	Please pass along my thanks, though.	79981927	1473972991660	1473972991764	BKSP	8
154974	1683106	Please pass along my thanks, though.	Please pass along my thanks, though.	79981931	1473972992996	1473972993076	.	190
154974	1683128	1.5 million visitors will flood Atlanta each day of the Olympics.	1.5 millin visitors will flood Atlanta eacg day of the Olympics.	79982505	1473972999572	1473972999644	1	97
154974	1683128	1.5 million visitors will flood Atlanta each day of the Olympics.	1.5 millin visitors will flood Atlanta eacg day of the Olympics.	79982510	1473973001316	1473973001380	.	110
154974	1683128	1.5 million visitors will flood Atlanta each day of the Olympics.	1.5 millin visitors will flood Atlanta eacg day of the Olympics.	79982512	1473973001796	1473973001868	5	101
154974	1683128	1.5 million visitors will flood Atlanta each day of the Olympics.	1.5 millin visitors will flood Atlanta eacg day of the Olympics.	79982515	1473973002676	1473973002804	 	32
154974	1683128	1.5 million visitors will flood Atlanta each day of the Olympics.	1.5 millin visitors will flood Atlanta eacg day of the Olympics.	79982517	1473973003356	1473973003452	m	77
154974	1683128	1.5 million visitors will flood Atlanta each day of the Olympics.	1.5 millin visitors will flood Atlanta eacg day of the Olympics.	79982545	1473973003524	1473973003604	i	73
154974	1683128	1.5 million visitors will flood Atlanta each day of the Olympics.	1.5 millin visitors will flood Atlanta eacg day of the Olympics.	79982548	1473973003708	1473973003796	l	76
154974	1683128	1.5 million visitors will flood Atlanta each day of the Olympics.	1.5 millin visitors will flood Atlanta eacg day of the Olympics.	79982550	1473973003876	1473973003948	l	76
154974	1683128	1.5 million visitors will flood Atlanta each day of the Olympics.	1.5 millin visitors will flood Atlanta eacg day of the Olympics.	79982555	1473973003980	1473973004116	i	73
154974	1683128	1.5 million visitors will flood Atlanta each day of the Olympics.	1.5 millin visitors will flood Atlanta eacg day of the Olympics.	79982560	1473973004220	1473973004308	n	78
154974	1683128	1.5 million visitors will flood Atlanta each day of the Olympics.	1.5 millin visitors will flood Atlanta eacg day of the Olympics.	79982724	1473973004380	1473973004484	 	32
154974	1683128	1.5 million visitors will flood Atlanta each day of the Olympics.	1.5 millin visitors will flood Atlanta eacg day of the Olympics.	79982728	1473973004996	1473973005116	i	73
154974	1683128	1.5 million visitors will flood Atlanta each day of the Olympics.	1.5 millin visitors will flood Atlanta eacg day of the Olympics.	79982732	1473973005428	1473973005548	BKSP	8
154974	1683128	1.5 million visitors will flood Atlanta each day of the Olympics.	1.5 millin visitors will flood Atlanta eacg day of the Olympics.	79982734	1473973006188	1473973006268	v	86
154974	1683128	1.5 million visitors will flood Atlanta each day of the Olympics.	1.5 millin visitors will flood Atlanta eacg day of the Olympics.	79982735	1473973006284	1473973006380	i	73
154974	1683128	1.5 million visitors will flood Atlanta each day of the Olympics.	1.5 millin visitors will flood Atlanta eacg day of the Olympics.	79982737	1473973006484	1473973006676	s	83
154974	1683128	1.5 million visitors will flood Atlanta each day of the Olympics.	1.5 millin visitors will flood Atlanta eacg day of the Olympics.	79982802	1473973006852	1473973006988	i	73
154974	1683128	1.5 million visitors will flood Atlanta each day of the Olympics.	1.5 millin visitors will flood Atlanta eacg day of the Olympics.	79982810	1473973007156	1473973007252	t	84
154974	1683128	1.5 million visitors will flood Atlanta each day of the Olympics.	1.5 millin visitors will flood Atlanta eacg day of the Olympics.	79982816	1473973007308	1473973007468	o	79
154974	1683128	1.5 million visitors will flood Atlanta each day of the Olympics.	1.5 millin visitors will flood Atlanta eacg day of the Olympics.	79982821	1473973007468	1473973007556	r	82
154974	1683128	1.5 million visitors will flood Atlanta each day of the Olympics.	1.5 millin visitors will flood Atlanta eacg day of the Olympics.	79982823	1473973007788	1473973007916	s	83
154974	1683128	1.5 million visitors will flood Atlanta each day of the Olympics.	1.5 millin visitors will flood Atlanta eacg day of the Olympics.	79982869	1473973007948	1473973008044	 	32
154974	1683128	1.5 million visitors will flood Atlanta each day of the Olympics.	1.5 millin visitors will flood Atlanta eacg day of the Olympics.	79982872	1473973008292	1473973008388	w	87
154974	1683128	1.5 million visitors will flood Atlanta each day of the Olympics.	1.5 millin visitors will flood Atlanta eacg day of the Olympics.	79982875	1473973008324	1473973008444	i	73
154974	1683128	1.5 million visitors will flood Atlanta each day of the Olympics.	1.5 millin visitors will flood Atlanta eacg day of the Olympics.	79982878	1473973008540	1473973008620	l	76
154974	1683128	1.5 million visitors will flood Atlanta each day of the Olympics.	1.5 millin visitors will flood Atlanta eacg day of the Olympics.	79982885	1473973008692	1473973008772	l	76
154974	1683128	1.5 million visitors will flood Atlanta each day of the Olympics.	1.5 millin visitors will flood Atlanta eacg day of the Olympics.	79982925	1473973008764	1473973008860	 	32
154974	1683128	1.5 million visitors will flood Atlanta each day of the Olympics.	1.5 millin visitors will flood Atlanta eacg day of the Olympics.	79982928	1473973009028	1473973009132	f	70
154974	1683128	1.5 million visitors will flood Atlanta each day of the Olympics.	1.5 millin visitors will flood Atlanta eacg day of the Olympics.	79982930	1473973009164	1473973009276	l	76
154974	1683128	1.5 million visitors will flood Atlanta each day of the Olympics.	1.5 millin visitors will flood Atlanta eacg day of the Olympics.	79982932	1473973009340	1473973009444	o	79
154974	1683128	1.5 million visitors will flood Atlanta each day of the Olympics.	1.5 millin visitors will flood Atlanta eacg day of the Olympics.	79982933	1473973009524	1473973009588	o	79
154974	1683128	1.5 million visitors will flood Atlanta each day of the Olympics.	1.5 millin visitors will flood Atlanta eacg day of the Olympics.	79982995	1473973009572	1473973009668	d	68
154974	1683128	1.5 million visitors will flood Atlanta each day of the Olympics.	1.5 millin visitors will flood Atlanta eacg day of the Olympics.	79982998	1473973009780	1473973009908	 	32
154974	1683128	1.5 million visitors will flood Atlanta each day of the Olympics.	1.5 millin visitors will flood Atlanta eacg day of the Olympics.	79983000	1473973010116	1473973010380	SHIFT	16
154974	1683128	1.5 million visitors will flood Atlanta each day of the Olympics.	1.5 millin visitors will flood Atlanta eacg day of the Olympics.	79983005	1473973010292	1473973010444	A	65
154974	1683128	1.5 million visitors will flood Atlanta each day of the Olympics.	1.5 millin visitors will flood Atlanta eacg day of the Olympics.	79983012	1473973010716	1473973010828	t	84
154974	1683128	1.5 million visitors will flood Atlanta each day of the Olympics.	1.5 millin visitors will flood Atlanta eacg day of the Olympics.	79983017	1473973010932	1473973011036	l	76
154974	1683128	1.5 million visitors will flood Atlanta each day of the Olympics.	1.5 millin visitors will flood Atlanta eacg day of the Olympics.	79983074	1473973011012	1473973011132	a	65
154974	1683128	1.5 million visitors will flood Atlanta each day of the Olympics.	1.5 millin visitors will flood Atlanta eacg day of the Olympics.	79983082	1473973011149	1473973011256	n	78
154974	1683128	1.5 million visitors will flood Atlanta each day of the Olympics.	1.5 millin visitors will flood Atlanta eacg day of the Olympics.	79983086	1473973011660	1473973011732	t	84
154974	1683128	1.5 million visitors will flood Atlanta each day of the Olympics.	1.5 millin visitors will flood Atlanta eacg day of the Olympics.	79983091	1473973011788	1473973011900	a	65
154974	1683128	1.5 million visitors will flood Atlanta each day of the Olympics.	1.5 millin visitors will flood Atlanta eacg day of the Olympics.	79983097	1473973011940	1473973012060	 	32
154974	1683128	1.5 million visitors will flood Atlanta each day of the Olympics.	1.5 millin visitors will flood Atlanta eacg day of the Olympics.	79983103	1473973012212	1473973012316	e	69
154974	1683128	1.5 million visitors will flood Atlanta each day of the Olympics.	1.5 millin visitors will flood Atlanta eacg day of the Olympics.	79983162	1473973012428	1473973012556	a	65
154974	1683128	1.5 million visitors will flood Atlanta each day of the Olympics.	1.5 millin visitors will flood Atlanta eacg day of the Olympics.	79983164	1473973012876	1473973012996	c	67
154974	1683128	1.5 million visitors will flood Atlanta each day of the Olympics.	1.5 millin visitors will flood Atlanta eacg day of the Olympics.	79983168	1473973013028	1473973013100	g	71
154974	1683128	1.5 million visitors will flood Atlanta each day of the Olympics.	1.5 millin visitors will flood Atlanta eacg day of the Olympics.	79983171	1473973013324	1473973013396	 	32
154974	1683128	1.5 million visitors will flood Atlanta each day of the Olympics.	1.5 millin visitors will flood Atlanta eacg day of the Olympics.	79983175	1473973013572	1473973013684	d	68
154974	1683128	1.5 million visitors will flood Atlanta each day of the Olympics.	1.5 millin visitors will flood Atlanta eacg day of the Olympics.	79983240	1473973013740	1473973013852	a	65
154974	1683128	1.5 million visitors will flood Atlanta each day of the Olympics.	1.5 millin visitors will flood Atlanta eacg day of the Olympics.	79983242	1473973013892	1473973013964	y	89
154974	1683128	1.5 million visitors will flood Atlanta each day of the Olympics.	1.5 millin visitors will flood Atlanta eacg day of the Olympics.	79983245	1473973014188	1473973014300	 	32
154974	1683128	1.5 million visitors will flood Atlanta each day of the Olympics.	1.5 millin visitors will flood Atlanta eacg day of the Olympics.	79983248	1473973014572	1473973014676	o	79
154974	1683128	1.5 million visitors will flood Atlanta each day of the Olympics.	1.5 millin visitors will flood Atlanta eacg day of the Olympics.	79983252	1473973014676	1473973014804	f	70
154974	1683128	1.5 million visitors will flood Atlanta each day of the Olympics.	1.5 millin visitors will flood Atlanta eacg day of the Olympics.	79983270	1473973014812	1473973014924	 	32
154974	1683128	1.5 million visitors will flood Atlanta each day of the Olympics.	1.5 millin visitors will flood Atlanta eacg day of the Olympics.	79983274	1473973014972	1473973015052	t	84
154974	1683128	1.5 million visitors will flood Atlanta each day of the Olympics.	1.5 millin visitors will flood Atlanta eacg day of the Olympics.	79983276	1473973015004	1473973015100	h	72
154974	1683128	1.5 million visitors will flood Atlanta each day of the Olympics.	1.5 millin visitors will flood Atlanta eacg day of the Olympics.	79983278	1473973015068	1473973015188	e	69
154974	1683128	1.5 million visitors will flood Atlanta each day of the Olympics.	1.5 millin visitors will flood Atlanta eacg day of the Olympics.	79983281	1473973015196	1473973015292	 	32
154974	1683128	1.5 million visitors will flood Atlanta each day of the Olympics.	1.5 millin visitors will flood Atlanta eacg day of the Olympics.	79983558	1473973015804	1473973016020	SHIFT	16
154974	1683128	1.5 million visitors will flood Atlanta each day of the Olympics.	1.5 millin visitors will flood Atlanta eacg day of the Olympics.	79983553	1473973015916	1473973016004	O	79
154974	1683128	1.5 million visitors will flood Atlanta each day of the Olympics.	1.5 millin visitors will flood Atlanta eacg day of the Olympics.	79983561	1473973016116	1473973016196	l	76
154974	1683128	1.5 million visitors will flood Atlanta each day of the Olympics.	1.5 millin visitors will flood Atlanta eacg day of the Olympics.	79983566	1473973016420	1473973016508	y	89
154974	1683128	1.5 million visitors will flood Atlanta each day of the Olympics.	1.5 millin visitors will flood Atlanta eacg day of the Olympics.	79983569	1473973017036	1473973017172	p	80
154974	1683128	1.5 million visitors will flood Atlanta each day of the Olympics.	1.5 millin visitors will flood Atlanta eacg day of the Olympics.	79983570	1473973018676	1473973018748	BKSP	8
154974	1683128	1.5 million visitors will flood Atlanta each day of the Olympics.	1.5 millin visitors will flood Atlanta eacg day of the Olympics.	79983571	1473973019164	1473973019284	m	77
154974	1683128	1.5 million visitors will flood Atlanta each day of the Olympics.	1.5 millin visitors will flood Atlanta eacg day of the Olympics.	79983622	1473973019420	1473973019580	p	80
154974	1683128	1.5 million visitors will flood Atlanta each day of the Olympics.	1.5 millin visitors will flood Atlanta eacg day of the Olympics.	79983624	1473973019660	1473973019772	i	73
154974	1683128	1.5 million visitors will flood Atlanta each day of the Olympics.	1.5 millin visitors will flood Atlanta eacg day of the Olympics.	79983626	1473973020252	1473973020356	c	67
154974	1683128	1.5 million visitors will flood Atlanta each day of the Olympics.	1.5 millin visitors will flood Atlanta eacg day of the Olympics.	79983628	1473973020548	1473973020700	s	83
154974	1683128	1.5 million visitors will flood Atlanta each day of the Olympics.	1.5 millin visitors will flood Atlanta eacg day of the Olympics.	79983629	1473973020860	1473973020940	.	190
154974	1683165	Don't they have some conflicts here?	Don't they have some conflicts here?	79983883	1473973024724	1473973024916	SHIFT	16
154974	1683165	Don't they have some conflicts here?	Don't they have some conflicts here?	79983887	1473973024868	1473973025004	D	68
154974	1683165	Don't they have some conflicts here?	Don't they have some conflicts here?	79983890	1473973025084	1473973025220	o	79
154974	1683165	Don't they have some conflicts here?	Don't they have some conflicts here?	79983893	1473973025212	1473973025308	n	78
154974	1683165	Don't they have some conflicts here?	Don't they have some conflicts here?	79983897	1473973025900	1473973026084	'	222
154974	1683165	Don't they have some conflicts here?	Don't they have some conflicts here?	79984002	1473973026076	1473973026172	t	84
154974	1683165	Don't they have some conflicts here?	Don't they have some conflicts here?	79984005	1473973026244	1473973026380	 	32
154974	1683165	Don't they have some conflicts here?	Don't they have some conflicts here?	79984009	1473973026668	1473973026756	h	72
154974	1683165	Don't they have some conflicts here?	Don't they have some conflicts here?	79984013	1473973027076	1473973027140	BKSP	8
154974	1683165	Don't they have some conflicts here?	Don't they have some conflicts here?	79984020	1473973027268	1473973027340	BKSP	8
154974	1683165	Don't they have some conflicts here?	Don't they have some conflicts here?	79984025	1473973027820	1473973027940	 	32
154974	1683165	Don't they have some conflicts here?	Don't they have some conflicts here?	79984030	1473973028052	1473973028124	t	84
154974	1683165	Don't they have some conflicts here?	Don't they have some conflicts here?	79984128	1473973028108	1473973028204	h	72
154974	1683165	Don't they have some conflicts here?	Don't they have some conflicts here?	79984130	1473973028180	1473973028316	e	69
154974	1683165	Don't they have some conflicts here?	Don't they have some conflicts here?	79984134	1473973028308	1473973028404	 	32
154974	1683165	Don't they have some conflicts here?	Don't they have some conflicts here?	79984137	1473973028380	1473973028476	y	89
154974	1683165	Don't they have some conflicts here?	Don't they have some conflicts here?	79984140	1473973028548	1473973028684	 	32
154974	1683165	Don't they have some conflicts here?	Don't they have some conflicts here?	79984144	1473973029060	1473973029148	BKSP	8
154974	1683165	Don't they have some conflicts here?	Don't they have some conflicts here?	79984148	1473973029220	1473973029276	BKSP	8
154974	1683165	Don't they have some conflicts here?	Don't they have some conflicts here?	79984154	1473973029340	1473973029428	BKSP	8
154974	1683165	Don't they have some conflicts here?	Don't they have some conflicts here?	79984163	1473973029716	1473973029804	y	89
154974	1683165	Don't they have some conflicts here?	Don't they have some conflicts here?	79984203	1473973029900	1473973030028	 	32
154974	1683165	Don't they have some conflicts here?	Don't they have some conflicts here?	79984207	1473973030124	1473973030220	h	72
154974	1683165	Don't they have some conflicts here?	Don't they have some conflicts here?	79984216	1473973030204	1473973030356	a	65
154974	1683165	Don't they have some conflicts here?	Don't they have some conflicts here?	79984221	1473973030732	1473973030860	v	86
154974	1683165	Don't they have some conflicts here?	Don't they have some conflicts here?	79984230	1473973030908	1473973031044	e	69
154974	1683165	Don't they have some conflicts here?	Don't they have some conflicts here?	79984287	1473973031060	1473973031156	 	32
154974	1683165	Don't they have some conflicts here?	Don't they have some conflicts here?	79984296	1473973031700	1473973031820	s	83
154974	1683165	Don't they have some conflicts here?	Don't they have some conflicts here?	79984306	1473973031796	1473973031948	o	79
154974	1683165	Don't they have some conflicts here?	Don't they have some conflicts here?	79984313	1473973031924	1473973032028	m	77
154974	1683165	Don't they have some conflicts here?	Don't they have some conflicts here?	79984384	1473973032020	1473973032156	e	69
154974	1683165	Don't they have some conflicts here?	Don't they have some conflicts here?	79984387	1473973032140	1473973032244	 	32
154974	1683165	Don't they have some conflicts here?	Don't they have some conflicts here?	79984389	1473973033020	1473973033084	c	67
154974	1683165	Don't they have some conflicts here?	Don't they have some conflicts here?	79984393	1473973033148	1473973033316	o	79
154974	1683165	Don't they have some conflicts here?	Don't they have some conflicts here?	79984396	1473973033268	1473973033404	n	78
154974	1683165	Don't they have some conflicts here?	Don't they have some conflicts here?	79984398	1473973033612	1473973033716	f	70
154974	1683165	Don't they have some conflicts here?	Don't they have some conflicts here?	79984479	1473973034020	1473973034156	l	76
154974	1683165	Don't they have some conflicts here?	Don't they have some conflicts here?	79984483	1473973034204	1473973034300	i	73
154974	1683165	Don't they have some conflicts here?	Don't they have some conflicts here?	79984488	1473973034524	1473973034620	c	67
154974	1683165	Don't they have some conflicts here?	Don't they have some conflicts here?	79984494	1473973034740	1473973034836	t	84
154974	1683165	Don't they have some conflicts here?	Don't they have some conflicts here?	79984498	1473973035356	1473973035476	s	83
154974	1683165	Don't they have some conflicts here?	Don't they have some conflicts here?	79984525	1473973035516	1473973035604	 	32
154974	1683165	Don't they have some conflicts here?	Don't they have some conflicts here?	79984531	1473973035716	1473973035796	h	72
154974	1683165	Don't they have some conflicts here?	Don't they have some conflicts here?	79984537	1473973035812	1473973035924	e	69
154974	1683165	Don't they have some conflicts here?	Don't they have some conflicts here?	79984541	1473973035940	1473973036012	r	82
154974	1683165	Don't they have some conflicts here?	Don't they have some conflicts here?	79984548	1473973036044	1473973036140	e	69
154974	1683165	Don't they have some conflicts here?	Don't they have some conflicts here?	79984601	1473973036532	1473973036868	SHIFT	16
154974	1683165	Don't they have some conflicts here?	Don't they have some conflicts here?	79984599	1473973036748	1473973036820	?	191
154974	1683184	Thank you for your support.	Thank you for your suppot.	79985004	1473973040172	1473973040436	SHIFT	16
154974	1683184	Thank you for your support.	Thank you for your suppot.	79984998	1473973040348	1473973040428	H	72
154974	1683184	Thank you for your support.	Thank you for your suppot.	79985008	1473973040372	1473973040500	T	84
154974	1683184	Thank you for your support.	Thank you for your suppot.	79985012	1473973040940	1473973040996	INSERT	45
154974	1683184	Thank you for your support.	Thank you for your suppot.	79985015	1473973041076	1473973041148	BKSP	8
154974	1683184	Thank you for your support.	Thank you for your suppot.	79985020	1473973041860	1473973041956	BKSP	8
154974	1683184	Thank you for your support.	Thank you for your suppot.	79985025	1473973042316	1473973042612	SHIFT	16
154974	1683184	Thank you for your support.	Thank you for your suppot.	79985033	1473973042636	1473973042764	h	72
154974	1683184	Thank you for your support.	Thank you for your suppot.	79985038	1473973043540	1473973043644	BKSP	8
154974	1683184	Thank you for your support.	Thank you for your suppot.	79985042	1473973044036	1473973044548	SHIFT	16
154974	1683184	Thank you for your support.	Thank you for your suppot.	79985047	1473973044444	1473973044564	T	84
154974	1683184	Thank you for your support.	Thank you for your suppot.	79985055	1473973044636	1473973044708	h	72
154974	1683184	Thank you for your support.	Thank you for your suppot.	79985081	1473973044788	1473973044908	a	65
154974	1683184	Thank you for your support.	Thank you for your suppot.	79985084	1473973044852	1473973044948	n	78
154974	1683184	Thank you for your support.	Thank you for your suppot.	79985087	1473973045149	1473973045256	k	75
154974	1683184	Thank you for your support.	Thank you for your suppot.	79985090	1473973045340	1473973045460	 	32
154974	1683184	Thank you for your support.	Thank you for your suppot.	79985098	1473973045708	1473973045788	y	89
154974	1683184	Thank you for your support.	Thank you for your suppot.	79985159	1473973045828	1473973046004	o	79
154974	1683184	Thank you for your support.	Thank you for your suppot.	79985165	1473973046204	1473973046308	u	85
154974	1683184	Thank you for your support.	Thank you for your suppot.	79985171	1473973046412	1473973046556	 	32
154974	1683184	Thank you for your support.	Thank you for your suppot.	79985175	1473973046628	1473973046732	f	70
154974	1683184	Thank you for your support.	Thank you for your suppot.	79985181	1473973046740	1473973046900	o	79
154974	1683184	Thank you for your support.	Thank you for your suppot.	79985258	1473973046940	1473973047068	r	82
154974	1683184	Thank you for your support.	Thank you for your suppot.	79985260	1473973047124	1473973047236	 	32
154974	1683184	Thank you for your support.	Thank you for your suppot.	79985263	1473973047268	1473973047388	t	84
154974	1683184	Thank you for your support.	Thank you for your suppot.	79985266	1473973047412	1473973047484	h	72
154974	1683184	Thank you for your support.	Thank you for your suppot.	79985269	1473973047700	1473973047780	BKSP	8
154974	1683184	Thank you for your support.	Thank you for your suppot.	79985271	1473973047852	1473973047932	BKSP	8
154974	1683184	Thank you for your support.	Thank you for your suppot.	79985276	1473973048508	1473973048644	y	89
154974	1683184	Thank you for your support.	Thank you for your suppot.	79985316	1473973048604	1473973048756	o	79
154974	1683184	Thank you for your support.	Thank you for your suppot.	79985320	1473973048716	1473973048812	u	85
154974	1683184	Thank you for your support.	Thank you for your suppot.	79985323	1473973048932	1473973049044	r	82
154974	1683184	Thank you for your support.	Thank you for your suppot.	79985326	1473973049084	1473973049196	 	32
154974	1683184	Thank you for your support.	Thank you for your suppot.	79985330	1473973049420	1473973049572	s	83
154974	1683184	Thank you for your support.	Thank you for your suppot.	79985471	1473973049556	1473973049700	u	85
154974	1683184	Thank you for your support.	Thank you for your suppot.	79985477	1473973049732	1473973049844	p	80
154974	1683184	Thank you for your support.	Thank you for your suppot.	79985484	1473973049884	1473973049980	o	79
154974	1683184	Thank you for your support.	Thank you for your suppot.	79985493	1473973050348	1473973050428	BKSP	8
154974	1683184	Thank you for your support.	Thank you for your suppot.	79985503	1473973050836	1473973050932	p	80
154974	1683184	Thank you for your support.	Thank you for your suppot.	79985509	1473973051044	1473973051148	o	79
154974	1683184	Thank you for your support.	Thank you for your suppot.	79985515	1473973051572	1473973051676	t	84
154974	1683184	Thank you for your support.	Thank you for your suppot.	79985653	1473973052028	1473973052108	.	190
154974	1683184	Thank you for your support.	Thank you for your suppot.	79985656	1473973052444	1473973052540	BKSP	8
154974	1683184	Thank you for your support.	Thank you for your suppot.	79985658	1473973052756	1473973052884	t	84
154974	1683184	Thank you for your support.	Thank you for your suppot.	79985664	1473973053044	1473973053124	BKSP	8
154974	1683184	Thank you for your support.	Thank you for your suppot.	79985668	1473973053196	1473973053276	BKSP	8
154974	1683184	Thank you for your support.	Thank you for your suppot.	79985671	1473973053364	1473973053460	t	84
154974	1683184	Thank you for your support.	Thank you for your suppot.	79985674	1473973053580	1473973053676	.	190
154974	1683209	Much better than carrying a laptop.	Much better than carrying a laptop/	79985914	1473973057628	1473973057820	SHIFT	16
154974	1683209	Much better than carrying a laptop.	Much better than carrying a laptop/	79985918	1473973057764	1473973057868	M	77
154974	1683209	Much better than carrying a laptop.	Much better than carrying a laptop/	79985924	1473973058044	1473973058148	u	85
154974	1683209	Much better than carrying a laptop.	Much better than carrying a laptop/	79985931	1473973058220	1473973058332	c	67
154974	1683209	Much better than carrying a laptop.	Much better than carrying a laptop/	79985940	1473973058324	1473973058420	h	72
154974	1683209	Much better than carrying a laptop.	Much better than carrying a laptop/	79985948	1473973058460	1473973058604	 	32
154974	1683209	Much better than carrying a laptop.	Much better than carrying a laptop/	79985998	1473973058700	1473973058796	b	66
154974	1683209	Much better than carrying a laptop.	Much better than carrying a laptop/	79986002	1473973058852	1473973059020	e	69
154974	1683209	Much better than carrying a laptop.	Much better than carrying a laptop/	79986007	1473973059316	1473973059404	t	84
154974	1683209	Much better than carrying a laptop.	Much better than carrying a laptop/	79986014	1473973059484	1473973059548	t	84
154974	1683209	Much better than carrying a laptop.	Much better than carrying a laptop/	79986017	1473973059572	1473973059716	e	69
154974	1683209	Much better than carrying a laptop.	Much better than carrying a laptop/	79986059	1473973059700	1473973059796	r	82
154974	1683209	Much better than carrying a laptop.	Much better than carrying a laptop/	79986061	1473973059804	1473973059916	 	32
154974	1683209	Much better than carrying a laptop.	Much better than carrying a laptop/	79986063	1473973059996	1473973060132	t	84
154974	1683209	Much better than carrying a laptop.	Much better than carrying a laptop/	79986065	1473973060092	1473973060196	h	72
154974	1683209	Much better than carrying a laptop.	Much better than carrying a laptop/	79986069	1473973060212	1473973060388	a	65
154974	1683209	Much better than carrying a laptop.	Much better than carrying a laptop/	79986073	1473973060396	1473973060524	n	78
154974	1683209	Much better than carrying a laptop.	Much better than carrying a laptop/	79986136	1473973060500	1473973060628	 	32
154974	1683209	Much better than carrying a laptop.	Much better than carrying a laptop/	79986138	1473973060820	1473973060940	c	67
154974	1683209	Much better than carrying a laptop.	Much better than carrying a laptop/	79986140	1473973060996	1473973061124	a	65
154974	1683209	Much better than carrying a laptop.	Much better than carrying a laptop/	79986142	1473973061140	1473973061252	r	82
154974	1683209	Much better than carrying a laptop.	Much better than carrying a laptop/	79986147	1473973061308	1473973061404	r	82
154974	1683209	Much better than carrying a laptop.	Much better than carrying a laptop/	79986151	1473973061516	1473973061620	y	89
154974	1683209	Much better than carrying a laptop.	Much better than carrying a laptop/	79986202	1473973061852	1473973061956	i	73
154974	1683209	Much better than carrying a laptop.	Much better than carrying a laptop/	79986205	1473973061996	1473973062092	n	78
154974	1683209	Much better than carrying a laptop.	Much better than carrying a laptop/	79986210	1473973062132	1473973062236	g	71
154974	1683209	Much better than carrying a laptop.	Much better than carrying a laptop/	79986215	1473973062260	1473973062388	 	32
154974	1683209	Much better than carrying a laptop.	Much better than carrying a laptop/	79986217	1473973062452	1473973062564	a	65
154974	1683209	Much better than carrying a laptop.	Much better than carrying a laptop/	79986279	1473973062588	1473973062692	 	32
154974	1683209	Much better than carrying a laptop.	Much better than carrying a laptop/	79986283	1473973062884	1473973063020	l	76
154974	1683209	Much better than carrying a laptop.	Much better than carrying a laptop/	79986286	1473973063044	1473973063156	a	65
154974	1683209	Much better than carrying a laptop.	Much better than carrying a laptop/	79986289	1473973063244	1473973063404	p	80
154974	1683209	Much better than carrying a laptop.	Much better than carrying a laptop/	79986291	1473973063540	1473973063668	t	84
154974	1683209	Much better than carrying a laptop.	Much better than carrying a laptop/	79986474	1473973063684	1473973063812	o	79
154974	1683209	Much better than carrying a laptop.	Much better than carrying a laptop/	79986475	1473973063884	1473973064012	p	80
154974	1683209	Much better than carrying a laptop.	Much better than carrying a laptop/	79986476	1473973064212	1473973064316	/	191
154974	1683209	Much better than carrying a laptop.	Much better than carrying a laptop/	79986477	1473973065116	1473973065196	BKSP	8
154974	1683209	Much better than carrying a laptop.	Much better than carrying a laptop/	79986478	1473973065868	1473973065948	/	191
154974	1683226	Have I mentioned how much I love Houston traffic?	Have I mentioned how much I love Houston traffic?	79986791	1473973070420	1473973070588	SHIFT	16
154974	1683226	Have I mentioned how much I love Houston traffic?	Have I mentioned how much I love Houston traffic?	79986795	1473973070540	1473973070644	H	72
154974	1683226	Have I mentioned how much I love Houston traffic?	Have I mentioned how much I love Houston traffic?	79986801	1473973070828	1473973070940	a	65
154974	1683226	Have I mentioned how much I love Houston traffic?	Have I mentioned how much I love Houston traffic?	79986804	1473973071372	1473973071484	v	86
154974	1683226	Have I mentioned how much I love Houston traffic?	Have I mentioned how much I love Houston traffic?	79986809	1473973071564	1473973071700	e	69
154974	1683226	Have I mentioned how much I love Houston traffic?	Have I mentioned how much I love Houston traffic?	79986818	1473973071700	1473973071820	 	32
154974	1683226	Have I mentioned how much I love Houston traffic?	Have I mentioned how much I love Houston traffic?	79986894	1473973072276	1473973072460	SHIFT	16
154974	1683226	Have I mentioned how much I love Houston traffic?	Have I mentioned how much I love Houston traffic?	79986898	1473973072388	1473973072468	I	73
154974	1683226	Have I mentioned how much I love Houston traffic?	Have I mentioned how much I love Houston traffic?	79986902	1473973072532	1473973072644	 	32
154974	1683226	Have I mentioned how much I love Houston traffic?	Have I mentioned how much I love Houston traffic?	79986909	1473973072740	1473973072828	m	77
154974	1683226	Have I mentioned how much I love Houston traffic?	Have I mentioned how much I love Houston traffic?	79986914	1473973072860	1473973072980	e	69
154974	1683226	Have I mentioned how much I love Houston traffic?	Have I mentioned how much I love Houston traffic?	79986919	1473973072988	1473973073140	n	78
154974	1683226	Have I mentioned how much I love Houston traffic?	Have I mentioned how much I love Houston traffic?	79986938	1473973073156	1473973073260	t	84
154974	1683226	Have I mentioned how much I love Houston traffic?	Have I mentioned how much I love Houston traffic?	79986941	1473973073268	1473973073420	i	73
154974	1683226	Have I mentioned how much I love Houston traffic?	Have I mentioned how much I love Houston traffic?	79986946	1473973073396	1473973073572	o	79
154974	1683226	Have I mentioned how much I love Houston traffic?	Have I mentioned how much I love Houston traffic?	79986954	1473973073500	1473973073628	n	78
154974	1683226	Have I mentioned how much I love Houston traffic?	Have I mentioned how much I love Houston traffic?	79986962	1473973073708	1473973073828	e	69
154974	1683226	Have I mentioned how much I love Houston traffic?	Have I mentioned how much I love Houston traffic?	79986990	1473973073956	1473973074108	d	68
154974	1683226	Have I mentioned how much I love Houston traffic?	Have I mentioned how much I love Houston traffic?	79986992	1473973074116	1473973074236	 	32
154974	1683226	Have I mentioned how much I love Houston traffic?	Have I mentioned how much I love Houston traffic?	79986997	1473973074292	1473973074428	h	72
154974	1683226	Have I mentioned how much I love Houston traffic?	Have I mentioned how much I love Houston traffic?	79987000	1473973074436	1473973074572	o	79
154974	1683226	Have I mentioned how much I love Houston traffic?	Have I mentioned how much I love Houston traffic?	79987060	1473973074564	1473973074716	w	87
154974	1683226	Have I mentioned how much I love Houston traffic?	Have I mentioned how much I love Houston traffic?	79987065	1473973074772	1473973074868	 	32
154974	1683226	Have I mentioned how much I love Houston traffic?	Have I mentioned how much I love Houston traffic?	79987071	1473973075000	1473973075108	m	77
154974	1683226	Have I mentioned how much I love Houston traffic?	Have I mentioned how much I love Houston traffic?	79987076	1473973075212	1473973075300	y	85
154974	1683226	Have I mentioned how much I love Houston traffic?	Have I mentioned how much I love Houston traffic?	79987080	1473973075300	1473973075420	c	67
154974	1683226	Have I mentioned how much I love Houston traffic?	Have I mentioned how much I love Houston traffic?	79987162	1473973075428	1473973075516	h	72
154974	1683226	Have I mentioned how much I love Houston traffic?	Have I mentioned how much I love Houston traffic?	79987164	1473973075612	1473973075676	 	32
154974	1683226	Have I mentioned how much I love Houston traffic?	Have I mentioned how much I love Houston traffic?	79987168	1473973075892	1473973075980	BKSP	8
154974	1683226	Have I mentioned how much I love Houston traffic?	Have I mentioned how much I love Houston traffic?	79987172	1473973076044	1473973076132	BKSP	8
154974	1683226	Have I mentioned how much I love Houston traffic?	Have I mentioned how much I love Houston traffic?	79987180	1473973076196	1473973076260	BKSP	8
154974	1683226	Have I mentioned how much I love Houston traffic?	Have I mentioned how much I love Houston traffic?	79987185	1473973076324	1473973076396	BKSP	8
154974	1683226	Have I mentioned how much I love Houston traffic?	Have I mentioned how much I love Houston traffic?	79987191	1473973076476	1473973076604	c	67
154974	1683226	Have I mentioned how much I love Houston traffic?	Have I mentioned how much I love Houston traffic?	79987194	1473973076772	1473973076860	h	72
154974	1683226	Have I mentioned how much I love Houston traffic?	Have I mentioned how much I love Houston traffic?	79987199	1473973076956	1473973077068	 	32
154974	1683226	Have I mentioned how much I love Houston traffic?	Have I mentioned how much I love Houston traffic?	79987226	1473973077292	1473973077540	SHIFT	16
154974	1683226	Have I mentioned how much I love Houston traffic?	Have I mentioned how much I love Houston traffic?	79987223	1473973077420	1473973077532	I	73
154974	1683226	Have I mentioned how much I love Houston traffic?	Have I mentioned how much I love Houston traffic?	79987229	1473973077588	1473973077668	 	32
154974	1683226	Have I mentioned how much I love Houston traffic?	Have I mentioned how much I love Houston traffic?	79987231	1473973077692	1473973077788	l	76
154974	1683226	Have I mentioned how much I love Houston traffic?	Have I mentioned how much I love Houston traffic?	79987234	1473973077860	1473973077964	o	79
154974	1683226	Have I mentioned how much I love Houston traffic?	Have I mentioned how much I love Houston traffic?	79987238	1473973077972	1473973078076	v	86
154974	1683226	Have I mentioned how much I love Houston traffic?	Have I mentioned how much I love Houston traffic?	79987291	1473973078164	1473973078292	e	69
154974	1683226	Have I mentioned how much I love Houston traffic?	Have I mentioned how much I love Houston traffic?	79987294	1473973078460	1473973078516	 	32
154974	1683226	Have I mentioned how much I love Houston traffic?	Have I mentioned how much I love Houston traffic?	79987301	1473973078620	1473973078828	SHIFT	16
154974	1683226	Have I mentioned how much I love Houston traffic?	Have I mentioned how much I love Houston traffic?	79987298	1473973078708	1473973078812	H	72
154974	1683226	Have I mentioned how much I love Houston traffic?	Have I mentioned how much I love Houston traffic?	79987303	1473973078836	1473973078972	o	79
154974	1683226	Have I mentioned how much I love Houston traffic?	Have I mentioned how much I love Houston traffic?	79987329	1473973078916	1473973079028	u	85
154974	1683226	Have I mentioned how much I love Houston traffic?	Have I mentioned how much I love Houston traffic?	79987334	1473973079004	1473973079156	s	83
154974	1683226	Have I mentioned how much I love Houston traffic?	Have I mentioned how much I love Houston traffic?	79987339	1473973079196	1473973079308	t	84
154974	1683226	Have I mentioned how much I love Houston traffic?	Have I mentioned how much I love Houston traffic?	79987345	1473973079460	1473973079572	n	78
154974	1683226	Have I mentioned how much I love Houston traffic?	Have I mentioned how much I love Houston traffic?	79987349	1473973079628	1473973079716	 	32
154974	1683226	Have I mentioned how much I love Houston traffic?	Have I mentioned how much I love Houston traffic?	79987443	1473973079852	1473973079964	t	84
154974	1683226	Have I mentioned how much I love Houston traffic?	Have I mentioned how much I love Houston traffic?	79987445	1473973080276	1473973080404	r	82
154974	1683226	Have I mentioned how much I love Houston traffic?	Have I mentioned how much I love Houston traffic?	79987448	1473973080572	1473973080724	a	65
154974	1683226	Have I mentioned how much I love Houston traffic?	Have I mentioned how much I love Houston traffic?	79987451	1473973080964	1473973081052	f	70
154974	1683226	Have I mentioned how much I love Houston traffic?	Have I mentioned how much I love Houston traffic?	79987455	1473973081124	1473973081236	f	70
154974	1683226	Have I mentioned how much I love Houston traffic?	Have I mentioned how much I love Houston traffic?	79987562	1473973081268	1473973081372	i	73
154974	1683226	Have I mentioned how much I love Houston traffic?	Have I mentioned how much I love Houston traffic?	79987564	1473973081412	1473973081516	c	67
154974	1683226	Have I mentioned how much I love Houston traffic?	Have I mentioned how much I love Houston traffic?	79987568	1473973082196	1473973082572	SHIFT	16
154974	1683226	Have I mentioned how much I love Houston traffic?	Have I mentioned how much I love Houston traffic?	79987566	1473973082348	1473973082476	?	191
154974	1683246	I know you changed it.	I kow you changed it.	79987876	1473973086316	1473973086516	SHIFT	16
154974	1683246	I know you changed it.	I kow you changed it.	79987883	1473973086444	1473973086524	I	73
154974	1683246	I know you changed it.	I kow you changed it.	79987889	1473973086628	1473973086740	 	32
154974	1683246	I know you changed it.	I kow you changed it.	79987897	1473973087020	1473973087116	k	75
154974	1683246	I know you changed it.	I kow you changed it.	79987900	1473973087180	1473973087300	n	78
154974	1683246	I know you changed it.	I kow you changed it.	79987963	1473973087444	1473973087596	w	87
154974	1683246	I know you changed it.	I kow you changed it.	79987967	1473973087612	1473973087692	 	32
154974	1683246	I know you changed it.	I kow you changed it.	79987972	1473973087876	1473973088020	y	89
154974	1683246	I know you changed it.	I kow you changed it.	79987976	1473973088044	1473973088172	o	79
154974	1683246	I know you changed it.	I kow you changed it.	79987981	1473973088516	1473973088620	u	85
154974	1683246	I know you changed it.	I kow you changed it.	79987985	1473973088668	1473973088788	 	32
154974	1683246	I know you changed it.	I kow you changed it.	79988036	1473973088908	1473973089052	c	67
154974	1683246	I know you changed it.	I kow you changed it.	79988037	1473973089028	1473973089132	h	72
154974	1683246	I know you changed it.	I kow you changed it.	79988039	1473973089124	1473973089268	a	65
154974	1683246	I know you changed it.	I kow you changed it.	79988043	1473973089284	1473973089404	n	78
154974	1683246	I know you changed it.	I kow you changed it.	79988047	1473973089876	1473973089956	e	69
154974	1683246	I know you changed it.	I kow you changed it.	79988098	1473973090052	1473973090156	d	68
154974	1683246	I know you changed it.	I kow you changed it.	79988103	1473973090204	1473973090300	 	32
154974	1683246	I know you changed it.	I kow you changed it.	79988109	1473973090308	1473973090428	i	73
154974	1683246	I know you changed it.	I kow you changed it.	79988113	1473973090476	1473973090572	t	84
154974	1683246	I know you changed it.	I kow you changed it.	79988117	1473973090692	1473973090796	.	190
154974	1683262	The artist assures me it is a turkey.	The artist assures meit is a turkey.	79988353	1473973092924	1473973093172	SHIFT	16
154974	1683262	The artist assures me it is a turkey.	The artist assures meit is a turkey.	79988359	1473973093108	1473973093204	T	72
154974	1683262	The artist assures me it is a turkey.	The artist assures meit is a turkey.	79988363	1473973093284	1473973093428	e	69
154974	1683262	The artist assures me it is a turkey.	The artist assures meit is a turkey.	79988367	1473973093924	1473973094004	BKSP	8
154974	1683262	The artist assures me it is a turkey.	The artist assures meit is a turkey.	79988371	1473973094084	1473973094172	BKSP	8
154974	1683262	The artist assures me it is a turkey.	The artist assures meit is a turkey.	79988377	1473973094244	1473973094348	BKSP	8
154974	1683262	The artist assures me it is a turkey.	The artist assures meit is a turkey.	79988383	1473973094412	1473973094668	SHIFT	16
154974	1683262	The artist assures me it is a turkey.	The artist assures meit is a turkey.	79988386	1473973094660	1473973094764	H	72
154974	1683262	The artist assures me it is a turkey.	The artist assures meit is a turkey.	79988492	1473973094932	1473973095044	 	32
154974	1683262	The artist assures me it is a turkey.	The artist assures meit is a turkey.	79988498	1473973095276	1473973095364	BKSP	8
154974	1683262	The artist assures me it is a turkey.	The artist assures meit is a turkey.	79988504	1473973095444	1473973095516	BKSP	8
154974	1683262	The artist assures me it is a turkey.	The artist assures meit is a turkey.	79988509	1473973095588	1473973095684	BKSP	8
154974	1683262	The artist assures me it is a turkey.	The artist assures meit is a turkey.	79988514	1473973096004	1473973096340	SHIFT	16
154974	1683262	The artist assures me it is a turkey.	The artist assures meit is a turkey.	79988520	1473973096212	1473973096356	T	84
154974	1683262	The artist assures me it is a turkey.	The artist assures meit is a turkey.	79988526	1473973096572	1473973096700	e	69
154974	1683262	The artist assures me it is a turkey.	The artist assures meit is a turkey.	79988534	1473973096748	1473973096820	 	32
154974	1683262	The artist assures me it is a turkey.	The artist assures meit is a turkey.	79988539	1473973097108	1473973097244	a	65
154974	1683262	The artist assures me it is a turkey.	The artist assures meit is a turkey.	79988574	1473973097348	1473973097396	r	82
154974	1683262	The artist assures me it is a turkey.	The artist assures meit is a turkey.	79988578	1473973097492	1473973097532	t	84
154974	1683262	The artist assures me it is a turkey.	The artist assures meit is a turkey.	79988810	1473973097668	1473973100756	i	73
154974	1683262	The artist assures me it is a turkey.	The artist assures meit is a turkey.	79988581	1473973098044	1473973098180	s	83
154974	1683262	The artist assures me it is a turkey.	The artist assures meit is a turkey.	79988584	1473973098212	1473973098316	t	84
154974	1683262	The artist assures me it is a turkey.	The artist assures meit is a turkey.	79988658	1473973098364	1473973098452	 	32
154974	1683262	The artist assures me it is a turkey.	The artist assures meit is a turkey.	79988662	1473973098548	1473973098660	a	65
154974	1683262	The artist assures me it is a turkey.	The artist assures meit is a turkey.	79988666	1473973098868	1473973098996	s	83
154974	1683262	The artist assures me it is a turkey.	The artist assures meit is a turkey.	79988674	1473973099076	1473973099204	s	83
154974	1683262	The artist assures me it is a turkey.	The artist assures meit is a turkey.	79988677	1473973099236	1473973099332	u	85
154974	1683262	The artist assures me it is a turkey.	The artist assures meit is a turkey.	79988723	1473973099404	1473973099476	r	82
154974	1683262	The artist assures me it is a turkey.	The artist assures meit is a turkey.	79988731	1473973099516	1473973099620	e	69
154974	1683262	The artist assures me it is a turkey.	The artist assures meit is a turkey.	79988736	1473973099836	1473973099948	s	83
154974	1683262	The artist assures me it is a turkey.	The artist assures meit is a turkey.	79988742	1473973100092	1473973100148	 	32
154974	1683262	The artist assures me it is a turkey.	The artist assures meit is a turkey.	79988747	1473973100204	1473973100300	m	77
154974	1683262	The artist assures me it is a turkey.	The artist assures meit is a turkey.	79988794	1473973100344	1473973100444	e	69
154974	1683262	The artist assures me it is a turkey.	The artist assures meit is a turkey.	79988802	1473973100532	1473973100620	 	32
154974	1683262	The artist assures me it is a turkey.	The artist assures meit is a turkey.	79988814	1473973100780	1473973100884	t	84
154974	1683262	The artist assures me it is a turkey.	The artist assures meit is a turkey.	79988823	1473973100908	1473973101020	 	32
154974	1683262	The artist assures me it is a turkey.	The artist assures meit is a turkey.	79988944	1473973101012	1473973101148	i	73
154974	1683262	The artist assures me it is a turkey.	The artist assures meit is a turkey.	79988950	1473973101740	1473973101860	s	83
154974	1683262	The artist assures me it is a turkey.	The artist assures meit is a turkey.	79988957	1473973101900	1473973102004	 	32
154974	1683262	The artist assures me it is a turkey.	The artist assures meit is a turkey.	79988964	1473973102116	1473973102204	a	65
154974	1683262	The artist assures me it is a turkey.	The artist assures meit is a turkey.	79988970	1473973102220	1473973102316	 	32
154974	1683262	The artist assures me it is a turkey.	The artist assures meit is a turkey.	79988974	1473973102492	1473973102596	t	84
154974	1683262	The artist assures me it is a turkey.	The artist assures meit is a turkey.	79989035	1473973102652	1473973102780	u	85
154974	1683262	The artist assures me it is a turkey.	The artist assures meit is a turkey.	79989041	1473973102828	1473973102932	r	82
154974	1683262	The artist assures me it is a turkey.	The artist assures meit is a turkey.	79989050	1473973103316	1473973103420	k	75
154974	1683262	The artist assures me it is a turkey.	The artist assures meit is a turkey.	79989059	1473973103428	1473973103540	e	69
154974	1683262	The artist assures me it is a turkey.	The artist assures meit is a turkey.	79989066	1473973103572	1473973103652	y	89
154974	1683262	The artist assures me it is a turkey.	The artist assures meit is a turkey.	79989094	1473973103852	1473973103948	.	190
154974	1683281	I will add this to the folder and let you know when we get into it.	I will add this to the folder and let you now when we get into it.	79989686	1473973096444	1473973111004	h	72
154974	1683281	I will add this to the folder and let you know when we get into it.	I will add this to the folder and let you now when we get into it.	79989488	1473973108532	1473973108716	SHIFT	16
154974	1683281	I will add this to the folder and let you know when we get into it.	I will add this to the folder and let you now when we get into it.	79989490	1473973108636	1473973108724	I	73
154974	1683281	I will add this to the folder and let you know when we get into it.	I will add this to the folder and let you now when we get into it.	79989494	1473973108788	1473973108892	 	32
154974	1683281	I will add this to the folder and let you know when we get into it.	I will add this to the folder and let you now when we get into it.	79989496	1473973109036	1473973109140	w	87
154974	1683281	I will add this to the folder and let you know when we get into it.	I will add this to the folder and let you now when we get into it.	79989498	1473973109092	1473973109188	i	73
154974	1683281	I will add this to the folder and let you know when we get into it.	I will add this to the folder and let you now when we get into it.	79989501	1473973109260	1473973109356	l	76
154974	1683281	I will add this to the folder and let you know when we get into it.	I will add this to the folder and let you now when we get into it.	79989541	1473973109428	1473973109516	l	76
154974	1683281	I will add this to the folder and let you know when we get into it.	I will add this to the folder and let you now when we get into it.	79989545	1473973109540	1473973109660	 	32
154974	1683281	I will add this to the folder and let you know when we get into it.	I will add this to the folder and let you now when we get into it.	79989551	1473973109700	1473973109812	a	65
154974	1683281	I will add this to the folder and let you know when we get into it.	I will add this to the folder and let you now when we get into it.	79989557	1473973109860	1473973109956	d	68
154974	1683281	I will add this to the folder and let you know when we get into it.	I will add this to the folder and let you now when we get into it.	79989562	1473973110060	1473973110140	d	68
154974	1683281	I will add this to the folder and let you know when we get into it.	I will add this to the folder and let you now when we get into it.	79989677	1473973110380	1473973110460	 	32
154974	1683281	I will add this to the folder and let you know when we get into it.	I will add this to the folder and let you now when we get into it.	79989682	1473973110860	1473973110932	t	84
154974	1683281	I will add this to the folder and let you know when we get into it.	I will add this to the folder and let you now when we get into it.	79989690	1473973111076	1473973111180	i	73
154974	1683281	I will add this to the folder and let you know when we get into it.	I will add this to the folder and let you now when we get into it.	79989694	1473973111252	1473973111332	s	83
154974	1683281	I will add this to the folder and let you know when we get into it.	I will add this to the folder and let you now when we get into it.	79989699	1473973111652	1473973111740	BKSP	8
154974	1683281	I will add this to the folder and let you know when we get into it.	I will add this to the folder and let you now when we get into it.	79989703	1473973111812	1473973111884	BKSP	8
154974	1683281	I will add this to the folder and let you know when we get into it.	I will add this to the folder and let you now when we get into it.	79989706	1473973111948	1473973112044	BKSP	8
154974	1683281	I will add this to the folder and let you know when we get into it.	I will add this to the folder and let you now when we get into it.	79989709	1473973112084	1473973112172	t	84
154974	1683281	I will add this to the folder and let you know when we get into it.	I will add this to the folder and let you now when we get into it.	79989734	1473973112174	1473973112244	h	72
154974	1683281	I will add this to the folder and let you know when we get into it.	I will add this to the folder and let you now when we get into it.	79989737	1473973112316	1473973112404	i	73
154974	1683281	I will add this to the folder and let you know when we get into it.	I will add this to the folder and let you now when we get into it.	79989742	1473973112468	1473973112588	s	83
154974	1683281	I will add this to the folder and let you know when we get into it.	I will add this to the folder and let you now when we get into it.	79989747	1473973112612	1473973112716	 	32
154974	1683281	I will add this to the folder and let you know when we get into it.	I will add this to the folder and let you now when we get into it.	79989752	1473973112860	1473973112972	t	84
154974	1683281	I will add this to the folder and let you know when we get into it.	I will add this to the folder and let you now when we get into it.	79989891	1473973112940	1473973113052	o	79
154974	1683281	I will add this to the folder and let you know when we get into it.	I will add this to the folder and let you now when we get into it.	79989896	1473973113076	1473973113164	 	32
154974	1683281	I will add this to the folder and let you know when we get into it.	I will add this to the folder and let you now when we get into it.	79989901	1473973113564	1473973113700	t	84
154974	1683281	I will add this to the folder and let you know when we get into it.	I will add this to the folder and let you now when we get into it.	79989904	1473973114100	1473973114148	BKSP	8
154974	1683281	I will add this to the folder and let you know when we get into it.	I will add this to the folder and let you now when we get into it.	79989906	1473973114644	1473973114724	t	84
154974	1683281	I will add this to the folder and let you know when we get into it.	I will add this to the folder and let you now when we get into it.	79989908	1473973114740	1473973114828	h	72
154974	1683281	I will add this to the folder and let you know when we get into it.	I will add this to the folder and let you now when we get into it.	79989910	1473973114852	1473973114972	e	69
154974	1683281	I will add this to the folder and let you know when we get into it.	I will add this to the folder and let you now when we get into it.	79989947	1473973114980	1473973115092	 	32
154974	1683281	I will add this to the folder and let you know when we get into it.	I will add this to the folder and let you now when we get into it.	79989951	1473973115388	1473973115484	f	70
154974	1683281	I will add this to the folder and let you know when we get into it.	I will add this to the folder and let you now when we get into it.	79989953	1473973115484	1473973115572	o	79
154974	1683281	I will add this to the folder and let you know when we get into it.	I will add this to the folder and let you now when we get into it.	79989955	1473973115676	1473973115756	l	76
154974	1683281	I will add this to the folder and let you know when we get into it.	I will add this to the folder and let you now when we get into it.	79989956	1473973115796	1473973115900	d	68
154974	1683281	I will add this to the folder and let you know when we get into it.	I will add this to the folder and let you now when we get into it.	79989981	1473973115980	1473973116076	e	69
154974	1683281	I will add this to the folder and let you know when we get into it.	I will add this to the folder and let you now when we get into it.	79989983	1473973116076	1473973116164	r	82
154974	1683281	I will add this to the folder and let you know when we get into it.	I will add this to the folder and let you now when we get into it.	79989984	1473973116260	1473973116388	 	32
154974	1683281	I will add this to the folder and let you know when we get into it.	I will add this to the folder and let you now when we get into it.	79989986	1473973116444	1473973116532	n	78
154974	1683281	I will add this to the folder and let you know when we get into it.	I will add this to the folder and let you now when we get into it.	79990092	1473973116484	1473973116588	a	65
154974	1683281	I will add this to the folder and let you know when we get into it.	I will add this to the folder and let you now when we get into it.	79990097	1473973116620	1473973116748	 	32
154974	1683281	I will add this to the folder and let you know when we get into it.	I will add this to the folder and let you now when we get into it.	79990103	1473973117148	1473973117220	BKSP	8
154974	1683281	I will add this to the folder and let you know when we get into it.	I will add this to the folder and let you now when we get into it.	79990111	1473973117292	1473973117372	BKSP	8
154974	1683281	I will add this to the folder and let you know when we get into it.	I will add this to the folder and let you now when we get into it.	79990117	1473973117436	1473973117532	BKSP	8
154974	1683281	I will add this to the folder and let you know when we get into it.	I will add this to the folder and let you now when we get into it.	79990122	1473973117652	1473973117756	a	65
154974	1683281	I will add this to the folder and let you know when we get into it.	I will add this to the folder and let you now when we get into it.	79990242	1473973117788	1473973119836	n	78
154974	1683281	I will add this to the folder and let you know when we get into it.	I will add this to the folder and let you now when we get into it.	79990126	1473973117892	1473973118004	d	68
154974	1683281	I will add this to the folder and let you know when we get into it.	I will add this to the folder and let you now when we get into it.	79990129	1473973118028	1473973118196	 	32
154974	1683281	I will add this to the folder and let you know when we get into it.	I will add this to the folder and let you now when we get into it.	79990159	1473973118252	1473973118364	l	76
154974	1683281	I will add this to the folder and let you know when we get into it.	I will add this to the folder and let you now when we get into it.	79990164	1473973118404	1473973118524	e	69
154974	1683281	I will add this to the folder and let you know when we get into it.	I will add this to the folder and let you now when we get into it.	79990170	1473973118564	1473973118644	t	84
154974	1683281	I will add this to the folder and let you know when we get into it.	I will add this to the folder and let you now when we get into it.	79990176	1473973118876	1473973118964	 	32
154974	1683281	I will add this to the folder and let you know when we get into it.	I will add this to the folder and let you now when we get into it.	79990183	1473973119076	1473973119188	y	89
154974	1683281	I will add this to the folder and let you know when we get into it.	I will add this to the folder and let you now when we get into it.	79990234	1473973119220	1473973119340	o	79
154974	1683281	I will add this to the folder and let you know when we get into it.	I will add this to the folder and let you now when we get into it.	79990237	1473973119292	1473973119380	u	85
154974	1683281	I will add this to the folder and let you know when we get into it.	I will add this to the folder and let you now when we get into it.	79990239	1473973119460	1473973119508	 	32
154974	1683281	I will add this to the folder and let you know when we get into it.	I will add this to the folder and let you now when we get into it.	79990241	1473973119588	1473973119676	k	75
154974	1683281	I will add this to the folder and let you know when we get into it.	I will add this to the folder and let you now when we get into it.	79990244	1473973119860	1473973119972	o	79
154974	1683281	I will add this to the folder and let you know when we get into it.	I will add this to the folder and let you now when we get into it.	79990292	1473973119916	1473973120068	w	87
154974	1683281	I will add this to the folder and let you know when we get into it.	I will add this to the folder and let you now when we get into it.	79990297	1473973120092	1473973120212	 	32
154974	1683281	I will add this to the folder and let you know when we get into it.	I will add this to the folder and let you now when we get into it.	79990303	1473973120268	1473973120396	w	87
154974	1683281	I will add this to the folder and let you know when we get into it.	I will add this to the folder and let you now when we get into it.	79990309	1473973120420	1473973120508	h	72
154974	1683281	I will add this to the folder and let you know when we get into it.	I will add this to the folder and let you now when we get into it.	79990315	1473973120532	1473973120652	e	69
154974	1683281	I will add this to the folder and let you know when we get into it.	I will add this to the folder and let you now when we get into it.	79990322	1473973120676	1473973120780	n	78
154974	1683281	I will add this to the folder and let you know when we get into it.	I will add this to the folder and let you now when we get into it.	79990455	1473973121204	1473973121300	 	32
154974	1683281	I will add this to the folder and let you know when we get into it.	I will add this to the folder and let you now when we get into it.	79990457	1473973121692	1473973121844	w	87
154974	1683281	I will add this to the folder and let you know when we get into it.	I will add this to the folder and let you now when we get into it.	79990460	1473973121876	1473973121996	e	69
154974	1683281	I will add this to the folder and let you know when we get into it.	I will add this to the folder and let you now when we get into it.	79990462	1473973122012	1473973122108	 	32
154974	1683281	I will add this to the folder and let you know when we get into it.	I will add this to the folder and let you now when we get into it.	79990468	1473973122644	1473973122756	e	69
154974	1683281	I will add this to the folder and let you know when we get into it.	I will add this to the folder and let you now when we get into it.	79990577	1473973122804	1473973122876	t	84
154974	1683281	I will add this to the folder and let you know when we get into it.	I will add this to the folder and let you now when we get into it.	79990581	1473973123516	1473973123612	BKSP	8
154974	1683281	I will add this to the folder and let you know when we get into it.	I will add this to the folder and let you now when we get into it.	79990585	1473973123684	1473973123764	BKSP	8
154974	1683281	I will add this to the folder and let you know when we get into it.	I will add this to the folder and let you now when we get into it.	79990588	1473973123820	1473973123908	BKSP	8
154974	1683281	I will add this to the folder and let you know when we get into it.	I will add this to the folder and let you now when we get into it.	79990590	1473973124012	1473973124092	 	32
154974	1683281	I will add this to the folder and let you know when we get into it.	I will add this to the folder and let you now when we get into it.	79990592	1473973124396	1473973124508	g	71
154974	1683281	I will add this to the folder and let you know when we get into it.	I will add this to the folder and let you now when we get into it.	79990593	1473973124588	1473973124708	e	69
154974	1683281	I will add this to the folder and let you know when we get into it.	I will add this to the folder and let you now when we get into it.	79990594	1473973124756	1473973124844	t	84
154974	1683281	I will add this to the folder and let you know when we get into it.	I will add this to the folder and let you now when we get into it.	79990614	1473973124908	1473973125004	 	32
154974	1683281	I will add this to the folder and let you know when we get into it.	I will add this to the folder and let you now when we get into it.	79990616	1473973125052	1473973125148	i	73
154974	1683281	I will add this to the folder and let you know when we get into it.	I will add this to the folder and let you now when we get into it.	79990620	1473973125180	1473973125284	n	78
154974	1683281	I will add this to the folder and let you know when we get into it.	I will add this to the folder and let you now when we get into it.	79990623	1473973125364	1473973125461	t	84
154974	1683281	I will add this to the folder and let you know when we get into it.	I will add this to the folder and let you now when we get into it.	79990629	1473973125548	1473973125684	o	79
154974	1683281	I will add this to the folder and let you know when we get into it.	I will add this to the folder and let you now when we get into it.	79990678	1473973125732	1473973125828	 	32
154974	1683281	I will add this to the folder and let you know when we get into it.	I will add this to the folder and let you now when we get into it.	79990680	1473973125988	1473973126108	i	73
154974	1683281	I will add this to the folder and let you know when we get into it.	I will add this to the folder and let you now when we get into it.	79990684	1473973126268	1473973126392	t	84
154974	1683281	I will add this to the folder and let you know when we get into it.	I will add this to the folder and let you now when we get into it.	79990687	1473973126500	1473973126596	.	190
154974	1683313	On a comparative basis I can't justify more.	On a comparative basis I can't justify more.	79990989	1473973130396	1473973130564	SHIFT	16
154974	1683313	On a comparative basis I can't justify more.	On a comparative basis I can't justify more.	79990994	1473973130484	1473973130596	O	79
154974	1683313	On a comparative basis I can't justify more.	On a comparative basis I can't justify more.	79991001	1473973130604	1473973130684	n	78
154974	1683313	On a comparative basis I can't justify more.	On a comparative basis I can't justify more.	79991011	1473973130780	1473973130892	 	32
154974	1683313	On a comparative basis I can't justify more.	On a comparative basis I can't justify more.	79991016	1473973131020	1473973131140	a	65
154974	1683313	On a comparative basis I can't justify more.	On a comparative basis I can't justify more.	79991023	1473973131180	1473973131284	 	32
154974	1683313	On a comparative basis I can't justify more.	On a comparative basis I can't justify more.	79991148	1473973131660	1473973131788	c	67
154974	1683313	On a comparative basis I can't justify more.	On a comparative basis I can't justify more.	79991151	1473973131820	1473973131964	o	79
154974	1683313	On a comparative basis I can't justify more.	On a comparative basis I can't justify more.	79991154	1473973132284	1473973132396	p	80
154974	1683313	On a comparative basis I can't justify more.	On a comparative basis I can't justify more.	79991158	1473973132708	1473973132780	BKSP	8
154974	1683313	On a comparative basis I can't justify more.	On a comparative basis I can't justify more.	79991163	1473973132972	1473973133068	m	77
154974	1683313	On a comparative basis I can't justify more.	On a comparative basis I can't justify more.	79991169	1473973133220	1473973133348	p	80
154974	1683313	On a comparative basis I can't justify more.	On a comparative basis I can't justify more.	79991265	1473973133524	1473973133660	a	65
154974	1683313	On a comparative basis I can't justify more.	On a comparative basis I can't justify more.	79991271	1473973134092	1473973134220	r	82
154974	1683313	On a comparative basis I can't justify more.	On a comparative basis I can't justify more.	79991276	1473973134316	1473973134453	a	65
154974	1683313	On a comparative basis I can't justify more.	On a comparative basis I can't justify more.	79991282	1473973134484	1473973134572	t	84
154974	1683313	On a comparative basis I can't justify more.	On a comparative basis I can't justify more.	79991288	1473973134700	1473973134836	i	73
154974	1683313	On a comparative basis I can't justify more.	On a comparative basis I can't justify more.	79991314	1473973134900	1473973135020	v	86
154974	1683313	On a comparative basis I can't justify more.	On a comparative basis I can't justify more.	79991319	1473973135076	1473973135196	e	69
154974	1683313	On a comparative basis I can't justify more.	On a comparative basis I can't justify more.	79991323	1473973135212	1473973135300	 	32
154974	1683313	On a comparative basis I can't justify more.	On a comparative basis I can't justify more.	79991328	1473973135660	1473973135740	b	66
154974	1683313	On a comparative basis I can't justify more.	On a comparative basis I can't justify more.	79991412	1473973135732	1473973135836	a	65
154974	1683313	On a comparative basis I can't justify more.	On a comparative basis I can't justify more.	79991416	1473973135908	1473973136004	s	83
154974	1683313	On a comparative basis I can't justify more.	On a comparative basis I can't justify more.	79991420	1473973136212	1473973136348	i	73
154974	1683313	On a comparative basis I can't justify more.	On a comparative basis I can't justify more.	79991425	1473973136348	1473973136484	s	83
154974	1683313	On a comparative basis I can't justify more.	On a comparative basis I can't justify more.	79991429	1473973136532	1473973136636	 	32
154974	1683313	On a comparative basis I can't justify more.	On a comparative basis I can't justify more.	79991550	1473973136940	1473973137276	SHIFT	16
154974	1683313	On a comparative basis I can't justify more.	On a comparative basis I can't justify more.	79991432	1473973137076	1473973137180	I	73
154974	1683313	On a comparative basis I can't justify more.	On a comparative basis I can't justify more.	79991555	1473973137492	1473973137572	 	32
154974	1683313	On a comparative basis I can't justify more.	On a comparative basis I can't justify more.	79991560	1473973137924	1473973138052	c	67
154974	1683313	On a comparative basis I can't justify more.	On a comparative basis I can't justify more.	79991563	1473973138092	1473973138196	a	65
154974	1683313	On a comparative basis I can't justify more.	On a comparative basis I can't justify more.	79991567	1473973138188	1473973138308	n	78
154974	1683313	On a comparative basis I can't justify more.	On a comparative basis I can't justify more.	79991570	1473973138836	1473973138940	'	222
154974	1683313	On a comparative basis I can't justify more.	On a comparative basis I can't justify more.	79991626	1473973138956	1473973139044	t	84
154974	1683313	On a comparative basis I can't justify more.	On a comparative basis I can't justify more.	79991629	1473973139108	1473973139188	 	32
154974	1683313	On a comparative basis I can't justify more.	On a comparative basis I can't justify more.	79991632	1473973139660	1473973139732	j	74
154974	1683313	On a comparative basis I can't justify more.	On a comparative basis I can't justify more.	79991635	1473973139812	1473973139892	u	85
154974	1683313	On a comparative basis I can't justify more.	On a comparative basis I can't justify more.	79991639	1473973140012	1473973140140	s	83
154974	1683313	On a comparative basis I can't justify more.	On a comparative basis I can't justify more.	79991808	1473973140220	1473973140332	i	73
154974	1683313	On a comparative basis I can't justify more.	On a comparative basis I can't justify more.	79991811	1473973140724	1473973140828	BKSP	8
154974	1683313	On a comparative basis I can't justify more.	On a comparative basis I can't justify more.	79991815	1473973140852	1473973140940	t	84
154974	1683313	On a comparative basis I can't justify more.	On a comparative basis I can't justify more.	79991819	1473973142284	1473973142404	i	73
154974	1683313	On a comparative basis I can't justify more.	On a comparative basis I can't justify more.	79991825	1473973142580	1473973142660	f	70
154974	1683313	On a comparative basis I can't justify more.	On a comparative basis I can't justify more.	79991834	1473973142708	1473973142788	u	85
154974	1683313	On a comparative basis I can't justify more.	On a comparative basis I can't justify more.	79991933	1473973143452	1473973143556	BKSP	8
154974	1683313	On a comparative basis I can't justify more.	On a comparative basis I can't justify more.	79991936	1473973143684	1473973143756	y	89
154974	1683313	On a comparative basis I can't justify more.	On a comparative basis I can't justify more.	79991941	1473973144020	1473973144140	 	32
154974	1683313	On a comparative basis I can't justify more.	On a comparative basis I can't justify more.	79991946	1473973144244	1473973144332	m	77
154974	1683313	On a comparative basis I can't justify more.	On a comparative basis I can't justify more.	79991949	1473973144380	1473973144500	o	79
154974	1683313	On a comparative basis I can't justify more.	On a comparative basis I can't justify more.	79991953	1473973144532	1473973144612	r	82
154974	1683313	On a comparative basis I can't justify more.	On a comparative basis I can't justify more.	79991970	1473973144644	1473973144748	e	69
154974	1683313	On a comparative basis I can't justify more.	On a comparative basis I can't justify more.	79991971	1473973144780	1473973144884	.	190
154974	1683337	The reigning Indy-car series champion will be among top contenders.	THe reigning Indy-car series champion will be among tp[ contenders.	79992403	1473973149812	1473973150100	SHIFT	16
154974	1683337	The reigning Indy-car series champion will be among top contenders.	THe reigning Indy-car series champion will be among tp[ contenders.	79992408	1473973150116	1473973150220	h	72
154974	1683337	The reigning Indy-car series champion will be among top contenders.	THe reigning Indy-car series champion will be among tp[ contenders.	79992416	1473973150212	1473973150388	e	69
154974	1683337	The reigning Indy-car series champion will be among top contenders.	THe reigning Indy-car series champion will be among tp[ contenders.	79992424	1473973150540	1473973150628	BKSP	8
154974	1683337	The reigning Indy-car series champion will be among top contenders.	THe reigning Indy-car series champion will be among tp[ contenders.	79992431	1473973150700	1473973150772	BKSP	8
154974	1683337	The reigning Indy-car series champion will be among top contenders.	THe reigning Indy-car series champion will be among tp[ contenders.	79992438	1473973150780	1473973151028	SHIFT	16
154974	1683337	The reigning Indy-car series champion will be among top contenders.	THe reigning Indy-car series champion will be among tp[ contenders.	79992445	1473973150948	1473973151100	T	84
154974	1683337	The reigning Indy-car series champion will be among top contenders.	THe reigning Indy-car series champion will be among tp[ contenders.	79992443	1473973150972	1473973151092	H	72
154974	1683337	The reigning Indy-car series champion will be among top contenders.	THe reigning Indy-car series champion will be among tp[ contenders.	79992448	1473973151108	1473973151268	e	69
154974	1683337	The reigning Indy-car series champion will be among top contenders.	THe reigning Indy-car series champion will be among tp[ contenders.	79992638	1473973151276	1473973151388	 	32
154974	1683337	The reigning Indy-car series champion will be among top contenders.	THe reigning Indy-car series champion will be among tp[ contenders.	79992642	1473973151876	1473973151988	r	82
154974	1683337	The reigning Indy-car series champion will be among top contenders.	THe reigning Indy-car series champion will be among tp[ contenders.	79992645	1473973152236	1473973152332	e	69
154974	1683337	The reigning Indy-car series champion will be among top contenders.	THe reigning Indy-car series champion will be among tp[ contenders.	79992649	1473973152612	1473973152708	g	71
154974	1683337	The reigning Indy-car series champion will be among top contenders.	THe reigning Indy-car series champion will be among tp[ contenders.	79992653	1473973154028	1473973154132	BKSP	8
154974	1683337	The reigning Indy-car series champion will be among top contenders.	THe reigning Indy-car series champion will be among tp[ contenders.	79992659	1473973154692	1473973154804	i	73
154974	1683337	The reigning Indy-car series champion will be among top contenders.	THe reigning Indy-car series champion will be among tp[ contenders.	79992742	1473973155644	1473973155748	g	71
154974	1683337	The reigning Indy-car series champion will be among top contenders.	THe reigning Indy-car series champion will be among tp[ contenders.	79992743	1473973155740	1473973155884	n	78
154974	1683337	The reigning Indy-car series champion will be among top contenders.	THe reigning Indy-car series champion will be among tp[ contenders.	79992744	1473973155924	1473973156060	i	73
154974	1683337	The reigning Indy-car series champion will be among top contenders.	THe reigning Indy-car series champion will be among tp[ contenders.	79992746	1473973156044	1473973156148	n	78
154974	1683337	The reigning Indy-car series champion will be among top contenders.	THe reigning Indy-car series champion will be among tp[ contenders.	79992750	1473973156204	1473973156324	g	71
154974	1683337	The reigning Indy-car series champion will be among top contenders.	THe reigning Indy-car series champion will be among tp[ contenders.	79992837	1473973156396	1473973156508	 	32
154974	1683337	The reigning Indy-car series champion will be among top contenders.	THe reigning Indy-car series champion will be among tp[ contenders.	79992842	1473973156940	1473973157172	SHIFT	16
154974	1683337	The reigning Indy-car series champion will be among top contenders.	THe reigning Indy-car series champion will be among tp[ contenders.	79992839	1473973157076	1473973157164	I	73
154974	1683337	The reigning Indy-car series champion will be among top contenders.	THe reigning Indy-car series champion will be among tp[ contenders.	79992846	1473973157204	1473973157308	n	78
154974	1683337	The reigning Indy-car series champion will be among top contenders.	THe reigning Indy-car series champion will be among tp[ contenders.	79992849	1473973157340	1473973157460	d	68
154974	1683337	The reigning Indy-car series champion will be among top contenders.	THe reigning Indy-car series champion will be among tp[ contenders.	79992852	1473973157564	1473973157660	y	89
154974	1683337	The reigning Indy-car series champion will be among top contenders.	THe reigning Indy-car series champion will be among tp[ contenders.	79992999	1473973158436	1473973158548	-	189
154974	1683337	The reigning Indy-car series champion will be among top contenders.	THe reigning Indy-car series champion will be among tp[ contenders.	79993003	1473973159060	1473973159204	c	67
154974	1683337	The reigning Indy-car series champion will be among top contenders.	THe reigning Indy-car series champion will be among tp[ contenders.	79993009	1473973159300	1473973159444	a	65
154974	1683337	The reigning Indy-car series champion will be among top contenders.	THe reigning Indy-car series champion will be among tp[ contenders.	79993015	1473973159524	1473973159644	r	82
154974	1683337	The reigning Indy-car series champion will be among top contenders.	THe reigning Indy-car series champion will be among tp[ contenders.	79993019	1473973159764	1473973159868	 	32
154974	1683337	The reigning Indy-car series champion will be among top contenders.	THe reigning Indy-car series champion will be among tp[ contenders.	79993102	1473973160188	1473973160284	s	83
154974	1683337	The reigning Indy-car series champion will be among top contenders.	THe reigning Indy-car series champion will be among tp[ contenders.	79993108	1473973160340	1473973160452	e	69
154974	1683337	The reigning Indy-car series champion will be among top contenders.	THe reigning Indy-car series champion will be among tp[ contenders.	79993112	1473973160492	1473973160556	r	82
154974	1683337	The reigning Indy-car series champion will be among top contenders.	THe reigning Indy-car series champion will be among tp[ contenders.	79993120	1473973160604	1473973160700	i	73
154974	1683337	The reigning Indy-car series champion will be among top contenders.	THe reigning Indy-car series champion will be among tp[ contenders.	79993125	1473973161180	1473973161284	e	69
154974	1683337	The reigning Indy-car series champion will be among top contenders.	THe reigning Indy-car series champion will be among tp[ contenders.	79993201	1473973161396	1473973161508	s	83
154974	1683337	The reigning Indy-car series champion will be among top contenders.	THe reigning Indy-car series champion will be among tp[ contenders.	79993204	1473973161564	1473973161692	 	32
154974	1683337	The reigning Indy-car series champion will be among top contenders.	THe reigning Indy-car series champion will be among tp[ contenders.	79993208	1473973161804	1473973161948	c	67
154974	1683337	The reigning Indy-car series champion will be among top contenders.	THe reigning Indy-car series champion will be among tp[ contenders.	79993211	1473973162036	1473973162140	h	72
154974	1683337	The reigning Indy-car series champion will be among top contenders.	THe reigning Indy-car series champion will be among tp[ contenders.	79993213	1473973162292	1473973162388	a	65
154974	1683337	The reigning Indy-car series champion will be among top contenders.	THe reigning Indy-car series champion will be among tp[ contenders.	79993259	1473973162421	1473973162540	m	77
154974	1683337	The reigning Indy-car series champion will be among top contenders.	THe reigning Indy-car series champion will be among tp[ contenders.	79993267	1473973162612	1473973162788	p	80
154974	1683337	The reigning Indy-car series champion will be among top contenders.	THe reigning Indy-car series champion will be among tp[ contenders.	79993273	1473973162836	1473973162924	i	73
154974	1683337	The reigning Indy-car series champion will be among top contenders.	THe reigning Indy-car series champion will be among tp[ contenders.	79993279	1473973163020	1473973163228	o	79
154974	1683337	The reigning Indy-car series champion will be among top contenders.	THe reigning Indy-car series champion will be among tp[ contenders.	79993332	1473973163188	1473973163276	n	78
154974	1683337	The reigning Indy-car series champion will be among top contenders.	THe reigning Indy-car series champion will be among tp[ contenders.	79993336	1473973163396	1473973163460	 	32
154974	1683337	The reigning Indy-car series champion will be among top contenders.	THe reigning Indy-car series champion will be among tp[ contenders.	79993341	1473973163788	1473973163892	w	87
154974	1683337	The reigning Indy-car series champion will be among top contenders.	THe reigning Indy-car series champion will be among tp[ contenders.	79993344	1473973163828	1473973163916	i	73
154974	1683337	The reigning Indy-car series champion will be among top contenders.	THe reigning Indy-car series champion will be among tp[ contenders.	79993346	1473973164004	1473973164100	l	76
154974	1683337	The reigning Indy-car series champion will be among top contenders.	THe reigning Indy-car series champion will be among tp[ contenders.	79993348	1473973164164	1473973164252	l	76
154974	1683337	The reigning Indy-car series champion will be among top contenders.	THe reigning Indy-car series champion will be among tp[ contenders.	79993397	1473973164268	1473973164348	 	32
154974	1683337	The reigning Indy-car series champion will be among top contenders.	THe reigning Indy-car series champion will be among tp[ contenders.	79993407	1473973164396	1473973164484	b	66
154974	1683337	The reigning Indy-car series champion will be among top contenders.	THe reigning Indy-car series champion will be among tp[ contenders.	79993414	1473973164532	1473973164660	e	69
154974	1683337	The reigning Indy-car series champion will be among top contenders.	THe reigning Indy-car series champion will be among tp[ contenders.	79993420	1473973164644	1473973164748	 	32
154974	1683337	The reigning Indy-car series champion will be among top contenders.	THe reigning Indy-car series champion will be among tp[ contenders.	79993427	1473973164924	1473973165052	a	65
154974	1683337	The reigning Indy-car series champion will be among top contenders.	THe reigning Indy-car series champion will be among tp[ contenders.	79993456	1473973165068	1473973165172	m	77
154974	1683337	The reigning Indy-car series champion will be among top contenders.	THe reigning Indy-car series champion will be among tp[ contenders.	79993461	1473973165196	1473973165348	o	79
154974	1683337	The reigning Indy-car series champion will be among top contenders.	THe reigning Indy-car series champion will be among tp[ contenders.	79993470	1473973165340	1473973165420	n	78
154974	1683337	The reigning Indy-car series champion will be among top contenders.	THe reigning Indy-car series champion will be among tp[ contenders.	79993474	1473973165460	1473973165564	g	71
154974	1683337	The reigning Indy-car series champion will be among top contenders.	THe reigning Indy-car series champion will be among tp[ contenders.	79993481	1473973165612	1473973165716	 	32
154974	1683337	The reigning Indy-car series champion will be among top contenders.	THe reigning Indy-car series champion will be among tp[ contenders.	79993587	1473973165772	1473973165860	t	84
154974	1683337	The reigning Indy-car series champion will be among top contenders.	THe reigning Indy-car series champion will be among tp[ contenders.	79993591	1473973165836	1473973165932	h	72
154974	1683337	The reigning Indy-car series champion will be among top contenders.	THe reigning Indy-car series champion will be among tp[ contenders.	79993594	1473973166356	1473973166500	BKSP	8
154974	1683337	The reigning Indy-car series champion will be among top contenders.	THe reigning Indy-car series champion will be among tp[ contenders.	79993597	1473973166892	1473973166980	p	80
154974	1683337	The reigning Indy-car series champion will be among top contenders.	THe reigning Indy-car series champion will be among tp[ contenders.	79993600	1473973167108	1473973167212	[	219
154974	1683337	The reigning Indy-car series champion will be among top contenders.	THe reigning Indy-car series champion will be among tp[ contenders.	79993607	1473973167356	1473973167476	 	32
154974	1683337	The reigning Indy-car series champion will be among top contenders.	THe reigning Indy-car series champion will be among tp[ contenders.	79993707	1473973168324	1473973168412	c	67
154974	1683337	The reigning Indy-car series champion will be among top contenders.	THe reigning Indy-car series champion will be among tp[ contenders.	79993710	1473973168444	1473973168556	o	79
154974	1683337	The reigning Indy-car series champion will be among top contenders.	THe reigning Indy-car series champion will be among tp[ contenders.	79993713	1473973168556	1473973168644	n	78
154974	1683337	The reigning Indy-car series champion will be among top contenders.	THe reigning Indy-car series champion will be among tp[ contenders.	79993716	1473973168740	1473973168820	d	68
154974	1683337	The reigning Indy-car series champion will be among top contenders.	THe reigning Indy-car series champion will be among tp[ contenders.	79993721	1473973168932	1473973169044	e	69
154974	1683337	The reigning Indy-car series champion will be among top contenders.	THe reigning Indy-car series champion will be among tp[ contenders.	79993843	1473973169556	1473973169636	BKSP	8
154974	1683337	The reigning Indy-car series champion will be among top contenders.	THe reigning Indy-car series champion will be among tp[ contenders.	79993848	1473973169716	1473973169812	BKSP	8
154974	1683337	The reigning Indy-car series champion will be among top contenders.	THe reigning Indy-car series champion will be among tp[ contenders.	79993851	1473973170084	1473973170172	t	84
154974	1683337	The reigning Indy-car series champion will be among top contenders.	THe reigning Indy-car series champion will be among tp[ contenders.	79993858	1473973170284	1473973170372	e	69
154974	1683337	The reigning Indy-car series champion will be among top contenders.	THe reigning Indy-car series champion will be among tp[ contenders.	79993862	1473973170476	1473973170572	n	78
154974	1683337	The reigning Indy-car series champion will be among top contenders.	THe reigning Indy-car series champion will be among tp[ contenders.	79993865	1473973170580	1473973170668	d	68
154974	1683337	The reigning Indy-car series champion will be among top contenders.	THe reigning Indy-car series champion will be among tp[ contenders.	79993869	1473973170772	1473973170836	e	69
154974	1683337	The reigning Indy-car series champion will be among top contenders.	THe reigning Indy-car series champion will be among tp[ contenders.	79993928	1473973170828	1473973170940	r	82
154974	1683337	The reigning Indy-car series champion will be among top contenders.	THe reigning Indy-car series champion will be among tp[ contenders.	79993931	1473973171348	1473973171428	s	83
154974	1683337	The reigning Indy-car series champion will be among top contenders.	THe reigning Indy-car series champion will be among tp[ contenders.	79993937	1473973171580	1473973171700	.	190
154974	1683380	Thursday works better for me.	Thursday works better for me.	79994196	1473973174484	1473973174724	SHIFT	16
154974	1683380	Thursday works better for me.	Thursday works better for me.	79994201	1473973174668	1473973174796	T	84
154974	1683380	Thursday works better for me.	Thursday works better for me.	79994207	1473973174772	1473973174884	h	72
154974	1683380	Thursday works better for me.	Thursday works better for me.	79994214	1473973175332	1473973175404	u	85
154974	1683380	Thursday works better for me.	Thursday works better for me.	79994220	1473973175484	1473973175572	r	82
154974	1683380	Thursday works better for me.	Thursday works better for me.	79994227	1473973175732	1473973175804	d	68
154974	1683380	Thursday works better for me.	Thursday works better for me.	79994446	1473973176500	1473973176572	BKSP	8
154974	1683380	Thursday works better for me.	Thursday works better for me.	79994449	1473973176692	1473973176780	s	83
154974	1683380	Thursday works better for me.	Thursday works better for me.	79994452	1473973176988	1473973177116	d	68
154974	1683380	Thursday works better for me.	Thursday works better for me.	79994457	1473973177196	1473973177308	a	65
154974	1683380	Thursday works better for me.	Thursday works better for me.	79994460	1473973177492	1473973177596	 	32
154974	1683380	Thursday works better for me.	Thursday works better for me.	79994468	1473973177932	1473973178044	BKSP	8
154974	1683380	Thursday works better for me.	Thursday works better for me.	79994469	1473973178172	1473973178252	y	89
154974	1683380	Thursday works better for me.	Thursday works better for me.	79994574	1473973178500	1473973178548	 	32
154974	1683380	Thursday works better for me.	Thursday works better for me.	79994580	1473973178892	1473973179068	w	87
154974	1683380	Thursday works better for me.	Thursday works better for me.	79994585	1473973179140	1473973179188	o	79
154974	1683380	Thursday works better for me.	Thursday works better for me.	79994588	1473973179380	1473973179452	r	82
154974	1683380	Thursday works better for me.	Thursday works better for me.	79994590	1473973179604	1473973179708	d	68
154974	1683380	Thursday works better for me.	Thursday works better for me.	79994791	1473973179724	1473973179820	k	75
154974	1683380	Thursday works better for me.	Thursday works better for me.	79994796	1473973179852	1473973179972	s	83
154974	1683380	Thursday works better for me.	Thursday works better for me.	79994800	1473973180180	1473973180260	 	32
154974	1683380	Thursday works better for me.	Thursday works better for me.	79994805	1473973180852	1473973180932	BKSP	8
154974	1683380	Thursday works better for me.	Thursday works better for me.	79994810	1473973181012	1473973181092	BKSP	8
154974	1683380	Thursday works better for me.	Thursday works better for me.	79994815	1473973181156	1473973181252	BKSP	8
154974	1683380	Thursday works better for me.	Thursday works better for me.	79994822	1473973181316	1473973181412	BKSP	8
154974	1683380	Thursday works better for me.	Thursday works better for me.	79994827	1473973181524	1473973181644	s	83
154974	1683380	Thursday works better for me.	Thursday works better for me.	79994831	1473973182332	1473973182428	BKSP	8
154974	1683380	Thursday works better for me.	Thursday works better for me.	79994836	1473973182884	1473973182964	k	75
154974	1683380	Thursday works better for me.	Thursday works better for me.	79994849	1473973182972	1473973183100	s	83
154974	1683380	Thursday works better for me.	Thursday works better for me.	79994852	1473973183140	1473973183228	 	32
154974	1683380	Thursday works better for me.	Thursday works better for me.	79994855	1473973183324	1473973183436	b	66
154974	1683380	Thursday works better for me.	Thursday works better for me.	79994859	1473973183460	1473973183564	e	69
154974	1683380	Thursday works better for me.	Thursday works better for me.	79994863	1473973183636	1473973183724	t	84
154974	1683380	Thursday works better for me.	Thursday works better for me.	79994917	1473973183796	1473973183852	t	84
154974	1683380	Thursday works better for me.	Thursday works better for me.	79994920	1473973183900	1473973184020	e	69
154974	1683380	Thursday works better for me.	Thursday works better for me.	79994925	1473973184012	1473973184108	r	82
154974	1683380	Thursday works better for me.	Thursday works better for me.	79994931	1473973184180	1473973184292	 	32
154974	1683380	Thursday works better for me.	Thursday works better for me.	79994938	1473973184380	1473973184492	o	70
154974	1683380	Thursday works better for me.	Thursday works better for me.	79995041	1473973184580	1473973184700	r	82
154974	1683380	Thursday works better for me.	Thursday works better for me.	79995043	1473973185108	1473973185204	 	32
154974	1683380	Thursday works better for me.	Thursday works better for me.	79995049	1473973185348	1473973185412	m	77
154974	1683380	Thursday works better for me.	Thursday works better for me.	79995055	1473973185460	1473973185564	e	69
154974	1683380	Thursday works better for me.	Thursday works better for me.	79995062	1473973185772	1473973185876	.	190
154974	1683400	Davis was listed as questionable on the weekly injury report.	Davis was listed as questionable on the weekly injury report.	79995670	1473973189548	1473973191412	SHIFT	16
154974	1683400	Davis was listed as questionable on the weekly injury report.	Davis was listed as questionable on the weekly injury report.	79995654	1473973189924	1473973190036	a	65
154974	1683400	Davis was listed as questionable on the weekly injury report.	Davis was listed as questionable on the weekly injury report.	79995660	1473973190564	1473973190660	BKSP	8
154974	1683400	Davis was listed as questionable on the weekly injury report.	Davis was listed as questionable on the weekly injury report.	79996156	1473973191364	1473973197348	D	68
154974	1683400	Davis was listed as questionable on the weekly injury report.	Davis was listed as questionable on the weekly injury report.	79995679	1473973192212	1473973192332	c	67
154974	1683400	Davis was listed as questionable on the weekly injury report.	Davis was listed as questionable on the weekly injury report.	79995685	1473973192764	1473973192868	BKSP	8
154974	1683400	Davis was listed as questionable on the weekly injury report.	Davis was listed as questionable on the weekly injury report.	79995693	1473973192964	1473973193148	a	65
154974	1683400	Davis was listed as questionable on the weekly injury report.	Davis was listed as questionable on the weekly injury report.	79995701	1473973193540	1473973193694	c	67
154974	1683400	Davis was listed as questionable on the weekly injury report.	Davis was listed as questionable on the weekly injury report.	79995777	1473973193740	1473973193860	i	73
154974	1683400	Davis was listed as questionable on the weekly injury report.	Davis was listed as questionable on the weekly injury report.	79995780	1473973194132	1473973194220	BKSP	8
154974	1683400	Davis was listed as questionable on the weekly injury report.	Davis was listed as questionable on the weekly injury report.	79995786	1473973194308	1473973194401	BKSP	8
154974	1683400	Davis was listed as questionable on the weekly injury report.	Davis was listed as questionable on the weekly injury report.	79995790	1473973194452	1473973194564	v	86
154974	1683400	Davis was listed as questionable on the weekly injury report.	Davis was listed as questionable on the weekly injury report.	79995796	1473973194556	1473973194660	i	73
154974	1683400	Davis was listed as questionable on the weekly injury report.	Davis was listed as questionable on the weekly injury report.	79995804	1473973194732	1473973194868	s	83
154974	1683400	Davis was listed as questionable on the weekly injury report.	Davis was listed as questionable on the weekly injury report.	79995811	1473973194932	1473973195044	 	32
154974	1683400	Davis was listed as questionable on the weekly injury report.	Davis was listed as questionable on the weekly injury report.	79995879	1473973195252	1473973195356	w	87
154974	1683400	Davis was listed as questionable on the weekly injury report.	Davis was listed as questionable on the weekly injury report.	79995883	1473973195484	1473973195604	a	65
154974	1683400	Davis was listed as questionable on the weekly injury report.	Davis was listed as questionable on the weekly injury report.	79995890	1473973195636	1473973195740	s	83
154974	1683400	Davis was listed as questionable on the weekly injury report.	Davis was listed as questionable on the weekly injury report.	79995897	1473973195772	1473973195868	 	32
154974	1683400	Davis was listed as questionable on the weekly injury report.	Davis was listed as questionable on the weekly injury report.	79995904	1473973196060	1473973196180	l	76
154974	1683400	Davis was listed as questionable on the weekly injury report.	Davis was listed as questionable on the weekly injury report.	79996139	1473973196220	1473973196316	i	73
154974	1683400	Davis was listed as questionable on the weekly injury report.	Davis was listed as questionable on the weekly injury report.	79996144	1473973196332	1473973196436	s	83
154974	1683400	Davis was listed as questionable on the weekly injury report.	Davis was listed as questionable on the weekly injury report.	79996149	1473973196644	1473973196924	e	69
154974	1683400	Davis was listed as questionable on the weekly injury report.	Davis was listed as questionable on the weekly injury report.	79996166	1473973197476	1473973197572	 	32
154974	1683400	Davis was listed as questionable on the weekly injury report.	Davis was listed as questionable on the weekly injury report.	79996173	1473973198044	1473973198140	BKSP	8
154974	1683400	Davis was listed as questionable on the weekly injury report.	Davis was listed as questionable on the weekly injury report.	79996181	1473973198220	1473973198300	BKSP	8
154974	1683400	Davis was listed as questionable on the weekly injury report.	Davis was listed as questionable on the weekly injury report.	79996185	1473973198948	1473973199060	t	84
154974	1683400	Davis was listed as questionable on the weekly injury report.	Davis was listed as questionable on the weekly injury report.	79996231	1473973199188	1473973199268	e	69
154974	1683400	Davis was listed as questionable on the weekly injury report.	Davis was listed as questionable on the weekly injury report.	79996237	1473973199372	1473973199460	d	68
154974	1683400	Davis was listed as questionable on the weekly injury report.	Davis was listed as questionable on the weekly injury report.	79996241	1473973199580	1473973199692	 	32
154974	1683400	Davis was listed as questionable on the weekly injury report.	Davis was listed as questionable on the weekly injury report.	79996249	1473973199804	1473973199908	a	65
154974	1683400	Davis was listed as questionable on the weekly injury report.	Davis was listed as questionable on the weekly injury report.	79997309	1473973199924	1473973212516	s	83
154974	1683400	Davis was listed as questionable on the weekly injury report.	Davis was listed as questionable on the weekly injury report.	79996258	1473973200068	1473973200156	 	32
154974	1683400	Davis was listed as questionable on the weekly injury report.	Davis was listed as questionable on the weekly injury report.	79997179	1473973200900	1473973201020	y	85
154974	1683400	Davis was listed as questionable on the weekly injury report.	Davis was listed as questionable on the weekly injury report.	79997184	1473973201452	1473973202180	BKSP	8
154974	1683400	Davis was listed as questionable on the weekly injury report.	Davis was listed as questionable on the weekly injury report.	79997188	1473973202676	1473973202796	u	85
154974	1683400	Davis was listed as questionable on the weekly injury report.	Davis was listed as questionable on the weekly injury report.	79997194	1473973203332	1473973203453	BKSP	8
154974	1683400	Davis was listed as questionable on the weekly injury report.	Davis was listed as questionable on the weekly injury report.	79997201	1473973211588	1473973211724	q	81
154974	1683400	Davis was listed as questionable on the weekly injury report.	Davis was listed as questionable on the weekly injury report.	79997205	1473973211892	1473973212004	u	85
154974	1683400	Davis was listed as questionable on the weekly injury report.	Davis was listed as questionable on the weekly injury report.	79997305	1473973212116	1473973212236	e	69
154974	1683400	Davis was listed as questionable on the weekly injury report.	Davis was listed as questionable on the weekly injury report.	79997314	1473973212876	1473973213012	t	84
154974	1683400	Davis was listed as questionable on the weekly injury report.	Davis was listed as questionable on the weekly injury report.	79997319	1473973213388	1473973213484	BKSP	8
154974	1683400	Davis was listed as questionable on the weekly injury report.	Davis was listed as questionable on the weekly injury report.	79997325	1473973213572	1473973213764	s	83
154974	1683400	Davis was listed as questionable on the weekly injury report.	Davis was listed as questionable on the weekly injury report.	79997334	1473973213772	1473973213900	t	84
154974	1683400	Davis was listed as questionable on the weekly injury report.	Davis was listed as questionable on the weekly injury report.	79997340	1473973213932	1473973214076	i	73
154974	1683400	Davis was listed as questionable on the weekly injury report.	Davis was listed as questionable on the weekly injury report.	79997381	1473973214079	1473973214228	o	79
154974	1683400	Davis was listed as questionable on the weekly injury report.	Davis was listed as questionable on the weekly injury report.	79997383	1473973214180	1473973214308	n	78
154974	1683400	Davis was listed as questionable on the weekly injury report.	Davis was listed as questionable on the weekly injury report.	79997388	1473973214348	1473973214484	a	65
154974	1683400	Davis was listed as questionable on the weekly injury report.	Davis was listed as questionable on the weekly injury report.	79997392	1473973214652	1473973214780	b	66
154974	1683400	Davis was listed as questionable on the weekly injury report.	Davis was listed as questionable on the weekly injury report.	79997397	1473973214868	1473973214980	l	76
154974	1683400	Davis was listed as questionable on the weekly injury report.	Davis was listed as questionable on the weekly injury report.	79997431	1473973214982	1473973215116	e	69
154974	1683400	Davis was listed as questionable on the weekly injury report.	Davis was listed as questionable on the weekly injury report.	79997434	1473973215124	1473973215220	 	32
154974	1683400	Davis was listed as questionable on the weekly injury report.	Davis was listed as questionable on the weekly injury report.	79997441	1473973215252	1473973215372	o	79
154974	1683400	Davis was listed as questionable on the weekly injury report.	Davis was listed as questionable on the weekly injury report.	79997448	1473973215364	1473973215468	n	78
154974	1683400	Davis was listed as questionable on the weekly injury report.	Davis was listed as questionable on the weekly injury report.	79997525	1473973215460	1473973215564	 	32
154974	1683400	Davis was listed as questionable on the weekly injury report.	Davis was listed as questionable on the weekly injury report.	79997531	1473973215612	1473973215684	t	84
154974	1683400	Davis was listed as questionable on the weekly injury report.	Davis was listed as questionable on the weekly injury report.	79997535	1473973215660	1473973215764	h	72
154974	1683400	Davis was listed as questionable on the weekly injury report.	Davis was listed as questionable on the weekly injury report.	79997541	1473973215732	1473973215876	e	69
154974	1683400	Davis was listed as questionable on the weekly injury report.	Davis was listed as questionable on the weekly injury report.	79997545	1473973215868	1473973215964	 	32
154974	1683400	Davis was listed as questionable on the weekly injury report.	Davis was listed as questionable on the weekly injury report.	79997549	1473973216468	1473973216596	w	87
154974	1683400	Davis was listed as questionable on the weekly injury report.	Davis was listed as questionable on the weekly injury report.	79997703	1473973216676	1473973216780	e	69
154974	1683400	Davis was listed as questionable on the weekly injury report.	Davis was listed as questionable on the weekly injury report.	79997706	1473973216828	1473973216924	e	69
154974	1683400	Davis was listed as questionable on the weekly injury report.	Davis was listed as questionable on the weekly injury report.	79997708	1473973216932	1473973217052	k	75
154974	1683400	Davis was listed as questionable on the weekly injury report.	Davis was listed as questionable on the weekly injury report.	79997711	1473973217972	1473973218068	BKSP	8
154974	1683400	Davis was listed as questionable on the weekly injury report.	Davis was listed as questionable on the weekly injury report.	79997714	1473973218724	1473973218812	k	75
154974	1683400	Davis was listed as questionable on the weekly injury report.	Davis was listed as questionable on the weekly injury report.	79997721	1473973218900	1473973219004	.	190
154974	1683400	Davis was listed as questionable on the weekly injury report.	Davis was listed as questionable on the weekly injury report.	79997921	1473973219124	1473973219212	y	89
154974	1683400	Davis was listed as questionable on the weekly injury report.	Davis was listed as questionable on the weekly injury report.	79997925	1473973219548	1473973219636	BKSP	8
154974	1683400	Davis was listed as questionable on the weekly injury report.	Davis was listed as questionable on the weekly injury report.	79997929	1473973219708	1473973219796	BKSP	8
154974	1683400	Davis was listed as questionable on the weekly injury report.	Davis was listed as questionable on the weekly injury report.	79997933	1473973220268	1473973220388	l	76
154974	1683400	Davis was listed as questionable on the weekly injury report.	Davis was listed as questionable on the weekly injury report.	79997937	1473973220580	1473973220700	u	85
154974	1683400	Davis was listed as questionable on the weekly injury report.	Davis was listed as questionable on the weekly injury report.	79997940	1473973221116	1473973221236	BKSP	8
154974	1683400	Davis was listed as questionable on the weekly injury report.	Davis was listed as questionable on the weekly injury report.	79997944	1473973221372	1473973221452	y	89
154974	1683400	Davis was listed as questionable on the weekly injury report.	Davis was listed as questionable on the weekly injury report.	79997947	1473973221620	1473973221740	 	32
154974	1683400	Davis was listed as questionable on the weekly injury report.	Davis was listed as questionable on the weekly injury report.	79998018	1473973221868	1473973221956	i	73
154974	1683400	Davis was listed as questionable on the weekly injury report.	Davis was listed as questionable on the weekly injury report.	79998021	1473973222012	1473973222116	n	78
154974	1683400	Davis was listed as questionable on the weekly injury report.	Davis was listed as questionable on the weekly injury report.	79998025	1473973222700	1473973222796	j	74
154974	1683400	Davis was listed as questionable on the weekly injury report.	Davis was listed as questionable on the weekly injury report.	79998028	1473973222892	1473973222956	u	85
154974	1683400	Davis was listed as questionable on the weekly injury report.	Davis was listed as questionable on the weekly injury report.	79998031	1473973223012	1473973223116	r	82
154974	1683400	Davis was listed as questionable on the weekly injury report.	Davis was listed as questionable on the weekly injury report.	79998076	1473973223132	1473973223220	y	89
154974	1683400	Davis was listed as questionable on the weekly injury report.	Davis was listed as questionable on the weekly injury report.	79998078	1473973223452	1473973223548	 	32
154974	1683400	Davis was listed as questionable on the weekly injury report.	Davis was listed as questionable on the weekly injury report.	79998082	1473973223812	1473973223916	r	82
154974	1683400	Davis was listed as questionable on the weekly injury report.	Davis was listed as questionable on the weekly injury report.	79998086	1473973223948	1473973224060	e	69
154974	1683400	Davis was listed as questionable on the weekly injury report.	Davis was listed as questionable on the weekly injury report.	79998090	1473973224148	1473973224252	p	80
154974	1683400	Davis was listed as questionable on the weekly injury report.	Davis was listed as questionable on the weekly injury report.	79998163	1473973224300	1473973224396	o	79
154974	1683400	Davis was listed as questionable on the weekly injury report.	Davis was listed as questionable on the weekly injury report.	79998167	1473973224612	1473973224708	r	82
154974	1683400	Davis was listed as questionable on the weekly injury report.	Davis was listed as questionable on the weekly injury report.	79998172	1473973224804	1473973224868	t	84
154974	1683400	Davis was listed as questionable on the weekly injury report.	Davis was listed as questionable on the weekly injury report.	79998176	1473973225044	1473973225140	.	190
154974	1683476	I have been in contact with him, and he is familiar with the issues.	I have been in contact with him, and he is familiar with the issues.	79998547	1473973227220	1473973227404	SHIFT	16
154974	1683476	I have been in contact with him, and he is familiar with the issues.	I have been in contact with him, and he is familiar with the issues.	79998555	1473973227548	1473973227652	 	32
154974	1683476	I have been in contact with him, and he is familiar with the issues.	I have been in contact with him, and he is familiar with the issues.	79998561	1473973228188	1473973228308	BKSP	8
154974	1683476	I have been in contact with him, and he is familiar with the issues.	I have been in contact with him, and he is familiar with the issues.	79998568	1473973228380	1473973228476	BKSP	8
154974	1683476	I have been in contact with him, and he is familiar with the issues.	I have been in contact with him, and he is familiar with the issues.	79998587	1473973228780	1473973229132	SHIFT	16
154974	1683476	I have been in contact with him, and he is familiar with the issues.	I have been in contact with him, and he is familiar with the issues.	79998576	1473973228948	1473973229044	I	73
154974	1683476	I have been in contact with him, and he is familiar with the issues.	I have been in contact with him, and he is familiar with the issues.	79998593	1473973229348	1473973229452	 	32
154974	1683476	I have been in contact with him, and he is familiar with the issues.	I have been in contact with him, and he is familiar with the issues.	79998599	1473973229532	1473973229620	h	72
154974	1683476	I have been in contact with him, and he is familiar with the issues.	I have been in contact with him, and he is familiar with the issues.	79998604	1473973229644	1473973229780	a	65
154974	1683476	I have been in contact with him, and he is familiar with the issues.	I have been in contact with him, and he is familiar with the issues.	79998627	1473973229868	1473973229980	v	86
154974	1683476	I have been in contact with him, and he is familiar with the issues.	I have been in contact with him, and he is familiar with the issues.	79998630	1473973230052	1473973230156	e	69
154974	1683476	I have been in contact with him, and he is familiar with the issues.	I have been in contact with him, and he is familiar with the issues.	79998640	1473973230188	1473973230292	 	32
154974	1683476	I have been in contact with him, and he is familiar with the issues.	I have been in contact with him, and he is familiar with the issues.	79998646	1473973230316	1473973230404	b	66
154974	1683476	I have been in contact with him, and he is familiar with the issues.	I have been in contact with him, and he is familiar with the issues.	79998654	1473973230428	1473973230692	e	69
154974	1683476	I have been in contact with him, and he is familiar with the issues.	I have been in contact with him, and he is familiar with the issues.	79998757	1473973230772	1473973230884	n	78
154974	1683476	I have been in contact with him, and he is familiar with the issues.	I have been in contact with him, and he is familiar with the issues.	79998789	1473973230924	1473973232060	 	32
154974	1683476	I have been in contact with him, and he is familiar with the issues.	I have been in contact with him, and he is familiar with the issues.	79998764	1473973231364	1473973231460	BKSP	8
154974	1683476	I have been in contact with him, and he is familiar with the issues.	I have been in contact with him, and he is familiar with the issues.	79998770	1473973231532	1473973231628	BKSP	8
154974	1683476	I have been in contact with him, and he is familiar with the issues.	I have been in contact with him, and he is familiar with the issues.	79998779	1473973231684	1473973231788	e	69
154974	1683476	I have been in contact with him, and he is familiar with the issues.	I have been in contact with him, and he is familiar with the issues.	79998785	1473973231812	1473973231892	n	78
154974	1683476	I have been in contact with him, and he is familiar with the issues.	I have been in contact with him, and he is familiar with the issues.	79998794	1473973232172	1473973232268	i	73
154974	1683476	I have been in contact with him, and he is familiar with the issues.	I have been in contact with him, and he is familiar with the issues.	79998842	1473973232300	1473973232404	n	78
154974	1683476	I have been in contact with him, and he is familiar with the issues.	I have been in contact with him, and he is familiar with the issues.	79998845	1473973232428	1473973232532	 	32
154974	1683476	I have been in contact with him, and he is familiar with the issues.	I have been in contact with him, and he is familiar with the issues.	79998848	1473973232996	1473973233092	c	67
154974	1683476	I have been in contact with him, and he is familiar with the issues.	I have been in contact with him, and he is familiar with the issues.	79998853	1473973233084	1473973233212	o	79
154974	1683476	I have been in contact with him, and he is familiar with the issues.	I have been in contact with him, and he is familiar with the issues.	79998957	1473973233204	1473973233312	n	78
154974	1683476	I have been in contact with him, and he is familiar with the issues.	I have been in contact with him, and he is familiar with the issues.	79998966	1473973233572	1473973233660	t	84
154974	1683476	I have been in contact with him, and he is familiar with the issues.	I have been in contact with him, and he is familiar with the issues.	79998972	1473973233876	1473973234036	a	65
154974	1683476	I have been in contact with him, and he is familiar with the issues.	I have been in contact with him, and he is familiar with the issues.	79998979	1473973234100	1473973234196	c	67
154974	1683476	I have been in contact with him, and he is familiar with the issues.	I have been in contact with him, and he is familiar with the issues.	79998983	1473973234300	1473973234412	t	84
154974	1683476	I have been in contact with him, and he is familiar with the issues.	I have been in contact with him, and he is familiar with the issues.	79998985	1473973234484	1473973234580	 	32
154974	1683476	I have been in contact with him, and he is familiar with the issues.	I have been in contact with him, and he is familiar with the issues.	79999126	1473973234708	1473973234820	w	87
154974	1683476	I have been in contact with him, and he is familiar with the issues.	I have been in contact with him, and he is familiar with the issues.	79999129	1473973234860	1473973234972	h	72
154974	1683476	I have been in contact with him, and he is familiar with the issues.	I have been in contact with him, and he is familiar with the issues.	79999131	1473973235828	1473973235932	BKSP	8
154974	1683476	I have been in contact with him, and he is familiar with the issues.	I have been in contact with him, and he is familiar with the issues.	79999132	1473973236140	1473973236196	i	73
154974	1683476	I have been in contact with him, and he is familiar with the issues.	I have been in contact with him, and he is familiar with the issues.	79999133	1473973236468	1473973236556	t	84
154974	1683476	I have been in contact with him, and he is familiar with the issues.	I have been in contact with him, and he is familiar with the issues.	79999134	1473973236564	1473973236652	h	72
154974	1683476	I have been in contact with him, and he is familiar with the issues.	I have been in contact with him, and he is familiar with the issues.	79999215	1473973237100	1473973237212	 	32
154974	1683476	I have been in contact with him, and he is familiar with the issues.	I have been in contact with him, and he is familiar with the issues.	79999219	1473973237268	1473973237364	h	72
154974	1683476	I have been in contact with him, and he is familiar with the issues.	I have been in contact with him, and he is familiar with the issues.	79999226	1473973237428	1473973237524	i	73
154974	1683476	I have been in contact with him, and he is familiar with the issues.	I have been in contact with him, and he is familiar with the issues.	79999232	1473973237596	1473973237676	m	77
154974	1683476	I have been in contact with him, and he is familiar with the issues.	I have been in contact with him, and he is familiar with the issues.	79999237	1473973237900	1473973237996	.	190
154974	1683476	I have been in contact with him, and he is familiar with the issues.	I have been in contact with him, and he is familiar with the issues.	79999322	1473973238532	1473973238596	BKSP	8
154974	1683476	I have been in contact with him, and he is familiar with the issues.	I have been in contact with him, and he is familiar with the issues.	79999328	1473973238740	1473973238844	,	188
154974	1683476	I have been in contact with him, and he is familiar with the issues.	I have been in contact with him, and he is familiar with the issues.	79999331	1473973239012	1473973239116	 	32
154974	1683476	I have been in contact with him, and he is familiar with the issues.	I have been in contact with him, and he is familiar with the issues.	79999337	1473973239292	1473973239388	a	65
154974	1683476	I have been in contact with him, and he is familiar with the issues.	I have been in contact with him, and he is familiar with the issues.	79999345	1473973239364	1473973239444	n	78
154974	1683476	I have been in contact with him, and he is familiar with the issues.	I have been in contact with him, and he is familiar with the issues.	79999354	1473973239476	1473973239580	d	68
154974	1683476	I have been in contact with him, and he is familiar with the issues.	I have been in contact with him, and he is familiar with the issues.	79999389	1473973239604	1473973239692	 	32
154974	1683476	I have been in contact with him, and he is familiar with the issues.	I have been in contact with him, and he is familiar with the issues.	79999392	1473973239868	1473973239956	h	72
154974	1683476	I have been in contact with him, and he is familiar with the issues.	I have been in contact with him, and he is familiar with the issues.	79999393	1473973240004	1473973240124	e	69
154974	1683476	I have been in contact with him, and he is familiar with the issues.	I have been in contact with him, and he is familiar with the issues.	79999394	1473973240140	1473973240268	 	32
154974	1683476	I have been in contact with him, and he is familiar with the issues.	I have been in contact with him, and he is familiar with the issues.	79999395	1473973240316	1473973240412	i	73
154974	1683476	I have been in contact with him, and he is familiar with the issues.	I have been in contact with him, and he is familiar with the issues.	79999452	1473973240428	1473973240588	s	83
154974	1683476	I have been in contact with him, and he is familiar with the issues.	I have been in contact with him, and he is familiar with the issues.	79999461	1473973240580	1473973240692	 	32
154974	1683476	I have been in contact with him, and he is familiar with the issues.	I have been in contact with him, and he is familiar with the issues.	79999466	1473973240964	1473973241084	f	70
154974	1683476	I have been in contact with him, and he is familiar with the issues.	I have been in contact with him, and he is familiar with the issues.	79999473	1473973241108	1473973241212	a	65
154974	1683476	I have been in contact with him, and he is familiar with the issues.	I have been in contact with him, and he is familiar with the issues.	79999477	1473973241228	1473973241324	m	77
154974	1683476	I have been in contact with him, and he is familiar with the issues.	I have been in contact with him, and he is familiar with the issues.	79999578	1473973241372	1473973241452	i	73
154974	1683476	I have been in contact with him, and he is familiar with the issues.	I have been in contact with him, and he is familiar with the issues.	79999581	1473973241540	1473973241628	l	76
154974	1683476	I have been in contact with him, and he is familiar with the issues.	I have been in contact with him, and he is familiar with the issues.	79999586	1473973241724	1473973241788	i	73
154974	1683476	I have been in contact with him, and he is familiar with the issues.	I have been in contact with him, and he is familiar with the issues.	79999593	1473973242012	1473973242100	r	82
154974	1683476	I have been in contact with him, and he is familiar with the issues.	I have been in contact with him, and he is familiar with the issues.	79999598	1473973242468	1473973242548	BKSP	8
154974	1683476	I have been in contact with him, and he is familiar with the issues.	I have been in contact with him, and he is familiar with the issues.	79999602	1473973242580	1473973242708	a	65
154974	1683476	I have been in contact with him, and he is familiar with the issues.	I have been in contact with him, and he is familiar with the issues.	79999672	1473973242724	1473973242820	r	82
154974	1683476	I have been in contact with him, and he is familiar with the issues.	I have been in contact with him, and he is familiar with the issues.	79999680	1473973242884	1473973243004	 	32
154974	1683476	I have been in contact with him, and he is familiar with the issues.	I have been in contact with him, and he is familiar with the issues.	79999690	1473973243148	1473973243268	w	87
154974	1683476	I have been in contact with him, and he is familiar with the issues.	I have been in contact with him, and he is familiar with the issues.	79999697	1473973243524	1473973243628	i	73
154974	1683476	I have been in contact with him, and he is familiar with the issues.	I have been in contact with him, and he is familiar with the issues.	79999706	1473973243668	1473973243788	t	84
154974	1683476	I have been in contact with him, and he is familiar with the issues.	I have been in contact with him, and he is familiar with the issues.	79999785	1473973243772	1473973243868	h	72
154974	1683476	I have been in contact with him, and he is familiar with the issues.	I have been in contact with him, and he is familiar with the issues.	79999788	1473973243908	1473973244012	 	32
154974	1683476	I have been in contact with him, and he is familiar with the issues.	I have been in contact with him, and he is familiar with the issues.	79999790	1473973244228	1473973244332	t	84
154974	1683476	I have been in contact with him, and he is familiar with the issues.	I have been in contact with him, and he is familiar with the issues.	79999792	1473973244348	1473973244436	h	72
154974	1683476	I have been in contact with him, and he is familiar with the issues.	I have been in contact with him, and he is familiar with the issues.	79999796	1473973244452	1473973244588	e	69
154974	1683476	I have been in contact with him, and he is familiar with the issues.	I have been in contact with him, and he is familiar with the issues.	79999842	1473973244580	1473973244668	 	32
154974	1683476	I have been in contact with him, and he is familiar with the issues.	I have been in contact with him, and he is familiar with the issues.	79999846	1473973244748	1473973244852	i	73
154974	1683476	I have been in contact with him, and he is familiar with the issues.	I have been in contact with him, and he is familiar with the issues.	79999852	1473973244876	1473973245020	s	83
154974	1683476	I have been in contact with him, and he is familiar with the issues.	I have been in contact with him, and he is familiar with the issues.	79999854	1473973245092	1473973245204	s	83
154974	1683476	I have been in contact with him, and he is familiar with the issues.	I have been in contact with him, and he is familiar with the issues.	79999861	1473973245260	1473973245332	u	85
154974	1683476	I have been in contact with him, and he is familiar with the issues.	I have been in contact with him, and he is familiar with the issues.	79999867	1473973245444	1473973245556	e	69
154974	1683476	I have been in contact with him, and he is familiar with the issues.	I have been in contact with him, and he is familiar with the issues.	79999922	1473973245676	1473973245804	s	83
154974	1683476	I have been in contact with him, and he is familiar with the issues.	I have been in contact with him, and he is familiar with the issues.	79999924	1473973245948	1473973246052	.	190
154974	1683511	He wrote numerous books on human development.	He wrote numerous books on human development.	80000214	1473973249748	1473973249956	SHIFT	16
154974	1683511	He wrote numerous books on human development.	He wrote numerous books on human development.	80000207	1473973249884	1473973249932	H	72
154974	1683511	He wrote numerous books on human development.	He wrote numerous books on human development.	80000222	1473973250036	1473973250148	e	69
154974	1683511	He wrote numerous books on human development.	He wrote numerous books on human development.	80000228	1473973250276	1473973250372	 	32
154974	1683511	He wrote numerous books on human development.	He wrote numerous books on human development.	80000234	1473973250516	1473973250604	w	87
154974	1683511	He wrote numerous books on human development.	He wrote numerous books on human development.	80000240	1473973250652	1473973250748	o	79
154974	1683511	He wrote numerous books on human development.	He wrote numerous books on human development.	80000345	1473973251156	1473973251236	BKSP	8
154974	1683511	He wrote numerous books on human development.	He wrote numerous books on human development.	80000350	1473973251308	1473973251388	r	82
154974	1683511	He wrote numerous books on human development.	He wrote numerous books on human development.	80000354	1473973251380	1473973251484	o	79
154974	1683511	He wrote numerous books on human development.	He wrote numerous books on human development.	80000356	1473973251516	1473973251612	t	84
154974	1683511	He wrote numerous books on human development.	He wrote numerous books on human development.	80000359	1473973251932	1473973252092	e	69
154974	1683511	He wrote numerous books on human development.	He wrote numerous books on human development.	80000362	1473973252140	1473973252260	 	32
154974	1683511	He wrote numerous books on human development.	He wrote numerous books on human development.	80000468	1473973252300	1473973252388	n	78
154974	1683511	He wrote numerous books on human development.	He wrote numerous books on human development.	80000471	1473973252484	1473973252532	y	89
154974	1683511	He wrote numerous books on human development.	He wrote numerous books on human development.	80000476	1473973253036	1473973253124	BKSP	8
154974	1683511	He wrote numerous books on human development.	He wrote numerous books on human development.	80000485	1473973253572	1473973253652	u	85
154974	1683511	He wrote numerous books on human development.	He wrote numerous books on human development.	80000492	1473973253756	1473973253852	m	77
154974	1683511	He wrote numerous books on human development.	He wrote numerous books on human development.	80000501	1473973253940	1473973254052	e	69
154974	1683511	He wrote numerous books on human development.	He wrote numerous books on human development.	80000573	1473973254060	1473973254156	r	82
154974	1683511	He wrote numerous books on human development.	He wrote numerous books on human development.	80000576	1473973254444	1473973254604	o	79
154974	1683511	He wrote numerous books on human development.	He wrote numerous books on human development.	80000578	1473973254572	1473973254660	u	85
154974	1683511	He wrote numerous books on human development.	He wrote numerous books on human development.	80000581	1473973254884	1473973255004	s	83
154974	1683511	He wrote numerous books on human development.	He wrote numerous books on human development.	80000585	1473973255292	1473973255388	 	32
154974	1683511	He wrote numerous books on human development.	He wrote numerous books on human development.	80000630	1473973255668	1473973255748	b	66
154974	1683511	He wrote numerous books on human development.	He wrote numerous books on human development.	80000632	1473973255828	1473973255924	o	79
154974	1683511	He wrote numerous books on human development.	He wrote numerous books on human development.	80000637	1473973255988	1473973256084	o	79
154974	1683511	He wrote numerous books on human development.	He wrote numerous books on human development.	80000642	1473973256164	1473973256252	k	75
154974	1683511	He wrote numerous books on human development.	He wrote numerous books on human development.	80000646	1473973256332	1473973256468	s	83
154974	1683511	He wrote numerous books on human development.	He wrote numerous books on human development.	80000703	1473973256484	1473973256556	 	32
154974	1683511	He wrote numerous books on human development.	He wrote numerous books on human development.	80000708	1473973256604	1473973256708	o	79
154974	1683511	He wrote numerous books on human development.	He wrote numerous books on human development.	80000712	1473973256756	1473973256852	n	78
154974	1683511	He wrote numerous books on human development.	He wrote numerous books on human development.	80000715	1473973256892	1473973256996	 	32
154974	1683511	He wrote numerous books on human development.	He wrote numerous books on human development.	80000719	1473973257356	1473973257436	h	72
154974	1683511	He wrote numerous books on human development.	He wrote numerous books on human development.	80000810	1473973257852	1473973257988	u	85
154974	1683511	He wrote numerous books on human development.	He wrote numerous books on human development.	80000811	1473973258124	1473973258236	m	77
154974	1683511	He wrote numerous books on human development.	He wrote numerous books on human development.	80000815	1473973258404	1473973258492	n	78
154974	1683511	He wrote numerous books on human development.	He wrote numerous books on human development.	80000820	1473973258740	1473973258836	BKSP	8
154974	1683511	He wrote numerous books on human development.	He wrote numerous books on human development.	80000825	1473973258852	1473973258956	a	65
154974	1683511	He wrote numerous books on human development.	He wrote numerous books on human development.	80000833	1473973258964	1473973259052	n	78
154974	1683511	He wrote numerous books on human development.	He wrote numerous books on human development.	80000923	1473973259140	1473973259236	 	32
154974	1683511	He wrote numerous books on human development.	He wrote numerous books on human development.	80000930	1473973259412	1473973259492	d	68
154974	1683511	He wrote numerous books on human development.	He wrote numerous books on human development.	80000935	1473973259596	1473973259676	e	69
154974	1683511	He wrote numerous books on human development.	He wrote numerous books on human development.	80000942	1473973259868	1473973260004	v	86
154974	1683511	He wrote numerous books on human development.	He wrote numerous books on human development.	80000946	1473973260084	1473973260204	e	69
154974	1683511	He wrote numerous books on human development.	He wrote numerous books on human development.	80001142	1473973260412	1473973260556	p	80
154974	1683511	He wrote numerous books on human development.	He wrote numerous books on human development.	80001143	1473973260940	1473973261012	BKSP	8
154974	1683511	He wrote numerous books on human development.	He wrote numerous books on human development.	80001147	1473973261164	1473973261288	l	76
154974	1683511	He wrote numerous books on human development.	He wrote numerous books on human development.	80001152	1473973261564	1473973261724	p	80
154974	1683511	He wrote numerous books on human development.	He wrote numerous books on human development.	80001157	1473973262220	1473973262333	BKSP	8
154974	1683511	He wrote numerous books on human development.	He wrote numerous books on human development.	80001163	1473973262764	1473973262868	o	79
154974	1683511	He wrote numerous books on human development.	He wrote numerous books on human development.	80001169	1473973262996	1473973263108	p	80
154974	1683511	He wrote numerous books on human development.	He wrote numerous books on human development.	80001302	1473973263364	1473973263436	 	32
154974	1683511	He wrote numerous books on human development.	He wrote numerous books on human development.	80001305	1473973263844	1473973263940	BKSP	8
154974	1683511	He wrote numerous books on human development.	He wrote numerous books on human development.	80001308	1473973264036	1473973264124	BKSP	8
154974	1683511	He wrote numerous books on human development.	He wrote numerous books on human development.	80001312	1473973264756	1473973264876	p	80
154974	1683511	He wrote numerous books on human development.	He wrote numerous books on human development.	80001316	1473973265044	1473973265148	m	77
154974	1683511	He wrote numerous books on human development.	He wrote numerous books on human development.	80001318	1473973265196	1473973265300	e	69
154974	1683511	He wrote numerous books on human development.	He wrote numerous books on human development.	80001359	1473973265252	1473973265348	n	78
154974	1683511	He wrote numerous books on human development.	He wrote numerous books on human development.	80001363	1473973265436	1473973265548	t	84
154974	1683511	He wrote numerous books on human development.	He wrote numerous books on human development.	80001366	1473973265788	1473973265884	.	190
