PARTICIPANT_ID	TEST_SECTION_ID	SENTENCE	USER_INPUT	KEYSTROKE_ID	PRESS_TIME	RELEASE_TIME	LETTER	KEYCODE
155764	1692420	I left a message.	I left a message.	80427846	1473982354132	1473982354267	CAPS_LOCK	20
155764	1692420	I left a message.	I left a message.	80427849	1473982354255	1473982354387	I	73
155764	1692420	I left a message.	I left a message.	80427851	1473982354356	1473982354508	CAPS_LOCK	20
155764	1692420	I left a message.	I left a message.	80427853	1473982354421	1473982354572	 	32
155764	1692420	I left a message.	I left a message.	80427856	1473982354700	1473982354784	l	76
155764	1692420	I left a message.	I left a message.	80427860	1473982354872	1473982354972	e	69
155764	1692420	I left a message.	I left a message.	80427863	1473982355072	1473982355118	f	70
155764	1692420	I left a message.	I left a message.	80427892	1473982355313	1473982355425	t	84
155764	1692420	I left a message.	I left a message.	80427893	1473982355440	1473982355565	 	32
155764	1692420	I left a message.	I left a message.	80427896	1473982355681	1473982355835	a	65
155764	1692420	I left a message.	I left a message.	80427898	1473982355835	1473982355973	 	32
155764	1692420	I left a message.	I left a message.	80427902	1473982356010	1473982356130	m	77
155764	1692420	I left a message.	I left a message.	80427940	1473982356153	1473982356256	e	69
155764	1692420	I left a message.	I left a message.	80427942	1473982356557	1473982356649	s	83
155764	1692420	I left a message.	I left a message.	80427944	1473982356721	1473982356829	s	83
155764	1692420	I left a message.	I left a message.	80427947	1473982356885	1473982357023	a	65
155764	1692420	I left a message.	I left a message.	80427951	1473982357134	1473982357219	g	71
155764	1692420	I left a message.	I left a message.	80427971	1473982357295	1473982357396	e	69
155764	1692420	I left a message.	I left a message.	80427972	1473982357627	1473982357725	.	190
155764	1692429	This is a major setback for the rookie.	This is a major setback for the rookie.	80428085	1473982359937	1473982360049	CAPS_LOCK	20
155764	1692429	This is a major setback for the rookie.	This is a major setback for the rookie.	80428089	1473982360049	1473982360131	T	84
155764	1692429	This is a major setback for the rookie.	This is a major setback for the rookie.	80428097	1473982360146	1473982360275	CAPS_LOCK	20
155764	1692429	This is a major setback for the rookie.	This is a major setback for the rookie.	80428102	1473982360291	1473982360438	h	72
155764	1692429	This is a major setback for the rookie.	This is a major setback for the rookie.	80428108	1473982360475	1473982360607	i	73
155764	1692429	This is a major setback for the rookie.	This is a major setback for the rookie.	80428115	1473982360607	1473982360707	s	83
155764	1692429	This is a major setback for the rookie.	This is a major setback for the rookie.	80428119	1473982360738	1473982360861	 	32
155764	1692429	This is a major setback for the rookie.	This is a major setback for the rookie.	80428196	1473982360847	1473982360932	i	73
155764	1692429	This is a major setback for the rookie.	This is a major setback for the rookie.	80428199	1473982360968	1473982361055	s	83
155764	1692429	This is a major setback for the rookie.	This is a major setback for the rookie.	80428203	1473982361076	1473982361192	 	32
155764	1692429	This is a major setback for the rookie.	This is a major setback for the rookie.	80428205	1473982361239	1473982361380	a	65
155764	1692429	This is a major setback for the rookie.	This is a major setback for the rookie.	80428208	1473982361623	1473982361754	m	77
155764	1692429	This is a major setback for the rookie.	This is a major setback for the rookie.	80428211	1473982362081	1473982362197	BKSP	8
155764	1692429	This is a major setback for the rookie.	This is a major setback for the rookie.	80428216	1473982362300	1473982362447	v	86
155764	1692429	This is a major setback for the rookie.	This is a major setback for the rookie.	80428234	1473982362548	1473982362637	m	77
155764	1692429	This is a major setback for the rookie.	This is a major setback for the rookie.	80428238	1473982362653	1473982362792	a	65
155764	1692429	This is a major setback for the rookie.	This is a major setback for the rookie.	80428241	1473982362785	1473982362964	j	74
155764	1692429	This is a major setback for the rookie.	This is a major setback for the rookie.	80428245	1473982362985	1473982363141	o	79
155764	1692429	This is a major setback for the rookie.	This is a major setback for the rookie.	80428351	1473982363107	1473982363218	r	82
155764	1692429	This is a major setback for the rookie.	This is a major setback for the rookie.	80428353	1473982363302	1473982363391	 	32
155764	1692429	This is a major setback for the rookie.	This is a major setback for the rookie.	80428357	1473982363718	1473982363807	BKSP	8
155764	1692429	This is a major setback for the rookie.	This is a major setback for the rookie.	80428359	1473982363908	1473982363963	BKSP	8
155764	1692429	This is a major setback for the rookie.	This is a major setback for the rookie.	80428360	1473982364063	1473982364115	BKSP	8
155764	1692429	This is a major setback for the rookie.	This is a major setback for the rookie.	80428361	1473982364203	1473982364258	BKSP	8
155764	1692429	This is a major setback for the rookie.	This is a major setback for the rookie.	80428362	1473982364351	1473982364410	BKSP	8
155764	1692429	This is a major setback for the rookie.	This is a major setback for the rookie.	80428364	1473982364505	1473982364551	BKSP	8
155764	1692429	This is a major setback for the rookie.	This is a major setback for the rookie.	80428366	1473982364654	1473982364716	BKSP	8
155764	1692429	This is a major setback for the rookie.	This is a major setback for the rookie.	80428368	1473982364872	1473982364995	 	32
155764	1692429	This is a major setback for the rookie.	This is a major setback for the rookie.	80428372	1473982365126	1473982365211	m	77
155764	1692429	This is a major setback for the rookie.	This is a major setback for the rookie.	80428376	1473982365258	1473982365370	a	65
155764	1692429	This is a major setback for the rookie.	This is a major setback for the rookie.	80428379	1473982365727	1473982365827	j	74
155764	1692429	This is a major setback for the rookie.	This is a major setback for the rookie.	80428422	1473982365927	1473982366043	o	79
155764	1692429	This is a major setback for the rookie.	This is a major setback for the rookie.	80428423	1473982366112	1473982366228	r	82
155764	1692429	This is a major setback for the rookie.	This is a major setback for the rookie.	80428424	1473982366296	1473982366365	 	32
155764	1692429	This is a major setback for the rookie.	This is a major setback for the rookie.	80428426	1473982367033	1473982367120	s	83
155764	1692429	This is a major setback for the rookie.	This is a major setback for the rookie.	80428428	1473982367220	1473982367368	e	69
155764	1692429	This is a major setback for the rookie.	This is a major setback for the rookie.	80428484	1473982367421	1473982367505	t	84
155764	1692429	This is a major setback for the rookie.	This is a major setback for the rookie.	80428487	1473982367668	1473982367745	b	66
155764	1692429	This is a major setback for the rookie.	This is a major setback for the rookie.	80428490	1473982367794	1473982367897	a	65
155764	1692429	This is a major setback for the rookie.	This is a major setback for the rookie.	80428493	1473982367953	1473982368046	c	67
155764	1692429	This is a major setback for the rookie.	This is a major setback for the rookie.	80428494	1473982368184	1473982368322	k	75
155764	1692429	This is a major setback for the rookie.	This is a major setback for the rookie.	80428520	1473982368367	1473982368485	 	32
155764	1692429	This is a major setback for the rookie.	This is a major setback for the rookie.	80428524	1473982368908	1473982369002	f	70
155764	1692429	This is a major setback for the rookie.	This is a major setback for the rookie.	80428529	1473982369016	1473982369139	o	79
155764	1692429	This is a major setback for the rookie.	This is a major setback for the rookie.	80428534	1473982369139	1473982369250	r	82
155764	1692429	This is a major setback for the rookie.	This is a major setback for the rookie.	80428555	1473982369228	1473982369399	 	32
155764	1692429	This is a major setback for the rookie.	This is a major setback for the rookie.	80428558	1473982369376	1473982369491	t	84
155764	1692429	This is a major setback for the rookie.	This is a major setback for the rookie.	80428561	1473982369465	1473982369596	h	72
155764	1692429	This is a major setback for the rookie.	This is a major setback for the rookie.	80428565	1473982369596	1473982369762	e	69
155764	1692429	This is a major setback for the rookie.	This is a major setback for the rookie.	80428568	1473982369657	1473982369794	 	32
155764	1692429	This is a major setback for the rookie.	This is a major setback for the rookie.	80428572	1473982370012	1473982370134	r	82
155764	1692429	This is a major setback for the rookie.	This is a major setback for the rookie.	80428654	1473982370181	1473982370238	o	79
155764	1692429	This is a major setback for the rookie.	This is a major setback for the rookie.	80428656	1473982370336	1473982370420	o	79
155764	1692429	This is a major setback for the rookie.	This is a major setback for the rookie.	80428658	1473982370537	1473982370621	k	75
155764	1692429	This is a major setback for the rookie.	This is a major setback for the rookie.	80428661	1473982370903	1473982370981	i	73
155764	1692429	This is a major setback for the rookie.	This is a major setback for the rookie.	80428663	1473982371645	1473982371758	e	69
155764	1692429	This is a major setback for the rookie.	This is a major setback for the rookie.	80428672	1473982371842	1473982371900	.	190
155764	1692441	Has your 4th quarter changed?	Has your 4th quarter changed?	80428785	1473982373770	1473982373906	CAPS_LOCK	20
155764	1692441	Has your 4th quarter changed?	Has your 4th quarter changed?	80428789	1473982373929	1473982374019	H	72
155764	1692441	Has your 4th quarter changed?	Has your 4th quarter changed?	80428793	1473982374022	1473982374140	CAPS_LOCK	20
155764	1692441	Has your 4th quarter changed?	Has your 4th quarter changed?	80428800	1473982374273	1473982374405	a	65
155764	1692441	Has your 4th quarter changed?	Has your 4th quarter changed?	80428803	1473982374438	1473982374545	s	83
155764	1692441	Has your 4th quarter changed?	Has your 4th quarter changed?	80428807	1473982374608	1473982374701	 	32
155764	1692441	Has your 4th quarter changed?	Has your 4th quarter changed?	80428811	1473982374792	1473982374908	y	89
155764	1692441	Has your 4th quarter changed?	Has your 4th quarter changed?	80428856	1473982375061	1473982375213	o	79
155764	1692441	Has your 4th quarter changed?	Has your 4th quarter changed?	80428858	1473982375229	1473982375362	u	85
155764	1692441	Has your 4th quarter changed?	Has your 4th quarter changed?	80428859	1473982375362	1473982375462	r	82
155764	1692441	Has your 4th quarter changed?	Has your 4th quarter changed?	80428861	1473982375509	1473982375646	 	32
155764	1692441	Has your 4th quarter changed?	Has your 4th quarter changed?	80428862	1473982376214	1473982376313	4	52
155764	1692441	Has your 4th quarter changed?	Has your 4th quarter changed?	80428921	1473982376471	1473982376602	t	84
155764	1692441	Has your 4th quarter changed?	Has your 4th quarter changed?	80428924	1473982376602	1473982376754	h	72
155764	1692441	Has your 4th quarter changed?	Has your 4th quarter changed?	80428929	1473982376755	1473982376871	 	32
155764	1692441	Has your 4th quarter changed?	Has your 4th quarter changed?	80428934	1473982377606	1473982377691	q	81
155764	1692441	Has your 4th quarter changed?	Has your 4th quarter changed?	80428938	1473982377723	1473982377796	u	85
155764	1692441	Has your 4th quarter changed?	Has your 4th quarter changed?	80428974	1473982377856	1473982377992	a	65
155764	1692441	Has your 4th quarter changed?	Has your 4th quarter changed?	80428975	1473982378079	1473982378157	r	82
155764	1692441	Has your 4th quarter changed?	Has your 4th quarter changed?	80428976	1473982378265	1473982378332	t	84
155764	1692441	Has your 4th quarter changed?	Has your 4th quarter changed?	80428977	1473982378381	1473982378561	e	69
155764	1692441	Has your 4th quarter changed?	Has your 4th quarter changed?	80429001	1473982378544	1473982378671	r	82
155764	1692441	Has your 4th quarter changed?	Has your 4th quarter changed?	80429004	1473982378733	1473982378840	 	32
155764	1692441	Has your 4th quarter changed?	Has your 4th quarter changed?	80429007	1473982379021	1473982379141	c	67
155764	1692441	Has your 4th quarter changed?	Has your 4th quarter changed?	80429011	1473982379159	1473982379252	h	72
155764	1692441	Has your 4th quarter changed?	Has your 4th quarter changed?	80429016	1473982379287	1473982379409	a	65
155764	1692441	Has your 4th quarter changed?	Has your 4th quarter changed?	80429189	1473982379387	1473982379471	n	78
155764	1692441	Has your 4th quarter changed?	Has your 4th quarter changed?	80429192	1473982379620	1473982379705	g	71
155764	1692441	Has your 4th quarter changed?	Has your 4th quarter changed?	80429198	1473982379736	1473982379805	e	69
155764	1692441	Has your 4th quarter changed?	Has your 4th quarter changed?	80429203	1473982382696	1473982383022	SHIFT	16
155764	1692441	Has your 4th quarter changed?	Has your 4th quarter changed?	80429207	1473982382995	1473982383205	?	191
155764	1692456	Thanks for all you are doing.	Thanks for all you are doing.	80429362	1473982385608	1473982385708	CAPS_LOCK	20
155764	1692456	Thanks for all you are doing.	Thanks for all you are doing.	80429366	1473982385723	1473982385813	T	84
155764	1692456	Thanks for all you are doing.	Thanks for all you are doing.	80429368	1473982385846	1473982386001	CAPS_LOCK	20
155764	1692456	Thanks for all you are doing.	Thanks for all you are doing.	80429369	1473982385946	1473982386066	h	72
155764	1692456	Thanks for all you are doing.	Thanks for all you are doing.	80429370	1473982386036	1473982386162	a	65
155764	1692456	Thanks for all you are doing.	Thanks for all you are doing.	80429372	1473982386224	1473982386283	n	78
155764	1692456	Thanks for all you are doing.	Thanks for all you are doing.	80429375	1473982386410	1473982386529	k	75
155764	1692456	Thanks for all you are doing.	Thanks for all you are doing.	80429402	1473982386613	1473982386703	s	83
155764	1692456	Thanks for all you are doing.	Thanks for all you are doing.	80429404	1473982386744	1473982386879	 	32
155764	1692456	Thanks for all you are doing.	Thanks for all you are doing.	80429406	1473982386925	1473982387048	f	70
155764	1692456	Thanks for all you are doing.	Thanks for all you are doing.	80429408	1473982387111	1473982387219	o	79
155764	1692456	Thanks for all you are doing.	Thanks for all you are doing.	80429410	1473982387247	1473982387390	r	82
155764	1692456	Thanks for all you are doing.	Thanks for all you are doing.	80429461	1473982387364	1473982387486	 	32
155764	1692456	Thanks for all you are doing.	Thanks for all you are doing.	80429464	1473982387630	1473982387787	a	65
155764	1692456	Thanks for all you are doing.	Thanks for all you are doing.	80429469	1473982387752	1473982387799	l	76
155764	1692456	Thanks for all you are doing.	Thanks for all you are doing.	80429473	1473982387886	1473982387986	l	76
155764	1692456	Thanks for all you are doing.	Thanks for all you are doing.	80429480	1473982388034	1473982388155	 	32
155764	1692456	Thanks for all you are doing.	Thanks for all you are doing.	80429485	1473982388202	1473982388356	t	84
155764	1692456	Thanks for all you are doing.	Thanks for all you are doing.	80429519	1473982388356	1473982388471	o	79
155764	1692456	Thanks for all you are doing.	Thanks for all you are doing.	80429521	1473982388534	1473982388656	u	85
155764	1692456	Thanks for all you are doing.	Thanks for all you are doing.	80429526	1473982388934	1473982388996	=	187
155764	1692456	Thanks for all you are doing.	Thanks for all you are doing.	80429530	1473982389106	1473982389155	=	187
155764	1692456	Thanks for all you are doing.	Thanks for all you are doing.	80429533	1473982389254	1473982389313	=	187
155764	1692456	Thanks for all you are doing.	Thanks for all you are doing.	80429675	1473982389419	1473982389529	y	89
155764	1692456	Thanks for all you are doing.	Thanks for all you are doing.	80429680	1473982389796	1473982389880	BKSP	8
155764	1692456	Thanks for all you are doing.	Thanks for all you are doing.	80429684	1473982389967	1473982390032	BKSP	8
155764	1692456	Thanks for all you are doing.	Thanks for all you are doing.	80429687	1473982390112	1473982390381	BKSP	8
155764	1692456	Thanks for all you are doing.	Thanks for all you are doing.	80429690	1473982390482	1473982390539	BKSP	8
155764	1692456	Thanks for all you are doing.	Thanks for all you are doing.	80429692	1473982390615	1473982390684	BKSP	8
155764	1692456	Thanks for all you are doing.	Thanks for all you are doing.	80429694	1473982390773	1473982390828	BKSP	8
155764	1692456	Thanks for all you are doing.	Thanks for all you are doing.	80429696	1473982391075	1473982391175	BKSP	8
155764	1692456	Thanks for all you are doing.	Thanks for all you are doing.	80429699	1473982391626	1473982391756	y	89
155764	1692456	Thanks for all you are doing.	Thanks for all you are doing.	80429702	1473982391706	1473982391837	o	79
155764	1692456	Thanks for all you are doing.	Thanks for all you are doing.	80429706	1473982391874	1473982392038	u	85
155764	1692456	Thanks for all you are doing.	Thanks for all you are doing.	80429722	1473982392022	1473982392174	 	32
155764	1692456	Thanks for all you are doing.	Thanks for all you are doing.	80429725	1473982392353	1473982392476	a	65
155764	1692456	Thanks for all you are doing.	Thanks for all you are doing.	80429728	1473982392575	1473982392672	r	82
155764	1692456	Thanks for all you are doing.	Thanks for all you are doing.	80429732	1473982392691	1473982392809	e	69
155764	1692456	Thanks for all you are doing.	Thanks for all you are doing.	80429736	1473982392775	1473982392923	 	32
155764	1692456	Thanks for all you are doing.	Thanks for all you are doing.	80429810	1473982393075	1473982393177	o	79
155764	1692456	Thanks for all you are doing.	Thanks for all you are doing.	80429813	1473982393282	1473982393373	i	73
155764	1692456	Thanks for all you are doing.	Thanks for all you are doing.	80429816	1473982393458	1473982393579	n	78
155764	1692456	Thanks for all you are doing.	Thanks for all you are doing.	80429818	1473982393643	1473982393737	g	71
155764	1692456	Thanks for all you are doing.	Thanks for all you are doing.	80429820	1473982393936	1473982394034	.	190
155764	1692456	Thanks for all you are doing.	Thanks for all you are doing.	80429821	1473982394585	1473982394717	BKSP	8
155764	1692456	Thanks for all you are doing.	Thanks for all you are doing.	80429822	1473982394832	1473982394885	BKSP	8
155764	1692456	Thanks for all you are doing.	Thanks for all you are doing.	80429824	1473982394963	1473982395022	BKSP	8
155764	1692456	Thanks for all you are doing.	Thanks for all you are doing.	80429828	1473982395117	1473982395164	BKSP	8
155764	1692456	Thanks for all you are doing.	Thanks for all you are doing.	80429832	1473982395267	1473982395314	BKSP	8
155764	1692456	Thanks for all you are doing.	Thanks for all you are doing.	80429837	1473982395402	1473982395485	BKSP	8
155764	1692456	Thanks for all you are doing.	Thanks for all you are doing.	80429842	1473982395826	1473982395942	 	32
155764	1692456	Thanks for all you are doing.	Thanks for all you are doing.	80429857	1473982396010	1473982396124	d	68
155764	1692456	Thanks for all you are doing.	Thanks for all you are doing.	80429860	1473982396111	1473982396195	o	79
155764	1692456	Thanks for all you are doing.	Thanks for all you are doing.	80429862	1473982396295	1473982396370	i	73
155764	1692456	Thanks for all you are doing.	Thanks for all you are doing.	80429865	1473982396496	1473982396595	n	78
155764	1692456	Thanks for all you are doing.	Thanks for all you are doing.	80429871	1473982396658	1473982396778	g	71
155764	1692456	Thanks for all you are doing.	Thanks for all you are doing.	80429883	1473982396896	1473982396987	.	190
155764	1692471	I am almost speechless.	I am almost speechless.	80430007	1473982399205	1473982399306	CAPS_LOCK	20
155764	1692471	I am almost speechless.	I am almost speechless.	80430012	1473982399284	1473982399405	I	73
155764	1692471	I am almost speechless.	I am almost speechless.	80430018	1473982399406	1473982399606	CAPS_LOCK	20
155764	1692471	I am almost speechless.	I am almost speechless.	80430016	1473982399437	1473982399553	 	32
155764	1692471	I am almost speechless.	I am almost speechless.	80430023	1473982399606	1473982399752	a	65
155764	1692471	I am almost speechless.	I am almost speechless.	80430027	1473982399783	1473982399900	m	77
155764	1692471	I am almost speechless.	I am almost speechless.	80430031	1473982399922	1473982400037	 	32
155764	1692471	I am almost speechless.	I am almost speechless.	80430044	1473982400139	1473982400309	a	65
155764	1692471	I am almost speechless.	I am almost speechless.	80430046	1473982400309	1473982400389	l	76
155764	1692471	I am almost speechless.	I am almost speechless.	80430047	1473982400509	1473982400641	m	77
155764	1692471	I am almost speechless.	I am almost speechless.	80430049	1473982400708	1473982400810	o	79
155764	1692471	I am almost speechless.	I am almost speechless.	80430053	1473982400872	1473982400962	s	83
155764	1692471	I am almost speechless.	I am almost speechless.	80430096	1473982401471	1473982401571	t	84
155764	1692471	I am almost speechless.	I am almost speechless.	80430101	1473982401610	1473982401731	 	32
155764	1692471	I am almost speechless.	I am almost speechless.	80430105	1473982401762	1473982401878	s	83
155764	1692471	I am almost speechless.	I am almost speechless.	80430109	1473982401947	1473982402051	p	80
155764	1692471	I am almost speechless.	I am almost speechless.	80430113	1473982402098	1473982402194	e	69
155764	1692471	I am almost speechless.	I am almost speechless.	80430156	1473982402262	1473982402331	e	69
155764	1692471	I am almost speechless.	I am almost speechless.	80430160	1473982402514	1473982402632	c	67
155764	1692471	I am almost speechless.	I am almost speechless.	80430165	1473982402688	1473982402787	h	72
155764	1692471	I am almost speechless.	I am almost speechless.	80430167	1473982403116	1473982403218	l	76
155764	1692471	I am almost speechless.	I am almost speechless.	80430169	1473982403250	1473982403316	e	69
155764	1692471	I am almost speechless.	I am almost speechless.	80430217	1473982403448	1473982403532	s	83
155764	1692471	I am almost speechless.	I am almost speechless.	80430224	1473982403594	1473982403715	s	83
155764	1692471	I am almost speechless.	I am almost speechless.	80430226	1473982404096	1473982404223	.	190
155764	1692476	Until we can answer these questions, we cannot terminate anything.	Until we can answer these questions, we cannot terminate anything.	80430393	1473982406281	1473982406365	CAPS_LOCK	20
155764	1692476	Until we can answer these questions, we cannot terminate anything.	Until we can answer these questions, we cannot terminate anything.	80430396	1473982406365	1473982406450	U	85
155764	1692476	Until we can answer these questions, we cannot terminate anything.	Until we can answer these questions, we cannot terminate anything.	80430399	1473982406466	1473982406612	CAPS_LOCK	20
155764	1692476	Until we can answer these questions, we cannot terminate anything.	Until we can answer these questions, we cannot terminate anything.	80430403	1473982406566	1473982406713	n	78
155764	1692476	Until we can answer these questions, we cannot terminate anything.	Until we can answer these questions, we cannot terminate anything.	80430406	1473982406734	1473982406834	t	84
155764	1692476	Until we can answer these questions, we cannot terminate anything.	Until we can answer these questions, we cannot terminate anything.	80430410	1473982406913	1473982406994	i	73
155764	1692476	Until we can answer these questions, we cannot terminate anything.	Until we can answer these questions, we cannot terminate anything.	80430415	1473982407150	1473982407250	l	76
155764	1692476	Until we can answer these questions, we cannot terminate anything.	Until we can answer these questions, we cannot terminate anything.	80430442	1473982407308	1473982407434	 	32
155764	1692476	Until we can answer these questions, we cannot terminate anything.	Until we can answer these questions, we cannot terminate anything.	80430444	1473982407482	1473982407566	w	87
155764	1692476	Until we can answer these questions, we cannot terminate anything.	Until we can answer these questions, we cannot terminate anything.	80430446	1473982407682	1473982407818	e	69
155764	1692476	Until we can answer these questions, we cannot terminate anything.	Until we can answer these questions, we cannot terminate anything.	80430448	1473982407882	1473982407999	 	32
155764	1692476	Until we can answer these questions, we cannot terminate anything.	Until we can answer these questions, we cannot terminate anything.	80430451	1473982408134	1473982408235	c	67
155764	1692476	Until we can answer these questions, we cannot terminate anything.	Until we can answer these questions, we cannot terminate anything.	80430469	1473982408277	1473982408398	a	65
155764	1692476	Until we can answer these questions, we cannot terminate anything.	Until we can answer these questions, we cannot terminate anything.	80430470	1473982408398	1473982408552	n	78
155764	1692476	Until we can answer these questions, we cannot terminate anything.	Until we can answer these questions, we cannot terminate anything.	80430471	1473982408583	1473982408687	 	32
155764	1692476	Until we can answer these questions, we cannot terminate anything.	Until we can answer these questions, we cannot terminate anything.	80430473	1473982408691	1473982408858	a	65
155764	1692476	Until we can answer these questions, we cannot terminate anything.	Until we can answer these questions, we cannot terminate anything.	80430476	1473982408862	1473982408944	n	78
155764	1692476	Until we can answer these questions, we cannot terminate anything.	Until we can answer these questions, we cannot terminate anything.	80430536	1473982409059	1473982409154	s	83
155764	1692476	Until we can answer these questions, we cannot terminate anything.	Until we can answer these questions, we cannot terminate anything.	80430538	1473982409876	1473982410035	w	87
155764	1692476	Until we can answer these questions, we cannot terminate anything.	Until we can answer these questions, we cannot terminate anything.	80430540	1473982410023	1473982410128	e	69
155764	1692476	Until we can answer these questions, we cannot terminate anything.	Until we can answer these questions, we cannot terminate anything.	80430542	1473982410223	1473982410361	r	82
155764	1692476	Until we can answer these questions, we cannot terminate anything.	Until we can answer these questions, we cannot terminate anything.	80430544	1473982410408	1473982410497	 	32
155764	1692476	Until we can answer these questions, we cannot terminate anything.	Until we can answer these questions, we cannot terminate anything.	80430552	1473982410662	1473982410778	t	84
155764	1692476	Until we can answer these questions, we cannot terminate anything.	Until we can answer these questions, we cannot terminate anything.	80430555	1473982410793	1473982410895	h	72
155764	1692476	Until we can answer these questions, we cannot terminate anything.	Until we can answer these questions, we cannot terminate anything.	80430558	1473982410895	1473982411047	e	69
155764	1692476	Until we can answer these questions, we cannot terminate anything.	Until we can answer these questions, we cannot terminate anything.	80430561	1473982411232	1473982411333	s	83
155764	1692476	Until we can answer these questions, we cannot terminate anything.	Until we can answer these questions, we cannot terminate anything.	80430565	1473982411470	1473982411617	e	69
155764	1692476	Until we can answer these questions, we cannot terminate anything.	Until we can answer these questions, we cannot terminate anything.	80430614	1473982411655	1473982411731	 	32
155764	1692476	Until we can answer these questions, we cannot terminate anything.	Until we can answer these questions, we cannot terminate anything.	80430620	1473982412261	1473982412390	q	81
155764	1692476	Until we can answer these questions, we cannot terminate anything.	Until we can answer these questions, we cannot terminate anything.	80430623	1473982412405	1473982412479	u	85
155764	1692476	Until we can answer these questions, we cannot terminate anything.	Until we can answer these questions, we cannot terminate anything.	80430631	1473982412541	1473982412606	e	69
155764	1692476	Until we can answer these questions, we cannot terminate anything.	Until we can answer these questions, we cannot terminate anything.	80430635	1473982412742	1473982412874	s	83
155764	1692476	Until we can answer these questions, we cannot terminate anything.	Until we can answer these questions, we cannot terminate anything.	80430669	1473982412859	1473982412940	t	84
155764	1692476	Until we can answer these questions, we cannot terminate anything.	Until we can answer these questions, we cannot terminate anything.	80430672	1473982413112	1473982413212	i	73
155764	1692476	Until we can answer these questions, we cannot terminate anything.	Until we can answer these questions, we cannot terminate anything.	80430677	1473982413305	1473982413443	o	79
155764	1692476	Until we can answer these questions, we cannot terminate anything.	Until we can answer these questions, we cannot terminate anything.	80430681	1473982413534	1473982413637	n	78
155764	1692476	Until we can answer these questions, we cannot terminate anything.	Until we can answer these questions, we cannot terminate anything.	80430687	1473982413701	1473982413786	s	83
155764	1692476	Until we can answer these questions, we cannot terminate anything.	Until we can answer these questions, we cannot terminate anything.	80430690	1473982414174	1473982414306	,	188
155764	1692476	Until we can answer these questions, we cannot terminate anything.	Until we can answer these questions, we cannot terminate anything.	80430727	1473982414390	1473982414506	 	32
155764	1692476	Until we can answer these questions, we cannot terminate anything.	Until we can answer these questions, we cannot terminate anything.	80430729	1473982414522	1473982414670	w	87
155764	1692476	Until we can answer these questions, we cannot terminate anything.	Until we can answer these questions, we cannot terminate anything.	80430732	1473982414661	1473982414775	e	69
155764	1692476	Until we can answer these questions, we cannot terminate anything.	Until we can answer these questions, we cannot terminate anything.	80430736	1473982415078	1473982415179	 	32
155764	1692476	Until we can answer these questions, we cannot terminate anything.	Until we can answer these questions, we cannot terminate anything.	80430738	1473982415732	1473982415884	c	67
155764	1692476	Until we can answer these questions, we cannot terminate anything.	Until we can answer these questions, we cannot terminate anything.	80430781	1473982415913	1473982416033	a	65
155764	1692476	Until we can answer these questions, we cannot terminate anything.	Until we can answer these questions, we cannot terminate anything.	80430783	1473982416065	1473982416137	n	78
155764	1692476	Until we can answer these questions, we cannot terminate anything.	Until we can answer these questions, we cannot terminate anything.	80430785	1473982416216	1473982416287	n	78
155764	1692476	Until we can answer these questions, we cannot terminate anything.	Until we can answer these questions, we cannot terminate anything.	80430787	1473982416463	1473982416585	o	79
155764	1692476	Until we can answer these questions, we cannot terminate anything.	Until we can answer these questions, we cannot terminate anything.	80430789	1473982416660	1473982416801	t	84
155764	1692476	Until we can answer these questions, we cannot terminate anything.	Until we can answer these questions, we cannot terminate anything.	80430883	1473982416901	1473982416977	 	32
155764	1692476	Until we can answer these questions, we cannot terminate anything.	Until we can answer these questions, we cannot terminate anything.	80430886	1473982417216	1473982417254	t	84
155764	1692476	Until we can answer these questions, we cannot terminate anything.	Until we can answer these questions, we cannot terminate anything.	80430889	1473982417733	1473982417878	e	69
155764	1692476	Until we can answer these questions, we cannot terminate anything.	Until we can answer these questions, we cannot terminate anything.	80430894	1473982417864	1473982418001	r	82
155764	1692476	Until we can answer these questions, we cannot terminate anything.	Until we can answer these questions, we cannot terminate anything.	80430898	1473982418810	1473982418946	m	77
155764	1692476	Until we can answer these questions, we cannot terminate anything.	Until we can answer these questions, we cannot terminate anything.	80430945	1473982419025	1473982419112	i	73
155764	1692476	Until we can answer these questions, we cannot terminate anything.	Until we can answer these questions, we cannot terminate anything.	80430947	1473982419195	1473982419298	n	78
155764	1692476	Until we can answer these questions, we cannot terminate anything.	Until we can answer these questions, we cannot terminate anything.	80430949	1473982419450	1473982419584	a	65
155764	1692476	Until we can answer these questions, we cannot terminate anything.	Until we can answer these questions, we cannot terminate anything.	80430951	1473982419601	1473982419684	t	84
155764	1692476	Until we can answer these questions, we cannot terminate anything.	Until we can answer these questions, we cannot terminate anything.	80430952	1473982419720	1473982419867	e	69
155764	1692476	Until we can answer these questions, we cannot terminate anything.	Until we can answer these questions, we cannot terminate anything.	80430959	1473982419886	1473982420000	 	32
155764	1692476	Until we can answer these questions, we cannot terminate anything.	Until we can answer these questions, we cannot terminate anything.	80430961	1473982420067	1473982420172	a	65
155764	1692476	Until we can answer these questions, we cannot terminate anything.	Until we can answer these questions, we cannot terminate anything.	80430964	1473982420187	1473982420271	n	78
155764	1692476	Until we can answer these questions, we cannot terminate anything.	Until we can answer these questions, we cannot terminate anything.	80430970	1473982420404	1473982420504	y	89
155764	1692476	Until we can answer these questions, we cannot terminate anything.	Until we can answer these questions, we cannot terminate anything.	80430973	1473982420536	1473982420661	t	84
155764	1692476	Until we can answer these questions, we cannot terminate anything.	Until we can answer these questions, we cannot terminate anything.	80431021	1473982420637	1473982420738	h	72
155764	1692476	Until we can answer these questions, we cannot terminate anything.	Until we can answer these questions, we cannot terminate anything.	80431022	1473982420785	1473982420893	i	73
155764	1692476	Until we can answer these questions, we cannot terminate anything.	Until we can answer these questions, we cannot terminate anything.	80431025	1473982420944	1473982421043	n	78
155764	1692476	Until we can answer these questions, we cannot terminate anything.	Until we can answer these questions, we cannot terminate anything.	80431030	1473982421109	1473982421214	g	71
155764	1692476	Until we can answer these questions, we cannot terminate anything.	Until we can answer these questions, we cannot terminate anything.	80431036	1473982421293	1473982421386	.	190
155764	1692494	I am surprised such an incident could not have been prevented.	I am surprised such an incident could not have been prevented.	80431179	1473982423656	1473982423816	CAPS_LOCK	20
155764	1692494	I am surprised such an incident could not have been prevented.	I am surprised such an incident could not have been prevented.	80431180	1473982423774	1473982423890	I	73
155764	1692494	I am surprised such an incident could not have been prevented.	I am surprised such an incident could not have been prevented.	80431181	1473982423925	1473982424047	CAPS_LOCK	20
155764	1692494	I am surprised such an incident could not have been prevented.	I am surprised such an incident could not have been prevented.	80431182	1473982423952	1473982424112	 	32
155764	1692494	I am surprised such an incident could not have been prevented.	I am surprised such an incident could not have been prevented.	80431183	1473982424202	1473982424366	a	65
155764	1692494	I am surprised such an incident could not have been prevented.	I am surprised such an incident could not have been prevented.	80431184	1473982424397	1473982424510	m	77
155764	1692494	I am surprised such an incident could not have been prevented.	I am surprised such an incident could not have been prevented.	80431185	1473982424510	1473982424630	 	32
155764	1692494	I am surprised such an incident could not have been prevented.	I am surprised such an incident could not have been prevented.	80431228	1473982424882	1473982425002	s	83
155764	1692494	I am surprised such an incident could not have been prevented.	I am surprised such an incident could not have been prevented.	80431230	1473982425051	1473982425132	u	85
155764	1692494	I am surprised such an incident could not have been prevented.	I am surprised such an incident could not have been prevented.	80431232	1473982425298	1473982425439	r	82
155764	1692494	I am surprised such an incident could not have been prevented.	I am surprised such an incident could not have been prevented.	80431235	1473982425454	1473982425559	p	80
155764	1692494	I am surprised such an incident could not have been prevented.	I am surprised such an incident could not have been prevented.	80431238	1473982425606	1473982425719	r	82
155764	1692494	I am surprised such an incident could not have been prevented.	I am surprised such an incident could not have been prevented.	80431279	1473982425906	1473982426004	i	73
155764	1692494	I am surprised such an incident could not have been prevented.	I am surprised such an incident could not have been prevented.	80431284	1473982426075	1473982426176	s	83
155764	1692494	I am surprised such an incident could not have been prevented.	I am surprised such an incident could not have been prevented.	80431289	1473982426365	1473982426481	e	69
155764	1692494	I am surprised such an incident could not have been prevented.	I am surprised such an incident could not have been prevented.	80431293	1473982426585	1473982426731	d	68
155764	1692494	I am surprised such an incident could not have been prevented.	I am surprised such an incident could not have been prevented.	80431297	1473982426731	1473982426854	 	32
155764	1692494	I am surprised such an incident could not have been prevented.	I am surprised such an incident could not have been prevented.	80431346	1473982426927	1473982427053	s	83
155764	1692494	I am surprised such an incident could not have been prevented.	I am surprised such an incident could not have been prevented.	80431349	1473982427055	1473982427155	u	85
155764	1692494	I am surprised such an incident could not have been prevented.	I am surprised such an incident could not have been prevented.	80431353	1473982427271	1473982427418	c	67
155764	1692494	I am surprised such an incident could not have been prevented.	I am surprised such an incident could not have been prevented.	80431357	1473982427434	1473982427559	h	72
155764	1692494	I am surprised such an incident could not have been prevented.	I am surprised such an incident could not have been prevented.	80431361	1473982427864	1473982427977	 	32
155764	1692494	I am surprised such an incident could not have been prevented.	I am surprised such an incident could not have been prevented.	80431396	1473982428079	1473982428227	a	65
155764	1692494	I am surprised such an incident could not have been prevented.	I am surprised such an incident could not have been prevented.	80431400	1473982428227	1473982428336	n	78
155764	1692494	I am surprised such an incident could not have been prevented.	I am surprised such an incident could not have been prevented.	80431405	1473982428481	1473982428565	 	32
155764	1692494	I am surprised such an incident could not have been prevented.	I am surprised such an incident could not have been prevented.	80431410	1473982428643	1473982428744	i	73
155764	1692494	I am surprised such an incident could not have been prevented.	I am surprised such an incident could not have been prevented.	80431414	1473982428871	1473982428965	n	78
155764	1692494	I am surprised such an incident could not have been prevented.	I am surprised such an incident could not have been prevented.	80431457	1473982428972	1473982429109	c	67
155764	1692494	I am surprised such an incident could not have been prevented.	I am surprised such an incident could not have been prevented.	80431459	1473982429274	1473982429410	i	73
155764	1692494	I am surprised such an incident could not have been prevented.	I am surprised such an incident could not have been prevented.	80431466	1473982429474	1473982429621	d	68
155764	1692494	I am surprised such an incident could not have been prevented.	I am surprised such an incident could not have been prevented.	80431470	1473982429652	1473982429790	e	69
155764	1692494	I am surprised such an incident could not have been prevented.	I am surprised such an incident could not have been prevented.	80431473	1473982429790	1473982429891	n	78
155764	1692494	I am surprised such an incident could not have been prevented.	I am surprised such an incident could not have been prevented.	80431499	1473982429975	1473982430106	t	84
155764	1692494	I am surprised such an incident could not have been prevented.	I am surprised such an incident could not have been prevented.	80431500	1473982430138	1473982430220	 	32
155764	1692494	I am surprised such an incident could not have been prevented.	I am surprised such an incident could not have been prevented.	80431504	1473982430375	1473982430511	c	67
155764	1692494	I am surprised such an incident could not have been prevented.	I am surprised such an incident could not have been prevented.	80431507	1473982430476	1473982430640	o	79
155764	1692494	I am surprised such an incident could not have been prevented.	I am surprised such an incident could not have been prevented.	80431511	1473982430640	1473982430736	u	85
155764	1692494	I am surprised such an incident could not have been prevented.	I am surprised such an incident could not have been prevented.	80431558	1473982430894	1473982431026	l	76
155764	1692494	I am surprised such an incident could not have been prevented.	I am surprised such an incident could not have been prevented.	80431559	1473982431081	1473982431181	d	68
155764	1692494	I am surprised such an incident could not have been prevented.	I am surprised such an incident could not have been prevented.	80431560	1473982431226	1473982431351	 	32
155764	1692494	I am surprised such an incident could not have been prevented.	I am surprised such an incident could not have been prevented.	80431561	1473982431547	1473982431636	n	78
155764	1692494	I am surprised such an incident could not have been prevented.	I am surprised such an incident could not have been prevented.	80431563	1473982431747	1473982431852	o	79
155764	1692494	I am surprised such an incident could not have been prevented.	I am surprised such an incident could not have been prevented.	80431579	1473982431900	1473982432016	t	84
155764	1692494	I am surprised such an incident could not have been prevented.	I am surprised such an incident could not have been prevented.	80431582	1473982432063	1473982432160	 	32
155764	1692494	I am surprised such an incident could not have been prevented.	I am surprised such an incident could not have been prevented.	80431592	1473982432317	1473982432417	h	72
155764	1692494	I am surprised such an incident could not have been prevented.	I am surprised such an incident could not have been prevented.	80431596	1473982432485	1473982432604	a	65
155764	1692494	I am surprised such an incident could not have been prevented.	I am surprised such an incident could not have been prevented.	80431603	1473982432635	1473982432753	v	86
155764	1692494	I am surprised such an incident could not have been prevented.	I am surprised such an incident could not have been prevented.	80431618	1473982432785	1473982432901	e	69
155764	1692494	I am surprised such an incident could not have been prevented.	I am surprised such an incident could not have been prevented.	80431621	1473982432964	1473982433037	 	32
155764	1692494	I am surprised such an incident could not have been prevented.	I am surprised such an incident could not have been prevented.	80431623	1473982433148	1473982433253	b	66
155764	1692494	I am surprised such an incident could not have been prevented.	I am surprised such an incident could not have been prevented.	80431625	1473982433286	1473982433339	e	69
155764	1692494	I am surprised such an incident could not have been prevented.	I am surprised such an incident could not have been prevented.	80431627	1473982433433	1473982433520	e	69
155764	1692494	I am surprised such an incident could not have been prevented.	I am surprised such an incident could not have been prevented.	80431664	1473982433588	1473982433688	n	78
155764	1692494	I am surprised such an incident could not have been prevented.	I am surprised such an incident could not have been prevented.	80431667	1473982433789	1473982433921	 	32
155764	1692494	I am surprised such an incident could not have been prevented.	I am surprised such an incident could not have been prevented.	80431671	1473982434202	1473982434310	p	80
155764	1692494	I am surprised such an incident could not have been prevented.	I am surprised such an incident could not have been prevented.	80431674	1473982434457	1473982434594	r	82
155764	1692494	I am surprised such an incident could not have been prevented.	I am surprised such an incident could not have been prevented.	80431677	1473982434595	1473982434742	e	69
155764	1692494	I am surprised such an incident could not have been prevented.	I am surprised such an incident could not have been prevented.	80431703	1473982434895	1473982434987	v	86
155764	1692494	I am surprised such an incident could not have been prevented.	I am surprised such an incident could not have been prevented.	80431705	1473982435026	1473982435173	e	69
155764	1692494	I am surprised such an incident could not have been prevented.	I am surprised such an incident could not have been prevented.	80431708	1473982435214	1473982435330	n	78
155764	1692494	I am surprised such an incident could not have been prevented.	I am surprised such an incident could not have been prevented.	80431710	1473982435361	1473982435471	t	84
155764	1692494	I am surprised such an incident could not have been prevented.	I am surprised such an incident could not have been prevented.	80431713	1473982435548	1473982435701	e	69
155764	1692494	I am surprised such an incident could not have been prevented.	I am surprised such an incident could not have been prevented.	80431738	1473982435804	1473982435967	d	68
155764	1692494	I am surprised such an incident could not have been prevented.	I am surprised such an incident could not have been prevented.	80431739	1473982435982	1473982436104	.	190
155764	1692509	I'll call you when I get to the office.	I'll call you when I get to the office.	80431909	1473982438414	1473982438519	CAPS_LOCK	20
155764	1692509	I'll call you when I get to the office.	I'll call you when I get to the office.	80431913	1473982438523	1473982438615	I	73
155764	1692509	I'll call you when I get to the office.	I'll call you when I get to the office.	80431916	1473982438615	1473982438746	CAPS_LOCK	20
155764	1692509	I'll call you when I get to the office.	I'll call you when I get to the office.	80431920	1473982438878	1473982439006	'	222
155764	1692509	I'll call you when I get to the office.	I'll call you when I get to the office.	80431923	1473982439089	1473982439180	l	76
155764	1692509	I'll call you when I get to the office.	I'll call you when I get to the office.	80431927	1473982439331	1473982439431	l	76
155764	1692509	I'll call you when I get to the office.	I'll call you when I get to the office.	80431933	1473982439923	1473982440039	 	32
155764	1692509	I'll call you when I get to the office.	I'll call you when I get to the office.	80431964	1473982440171	1473982440302	c	67
155764	1692509	I'll call you when I get to the office.	I'll call you when I get to the office.	80431968	1473982440355	1473982440456	a	65
155764	1692509	I'll call you when I get to the office.	I'll call you when I get to the office.	80431974	1473982440471	1473982440542	l	76
155764	1692509	I'll call you when I get to the office.	I'll call you when I get to the office.	80431978	1473982440625	1473982440724	l	76
155764	1692509	I'll call you when I get to the office.	I'll call you when I get to the office.	80431979	1473982440787	1473982440869	 	32
155764	1692509	I'll call you when I get to the office.	I'll call you when I get to the office.	80432025	1473982441590	1473982441704	y	89
155764	1692509	I'll call you when I get to the office.	I'll call you when I get to the office.	80432030	1473982441675	1473982441853	o	79
155764	1692509	I'll call you when I get to the office.	I'll call you when I get to the office.	80432036	1473982441829	1473982441972	u	85
155764	1692509	I'll call you when I get to the office.	I'll call you when I get to the office.	80432041	1473982441945	1473982442102	 	32
155764	1692509	I'll call you when I get to the office.	I'll call you when I get to the office.	80432115	1473982442077	1473982442194	w	87
155764	1692509	I'll call you when I get to the office.	I'll call you when I get to the office.	80432119	1473982442210	1473982442301	h	72
155764	1692509	I'll call you when I get to the office.	I'll call you when I get to the office.	80432125	1473982442317	1473982442411	e	69
155764	1692509	I'll call you when I get to the office.	I'll call you when I get to the office.	80432130	1473982442450	1473982442582	n	78
155764	1692509	I'll call you when I get to the office.	I'll call you when I get to the office.	80432135	1473982442613	1473982442748	 	32
155764	1692509	I'll call you when I get to the office.	I'll call you when I get to the office.	80432143	1473982442982	1473982443104	CAPS_LOCK	20
155764	1692509	I'll call you when I get to the office.	I'll call you when I get to the office.	80432148	1473982443104	1473982443239	I	73
155764	1692509	I'll call you when I get to the office.	I'll call you when I get to the office.	80432193	1473982443203	1473982443372	CAPS_LOCK	20
155764	1692509	I'll call you when I get to the office.	I'll call you when I get to the office.	80432197	1473982443259	1473982443387	 	32
155764	1692509	I'll call you when I get to the office.	I'll call you when I get to the office.	80432204	1473982443622	1473982443793	g	71
155764	1692509	I'll call you when I get to the office.	I'll call you when I get to the office.	80432211	1473982443775	1473982443876	e	69
155764	1692509	I'll call you when I get to the office.	I'll call you when I get to the office.	80432219	1473982443904	1473982444006	t	84
155764	1692509	I'll call you when I get to the office.	I'll call you when I get to the office.	80432225	1473982444044	1473982444201	 	32
155764	1692509	I'll call you when I get to the office.	I'll call you when I get to the office.	80432243	1473982444169	1473982444260	t	84
155764	1692509	I'll call you when I get to the office.	I'll call you when I get to the office.	80432245	1473982444344	1473982444445	o	79
155764	1692509	I'll call you when I get to the office.	I'll call you when I get to the office.	80432249	1473982444460	1473982444617	 	32
155764	1692509	I'll call you when I get to the office.	I'll call you when I get to the office.	80432253	1473982444592	1473982444692	t	84
155764	1692509	I'll call you when I get to the office.	I'll call you when I get to the office.	80432258	1473982444692	1473982444800	h	72
155764	1692509	I'll call you when I get to the office.	I'll call you when I get to the office.	80432263	1473982444844	1473982444976	e	69
155764	1692509	I'll call you when I get to the office.	I'll call you when I get to the office.	80432318	1473982444945	1473982445077	 	32
155764	1692509	I'll call you when I get to the office.	I'll call you when I get to the office.	80432319	1473982445679	1473982445783	o	79
155764	1692509	I'll call you when I get to the office.	I'll call you when I get to the office.	80432320	1473982445799	1473982445884	f	70
155764	1692509	I'll call you when I get to the office.	I'll call you when I get to the office.	80432323	1473982445954	1473982446054	f	70
155764	1692509	I'll call you when I get to the office.	I'll call you when I get to the office.	80432326	1473982446070	1473982446186	i	73
155764	1692509	I'll call you when I get to the office.	I'll call you when I get to the office.	80432329	1473982446201	1473982446333	c	67
155764	1692509	I'll call you when I get to the office.	I'll call you when I get to the office.	80432356	1473982446401	1473982446517	e	69
155764	1692509	I'll call you when I get to the office.	I'll call you when I get to the office.	80432360	1473982446533	1473982446671	.	190
155764	1692520	I sent it to her.	I sent it to her.	80432489	1473982448644	1473982448746	CAPS_LOCK	20
155764	1692520	I sent it to her.	I sent it to her.	80432496	1473982448774	1473982448872	I	73
155764	1692520	I sent it to her.	I sent it to her.	80432498	1473982448888	1473982449032	CAPS_LOCK	20
155764	1692520	I sent it to her.	I sent it to her.	80432500	1473982448934	1473982449077	 	32
155764	1692520	I sent it to her.	I sent it to her.	80432501	1473982449100	1473982449212	s	83
155764	1692520	I sent it to her.	I sent it to her.	80432503	1473982449338	1473982449439	e	69
155764	1692520	I sent it to her.	I sent it to her.	80432504	1473982449471	1473982449635	n	78
155764	1692520	I sent it to her.	I sent it to her.	80432525	1473982449607	1473982449693	t	84
155764	1692520	I sent it to her.	I sent it to her.	80432529	1473982449675	1473982449807	 	32
155764	1692520	I sent it to her.	I sent it to her.	80432535	1473982449823	1473982449943	i	73
155764	1692520	I sent it to her.	I sent it to her.	80432538	1473982449958	1473982450055	t	84
155764	1692520	I sent it to her.	I sent it to her.	80432542	1473982450020	1473982450146	 	32
155764	1692520	I sent it to her.	I sent it to her.	80432545	1473982450192	1473982450254	t	84
155764	1692520	I sent it to her.	I sent it to her.	80432583	1473982450339	1473982450444	o	79
155764	1692520	I sent it to her.	I sent it to her.	80432591	1473982450477	1473982450577	 	32
155764	1692520	I sent it to her.	I sent it to her.	80432597	1473982450825	1473982450924	h	72
155764	1692520	I sent it to her.	I sent it to her.	80432604	1473982450940	1473982451102	e	69
155764	1692520	I sent it to her.	I sent it to her.	80432625	1473982451071	1473982451199	r	82
155764	1692520	I sent it to her.	I sent it to her.	80432628	1473982451280	1473982451399	.	190
155764	1692526	Binoche welcomed the movie industry to the French riviera.	Binoche welcomed the movie industry to the French riviera.	80432796	1473982453612	1473982453731	CAPS_LOCK	20
155764	1692526	Binoche welcomed the movie industry to the French riviera.	Binoche welcomed the movie industry to the French riviera.	80432801	1473982453731	1473982453815	B	66
155764	1692526	Binoche welcomed the movie industry to the French riviera.	Binoche welcomed the movie industry to the French riviera.	80432803	1473982453831	1473982453989	CAPS_LOCK	20
155764	1692526	Binoche welcomed the movie industry to the French riviera.	Binoche welcomed the movie industry to the French riviera.	80432807	1473982454536	1473982454637	i	73
155764	1692526	Binoche welcomed the movie industry to the French riviera.	Binoche welcomed the movie industry to the French riviera.	80432814	1473982454705	1473982454806	n	78
155764	1692526	Binoche welcomed the movie industry to the French riviera.	Binoche welcomed the movie industry to the French riviera.	80432820	1473982454868	1473982454977	o	79
155764	1692526	Binoche welcomed the movie industry to the French riviera.	Binoche welcomed the movie industry to the French riviera.	80432825	1473982455021	1473982455106	c	67
155764	1692526	Binoche welcomed the movie industry to the French riviera.	Binoche welcomed the movie industry to the French riviera.	80432864	1473982455205	1473982455301	h	72
155764	1692526	Binoche welcomed the movie industry to the French riviera.	Binoche welcomed the movie industry to the French riviera.	80432868	1473982455353	1473982455468	e	69
155764	1692526	Binoche welcomed the movie industry to the French riviera.	Binoche welcomed the movie industry to the French riviera.	80432874	1473982455540	1473982455622	 	32
155764	1692526	Binoche welcomed the movie industry to the French riviera.	Binoche welcomed the movie industry to the French riviera.	80432880	1473982455784	1473982455909	w	87
155764	1692526	Binoche welcomed the movie industry to the French riviera.	Binoche welcomed the movie industry to the French riviera.	80432885	1473982455971	1473982456076	e	69
155764	1692526	Binoche welcomed the movie industry to the French riviera.	Binoche welcomed the movie industry to the French riviera.	80432911	1473982456109	1473982456229	l	76
155764	1692526	Binoche welcomed the movie industry to the French riviera.	Binoche welcomed the movie industry to the French riviera.	80432913	1473982456315	1473982456434	c	67
155764	1692526	Binoche welcomed the movie industry to the French riviera.	Binoche welcomed the movie industry to the French riviera.	80432916	1473982456415	1473982456515	o	79
155764	1692526	Binoche welcomed the movie industry to the French riviera.	Binoche welcomed the movie industry to the French riviera.	80432920	1473982456610	1473982456725	m	77
155764	1692526	Binoche welcomed the movie industry to the French riviera.	Binoche welcomed the movie industry to the French riviera.	80432956	1473982456716	1473982456816	e	69
155764	1692526	Binoche welcomed the movie industry to the French riviera.	Binoche welcomed the movie industry to the French riviera.	80432960	1473982456894	1473982457079	d	68
155764	1692526	Binoche welcomed the movie industry to the French riviera.	Binoche welcomed the movie industry to the French riviera.	80432968	1473982457163	1473982457268	 	32
155764	1692526	Binoche welcomed the movie industry to the French riviera.	Binoche welcomed the movie industry to the French riviera.	80432974	1473982457563	1473982457679	t	84
155764	1692526	Binoche welcomed the movie industry to the French riviera.	Binoche welcomed the movie industry to the French riviera.	80432979	1473982457695	1473982457817	h	72
155764	1692526	Binoche welcomed the movie industry to the French riviera.	Binoche welcomed the movie industry to the French riviera.	80432984	1473982457817	1473982457938	e	69
155764	1692526	Binoche welcomed the movie industry to the French riviera.	Binoche welcomed the movie industry to the French riviera.	80433052	1473982457883	1473982458001	 	32
155764	1692526	Binoche welcomed the movie industry to the French riviera.	Binoche welcomed the movie industry to the French riviera.	80433056	1473982458136	1473982458223	m	77
155764	1692526	Binoche welcomed the movie industry to the French riviera.	Binoche welcomed the movie industry to the French riviera.	80433058	1473982458341	1473982458457	o	79
155764	1692526	Binoche welcomed the movie industry to the French riviera.	Binoche welcomed the movie industry to the French riviera.	80433059	1473982459184	1473982459292	v	86
155764	1692526	Binoche welcomed the movie industry to the French riviera.	Binoche welcomed the movie industry to the French riviera.	80433062	1473982459292	1473982459387	i	73
155764	1692526	Binoche welcomed the movie industry to the French riviera.	Binoche welcomed the movie industry to the French riviera.	80433066	1473982459426	1473982459541	e	69
155764	1692526	Binoche welcomed the movie industry to the French riviera.	Binoche welcomed the movie industry to the French riviera.	80433131	1473982459659	1473982459823	,	188
155764	1692526	Binoche welcomed the movie industry to the French riviera.	Binoche welcomed the movie industry to the French riviera.	80433133	1473982460285	1473982460393	BKSP	8
155764	1692526	Binoche welcomed the movie industry to the French riviera.	Binoche welcomed the movie industry to the French riviera.	80433138	1473982460573	1473982460705	 	32
155764	1692526	Binoche welcomed the movie industry to the French riviera.	Binoche welcomed the movie industry to the French riviera.	80433145	1473982460788	1473982460880	i	73
155764	1692526	Binoche welcomed the movie industry to the French riviera.	Binoche welcomed the movie industry to the French riviera.	80433151	1473982460978	1473982461093	n	78
155764	1692526	Binoche welcomed the movie industry to the French riviera.	Binoche welcomed the movie industry to the French riviera.	80433156	1473982461182	1473982461303	d	68
155764	1692526	Binoche welcomed the movie industry to the French riviera.	Binoche welcomed the movie industry to the French riviera.	80433194	1473982461335	1473982461451	u	85
155764	1692526	Binoche welcomed the movie industry to the French riviera.	Binoche welcomed the movie industry to the French riviera.	80433197	1473982461651	1473982461767	s	83
155764	1692526	Binoche welcomed the movie industry to the French riviera.	Binoche welcomed the movie industry to the French riviera.	80433200	1473982462099	1473982462188	t	84
155764	1692526	Binoche welcomed the movie industry to the French riviera.	Binoche welcomed the movie industry to the French riviera.	80433205	1473982462268	1473982462419	r	82
155764	1692526	Binoche welcomed the movie industry to the French riviera.	Binoche welcomed the movie industry to the French riviera.	80433249	1473982462399	1473982462503	y	89
155764	1692526	Binoche welcomed the movie industry to the French riviera.	Binoche welcomed the movie industry to the French riviera.	80433254	1473982462599	1473982462688	 	32
155764	1692526	Binoche welcomed the movie industry to the French riviera.	Binoche welcomed the movie industry to the French riviera.	80433257	1473982462736	1473982462853	t	84
155764	1692526	Binoche welcomed the movie industry to the French riviera.	Binoche welcomed the movie industry to the French riviera.	80433259	1473982462868	1473982463000	o	79
155764	1692526	Binoche welcomed the movie industry to the French riviera.	Binoche welcomed the movie industry to the French riviera.	80433262	1473982463015	1473982463114	 	32
155764	1692526	Binoche welcomed the movie industry to the French riviera.	Binoche welcomed the movie industry to the French riviera.	80433266	1473982463138	1473982463259	t	84
155764	1692526	Binoche welcomed the movie industry to the French riviera.	Binoche welcomed the movie industry to the French riviera.	80433355	1473982463277	1473982463371	h	72
155764	1692526	Binoche welcomed the movie industry to the French riviera.	Binoche welcomed the movie industry to the French riviera.	80433359	1473982463523	1473982463636	e	69
155764	1692526	Binoche welcomed the movie industry to the French riviera.	Binoche welcomed the movie industry to the French riviera.	80433362	1473982463707	1473982463762	 	32
155764	1692526	Binoche welcomed the movie industry to the French riviera.	Binoche welcomed the movie industry to the French riviera.	80433365	1473982463876	1473982464055	CAPS_LOCK	20
155764	1692526	Binoche welcomed the movie industry to the French riviera.	Binoche welcomed the movie industry to the French riviera.	80433369	1473982464392	1473982464524	F	70
155764	1692526	Binoche welcomed the movie industry to the French riviera.	Binoche welcomed the movie industry to the French riviera.	80433373	1473982464546	1473982464662	CAPS_LOCK	20
155764	1692526	Binoche welcomed the movie industry to the French riviera.	Binoche welcomed the movie industry to the French riviera.	80433377	1473982464762	1473982464909	r	82
155764	1692526	Binoche welcomed the movie industry to the French riviera.	Binoche welcomed the movie industry to the French riviera.	80433402	1473982464997	1473982465094	e	69
155764	1692526	Binoche welcomed the movie industry to the French riviera.	Binoche welcomed the movie industry to the French riviera.	80433407	1473982465144	1473982465262	n	78
155764	1692526	Binoche welcomed the movie industry to the French riviera.	Binoche welcomed the movie industry to the French riviera.	80433412	1473982465428	1473982465547	c	67
155764	1692526	Binoche welcomed the movie industry to the French riviera.	Binoche welcomed the movie industry to the French riviera.	80433416	1473982465610	1473982465743	g	71
155764	1692526	Binoche welcomed the movie industry to the French riviera.	Binoche welcomed the movie industry to the French riviera.	80433419	1473982465748	1473982465879	 	32
155764	1692526	Binoche welcomed the movie industry to the French riviera.	Binoche welcomed the movie industry to the French riviera.	80433476	1473982465967	1473982466048	r	82
155764	1692526	Binoche welcomed the movie industry to the French riviera.	Binoche welcomed the movie industry to the French riviera.	80433478	1473982466296	1473982466379	=	187
155764	1692526	Binoche welcomed the movie industry to the French riviera.	Binoche welcomed the movie industry to the French riviera.	80433480	1473982466467	1473982466536	=	187
155764	1692526	Binoche welcomed the movie industry to the French riviera.	Binoche welcomed the movie industry to the French riviera.	80433481	1473982466631	1473982466674	=	187
155764	1692526	Binoche welcomed the movie industry to the French riviera.	Binoche welcomed the movie industry to the French riviera.	80433482	1473982466786	1473982466830	=	187
155764	1692526	Binoche welcomed the movie industry to the French riviera.	Binoche welcomed the movie industry to the French riviera.	80433583	1473982466986	1473982467102	BKSP	8
155764	1692526	Binoche welcomed the movie industry to the French riviera.	Binoche welcomed the movie industry to the French riviera.	80433587	1473982467187	1473982467239	BKSP	8
155764	1692526	Binoche welcomed the movie industry to the French riviera.	Binoche welcomed the movie industry to the French riviera.	80433591	1473982467319	1473982467372	BKSP	8
155764	1692526	Binoche welcomed the movie industry to the French riviera.	Binoche welcomed the movie industry to the French riviera.	80433594	1473982467456	1473982467507	BKSP	8
155764	1692526	Binoche welcomed the movie industry to the French riviera.	Binoche welcomed the movie industry to the French riviera.	80433597	1473982467572	1473982467639	BKSP	8
155764	1692526	Binoche welcomed the movie industry to the French riviera.	Binoche welcomed the movie industry to the French riviera.	80433599	1473982467704	1473982467773	BKSP	8
155764	1692526	Binoche welcomed the movie industry to the French riviera.	Binoche welcomed the movie industry to the French riviera.	80433601	1473982467857	1473982467936	BKSP	8
155764	1692526	Binoche welcomed the movie industry to the French riviera.	Binoche welcomed the movie industry to the French riviera.	80433604	1473982468463	1473982468596	h	72
155764	1692526	Binoche welcomed the movie industry to the French riviera.	Binoche welcomed the movie industry to the French riviera.	80433607	1473982468596	1473982468728	 	32
155764	1692526	Binoche welcomed the movie industry to the French riviera.	Binoche welcomed the movie industry to the French riviera.	80433611	1473982468761	1473982468866	r	82
155764	1692526	Binoche welcomed the movie industry to the French riviera.	Binoche welcomed the movie industry to the French riviera.	80433615	1473982468962	1473982469080	i	73
155764	1692526	Binoche welcomed the movie industry to the French riviera.	Binoche welcomed the movie industry to the French riviera.	80433620	1473982469152	1473982469266	v	86
155764	1692526	Binoche welcomed the movie industry to the French riviera.	Binoche welcomed the movie industry to the French riviera.	80433686	1473982469323	1473982469414	i	73
155764	1692526	Binoche welcomed the movie industry to the French riviera.	Binoche welcomed the movie industry to the French riviera.	80433691	1473982470175	1473982470313	e	69
155764	1692526	Binoche welcomed the movie industry to the French riviera.	Binoche welcomed the movie industry to the French riviera.	80433696	1473982470290	1473982470422	r	82
155764	1692526	Binoche welcomed the movie industry to the French riviera.	Binoche welcomed the movie industry to the French riviera.	80433703	1473982470738	1473982470892	a	65
155764	1692526	Binoche welcomed the movie industry to the French riviera.	Binoche welcomed the movie industry to the French riviera.	80433709	1473982470976	1473982471076	.	190
155764	1692545	Remember blackberry doesn't work so well at home.	Remember blackberry doesn't work so well at home.	80433948	1473982473359	1473982473415	CAPS_LOCK	20
155764	1692545	Remember blackberry doesn't work so well at home.	Remember blackberry doesn't work so well at home.	80433951	1473982473533	1473982473620	R	82
155764	1692545	Remember blackberry doesn't work so well at home.	Remember blackberry doesn't work so well at home.	80433953	1473982473620	1473982473782	CAPS_LOCK	20
155764	1692545	Remember blackberry doesn't work so well at home.	Remember blackberry doesn't work so well at home.	80433955	1473982473960	1473982474021	e	69
155764	1692545	Remember blackberry doesn't work so well at home.	Remember blackberry doesn't work so well at home.	80433958	1473982474092	1473982474205	m	77
155764	1692545	Remember blackberry doesn't work so well at home.	Remember blackberry doesn't work so well at home.	80433962	1473982475053	1473982475155	e	69
155764	1692545	Remember blackberry doesn't work so well at home.	Remember blackberry doesn't work so well at home.	80433965	1473982475215	1473982475293	m	77
155764	1692545	Remember blackberry doesn't work so well at home.	Remember blackberry doesn't work so well at home.	80433980	1473982475447	1473982475531	b	66
155764	1692545	Remember blackberry doesn't work so well at home.	Remember blackberry doesn't work so well at home.	80433984	1473982475562	1473982475719	e	69
155764	1692545	Remember blackberry doesn't work so well at home.	Remember blackberry doesn't work so well at home.	80433988	1473982475693	1473982475831	r	82
155764	1692545	Remember blackberry doesn't work so well at home.	Remember blackberry doesn't work so well at home.	80433993	1473982475831	1473982475931	 	32
155764	1692545	Remember blackberry doesn't work so well at home.	Remember blackberry doesn't work so well at home.	80433996	1473982476178	1473982476270	b	66
155764	1692545	Remember blackberry doesn't work so well at home.	Remember blackberry doesn't work so well at home.	80434056	1473982476531	1473982476631	l	76
155764	1692545	Remember blackberry doesn't work so well at home.	Remember blackberry doesn't work so well at home.	80434059	1473982476663	1473982476832	a	65
155764	1692545	Remember blackberry doesn't work so well at home.	Remember blackberry doesn't work so well at home.	80434061	1473982476847	1473982476963	c	67
155764	1692545	Remember blackberry doesn't work so well at home.	Remember blackberry doesn't work so well at home.	80434063	1473982476979	1473982477061	k	75
155764	1692545	Remember blackberry doesn't work so well at home.	Remember blackberry doesn't work so well at home.	80434065	1473982477555	1473982477655	b	66
155764	1692545	Remember blackberry doesn't work so well at home.	Remember blackberry doesn't work so well at home.	80434082	1473982477702	1473982477780	e	69
155764	1692545	Remember blackberry doesn't work so well at home.	Remember blackberry doesn't work so well at home.	80434086	1473982477872	1473982477955	r	82
155764	1692545	Remember blackberry doesn't work so well at home.	Remember blackberry doesn't work so well at home.	80434090	1473982478025	1473982478148	r	82
155764	1692545	Remember blackberry doesn't work so well at home.	Remember blackberry doesn't work so well at home.	80434095	1473982478126	1473982478257	y	89
155764	1692545	Remember blackberry doesn't work so well at home.	Remember blackberry doesn't work so well at home.	80434100	1473982478326	1473982478426	 	32
155764	1692545	Remember blackberry doesn't work so well at home.	Remember blackberry doesn't work so well at home.	80434127	1473982478542	1473982478642	d	68
155764	1692545	Remember blackberry doesn't work so well at home.	Remember blackberry doesn't work so well at home.	80434129	1473982478673	1473982478794	o	79
155764	1692545	Remember blackberry doesn't work so well at home.	Remember blackberry doesn't work so well at home.	80434132	1473982478794	1473982478894	e	69
155764	1692545	Remember blackberry doesn't work so well at home.	Remember blackberry doesn't work so well at home.	80434135	1473982479009	1473982479117	s	83
155764	1692545	Remember blackberry doesn't work so well at home.	Remember blackberry doesn't work so well at home.	80434139	1473982479178	1473982479282	n	78
155764	1692545	Remember blackberry doesn't work so well at home.	Remember blackberry doesn't work so well at home.	80434179	1473982479535	1473982479667	'	222
155764	1692545	Remember blackberry doesn't work so well at home.	Remember blackberry doesn't work so well at home.	80434181	1473982479814	1473982479952	t	84
155764	1692545	Remember blackberry doesn't work so well at home.	Remember blackberry doesn't work so well at home.	80434183	1473982479999	1473982480112	 	32
155764	1692545	Remember blackberry doesn't work so well at home.	Remember blackberry doesn't work so well at home.	80434186	1473982480168	1473982480300	w	87
155764	1692545	Remember blackberry doesn't work so well at home.	Remember blackberry doesn't work so well at home.	80434219	1473982480255	1473982480353	o	79
155764	1692545	Remember blackberry doesn't work so well at home.	Remember blackberry doesn't work so well at home.	80434224	1473982480399	1473982480500	r	82
155764	1692545	Remember blackberry doesn't work so well at home.	Remember blackberry doesn't work so well at home.	80434227	1473982480534	1473982480656	k	75
155764	1692545	Remember blackberry doesn't work so well at home.	Remember blackberry doesn't work so well at home.	80434231	1473982480712	1473982480809	 	32
155764	1692545	Remember blackberry doesn't work so well at home.	Remember blackberry doesn't work so well at home.	80434236	1473982480919	1473982481045	s	83
155764	1692545	Remember blackberry doesn't work so well at home.	Remember blackberry doesn't work so well at home.	80434260	1473982481004	1473982481141	o	79
155764	1692545	Remember blackberry doesn't work so well at home.	Remember blackberry doesn't work so well at home.	80434264	1473982481157	1473982481277	 	32
155764	1692545	Remember blackberry doesn't work so well at home.	Remember blackberry doesn't work so well at home.	80434267	1473982481423	1473982481566	w	87
155764	1692545	Remember blackberry doesn't work so well at home.	Remember blackberry doesn't work so well at home.	80434271	1473982481546	1473982481677	e	69
155764	1692545	Remember blackberry doesn't work so well at home.	Remember blackberry doesn't work so well at home.	80434276	1473982481724	1473982481793	l	76
155764	1692545	Remember blackberry doesn't work so well at home.	Remember blackberry doesn't work so well at home.	80434281	1473982481877	1473982481989	l	76
155764	1692545	Remember blackberry doesn't work so well at home.	Remember blackberry doesn't work so well at home.	80434299	1473982482004	1473982482117	 	32
155764	1692545	Remember blackberry doesn't work so well at home.	Remember blackberry doesn't work so well at home.	80434302	1473982482161	1473982482293	a	65
155764	1692545	Remember blackberry doesn't work so well at home.	Remember blackberry doesn't work so well at home.	80434305	1473982482308	1473982482402	t	84
155764	1692545	Remember blackberry doesn't work so well at home.	Remember blackberry doesn't work so well at home.	80434310	1473982482417	1473982482582	 	32
155764	1692545	Remember blackberry doesn't work so well at home.	Remember blackberry doesn't work so well at home.	80434315	1473982482614	1473982482709	h	72
155764	1692545	Remember blackberry doesn't work so well at home.	Remember blackberry doesn't work so well at home.	80434346	1473982482851	1473982482947	o	79
155764	1692545	Remember blackberry doesn't work so well at home.	Remember blackberry doesn't work so well at home.	80434351	1473982483062	1473982483163	m	77
155764	1692545	Remember blackberry doesn't work so well at home.	Remember blackberry doesn't work so well at home.	80434355	1473982483241	1473982483330	e	69
155764	1692545	Remember blackberry doesn't work so well at home.	Remember blackberry doesn't work so well at home.	80434358	1473982483394	1473982483493	.	190
155764	1692560	Also,  please look at Howell for Oct 2001.	Also, please look at Howell for Oct 2001.	80434546	1473982485653	1473982485802	CAPS_LOCK	20
155764	1692560	Also,  please look at Howell for Oct 2001.	Also, please look at Howell for Oct 2001.	80434550	1473982485834	1473982485972	A	65
155764	1692560	Also,  please look at Howell for Oct 2001.	Also, please look at Howell for Oct 2001.	80434558	1473982485972	1473982486136	CAPS_LOCK	20
155764	1692560	Also,  please look at Howell for Oct 2001.	Also, please look at Howell for Oct 2001.	80434554	1473982486019	1473982486120	l	76
155764	1692560	Also,  please look at Howell for Oct 2001.	Also, please look at Howell for Oct 2001.	80434561	1473982486187	1473982486319	s	83
155764	1692560	Also,  please look at Howell for Oct 2001.	Also, please look at Howell for Oct 2001.	80434564	1473982486334	1473982486404	o	79
155764	1692560	Also,  please look at Howell for Oct 2001.	Also, please look at Howell for Oct 2001.	80434566	1473982486606	1473982486763	,	188
155764	1692560	Also,  please look at Howell for Oct 2001.	Also, please look at Howell for Oct 2001.	80434627	1473982486790	1473982486926	 	32
155764	1692560	Also,  please look at Howell for Oct 2001.	Also, please look at Howell for Oct 2001.	80434630	1473982487012	1473982487104	p	80
155764	1692560	Also,  please look at Howell for Oct 2001.	Also, please look at Howell for Oct 2001.	80434632	1473982487212	1473982487328	l	76
155764	1692560	Also,  please look at Howell for Oct 2001.	Also, please look at Howell for Oct 2001.	80434635	1473982487382	1473982487530	e	69
155764	1692560	Also,  please look at Howell for Oct 2001.	Also, please look at Howell for Oct 2001.	80434637	1473982487684	1473982487889	a	65
155764	1692560	Also,  please look at Howell for Oct 2001.	Also, please look at Howell for Oct 2001.	80434709	1473982487984	1473982488101	s	83
155764	1692560	Also,  please look at Howell for Oct 2001.	Also, please look at Howell for Oct 2001.	80434710	1473982488350	1473982488472	r	82
155764	1692560	Also,  please look at Howell for Oct 2001.	Also, please look at Howell for Oct 2001.	80434713	1473982488535	1473982488635	 	32
155764	1692560	Also,  please look at Howell for Oct 2001.	Also, please look at Howell for Oct 2001.	80434717	1473982488723	1473982488776	l	76
155764	1692560	Also,  please look at Howell for Oct 2001.	Also, please look at Howell for Oct 2001.	80434721	1473982489130	1473982489195	BKSP	8
155764	1692560	Also,  please look at Howell for Oct 2001.	Also, please look at Howell for Oct 2001.	80434724	1473982489292	1473982489339	BKSP	8
155764	1692560	Also,  please look at Howell for Oct 2001.	Also, please look at Howell for Oct 2001.	80434727	1473982489439	1473982489497	BKSP	8
155764	1692560	Also,  please look at Howell for Oct 2001.	Also, please look at Howell for Oct 2001.	80434730	1473982489593	1473982489639	BKSP	8
155764	1692560	Also,  please look at Howell for Oct 2001.	Also, please look at Howell for Oct 2001.	80434733	1473982489672	1473982489744	e	69
155764	1692560	Also,  please look at Howell for Oct 2001.	Also, please look at Howell for Oct 2001.	80434787	1473982489793	1473982489867	 	32
155764	1692560	Also,  please look at Howell for Oct 2001.	Also, please look at Howell for Oct 2001.	80434790	1473982490160	1473982490229	BKSP	8
155764	1692560	Also,  please look at Howell for Oct 2001.	Also, please look at Howell for Oct 2001.	80434794	1473982490332	1473982490390	BKSP	8
155764	1692560	Also,  please look at Howell for Oct 2001.	Also, please look at Howell for Oct 2001.	80434796	1473982490468	1473982490561	s	83
155764	1692560	Also,  please look at Howell for Oct 2001.	Also, please look at Howell for Oct 2001.	80434797	1473982490684	1473982490785	e	69
155764	1692560	Also,  please look at Howell for Oct 2001.	Also, please look at Howell for Oct 2001.	80434799	1473982490802	1473982490933	 	32
155764	1692560	Also,  please look at Howell for Oct 2001.	Also, please look at Howell for Oct 2001.	80434802	1473982491004	1473982491089	l	76
155764	1692560	Also,  please look at Howell for Oct 2001.	Also, please look at Howell for Oct 2001.	80434834	1473982491207	1473982491291	o	79
155764	1692560	Also,  please look at Howell for Oct 2001.	Also, please look at Howell for Oct 2001.	80434837	1473982491370	1473982491443	o	79
155764	1692560	Also,  please look at Howell for Oct 2001.	Also, please look at Howell for Oct 2001.	80434840	1473982491827	1473982491911	k	75
155764	1692560	Also,  please look at Howell for Oct 2001.	Also, please look at Howell for Oct 2001.	80434843	1473982492027	1473982492127	 	32
155764	1692560	Also,  please look at Howell for Oct 2001.	Also, please look at Howell for Oct 2001.	80434848	1473982492174	1473982492296	a	65
155764	1692560	Also,  please look at Howell for Oct 2001.	Also, please look at Howell for Oct 2001.	80434887	1473982492348	1473982492483	t	84
155764	1692560	Also,  please look at Howell for Oct 2001.	Also, please look at Howell for Oct 2001.	80434889	1473982492542	1473982492658	 	32
155764	1692560	Also,  please look at Howell for Oct 2001.	Also, please look at Howell for Oct 2001.	80434892	1473982492696	1473982492795	CAPS_LOCK	20
155764	1692560	Also,  please look at Howell for Oct 2001.	Also, please look at Howell for Oct 2001.	80434896	1473982492811	1473982492911	H	72
155764	1692560	Also,  please look at Howell for Oct 2001.	Also, please look at Howell for Oct 2001.	80434899	1473982492942	1473982493058	CAPS_LOCK	20
155764	1692560	Also,  please look at Howell for Oct 2001.	Also, please look at Howell for Oct 2001.	80434902	1473982493096	1473982493196	o	79
155764	1692560	Also,  please look at Howell for Oct 2001.	Also, please look at Howell for Oct 2001.	80434907	1473982493312	1473982493396	w	87
155764	1692560	Also,  please look at Howell for Oct 2001.	Also, please look at Howell for Oct 2001.	80434952	1473982493518	1473982493603	e	69
155764	1692560	Also,  please look at Howell for Oct 2001.	Also, please look at Howell for Oct 2001.	80434955	1473982493681	1473982493747	l	76
155764	1692560	Also,  please look at Howell for Oct 2001.	Also, please look at Howell for Oct 2001.	80434959	1473982493846	1473982493917	l	76
155764	1692560	Also,  please look at Howell for Oct 2001.	Also, please look at Howell for Oct 2001.	80434963	1473982494024	1473982494144	 	32
155764	1692560	Also,  please look at Howell for Oct 2001.	Also, please look at Howell for Oct 2001.	80434967	1473982494468	1473982494489	f	70
155764	1692560	Also,  please look at Howell for Oct 2001.	Also, please look at Howell for Oct 2001.	80435035	1473982494521	1473982494621	o	79
155764	1692560	Also,  please look at Howell for Oct 2001.	Also, please look at Howell for Oct 2001.	80435038	1473982494905	1473982494962	r	82
155764	1692560	Also,  please look at Howell for Oct 2001.	Also, please look at Howell for Oct 2001.	80435041	1473982495368	1473982495479	 	32
155764	1692560	Also,  please look at Howell for Oct 2001.	Also, please look at Howell for Oct 2001.	80435046	1473982495670	1473982495808	CAPS_LOCK	20
155764	1692560	Also,  please look at Howell for Oct 2001.	Also, please look at Howell for Oct 2001.	80435049	1473982495808	1473982495886	O	79
155764	1692560	Also,  please look at Howell for Oct 2001.	Also, please look at Howell for Oct 2001.	80435054	1473982495928	1473982496046	CAPS_LOCK	20
155764	1692560	Also,  please look at Howell for Oct 2001.	Also, please look at Howell for Oct 2001.	80435056	1473982496363	1473982496463	c	67
155764	1692560	Also,  please look at Howell for Oct 2001.	Also, please look at Howell for Oct 2001.	80435097	1473982496717	1473982496847	t	84
155764	1692560	Also,  please look at Howell for Oct 2001.	Also, please look at Howell for Oct 2001.	80435099	1473982496948	1473982496979	 	32
155764	1692560	Also,  please look at Howell for Oct 2001.	Also, please look at Howell for Oct 2001.	80435100	1473982497395	1473982497487	2	50
155764	1692560	Also,  please look at Howell for Oct 2001.	Also, please look at Howell for Oct 2001.	80435103	1473982497616	1473982497660	0	48
155764	1692560	Also,  please look at Howell for Oct 2001.	Also, please look at Howell for Oct 2001.	80435104	1473982497770	1473982497804	0	48
155764	1692560	Also,  please look at Howell for Oct 2001.	Also, please look at Howell for Oct 2001.	80435150	1473982497876	1473982497987	1	49
155764	1692560	Also,  please look at Howell for Oct 2001.	Also, please look at Howell for Oct 2001.	80435154	1473982498161	1473982498273	.	190
155764	1692575	I've never worked with her.	I've never worked with her.	80435302	1473982500336	1473982500452	CAPS_LOCK	20
155764	1692575	I've never worked with her.	I've never worked with her.	80435307	1473982500468	1473982500552	I	73
155764	1692575	I've never worked with her.	I've never worked with her.	80435311	1473982500552	1473982500699	CAPS_LOCK	20
155764	1692575	I've never worked with her.	I've never worked with her.	80435314	1473982500801	1473982500902	'	222
155764	1692575	I've never worked with her.	I've never worked with her.	80435318	1473982500985	1473982501086	v	86
155764	1692575	I've never worked with her.	I've never worked with her.	80435324	1473982501155	1473982501271	e	69
155764	1692575	I've never worked with her.	I've never worked with her.	80435327	1473982501302	1473982501402	 	32
155764	1692575	I've never worked with her.	I've never worked with her.	80435349	1473982501470	1473982501570	n	78
155764	1692575	I've never worked with her.	I've never worked with her.	80435354	1473982501617	1473982501695	e	69
155764	1692575	I've never worked with her.	I've never worked with her.	80435360	1473982501856	1473982501956	v	86
155764	1692575	I've never worked with her.	I've never worked with her.	80435366	1473982501987	1473982502118	e	69
155764	1692575	I've never worked with her.	I've never worked with her.	80435397	1473982502087	1473982502241	r	82
155764	1692575	I've never worked with her.	I've never worked with her.	80435400	1473982502288	1473982502390	 	32
155764	1692575	I've never worked with her.	I've never worked with her.	80435401	1473982502474	1473982502608	w	87
155764	1692575	I've never worked with her.	I've never worked with her.	80435402	1473982502608	1473982502728	o	79
155764	1692575	I've never worked with her.	I've never worked with her.	80435403	1473982502761	1473982502892	r	82
155764	1692575	I've never worked with her.	I've never worked with her.	80435404	1473982502892	1473982503009	k	75
155764	1692575	I've never worked with her.	I've never worked with her.	80435454	1473982503077	1473982503193	e	69
155764	1692575	I've never worked with her.	I've never worked with her.	80435460	1473982503292	1473982503408	d	68
155764	1692575	I've never worked with her.	I've never worked with her.	80435465	1473982503608	1473982503745	 	32
155764	1692575	I've never worked with her.	I've never worked with her.	80435469	1473982503761	1473982503906	w	87
155764	1692575	I've never worked with her.	I've never worked with her.	80435485	1473982503860	1473982503981	i	73
155764	1692575	I've never worked with her.	I've never worked with her.	80435488	1473982503990	1473982504125	t	84
155764	1692575	I've never worked with her.	I've never worked with her.	80435490	1473982504127	1473982504274	h	72
155764	1692575	I've never worked with her.	I've never worked with her.	80435494	1473982504264	1473982504407	 	32
155764	1692575	I've never worked with her.	I've never worked with her.	80435498	1473982504407	1473982504520	h	72
155764	1692575	I've never worked with her.	I've never worked with her.	80435533	1473982504453	1473982504625	e	69
155764	1692575	I've never worked with her.	I've never worked with her.	80435536	1473982504577	1473982504741	r	82
155764	1692575	I've never worked with her.	I've never worked with her.	80435538	1473982505309	1473982505409	.	190
155764	1692585	Lisa now has everything.	Lisa now has everything.	80435732	1473982507372	1473982507487	CAPS_LOCK	20
155764	1692585	Lisa now has everything.	Lisa now has everything.	80435736	1473982507518	1473982507596	L	76
155764	1692585	Lisa now has everything.	Lisa now has everything.	80435742	1473982507596	1473982507754	CAPS_LOCK	20
155764	1692585	Lisa now has everything.	Lisa now has everything.	80435747	1473982507734	1473982507847	i	73
155764	1692585	Lisa now has everything.	Lisa now has everything.	80435752	1473982508007	1473982508107	s	83
155764	1692585	Lisa now has everything.	Lisa now has everything.	80435754	1473982508381	1473982508496	a	65
155764	1692585	Lisa now has everything.	Lisa now has everything.	80435759	1473982508543	1473982508644	 	32
155764	1692585	Lisa now has everything.	Lisa now has everything.	80435793	1473982508732	1473982508814	n	78
155764	1692585	Lisa now has everything.	Lisa now has everything.	80435795	1473982508928	1473982509026	o	79
155764	1692585	Lisa now has everything.	Lisa now has everything.	80435798	1473982509421	1473982509521	w	87
155764	1692585	Lisa now has everything.	Lisa now has everything.	80435799	1473982509521	1473982509633	 	32
155764	1692585	Lisa now has everything.	Lisa now has everything.	80435802	1473982509705	1473982509774	h	72
155764	1692585	Lisa now has everything.	Lisa now has everything.	80435839	1473982509789	1473982509937	a	65
155764	1692585	Lisa now has everything.	Lisa now has everything.	80435842	1473982510173	1473982510291	s	83
155764	1692585	Lisa now has everything.	Lisa now has everything.	80435844	1473982510306	1473982510407	 	32
155764	1692585	Lisa now has everything.	Lisa now has everything.	80435846	1473982510491	1473982510570	e	69
155764	1692585	Lisa now has everything.	Lisa now has everything.	80435849	1473982510591	1473982510675	v	86
155764	1692585	Lisa now has everything.	Lisa now has everything.	80435857	1473982510675	1473982510775	e	69
155764	1692585	Lisa now has everything.	Lisa now has everything.	80435859	1473982510875	1473982510975	r	82
155764	1692585	Lisa now has everything.	Lisa now has everything.	80435862	1473982510991	1473982511075	y	89
155764	1692585	Lisa now has everything.	Lisa now has everything.	80435865	1473982511122	1473982511267	t	84
155764	1692585	Lisa now has everything.	Lisa now has everything.	80435907	1473982511238	1473982511319	h	72
155764	1692585	Lisa now has everything.	Lisa now has everything.	80435908	1473982511407	1473982511507	i	73
155764	1692585	Lisa now has everything.	Lisa now has everything.	80435909	1473982511591	1473982511691	n	78
155764	1692585	Lisa now has everything.	Lisa now has everything.	80435912	1473982511707	1473982511808	g	71
155764	1692585	Lisa now has everything.	Lisa now has everything.	80435915	1473982512562	1473982512621	.	190
155764	1692595	I have rates and capacity utilization information ready.	I have rates and capacity utilization information ready.	80435998	1473982514857	1473982514982	CAPS_LOCK	20
155764	1692595	I have rates and capacity utilization information ready.	I have rates and capacity utilization information ready.	80436005	1473982514973	1473982515084	I	73
155764	1692595	I have rates and capacity utilization information ready.	I have rates and capacity utilization information ready.	80436012	1473982515095	1473982515226	 	32
155764	1692595	I have rates and capacity utilization information ready.	I have rates and capacity utilization information ready.	80436016	1473982515101	1473982515226	CAPS_LOCK	20
155764	1692595	I have rates and capacity utilization information ready.	I have rates and capacity utilization information ready.	80436019	1473982515326	1473982515393	h	72
155764	1692595	I have rates and capacity utilization information ready.	I have rates and capacity utilization information ready.	80436024	1473982515361	1473982515511	a	65
155764	1692595	I have rates and capacity utilization information ready.	I have rates and capacity utilization information ready.	80436026	1473982515611	1473982515671	v	86
155764	1692595	I have rates and capacity utilization information ready.	I have rates and capacity utilization information ready.	80436050	1473982515731	1473982515858	e	69
155764	1692595	I have rates and capacity utilization information ready.	I have rates and capacity utilization information ready.	80436052	1473982515891	1473982515959	 	32
155764	1692595	I have rates and capacity utilization information ready.	I have rates and capacity utilization information ready.	80436054	1473982516242	1473982516327	r	82
155764	1692595	I have rates and capacity utilization information ready.	I have rates and capacity utilization information ready.	80436057	1473982516343	1473982516474	a	65
155764	1692595	I have rates and capacity utilization information ready.	I have rates and capacity utilization information ready.	80436059	1473982516474	1473982516559	t	84
155764	1692595	I have rates and capacity utilization information ready.	I have rates and capacity utilization information ready.	80436088	1473982516599	1473982516731	e	69
155764	1692595	I have rates and capacity utilization information ready.	I have rates and capacity utilization information ready.	80436089	1473982516834	1473982516935	s	83
155764	1692595	I have rates and capacity utilization information ready.	I have rates and capacity utilization information ready.	80436091	1473982516935	1473982517067	 	32
155764	1692595	I have rates and capacity utilization information ready.	I have rates and capacity utilization information ready.	80436093	1473982517136	1473982517288	a	65
155764	1692595	I have rates and capacity utilization information ready.	I have rates and capacity utilization information ready.	80436111	1473982517252	1473982517385	n	78
155764	1692595	I have rates and capacity utilization information ready.	I have rates and capacity utilization information ready.	80436112	1473982517402	1473982517521	d	68
155764	1692595	I have rates and capacity utilization information ready.	I have rates and capacity utilization information ready.	80436113	1473982517521	1473982517622	 	32
155764	1692595	I have rates and capacity utilization information ready.	I have rates and capacity utilization information ready.	80436114	1473982517685	1473982517856	c	67
155764	1692595	I have rates and capacity utilization information ready.	I have rates and capacity utilization information ready.	80436115	1473982517856	1473982517972	a	65
155764	1692595	I have rates and capacity utilization information ready.	I have rates and capacity utilization information ready.	80436162	1473982517935	1473982518026	p	80
155764	1692595	I have rates and capacity utilization information ready.	I have rates and capacity utilization information ready.	80436165	1473982518112	1473982518245	a	65
155764	1692595	I have rates and capacity utilization information ready.	I have rates and capacity utilization information ready.	80436166	1473982518276	1473982518414	c	67
155764	1692595	I have rates and capacity utilization information ready.	I have rates and capacity utilization information ready.	80436170	1473982518577	1473982518674	i	73
155764	1692595	I have rates and capacity utilization information ready.	I have rates and capacity utilization information ready.	80436175	1473982519023	1473982519188	t	84
155764	1692595	I have rates and capacity utilization information ready.	I have rates and capacity utilization information ready.	80436237	1473982519161	1473982519288	y	89
155764	1692595	I have rates and capacity utilization information ready.	I have rates and capacity utilization information ready.	80436240	1473982519331	1473982519431	 	32
155764	1692595	I have rates and capacity utilization information ready.	I have rates and capacity utilization information ready.	80436249	1473982519634	1473982519765	u	85
155764	1692595	I have rates and capacity utilization information ready.	I have rates and capacity utilization information ready.	80436252	1473982519852	1473982519969	t	84
155764	1692595	I have rates and capacity utilization information ready.	I have rates and capacity utilization information ready.	80436257	1473982520452	1473982520524	i	73
155764	1692595	I have rates and capacity utilization information ready.	I have rates and capacity utilization information ready.	80436259	1473982520671	1473982520740	l	76
155764	1692595	I have rates and capacity utilization information ready.	I have rates and capacity utilization information ready.	80436316	1473982520872	1473982520956	i	73
155764	1692595	I have rates and capacity utilization information ready.	I have rates and capacity utilization information ready.	80436324	1473982521277	1473982521431	x	88
155764	1692595	I have rates and capacity utilization information ready.	I have rates and capacity utilization information ready.	80436328	1473982521447	1473982521579	a	65
155764	1692595	I have rates and capacity utilization information ready.	I have rates and capacity utilization information ready.	80436333	1473982521634	1473982521717	t	84
155764	1692595	I have rates and capacity utilization information ready.	I have rates and capacity utilization information ready.	80436338	1473982521881	1473982521970	i	73
155764	1692595	I have rates and capacity utilization information ready.	I have rates and capacity utilization information ready.	80436486	1473982522066	1473982522150	o	79
155764	1692595	I have rates and capacity utilization information ready.	I have rates and capacity utilization information ready.	80436487	1473982522282	1473982522434	n	78
155764	1692595	I have rates and capacity utilization information ready.	I have rates and capacity utilization information ready.	80436488	1473982522435	1473982522566	 	32
155764	1692595	I have rates and capacity utilization information ready.	I have rates and capacity utilization information ready.	80436489	1473982522797	1473982522950	n	78
155764	1692595	I have rates and capacity utilization information ready.	I have rates and capacity utilization information ready.	80436490	1473982523483	1473982523576	BKSP	8
155764	1692595	I have rates and capacity utilization information ready.	I have rates and capacity utilization information ready.	80436491	1473982523939	1473982524011	BKSP	8
155764	1692595	I have rates and capacity utilization information ready.	I have rates and capacity utilization information ready.	80436492	1473982524113	1473982524161	BKSP	8
155764	1692595	I have rates and capacity utilization information ready.	I have rates and capacity utilization information ready.	80436495	1473982524261	1473982524308	BKSP	8
155764	1692595	I have rates and capacity utilization information ready.	I have rates and capacity utilization information ready.	80436498	1473982524391	1473982524460	BKSP	8
155764	1692595	I have rates and capacity utilization information ready.	I have rates and capacity utilization information ready.	80436501	1473982524544	1473982524603	BKSP	8
155764	1692595	I have rates and capacity utilization information ready.	I have rates and capacity utilization information ready.	80436504	1473982524711	1473982524761	BKSP	8
155764	1692595	I have rates and capacity utilization information ready.	I have rates and capacity utilization information ready.	80436507	1473982524876	1473982524940	BKSP	8
155764	1692595	I have rates and capacity utilization information ready.	I have rates and capacity utilization information ready.	80436511	1473982525444	1473982525575	x	88
155764	1692595	I have rates and capacity utilization information ready.	I have rates and capacity utilization information ready.	80436539	1473982525945	1473982526018	BKSP	8
155764	1692595	I have rates and capacity utilization information ready.	I have rates and capacity utilization information ready.	80436542	1473982526067	1473982526200	z	90
155764	1692595	I have rates and capacity utilization information ready.	I have rates and capacity utilization information ready.	80436544	1473982526200	1473982526332	a	65
155764	1692595	I have rates and capacity utilization information ready.	I have rates and capacity utilization information ready.	80436546	1473982526532	1473982526649	t	84
155764	1692595	I have rates and capacity utilization information ready.	I have rates and capacity utilization information ready.	80436548	1473982526685	1473982526754	i	73
155764	1692595	I have rates and capacity utilization information ready.	I have rates and capacity utilization information ready.	80436550	1473982526852	1473982526933	o	79
155764	1692595	I have rates and capacity utilization information ready.	I have rates and capacity utilization information ready.	80436562	1473982527054	1473982527204	n	78
155764	1692595	I have rates and capacity utilization information ready.	I have rates and capacity utilization information ready.	80436563	1473982527186	1473982527352	 	32
155764	1692595	I have rates and capacity utilization information ready.	I have rates and capacity utilization information ready.	80436564	1473982527354	1473982527470	i	73
155764	1692595	I have rates and capacity utilization information ready.	I have rates and capacity utilization information ready.	80436565	1473982527571	1473982527671	n	78
155764	1692595	I have rates and capacity utilization information ready.	I have rates and capacity utilization information ready.	80436566	1473982527755	1473982527845	f	70
155764	1692595	I have rates and capacity utilization information ready.	I have rates and capacity utilization information ready.	80436588	1473982527859	1473982527942	o	79
155764	1692595	I have rates and capacity utilization information ready.	I have rates and capacity utilization information ready.	80436590	1473982527987	1473982528103	r	82
155764	1692595	I have rates and capacity utilization information ready.	I have rates and capacity utilization information ready.	80436593	1473982528103	1473982528202	m	77
155764	1692595	I have rates and capacity utilization information ready.	I have rates and capacity utilization information ready.	80436595	1473982528356	1473982528476	a	65
155764	1692595	I have rates and capacity utilization information ready.	I have rates and capacity utilization information ready.	80436596	1473982528642	1473982528764	t	84
155764	1692595	I have rates and capacity utilization information ready.	I have rates and capacity utilization information ready.	80436612	1473982528786	1473982528864	i	73
155764	1692595	I have rates and capacity utilization information ready.	I have rates and capacity utilization information ready.	80436614	1473982528964	1473982529055	o	79
155764	1692595	I have rates and capacity utilization information ready.	I have rates and capacity utilization information ready.	80436617	1473982529171	1473982529326	n	78
155764	1692595	I have rates and capacity utilization information ready.	I have rates and capacity utilization information ready.	80436620	1473982529326	1473982529431	 	32
155764	1692595	I have rates and capacity utilization information ready.	I have rates and capacity utilization information ready.	80436659	1473982529380	1473982529530	r	82
155764	1692595	I have rates and capacity utilization information ready.	I have rates and capacity utilization information ready.	80436660	1473982529498	1473982529630	e	69
155764	1692595	I have rates and capacity utilization information ready.	I have rates and capacity utilization information ready.	80436661	1473982529712	1473982529865	a	65
155764	1692595	I have rates and capacity utilization information ready.	I have rates and capacity utilization information ready.	80436662	1473982529880	1473982530039	d	68
155764	1692595	I have rates and capacity utilization information ready.	I have rates and capacity utilization information ready.	80436664	1473982529999	1473982530096	y	89
155764	1692595	I have rates and capacity utilization information ready.	I have rates and capacity utilization information ready.	80436666	1473982530583	1473982530632	.	190
