PARTICIPANT_ID	TEST_SECTION_ID	SENTENCE	USER_INPUT	KEYSTROKE_ID	PRESS_TIME	RELEASE_TIME	LETTER	KEYCODE
162210	1760408	I will call you Monday morning to discuss.	I will call you Monday morning to discuss.	83637553	1474058152274	1474058152455	SHIFT	16
162210	1760408	I will call you Monday morning to discuss.	I will call you Monday morning to discuss.	83637557	1474058152376	1474058152463	I	73
162210	1760408	I will call you Monday morning to discuss.	I will call you Monday morning to discuss.	83637562	1474058152435	1474058152521	 	32
162210	1760408	I will call you Monday morning to discuss.	I will call you Monday morning to discuss.	83637569	1474058152503	1474058152611	w	87
162210	1760408	I will call you Monday morning to discuss.	I will call you Monday morning to discuss.	83637576	1474058152592	1474058152653	i	73
162210	1760408	I will call you Monday morning to discuss.	I will call you Monday morning to discuss.	83637581	1474058152722	1474058152792	l	76
162210	1760408	I will call you Monday morning to discuss.	I will call you Monday morning to discuss.	83637588	1474058152866	1474058152943	l	76
162210	1760408	I will call you Monday morning to discuss.	I will call you Monday morning to discuss.	83637595	1474058152903	1474058152997	 	32
162210	1760408	I will call you Monday morning to discuss.	I will call you Monday morning to discuss.	83637604	1474058152976	1474058153071	c	67
162210	1760408	I will call you Monday morning to discuss.	I will call you Monday morning to discuss.	83637611	1474058153092	1474058153170	a	65
162210	1760408	I will call you Monday morning to discuss.	I will call you Monday morning to discuss.	83637634	1474058153152	1474058153233	l	76
162210	1760408	I will call you Monday morning to discuss.	I will call you Monday morning to discuss.	83637637	1474058153293	1474058153366	l	76
162210	1760408	I will call you Monday morning to discuss.	I will call you Monday morning to discuss.	83637640	1474058153338	1474058153397	 	32
162210	1760408	I will call you Monday morning to discuss.	I will call you Monday morning to discuss.	83637642	1474058153482	1474058153525	y	89
162210	1760408	I will call you Monday morning to discuss.	I will call you Monday morning to discuss.	83637646	1474058153641	1474058153694	o	79
162210	1760408	I will call you Monday morning to discuss.	I will call you Monday morning to discuss.	83637649	1474058153760	1474058153839	u	85
162210	1760408	I will call you Monday morning to discuss.	I will call you Monday morning to discuss.	83637669	1474058153823	1474058153883	 	32
162210	1760408	I will call you Monday morning to discuss.	I will call you Monday morning to discuss.	83637680	1474058154039	1474058154211	SHIFT	16
162210	1760408	I will call you Monday morning to discuss.	I will call you Monday morning to discuss.	83637673	1474058154110	1474058154179	M	77
162210	1760408	I will call you Monday morning to discuss.	I will call you Monday morning to discuss.	83637688	1474058154258	1474058154319	o	79
162210	1760408	I will call you Monday morning to discuss.	I will call you Monday morning to discuss.	83637696	1474058154412	1474058154487	n	78
162210	1760408	I will call you Monday morning to discuss.	I will call you Monday morning to discuss.	83637704	1474058154505	1474058154581	d	68
162210	1760408	I will call you Monday morning to discuss.	I will call you Monday morning to discuss.	83637713	1474058154597	1474058154719	a	65
162210	1760408	I will call you Monday morning to discuss.	I will call you Monday morning to discuss.	83637741	1474058154699	1474058154770	y	89
162210	1760408	I will call you Monday morning to discuss.	I will call you Monday morning to discuss.	83637744	1474058154753	1474058154819	 	32
162210	1760408	I will call you Monday morning to discuss.	I will call you Monday morning to discuss.	83637746	1474058154965	1474058155035	m	77
162210	1760408	I will call you Monday morning to discuss.	I will call you Monday morning to discuss.	83637749	1474058155113	1474058155186	o	79
162210	1760408	I will call you Monday morning to discuss.	I will call you Monday morning to discuss.	83637754	1474058155178	1474058155249	r	82
162210	1760408	I will call you Monday morning to discuss.	I will call you Monday morning to discuss.	83637758	1474058155383	1474058155437	n	78
162210	1760408	I will call you Monday morning to discuss.	I will call you Monday morning to discuss.	83637769	1474058155531	1474058155587	i	73
162210	1760408	I will call you Monday morning to discuss.	I will call you Monday morning to discuss.	83637772	1474058155665	1474058155735	n	78
162210	1760408	I will call you Monday morning to discuss.	I will call you Monday morning to discuss.	83637775	1474058155814	1474058155883	g	71
162210	1760408	I will call you Monday morning to discuss.	I will call you Monday morning to discuss.	83637779	1474058155889	1474058155920	 	32
162210	1760408	I will call you Monday morning to discuss.	I will call you Monday morning to discuss.	83637782	1474058155967	1474058156020	t	84
162210	1760408	I will call you Monday morning to discuss.	I will call you Monday morning to discuss.	83637800	1474058156144	1474058156211	o	79
162210	1760408	I will call you Monday morning to discuss.	I will call you Monday morning to discuss.	83637804	1474058156182	1474058156237	 	32
162210	1760408	I will call you Monday morning to discuss.	I will call you Monday morning to discuss.	83637808	1474058156237	1474058156321	d	68
162210	1760408	I will call you Monday morning to discuss.	I will call you Monday morning to discuss.	83637811	1474058156337	1474058156400	i	73
162210	1760408	I will call you Monday morning to discuss.	I will call you Monday morning to discuss.	83637816	1474058156416	1474058156483	s	83
162210	1760408	I will call you Monday morning to discuss.	I will call you Monday morning to discuss.	83637844	1474058156599	1474058156653	c	67
162210	1760408	I will call you Monday morning to discuss.	I will call you Monday morning to discuss.	83637847	1474058156700	1474058156782	u	85
162210	1760408	I will call you Monday morning to discuss.	I will call you Monday morning to discuss.	83637850	1474058156800	1474058156854	s	83
162210	1760408	I will call you Monday morning to discuss.	I will call you Monday morning to discuss.	83637855	1474058156941	1474058157005	s	83
162210	1760408	I will call you Monday morning to discuss.	I will call you Monday morning to discuss.	83637848	1474058156984	1474058157036	.	190
162210	1760427	The opposition had plans to hold demonstrations on Monday afternoon.	The opposition had plans to hold demonstrations on Monday afternoon.	83638593	1474058165353	1474058165537	SHIFT	16
162210	1760427	The opposition had plans to hold demonstrations on Monday afternoon.	The opposition had plans to hold demonstrations on Monday afternoon.	83638588	1474058165468	1474058165537	T	84
162210	1760427	The opposition had plans to hold demonstrations on Monday afternoon.	The opposition had plans to hold demonstrations on Monday afternoon.	83638597	1474058165606	1474058165671	h	72
162210	1760427	The opposition had plans to hold demonstrations on Monday afternoon.	The opposition had plans to hold demonstrations on Monday afternoon.	83638603	1474058165686	1474058165764	e	69
162210	1760427	The opposition had plans to hold demonstrations on Monday afternoon.	The opposition had plans to hold demonstrations on Monday afternoon.	83638609	1474058165749	1474058165808	 	32
162210	1760427	The opposition had plans to hold demonstrations on Monday afternoon.	The opposition had plans to hold demonstrations on Monday afternoon.	83638614	1474058165906	1474058165970	o	79
162210	1760427	The opposition had plans to hold demonstrations on Monday afternoon.	The opposition had plans to hold demonstrations on Monday afternoon.	83638664	1474058166096	1474058166160	p	80
162210	1760427	The opposition had plans to hold demonstrations on Monday afternoon.	The opposition had plans to hold demonstrations on Monday afternoon.	83638670	1474058166242	1474058166323	p	80
162210	1760427	The opposition had plans to hold demonstrations on Monday afternoon.	The opposition had plans to hold demonstrations on Monday afternoon.	83638679	1474058166454	1474058166507	o	79
162210	1760427	The opposition had plans to hold demonstrations on Monday afternoon.	The opposition had plans to hold demonstrations on Monday afternoon.	83638683	1474058166603	1474058166655	s	83
162210	1760427	The opposition had plans to hold demonstrations on Monday afternoon.	The opposition had plans to hold demonstrations on Monday afternoon.	83638689	1474058166806	1474058166869	i	73
162210	1760427	The opposition had plans to hold demonstrations on Monday afternoon.	The opposition had plans to hold demonstrations on Monday afternoon.	83638705	1474058166986	1474058167051	t	84
162210	1760427	The opposition had plans to hold demonstrations on Monday afternoon.	The opposition had plans to hold demonstrations on Monday afternoon.	83638706	1474058167176	1474058167236	i	73
162210	1760427	The opposition had plans to hold demonstrations on Monday afternoon.	The opposition had plans to hold demonstrations on Monday afternoon.	83638707	1474058167325	1474058167388	o	79
162210	1760427	The opposition had plans to hold demonstrations on Monday afternoon.	The opposition had plans to hold demonstrations on Monday afternoon.	83638709	1474058167462	1474058167542	n	78
162210	1760427	The opposition had plans to hold demonstrations on Monday afternoon.	The opposition had plans to hold demonstrations on Monday afternoon.	83638714	1474058167574	1474058167637	 	32
162210	1760427	The opposition had plans to hold demonstrations on Monday afternoon.	The opposition had plans to hold demonstrations on Monday afternoon.	83638759	1474058167669	1474058167741	h	72
162210	1760427	The opposition had plans to hold demonstrations on Monday afternoon.	The opposition had plans to hold demonstrations on Monday afternoon.	83638763	1474058167826	1474058167910	a	65
162210	1760427	The opposition had plans to hold demonstrations on Monday afternoon.	The opposition had plans to hold demonstrations on Monday afternoon.	83638766	1474058167941	1474058168042	d	68
162210	1760427	The opposition had plans to hold demonstrations on Monday afternoon.	The opposition had plans to hold demonstrations on Monday afternoon.	83638769	1474058168026	1474058168086	 	32
162210	1760427	The opposition had plans to hold demonstrations on Monday afternoon.	The opposition had plans to hold demonstrations on Monday afternoon.	83638772	1474058168157	1474058168226	p	80
162210	1760427	The opposition had plans to hold demonstrations on Monday afternoon.	The opposition had plans to hold demonstrations on Monday afternoon.	83638788	1474058168310	1474058168370	l	76
162210	1760427	The opposition had plans to hold demonstrations on Monday afternoon.	The opposition had plans to hold demonstrations on Monday afternoon.	83638790	1474058168386	1474058168469	a	65
162210	1760427	The opposition had plans to hold demonstrations on Monday afternoon.	The opposition had plans to hold demonstrations on Monday afternoon.	83638796	1474058168501	1474058168554	n	78
162210	1760427	The opposition had plans to hold demonstrations on Monday afternoon.	The opposition had plans to hold demonstrations on Monday afternoon.	83638800	1474058168570	1474058168637	s	83
162210	1760427	The opposition had plans to hold demonstrations on Monday afternoon.	The opposition had plans to hold demonstrations on Monday afternoon.	83638806	1474058168652	1474058168711	 	32
162210	1760427	The opposition had plans to hold demonstrations on Monday afternoon.	The opposition had plans to hold demonstrations on Monday afternoon.	83638838	1474058168769	1474058168827	t	84
162210	1760427	The opposition had plans to hold demonstrations on Monday afternoon.	The opposition had plans to hold demonstrations on Monday afternoon.	83638845	1474058168932	1474058169019	o	79
162210	1760427	The opposition had plans to hold demonstrations on Monday afternoon.	The opposition had plans to hold demonstrations on Monday afternoon.	83638853	1474058168995	1474058169055	 	32
162210	1760427	The opposition had plans to hold demonstrations on Monday afternoon.	The opposition had plans to hold demonstrations on Monday afternoon.	83638864	1474058169127	1474058169188	h	72
162210	1760427	The opposition had plans to hold demonstrations on Monday afternoon.	The opposition had plans to hold demonstrations on Monday afternoon.	83638877	1474058169275	1474058169322	o	79
162210	1760427	The opposition had plans to hold demonstrations on Monday afternoon.	The opposition had plans to hold demonstrations on Monday afternoon.	83638913	1474058169400	1474058169485	l	76
162210	1760427	The opposition had plans to hold demonstrations on Monday afternoon.	The opposition had plans to hold demonstrations on Monday afternoon.	83638920	1474058169575	1474058169710	d	68
162210	1760427	The opposition had plans to hold demonstrations on Monday afternoon.	The opposition had plans to hold demonstrations on Monday afternoon.	83638927	1474058169712	1474058169803	 	32
162210	1760427	The opposition had plans to hold demonstrations on Monday afternoon.	The opposition had plans to hold demonstrations on Monday afternoon.	83638931	1474058169847	1474058169888	d	68
162210	1760427	The opposition had plans to hold demonstrations on Monday afternoon.	The opposition had plans to hold demonstrations on Monday afternoon.	83638941	1474058169975	1474058170054	e	69
162210	1760427	The opposition had plans to hold demonstrations on Monday afternoon.	The opposition had plans to hold demonstrations on Monday afternoon.	83639007	1474058170062	1474058170114	m	77
162210	1760427	The opposition had plans to hold demonstrations on Monday afternoon.	The opposition had plans to hold demonstrations on Monday afternoon.	83639009	1474058170191	1474058170270	o	79
162210	1760427	The opposition had plans to hold demonstrations on Monday afternoon.	The opposition had plans to hold demonstrations on Monday afternoon.	83639012	1474058170362	1474058170430	n	78
162210	1760427	The opposition had plans to hold demonstrations on Monday afternoon.	The opposition had plans to hold demonstrations on Monday afternoon.	83639015	1474058170763	1474058170864	s	83
162210	1760427	The opposition had plans to hold demonstrations on Monday afternoon.	The opposition had plans to hold demonstrations on Monday afternoon.	83639018	1474058170909	1474058170970	t	84
162210	1760427	The opposition had plans to hold demonstrations on Monday afternoon.	The opposition had plans to hold demonstrations on Monday afternoon.	83639064	1474058171276	1474058171338	r	82
162210	1760427	The opposition had plans to hold demonstrations on Monday afternoon.	The opposition had plans to hold demonstrations on Monday afternoon.	83639070	1474058171385	1474058171484	a	65
162210	1760427	The opposition had plans to hold demonstrations on Monday afternoon.	The opposition had plans to hold demonstrations on Monday afternoon.	83639078	1474058171518	1474058171603	t	84
162210	1760427	The opposition had plans to hold demonstrations on Monday afternoon.	The opposition had plans to hold demonstrations on Monday afternoon.	83639084	1474058171764	1474058171830	i	73
162210	1760427	The opposition had plans to hold demonstrations on Monday afternoon.	The opposition had plans to hold demonstrations on Monday afternoon.	83639087	1474058171930	1474058171987	o	79
162210	1760427	The opposition had plans to hold demonstrations on Monday afternoon.	The opposition had plans to hold demonstrations on Monday afternoon.	83639108	1474058172084	1474058172162	n	78
162210	1760427	The opposition had plans to hold demonstrations on Monday afternoon.	The opposition had plans to hold demonstrations on Monday afternoon.	83639114	1474058172217	1474058172302	s	83
162210	1760427	The opposition had plans to hold demonstrations on Monday afternoon.	The opposition had plans to hold demonstrations on Monday afternoon.	83639122	1474058172302	1474058172371	 	32
162210	1760427	The opposition had plans to hold demonstrations on Monday afternoon.	The opposition had plans to hold demonstrations on Monday afternoon.	83639129	1474058172436	1474058172513	o	79
162210	1760427	The opposition had plans to hold demonstrations on Monday afternoon.	The opposition had plans to hold demonstrations on Monday afternoon.	83639136	1474058172593	1474058172684	n	78
162210	1760427	The opposition had plans to hold demonstrations on Monday afternoon.	The opposition had plans to hold demonstrations on Monday afternoon.	83639170	1474058172669	1474058172734	 	32
162210	1760427	The opposition had plans to hold demonstrations on Monday afternoon.	The opposition had plans to hold demonstrations on Monday afternoon.	83639182	1474058172868	1474058173041	SHIFT	16
162210	1760427	The opposition had plans to hold demonstrations on Monday afternoon.	The opposition had plans to hold demonstrations on Monday afternoon.	83639174	1474058172953	1474058173009	M	77
162210	1760427	The opposition had plans to hold demonstrations on Monday afternoon.	The opposition had plans to hold demonstrations on Monday afternoon.	83639188	1474058173104	1474058173155	o	79
162210	1760427	The opposition had plans to hold demonstrations on Monday afternoon.	The opposition had plans to hold demonstrations on Monday afternoon.	83639194	1474058173253	1474058173322	n	78
162210	1760427	The opposition had plans to hold demonstrations on Monday afternoon.	The opposition had plans to hold demonstrations on Monday afternoon.	83639202	1474058173353	1474058173405	d	68
162210	1760427	The opposition had plans to hold demonstrations on Monday afternoon.	The opposition had plans to hold demonstrations on Monday afternoon.	83639206	1474058173453	1474058173538	a	65
162210	1760427	The opposition had plans to hold demonstrations on Monday afternoon.	The opposition had plans to hold demonstrations on Monday afternoon.	83639219	1474058173561	1474058173638	y	89
162210	1760427	The opposition had plans to hold demonstrations on Monday afternoon.	The opposition had plans to hold demonstrations on Monday afternoon.	83639223	1474058173638	1474058173747	 	32
162210	1760427	The opposition had plans to hold demonstrations on Monday afternoon.	The opposition had plans to hold demonstrations on Monday afternoon.	83639226	1474058173722	1474058173822	a	65
162210	1760427	The opposition had plans to hold demonstrations on Monday afternoon.	The opposition had plans to hold demonstrations on Monday afternoon.	83639229	1474058173885	1474058173954	f	70
162210	1760427	The opposition had plans to hold demonstrations on Monday afternoon.	The opposition had plans to hold demonstrations on Monday afternoon.	83639233	1474058174002	1474058174055	t	84
162210	1760427	The opposition had plans to hold demonstrations on Monday afternoon.	The opposition had plans to hold demonstrations on Monday afternoon.	83639253	1474058174071	1474058174110	e	69
162210	1760427	The opposition had plans to hold demonstrations on Monday afternoon.	The opposition had plans to hold demonstrations on Monday afternoon.	83639257	1474058174186	1474058174265	r	82
162210	1760427	The opposition had plans to hold demonstrations on Monday afternoon.	The opposition had plans to hold demonstrations on Monday afternoon.	83639263	1474058174258	1474058174306	n	78
162210	1760427	The opposition had plans to hold demonstrations on Monday afternoon.	The opposition had plans to hold demonstrations on Monday afternoon.	83639270	1474058174424	1474058174488	o	79
162210	1760427	The opposition had plans to hold demonstrations on Monday afternoon.	The opposition had plans to hold demonstrations on Monday afternoon.	83639275	1474058174556	1474058174640	o	79
162210	1760427	The opposition had plans to hold demonstrations on Monday afternoon.	The opposition had plans to hold demonstrations on Monday afternoon.	83639299	1474058174746	1474058174817	n	78
162210	1760427	The opposition had plans to hold demonstrations on Monday afternoon.	The opposition had plans to hold demonstrations on Monday afternoon.	83639302	1474058174957	1474058175025	.	190
162210	1760457	The strategy will be very much the same.	The strategy will be very much the same.	83639636	1474058180412	1474058180609	SHIFT	16
162210	1760457	The strategy will be very much the same.	The strategy will be very much the same.	83639632	1474058180534	1474058180593	T	84
162210	1760457	The strategy will be very much the same.	The strategy will be very much the same.	83639641	1474058180672	1474058180765	h	72
162210	1760457	The strategy will be very much the same.	The strategy will be very much the same.	83639645	1474058180765	1474058180834	e	69
162210	1760457	The strategy will be very much the same.	The strategy will be very much the same.	83639649	1474058180850	1474058180935	 	32
162210	1760457	The strategy will be very much the same.	The strategy will be very much the same.	83639653	1474058181035	1474058181104	s	83
162210	1760457	The strategy will be very much the same.	The strategy will be very much the same.	83639670	1474058181135	1474058181189	t	84
162210	1760457	The strategy will be very much the same.	The strategy will be very much the same.	83639674	1474058181239	1474058181304	r	82
162210	1760457	The strategy will be very much the same.	The strategy will be very much the same.	83639675	1474058181351	1474058181451	a	65
162210	1760457	The strategy will be very much the same.	The strategy will be very much the same.	83639679	1474058181736	1474058181821	t	84
162210	1760457	The strategy will be very much the same.	The strategy will be very much the same.	83639725	1474058181806	1474058181892	e	69
162210	1760457	The strategy will be very much the same.	The strategy will be very much the same.	83639729	1474058181943	1474058182006	g	71
162210	1760457	The strategy will be very much the same.	The strategy will be very much the same.	83639736	1474058182169	1474058182237	y	89
162210	1760457	The strategy will be very much the same.	The strategy will be very much the same.	83639741	1474058182271	1474058182338	 	32
162210	1760457	The strategy will be very much the same.	The strategy will be very much the same.	83639747	1474058182427	1474058182512	w	87
162210	1760457	The strategy will be very much the same.	The strategy will be very much the same.	83639752	1474058182585	1474058182655	i	73
162210	1760457	The strategy will be very much the same.	The strategy will be very much the same.	83639762	1474058182743	1474058182806	l	76
162210	1760457	The strategy will be very much the same.	The strategy will be very much the same.	83639763	1474058182877	1474058182938	l	76
162210	1760457	The strategy will be very much the same.	The strategy will be very much the same.	83639766	1474058182930	1474058182972	 	32
162210	1760457	The strategy will be very much the same.	The strategy will be very much the same.	83639771	1474058183055	1474058183107	b	66
162210	1760457	The strategy will be very much the same.	The strategy will be very much the same.	83639777	1474058183122	1474058183205	e	69
162210	1760457	The strategy will be very much the same.	The strategy will be very much the same.	83639809	1474058183226	1474058183287	 	32
162210	1760457	The strategy will be very much the same.	The strategy will be very much the same.	83639813	1474058183372	1474058183441	v	86
162210	1760457	The strategy will be very much the same.	The strategy will be very much the same.	83639815	1474058183472	1474058183541	e	69
162210	1760457	The strategy will be very much the same.	The strategy will be very much the same.	83639820	1474058183631	1474058183688	r	82
162210	1760457	The strategy will be very much the same.	The strategy will be very much the same.	83639823	1474058183704	1474058183757	y	89
162210	1760457	The strategy will be very much the same.	The strategy will be very much the same.	83639852	1474058183783	1474058183868	 	32
162210	1760457	The strategy will be very much the same.	The strategy will be very much the same.	83639859	1474058183974	1474058184042	m	77
162210	1760457	The strategy will be very much the same.	The strategy will be very much the same.	83639865	1474058184158	1474058184213	u	85
162210	1760457	The strategy will be very much the same.	The strategy will be very much the same.	83639867	1474058184243	1474058184306	c	67
162210	1760457	The strategy will be very much the same.	The strategy will be very much the same.	83639897	1474058184289	1474058184358	h	72
162210	1760457	The strategy will be very much the same.	The strategy will be very much the same.	83639901	1474058184358	1474058184417	 	32
162210	1760457	The strategy will be very much the same.	The strategy will be very much the same.	83639905	1474058184474	1474058184543	t	84
162210	1760457	The strategy will be very much the same.	The strategy will be very much the same.	83639914	1474058184590	1474058184675	h	72
162210	1760457	The strategy will be very much the same.	The strategy will be very much the same.	83639921	1474058184644	1474058184706	e	69
162210	1760457	The strategy will be very much the same.	The strategy will be very much the same.	83639927	1474058184760	1474058184840	 	32
162210	1760457	The strategy will be very much the same.	The strategy will be very much the same.	83639945	1474058184814	1474058184919	s	83
162210	1760457	The strategy will be very much the same.	The strategy will be very much the same.	83639949	1474058184976	1474058185084	a	65
162210	1760457	The strategy will be very much the same.	The strategy will be very much the same.	83639955	1474058185061	1474058185124	m	77
162210	1760457	The strategy will be very much the same.	The strategy will be very much the same.	83639958	1474058185124	1474058185237	e	69
162210	1760457	The strategy will be very much the same.	The strategy will be very much the same.	83639962	1474058185217	1474058185304	.	190
162210	1760468	Another group of policemen was due to be deployed.	Another group of policemen was due to be deployed.	83640332	1474058189819	1474058189957	SHIFT	16
162210	1760468	Another group of policemen was due to be deployed.	Another group of policemen was due to be deployed.	83640336	1474058189889	1474058189978	A	65
162210	1760468	Another group of policemen was due to be deployed.	Another group of policemen was due to be deployed.	83640340	1474058189957	1474058190007	n	78
162210	1760468	Another group of policemen was due to be deployed.	Another group of policemen was due to be deployed.	83640345	1474058190120	1474058190174	o	79
162210	1760468	Another group of policemen was due to be deployed.	Another group of policemen was due to be deployed.	83640351	1474058190289	1474058190341	t	84
162210	1760468	Another group of policemen was due to be deployed.	Another group of policemen was due to be deployed.	83640357	1474058190411	1474058190494	h	72
162210	1760468	Another group of policemen was due to be deployed.	Another group of policemen was due to be deployed.	83640373	1474058190457	1474058190508	e	69
162210	1760468	Another group of policemen was due to be deployed.	Another group of policemen was due to be deployed.	83640375	1474058190557	1474058190657	r	82
162210	1760468	Another group of policemen was due to be deployed.	Another group of policemen was due to be deployed.	83640381	1474058190620	1474058190680	 	32
162210	1760468	Another group of policemen was due to be deployed.	Another group of policemen was due to be deployed.	83640388	1474058190729	1474058190799	g	71
162210	1760468	Another group of policemen was due to be deployed.	Another group of policemen was due to be deployed.	83640397	1474058190824	1474058190905	r	82
162210	1760468	Another group of policemen was due to be deployed.	Another group of policemen was due to be deployed.	83640403	1474058190920	1474058190975	o	79
162210	1760468	Another group of policemen was due to be deployed.	Another group of policemen was due to be deployed.	83640440	1474058191090	1474058191124	u	85
162210	1760468	Another group of policemen was due to be deployed.	Another group of policemen was due to be deployed.	83640444	1474058191234	1474058191305	p	80
162210	1760468	Another group of policemen was due to be deployed.	Another group of policemen was due to be deployed.	83640449	1474058191320	1474058191391	 	32
162210	1760468	Another group of policemen was due to be deployed.	Another group of policemen was due to be deployed.	83640454	1474058191460	1474058191535	o	79
162210	1760468	Another group of policemen was due to be deployed.	Another group of policemen was due to be deployed.	83640460	1474058191568	1474058191638	f	70
162210	1760468	Another group of policemen was due to be deployed.	Another group of policemen was due to be deployed.	83640521	1474058191650	1474058191705	 	32
162210	1760468	Another group of policemen was due to be deployed.	Another group of policemen was due to be deployed.	83640531	1474058191824	1474058191890	p	80
162210	1760468	Another group of policemen was due to be deployed.	Another group of policemen was due to be deployed.	83640540	1474058191993	1474058192041	o	79
162210	1760468	Another group of policemen was due to be deployed.	Another group of policemen was due to be deployed.	83640550	1474058192445	1474058192492	l	76
162210	1760468	Another group of policemen was due to be deployed.	Another group of policemen was due to be deployed.	83640559	1474058192572	1474058192624	i	73
162210	1760468	Another group of policemen was due to be deployed.	Another group of policemen was due to be deployed.	83640605	1474058192758	1474058192837	e	69
162210	1760468	Another group of policemen was due to be deployed.	Another group of policemen was due to be deployed.	83640607	1474058193066	1474058193122	BKSP	8
162210	1760468	Another group of policemen was due to be deployed.	Another group of policemen was due to be deployed.	83640611	1474058193166	1474058193239	c	67
162210	1760468	Another group of policemen was due to be deployed.	Another group of policemen was due to be deployed.	83640615	1474058193298	1474058193399	e	69
162210	1760468	Another group of policemen was due to be deployed.	Another group of policemen was due to be deployed.	83640624	1474058193529	1474058193606	m	77
162210	1760468	Another group of policemen was due to be deployed.	Another group of policemen was due to be deployed.	83640630	1474058193638	1474058193712	e	69
162210	1760468	Another group of policemen was due to be deployed.	Another group of policemen was due to be deployed.	83640643	1474058193734	1474058193791	n	78
162210	1760468	Another group of policemen was due to be deployed.	Another group of policemen was due to be deployed.	83640647	1474058193857	1474058193944	 	32
162210	1760468	Another group of policemen was due to be deployed.	Another group of policemen was due to be deployed.	83640653	1474058193923	1474058194007	w	87
162210	1760468	Another group of policemen was due to be deployed.	Another group of policemen was due to be deployed.	83640658	1474058194248	1474058194322	a	65
162210	1760468	Another group of policemen was due to be deployed.	Another group of policemen was due to be deployed.	83640666	1474058194365	1474058194438	s	83
162210	1760468	Another group of policemen was due to be deployed.	Another group of policemen was due to be deployed.	83640681	1474058194453	1474058194522	 	32
162210	1760468	Another group of policemen was due to be deployed.	Another group of policemen was due to be deployed.	83640686	1474058194571	1474058194639	d	68
162210	1760468	Another group of policemen was due to be deployed.	Another group of policemen was due to be deployed.	83640690	1474058194655	1474058194714	u	85
162210	1760468	Another group of policemen was due to be deployed.	Another group of policemen was due to be deployed.	83640692	1474058194730	1474058194813	e	69
162210	1760468	Another group of policemen was due to be deployed.	Another group of policemen was due to be deployed.	83640715	1474058194790	1474058194862	 	32
162210	1760468	Another group of policemen was due to be deployed.	Another group of policemen was due to be deployed.	83640718	1474058194888	1474058194959	t	84
162210	1760468	Another group of policemen was due to be deployed.	Another group of policemen was due to be deployed.	83640723	1474058195050	1474058195135	o	79
162210	1760468	Another group of policemen was due to be deployed.	Another group of policemen was due to be deployed.	83640727	1474058195113	1474058195177	 	32
162210	1760468	Another group of policemen was due to be deployed.	Another group of policemen was due to be deployed.	83640733	1474058195263	1474058195308	b	66
162210	1760468	Another group of policemen was due to be deployed.	Another group of policemen was due to be deployed.	83640742	1474058195323	1474058195406	e	69
162210	1760468	Another group of policemen was due to be deployed.	Another group of policemen was due to be deployed.	83640802	1474058195514	1474058195596	 	32
162210	1760468	Another group of policemen was due to be deployed.	Another group of policemen was due to be deployed.	83640807	1474058195719	1474058195774	d	68
162210	1760468	Another group of policemen was due to be deployed.	Another group of policemen was due to be deployed.	83640811	1474058195856	1474058195937	e	69
162210	1760468	Another group of policemen was due to be deployed.	Another group of policemen was due to be deployed.	83640814	1474058196168	1474058196229	p	80
162210	1760468	Another group of policemen was due to be deployed.	Another group of policemen was due to be deployed.	83640816	1474058196336	1474058196387	l	76
162210	1760468	Another group of policemen was due to be deployed.	Another group of policemen was due to be deployed.	83640831	1474058196489	1474058196556	o	79
162210	1760468	Another group of policemen was due to be deployed.	Another group of policemen was due to be deployed.	83640835	1474058196691	1474058196739	y	89
162210	1760468	Another group of policemen was due to be deployed.	Another group of policemen was due to be deployed.	83640839	1474058196755	1474058196823	e	69
162210	1760468	Another group of policemen was due to be deployed.	Another group of policemen was due to be deployed.	83640844	1474058196896	1474058196969	d	68
162210	1760483	Lusinchi is currently in Boston, MA, according to his attorney.	Lusinchi is currently in Boston, MA, according to his attorney	83641318	1474058203307	1474058203491	SHIFT	16
162210	1760483	Lusinchi is currently in Boston, MA, according to his attorney.	Lusinchi is currently in Boston, MA, according to his attorney	83641312	1474058203397	1474058203454	L	76
162210	1760483	Lusinchi is currently in Boston, MA, according to his attorney.	Lusinchi is currently in Boston, MA, according to his attorney	83641325	1474058203569	1474058203633	u	85
162210	1760483	Lusinchi is currently in Boston, MA, according to his attorney.	Lusinchi is currently in Boston, MA, according to his attorney	83641330	1474058203664	1474058203761	s	83
162210	1760483	Lusinchi is currently in Boston, MA, according to his attorney.	Lusinchi is currently in Boston, MA, according to his attorney	83641339	1474058203807	1474058203874	i	73
162210	1760483	Lusinchi is currently in Boston, MA, according to his attorney.	Lusinchi is currently in Boston, MA, according to his attorney	83641345	1474058204023	1474058204096	n	78
162210	1760483	Lusinchi is currently in Boston, MA, according to his attorney.	Lusinchi is currently in Boston, MA, according to his attorney	83641378	1474058204175	1474058204259	c	67
162210	1760483	Lusinchi is currently in Boston, MA, according to his attorney.	Lusinchi is currently in Boston, MA, according to his attorney	83641381	1474058204225	1474058204293	h	72
162210	1760483	Lusinchi is currently in Boston, MA, according to his attorney.	Lusinchi is currently in Boston, MA, according to his attorney	83641383	1474058204393	1474058204486	i	73
162210	1760483	Lusinchi is currently in Boston, MA, according to his attorney.	Lusinchi is currently in Boston, MA, according to his attorney	83641385	1474058204470	1474058204534	 	32
162210	1760483	Lusinchi is currently in Boston, MA, according to his attorney.	Lusinchi is currently in Boston, MA, according to his attorney	83641389	1474058204595	1474058204670	i	73
162210	1760483	Lusinchi is currently in Boston, MA, according to his attorney.	Lusinchi is currently in Boston, MA, according to his attorney	83641412	1474058204659	1474058204749	s	83
162210	1760483	Lusinchi is currently in Boston, MA, according to his attorney.	Lusinchi is currently in Boston, MA, according to his attorney	83641414	1474058204725	1474058204809	 	32
162210	1760483	Lusinchi is currently in Boston, MA, according to his attorney.	Lusinchi is currently in Boston, MA, according to his attorney	83641417	1474058204869	1474058204941	c	67
162210	1760483	Lusinchi is currently in Boston, MA, according to his attorney.	Lusinchi is currently in Boston, MA, according to his attorney	83641421	1474058204957	1474058205009	u	85
162210	1760483	Lusinchi is currently in Boston, MA, according to his attorney.	Lusinchi is currently in Boston, MA, according to his attorney	83641424	1474058205056	1474058205139	r	82
162210	1760483	Lusinchi is currently in Boston, MA, according to his attorney.	Lusinchi is currently in Boston, MA, according to his attorney	83641430	1474058205209	1474058205274	r	82
162210	1760483	Lusinchi is currently in Boston, MA, according to his attorney.	Lusinchi is currently in Boston, MA, according to his attorney	83641458	1474058205359	1474058205463	e	69
162210	1760483	Lusinchi is currently in Boston, MA, according to his attorney.	Lusinchi is currently in Boston, MA, according to his attorney	83641460	1474058205463	1474058205509	n	78
162210	1760483	Lusinchi is currently in Boston, MA, according to his attorney.	Lusinchi is currently in Boston, MA, according to his attorney	83641467	1474058205627	1474058205694	t	84
162210	1760483	Lusinchi is currently in Boston, MA, according to his attorney.	Lusinchi is currently in Boston, MA, according to his attorney	83641472	1474058205840	1474058205903	l	76
162210	1760483	Lusinchi is currently in Boston, MA, according to his attorney.	Lusinchi is currently in Boston, MA, according to his attorney	83641478	1474058206045	1474058206096	y	89
162210	1760483	Lusinchi is currently in Boston, MA, according to his attorney.	Lusinchi is currently in Boston, MA, according to his attorney	83641495	1474058206119	1474058206158	 	32
162210	1760483	Lusinchi is currently in Boston, MA, according to his attorney.	Lusinchi is currently in Boston, MA, according to his attorney	83641498	1474058206226	1474058206296	i	73
162210	1760483	Lusinchi is currently in Boston, MA, according to his attorney.	Lusinchi is currently in Boston, MA, according to his attorney	83641503	1474058206395	1474058206477	n	78
162210	1760483	Lusinchi is currently in Boston, MA, according to his attorney.	Lusinchi is currently in Boston, MA, according to his attorney	83641506	1474058206458	1474058206524	 	32
162210	1760483	Lusinchi is currently in Boston, MA, according to his attorney.	Lusinchi is currently in Boston, MA, according to his attorney	83641541	1474058206524	1474058206695	SHIFT	16
162210	1760483	Lusinchi is currently in Boston, MA, according to his attorney.	Lusinchi is currently in Boston, MA, according to his attorney	83641509	1474058206597	1474058206658	B	66
162210	1760483	Lusinchi is currently in Boston, MA, according to his attorney.	Lusinchi is currently in Boston, MA, according to his attorney	83641545	1474058206763	1474058206830	o	79
162210	1760483	Lusinchi is currently in Boston, MA, according to his attorney.	Lusinchi is currently in Boston, MA, according to his attorney	83641549	1474058206846	1474058206946	s	83
162210	1760483	Lusinchi is currently in Boston, MA, according to his attorney.	Lusinchi is currently in Boston, MA, according to his attorney	83641552	1474058206949	1474058206998	t	84
162210	1760483	Lusinchi is currently in Boston, MA, according to his attorney.	Lusinchi is currently in Boston, MA, according to his attorney	83641555	1474058207114	1474058207177	o	79
162210	1760483	Lusinchi is currently in Boston, MA, according to his attorney.	Lusinchi is currently in Boston, MA, according to his attorney	83641558	1474058207269	1474058207341	n	78
162210	1760483	Lusinchi is currently in Boston, MA, according to his attorney.	Lusinchi is currently in Boston, MA, according to his attorney	83641601	1474058207477	1474058207541	,	188
162210	1760483	Lusinchi is currently in Boston, MA, according to his attorney.	Lusinchi is currently in Boston, MA, according to his attorney	83641604	1474058207640	1474058207715	 	32
162210	1760483	Lusinchi is currently in Boston, MA, according to his attorney.	Lusinchi is currently in Boston, MA, according to his attorney	83641618	1474058207715	1474058208062	SHIFT	16
162210	1760483	Lusinchi is currently in Boston, MA, according to his attorney.	Lusinchi is currently in Boston, MA, according to his attorney	83641607	1474058207815	1474058207879	M	77
162210	1760483	Lusinchi is currently in Boston, MA, according to his attorney.	Lusinchi is currently in Boston, MA, according to his attorney	83641611	1474058207947	1474058208046	A	65
162210	1760483	Lusinchi is currently in Boston, MA, according to his attorney.	Lusinchi is currently in Boston, MA, according to his attorney	83641622	1474058208244	1474058208298	,	188
162210	1760483	Lusinchi is currently in Boston, MA, according to his attorney.	Lusinchi is currently in Boston, MA, according to his attorney	83641653	1474058208412	1474058208493	 	32
162210	1760483	Lusinchi is currently in Boston, MA, according to his attorney.	Lusinchi is currently in Boston, MA, according to his attorney	83641655	1474058208611	1474058208683	a	65
162210	1760483	Lusinchi is currently in Boston, MA, according to his attorney.	Lusinchi is currently in Boston, MA, according to his attorney	83641661	1474058208806	1474058208853	c	67
162210	1760483	Lusinchi is currently in Boston, MA, according to his attorney.	Lusinchi is currently in Boston, MA, according to his attorney	83641664	1474058208931	1474058209008	c	67
162210	1760483	Lusinchi is currently in Boston, MA, according to his attorney.	Lusinchi is currently in Boston, MA, according to his attorney	83641672	1474058209008	1474058209075	o	79
162210	1760483	Lusinchi is currently in Boston, MA, according to his attorney.	Lusinchi is currently in Boston, MA, according to his attorney	83641708	1474058209099	1474058209154	r	82
162210	1760483	Lusinchi is currently in Boston, MA, according to his attorney.	Lusinchi is currently in Boston, MA, according to his attorney	83641712	1474058209222	1474058209292	d	68
162210	1760483	Lusinchi is currently in Boston, MA, according to his attorney.	Lusinchi is currently in Boston, MA, according to his attorney	83641716	1474058209263	1474058209322	i	73
162210	1760483	Lusinchi is currently in Boston, MA, according to his attorney.	Lusinchi is currently in Boston, MA, according to his attorney	83641720	1474058209401	1474058209470	n	78
162210	1760483	Lusinchi is currently in Boston, MA, according to his attorney.	Lusinchi is currently in Boston, MA, according to his attorney	83641726	1474058209554	1474058209624	g	71
162210	1760483	Lusinchi is currently in Boston, MA, according to his attorney.	Lusinchi is currently in Boston, MA, according to his attorney	83641746	1474058209624	1474058209670	 	32
162210	1760483	Lusinchi is currently in Boston, MA, according to his attorney.	Lusinchi is currently in Boston, MA, according to his attorney	83641749	1474058209740	1474058209792	t	84
162210	1760483	Lusinchi is currently in Boston, MA, according to his attorney.	Lusinchi is currently in Boston, MA, according to his attorney	83641752	1474058209918	1474058210006	o	79
162210	1760483	Lusinchi is currently in Boston, MA, according to his attorney.	Lusinchi is currently in Boston, MA, according to his attorney	83641756	1474058209980	1474058210040	 	32
162210	1760483	Lusinchi is currently in Boston, MA, according to his attorney.	Lusinchi is currently in Boston, MA, according to his attorney	83641759	1474058210125	1474058210175	h	72
162210	1760483	Lusinchi is currently in Boston, MA, according to his attorney.	Lusinchi is currently in Boston, MA, according to his attorney	83641775	1474058210256	1474058210335	i	73
162210	1760483	Lusinchi is currently in Boston, MA, according to his attorney.	Lusinchi is currently in Boston, MA, according to his attorney	83641779	1474058210312	1474058210427	s	83
162210	1760483	Lusinchi is currently in Boston, MA, according to his attorney.	Lusinchi is currently in Boston, MA, according to his attorney	83641786	1474058210408	1474058210490	 	32
162210	1760483	Lusinchi is currently in Boston, MA, according to his attorney.	Lusinchi is currently in Boston, MA, according to his attorney	83641791	1474058210522	1474058210619	a	65
162210	1760483	Lusinchi is currently in Boston, MA, according to his attorney.	Lusinchi is currently in Boston, MA, according to his attorney	83641866	1474058210611	1474058210657	t	84
162210	1760483	Lusinchi is currently in Boston, MA, according to his attorney.	Lusinchi is currently in Boston, MA, according to his attorney	83641871	1474058210735	1474058210812	t	84
162210	1760483	Lusinchi is currently in Boston, MA, according to his attorney.	Lusinchi is currently in Boston, MA, according to his attorney	83641875	1474058211015	1474058211090	o	79
162210	1760483	Lusinchi is currently in Boston, MA, according to his attorney.	Lusinchi is currently in Boston, MA, according to his attorney	83641878	1474058211155	1474058211224	r	82
162210	1760483	Lusinchi is currently in Boston, MA, according to his attorney.	Lusinchi is currently in Boston, MA, according to his attorney	83641883	1474058211292	1474058211350	n	78
162210	1760483	Lusinchi is currently in Boston, MA, according to his attorney.	Lusinchi is currently in Boston, MA, according to his attorney	83641888	1474058211380	1474058211479	e	69
162210	1760483	Lusinchi is currently in Boston, MA, according to his attorney.	Lusinchi is currently in Boston, MA, according to his attorney	83641881	1474058211458	1474058211530	y	89
162210	1760507	They tend to know who hooligans are and don't sell to them.	They tend to know who hooligans are and don't sell to them.	83642438	1474058218174	1474058218341	SHIFT	16
162210	1760507	They tend to know who hooligans are and don't sell to them.	They tend to know who hooligans are and don't sell to them.	83642430	1474058218252	1474058218325	T	84
162210	1760507	They tend to know who hooligans are and don't sell to them.	They tend to know who hooligans are and don't sell to them.	83642446	1474058218412	1474058218478	h	72
162210	1760507	They tend to know who hooligans are and don't sell to them.	They tend to know who hooligans are and don't sell to them.	83642452	1474058218493	1474058218609	e	69
162210	1760507	They tend to know who hooligans are and don't sell to them.	They tend to know who hooligans are and don't sell to them.	83642460	1474058218591	1474058218675	y	89
162210	1760507	They tend to know who hooligans are and don't sell to them.	They tend to know who hooligans are and don't sell to them.	83642475	1474058218659	1474058218725	 	32
162210	1760507	They tend to know who hooligans are and don't sell to them.	They tend to know who hooligans are and don't sell to them.	83642479	1474058218775	1474058218857	t	84
162210	1760507	They tend to know who hooligans are and don't sell to them.	They tend to know who hooligans are and don't sell to them.	83642481	1474058218938	1474058219023	e	69
162210	1760507	They tend to know who hooligans are and don't sell to them.	They tend to know who hooligans are and don't sell to them.	83642486	1474058219055	1474058219111	n	78
162210	1760507	They tend to know who hooligans are and don't sell to them.	They tend to know who hooligans are and don't sell to them.	83642489	1474058219077	1474058219116	m	77
162210	1760507	They tend to know who hooligans are and don't sell to them.	They tend to know who hooligans are and don't sell to them.	83642493	1474058219127	1474058219191	d	68
162210	1760507	They tend to know who hooligans are and don't sell to them.	They tend to know who hooligans are and don't sell to them.	83642548	1474058219539	1474058219595	BKSP	8
162210	1760507	They tend to know who hooligans are and don't sell to them.	They tend to know who hooligans are and don't sell to them.	83642551	1474058219677	1474058219759	BKSP	8
162210	1760507	They tend to know who hooligans are and don't sell to them.	They tend to know who hooligans are and don't sell to them.	83642557	1474058219808	1474058219904	d	68
162210	1760507	They tend to know who hooligans are and don't sell to them.	They tend to know who hooligans are and don't sell to them.	83642560	1474058219924	1474058219960	 	32
162210	1760507	They tend to know who hooligans are and don't sell to them.	They tend to know who hooligans are and don't sell to them.	83642564	1474058220026	1474058220093	t	84
162210	1760507	They tend to know who hooligans are and don't sell to them.	They tend to know who hooligans are and don't sell to them.	83642566	1474058220210	1474058220294	o	79
162210	1760507	They tend to know who hooligans are and don't sell to them.	They tend to know who hooligans are and don't sell to them.	83642581	1474058220261	1474058220323	 	32
162210	1760507	They tend to know who hooligans are and don't sell to them.	They tend to know who hooligans are and don't sell to them.	83642585	1474058220397	1474058220461	k	75
162210	1760507	They tend to know who hooligans are and don't sell to them.	They tend to know who hooligans are and don't sell to them.	83642590	1474058220544	1474058220602	n	78
162210	1760507	They tend to know who hooligans are and don't sell to them.	They tend to know who hooligans are and don't sell to them.	83642594	1474058220679	1474058220770	o	79
162210	1760507	They tend to know who hooligans are and don't sell to them.	They tend to know who hooligans are and don't sell to them.	83642599	1474058220742	1474058220842	w	87
162210	1760507	They tend to know who hooligans are and don't sell to them.	They tend to know who hooligans are and don't sell to them.	83642603	1474058220842	1474058220930	 	32
162210	1760507	They tend to know who hooligans are and don't sell to them.	They tend to know who hooligans are and don't sell to them.	83642615	1474058220971	1474058221048	w	87
162210	1760507	They tend to know who hooligans are and don't sell to them.	They tend to know who hooligans are and don't sell to them.	83642618	1474058221010	1474058221079	h	72
162210	1760507	They tend to know who hooligans are and don't sell to them.	They tend to know who hooligans are and don't sell to them.	83642624	1474058221180	1474058221265	o	79
162210	1760507	They tend to know who hooligans are and don't sell to them.	They tend to know who hooligans are and don't sell to them.	83642630	1474058221242	1474058221310	 	32
162210	1760507	They tend to know who hooligans are and don't sell to them.	They tend to know who hooligans are and don't sell to them.	83642634	1474058221411	1474058221495	h	72
162210	1760507	They tend to know who hooligans are and don't sell to them.	They tend to know who hooligans are and don't sell to them.	83642671	1474058221611	1474058221680	o	79
162210	1760507	They tend to know who hooligans are and don't sell to them.	They tend to know who hooligans are and don't sell to them.	83642675	1474058221727	1474058221796	o	79
162210	1760507	They tend to know who hooligans are and don't sell to them.	They tend to know who hooligans are and don't sell to them.	83642679	1474058221911	1474058221978	l	76
162210	1760507	They tend to know who hooligans are and don't sell to them.	They tend to know who hooligans are and don't sell to them.	83642684	1474058222056	1474058222115	i	73
162210	1760507	They tend to know who hooligans are and don't sell to them.	They tend to know who hooligans are and don't sell to them.	83642688	1474058222243	1474058222296	g	71
162210	1760507	They tend to know who hooligans are and don't sell to them.	They tend to know who hooligans are and don't sell to them.	83642708	1474058222327	1474058222412	a	65
162210	1760507	They tend to know who hooligans are and don't sell to them.	They tend to know who hooligans are and don't sell to them.	83642717	1474058222477	1474058222543	n	78
162210	1760507	They tend to know who hooligans are and don't sell to them.	They tend to know who hooligans are and don't sell to them.	83642727	1474058222543	1474058222643	s	83
162210	1760507	They tend to know who hooligans are and don't sell to them.	They tend to know who hooligans are and don't sell to them.	83642734	1474058222676	1474058222762	 	32
162210	1760507	They tend to know who hooligans are and don't sell to them.	They tend to know who hooligans are and don't sell to them.	83642762	1474058222742	1474058222813	a	65
162210	1760507	They tend to know who hooligans are and don't sell to them.	They tend to know who hooligans are and don't sell to them.	83642766	1474058222876	1474058222944	r	82
162210	1760507	They tend to know who hooligans are and don't sell to them.	They tend to know who hooligans are and don't sell to them.	83642775	1474058223017	1474058223091	e	69
162210	1760507	They tend to know who hooligans are and don't sell to them.	They tend to know who hooligans are and don't sell to them.	83642783	1474058223102	1474058223195	 	32
162210	1760507	They tend to know who hooligans are and don't sell to them.	They tend to know who hooligans are and don't sell to them.	83642789	1474058223221	1474058223312	a	65
162210	1760507	They tend to know who hooligans are and don't sell to them.	They tend to know who hooligans are and don't sell to them.	83642796	1474058223339	1474058223396	n	78
162210	1760507	They tend to know who hooligans are and don't sell to them.	They tend to know who hooligans are and don't sell to them.	83642809	1474058223423	1474058223503	d	68
162210	1760507	They tend to know who hooligans are and don't sell to them.	They tend to know who hooligans are and don't sell to them.	83642811	1474058223523	1474058223599	 	32
162210	1760507	They tend to know who hooligans are and don't sell to them.	They tend to know who hooligans are and don't sell to them.	83642815	1474058223630	1474058223717	d	68
162210	1760507	They tend to know who hooligans are and don't sell to them.	They tend to know who hooligans are and don't sell to them.	83642820	1474058223710	1474058223760	o	79
162210	1760507	They tend to know who hooligans are and don't sell to them.	They tend to know who hooligans are and don't sell to them.	83642827	1474058223868	1474058223924	n	78
162210	1760507	They tend to know who hooligans are and don't sell to them.	They tend to know who hooligans are and don't sell to them.	83642875	1474058224078	1474058224127	'	222
162210	1760507	They tend to know who hooligans are and don't sell to them.	They tend to know who hooligans are and don't sell to them.	83642878	1474058224325	1474058224376	t	84
162210	1760507	They tend to know who hooligans are and don't sell to them.	They tend to know who hooligans are and don't sell to them.	83642883	1474058224392	1474058224490	 	32
162210	1760507	They tend to know who hooligans are and don't sell to them.	They tend to know who hooligans are and don't sell to them.	83642887	1474058224459	1474058224528	s	83
162210	1760507	They tend to know who hooligans are and don't sell to them.	They tend to know who hooligans are and don't sell to them.	83642891	1474058224626	1474058224691	e	69
162210	1760507	They tend to know who hooligans are and don't sell to them.	They tend to know who hooligans are and don't sell to them.	83642912	1474058224705	1474058224761	l	76
162210	1760507	They tend to know who hooligans are and don't sell to them.	They tend to know who hooligans are and don't sell to them.	83642917	1474058224842	1474058224904	l	76
162210	1760507	They tend to know who hooligans are and don't sell to them.	They tend to know who hooligans are and don't sell to them.	83642923	1474058224894	1474058224957	 	32
162210	1760507	They tend to know who hooligans are and don't sell to them.	They tend to know who hooligans are and don't sell to them.	83642929	1474058225042	1474058225109	t	84
162210	1760507	They tend to know who hooligans are and don't sell to them.	They tend to know who hooligans are and don't sell to them.	83642934	1474058225222	1474058225295	o	79
162210	1760507	They tend to know who hooligans are and don't sell to them.	They tend to know who hooligans are and don't sell to them.	83643008	1474058225269	1474058225326	 	32
162210	1760507	They tend to know who hooligans are and don't sell to them.	They tend to know who hooligans are and don't sell to them.	83643015	1474058225405	1474058225476	t	84
162210	1760507	They tend to know who hooligans are and don't sell to them.	They tend to know who hooligans are and don't sell to them.	83643018	1474058225558	1474058225642	h	72
162210	1760507	They tend to know who hooligans are and don't sell to them.	They tend to know who hooligans are and don't sell to them.	83643020	1474058225673	1474058225799	e	69
162210	1760507	They tend to know who hooligans are and don't sell to them.	They tend to know who hooligans are and don't sell to them.	83643022	1474058225743	1474058225824	m	77
162210	1760525	He is listed as questionable for this week's game.	He is listed as questionable for this week's game.	83643408	1474058231217	1474058231379	SHIFT	16
162210	1760525	He is listed as questionable for this week's game.	He is listed as questionable for this week's game.	83643415	1474058231439	1474058231530	e	69
162210	1760525	He is listed as questionable for this week's game.	He is listed as questionable for this week's game.	83643421	1474058231857	1474058231911	BKSP	8
162210	1760525	He is listed as questionable for this week's game.	He is listed as questionable for this week's game.	83643427	1474058231941	1474058232096	SHIFT	16
162210	1760525	He is listed as questionable for this week's game.	He is listed as questionable for this week's game.	83643432	1474058232060	1474058232111	H	72
162210	1760525	He is listed as questionable for this week's game.	He is listed as questionable for this week's game.	83643435	1474058232159	1474058232242	e	69
162210	1760525	He is listed as questionable for this week's game.	He is listed as questionable for this week's game.	83643437	1474058232258	1474058232312	 	32
162210	1760525	He is listed as questionable for this week's game.	He is listed as questionable for this week's game.	83643440	1474058232389	1474058232458	i	73
162210	1760525	He is listed as questionable for this week's game.	He is listed as questionable for this week's game.	83643457	1474058232474	1474058232574	s	83
162210	1760525	He is listed as questionable for this week's game.	He is listed as questionable for this week's game.	83643460	1474058232559	1474058232611	 	32
162210	1760525	He is listed as questionable for this week's game.	He is listed as questionable for this week's game.	83643465	1474058232724	1474058232803	l	76
162210	1760525	He is listed as questionable for this week's game.	He is listed as questionable for this week's game.	83643471	1474058232975	1474058233044	i	73
162210	1760525	He is listed as questionable for this week's game.	He is listed as questionable for this week's game.	83643475	1474058233059	1474058233151	s	83
162210	1760525	He is listed as questionable for this week's game.	He is listed as questionable for this week's game.	83643485	1474058233194	1474058233244	t	84
162210	1760525	He is listed as questionable for this week's game.	He is listed as questionable for this week's game.	83643488	1474058233260	1474058233312	e	69
162210	1760525	He is listed as questionable for this week's game.	He is listed as questionable for this week's game.	83643491	1474058233391	1474058233478	d	68
162210	1760525	He is listed as questionable for this week's game.	He is listed as questionable for this week's game.	83643497	1474058233494	1474058233605	 	32
162210	1760525	He is listed as questionable for this week's game.	He is listed as questionable for this week's game.	83643529	1474058233585	1474058233676	a	65
162210	1760525	He is listed as questionable for this week's game.	He is listed as questionable for this week's game.	83643534	1474058233692	1474058233777	s	83
162210	1760525	He is listed as questionable for this week's game.	He is listed as questionable for this week's game.	83643540	1474058233811	1474058233893	 	32
162210	1760525	He is listed as questionable for this week's game.	He is listed as questionable for this week's game.	83643545	1474058233996	1474058234092	q	81
162210	1760525	He is listed as questionable for this week's game.	He is listed as questionable for this week's game.	83643554	1474058234101	1474058234169	u	85
162210	1760525	He is listed as questionable for this week's game.	He is listed as questionable for this week's game.	83643561	1474058234179	1474058234244	e	69
162210	1760525	He is listed as questionable for this week's game.	He is listed as questionable for this week's game.	83643591	1474058234318	1474058234384	s	83
162210	1760525	He is listed as questionable for this week's game.	He is listed as questionable for this week's game.	83643594	1474058234362	1474058234428	t	84
162210	1760525	He is listed as questionable for this week's game.	He is listed as questionable for this week's game.	83643597	1474058234577	1474058234644	i	73
162210	1760525	He is listed as questionable for this week's game.	He is listed as questionable for this week's game.	83643601	1474058234724	1474058234779	o	79
162210	1760525	He is listed as questionable for this week's game.	He is listed as questionable for this week's game.	83643606	1474058234885	1474058234946	n	78
162210	1760525	He is listed as questionable for this week's game.	He is listed as questionable for this week's game.	83643638	1474058235026	1474058235140	a	65
162210	1760525	He is listed as questionable for this week's game.	He is listed as questionable for this week's game.	83643645	1474058235135	1474058235195	b	66
162210	1760525	He is listed as questionable for this week's game.	He is listed as questionable for this week's game.	83643653	1474058235294	1474058235378	l	76
162210	1760525	He is listed as questionable for this week's game.	He is listed as questionable for this week's game.	83643663	1474058235378	1474058235479	e	69
162210	1760525	He is listed as questionable for this week's game.	He is listed as questionable for this week's game.	83643671	1474058235479	1474058235547	 	32
162210	1760525	He is listed as questionable for this week's game.	He is listed as questionable for this week's game.	83643676	1474058235612	1474058235696	f	70
162210	1760525	He is listed as questionable for this week's game.	He is listed as questionable for this week's game.	83643682	1474058235678	1474058235728	o	79
162210	1760525	He is listed as questionable for this week's game.	He is listed as questionable for this week's game.	83643692	1474058235779	1474058235866	r	82
162210	1760525	He is listed as questionable for this week's game.	He is listed as questionable for this week's game.	83643700	1474058235849	1474058235911	 	32
162210	1760525	He is listed as questionable for this week's game.	He is listed as questionable for this week's game.	83643705	1474058235980	1474058236049	t	84
162210	1760525	He is listed as questionable for this week's game.	He is listed as questionable for this week's game.	83643722	1474058236129	1474058236193	h	72
162210	1760525	He is listed as questionable for this week's game.	He is listed as questionable for this week's game.	83643724	1474058236250	1474058236323	i	73
162210	1760525	He is listed as questionable for this week's game.	He is listed as questionable for this week's game.	83643725	1474058236341	1474058236411	s	83
162210	1760525	He is listed as questionable for this week's game.	He is listed as questionable for this week's game.	83643729	1474058236427	1474058236513	 	32
162210	1760525	He is listed as questionable for this week's game.	He is listed as questionable for this week's game.	83643732	1474058236517	1474058236578	w	87
162210	1760525	He is listed as questionable for this week's game.	He is listed as questionable for this week's game.	83643784	1474058236653	1474058236712	e	69
162210	1760525	He is listed as questionable for this week's game.	He is listed as questionable for this week's game.	83643792	1474058236781	1474058236871	e	69
162210	1760525	He is listed as questionable for this week's game.	He is listed as questionable for this week's game.	83643800	1474058236895	1474058236951	k	75
162210	1760525	He is listed as questionable for this week's game.	He is listed as questionable for this week's game.	83643801	1474058237249	1474058237310	'	222
162210	1760525	He is listed as questionable for this week's game.	He is listed as questionable for this week's game.	83643808	1474058237414	1474058237525	s	83
162210	1760525	He is listed as questionable for this week's game.	He is listed as questionable for this week's game.	83643830	1474058237552	1474058237603	 	32
162210	1760525	He is listed as questionable for this week's game.	He is listed as questionable for this week's game.	83643835	1474058237670	1474058237758	g	71
162210	1760525	He is listed as questionable for this week's game.	He is listed as questionable for this week's game.	83643844	1474058237749	1474058237846	a	65
162210	1760525	He is listed as questionable for this week's game.	He is listed as questionable for this week's game.	83643850	1474058237884	1474058237955	m	77
162210	1760525	He is listed as questionable for this week's game.	He is listed as questionable for this week's game.	83643894	1474058237947	1474058238051	e	69
162210	1760525	He is listed as questionable for this week's game.	He is listed as questionable for this week's game.	83643898	1474058238112	1474058238182	/	190
162210	1760525	He is listed as questionable for this week's game.	He is listed as questionable for this week's game.	83643902	1474058238554	1474058238611	BKSP	8
162210	1760543	Kay Mann is going to take the lead on this.	Kay Mann is going to take the lead on this.	83644154	1474058242578	1474058242778	SHIFT	16
162210	1760543	Kay Mann is going to take the lead on this.	Kay Mann is going to take the lead on this.	83644150	1474058242678	1474058242757	K	75
162210	1760543	Kay Mann is going to take the lead on this.	Kay Mann is going to take the lead on this.	83644160	1474058242841	1474058242958	a	65
162210	1760543	Kay Mann is going to take the lead on this.	Kay Mann is going to take the lead on this.	83644163	1474058242927	1474058242994	y	89
162210	1760543	Kay Mann is going to take the lead on this.	Kay Mann is going to take the lead on this.	83644166	1474058242994	1474058243079	 	32
162210	1760543	Kay Mann is going to take the lead on this.	Kay Mann is going to take the lead on this.	83644192	1474058243194	1474058243368	SHIFT	16
162210	1760543	Kay Mann is going to take the lead on this.	Kay Mann is going to take the lead on this.	83644173	1474058243295	1474058243344	M	77
162210	1760543	Kay Mann is going to take the lead on this.	Kay Mann is going to take the lead on this.	83644196	1474058243416	1474058243521	a	65
162210	1760543	Kay Mann is going to take the lead on this.	Kay Mann is going to take the lead on this.	83644198	1474058243511	1474058243564	n	78
162210	1760543	Kay Mann is going to take the lead on this.	Kay Mann is going to take the lead on this.	83644201	1474058243642	1474058243695	n	78
162210	1760543	Kay Mann is going to take the lead on this.	Kay Mann is going to take the lead on this.	83644203	1474058243727	1474058243771	 	32
162210	1760543	Kay Mann is going to take the lead on this.	Kay Mann is going to take the lead on this.	83644204	1474058243826	1474058243881	i	73
162210	1760543	Kay Mann is going to take the lead on this.	Kay Mann is going to take the lead on this.	83644215	1474058243899	1474058243974	s	83
162210	1760543	Kay Mann is going to take the lead on this.	Kay Mann is going to take the lead on this.	83644221	1474058243929	1474058243990	 	32
162210	1760543	Kay Mann is going to take the lead on this.	Kay Mann is going to take the lead on this.	83644225	1474058244037	1474058244096	g	71
162210	1760543	Kay Mann is going to take the lead on this.	Kay Mann is going to take the lead on this.	83644228	1474058244215	1474058244281	o	79
162210	1760543	Kay Mann is going to take the lead on this.	Kay Mann is going to take the lead on this.	83644233	1474058244365	1474058244425	i	73
162210	1760543	Kay Mann is going to take the lead on this.	Kay Mann is going to take the lead on this.	83644260	1474058244515	1474058244582	n	78
162210	1760543	Kay Mann is going to take the lead on this.	Kay Mann is going to take the lead on this.	83644262	1474058244667	1474058244729	g	71
162210	1760543	Kay Mann is going to take the lead on this.	Kay Mann is going to take the lead on this.	83644264	1474058244757	1474058244791	 	32
162210	1760543	Kay Mann is going to take the lead on this.	Kay Mann is going to take the lead on this.	83644266	1474058244866	1474058244914	t	84
162210	1760543	Kay Mann is going to take the lead on this.	Kay Mann is going to take the lead on this.	83644267	1474058245044	1474058245112	o	79
162210	1760543	Kay Mann is going to take the lead on this.	Kay Mann is going to take the lead on this.	83644279	1474058245080	1474058245167	 	32
162210	1760543	Kay Mann is going to take the lead on this.	Kay Mann is going to take the lead on this.	83644283	1474058245245	1474058245311	t	84
162210	1760543	Kay Mann is going to take the lead on this.	Kay Mann is going to take the lead on this.	83644284	1474058245343	1474058245428	a	65
162210	1760543	Kay Mann is going to take the lead on this.	Kay Mann is going to take the lead on this.	83644287	1474058245467	1474058245535	k	75
162210	1760543	Kay Mann is going to take the lead on this.	Kay Mann is going to take the lead on this.	83644292	1474058245535	1474058245649	e	69
162210	1760543	Kay Mann is going to take the lead on this.	Kay Mann is going to take the lead on this.	83644346	1474058245635	1474058245711	 	32
162210	1760543	Kay Mann is going to take the lead on this.	Kay Mann is going to take the lead on this.	83644353	1474058245778	1474058245813	 	32
162210	1760543	Kay Mann is going to take the lead on this.	Kay Mann is going to take the lead on this.	83644363	1474058246184	1474058246237	BKSP	8
162210	1760543	Kay Mann is going to take the lead on this.	Kay Mann is going to take the lead on this.	83644370	1474058246369	1474058246427	t	84
162210	1760543	Kay Mann is going to take the lead on this.	Kay Mann is going to take the lead on this.	83644376	1474058246511	1474058246585	h	72
162210	1760543	Kay Mann is going to take the lead on this.	Kay Mann is going to take the lead on this.	83644381	1474058246600	1474058246713	e	69
162210	1760543	Kay Mann is going to take the lead on this.	Kay Mann is going to take the lead on this.	83644415	1474058246670	1474058246739	 	32
162210	1760543	Kay Mann is going to take the lead on this.	Kay Mann is going to take the lead on this.	83644418	1474058246802	1474058246897	l	76
162210	1760543	Kay Mann is going to take the lead on this.	Kay Mann is going to take the lead on this.	83644422	1474058246871	1474058246929	e	69
162210	1760543	Kay Mann is going to take the lead on this.	Kay Mann is going to take the lead on this.	83644431	1474058247003	1474058247104	a	65
162210	1760543	Kay Mann is going to take the lead on this.	Kay Mann is going to take the lead on this.	83644440	1474058247385	1474058247473	d	68
162210	1760543	Kay Mann is going to take the lead on this.	Kay Mann is going to take the lead on this.	83644446	1474058247473	1474058247545	 	32
162210	1760543	Kay Mann is going to take the lead on this.	Kay Mann is going to take the lead on this.	83644468	1474058247605	1474058247667	o	79
162210	1760543	Kay Mann is going to take the lead on this.	Kay Mann is going to take the lead on this.	83644473	1474058247772	1474058247850	n	78
162210	1760543	Kay Mann is going to take the lead on this.	Kay Mann is going to take the lead on this.	83644478	1474058247828	1474058247889	 	32
162210	1760543	Kay Mann is going to take the lead on this.	Kay Mann is going to take the lead on this.	83644484	1474058247946	1474058248029	t	84
162210	1760543	Kay Mann is going to take the lead on this.	Kay Mann is going to take the lead on this.	83644489	1474058248106	1474058248176	h	72
162210	1760543	Kay Mann is going to take the lead on this.	Kay Mann is going to take the lead on this.	83644503	1474058248276	1474058248344	i	73
162210	1760543	Kay Mann is going to take the lead on this.	Kay Mann is going to take the lead on this.	83644508	1474058248344	1474058248427	s	83
162210	1760543	Kay Mann is going to take the lead on this.	Kay Mann is going to take the lead on this.	83644513	1474058248459	1474058248530	.	190
162210	1760557	If your reasonable, I'll bereasonable.	If your reasonable, I'll bereasonable.	83644779	1474058253351	1474058253505	SHIFT	16
162210	1760557	If your reasonable, I'll bereasonable.	If your reasonable, I'll bereasonable.	83644784	1474058253452	1474058253505	I	73
162210	1760557	If your reasonable, I'll bereasonable.	If your reasonable, I'll bereasonable.	83644791	1474058253627	1474058253697	f	70
162210	1760557	If your reasonable, I'll bereasonable.	If your reasonable, I'll bereasonable.	83644798	1474058253688	1474058253730	 	32
162210	1760557	If your reasonable, I'll bereasonable.	If your reasonable, I'll bereasonable.	83644803	1474058253806	1474058253889	y	89
162210	1760557	If your reasonable, I'll bereasonable.	If your reasonable, I'll bereasonable.	83644809	1474058253990	1474058254050	o	79
162210	1760557	If your reasonable, I'll bereasonable.	If your reasonable, I'll bereasonable.	83644857	1474058254138	1474058254207	u	85
162210	1760557	If your reasonable, I'll bereasonable.	If your reasonable, I'll bereasonable.	83644866	1474058254234	1474058254323	r	82
162210	1760557	If your reasonable, I'll bereasonable.	If your reasonable, I'll bereasonable.	83644870	1474058254339	1474058254423	 	32
162210	1760557	If your reasonable, I'll bereasonable.	If your reasonable, I'll bereasonable.	83644878	1474058254442	1474058254497	r	82
162210	1760557	If your reasonable, I'll bereasonable.	If your reasonable, I'll bereasonable.	83644884	1474058254693	1474058254789	e	69
162210	1760557	If your reasonable, I'll bereasonable.	If your reasonable, I'll bereasonable.	83644920	1474058254892	1474058254994	a	65
162210	1760557	If your reasonable, I'll bereasonable.	If your reasonable, I'll bereasonable.	83644924	1474058255038	1474058255110	s	83
162210	1760557	If your reasonable, I'll bereasonable.	If your reasonable, I'll bereasonable.	83644928	1474058255148	1474058255194	o	79
162210	1760557	If your reasonable, I'll bereasonable.	If your reasonable, I'll bereasonable.	83644933	1474058255310	1474058255365	n	78
162210	1760557	If your reasonable, I'll bereasonable.	If your reasonable, I'll bereasonable.	83644936	1474058255395	1474058255495	a	65
162210	1760557	If your reasonable, I'll bereasonable.	If your reasonable, I'll bereasonable.	83644969	1474058255506	1474058255561	b	66
162210	1760557	If your reasonable, I'll bereasonable.	If your reasonable, I'll bereasonable.	83644974	1474058255701	1474058255779	l	76
162210	1760557	If your reasonable, I'll bereasonable.	If your reasonable, I'll bereasonable.	83644980	1474058255810	1474058255895	e	69
162210	1760557	If your reasonable, I'll bereasonable.	If your reasonable, I'll bereasonable.	83644984	1474058255910	1474058255983	,	188
162210	1760557	If your reasonable, I'll bereasonable.	If your reasonable, I'll bereasonable.	83644989	1474058256075	1474058256160	 	32
162210	1760557	If your reasonable, I'll bereasonable.	If your reasonable, I'll bereasonable.	83645041	1474058256167	1474058256327	SHIFT	16
162210	1760557	If your reasonable, I'll bereasonable.	If your reasonable, I'll bereasonable.	83645037	1474058256242	1474058256312	I	73
162210	1760557	If your reasonable, I'll bereasonable.	If your reasonable, I'll bereasonable.	83645047	1474058256495	1474058256556	'	222
162210	1760557	If your reasonable, I'll bereasonable.	If your reasonable, I'll bereasonable.	83645052	1474058256707	1474058256763	l	76
162210	1760557	If your reasonable, I'll bereasonable.	If your reasonable, I'll bereasonable.	83645059	1474058256843	1474058256928	l	76
162210	1760557	If your reasonable, I'll bereasonable.	If your reasonable, I'll bereasonable.	83645067	1474058256961	1474058257014	 	32
162210	1760557	If your reasonable, I'll bereasonable.	If your reasonable, I'll bereasonable.	83645100	1474058257112	1474058257165	b	66
162210	1760557	If your reasonable, I'll bereasonable.	If your reasonable, I'll bereasonable.	83645103	1474058257198	1474058257279	e	69
162210	1760557	If your reasonable, I'll bereasonable.	If your reasonable, I'll bereasonable.	83645108	1474058257414	1474058257498	r	82
162210	1760557	If your reasonable, I'll bereasonable.	If your reasonable, I'll bereasonable.	83645112	1474058257578	1474058257646	e	69
162210	1760557	If your reasonable, I'll bereasonable.	If your reasonable, I'll bereasonable.	83645114	1474058257698	1474058257798	a	65
162210	1760557	If your reasonable, I'll bereasonable.	If your reasonable, I'll bereasonable.	83645130	1474058257859	1474058257945	s	83
162210	1760557	If your reasonable, I'll bereasonable.	If your reasonable, I'll bereasonable.	83645135	1474058257945	1474058257999	o	79
162210	1760557	If your reasonable, I'll bereasonable.	If your reasonable, I'll bereasonable.	83645139	1474058258115	1474058258179	n	78
162210	1760557	If your reasonable, I'll bereasonable.	If your reasonable, I'll bereasonable.	83645142	1474058258199	1474058258304	a	65
162210	1760557	If your reasonable, I'll bereasonable.	If your reasonable, I'll bereasonable.	83645154	1474058258291	1474058258362	b	66
162210	1760557	If your reasonable, I'll bereasonable.	If your reasonable, I'll bereasonable.	83645160	1474058258477	1474058258562	l	76
162210	1760557	If your reasonable, I'll bereasonable.	If your reasonable, I'll bereasonable.	83645165	1474058258578	1474058258681	e	69
162210	1760557	If your reasonable, I'll bereasonable.	If your reasonable, I'll bereasonable.	83645170	1474058258650	1474058258730	.	190
162210	1760571	Foreigners have now fled the country since fighting erupted.	Foreigners have now fled the country since fighting erupted.	83645277	1474058261233	1474058261402	SHIFT	16
162210	1760571	Foreigners have now fled the country since fighting erupted.	Foreigners have now fled the country since fighting erupted.	83645278	1474058261318	1474058261418	F	70
162210	1760571	Foreigners have now fled the country since fighting erupted.	Foreigners have now fled the country since fighting erupted.	83645280	1474058261449	1474058261534	o	79
162210	1760571	Foreigners have now fled the country since fighting erupted.	Foreigners have now fled the country since fighting erupted.	83645283	1474058261565	1474058261618	r	82
162210	1760571	Foreigners have now fled the country since fighting erupted.	Foreigners have now fled the country since fighting erupted.	83645287	1474058261718	1474058261807	e	69
162210	1760571	Foreigners have now fled the country since fighting erupted.	Foreigners have now fled the country since fighting erupted.	83645291	1474058261890	1474058261947	g	71
162210	1760571	Foreigners have now fled the country since fighting erupted.	Foreigners have now fled the country since fighting erupted.	83645349	1474058262119	1474058262203	BKSP	8
162210	1760571	Foreigners have now fled the country since fighting erupted.	Foreigners have now fled the country since fighting erupted.	83645354	1474058262519	1474058262603	i	73
162210	1760571	Foreigners have now fled the country since fighting erupted.	Foreigners have now fled the country since fighting erupted.	83645358	1474058262750	1474058262819	g	71
162210	1760571	Foreigners have now fled the country since fighting erupted.	Foreigners have now fled the country since fighting erupted.	83645361	1474058262982	1474058263048	n	78
162210	1760571	Foreigners have now fled the country since fighting erupted.	Foreigners have now fled the country since fighting erupted.	83645364	1474058263048	1474058263120	e	69
162210	1760571	Foreigners have now fled the country since fighting erupted.	Foreigners have now fled the country since fighting erupted.	83645366	1474058263182	1474058263247	r	82
162210	1760571	Foreigners have now fled the country since fighting erupted.	Foreigners have now fled the country since fighting erupted.	83645375	1474058263352	1474058263445	s	83
162210	1760571	Foreigners have now fled the country since fighting erupted.	Foreigners have now fled the country since fighting erupted.	83645380	1474058263421	1474058263481	 	32
162210	1760571	Foreigners have now fled the country since fighting erupted.	Foreigners have now fled the country since fighting erupted.	83645383	1474058263536	1474058263605	h	72
162210	1760571	Foreigners have now fled the country since fighting erupted.	Foreigners have now fled the country since fighting erupted.	83645386	1474058263620	1474058263705	a	65
162210	1760571	Foreigners have now fled the country since fighting erupted.	Foreigners have now fled the country since fighting erupted.	83645391	1474058263721	1474058263763	v	86
162210	1760571	Foreigners have now fled the country since fighting erupted.	Foreigners have now fled the country since fighting erupted.	83645408	1474058263788	1474058263874	e	69
162210	1760571	Foreigners have now fled the country since fighting erupted.	Foreigners have now fled the country since fighting erupted.	83645412	1474058263864	1474058263921	 	32
162210	1760571	Foreigners have now fled the country since fighting erupted.	Foreigners have now fled the country since fighting erupted.	83645417	1474058263984	1474058264052	n	78
162210	1760571	Foreigners have now fled the country since fighting erupted.	Foreigners have now fled the country since fighting erupted.	83645419	1474058264137	1474058264210	o	79
162210	1760571	Foreigners have now fled the country since fighting erupted.	Foreigners have now fled the country since fighting erupted.	83645441	1474058264200	1474058264279	w	87
162210	1760571	Foreigners have now fled the country since fighting erupted.	Foreigners have now fled the country since fighting erupted.	83645444	1474058264306	1474058264399	 	32
162210	1760571	Foreigners have now fled the country since fighting erupted.	Foreigners have now fled the country since fighting erupted.	83645446	1474058264454	1474058264538	f	70
162210	1760571	Foreigners have now fled the country since fighting erupted.	Foreigners have now fled the country since fighting erupted.	83645449	1474058264570	1474058264631	l	76
162210	1760571	Foreigners have now fled the country since fighting erupted.	Foreigners have now fled the country since fighting erupted.	83645453	1474058264662	1474058264723	e	69
162210	1760571	Foreigners have now fled the country since fighting erupted.	Foreigners have now fled the country since fighting erupted.	83645456	1474058264824	1474058264887	d	68
162210	1760571	Foreigners have now fled the country since fighting erupted.	Foreigners have now fled the country since fighting erupted.	83645466	1474058264895	1474058264954	 	32
162210	1760571	Foreigners have now fled the country since fighting erupted.	Foreigners have now fled the country since fighting erupted.	83645468	1474058265028	1474058265081	t	84
162210	1760571	Foreigners have now fled the country since fighting erupted.	Foreigners have now fled the country since fighting erupted.	83645471	1474058265164	1474058265247	h	72
162210	1760571	Foreigners have now fled the country since fighting erupted.	Foreigners have now fled the country since fighting erupted.	83645477	1474058265247	1474058265321	e	69
162210	1760571	Foreigners have now fled the country since fighting erupted.	Foreigners have now fled the country since fighting erupted.	83645482	1474058265331	1474058265410	 	32
162210	1760571	Foreigners have now fled the country since fighting erupted.	Foreigners have now fled the country since fighting erupted.	83645498	1474058265427	1474058265504	c	67
162210	1760571	Foreigners have now fled the country since fighting erupted.	Foreigners have now fled the country since fighting erupted.	83645502	1474058265510	1474058265548	o	79
162210	1760571	Foreigners have now fled the country since fighting erupted.	Foreigners have now fled the country since fighting erupted.	83645507	1474058265657	1474058265710	u	85
162210	1760571	Foreigners have now fled the country since fighting erupted.	Foreigners have now fled the country since fighting erupted.	83645510	1474058265793	1474058265847	n	78
162210	1760571	Foreigners have now fled the country since fighting erupted.	Foreigners have now fled the country since fighting erupted.	83645516	1474058265943	1474058266011	t	84
162210	1760571	Foreigners have now fled the country since fighting erupted.	Foreigners have now fled the country since fighting erupted.	83645526	1474058266028	1474058266141	r	82
162210	1760571	Foreigners have now fled the country since fighting erupted.	Foreigners have now fled the country since fighting erupted.	83645527	1474058266128	1474058266181	y	89
162210	1760571	Foreigners have now fled the country since fighting erupted.	Foreigners have now fled the country since fighting erupted.	83645529	1474058266201	1474058266294	 	32
162210	1760571	Foreigners have now fled the country since fighting erupted.	Foreigners have now fled the country since fighting erupted.	83645532	1474058266311	1474058266422	s	83
162210	1760571	Foreigners have now fled the country since fighting erupted.	Foreigners have now fled the country since fighting erupted.	83645557	1474058266403	1474058266449	i	73
162210	1760571	Foreigners have now fled the country since fighting erupted.	Foreigners have now fled the country since fighting erupted.	83645564	1474058266544	1474058266613	n	78
162210	1760571	Foreigners have now fled the country since fighting erupted.	Foreigners have now fled the country since fighting erupted.	83645568	1474058266629	1474058266684	c	67
162210	1760571	Foreigners have now fled the country since fighting erupted.	Foreigners have now fled the country since fighting erupted.	83645571	1474058266771	1474058266884	e	69
162210	1760571	Foreigners have now fled the country since fighting erupted.	Foreigners have now fled the country since fighting erupted.	83645574	1474058266863	1474058266952	 	32
162210	1760571	Foreigners have now fled the country since fighting erupted.	Foreigners have now fled the country since fighting erupted.	83645580	1474058267007	1474058267100	f	70
162210	1760571	Foreigners have now fled the country since fighting erupted.	Foreigners have now fled the country since fighting erupted.	83645626	1474058267080	1474058267179	l	76
162210	1760571	Foreigners have now fled the country since fighting erupted.	Foreigners have now fled the country since fighting erupted.	83645630	1474058267412	1474058267495	BKSP	8
162210	1760571	Foreigners have now fled the country since fighting erupted.	Foreigners have now fled the country since fighting erupted.	83645633	1474058267546	1474058267615	i	73
162210	1760571	Foreigners have now fled the country since fighting erupted.	Foreigners have now fled the country since fighting erupted.	83645638	1474058267716	1474058267780	g	71
162210	1760571	Foreigners have now fled the country since fighting erupted.	Foreigners have now fled the country since fighting erupted.	83645641	1474058267848	1474058267897	h	72
162210	1760571	Foreigners have now fled the country since fighting erupted.	Foreigners have now fled the country since fighting erupted.	83645643	1474058267995	1474058268079	t	84
162210	1760571	Foreigners have now fled the country since fighting erupted.	Foreigners have now fled the country since fighting erupted.	83645645	1474058268211	1474058268275	i	73
162210	1760571	Foreigners have now fled the country since fighting erupted.	Foreigners have now fled the country since fighting erupted.	83645673	1474058268364	1474058268421	n	78
162210	1760571	Foreigners have now fled the country since fighting erupted.	Foreigners have now fled the country since fighting erupted.	83645676	1474058268491	1474058268586	g	71
162210	1760571	Foreigners have now fled the country since fighting erupted.	Foreigners have now fled the country since fighting erupted.	83645679	1474058268564	1474058268650	 	32
162210	1760571	Foreigners have now fled the country since fighting erupted.	Foreigners have now fled the country since fighting erupted.	83645682	1474058268765	1474058268834	e	69
162210	1760571	Foreigners have now fled the country since fighting erupted.	Foreigners have now fled the country since fighting erupted.	83645684	1474058268919	1474058268997	r	82
162210	1760571	Foreigners have now fled the country since fighting erupted.	Foreigners have now fled the country since fighting erupted.	83645716	1474058269021	1474058269085	u	85
162210	1760571	Foreigners have now fled the country since fighting erupted.	Foreigners have now fled the country since fighting erupted.	83645718	1474058269198	1474058269247	p	80
162210	1760571	Foreigners have now fled the country since fighting erupted.	Foreigners have now fled the country since fighting erupted.	83645723	1474058269398	1474058269450	t	84
162210	1760571	Foreigners have now fled the country since fighting erupted.	Foreigners have now fled the country since fighting erupted.	83645727	1474058269449	1474058269516	e	69
162210	1760571	Foreigners have now fled the country since fighting erupted.	Foreigners have now fled the country since fighting erupted.	83645732	1474058269567	1474058269664	d	68
162210	1760571	Foreigners have now fled the country since fighting erupted.	Foreigners have now fled the country since fighting erupted.	83645722	1474058269651	1474058269718	.	190
162210	1760584	OK I thought it was in Washington state.	OK I thought it was in Washington state.	83645968	1474058273565	1474058273939	SHIFT	16
162210	1760584	OK I thought it was in Washington state.	OK I thought it was in Washington state.	83645964	1474058273660	1474058273728	O	79
162210	1760584	OK I thought it was in Washington state.	OK I thought it was in Washington state.	83645966	1474058273828	1474058273898	K	75
162210	1760584	OK I thought it was in Washington state.	OK I thought it was in Washington state.	83645972	1474058273898	1474058273981	 	32
162210	1760584	OK I thought it was in Washington state.	OK I thought it was in Washington state.	83646012	1474058274012	1474058274170	SHIFT	16
162210	1760584	OK I thought it was in Washington state.	OK I thought it was in Washington state.	83645975	1474058274060	1474058274160	I	73
162210	1760584	OK I thought it was in Washington state.	OK I thought it was in Washington state.	83646015	1474058274136	1474058274172	 	32
162210	1760584	OK I thought it was in Washington state.	OK I thought it was in Washington state.	83646019	1474058274299	1474058274364	t	84
162210	1760584	OK I thought it was in Washington state.	OK I thought it was in Washington state.	83646023	1474058274437	1474058274516	h	72
162210	1760584	OK I thought it was in Washington state.	OK I thought it was in Washington state.	83646029	1474058274608	1474058274682	o	79
162210	1760584	OK I thought it was in Washington state.	OK I thought it was in Washington state.	83646033	1474058274792	1474058274846	u	85
162210	1760584	OK I thought it was in Washington state.	OK I thought it was in Washington state.	83646039	1474058274933	1474058274999	g	71
162210	1760584	OK I thought it was in Washington state.	OK I thought it was in Washington state.	83646052	1474058275077	1474058275131	h	72
162210	1760584	OK I thought it was in Washington state.	OK I thought it was in Washington state.	83646054	1474058275209	1474058275286	t	84
162210	1760584	OK I thought it was in Washington state.	OK I thought it was in Washington state.	83646058	1474058275265	1474058275343	 	32
162210	1760584	OK I thought it was in Washington state.	OK I thought it was in Washington state.	83646063	1474058275427	1474058275483	i	73
162210	1760584	OK I thought it was in Washington state.	OK I thought it was in Washington state.	83646068	1474058275578	1474058275644	t	84
162210	1760584	OK I thought it was in Washington state.	OK I thought it was in Washington state.	83646076	1474058275652	1474058275741	 	32
162210	1760584	OK I thought it was in Washington state.	OK I thought it was in Washington state.	83646079	1474058275715	1474058275797	w	87
162210	1760584	OK I thought it was in Washington state.	OK I thought it was in Washington state.	83646083	1474058275832	1474058275945	a	65
162210	1760584	OK I thought it was in Washington state.	OK I thought it was in Washington state.	83646085	1474058275933	1474058276011	s	83
162210	1760584	OK I thought it was in Washington state.	OK I thought it was in Washington state.	83646106	1474058275998	1474058276033	 	32
162210	1760584	OK I thought it was in Washington state.	OK I thought it was in Washington state.	83646108	1474058276099	1474058276157	i	73
162210	1760584	OK I thought it was in Washington state.	OK I thought it was in Washington state.	83646109	1474058276249	1474058276315	n	78
162210	1760584	OK I thought it was in Washington state.	OK I thought it was in Washington state.	83646111	1474058276300	1474058276366	 	32
162210	1760584	OK I thought it was in Washington state.	OK I thought it was in Washington state.	83646113	1474058276350	1474058276465	SHIFT	16
162210	1760584	OK I thought it was in Washington state.	OK I thought it was in Washington state.	83646114	1474058276381	1474058276481	W	87
162210	1760584	OK I thought it was in Washington state.	OK I thought it was in Washington state.	83646116	1474058276540	1474058276615	a	65
162210	1760584	OK I thought it was in Washington state.	OK I thought it was in Washington state.	83646146	1474058276697	1474058276784	s	83
162210	1760584	OK I thought it was in Washington state.	OK I thought it was in Washington state.	83646150	1474058276775	1474058276817	h	72
162210	1760584	OK I thought it was in Washington state.	OK I thought it was in Washington state.	83646155	1474058276912	1474058276981	i	73
162210	1760584	OK I thought it was in Washington state.	OK I thought it was in Washington state.	83646159	1474058277065	1474058277115	n	78
162210	1760584	OK I thought it was in Washington state.	OK I thought it was in Washington state.	83646164	1474058277210	1474058277262	g	71
162210	1760584	OK I thought it was in Washington state.	OK I thought it was in Washington state.	83646192	1474058277365	1474058277416	t	84
162210	1760584	OK I thought it was in Washington state.	OK I thought it was in Washington state.	83646197	1474058277550	1474058277600	o	79
162210	1760584	OK I thought it was in Washington state.	OK I thought it was in Washington state.	83646203	1474058277702	1474058277766	n	78
162210	1760584	OK I thought it was in Washington state.	OK I thought it was in Washington state.	83646209	1474058277781	1474058277821	 	32
162210	1760584	OK I thought it was in Washington state.	OK I thought it was in Washington state.	83646213	1474058277828	1474058277917	s	83
162210	1760584	OK I thought it was in Washington state.	OK I thought it was in Washington state.	83646226	1474058277925	1474058277982	t	84
162210	1760584	OK I thought it was in Washington state.	OK I thought it was in Washington state.	83646228	1474058277997	1474058278092	a	65
162210	1760584	OK I thought it was in Washington state.	OK I thought it was in Washington state.	83646231	1474058278075	1474058278135	t	84
162210	1760584	OK I thought it was in Washington state.	OK I thought it was in Washington state.	83646237	1474058278151	1474058278234	e	69
162210	1760597	Finally, I would delete the paragraph about lawyers.	Finally, I would delete the paragraph about lawyers.	83646561	1474058282842	1474058282982	SHIFT	16
162210	1760597	Finally, I would delete the paragraph about lawyers.	Finally, I would delete the paragraph about lawyers.	83646565	1474058282923	1474058282997	F	70
162210	1760597	Finally, I would delete the paragraph about lawyers.	Finally, I would delete the paragraph about lawyers.	83646569	1474058283013	1474058283067	i	73
162210	1760597	Finally, I would delete the paragraph about lawyers.	Finally, I would delete the paragraph about lawyers.	83646573	1474058283149	1474058283242	n	78
162210	1760597	Finally, I would delete the paragraph about lawyers.	Finally, I would delete the paragraph about lawyers.	83646576	1474058283233	1474058283361	a	65
162210	1760597	Finally, I would delete the paragraph about lawyers.	Finally, I would delete the paragraph about lawyers.	83646619	1474058283342	1474058283400	l	76
162210	1760597	Finally, I would delete the paragraph about lawyers.	Finally, I would delete the paragraph about lawyers.	83646620	1474058283443	1474058283536	l	76
162210	1760597	Finally, I would delete the paragraph about lawyers.	Finally, I would delete the paragraph about lawyers.	83646622	1474058283643	1474058283692	y	89
162210	1760597	Finally, I would delete the paragraph about lawyers.	Finally, I would delete the paragraph about lawyers.	83646624	1474058283843	1474058283916	,	188
162210	1760597	Finally, I would delete the paragraph about lawyers.	Finally, I would delete the paragraph about lawyers.	83646626	1474058284022	1474058284067	 	32
162210	1760597	Finally, I would delete the paragraph about lawyers.	Finally, I would delete the paragraph about lawyers.	83646656	1474058284098	1474058284257	SHIFT	16
162210	1760597	Finally, I would delete the paragraph about lawyers.	Finally, I would delete the paragraph about lawyers.	83646628	1474058284159	1474058284248	I	73
162210	1760597	Finally, I would delete the paragraph about lawyers.	Finally, I would delete the paragraph about lawyers.	83646661	1474058284235	1474058284299	 	32
162210	1760597	Finally, I would delete the paragraph about lawyers.	Finally, I would delete the paragraph about lawyers.	83646666	1474058284322	1474058284418	w	87
162210	1760597	Finally, I would delete the paragraph about lawyers.	Finally, I would delete the paragraph about lawyers.	83646677	1474058284383	1474058284460	o	79
162210	1760597	Finally, I would delete the paragraph about lawyers.	Finally, I would delete the paragraph about lawyers.	83646683	1474058284577	1474058284645	u	85
162210	1760597	Finally, I would delete the paragraph about lawyers.	Finally, I would delete the paragraph about lawyers.	83646690	1474058284761	1474058284836	l	76
162210	1760597	Finally, I would delete the paragraph about lawyers.	Finally, I would delete the paragraph about lawyers.	83646698	1474058284846	1474058284941	d	68
162210	1760597	Finally, I would delete the paragraph about lawyers.	Finally, I would delete the paragraph about lawyers.	83646748	1474058284952	1474058285036	 	32
162210	1760597	Finally, I would delete the paragraph about lawyers.	Finally, I would delete the paragraph about lawyers.	83646757	1474058285046	1474058285098	d	68
162210	1760597	Finally, I would delete the paragraph about lawyers.	Finally, I would delete the paragraph about lawyers.	83646767	1474058285178	1474058285263	e	69
162210	1760597	Finally, I would delete the paragraph about lawyers.	Finally, I would delete the paragraph about lawyers.	83646770	1474058285363	1474058285448	l	76
162210	1760597	Finally, I would delete the paragraph about lawyers.	Finally, I would delete the paragraph about lawyers.	83646783	1474058285695	1474058285795	e	69
162210	1760597	Finally, I would delete the paragraph about lawyers.	Finally, I would delete the paragraph about lawyers.	83646813	1474058285830	1474058285884	t	84
162210	1760597	Finally, I would delete the paragraph about lawyers.	Finally, I would delete the paragraph about lawyers.	83646816	1474058285917	1474058286019	e	69
162210	1760597	Finally, I would delete the paragraph about lawyers.	Finally, I would delete the paragraph about lawyers.	83646821	1474058285999	1474058286063	 	32
162210	1760597	Finally, I would delete the paragraph about lawyers.	Finally, I would delete the paragraph about lawyers.	83646825	1474058286164	1474058286244	t	84
162210	1760597	Finally, I would delete the paragraph about lawyers.	Finally, I would delete the paragraph about lawyers.	83646828	1474058286311	1474058286397	h	72
162210	1760597	Finally, I would delete the paragraph about lawyers.	Finally, I would delete the paragraph about lawyers.	83646856	1474058286420	1474058286518	e	69
162210	1760597	Finally, I would delete the paragraph about lawyers.	Finally, I would delete the paragraph about lawyers.	83646864	1474058286478	1474058286557	 	32
162210	1760597	Finally, I would delete the paragraph about lawyers.	Finally, I would delete the paragraph about lawyers.	83646871	1474058286665	1474058286749	p	80
162210	1760597	Finally, I would delete the paragraph about lawyers.	Finally, I would delete the paragraph about lawyers.	83646880	1474058286749	1474058286831	a	65
162210	1760597	Finally, I would delete the paragraph about lawyers.	Finally, I would delete the paragraph about lawyers.	83646887	1474058286859	1474058286932	r	82
162210	1760597	Finally, I would delete the paragraph about lawyers.	Finally, I would delete the paragraph about lawyers.	83646925	1474058286965	1474058287080	a	65
162210	1760597	Finally, I would delete the paragraph about lawyers.	Finally, I would delete the paragraph about lawyers.	83646927	1474058287185	1474058287249	g	71
162210	1760597	Finally, I would delete the paragraph about lawyers.	Finally, I would delete the paragraph about lawyers.	83646929	1474058287312	1474058287384	r	82
162210	1760597	Finally, I would delete the paragraph about lawyers.	Finally, I would delete the paragraph about lawyers.	83646932	1474058287415	1474058287529	a	65
162210	1760597	Finally, I would delete the paragraph about lawyers.	Finally, I would delete the paragraph about lawyers.	83646935	1474058287612	1474058287652	o	79
162210	1760597	Finally, I would delete the paragraph about lawyers.	Finally, I would delete the paragraph about lawyers.	83647039	1474058288191	1474058288250	BKSP	8
162210	1760597	Finally, I would delete the paragraph about lawyers.	Finally, I would delete the paragraph about lawyers.	83647044	1474058288312	1474058288359	o	79
162210	1760597	Finally, I would delete the paragraph about lawyers.	Finally, I would delete the paragraph about lawyers.	83647047	1474058288797	1474058288851	BKSP	8
162210	1760597	Finally, I would delete the paragraph about lawyers.	Finally, I would delete the paragraph about lawyers.	83647050	1474058288898	1474058288983	p	80
162210	1760597	Finally, I would delete the paragraph about lawyers.	Finally, I would delete the paragraph about lawyers.	83647054	1474058289152	1474058289207	h	72
162210	1760597	Finally, I would delete the paragraph about lawyers.	Finally, I would delete the paragraph about lawyers.	83647056	1474058289268	1474058289368	 	32
162210	1760597	Finally, I would delete the paragraph about lawyers.	Finally, I would delete the paragraph about lawyers.	83647059	1474058289415	1474058289500	a	65
162210	1760597	Finally, I would delete the paragraph about lawyers.	Finally, I would delete the paragraph about lawyers.	83647090	1474058289616	1474058289675	b	66
162210	1760597	Finally, I would delete the paragraph about lawyers.	Finally, I would delete the paragraph about lawyers.	83647095	1474058289801	1474058289869	o	79
162210	1760597	Finally, I would delete the paragraph about lawyers.	Finally, I would delete the paragraph about lawyers.	83647100	1474058289970	1474058290034	u	85
162210	1760597	Finally, I would delete the paragraph about lawyers.	Finally, I would delete the paragraph about lawyers.	83647108	1474058290138	1474058290219	t	84
162210	1760597	Finally, I would delete the paragraph about lawyers.	Finally, I would delete the paragraph about lawyers.	83647158	1474058290200	1474058290255	 	32
162210	1760597	Finally, I would delete the paragraph about lawyers.	Finally, I would delete the paragraph about lawyers.	83647159	1474058290417	1474058290496	l	76
162210	1760597	Finally, I would delete the paragraph about lawyers.	Finally, I would delete the paragraph about lawyers.	83647161	1474058290484	1474058290570	a	65
162210	1760597	Finally, I would delete the paragraph about lawyers.	Finally, I would delete the paragraph about lawyers.	83647164	1474058290786	1474058290886	w	87
162210	1760597	Finally, I would delete the paragraph about lawyers.	Finally, I would delete the paragraph about lawyers.	83647169	1474058290986	1474058291049	y	89
162210	1760597	Finally, I would delete the paragraph about lawyers.	Finally, I would delete the paragraph about lawyers.	83647176	1474058291066	1474058291146	e	69
162210	1760597	Finally, I would delete the paragraph about lawyers.	Finally, I would delete the paragraph about lawyers.	83647184	1474058291255	1474058291325	r	82
162210	1760597	Finally, I would delete the paragraph about lawyers.	Finally, I would delete the paragraph about lawyers.	83647187	1474058291418	1474058291480	s	83
162210	1760618	Sorry it took so long.	Sorry it took so long.	83647437	1474058294437	1474058294585	SHIFT	16
162210	1760618	Sorry it took so long.	Sorry it took so long.	83647434	1474058294521	1474058294569	S	83
162210	1760618	Sorry it took so long.	Sorry it took so long.	83647440	1474058294600	1474058294676	o	79
162210	1760618	Sorry it took so long.	Sorry it took so long.	83647443	1474058294777	1474058294861	r	82
162210	1760618	Sorry it took so long.	Sorry it took so long.	83647446	1474058294932	1474058295000	r	82
162210	1760618	Sorry it took so long.	Sorry it took so long.	83647451	1474058295015	1474058295077	y	89
162210	1760618	Sorry it took so long.	Sorry it took so long.	83647469	1474058295096	1474058295156	 	32
162210	1760618	Sorry it took so long.	Sorry it took so long.	83647473	1474058295219	1474058295281	i	73
162210	1760618	Sorry it took so long.	Sorry it took so long.	83647479	1474058295394	1474058295449	r	84
162210	1760618	Sorry it took so long.	Sorry it took so long.	83647482	1474058295463	1474058295518	 	32
162210	1760618	Sorry it took so long.	Sorry it took so long.	83647532	1474058295547	1474058295617	t	84
162210	1760618	Sorry it took so long.	Sorry it took so long.	83647537	1474058295830	1474058295891	BKSP	8
162210	1760618	Sorry it took so long.	Sorry it took so long.	83647541	1474058295963	1474058296003	BKSP	8
162210	1760618	Sorry it took so long.	Sorry it took so long.	83647543	1474058296064	1474058296142	BKSP	8
162210	1760618	Sorry it took so long.	Sorry it took so long.	83647545	1474058296164	1474058296219	 	32
162210	1760618	Sorry it took so long.	Sorry it took so long.	83647547	1474058296280	1474058296354	t	84
162210	1760618	Sorry it took so long.	Sorry it took so long.	83647552	1474058296465	1474058296533	o	79
162210	1760618	Sorry it took so long.	Sorry it took so long.	83647556	1474058296597	1474058296655	o	79
162210	1760618	Sorry it took so long.	Sorry it took so long.	83647564	1474058296729	1474058296825	k	75
162210	1760618	Sorry it took so long.	Sorry it took so long.	83647568	1474058296801	1474058296867	 	32
162210	1760618	Sorry it took so long.	Sorry it took so long.	83647571	1474058296899	1474058296998	s	83
162210	1760618	Sorry it took so long.	Sorry it took so long.	83647578	1474058296936	1474058297017	o	79
162210	1760618	Sorry it took so long.	Sorry it took so long.	83647584	1474058297017	1474058297069	 	32
162210	1760618	Sorry it took so long.	Sorry it took so long.	83647664	1474058297135	1474058297185	l	76
162210	1760618	Sorry it took so long.	Sorry it took so long.	83647669	1474058297248	1474058297301	o	79
162210	1760618	Sorry it took so long.	Sorry it took so long.	83647676	1474058297414	1474058297470	n	78
162210	1760618	Sorry it took so long.	Sorry it took so long.	83647683	1474058297549	1474058297596	f	70
162210	1760618	Sorry it took so long.	Sorry it took so long.	83647689	1474058297915	1474058297984	BKSP	8
162210	1760618	Sorry it took so long.	Sorry it took so long.	83647696	1474058298216	1474058298315	g	71
162210	1760628	So, we need to get these resolved.	So, we need to get these resolved.	83647895	1474058301277	1474058301435	SHIFT	16
162210	1760628	So, we need to get these resolved.	So, we need to get these resolved.	83647897	1474058301377	1474058301486	S	83
162210	1760628	So, we need to get these resolved.	So, we need to get these resolved.	83647905	1474058301451	1474058301533	o	79
162210	1760628	So, we need to get these resolved.	So, we need to get these resolved.	83647909	1474058301533	1474058301615	 	32
162210	1760628	So, we need to get these resolved.	So, we need to get these resolved.	83647915	1474058301794	1474058301860	BKSP	8
162210	1760628	So, we need to get these resolved.	So, we need to get these resolved.	83647921	1474058301895	1474058301951	,	188
162210	1760628	So, we need to get these resolved.	So, we need to get these resolved.	83647927	1474058302096	1474058302197	 	32
162210	1760628	So, we need to get these resolved.	So, we need to get these resolved.	83647942	1474058302217	1474058302281	w	87
162210	1760628	So, we need to get these resolved.	So, we need to get these resolved.	83647948	1474058302359	1474058302434	e	69
162210	1760628	So, we need to get these resolved.	So, we need to get these resolved.	83647954	1474058302478	1474058302521	 	32
162210	1760628	So, we need to get these resolved.	So, we need to get these resolved.	83647960	1474058302648	1474058302708	n	78
162210	1760628	So, we need to get these resolved.	So, we need to get these resolved.	83647965	1474058302708	1474058302783	e	69
162210	1760628	So, we need to get these resolved.	So, we need to get these resolved.	83647986	1474058302855	1474058302902	e	69
162210	1760628	So, we need to get these resolved.	So, we need to get these resolved.	83647989	1474058302981	1474058303046	d	68
162210	1760628	So, we need to get these resolved.	So, we need to get these resolved.	83647991	1474058303020	1474058303081	 	32
162210	1760628	So, we need to get these resolved.	So, we need to get these resolved.	83647996	1474058303157	1474058303219	t	84
162210	1760628	So, we need to get these resolved.	So, we need to get these resolved.	83648001	1474058303351	1474058303429	o	79
162210	1760628	So, we need to get these resolved.	So, we need to get these resolved.	83648049	1474058303401	1474058303465	 	32
162210	1760628	So, we need to get these resolved.	So, we need to get these resolved.	83648052	1474058303587	1474058303619	g	71
162210	1760628	So, we need to get these resolved.	So, we need to get these resolved.	83648057	1474058303619	1474058303701	e	69
162210	1760628	So, we need to get these resolved.	So, we need to get these resolved.	83648062	1474058303965	1474058304019	t	84
162210	1760628	So, we need to get these resolved.	So, we need to get these resolved.	83648066	1474058304035	1474058304102	 	32
162210	1760628	So, we need to get these resolved.	So, we need to get these resolved.	83648073	1474058304150	1474058304220	t	84
162210	1760628	So, we need to get these resolved.	So, we need to get these resolved.	83648105	1474058304315	1474058304386	h	72
162210	1760628	So, we need to get these resolved.	So, we need to get these resolved.	83648107	1474058304369	1474058304449	e	69
162210	1760628	So, we need to get these resolved.	So, we need to get these resolved.	83648112	1474058304514	1474058304569	s	83
162210	1760628	So, we need to get these resolved.	So, we need to get these resolved.	83648118	1474058304667	1474058304750	e	69
162210	1760628	So, we need to get these resolved.	So, we need to get these resolved.	83648120	1474058304765	1474058304835	 	32
162210	1760628	So, we need to get these resolved.	So, we need to get these resolved.	83648141	1474058304847	1474058304930	r	82
162210	1760628	So, we need to get these resolved.	So, we need to get these resolved.	83648144	1474058305003	1474058305068	e	69
162210	1760628	So, we need to get these resolved.	So, we need to get these resolved.	83648149	1474058305166	1474058305243	s	83
162210	1760628	So, we need to get these resolved.	So, we need to get these resolved.	83648153	1474058305259	1474058305318	o	79
162210	1760628	So, we need to get these resolved.	So, we need to get these resolved.	83648154	1474058305404	1474058305469	l	76
162210	1760628	So, we need to get these resolved.	So, we need to get these resolved.	83648175	1474058305582	1474058305646	v	86
162210	1760628	So, we need to get these resolved.	So, we need to get these resolved.	83648177	1474058305619	1474058305702	e	69
162210	1760628	So, we need to get these resolved.	So, we need to get these resolved.	83648180	1474058305782	1474058305881	d	68
162210	1760640	I am too, and we are working very hard to turn it around.	I am too, and we are working very hard to turn it around.	83648541	1474058310982	1474058311204	SHIFT	16
162210	1760640	I am too, and we are working very hard to turn it around.	I am too, and we are working very hard to turn it around.	83648539	1474058311118	1474058311185	I	73
162210	1760640	I am too, and we are working very hard to turn it around.	I am too, and we are working very hard to turn it around.	83648543	1474058311249	1474058311349	 	32
162210	1760640	I am too, and we are working very hard to turn it around.	I am too, and we are working very hard to turn it around.	83648546	1474058311365	1474058311459	a	65
162210	1760640	I am too, and we are working very hard to turn it around.	I am too, and we are working very hard to turn it around.	83648552	1474058311435	1474058311521	m	77
162210	1760640	I am too, and we are working very hard to turn it around.	I am too, and we are working very hard to turn it around.	83648596	1474058311502	1474058311584	 	32
162210	1760640	I am too, and we are working very hard to turn it around.	I am too, and we are working very hard to turn it around.	83648600	1474058311718	1474058311786	t	84
162210	1760640	I am too, and we are working very hard to turn it around.	I am too, and we are working very hard to turn it around.	83648602	1474058311933	1474058312000	o	79
162210	1760640	I am too, and we are working very hard to turn it around.	I am too, and we are working very hard to turn it around.	83648604	1474058312065	1474058312130	o	79
162210	1760640	I am too, and we are working very hard to turn it around.	I am too, and we are working very hard to turn it around.	83648607	1474058312120	1474058312171	,	188
162210	1760640	I am too, and we are working very hard to turn it around.	I am too, and we are working very hard to turn it around.	83648610	1474058312281	1474058312336	 	32
162210	1760640	I am too, and we are working very hard to turn it around.	I am too, and we are working very hard to turn it around.	83648616	1474058312375	1474058312470	a	65
162210	1760640	I am too, and we are working very hard to turn it around.	I am too, and we are working very hard to turn it around.	83648619	1474058312451	1474058312529	n	78
162210	1760640	I am too, and we are working very hard to turn it around.	I am too, and we are working very hard to turn it around.	83648622	1474058312566	1474058312619	d	68
162210	1760640	I am too, and we are working very hard to turn it around.	I am too, and we are working very hard to turn it around.	83648625	1474058312635	1474058312703	 	32
162210	1760640	I am too, and we are working very hard to turn it around.	I am too, and we are working very hard to turn it around.	83648631	1474058312734	1474058312791	w	87
162210	1760640	I am too, and we are working very hard to turn it around.	I am too, and we are working very hard to turn it around.	83648643	1474058312850	1474058312919	e	69
162210	1760640	I am too, and we are working very hard to turn it around.	I am too, and we are working very hard to turn it around.	83648647	1474058312919	1474058313012	 	32
162210	1760640	I am too, and we are working very hard to turn it around.	I am too, and we are working very hard to turn it around.	83648654	1474058313003	1474058313117	a	65
162210	1760640	I am too, and we are working very hard to turn it around.	I am too, and we are working very hard to turn it around.	83648663	1474058313127	1474058313184	r	82
162210	1760640	I am too, and we are working very hard to turn it around.	I am too, and we are working very hard to turn it around.	83648669	1474058313250	1474058313324	e	69
162210	1760640	I am too, and we are working very hard to turn it around.	I am too, and we are working very hard to turn it around.	83648703	1474058313304	1474058313403	 	32
162210	1760640	I am too, and we are working very hard to turn it around.	I am too, and we are working very hard to turn it around.	83648709	1474058313535	1474058313635	w	87
162210	1760640	I am too, and we are working very hard to turn it around.	I am too, and we are working very hard to turn it around.	83648715	1474058313820	1474058313886	o	79
162210	1760640	I am too, and we are working very hard to turn it around.	I am too, and we are working very hard to turn it around.	83648721	1474058313921	1474058314005	r	82
162210	1760640	I am too, and we are working very hard to turn it around.	I am too, and we are working very hard to turn it around.	83648723	1474058314037	1474058314097	k	75
162210	1760640	I am too, and we are working very hard to turn it around.	I am too, and we are working very hard to turn it around.	83648726	1474058314177	1474058314237	i	73
162210	1760640	I am too, and we are working very hard to turn it around.	I am too, and we are working very hard to turn it around.	83648731	1474058314325	1474058314387	n	78
162210	1760640	I am too, and we are working very hard to turn it around.	I am too, and we are working very hard to turn it around.	83648732	1474058314468	1474058314539	g	71
162210	1760640	I am too, and we are working very hard to turn it around.	I am too, and we are working very hard to turn it around.	83648736	1474058314528	1474058314585	 	32
162210	1760640	I am too, and we are working very hard to turn it around.	I am too, and we are working very hard to turn it around.	83648740	1474058314638	1474058314707	v	86
162210	1760640	I am too, and we are working very hard to turn it around.	I am too, and we are working very hard to turn it around.	83648755	1474058314680	1474058314745	e	69
162210	1760640	I am too, and we are working very hard to turn it around.	I am too, and we are working very hard to turn it around.	83648757	1474058314807	1474058314891	r	82
162210	1760640	I am too, and we are working very hard to turn it around.	I am too, and we are working very hard to turn it around.	83648759	1474058314869	1474058314960	y	89
162210	1760640	I am too, and we are working very hard to turn it around.	I am too, and we are working very hard to turn it around.	83648762	1474058314938	1474058315002	 	32
162210	1760640	I am too, and we are working very hard to turn it around.	I am too, and we are working very hard to turn it around.	83648765	1474058315043	1474058315119	h	72
162210	1760640	I am too, and we are working very hard to turn it around.	I am too, and we are working very hard to turn it around.	83648802	1474058315088	1474058315207	a	65
162210	1760640	I am too, and we are working very hard to turn it around.	I am too, and we are working very hard to turn it around.	83648804	1474058315211	1474058315255	r	82
162210	1760640	I am too, and we are working very hard to turn it around.	I am too, and we are working very hard to turn it around.	83648806	1474058315341	1474058315417	d	68
162210	1760640	I am too, and we are working very hard to turn it around.	I am too, and we are working very hard to turn it around.	83648807	1474058315387	1474058315438	 	32
162210	1760640	I am too, and we are working very hard to turn it around.	I am too, and we are working very hard to turn it around.	83648808	1474058315514	1474058315570	t	84
162210	1760640	I am too, and we are working very hard to turn it around.	I am too, and we are working very hard to turn it around.	83648809	1474058315690	1474058315770	o	79
162210	1760640	I am too, and we are working very hard to turn it around.	I am too, and we are working very hard to turn it around.	83648847	1474058315721	1474058315811	 	32
162210	1760640	I am too, and we are working very hard to turn it around.	I am too, and we are working very hard to turn it around.	83648849	1474058315890	1474058315974	t	84
162210	1760640	I am too, and we are working very hard to turn it around.	I am too, and we are working very hard to turn it around.	83648854	1474058316060	1474058316144	u	85
162210	1760640	I am too, and we are working very hard to turn it around.	I am too, and we are working very hard to turn it around.	83648860	1474058316120	1474058316215	r	82
162210	1760640	I am too, and we are working very hard to turn it around.	I am too, and we are working very hard to turn it around.	83648867	1474058316242	1474058316308	n	78
162210	1760640	I am too, and we are working very hard to turn it around.	I am too, and we are working very hard to turn it around.	83648872	1474058316730	1474058316814	 	32
162210	1760640	I am too, and we are working very hard to turn it around.	I am too, and we are working very hard to turn it around.	83648875	1474058316859	1474058316915	i	73
162210	1760640	I am too, and we are working very hard to turn it around.	I am too, and we are working very hard to turn it around.	83648877	1474058317016	1474058317099	t	84
162210	1760640	I am too, and we are working very hard to turn it around.	I am too, and we are working very hard to turn it around.	83648881	1474058317086	1474058317181	 	32
162210	1760640	I am too, and we are working very hard to turn it around.	I am too, and we are working very hard to turn it around.	83648887	1474058317169	1474058317278	a	65
162210	1760640	I am too, and we are working very hard to turn it around.	I am too, and we are working very hard to turn it around.	83648892	1474058317283	1474058317365	r	82
162210	1760640	I am too, and we are working very hard to turn it around.	I am too, and we are working very hard to turn it around.	83648912	1474058317352	1474058317413	o	79
162210	1760640	I am too, and we are working very hard to turn it around.	I am too, and we are working very hard to turn it around.	83648916	1474058317495	1474058317549	u	85
162210	1760640	I am too, and we are working very hard to turn it around.	I am too, and we are working very hard to turn it around.	83648921	1474058317618	1474058317687	n	78
162210	1760640	I am too, and we are working very hard to turn it around.	I am too, and we are working very hard to turn it around.	83648927	1474058317777	1474058317853	d	68
