PARTICIPANT_ID	TEST_SECTION_ID	SENTENCE	USER_INPUT	KEYSTROKE_ID	PRESS_TIME	RELEASE_TIME	LETTER	KEYCODE
163698	1777197	Is this cash coming into TW?	Is this cash coming inti Tw?	84432372	1474080293335	1474080293993	SHIFT	16
163698	1777197	Is this cash coming into TW?	Is this cash coming inti Tw?	84432371	1474080293821	1474080293920	T	84
163698	1777197	Is this cash coming into TW?	Is this cash coming inti Tw?	84432373	1474080294336	1474080294458	BKSP	8
163698	1777197	Is this cash coming into TW?	Is this cash coming inti Tw?	84432374	1474080294521	1474080294797	SHIFT	16
163698	1777197	Is this cash coming into TW?	Is this cash coming inti Tw?	84432375	1474080294646	1474080294916	I	73
163698	1777197	Is this cash coming into TW?	Is this cash coming inti Tw?	84432378	1474080294797	1474080295009	 	32
163698	1777197	Is this cash coming into TW?	Is this cash coming inti Tw?	84432382	1474080295228	1474080295366	BKSP	8
163698	1777197	Is this cash coming into TW?	Is this cash coming inti Tw?	84432386	1474080295413	1474080295549	s	83
163698	1777197	Is this cash coming into TW?	Is this cash coming inti Tw?	84432390	1474080295549	1474080295666	 	32
163698	1777197	Is this cash coming into TW?	Is this cash coming inti Tw?	84432460	1474080295915	1474080296074	t	84
163698	1777197	Is this cash coming into TW?	Is this cash coming inti Tw?	84432462	1474080296965	1474080297084	h	72
163698	1777197	Is this cash coming into TW?	Is this cash coming inti Tw?	84432465	1474080297365	1474080297484	i	73
163698	1777197	Is this cash coming into TW?	Is this cash coming inti Tw?	84432467	1474080297531	1474080297691	s	83
163698	1777197	Is this cash coming into TW?	Is this cash coming inti Tw?	84432469	1474080297691	1474080297817	 	32
163698	1777197	Is this cash coming into TW?	Is this cash coming inti Tw?	84432536	1474080298061	1474080298199	c	67
163698	1777197	Is this cash coming into TW?	Is this cash coming inti Tw?	84432540	1474080298558	1474080298609	BKSP	8
163698	1777197	Is this cash coming into TW?	Is this cash coming inti Tw?	84432548	1474080299230	1474080299420	c	67
163698	1777197	Is this cash coming into TW?	Is this cash coming inti Tw?	84432551	1474080299334	1474080299513	a	65
163698	1777197	Is this cash coming into TW?	Is this cash coming inti Tw?	84432555	1474080299623	1474080299780	s	83
163698	1777197	Is this cash coming into TW?	Is this cash coming inti Tw?	84432557	1474080299811	1474080300085	h	72
163698	1777197	Is this cash coming into TW?	Is this cash coming inti Tw?	84432574	1474080299979	1474080300172	 	32
163698	1777197	Is this cash coming into TW?	Is this cash coming inti Tw?	84432577	1474080300344	1474080300518	c	67
163698	1777197	Is this cash coming into TW?	Is this cash coming inti Tw?	84432584	1474080300419	1474080300565	o	79
163698	1777197	Is this cash coming into TW?	Is this cash coming inti Tw?	84432589	1474080300690	1474080300793	m	77
163698	1777197	Is this cash coming into TW?	Is this cash coming inti Tw?	84432594	1474080300840	1474080300943	m	77
163698	1777197	Is this cash coming into TW?	Is this cash coming inti Tw?	84432598	1474080301053	1474080301144	i	73
163698	1777197	Is this cash coming into TW?	Is this cash coming inti Tw?	84432703	1474080301390	1474080301485	BKSP	8
163698	1777197	Is this cash coming into TW?	Is this cash coming inti Tw?	84432704	1474080301641	1474080301751	i	73
163698	1777197	Is this cash coming into TW?	Is this cash coming inti Tw?	84432705	1474080302024	1474080302102	BKSP	8
163698	1777197	Is this cash coming into TW?	Is this cash coming inti Tw?	84432706	1474080302196	1474080302269	BKSP	8
163698	1777197	Is this cash coming into TW?	Is this cash coming inti Tw?	84432709	1474080302394	1474080302510	i	73
163698	1777197	Is this cash coming into TW?	Is this cash coming inti Tw?	84432712	1474080302803	1474080302952	g	71
163698	1777197	Is this cash coming into TW?	Is this cash coming inti Tw?	84432716	1474080302932	1474080303051	 	32
163698	1777197	Is this cash coming into TW?	Is this cash coming inti Tw?	84432719	1474080303317	1474080303401	BKSP	8
163698	1777197	Is this cash coming into TW?	Is this cash coming inti Tw?	84432721	1474080303480	1474080303569	BKSP	8
163698	1777197	Is this cash coming into TW?	Is this cash coming inti Tw?	84432724	1474080303787	1474080303864	b	66
163698	1777197	Is this cash coming into TW?	Is this cash coming inti Tw?	84432797	1474080303940	1474080304066	g	71
163698	1777197	Is this cash coming into TW?	Is this cash coming inti Tw?	84432799	1474080304348	1474080304445	BKSP	8
163698	1777197	Is this cash coming into TW?	Is this cash coming inti Tw?	84432804	1474080304507	1474080304610	BKSP	8
163698	1777197	Is this cash coming into TW?	Is this cash coming inti Tw?	84432807	1474080304767	1474080304894	n	78
163698	1777197	Is this cash coming into TW?	Is this cash coming inti Tw?	84432811	1474080304882	1474080305046	g	71
163698	1777197	Is this cash coming into TW?	Is this cash coming inti Tw?	84432812	1474080305249	1474080305375	 	32
163698	1777197	Is this cash coming into TW?	Is this cash coming inti Tw?	84432813	1474080305774	1474080305899	i	73
163698	1777197	Is this cash coming into TW?	Is this cash coming inti Tw?	84432901	1474080306818	1474080306950	n	78
163698	1777197	Is this cash coming into TW?	Is this cash coming inti Tw?	84432905	1474080307138	1474080307290	o	79
163698	1777197	Is this cash coming into TW?	Is this cash coming inti Tw?	84432910	1474080307462	1474080307598	t	84
163698	1777197	Is this cash coming into TW?	Is this cash coming inti Tw?	84432913	1474080307645	1474080307766	 	32
163698	1777197	Is this cash coming into TW?	Is this cash coming inti Tw?	84432916	1474080308094	1474080308217	=	187
163698	1777197	Is this cash coming into TW?	Is this cash coming inti Tw?	84432960	1474080308275	1474080308391	=	187
163698	1777197	Is this cash coming into TW?	Is this cash coming inti Tw?	84432961	1474080308501	1474080308617	=	187
163698	1777197	Is this cash coming into TW?	Is this cash coming inti Tw?	84432962	1474080308664	1474080308784	BKSP	8
163698	1777197	Is this cash coming into TW?	Is this cash coming inti Tw?	84432964	1474080308831	1474080308949	BKSP	8
163698	1777197	Is this cash coming into TW?	Is this cash coming inti Tw?	84432966	1474080308965	1474080309068	BKSP	8
163698	1777197	Is this cash coming into TW?	Is this cash coming inti Tw?	84432968	1474080309099	1474080309199	BKSP	8
163698	1777197	Is this cash coming into TW?	Is this cash coming inti Tw?	84432970	1474080309230	1474080309333	BKSP	8
163698	1777197	Is this cash coming into TW?	Is this cash coming inti Tw?	84432973	1474080309380	1474080309484	BKSP	8
163698	1777197	Is this cash coming into TW?	Is this cash coming inti Tw?	84432977	1474080310047	1474080310185	t	84
163698	1777197	Is this cash coming into TW?	Is this cash coming inti Tw?	84432978	1474080310103	1474080310351	i	73
163698	1777197	Is this cash coming into TW?	Is this cash coming inti Tw?	84433030	1474080310232	1474080310440	 	32
163698	1777197	Is this cash coming into TW?	Is this cash coming inti Tw?	84433038	1474080310533	1474080311206	SHIFT	16
163698	1777197	Is this cash coming into TW?	Is this cash coming inti Tw?	84433033	1474080311057	1474080311175	T	84
163698	1777197	Is this cash coming into TW?	Is this cash coming inti Tw?	84433043	1474080311253	1474080311383	w	87
163698	1777197	Is this cash coming into TW?	Is this cash coming inti Tw?	84433052	1474080311789	1474080312460	SHIFT	16
163698	1777197	Is this cash coming into TW?	Is this cash coming inti Tw?	84433048	1474080312243	1474080312351	?	191
163698	1777212	Lynn, got to the office OK.	Lynn, got to the office OK.	84433258	1474080315318	1474080316014	SHIFT	16
163698	1777212	Lynn, got to the office OK.	Lynn, got to the office OK.	84433257	1474080315853	1474080315951	L	76
163698	1777212	Lynn, got to the office OK.	Lynn, got to the office OK.	84433259	1474080316875	1474080316983	y	89
163698	1777212	Lynn, got to the office OK.	Lynn, got to the office OK.	84433260	1474080317202	1474080317302	n	78
163698	1777212	Lynn, got to the office OK.	Lynn, got to the office OK.	84433261	1474080317349	1474080317450	n	78
163698	1777212	Lynn, got to the office OK.	Lynn, got to the office OK.	84433263	1474080318092	1474080318221	,	188
163698	1777212	Lynn, got to the office OK.	Lynn, got to the office OK.	84433314	1474080318210	1474080318364	 	32
163698	1777212	Lynn, got to the office OK.	Lynn, got to the office OK.	84433317	1474080319006	1474080319147	g	71
163698	1777212	Lynn, got to the office OK.	Lynn, got to the office OK.	84433319	1474080319101	1474080319296	o	79
163698	1777212	Lynn, got to the office OK.	Lynn, got to the office OK.	84433321	1474080319246	1474080319399	t	84
163698	1777212	Lynn, got to the office OK.	Lynn, got to the office OK.	84433323	1474080319390	1474080319570	 	32
163698	1777212	Lynn, got to the office OK.	Lynn, got to the office OK.	84433324	1474080319586	1474080319767	t	84
163698	1777212	Lynn, got to the office OK.	Lynn, got to the office OK.	84433364	1474080319676	1474080319904	o	79
163698	1777212	Lynn, got to the office OK.	Lynn, got to the office OK.	84433367	1474080319777	1474080319951	 	32
163698	1777212	Lynn, got to the office OK.	Lynn, got to the office OK.	84433371	1474080320154	1474080320281	y	89
163698	1777212	Lynn, got to the office OK.	Lynn, got to the office OK.	84433374	1474080320336	1474080320565	h	72
163698	1777212	Lynn, got to the office OK.	Lynn, got to the office OK.	84433379	1474080320448	1474080320565	e	69
163698	1777212	Lynn, got to the office OK.	Lynn, got to the office OK.	84433383	1474080320922	1474080321032	BKSP	8
163698	1777212	Lynn, got to the office OK.	Lynn, got to the office OK.	84433386	1474080321064	1474080321272	BKSP	8
163698	1777212	Lynn, got to the office OK.	Lynn, got to the office OK.	84433465	1474080321214	1474080321393	t	84
163698	1777212	Lynn, got to the office OK.	Lynn, got to the office OK.	84433468	1474080321725	1474080321828	BKSP	8
163698	1777212	Lynn, got to the office OK.	Lynn, got to the office OK.	84433471	1474080321890	1474080321963	BKSP	8
163698	1777212	Lynn, got to the office OK.	Lynn, got to the office OK.	84433474	1474080321978	1474080322123	t	84
163698	1777212	Lynn, got to the office OK.	Lynn, got to the office OK.	84433476	1474080322098	1474080322264	h	72
163698	1777212	Lynn, got to the office OK.	Lynn, got to the office OK.	84433477	1474080322253	1474080322405	e	69
163698	1777212	Lynn, got to the office OK.	Lynn, got to the office OK.	84433479	1474080322382	1474080322499	 	32
163698	1777212	Lynn, got to the office OK.	Lynn, got to the office OK.	84433481	1474080323063	1474080323199	o	79
163698	1777212	Lynn, got to the office OK.	Lynn, got to the office OK.	84433519	1474080323290	1474080323439	f	70
163698	1777212	Lynn, got to the office OK.	Lynn, got to the office OK.	84433524	1474080323501	1474080323641	f	70
163698	1777212	Lynn, got to the office OK.	Lynn, got to the office OK.	84433528	1474080324174	1474080324314	c	67
163698	1777212	Lynn, got to the office OK.	Lynn, got to the office OK.	84433531	1474080324329	1474080324443	u	85
163698	1777212	Lynn, got to the office OK.	Lynn, got to the office OK.	84433534	1474080324646	1474080324744	BKSP	8
163698	1777212	Lynn, got to the office OK.	Lynn, got to the office OK.	84433536	1474080324791	1474080324900	BKSP	8
163698	1777212	Lynn, got to the office OK.	Lynn, got to the office OK.	84433538	1474080324993	1474080325116	u	85
163698	1777212	Lynn, got to the office OK.	Lynn, got to the office OK.	84433584	1474080325135	1474080325342	c	67
163698	1777212	Lynn, got to the office OK.	Lynn, got to the office OK.	84433588	1474080325258	1474080325459	e	69
163698	1777212	Lynn, got to the office OK.	Lynn, got to the office OK.	84433586	1474080325358	1474080325444	 	32
163698	1777212	Lynn, got to the office OK.	Lynn, got to the office OK.	84433589	1474080325616	1474080325710	BKSP	8
163698	1777212	Lynn, got to the office OK.	Lynn, got to the office OK.	84433590	1474080325773	1474080325867	BKSP	8
163698	1777212	Lynn, got to the office OK.	Lynn, got to the office OK.	84433591	1474080325914	1474080326016	BKSP	8
163698	1777212	Lynn, got to the office OK.	Lynn, got to the office OK.	84433592	1474080326047	1474080326143	BKSP	8
163698	1777212	Lynn, got to the office OK.	Lynn, got to the office OK.	84433593	1474080326284	1474080326425	i	73
163698	1777212	Lynn, got to the office OK.	Lynn, got to the office OK.	84433594	1474080326472	1474080326717	c	67
163698	1777212	Lynn, got to the office OK.	Lynn, got to the office OK.	84433661	1474080326624	1474080326811	e	69
163698	1777212	Lynn, got to the office OK.	Lynn, got to the office OK.	84433664	1474080327218	1474080327341	 	32
163698	1777212	Lynn, got to the office OK.	Lynn, got to the office OK.	84433673	1474080327544	1474080328316	SHIFT	16
163698	1777212	Lynn, got to the office OK.	Lynn, got to the office OK.	84433667	1474080327714	1474080327832	O	79
163698	1777212	Lynn, got to the office OK.	Lynn, got to the office OK.	84433670	1474080327941	1474080328050	K	75
163698	1777212	Lynn, got to the office OK.	Lynn, got to the office OK.	84433675	1474080328500	1474080328600	.	190
163698	1777228	What is the stock price doing?	What is the stock price doing	84433851	1474080333691	1474080334001	SHIFT	16
163698	1777228	What is the stock price doing?	What is the stock price doing	84433853	1474080333896	1474080334063	W	87
163698	1777228	What is the stock price doing?	What is the stock price doing	84433855	1474080334705	1474080334847	h	72
163698	1777228	What is the stock price doing?	What is the stock price doing	84433857	1474080334925	1474080335084	a	65
163698	1777228	What is the stock price doing?	What is the stock price doing	84433859	1474080335001	1474080335260	t	84
163698	1777228	What is the stock price doing?	What is the stock price doing	84433888	1474080335162	1474080335335	 	32
163698	1777228	What is the stock price doing?	What is the stock price doing	84433890	1474080335460	1474080335535	i	73
163698	1777228	What is the stock price doing?	What is the stock price doing	84433895	1474080335613	1474080335745	s	83
163698	1777228	What is the stock price doing?	What is the stock price doing	84433899	1474080335685	1474080335807	 	32
163698	1777228	What is the stock price doing?	What is the stock price doing	84433902	1474080336073	1474080336182	g	71
163698	1777228	What is the stock price doing?	What is the stock price doing	84433904	1474080336276	1474080336367	t	84
163698	1777228	What is the stock price doing?	What is the stock price doing	84433954	1474080336659	1474080336750	BKSP	8
163698	1777228	What is the stock price doing?	What is the stock price doing	84433957	1474080336797	1474080336908	BKSP	8
163698	1777228	What is the stock price doing?	What is the stock price doing	84433961	1474080337001	1474080337169	t	84
163698	1777228	What is the stock price doing?	What is the stock price doing	84433965	1474080337109	1474080337296	h	72
163698	1777228	What is the stock price doing?	What is the stock price doing	84433969	1474080337404	1474080337563	e	69
163698	1777228	What is the stock price doing?	What is the stock price doing	84433971	1474080337610	1474080337746	 	32
163698	1777228	What is the stock price doing?	What is the stock price doing	84433974	1474080337872	1474080338045	s	83
163698	1777228	What is the stock price doing?	What is the stock price doing	84433989	1474080338150	1474080338296	t	84
163698	1777228	What is the stock price doing?	What is the stock price doing	84433991	1474080338359	1474080338531	o	79
163698	1777228	What is the stock price doing?	What is the stock price doing	84433995	1474080338512	1474080338701	c	67
163698	1777228	What is the stock price doing?	What is the stock price doing	84433999	1474080338672	1474080338915	j	74
163698	1777228	What is the stock price doing?	What is the stock price doing	84434074	1474080338776	1474080338988	 	32
163698	1777228	What is the stock price doing?	What is the stock price doing	84434076	1474080339341	1474080339427	-	189
163698	1777228	What is the stock price doing?	What is the stock price doing	84434079	1474080339520	1474080339617	=	187
163698	1777228	What is the stock price doing?	What is the stock price doing	84434082	1474080339679	1474080339761	BKSP	8
163698	1777228	What is the stock price doing?	What is the stock price doing	84434084	1474080339808	1474080339933	BKSP	8
163698	1777228	What is the stock price doing?	What is the stock price doing	84434086	1474080339980	1474080340036	BKSP	8
163698	1777228	What is the stock price doing?	What is the stock price doing	84434088	1474080340067	1474080340167	BKSP	8
163698	1777228	What is the stock price doing?	What is the stock price doing	84434090	1474080340368	1474080340608	k	75
163698	1777228	What is the stock price doing?	What is the stock price doing	84434092	1474080340475	1474080340686	 	32
163698	1777228	What is the stock price doing?	What is the stock price doing	84434094	1474080341257	1474080341474	o	79
163698	1777228	What is the stock price doing?	What is the stock price doing	84434136	1474080341516	1474080341672	r	82
163698	1777228	What is the stock price doing?	What is the stock price doing	84434137	1474080341750	1474080341858	BKSP	8
163698	1777228	What is the stock price doing?	What is the stock price doing	84434138	1474080341905	1474080341984	BKSP	8
163698	1777228	What is the stock price doing?	What is the stock price doing	84434140	1474080342062	1474080342198	p	80
163698	1777228	What is the stock price doing?	What is the stock price doing	84434144	1474080342245	1474080342365	r	82
163698	1777228	What is the stock price doing?	What is the stock price doing	84434148	1474080342286	1474080342397	i	73
163698	1777228	What is the stock price doing?	What is the stock price doing	84434152	1474080342972	1474080343160	c	67
163698	1777228	What is the stock price doing?	What is the stock price doing	84434186	1474080343082	1474080343252	e	69
163698	1777228	What is the stock price doing?	What is the stock price doing	84434187	1474080343191	1474080343330	 	32
163698	1777228	What is the stock price doing?	What is the stock price doing	84434188	1474080343658	1474080343829	d	68
163698	1777228	What is the stock price doing?	What is the stock price doing	84434189	1474080343767	1474080343907	i	73
163698	1777228	What is the stock price doing?	What is the stock price doing	84434190	1474080343985	1474080344108	u	85
163698	1777228	What is the stock price doing?	What is the stock price doing	84434191	1474080344204	1474080344355	n	78
163698	1777228	What is the stock price doing?	What is the stock price doing	84434285	1474080344522	1474080344585	BKSP	8
163698	1777228	What is the stock price doing?	What is the stock price doing	84434289	1474080344663	1474080344765	BKSP	8
163698	1777228	What is the stock price doing?	What is the stock price doing	84434294	1474080344812	1474080344894	BKSP	8
163698	1777228	What is the stock price doing?	What is the stock price doing	84434296	1474080345003	1474080345100	o	79
163698	1777228	What is the stock price doing?	What is the stock price doing	84434298	1474080345307	1474080345416	u	85
163698	1777228	What is the stock price doing?	What is the stock price doing	84434301	1474080345776	1474080345882	BKSP	8
163698	1777228	What is the stock price doing?	What is the stock price doing	84434303	1474080345992	1474080346084	u	85
163698	1777228	What is the stock price doing?	What is the stock price doing	84434305	1474080346537	1474080346656	BKSP	8
163698	1777228	What is the stock price doing?	What is the stock price doing	84434307	1474080346766	1474080346882	i	73
163698	1777228	What is the stock price doing?	What is the stock price doing	84434310	1474080347463	1474080347620	n	78
163698	1777228	What is the stock price doing?	What is the stock price doing	84434442	1474080347612	1474080347762	g	71
163698	1777228	What is the stock price doing?	What is the stock price doing	84434444	1474080348137	1474080348438	SHIFT	16
163698	1777228	What is the stock price doing?	What is the stock price doing	84434443	1474080348280	1474080348376	:	186
163698	1777228	What is the stock price doing?	What is the stock price doing	84434445	1474080348782	1474080348859	BKSP	8
163698	1777228	What is the stock price doing?	What is the stock price doing	84434447	1474080349902	1474080350062	"	222
163698	1777228	What is the stock price doing?	What is the stock price doing	84434449	1474080350461	1474080350597	BKSP	8
163698	1777228	What is the stock price doing?	What is the stock price doing	84434452	1474080351185	1474080351354	>	190
163698	1777228	What is the stock price doing?	What is the stock price doing	84434456	1474080351682	1474080351791	BKSP	8
163698	1777228	What is the stock price doing?	What is the stock price doing	84434460	1474080353539	1474080353711	|	220
163698	1777228	What is the stock price doing?	What is the stock price doing	84434464	1474080354933	1474080355017	BKSP	8
163698	1777228	What is the stock price doing?	What is the stock price doing	84434469	1474080355221	1474080355363	>	190
163698	1777228	What is the stock price doing?	What is the stock price doing	84434586	1474080356632	1474080356733	BKSP	8
163698	1777228	What is the stock price doing?	What is the stock price doing	84434588	1474080357586	1474080357746	?	191
163698	1777228	What is the stock price doing?	What is the stock price doing	84434589	1474080358513	1474080358584	?	191
163698	1777228	What is the stock price doing?	What is the stock price doing	84434590	1474080359179	1474080359257	DELETE	46
163698	1777228	What is the stock price doing?	What is the stock price doing	84434591	1474080359320	1474080359445	DELETE	46
163698	1777228	What is the stock price doing?	What is the stock price doing	84434592	1474080359885	1474080359982	BKSP	8
163698	1777228	What is the stock price doing?	What is the stock price doing	84434593	1474080360029	1474080360141	BKSP	8
163698	1777247	Thanks for checking with me.	Thanks for checking with me.	84434699	1474080363444	1474080363657	SHIFT	16
163698	1777247	Thanks for checking with me.	Thanks for checking with me.	84434701	1474080363522	1474080363672	T	84
163698	1777247	Thanks for checking with me.	Thanks for checking with me.	84434702	1474080363969	1474080364090	h	72
163698	1777247	Thanks for checking with me.	Thanks for checking with me.	84434704	1474080364246	1474080364410	a	65
163698	1777247	Thanks for checking with me.	Thanks for checking with me.	84434708	1474080364689	1474080364861	n	78
163698	1777247	Thanks for checking with me.	Thanks for checking with me.	84434711	1474080365096	1474080365274	k	75
163698	1777247	Thanks for checking with me.	Thanks for checking with me.	84434750	1474080365230	1474080365388	s	83
163698	1777247	Thanks for checking with me.	Thanks for checking with me.	84434753	1474080365388	1474080365545	 	32
163698	1777247	Thanks for checking with me.	Thanks for checking with me.	84434758	1474080365670	1474080365871	f	70
163698	1777247	Thanks for checking with me.	Thanks for checking with me.	84434762	1474080365828	1474080365962	i	73
163698	1777247	Thanks for checking with me.	Thanks for checking with me.	84434766	1474080366480	1474080366576	BKSP	8
163698	1777247	Thanks for checking with me.	Thanks for checking with me.	84434770	1474080366810	1474080366931	o	79
163698	1777247	Thanks for checking with me.	Thanks for checking with me.	84434775	1474080366993	1474080367127	t	84
163698	1777247	Thanks for checking with me.	Thanks for checking with me.	84434910	1474080367098	1474080367231	 	32
163698	1777247	Thanks for checking with me.	Thanks for checking with me.	84434911	1474080367730	1474080367840	BKSP	8
163698	1777247	Thanks for checking with me.	Thanks for checking with me.	84434912	1474080367887	1474080368013	BKSP	8
163698	1777247	Thanks for checking with me.	Thanks for checking with me.	84434913	1474080368075	1474080368194	r	82
163698	1777247	Thanks for checking with me.	Thanks for checking with me.	84434914	1474080368141	1474080368273	 	32
163698	1777247	Thanks for checking with me.	Thanks for checking with me.	84434915	1474080368806	1474080368952	c	67
163698	1777247	Thanks for checking with me.	Thanks for checking with me.	84434916	1474080368909	1474080369062	h	72
163698	1777247	Thanks for checking with me.	Thanks for checking with me.	84434917	1474080369688	1474080369790	BKSP	8
163698	1777247	Thanks for checking with me.	Thanks for checking with me.	84434918	1474080370606	1474080370753	h	72
163698	1777247	Thanks for checking with me.	Thanks for checking with me.	84434946	1474080370693	1474080370812	e	69
163698	1777247	Thanks for checking with me.	Thanks for checking with me.	84434951	1474080370953	1474080371136	c	67
163698	1777247	Thanks for checking with me.	Thanks for checking with me.	84434955	1474080371096	1474080371287	k	75
163698	1777247	Thanks for checking with me.	Thanks for checking with me.	84434959	1474080371349	1474080371489	i	73
163698	1777247	Thanks for checking with me.	Thanks for checking with me.	84434962	1474080371567	1474080371722	n	78
163698	1777247	Thanks for checking with me.	Thanks for checking with me.	84435000	1474080371705	1474080371884	g	71
163698	1777247	Thanks for checking with me.	Thanks for checking with me.	84435004	1474080371798	1474080371962	 	32
163698	1777247	Thanks for checking with me.	Thanks for checking with me.	84435007	1474080372365	1474080372538	w	87
163698	1777247	Thanks for checking with me.	Thanks for checking with me.	84435010	1474080372497	1474080372670	i	73
163698	1777247	Thanks for checking with me.	Thanks for checking with me.	84435012	1474080372732	1474080372898	t	84
163698	1777247	Thanks for checking with me.	Thanks for checking with me.	84435054	1474080372815	1474080373074	h	72
163698	1777247	Thanks for checking with me.	Thanks for checking with me.	84435056	1474080372956	1474080373137	 	32
163698	1777247	Thanks for checking with me.	Thanks for checking with me.	84435059	1474080373506	1474080373670	m	77
163698	1777247	Thanks for checking with me.	Thanks for checking with me.	84435062	1474080373842	1474080373979	e	69
163698	1777247	Thanks for checking with me.	Thanks for checking with me.	84435064	1474080374243	1474080374397	.	190
163698	1777247	Thanks for checking with me.	Thanks for checking with me.	84435067	1474080374553	1474080374664	]	221
163698	1777247	Thanks for checking with me.	Thanks for checking with me.	84435073	1474080375146	1474080375248	BKSP	8
163698	1777253	Add a Star Trek convention and sports memorabilia show to the mix.	Add a Star Trek convention and sport memorabilia shwo to the mix.	84435162	1474080377692	1474080378145	SHIFT	16
163698	1777253	Add a Star Trek convention and sports memorabilia show to the mix.	Add a Star Trek convention and sport memorabilia shwo to the mix.	84435163	1474080378005	1474080378192	A	65
163698	1777253	Add a Star Trek convention and sports memorabilia show to the mix.	Add a Star Trek convention and sport memorabilia shwo to the mix.	84435164	1474080378348	1474080378464	d	68
163698	1777253	Add a Star Trek convention and sports memorabilia show to the mix.	Add a Star Trek convention and sport memorabilia shwo to the mix.	84435165	1474080378510	1474080378671	d	68
163698	1777253	Add a Star Trek convention and sports memorabilia show to the mix.	Add a Star Trek convention and sport memorabilia shwo to the mix.	84435167	1474080378639	1474080378772	 	32
163698	1777253	Add a Star Trek convention and sports memorabilia show to the mix.	Add a Star Trek convention and sport memorabilia shwo to the mix.	84435169	1474080379022	1474080379196	a	65
163698	1777253	Add a Star Trek convention and sports memorabilia show to the mix.	Add a Star Trek convention and sport memorabilia shwo to the mix.	84435229	1474080379162	1474080379289	 	32
163698	1777253	Add a Star Trek convention and sports memorabilia show to the mix.	Add a Star Trek convention and sport memorabilia shwo to the mix.	84435232	1474080379477	1474080379674	s	83
163698	1777253	Add a Star Trek convention and sports memorabilia show to the mix.	Add a Star Trek convention and sport memorabilia shwo to the mix.	84435235	1474080379690	1474080379845	t	84
163698	1777253	Add a Star Trek convention and sports memorabilia show to the mix.	Add a Star Trek convention and sport memorabilia shwo to the mix.	84435238	1474080379908	1474080380016	a	65
163698	1777253	Add a Star Trek convention and sports memorabilia show to the mix.	Add a Star Trek convention and sport memorabilia shwo to the mix.	84435241	1474080380107	1474080380199	BKSP	8
163698	1777253	Add a Star Trek convention and sports memorabilia show to the mix.	Add a Star Trek convention and sport memorabilia shwo to the mix.	84435244	1474080380261	1474080380348	BKSP	8
163698	1777253	Add a Star Trek convention and sports memorabilia show to the mix.	Add a Star Trek convention and sport memorabilia shwo to the mix.	84435246	1474080380379	1474080380491	BKSP	8
163698	1777253	Add a Star Trek convention and sports memorabilia show to the mix.	Add a Star Trek convention and sport memorabilia shwo to the mix.	84435247	1474080380491	1474080381028	SHIFT	16
163698	1777253	Add a Star Trek convention and sports memorabilia show to the mix.	Add a Star Trek convention and sport memorabilia shwo to the mix.	84435248	1474080380874	1474080381075	A	65
163698	1777253	Add a Star Trek convention and sports memorabilia show to the mix.	Add a Star Trek convention and sport memorabilia shwo to the mix.	84435249	1474080381325	1474080381446	BKSP	8
163698	1777253	Add a Star Trek convention and sports memorabilia show to the mix.	Add a Star Trek convention and sport memorabilia shwo to the mix.	84435348	1474080381382	1474080381865	SHIFT	16
163698	1777253	Add a Star Trek convention and sports memorabilia show to the mix.	Add a Star Trek convention and sport memorabilia shwo to the mix.	84435250	1474080381633	1474080381806	S	83
163698	1777253	Add a Star Trek convention and sports memorabilia show to the mix.	Add a Star Trek convention and sport memorabilia shwo to the mix.	84435350	1474080382005	1474080382161	a	65
163698	1777253	Add a Star Trek convention and sports memorabilia show to the mix.	Add a Star Trek convention and sport memorabilia shwo to the mix.	84435352	1474080383337	1474080383431	BKSP	8
163698	1777253	Add a Star Trek convention and sports memorabilia show to the mix.	Add a Star Trek convention and sport memorabilia shwo to the mix.	84435354	1474080383744	1474080383872	a	65
163698	1777253	Add a Star Trek convention and sports memorabilia show to the mix.	Add a Star Trek convention and sport memorabilia shwo to the mix.	84435356	1474080383904	1474080383976	t	84
163698	1777253	Add a Star Trek convention and sports memorabilia show to the mix.	Add a Star Trek convention and sport memorabilia shwo to the mix.	84435358	1474080384257	1474080384348	BKSP	8
163698	1777253	Add a Star Trek convention and sports memorabilia show to the mix.	Add a Star Trek convention and sport memorabilia shwo to the mix.	84435361	1474080384395	1474080384506	BKSP	8
163698	1777253	Add a Star Trek convention and sports memorabilia show to the mix.	Add a Star Trek convention and sport memorabilia shwo to the mix.	84435364	1474080384756	1474080384894	t	84
163698	1777253	Add a Star Trek convention and sports memorabilia show to the mix.	Add a Star Trek convention and sport memorabilia shwo to the mix.	84435380	1474080384848	1474080385018	a	65
163698	1777253	Add a Star Trek convention and sports memorabilia show to the mix.	Add a Star Trek convention and sport memorabilia shwo to the mix.	84435382	1474080385049	1474080385198	r	82
163698	1777253	Add a Star Trek convention and sports memorabilia show to the mix.	Add a Star Trek convention and sport memorabilia shwo to the mix.	84435384	1474080385115	1474080385276	 	32
163698	1777253	Add a Star Trek convention and sports memorabilia show to the mix.	Add a Star Trek convention and sport memorabilia shwo to the mix.	84435387	1474080385504	1474080385713	SHIFT	16
163698	1777253	Add a Star Trek convention and sports memorabilia show to the mix.	Add a Star Trek convention and sport memorabilia shwo to the mix.	84435389	1474080385582	1474080385713	T	84
163698	1777253	Add a Star Trek convention and sports memorabilia show to the mix.	Add a Star Trek convention and sport memorabilia shwo to the mix.	84435391	1474080386041	1474080386215	r	82
163698	1777253	Add a Star Trek convention and sports memorabilia show to the mix.	Add a Star Trek convention and sport memorabilia shwo to the mix.	84435445	1474080386140	1474080386304	e	69
163698	1777253	Add a Star Trek convention and sports memorabilia show to the mix.	Add a Star Trek convention and sport memorabilia shwo to the mix.	84435447	1474080386796	1474080387030	k	75
163698	1777253	Add a Star Trek convention and sports memorabilia show to the mix.	Add a Star Trek convention and sport memorabilia shwo to the mix.	84435449	1474080386896	1474080387082	 	32
163698	1777253	Add a Star Trek convention and sports memorabilia show to the mix.	Add a Star Trek convention and sport memorabilia shwo to the mix.	84435451	1474080387061	1474080387181	a	65
163698	1777253	Add a Star Trek convention and sports memorabilia show to the mix.	Add a Star Trek convention and sport memorabilia shwo to the mix.	84435454	1474080387400	1474080387522	BKSP	8
163698	1777253	Add a Star Trek convention and sports memorabilia show to the mix.	Add a Star Trek convention and sport memorabilia shwo to the mix.	84435457	1474080387584	1474080387749	c	67
163698	1777253	Add a Star Trek convention and sports memorabilia show to the mix.	Add a Star Trek convention and sport memorabilia shwo to the mix.	84435569	1474080387681	1474080387843	i	73
163698	1777253	Add a Star Trek convention and sports memorabilia show to the mix.	Add a Star Trek convention and sport memorabilia shwo to the mix.	84435570	1474080388495	1474080388580	BKSP	8
163698	1777253	Add a Star Trek convention and sports memorabilia show to the mix.	Add a Star Trek convention and sport memorabilia shwo to the mix.	84435571	1474080388971	1474080389065	o	79
163698	1777253	Add a Star Trek convention and sports memorabilia show to the mix.	Add a Star Trek convention and sport memorabilia shwo to the mix.	84435573	1474080389487	1474080389581	n	78
163698	1777253	Add a Star Trek convention and sports memorabilia show to the mix.	Add a Star Trek convention and sport memorabilia shwo to the mix.	84435574	1474080389925	1474080390090	v	86
163698	1777253	Add a Star Trek convention and sports memorabilia show to the mix.	Add a Star Trek convention and sport memorabilia shwo to the mix.	84435575	1474080390072	1474080390221	e	69
163698	1777253	Add a Star Trek convention and sports memorabilia show to the mix.	Add a Star Trek convention and sport memorabilia shwo to the mix.	84435576	1474080390283	1474080390428	n	78
163698	1777253	Add a Star Trek convention and sports memorabilia show to the mix.	Add a Star Trek convention and sport memorabilia shwo to the mix.	84435607	1474080390612	1474080390787	t	84
163698	1777253	Add a Star Trek convention and sports memorabilia show to the mix.	Add a Star Trek convention and sport memorabilia shwo to the mix.	84435609	1474080391727	1474080391831	i	73
163698	1777253	Add a Star Trek convention and sports memorabilia show to the mix.	Add a Star Trek convention and sport memorabilia shwo to the mix.	84435611	1474080391909	1474080392014	o	79
163698	1777253	Add a Star Trek convention and sports memorabilia show to the mix.	Add a Star Trek convention and sport memorabilia shwo to the mix.	84435614	1474080392123	1474080392396	n	78
163698	1777253	Add a Star Trek convention and sports memorabilia show to the mix.	Add a Star Trek convention and sport memorabilia shwo to the mix.	84435649	1474080392259	1474080392437	 	32
163698	1777253	Add a Star Trek convention and sports memorabilia show to the mix.	Add a Star Trek convention and sport memorabilia shwo to the mix.	84435654	1474080392593	1474080392748	a	65
163698	1777253	Add a Star Trek convention and sports memorabilia show to the mix.	Add a Star Trek convention and sport memorabilia shwo to the mix.	84435657	1474080392729	1474080392901	n	78
163698	1777253	Add a Star Trek convention and sports memorabilia show to the mix.	Add a Star Trek convention and sport memorabilia shwo to the mix.	84435660	1474080392948	1474080393099	d	68
163698	1777253	Add a Star Trek convention and sports memorabilia show to the mix.	Add a Star Trek convention and sport memorabilia shwo to the mix.	84435662	1474080393047	1474080393162	 	32
163698	1777253	Add a Star Trek convention and sports memorabilia show to the mix.	Add a Star Trek convention and sport memorabilia shwo to the mix.	84435664	1474080393271	1474080393442	s	83
163698	1777253	Add a Star Trek convention and sports memorabilia show to the mix.	Add a Star Trek convention and sport memorabilia shwo to the mix.	84435753	1474080393516	1474080393693	o	79
163698	1777253	Add a Star Trek convention and sports memorabilia show to the mix.	Add a Star Trek convention and sport memorabilia shwo to the mix.	84435757	1474080393693	1474080393884	p	80
163698	1777253	Add a Star Trek convention and sports memorabilia show to the mix.	Add a Star Trek convention and sport memorabilia shwo to the mix.	84435764	1474080394762	1474080394880	BKSP	8
163698	1777253	Add a Star Trek convention and sports memorabilia show to the mix.	Add a Star Trek convention and sport memorabilia shwo to the mix.	84435767	1474080395036	1474080395179	BKSP	8
163698	1777253	Add a Star Trek convention and sports memorabilia show to the mix.	Add a Star Trek convention and sport memorabilia shwo to the mix.	84435769	1474080395607	1474080395722	p	80
163698	1777253	Add a Star Trek convention and sports memorabilia show to the mix.	Add a Star Trek convention and sport memorabilia shwo to the mix.	84435771	1474080396019	1474080396133	i	73
163698	1777253	Add a Star Trek convention and sports memorabilia show to the mix.	Add a Star Trek convention and sport memorabilia shwo to the mix.	84435773	1474080396170	1474080396305	r	82
163698	1777253	Add a Star Trek convention and sports memorabilia show to the mix.	Add a Star Trek convention and sport memorabilia shwo to the mix.	84435853	1474080396595	1474080396675	BKSP	8
163698	1777253	Add a Star Trek convention and sports memorabilia show to the mix.	Add a Star Trek convention and sport memorabilia shwo to the mix.	84435855	1474080396753	1474080396879	BKSP	8
163698	1777253	Add a Star Trek convention and sports memorabilia show to the mix.	Add a Star Trek convention and sport memorabilia shwo to the mix.	84435856	1474080397160	1474080397284	o	79
163698	1777253	Add a Star Trek convention and sports memorabilia show to the mix.	Add a Star Trek convention and sport memorabilia shwo to the mix.	84435857	1474080397263	1474080397380	r	82
163698	1777253	Add a Star Trek convention and sports memorabilia show to the mix.	Add a Star Trek convention and sport memorabilia shwo to the mix.	84435858	1474080397490	1474080397638	t	84
163698	1777253	Add a Star Trek convention and sports memorabilia show to the mix.	Add a Star Trek convention and sport memorabilia shwo to the mix.	84435859	1474080397628	1474080397809	 	32
163698	1777253	Add a Star Trek convention and sports memorabilia show to the mix.	Add a Star Trek convention and sport memorabilia shwo to the mix.	84435860	1474080398655	1474080398804	m	77
163698	1777253	Add a Star Trek convention and sports memorabilia show to the mix.	Add a Star Trek convention and sport memorabilia shwo to the mix.	84435974	1474080398779	1474080398917	e	69
163698	1777253	Add a Star Trek convention and sports memorabilia show to the mix.	Add a Star Trek convention and sport memorabilia shwo to the mix.	84435977	1474080398890	1474080398997	m	77
163698	1777253	Add a Star Trek convention and sports memorabilia show to the mix.	Add a Star Trek convention and sport memorabilia shwo to the mix.	84435979	1474080400078	1474080400213	o	79
163698	1777253	Add a Star Trek convention and sports memorabilia show to the mix.	Add a Star Trek convention and sport memorabilia shwo to the mix.	84435982	1474080400165	1474080400310	r	82
163698	1777253	Add a Star Trek convention and sports memorabilia show to the mix.	Add a Star Trek convention and sport memorabilia shwo to the mix.	84435985	1474080401272	1474080401410	a	65
163698	1777253	Add a Star Trek convention and sports memorabilia show to the mix.	Add a Star Trek convention and sport memorabilia shwo to the mix.	84435988	1474080401754	1474080401879	b	66
163698	1777253	Add a Star Trek convention and sports memorabilia show to the mix.	Add a Star Trek convention and sport memorabilia shwo to the mix.	84436122	1474080402217	1474080402344	l	76
163698	1777253	Add a Star Trek convention and sports memorabilia show to the mix.	Add a Star Trek convention and sport memorabilia shwo to the mix.	84436124	1474080402453	1474080402579	i	73
163698	1777253	Add a Star Trek convention and sports memorabilia show to the mix.	Add a Star Trek convention and sport memorabilia shwo to the mix.	84436126	1474080402766	1474080402879	l	76
163698	1777253	Add a Star Trek convention and sports memorabilia show to the mix.	Add a Star Trek convention and sport memorabilia shwo to the mix.	84436128	1474080403863	1474080403962	BKSP	8
163698	1777253	Add a Star Trek convention and sports memorabilia show to the mix.	Add a Star Trek convention and sport memorabilia shwo to the mix.	84436130	1474080404259	1474080404399	BKSP	8
163698	1777253	Add a Star Trek convention and sports memorabilia show to the mix.	Add a Star Trek convention and sport memorabilia shwo to the mix.	84436132	1474080405399	1474080405544	BKSP	8
163698	1777253	Add a Star Trek convention and sports memorabilia show to the mix.	Add a Star Trek convention and sport memorabilia shwo to the mix.	84436133	1474080406133	1474080406182	i	73
163698	1777253	Add a Star Trek convention and sports memorabilia show to the mix.	Add a Star Trek convention and sport memorabilia shwo to the mix.	84436135	1474080406604	1474080406728	l	76
163698	1777253	Add a Star Trek convention and sports memorabilia show to the mix.	Add a Star Trek convention and sport memorabilia shwo to the mix.	84436187	1474080406915	1474080407053	i	73
163698	1777253	Add a Star Trek convention and sports memorabilia show to the mix.	Add a Star Trek convention and sport memorabilia shwo to the mix.	84436190	1474080407541	1474080407679	a	65
163698	1777253	Add a Star Trek convention and sports memorabilia show to the mix.	Add a Star Trek convention and sport memorabilia shwo to the mix.	84436193	1474080407960	1474080408040	BKSP	8
163698	1777253	Add a Star Trek convention and sports memorabilia show to the mix.	Add a Star Trek convention and sport memorabilia shwo to the mix.	84436197	1474080408714	1474080408882	a	65
163698	1777253	Add a Star Trek convention and sports memorabilia show to the mix.	Add a Star Trek convention and sport memorabilia shwo to the mix.	84436201	1474080408822	1474080408929	 	32
163698	1777253	Add a Star Trek convention and sports memorabilia show to the mix.	Add a Star Trek convention and sport memorabilia shwo to the mix.	84436204	1474080409148	1474080409316	s	83
163698	1777253	Add a Star Trek convention and sports memorabilia show to the mix.	Add a Star Trek convention and sport memorabilia shwo to the mix.	84436222	1474080409263	1474080409415	h	72
163698	1777253	Add a Star Trek convention and sports memorabilia show to the mix.	Add a Star Trek convention and sport memorabilia shwo to the mix.	84436223	1474080409509	1474080409661	w	87
163698	1777253	Add a Star Trek convention and sports memorabilia show to the mix.	Add a Star Trek convention and sport memorabilia shwo to the mix.	84436224	1474080409544	1474080409755	o	79
163698	1777253	Add a Star Trek convention and sports memorabilia show to the mix.	Add a Star Trek convention and sport memorabilia shwo to the mix.	84436225	1474080409833	1474080409972	 	32
163698	1777253	Add a Star Trek convention and sports memorabilia show to the mix.	Add a Star Trek convention and sport memorabilia shwo to the mix.	84436226	1474080409956	1474080410107	t	84
163698	1777253	Add a Star Trek convention and sports memorabilia show to the mix.	Add a Star Trek convention and sport memorabilia shwo to the mix.	84436227	1474080410170	1474080410349	o	79
163698	1777253	Add a Star Trek convention and sports memorabilia show to the mix.	Add a Star Trek convention and sport memorabilia shwo to the mix.	84436251	1474080410256	1474080410460	 	32
163698	1777253	Add a Star Trek convention and sports memorabilia show to the mix.	Add a Star Trek convention and sport memorabilia shwo to the mix.	84436253	1474080410585	1474080410712	t	84
163698	1777253	Add a Star Trek convention and sports memorabilia show to the mix.	Add a Star Trek convention and sport memorabilia shwo to the mix.	84436256	1474080410774	1474080411008	h	72
163698	1777253	Add a Star Trek convention and sports memorabilia show to the mix.	Add a Star Trek convention and sport memorabilia shwo to the mix.	84436259	1474080410880	1474080411039	e	69
163698	1777253	Add a Star Trek convention and sports memorabilia show to the mix.	Add a Star Trek convention and sport memorabilia shwo to the mix.	84436262	1474080410922	1474080411102	 	32
163698	1777253	Add a Star Trek convention and sports memorabilia show to the mix.	Add a Star Trek convention and sport memorabilia shwo to the mix.	84436265	1474080411258	1474080411393	m	77
163698	1777253	Add a Star Trek convention and sports memorabilia show to the mix.	Add a Star Trek convention and sport memorabilia shwo to the mix.	84436307	1474080411454	1474080411595	u	85
163698	1777253	Add a Star Trek convention and sports memorabilia show to the mix.	Add a Star Trek convention and sport memorabilia shwo to the mix.	84436308	1474080411626	1474080411786	c	67
163698	1777253	Add a Star Trek convention and sports memorabilia show to the mix.	Add a Star Trek convention and sport memorabilia shwo to the mix.	84436310	1474080411958	1474080412056	BKSP	8
163698	1777253	Add a Star Trek convention and sports memorabilia show to the mix.	Add a Star Trek convention and sport memorabilia shwo to the mix.	84436309	1474080411994	1474080412037	=	187
163698	1777253	Add a Star Trek convention and sports memorabilia show to the mix.	Add a Star Trek convention and sport memorabilia shwo to the mix.	84436311	1474080412097	1474080412227	BKSP	8
163698	1777253	Add a Star Trek convention and sports memorabilia show to the mix.	Add a Star Trek convention and sport memorabilia shwo to the mix.	84436312	1474080412191	1474080412338	x	88
163698	1777253	Add a Star Trek convention and sports memorabilia show to the mix.	Add a Star Trek convention and sport memorabilia shwo to the mix.	84436369	1474080412311	1474080412429	i	73
163698	1777253	Add a Star Trek convention and sports memorabilia show to the mix.	Add a Star Trek convention and sport memorabilia shwo to the mix.	84436370	1474080412559	1474080412672	BKSP	8
163698	1777253	Add a Star Trek convention and sports memorabilia show to the mix.	Add a Star Trek convention and sport memorabilia shwo to the mix.	84436371	1474080412703	1474080412811	BKSP	8
163698	1777253	Add a Star Trek convention and sports memorabilia show to the mix.	Add a Star Trek convention and sport memorabilia shwo to the mix.	84436372	1474080413034	1474080413177	BKSP	8
163698	1777253	Add a Star Trek convention and sports memorabilia show to the mix.	Add a Star Trek convention and sport memorabilia shwo to the mix.	84436373	1474080413258	1474080413404	i	73
163698	1777253	Add a Star Trek convention and sports memorabilia show to the mix.	Add a Star Trek convention and sport memorabilia shwo to the mix.	84436374	1474080413435	1474080413593	x	88
163698	1777253	Add a Star Trek convention and sports memorabilia show to the mix.	Add a Star Trek convention and sport memorabilia shwo to the mix.	84436375	1474080413796	1474080413913	.	190
163698	1777282	Expect much better numbers on James  home turf this week.	Expect much better numbers on James home turf this week.	84436525	1474080416452	1474080416764	SHIFT	16
163698	1777282	Expect much better numbers on James  home turf this week.	Expect much better numbers on James home turf this week.	84436528	1474080416659	1474080416858	W	87
163698	1777282	Expect much better numbers on James  home turf this week.	Expect much better numbers on James home turf this week.	84436531	1474080417123	1474080417223	BKSP	8
163698	1777282	Expect much better numbers on James  home turf this week.	Expect much better numbers on James home turf this week.	84436536	1474080417192	1474080417639	SHIFT	16
163698	1777282	Expect much better numbers on James  home turf this week.	Expect much better numbers on James home turf this week.	84436534	1474080417426	1474080417593	E	69
163698	1777282	Expect much better numbers on James  home turf this week.	Expect much better numbers on James home turf this week.	84436538	1474080418244	1474080418426	x	88
163698	1777282	Expect much better numbers on James  home turf this week.	Expect much better numbers on James home turf this week.	84436540	1474080419429	1474080419574	p	80
163698	1777282	Expect much better numbers on James  home turf this week.	Expect much better numbers on James home turf this week.	84436583	1474080419538	1474080419692	e	69
163698	1777282	Expect much better numbers on James  home turf this week.	Expect much better numbers on James home turf this week.	84436585	1474080420382	1474080420520	c	67
163698	1777282	Expect much better numbers on James  home turf this week.	Expect much better numbers on James home turf this week.	84436586	1474080420472	1474080420674	t	84
163698	1777282	Expect much better numbers on James  home turf this week.	Expect much better numbers on James home turf this week.	84436587	1474080420588	1474080420783	 	32
163698	1777282	Expect much better numbers on James  home turf this week.	Expect much better numbers on James home turf this week.	84436589	1474080421238	1474080421378	m	77
163698	1777282	Expect much better numbers on James  home turf this week.	Expect much better numbers on James home turf this week.	84436591	1474080421456	1474080421562	y	89
163698	1777282	Expect much better numbers on James  home turf this week.	Expect much better numbers on James home turf this week.	84436683	1474080421669	1474080421815	c	67
163698	1777282	Expect much better numbers on James  home turf this week.	Expect much better numbers on James home turf this week.	84436686	1474080421757	1474080421909	h	72
163698	1777282	Expect much better numbers on James  home turf this week.	Expect much better numbers on James home turf this week.	84436689	1474080422112	1474080422228	BKSP	8
163698	1777282	Expect much better numbers on James  home turf this week.	Expect much better numbers on James home turf this week.	84436693	1474080422275	1474080422488	BKSP	8
163698	1777282	Expect much better numbers on James  home turf this week.	Expect much better numbers on James home turf this week.	84436697	1474080422703	1474080422818	BKSP	8
163698	1777282	Expect much better numbers on James  home turf this week.	Expect much better numbers on James home turf this week.	84436701	1474080423053	1474080423108	u	85
163698	1777282	Expect much better numbers on James  home turf this week.	Expect much better numbers on James home turf this week.	84436705	1474080423202	1474080423289	c	67
163698	1777282	Expect much better numbers on James  home turf this week.	Expect much better numbers on James home turf this week.	84436711	1474080423782	1474080424013	h	72
163698	1777282	Expect much better numbers on James  home turf this week.	Expect much better numbers on James home turf this week.	84436749	1474080423910	1474080424088	 	32
163698	1777282	Expect much better numbers on James  home turf this week.	Expect much better numbers on James home turf this week.	84436751	1474080424260	1474080424411	b	66
163698	1777282	Expect much better numbers on James  home turf this week.	Expect much better numbers on James home turf this week.	84436754	1474080424378	1474080424510	e	69
163698	1777282	Expect much better numbers on James  home turf this week.	Expect much better numbers on James home turf this week.	84436758	1474080424573	1474080424689	e	69
163698	1777282	Expect much better numbers on James  home turf this week.	Expect much better numbers on James home turf this week.	84436760	1474080425079	1474080425189	BKSP	8
163698	1777282	Expect much better numbers on James  home turf this week.	Expect much better numbers on James home turf this week.	84436763	1474080425376	1474080425478	t	84
163698	1777282	Expect much better numbers on James  home turf this week.	Expect much better numbers on James home turf this week.	84436767	1474080425509	1474080425643	t	84
163698	1777282	Expect much better numbers on James  home turf this week.	Expect much better numbers on James home turf this week.	84436835	1474080425621	1474080425729	e	69
163698	1777282	Expect much better numbers on James  home turf this week.	Expect much better numbers on James home turf this week.	84436838	1474080425776	1474080425932	r	82
163698	1777282	Expect much better numbers on James  home turf this week.	Expect much better numbers on James home turf this week.	84436839	1474080425863	1474080426010	 	32
163698	1777282	Expect much better numbers on James  home turf this week.	Expect much better numbers on James home turf this week.	84436842	1474080426361	1474080426494	m	77
163698	1777282	Expect much better numbers on James  home turf this week.	Expect much better numbers on James home turf this week.	84436845	1474080426938	1474080427039	BKSP	8
163698	1777282	Expect much better numbers on James  home turf this week.	Expect much better numbers on James home turf this week.	84436847	1474080427196	1474080427273	b	66
163698	1777282	Expect much better numbers on James  home turf this week.	Expect much better numbers on James home turf this week.	84436849	1474080427791	1474080427874	BKSP	8
163698	1777282	Expect much better numbers on James  home turf this week.	Expect much better numbers on James home turf this week.	84436851	1474080428030	1474080428123	n	78
163698	1777282	Expect much better numbers on James  home turf this week.	Expect much better numbers on James home turf this week.	84436924	1474080428788	1474080428896	y	89
163698	1777282	Expect much better numbers on James  home turf this week.	Expect much better numbers on James home turf this week.	84436928	1474080429397	1474080429496	BKSP	8
163698	1777282	Expect much better numbers on James  home turf this week.	Expect much better numbers on James home turf this week.	84436932	1474080429652	1474080429777	u	85
163698	1777282	Expect much better numbers on James  home turf this week.	Expect much better numbers on James home turf this week.	84436936	1474080430249	1474080430370	m	77
163698	1777282	Expect much better numbers on James  home turf this week.	Expect much better numbers on James home turf this week.	84436939	1474080430558	1474080430693	b	66
163698	1777282	Expect much better numbers on James  home turf this week.	Expect much better numbers on James home turf this week.	84436943	1474080430720	1474080430821	e	69
163698	1777282	Expect much better numbers on James  home turf this week.	Expect much better numbers on James home turf this week.	84436983	1474080430940	1474080431062	r	82
163698	1777282	Expect much better numbers on James  home turf this week.	Expect much better numbers on James home turf this week.	84436985	1474080431390	1474080431549	s	83
163698	1777282	Expect much better numbers on James  home turf this week.	Expect much better numbers on James home turf this week.	84436987	1474080431490	1474080431612	 	32
163698	1777282	Expect much better numbers on James  home turf this week.	Expect much better numbers on James home turf this week.	84436992	1474080431799	1474080431928	i	73
163698	1777282	Expect much better numbers on James  home turf this week.	Expect much better numbers on James home turf this week.	84436995	1474080432021	1474080432183	b	66
163698	1777282	Expect much better numbers on James  home turf this week.	Expect much better numbers on James home turf this week.	84437128	1474080432097	1474080432274	 	32
163698	1777282	Expect much better numbers on James  home turf this week.	Expect much better numbers on James home turf this week.	84437132	1474080432715	1474080432796	BKSP	8
163698	1777282	Expect much better numbers on James  home turf this week.	Expect much better numbers on James home turf this week.	84437136	1474080432843	1474080432955	BKSP	8
163698	1777282	Expect much better numbers on James  home turf this week.	Expect much better numbers on James home turf this week.	84437140	1474080433314	1474080433402	n	78
163698	1777282	Expect much better numbers on James  home turf this week.	Expect much better numbers on James home turf this week.	84437145	1474080433698	1474080433789	BKSP	8
163698	1777282	Expect much better numbers on James  home turf this week.	Expect much better numbers on James home turf this week.	84437147	1474080433870	1474080433964	BKSP	8
163698	1777282	Expect much better numbers on James  home turf this week.	Expect much better numbers on James home turf this week.	84437150	1474080434285	1474080434430	i	73
163698	1777282	Expect much better numbers on James  home turf this week.	Expect much better numbers on James home turf this week.	84437152	1474080434790	1474080434894	BKSP	8
163698	1777282	Expect much better numbers on James  home turf this week.	Expect much better numbers on James home turf this week.	84437154	1474080435351	1474080435460	o	79
163698	1777282	Expect much better numbers on James  home turf this week.	Expect much better numbers on James home turf this week.	84437159	1474080435538	1474080435764	b	66
163698	1777282	Expect much better numbers on James  home turf this week.	Expect much better numbers on James home turf this week.	84437194	1474080435675	1474080435855	 	32
163698	1777282	Expect much better numbers on James  home turf this week.	Expect much better numbers on James home turf this week.	84437196	1474080436197	1474080436281	BKSP	8
163698	1777282	Expect much better numbers on James  home turf this week.	Expect much better numbers on James home turf this week.	84437198	1474080436343	1474080436439	BKSP	8
163698	1777282	Expect much better numbers on James  home turf this week.	Expect much better numbers on James home turf this week.	84437199	1474080436532	1474080436715	n	78
163698	1777282	Expect much better numbers on James  home turf this week.	Expect much better numbers on James home turf this week.	84437200	1474080436645	1474080436775	 	32
163698	1777282	Expect much better numbers on James  home turf this week.	Expect much better numbers on James home turf this week.	84437201	1474080437153	1474080437356	SHIFT	16
163698	1777282	Expect much better numbers on James  home turf this week.	Expect much better numbers on James home turf this week.	84437202	1474080437263	1474080437372	J	74
163698	1777282	Expect much better numbers on James  home turf this week.	Expect much better numbers on James home turf this week.	84437203	1474080437544	1474080437718	a	65
163698	1777282	Expect much better numbers on James  home turf this week.	Expect much better numbers on James home turf this week.	84437224	1474080437670	1474080437792	m	77
163698	1777282	Expect much better numbers on James  home turf this week.	Expect much better numbers on James home turf this week.	84437226	1474080437808	1474080437952	e	69
163698	1777282	Expect much better numbers on James  home turf this week.	Expect much better numbers on James home turf this week.	84437228	1474080437984	1474080438198	s	83
163698	1777282	Expect much better numbers on James  home turf this week.	Expect much better numbers on James home turf this week.	84437230	1474080438111	1474080438260	 	32
163698	1777282	Expect much better numbers on James  home turf this week.	Expect much better numbers on James home turf this week.	84437231	1474080438849	1474080438977	h	72
163698	1777282	Expect much better numbers on James  home turf this week.	Expect much better numbers on James home turf this week.	84437232	1474080439087	1474080439211	i	73
163698	1777282	Expect much better numbers on James  home turf this week.	Expect much better numbers on James home turf this week.	84437317	1474080439900	1474080440004	BKSP	8
163698	1777282	Expect much better numbers on James  home turf this week.	Expect much better numbers on James home turf this week.	84437321	1474080440616	1474080440705	o	79
163698	1777282	Expect much better numbers on James  home turf this week.	Expect much better numbers on James home turf this week.	84437325	1474080440814	1474080440928	m	77
163698	1777282	Expect much better numbers on James  home turf this week.	Expect much better numbers on James home turf this week.	84437328	1474080440990	1474080441103	e	69
163698	1777282	Expect much better numbers on James  home turf this week.	Expect much better numbers on James home turf this week.	84437330	1474080441063	1474080441187	 	32
163698	1777282	Expect much better numbers on James  home turf this week.	Expect much better numbers on James home turf this week.	84437333	1474080441281	1474080441406	SHIFT	16
163698	1777282	Expect much better numbers on James  home turf this week.	Expect much better numbers on James home turf this week.	84437336	1474080441783	1474080441840	t	84
163698	1777282	Expect much better numbers on James  home turf this week.	Expect much better numbers on James home turf this week.	84437370	1474080441944	1474080442086	u	85
163698	1777282	Expect much better numbers on James  home turf this week.	Expect much better numbers on James home turf this week.	84437371	1474080442086	1474080442242	r	82
163698	1777282	Expect much better numbers on James  home turf this week.	Expect much better numbers on James home turf this week.	84437373	1474080442664	1474080442831	f	70
163698	1777282	Expect much better numbers on James  home turf this week.	Expect much better numbers on James home turf this week.	84437375	1474080442777	1474080442925	 	32
163698	1777282	Expect much better numbers on James  home turf this week.	Expect much better numbers on James home turf this week.	84437377	1474080443050	1474080443154	t	84
163698	1777282	Expect much better numbers on James  home turf this week.	Expect much better numbers on James home turf this week.	84437468	1474080443229	1474080443338	h	72
163698	1777282	Expect much better numbers on James  home turf this week.	Expect much better numbers on James home turf this week.	84437469	1474080443604	1474080443706	s	83
163698	1777282	Expect much better numbers on James  home turf this week.	Expect much better numbers on James home turf this week.	84437470	1474080444029	1474080444128	=	187
163698	1777282	Expect much better numbers on James  home turf this week.	Expect much better numbers on James home turf this week.	84437471	1474080444238	1474080444353	u	85
163698	1777282	Expect much better numbers on James  home turf this week.	Expect much better numbers on James home turf this week.	84437472	1474080444525	1474080444629	BKSP	8
163698	1777282	Expect much better numbers on James  home turf this week.	Expect much better numbers on James home turf this week.	84437474	1474080444676	1474080444882	BKSP	8
163698	1777282	Expect much better numbers on James  home turf this week.	Expect much better numbers on James home turf this week.	84437477	1474080445179	1474080445272	BKSP	8
163698	1777282	Expect much better numbers on James  home turf this week.	Expect much better numbers on James home turf this week.	84437480	1474080445428	1474080445553	u	85
163698	1777282	Expect much better numbers on James  home turf this week.	Expect much better numbers on James home turf this week.	84437557	1474080445923	1474080446029	BKSP	8
163698	1777282	Expect much better numbers on James  home turf this week.	Expect much better numbers on James home turf this week.	84437562	1474080446372	1474080446588	i	73
163698	1777282	Expect much better numbers on James  home turf this week.	Expect much better numbers on James home turf this week.	84437567	1474080446900	1474080447049	s	83
163698	1777282	Expect much better numbers on James  home turf this week.	Expect much better numbers on James home turf this week.	84437571	1474080447027	1474080447170	 	32
163698	1777282	Expect much better numbers on James  home turf this week.	Expect much better numbers on James home turf this week.	84437573	1474080447435	1474080447561	w	87
163698	1777282	Expect much better numbers on James  home turf this week.	Expect much better numbers on James home turf this week.	84437579	1474080447748	1474080447831	k	75
163698	1777282	Expect much better numbers on James  home turf this week.	Expect much better numbers on James home turf this week.	84437650	1474080447904	1474080447997	k	75
163698	1777282	Expect much better numbers on James  home turf this week.	Expect much better numbers on James home turf this week.	84437652	1474080448310	1474080448406	=	187
163698	1777282	Expect much better numbers on James  home turf this week.	Expect much better numbers on James home turf this week.	84437657	1474080448671	1474080448794	BKSP	8
163698	1777282	Expect much better numbers on James  home turf this week.	Expect much better numbers on James home turf this week.	84437660	1474080448856	1474080448946	BKSP	8
163698	1777282	Expect much better numbers on James  home turf this week.	Expect much better numbers on James home turf this week.	84437664	1474080448992	1474080449090	BKSP	8
163698	1777282	Expect much better numbers on James  home turf this week.	Expect much better numbers on James home turf this week.	84437668	1474080449215	1474080449328	e	69
163698	1777282	Expect much better numbers on James  home turf this week.	Expect much better numbers on James home turf this week.	84437675	1474080449390	1474080449510	e	69
163698	1777282	Expect much better numbers on James  home turf this week.	Expect much better numbers on James home turf this week.	84437681	1474080449631	1474080449775	j	74
163698	1777282	Expect much better numbers on James  home turf this week.	Expect much better numbers on James home turf this week.	84437752	1474080450325	1474080450428	BKSP	8
163698	1777282	Expect much better numbers on James  home turf this week.	Expect much better numbers on James home turf this week.	84437753	1474080450521	1474080450621	k	75
163698	1777282	Expect much better numbers on James  home turf this week.	Expect much better numbers on James home turf this week.	84437754	1474080451561	1474080451631	.	190
163698	1777306	Penske doesn't let things sit back and relax.	Penske doesn't let things sit back and relax.	84437920	1474080454199	1474080454686	SHIFT	16
163698	1777306	Penske doesn't let things sit back and relax.	Penske doesn't let things sit back and relax.	84437919	1474080454535	1474080454655	P	80
163698	1777306	Penske doesn't let things sit back and relax.	Penske doesn't let things sit back and relax.	84437921	1474080454827	1474080454975	e	69
163698	1777306	Penske doesn't let things sit back and relax.	Penske doesn't let things sit back and relax.	84437922	1474080455006	1474080455151	b	66
163698	1777306	Penske doesn't let things sit back and relax.	Penske doesn't let things sit back and relax.	84437923	1474080455526	1474080455644	BKSP	8
163698	1777306	Penske doesn't let things sit back and relax.	Penske doesn't let things sit back and relax.	84437924	1474080455785	1474080455927	n	78
163698	1777306	Penske doesn't let things sit back and relax.	Penske doesn't let things sit back and relax.	84437925	1474080456177	1474080456334	s	83
163698	1777306	Penske doesn't let things sit back and relax.	Penske doesn't let things sit back and relax.	84437971	1474080456342	1474080456430	k	75
163698	1777306	Penske doesn't let things sit back and relax.	Penske doesn't let things sit back and relax.	84437973	1474080456477	1474080456628	e	69
163698	1777306	Penske doesn't let things sit back and relax.	Penske doesn't let things sit back and relax.	84437976	1474080456604	1474080456744	 	32
163698	1777306	Penske doesn't let things sit back and relax.	Penske doesn't let things sit back and relax.	84437977	1474080457588	1474080457672	=	187
163698	1777306	Penske doesn't let things sit back and relax.	Penske doesn't let things sit back and relax.	84437980	1474080457907	1474080458022	=	187
163698	1777306	Penske doesn't let things sit back and relax.	Penske doesn't let things sit back and relax.	84438106	1474080458095	1474080458205	BKSP	8
163698	1777306	Penske doesn't let things sit back and relax.	Penske doesn't let things sit back and relax.	84438109	1474080458252	1474080458347	BKSP	8
163698	1777306	Penske doesn't let things sit back and relax.	Penske doesn't let things sit back and relax.	84438113	1474080458409	1474080458484	BKSP	8
163698	1777306	Penske doesn't let things sit back and relax.	Penske doesn't let things sit back and relax.	84438116	1474080458546	1474080458649	BKSP	8
163698	1777306	Penske doesn't let things sit back and relax.	Penske doesn't let things sit back and relax.	84438119	1474080458696	1474080458796	BKSP	8
163698	1777306	Penske doesn't let things sit back and relax.	Penske doesn't let things sit back and relax.	84438122	1474080458843	1474080458914	BKSP	8
163698	1777306	Penske doesn't let things sit back and relax.	Penske doesn't let things sit back and relax.	84438125	1474080459659	1474080459817	s	83
163698	1777306	Penske doesn't let things sit back and relax.	Penske doesn't let things sit back and relax.	84438129	1474080460005	1474080460153	j	74
163698	1777306	Penske doesn't let things sit back and relax.	Penske doesn't let things sit back and relax.	84438132	1474080460111	1474080460253	e	69
163698	1777306	Penske doesn't let things sit back and relax.	Penske doesn't let things sit back and relax.	84438136	1474080460213	1474080460359	 	32
163698	1777306	Penske doesn't let things sit back and relax.	Penske doesn't let things sit back and relax.	84438138	1474080460578	1474080460631	BKSP	8
163698	1777306	Penske doesn't let things sit back and relax.	Penske doesn't let things sit back and relax.	84438139	1474080460709	1474080460805	BKSP	8
163698	1777306	Penske doesn't let things sit back and relax.	Penske doesn't let things sit back and relax.	84438140	1474080460852	1474080460930	BKSP	8
163698	1777306	Penske doesn't let things sit back and relax.	Penske doesn't let things sit back and relax.	84438141	1474080461040	1474080461174	j	74
163698	1777306	Penske doesn't let things sit back and relax.	Penske doesn't let things sit back and relax.	84438200	1474080461232	1474080461377	e	69
163698	1777306	Penske doesn't let things sit back and relax.	Penske doesn't let things sit back and relax.	84438201	1474080461262	1474080461377	j	74
163698	1777306	Penske doesn't let things sit back and relax.	Penske doesn't let things sit back and relax.	84438203	1474080461569	1474080461670	BKSP	8
163698	1777306	Penske doesn't let things sit back and relax.	Penske doesn't let things sit back and relax.	84438208	1474080461717	1474080461812	BKSP	8
163698	1777306	Penske doesn't let things sit back and relax.	Penske doesn't let things sit back and relax.	84438212	1474080461858	1474080461961	BKSP	8
163698	1777306	Penske doesn't let things sit back and relax.	Penske doesn't let things sit back and relax.	84438216	1474080462070	1474080462156	o	79
163698	1777306	Penske doesn't let things sit back and relax.	Penske doesn't let things sit back and relax.	84438224	1474080462510	1474080462620	BKSP	8
163698	1777306	Penske doesn't let things sit back and relax.	Penske doesn't let things sit back and relax.	84438228	1474080462949	1474080463053	k	75
163698	1777306	Penske doesn't let things sit back and relax.	Penske doesn't let things sit back and relax.	84438233	1474080463162	1474080463262	 	69
163698	1777306	Penske doesn't let things sit back and relax.	Penske doesn't let things sit back and relax.	84438310	1474080463702	1474080463850	d	68
163698	1777306	Penske doesn't let things sit back and relax.	Penske doesn't let things sit back and relax.	84438311	1474080464375	1474080464524	o	79
163698	1777306	Penske doesn't let things sit back and relax.	Penske doesn't let things sit back and relax.	84438312	1474080464540	1474080464691	e	69
163698	1777306	Penske doesn't let things sit back and relax.	Penske doesn't let things sit back and relax.	84438313	1474080464784	1474080464956	s	83
163698	1777306	Penske doesn't let things sit back and relax.	Penske doesn't let things sit back and relax.	84438314	1474080465397	1474080465574	n	78
163698	1777306	Penske doesn't let things sit back and relax.	Penske doesn't let things sit back and relax.	84438394	1474080466373	1474080466463	'	222
163698	1777306	Penske doesn't let things sit back and relax.	Penske doesn't let things sit back and relax.	84438396	1474080466791	1474080466915	t	84
163698	1777306	Penske doesn't let things sit back and relax.	Penske doesn't let things sit back and relax.	84438398	1474080466847	1474080466976	 	32
163698	1777306	Penske doesn't let things sit back and relax.	Penske doesn't let things sit back and relax.	84438404	1474080467320	1474080467486	l	76
163698	1777306	Penske doesn't let things sit back and relax.	Penske doesn't let things sit back and relax.	84438494	1474080467442	1474080467575	e	69
163698	1777306	Penske doesn't let things sit back and relax.	Penske doesn't let things sit back and relax.	84438497	1474080467716	1474080467884	t	84
163698	1777306	Penske doesn't let things sit back and relax.	Penske doesn't let things sit back and relax.	84438502	1474080467858	1474080468010	 	32
163698	1777306	Penske doesn't let things sit back and relax.	Penske doesn't let things sit back and relax.	84438507	1474080468229	1474080468409	t	84
163698	1777306	Penske doesn't let things sit back and relax.	Penske doesn't let things sit back and relax.	84438512	1474080468368	1474080468540	h	72
163698	1777306	Penske doesn't let things sit back and relax.	Penske doesn't let things sit back and relax.	84438514	1474080468633	1474080468689	i	73
163698	1777306	Penske doesn't let things sit back and relax.	Penske doesn't let things sit back and relax.	84438580	1474080469458	1474080469624	n	78
163698	1777306	Penske doesn't let things sit back and relax.	Penske doesn't let things sit back and relax.	84438584	1474080469592	1474080469756	g	71
163698	1777306	Penske doesn't let things sit back and relax.	Penske doesn't let things sit back and relax.	84438586	1474080470022	1474080470226	s	83
163698	1777306	Penske doesn't let things sit back and relax.	Penske doesn't let things sit back and relax.	84438589	1474080470168	1474080470309	 	32
163698	1777306	Penske doesn't let things sit back and relax.	Penske doesn't let things sit back and relax.	84438592	1474080470434	1474080470597	s	83
163698	1777306	Penske doesn't let things sit back and relax.	Penske doesn't let things sit back and relax.	84438663	1474080470537	1474080470670	i	73
163698	1777306	Penske doesn't let things sit back and relax.	Penske doesn't let things sit back and relax.	84438668	1474080471223	1474080471359	t	84
163698	1777306	Penske doesn't let things sit back and relax.	Penske doesn't let things sit back and relax.	84438673	1474080471390	1474080471683	 	32
163698	1777306	Penske doesn't let things sit back and relax.	Penske doesn't let things sit back and relax.	84438678	1474080471955	1474080472092	a	65
163698	1777306	Penske doesn't let things sit back and relax.	Penske doesn't let things sit back and relax.	84438682	1474080472420	1474080472552	=	187
163698	1777306	Penske doesn't let things sit back and relax.	Penske doesn't let things sit back and relax.	84438688	1474080472661	1474080472823	b	66
163698	1777306	Penske doesn't let things sit back and relax.	Penske doesn't let things sit back and relax.	84438756	1474080473007	1474080473255	BKSP	8
163698	1777306	Penske doesn't let things sit back and relax.	Penske doesn't let things sit back and relax.	84438760	1474080473302	1474080473426	BKSP	8
163698	1777306	Penske doesn't let things sit back and relax.	Penske doesn't let things sit back and relax.	84438766	1474080473473	1474080473556	BKSP	8
163698	1777306	Penske doesn't let things sit back and relax.	Penske doesn't let things sit back and relax.	84438774	1474080474046	1474080474178	b	66
163698	1777306	Penske doesn't let things sit back and relax.	Penske doesn't let things sit back and relax.	84438780	1474080474113	1474080474290	a	65
163698	1777306	Penske doesn't let things sit back and relax.	Penske doesn't let things sit back and relax.	84438786	1474080474415	1474080474579	c	67
163698	1777306	Penske doesn't let things sit back and relax.	Penske doesn't let things sit back and relax.	84438789	1474080474673	1474080474902	j	74
163698	1777306	Penske doesn't let things sit back and relax.	Penske doesn't let things sit back and relax.	84438876	1474080474824	1474080475022	 	32
163698	1777306	Penske doesn't let things sit back and relax.	Penske doesn't let things sit back and relax.	84438878	1474080475085	1474080475234	a	65
163698	1777306	Penske doesn't let things sit back and relax.	Penske doesn't let things sit back and relax.	84438880	1474080475178	1474080475364	b	66
163698	1777306	Penske doesn't let things sit back and relax.	Penske doesn't let things sit back and relax.	84438882	1474080475340	1474080475506	d	68
163698	1777306	Penske doesn't let things sit back and relax.	Penske doesn't let things sit back and relax.	84438884	1474080475422	1474080475569	 	32
163698	1777306	Penske doesn't let things sit back and relax.	Penske doesn't let things sit back and relax.	84438886	1474080475729	1474080475812	BKSP	8
163698	1777306	Penske doesn't let things sit back and relax.	Penske doesn't let things sit back and relax.	84438888	1474080475874	1474080475962	BKSP	8
163698	1777306	Penske doesn't let things sit back and relax.	Penske doesn't let things sit back and relax.	84438890	1474080476024	1474080476111	BKSP	8
163698	1777306	Penske doesn't let things sit back and relax.	Penske doesn't let things sit back and relax.	84438894	1474080476158	1474080476255	BKSP	8
163698	1777306	Penske doesn't let things sit back and relax.	Penske doesn't let things sit back and relax.	84438899	1474080476286	1474080476466	BKSP	8
163698	1777306	Penske doesn't let things sit back and relax.	Penske doesn't let things sit back and relax.	84438904	1474080476607	1474080476703	BKSP	8
163698	1777306	Penske doesn't let things sit back and relax.	Penske doesn't let things sit back and relax.	84438908	1474080476911	1474080477077	k	75
163698	1777306	Penske doesn't let things sit back and relax.	Penske doesn't let things sit back and relax.	84438943	1474080477026	1474080477219	 	32
163698	1777306	Penske doesn't let things sit back and relax.	Penske doesn't let things sit back and relax.	84438948	1474080477344	1474080477444	BKSP	8
163698	1777306	Penske doesn't let things sit back and relax.	Penske doesn't let things sit back and relax.	84438956	1474080477789	1474080477937	 	32
163698	1777306	Penske doesn't let things sit back and relax.	Penske doesn't let things sit back and relax.	84438959	1474080478078	1474080478209	a	65
163698	1777306	Penske doesn't let things sit back and relax.	Penske doesn't let things sit back and relax.	84438964	1474080478209	1474080478360	b	66
163698	1777306	Penske doesn't let things sit back and relax.	Penske doesn't let things sit back and relax.	84438969	1474080478334	1474080478489	d	68
163698	1777306	Penske doesn't let things sit back and relax.	Penske doesn't let things sit back and relax.	84439080	1474080478453	1474080478572	 	32
163698	1777306	Penske doesn't let things sit back and relax.	Penske doesn't let things sit back and relax.	84439082	1474080479187	1474080479277	BKSP	8
163698	1777306	Penske doesn't let things sit back and relax.	Penske doesn't let things sit back and relax.	84439085	1474080479309	1474080479394	BKSP	8
163698	1777306	Penske doesn't let things sit back and relax.	Penske doesn't let things sit back and relax.	84439089	1474080479441	1474080479528	BKSP	8
163698	1777306	Penske doesn't let things sit back and relax.	Penske doesn't let things sit back and relax.	84439093	1474080479794	1474080479940	b	66
163698	1777306	Penske doesn't let things sit back and relax.	Penske doesn't let things sit back and relax.	84439097	1474080479920	1474080480061	d	68
163698	1777306	Penske doesn't let things sit back and relax.	Penske doesn't let things sit back and relax.	84439101	1474080480046	1474080480138	 	32
163698	1777306	Penske doesn't let things sit back and relax.	Penske doesn't let things sit back and relax.	84439106	1474080480341	1474080480428	BKSP	8
163698	1777306	Penske doesn't let things sit back and relax.	Penske doesn't let things sit back and relax.	84439112	1474080480491	1474080480578	BKSP	8
163698	1777306	Penske doesn't let things sit back and relax.	Penske doesn't let things sit back and relax.	84439117	1474080480625	1474080480736	BKSP	8
163698	1777306	Penske doesn't let things sit back and relax.	Penske doesn't let things sit back and relax.	84439120	1474080480845	1474080480953	n	78
163698	1777306	Penske doesn't let things sit back and relax.	Penske doesn't let things sit back and relax.	84439124	1474080481308	1474080481457	d	68
163698	1777306	Penske doesn't let things sit back and relax.	Penske doesn't let things sit back and relax.	84439176	1474080481468	1474080481561	 	32
163698	1777306	Penske doesn't let things sit back and relax.	Penske doesn't let things sit back and relax.	84439180	1474080481856	1474080482096	e	69
163698	1777306	Penske doesn't let things sit back and relax.	Penske doesn't let things sit back and relax.	84439183	1474080482023	1474080482127	w	87
163698	1777306	Penske doesn't let things sit back and relax.	Penske doesn't let things sit back and relax.	84439186	1474080482424	1474080482495	BKSP	8
163698	1777306	Penske doesn't let things sit back and relax.	Penske doesn't let things sit back and relax.	84439189	1474080482557	1474080482696	BKSP	8
163698	1777306	Penske doesn't let things sit back and relax.	Penske doesn't let things sit back and relax.	84439191	1474080482670	1474080482863	r	82
163698	1777306	Penske doesn't let things sit back and relax.	Penske doesn't let things sit back and relax.	84439333	1474080482784	1474080482941	e	69
163698	1777306	Penske doesn't let things sit back and relax.	Penske doesn't let things sit back and relax.	84439335	1474080483149	1474080483268	k	75
163698	1777306	Penske doesn't let things sit back and relax.	Penske doesn't let things sit back and relax.	84439337	1474080483659	1474080483791	a	65
163698	1777306	Penske doesn't let things sit back and relax.	Penske doesn't let things sit back and relax.	84439339	1474080484135	1474080484229	BKSP	8
163698	1777306	Penske doesn't let things sit back and relax.	Penske doesn't let things sit back and relax.	84439341	1474080484307	1474080484378	BKSP	8
163698	1777306	Penske doesn't let things sit back and relax.	Penske doesn't let things sit back and relax.	84439343	1474080484566	1474080484693	k	75
163698	1777306	Penske doesn't let things sit back and relax.	Penske doesn't let things sit back and relax.	84439344	1474080485005	1474080485103	BKSP	8
163698	1777306	Penske doesn't let things sit back and relax.	Penske doesn't let things sit back and relax.	84439345	1474080485228	1474080485351	k	75
163698	1777306	Penske doesn't let things sit back and relax.	Penske doesn't let things sit back and relax.	84439346	1474080485711	1474080485825	BKSP	8
163698	1777306	Penske doesn't let things sit back and relax.	Penske doesn't let things sit back and relax.	84439347	1474080485966	1474080486077	l	76
163698	1777306	Penske doesn't let things sit back and relax.	Penske doesn't let things sit back and relax.	84439440	1474080486751	1474080486869	a	65
163698	1777306	Penske doesn't let things sit back and relax.	Penske doesn't let things sit back and relax.	84439445	1474080487088	1474080487240	z	90
163698	1777306	Penske doesn't let things sit back and relax.	Penske doesn't let things sit back and relax.	84439451	1474080488101	1474080488266	x	88
163698	1777306	Penske doesn't let things sit back and relax.	Penske doesn't let things sit back and relax.	84439453	1474080488438	1474080488537	BKSP	8
163698	1777306	Penske doesn't let things sit back and relax.	Penske doesn't let things sit back and relax.	84439457	1474080488584	1474080488686	BKSP	8
163698	1777306	Penske doesn't let things sit back and relax.	Penske doesn't let things sit back and relax.	84439463	1474080488733	1474080488874	x	88
163698	1777306	Penske doesn't let things sit back and relax.	Penske doesn't let things sit back and relax.	84439467	1474080489340	1474080489438	.	190
163698	1777341	Jackie Adams is trying to get this done today.	Jackie Adams is trying to get this done today.	84439605	1474080491452	1474080491835	SHIFT	16
163698	1777341	Jackie Adams is trying to get this done today.	Jackie Adams is trying to get this done today.	84439610	1474080491780	1474080491870	J	74
163698	1777341	Jackie Adams is trying to get this done today.	Jackie Adams is trying to get this done today.	84439614	1474080492010	1474080492172	a	65
163698	1777341	Jackie Adams is trying to get this done today.	Jackie Adams is trying to get this done today.	84439616	1474080492282	1474080492460	c	67
163698	1777341	Jackie Adams is trying to get this done today.	Jackie Adams is trying to get this done today.	84439619	1474080492424	1474080492510	k	75
163698	1777341	Jackie Adams is trying to get this done today.	Jackie Adams is trying to get this done today.	84439621	1474080492558	1474080492669	k	75
163698	1777341	Jackie Adams is trying to get this done today.	Jackie Adams is trying to get this done today.	84439707	1474080493074	1474080493169	BKSP	8
163698	1777341	Jackie Adams is trying to get this done today.	Jackie Adams is trying to get this done today.	84439712	1474080493310	1474080493410	u	85
163698	1777341	Jackie Adams is trying to get this done today.	Jackie Adams is trying to get this done today.	84439717	1474080493504	1474080493625	e	69
163698	1777341	Jackie Adams is trying to get this done today.	Jackie Adams is trying to get this done today.	84439722	1474080493750	1474080493860	BKSP	8
163698	1777341	Jackie Adams is trying to get this done today.	Jackie Adams is trying to get this done today.	84439725	1474080493922	1474080494020	BKSP	8
163698	1777341	Jackie Adams is trying to get this done today.	Jackie Adams is trying to get this done today.	84439729	1474080495007	1474080495129	i	73
163698	1777341	Jackie Adams is trying to get this done today.	Jackie Adams is trying to get this done today.	84439732	1474080495104	1474080495233	e	69
163698	1777341	Jackie Adams is trying to get this done today.	Jackie Adams is trying to get this done today.	84439819	1474080495204	1474080495319	 	32
163698	1777341	Jackie Adams is trying to get this done today.	Jackie Adams is trying to get this done today.	84439822	1474080495616	1474080495742	a	65
163698	1777341	Jackie Adams is trying to get this done today.	Jackie Adams is trying to get this done today.	84439826	1474080495961	1474080496069	BKSP	8
163698	1777341	Jackie Adams is trying to get this done today.	Jackie Adams is trying to get this done today.	84439830	1474080496116	1474080496367	SHIFT	16
163698	1777341	Jackie Adams is trying to get this done today.	Jackie Adams is trying to get this done today.	84439834	1474080496319	1474080496520	A	65
163698	1777341	Jackie Adams is trying to get this done today.	Jackie Adams is trying to get this done today.	84439838	1474080496723	1474080496948	d	68
163698	1777341	Jackie Adams is trying to get this done today.	Jackie Adams is trying to get this done today.	84439841	1474080496898	1474080497065	a	65
163698	1777341	Jackie Adams is trying to get this done today.	Jackie Adams is trying to get this done today.	84439846	1474080497331	1474080497486	m	77
163698	1777341	Jackie Adams is trying to get this done today.	Jackie Adams is trying to get this done today.	84439900	1474080497466	1474080497638	s	83
163698	1777341	Jackie Adams is trying to get this done today.	Jackie Adams is trying to get this done today.	84439903	1474080497617	1474080497741	 	32
163698	1777341	Jackie Adams is trying to get this done today.	Jackie Adams is trying to get this done today.	84439906	1474080497885	1474080498041	i	73
163698	1777341	Jackie Adams is trying to get this done today.	Jackie Adams is trying to get this done today.	84439908	1474080498228	1474080498325	 	32
163698	1777341	Jackie Adams is trying to get this done today.	Jackie Adams is trying to get this done today.	84439911	1474080498654	1474080498769	BKSP	8
163698	1777341	Jackie Adams is trying to get this done today.	Jackie Adams is trying to get this done today.	84439913	1474080498832	1474080498976	s	83
163698	1777341	Jackie Adams is trying to get this done today.	Jackie Adams is trying to get this done today.	84440013	1474080498926	1474080499065	 	32
163698	1777341	Jackie Adams is trying to get this done today.	Jackie Adams is trying to get this done today.	84440018	1474080499300	1474080499491	t	84
163698	1777341	Jackie Adams is trying to get this done today.	Jackie Adams is trying to get this done today.	84440023	1474080499905	1474080500049	y	89
163698	1777341	Jackie Adams is trying to get this done today.	Jackie Adams is trying to get this done today.	84440026	1474080500377	1474080500514	BKSP	8
163698	1777341	Jackie Adams is trying to get this done today.	Jackie Adams is trying to get this done today.	84440031	1474080500509	1474080500656	r	82
163698	1777341	Jackie Adams is trying to get this done today.	Jackie Adams is trying to get this done today.	84440034	1474080500734	1474080500835	y	89
163698	1777341	Jackie Adams is trying to get this done today.	Jackie Adams is trying to get this done today.	84440037	1474080501571	1474080501707	u	85
163698	1777341	Jackie Adams is trying to get this done today.	Jackie Adams is trying to get this done today.	84440107	1474080501889	1474080502009	n	78
163698	1777341	Jackie Adams is trying to get this done today.	Jackie Adams is trying to get this done today.	84440113	1474080502305	1474080502403	BKSP	8
163698	1777341	Jackie Adams is trying to get this done today.	Jackie Adams is trying to get this done today.	84440117	1474080502466	1474080502553	BKSP	8
163698	1777341	Jackie Adams is trying to get this done today.	Jackie Adams is trying to get this done today.	84440122	1474080502662	1474080502791	i	73
163698	1777341	Jackie Adams is trying to get this done today.	Jackie Adams is trying to get this done today.	84440125	1474080503135	1474080503266	n	78
163698	1777341	Jackie Adams is trying to get this done today.	Jackie Adams is trying to get this done today.	84440129	1474080503501	1474080503640	g	71
163698	1777341	Jackie Adams is trying to get this done today.	Jackie Adams is trying to get this done today.	84440188	1474080503578	1474080503737	 	32
163698	1777341	Jackie Adams is trying to get this done today.	Jackie Adams is trying to get this done today.	84440190	1474080504131	1474080504305	t	84
163698	1777341	Jackie Adams is trying to get this done today.	Jackie Adams is trying to get this done today.	84440193	1474080504305	1474080504590	i	73
163698	1777341	Jackie Adams is trying to get this done today.	Jackie Adams is trying to get this done today.	84440199	1474080504449	1474080504637	 	32
163698	1777341	Jackie Adams is trying to get this done today.	Jackie Adams is trying to get this done today.	84440203	1474080504965	1474080505053	BKSP	8
163698	1777341	Jackie Adams is trying to get this done today.	Jackie Adams is trying to get this done today.	84440205	1474080505115	1474080505219	BKSP	8
163698	1777341	Jackie Adams is trying to get this done today.	Jackie Adams is trying to get this done today.	84440209	1474080505329	1474080505584	i	73
163698	1777341	Jackie Adams is trying to get this done today.	Jackie Adams is trying to get this done today.	84440296	1474080505459	1474080505650	 	32
163698	1777341	Jackie Adams is trying to get this done today.	Jackie Adams is trying to get this done today.	84440301	1474080506058	1474080506143	BKSP	8
163698	1777341	Jackie Adams is trying to get this done today.	Jackie Adams is trying to get this done today.	84440307	1474080506205	1474080506318	BKSP	8
163698	1777341	Jackie Adams is trying to get this done today.	Jackie Adams is trying to get this done today.	84440310	1474080506396	1474080506635	o	79
163698	1777341	Jackie Adams is trying to get this done today.	Jackie Adams is trying to get this done today.	84440315	1474080506860	1474080507007	 	32
163698	1777341	Jackie Adams is trying to get this done today.	Jackie Adams is trying to get this done today.	84440317	1474080507273	1474080507412	g	71
163698	1777341	Jackie Adams is trying to get this done today.	Jackie Adams is trying to get this done today.	84440321	1474080507459	1474080507602	e	69
163698	1777341	Jackie Adams is trying to get this done today.	Jackie Adams is trying to get this done today.	84440353	1474080507559	1474080507810	t	84
163698	1777341	Jackie Adams is trying to get this done today.	Jackie Adams is trying to get this done today.	84440355	1474080507715	1474080507904	 	32
163698	1777341	Jackie Adams is trying to get this done today.	Jackie Adams is trying to get this done today.	84440358	1474080507951	1474080508074	t	84
163698	1777341	Jackie Adams is trying to get this done today.	Jackie Adams is trying to get this done today.	84440362	1474080508168	1474080508277	h	72
163698	1777341	Jackie Adams is trying to get this done today.	Jackie Adams is trying to get this done today.	84440365	1474080508370	1474080508496	i	73
163698	1777341	Jackie Adams is trying to get this done today.	Jackie Adams is trying to get this done today.	84440369	1474080508527	1474080508678	s	83
163698	1777341	Jackie Adams is trying to get this done today.	Jackie Adams is trying to get this done today.	84440438	1474080508641	1474080508742	 	32
163698	1777341	Jackie Adams is trying to get this done today.	Jackie Adams is trying to get this done today.	84440443	1474080508836	1474080509044	d	68
163698	1777341	Jackie Adams is trying to get this done today.	Jackie Adams is trying to get this done today.	84440447	1474080508966	1474080509091	i	73
163698	1777341	Jackie Adams is trying to get this done today.	Jackie Adams is trying to get this done today.	84440452	1474080509356	1474080509507	t	84
163698	1777341	Jackie Adams is trying to get this done today.	Jackie Adams is trying to get this done today.	84440455	1474080509656	1474080509744	BKSP	8
163698	1777341	Jackie Adams is trying to get this done today.	Jackie Adams is trying to get this done today.	84440459	1474080509806	1474080509909	BKSP	8
163698	1777341	Jackie Adams is trying to get this done today.	Jackie Adams is trying to get this done today.	84440461	1474080510034	1474080510127	i	73
163698	1777341	Jackie Adams is trying to get this done today.	Jackie Adams is trying to get this done today.	84440462	1474080510279	1474080510391	b	66
163698	1777341	Jackie Adams is trying to get this done today.	Jackie Adams is trying to get this done today.	84440519	1474080510606	1474080510703	=	187
163698	1777341	Jackie Adams is trying to get this done today.	Jackie Adams is trying to get this done today.	84440520	1474080510766	1474080510892	BKSP	8
163698	1777341	Jackie Adams is trying to get this done today.	Jackie Adams is trying to get this done today.	84440521	1474080511063	1474080511161	BKSP	8
163698	1777341	Jackie Adams is trying to get this done today.	Jackie Adams is trying to get this done today.	84440523	1474080511224	1474080511288	BKSP	8
163698	1777341	Jackie Adams is trying to get this done today.	Jackie Adams is trying to get this done today.	84440525	1474080511477	1474080511529	p	80
163698	1777341	Jackie Adams is trying to get this done today.	Jackie Adams is trying to get this done today.	84440528	1474080511947	1474080512076	BKSP	8
163698	1777341	Jackie Adams is trying to get this done today.	Jackie Adams is trying to get this done today.	84440532	1474080512585	1474080512645	o	79
163698	1777341	Jackie Adams is trying to get this done today.	Jackie Adams is trying to get this done today.	84440537	1474080512817	1474080512925	n	78
163698	1777341	Jackie Adams is trying to get this done today.	Jackie Adams is trying to get this done today.	84440542	1474080512987	1474080513091	e	69
163698	1777341	Jackie Adams is trying to get this done today.	Jackie Adams is trying to get this done today.	84440572	1474080513120	1474080513210	 	32
163698	1777341	Jackie Adams is trying to get this done today.	Jackie Adams is trying to get this done today.	84440577	1474080513710	1474080513895	t	84
163698	1777341	Jackie Adams is trying to get this done today.	Jackie Adams is trying to get this done today.	84440583	1474080513825	1474080513989	i	73
163698	1777341	Jackie Adams is trying to get this done today.	Jackie Adams is trying to get this done today.	84440587	1474080514036	1474080514313	d	68
163698	1777341	Jackie Adams is trying to get this done today.	Jackie Adams is trying to get this done today.	84440759	1474080514260	1474080514340	a	65
163698	1777341	Jackie Adams is trying to get this done today.	Jackie Adams is trying to get this done today.	84440761	1474080514449	1474080514536	BKSP	8
163698	1777341	Jackie Adams is trying to get this done today.	Jackie Adams is trying to get this done today.	84440763	1474080514598	1474080514693	BKSP	8
163698	1777341	Jackie Adams is trying to get this done today.	Jackie Adams is trying to get this done today.	84440765	1474080514755	1474080514844	BKSP	8
163698	1777341	Jackie Adams is trying to get this done today.	Jackie Adams is trying to get this done today.	84440766	1474080515454	1474080515583	o	79
163698	1777341	Jackie Adams is trying to get this done today.	Jackie Adams is trying to get this done today.	84440767	1474080515630	1474080515843	d	68
163698	1777341	Jackie Adams is trying to get this done today.	Jackie Adams is trying to get this done today.	84440769	1474080515735	1474080515859	CAPS_LOCK	20
163698	1777341	Jackie Adams is trying to get this done today.	Jackie Adams is trying to get this done today.	84440775	1474080515799	1474080515934	A	65
163698	1777341	Jackie Adams is trying to get this done today.	Jackie Adams is trying to get this done today.	84440778	1474080516693	1474080516824	BKSP	8
163698	1777341	Jackie Adams is trying to get this done today.	Jackie Adams is trying to get this done today.	84440783	1474080516840	1474080516980	CAPS_LOCK	20
163698	1777341	Jackie Adams is trying to get this done today.	Jackie Adams is trying to get this done today.	84440787	1474080517137	1474080517253	a	65
163698	1777341	Jackie Adams is trying to get this done today.	Jackie Adams is trying to get this done today.	84440790	1474080518119	1474080518193	y	89
163698	1777341	Jackie Adams is trying to get this done today.	Jackie Adams is trying to get this done today.	84440817	1474080518821	1474080518893	.	190
163698	1777375	Scotty and I will be in NYC.	Scotty and I will be in NYC.	84440980	1474080521622	1474080522149	SHIFT	16
163698	1777375	Scotty and I will be in NYC.	Scotty and I will be in NYC.	84440983	1474080522002	1474080522149	S	83
163698	1777375	Scotty and I will be in NYC.	Scotty and I will be in NYC.	84440986	1474080522321	1474080522488	c	67
163698	1777375	Scotty and I will be in NYC.	Scotty and I will be in NYC.	84440989	1474080522660	1474080522783	o	79
163698	1777375	Scotty and I will be in NYC.	Scotty and I will be in NYC.	84440991	1474080523526	1474080523650	t	84
163698	1777375	Scotty and I will be in NYC.	Scotty and I will be in NYC.	84440993	1474080523697	1474080523837	t	84
163698	1777375	Scotty and I will be in NYC.	Scotty and I will be in NYC.	84441008	1474080523777	1474080523993	y	89
163698	1777375	Scotty and I will be in NYC.	Scotty and I will be in NYC.	84441012	1474080523894	1474080524071	 	32
163698	1777375	Scotty and I will be in NYC.	Scotty and I will be in NYC.	84441017	1474080524133	1474080524320	a	65
163698	1777375	Scotty and I will be in NYC.	Scotty and I will be in NYC.	84441020	1474080524304	1474080524424	n	78
163698	1777375	Scotty and I will be in NYC.	Scotty and I will be in NYC.	84441024	1474080524440	1474080524602	d	68
163698	1777375	Scotty and I will be in NYC.	Scotty and I will be in NYC.	84441116	1474080524558	1474080524684	 	32
163698	1777375	Scotty and I will be in NYC.	Scotty and I will be in NYC.	84441120	1474080524872	1474080525084	i	73
163698	1777375	Scotty and I will be in NYC.	Scotty and I will be in NYC.	84441127	1474080524959	1474080525131	 	32
163698	1777375	Scotty and I will be in NYC.	Scotty and I will be in NYC.	84441131	1474080525524	1474080525609	BKSP	8
163698	1777375	Scotty and I will be in NYC.	Scotty and I will be in NYC.	84441137	1474080525672	1474080525744	BKSP	8
163698	1777375	Scotty and I will be in NYC.	Scotty and I will be in NYC.	84441145	1474080525744	1474080525953	SHIFT	16
163698	1777375	Scotty and I will be in NYC.	Scotty and I will be in NYC.	84441151	1474080525870	1474080526052	J	74
163698	1777375	Scotty and I will be in NYC.	Scotty and I will be in NYC.	84441158	1474080525985	1474080526170	 	32
163698	1777375	Scotty and I will be in NYC.	Scotty and I will be in NYC.	84441165	1474080526420	1474080526526	BKSP	8
163698	1777375	Scotty and I will be in NYC.	Scotty and I will be in NYC.	84441170	1474080526573	1474080526676	BKSP	8
163698	1777375	Scotty and I will be in NYC.	Scotty and I will be in NYC.	84441177	1474080526661	1474080526937	SHIFT	16
163698	1777375	Scotty and I will be in NYC.	Scotty and I will be in NYC.	84441246	1474080526801	1474080527000	U	85
163698	1777375	Scotty and I will be in NYC.	Scotty and I will be in NYC.	84441249	1474080526932	1474080527114	 	32
163698	1777375	Scotty and I will be in NYC.	Scotty and I will be in NYC.	84441251	1474080527457	1474080527542	BKSP	8
163698	1777375	Scotty and I will be in NYC.	Scotty and I will be in NYC.	84441253	1474080527605	1474080527693	BKSP	8
163698	1777375	Scotty and I will be in NYC.	Scotty and I will be in NYC.	84441259	1474080527671	1474080527986	SHIFT	16
163698	1777375	Scotty and I will be in NYC.	Scotty and I will be in NYC.	84441256	1474080527787	1474080527986	I	73
163698	1777375	Scotty and I will be in NYC.	Scotty and I will be in NYC.	84441262	1474080527891	1474080528033	 	32
163698	1777375	Scotty and I will be in NYC.	Scotty and I will be in NYC.	84441267	1474080528392	1474080528554	w	87
163698	1777375	Scotty and I will be in NYC.	Scotty and I will be in NYC.	84441271	1474080528758	1474080528867	i	73
163698	1777375	Scotty and I will be in NYC.	Scotty and I will be in NYC.	84441274	1474080528988	1474080529102	l	76
163698	1777375	Scotty and I will be in NYC.	Scotty and I will be in NYC.	84441312	1474080529149	1474080529273	l	76
163698	1777375	Scotty and I will be in NYC.	Scotty and I will be in NYC.	84441318	1474080529289	1474080529449	 	32
163698	1777375	Scotty and I will be in NYC.	Scotty and I will be in NYC.	84441321	1474080529495	1474080529655	b	66
163698	1777375	Scotty and I will be in NYC.	Scotty and I will be in NYC.	84441325	1474080529921	1474080530039	e	69
163698	1777375	Scotty and I will be in NYC.	Scotty and I will be in NYC.	84441328	1474080530070	1474080530208	 	32
163698	1777375	Scotty and I will be in NYC.	Scotty and I will be in NYC.	84441398	1474080530285	1474080530408	i	73
163698	1777375	Scotty and I will be in NYC.	Scotty and I will be in NYC.	84441399	1474080530486	1474080530677	n	78
163698	1777375	Scotty and I will be in NYC.	Scotty and I will be in NYC.	84441400	1474080530592	1474080530739	 	32
163698	1777375	Scotty and I will be in NYC.	Scotty and I will be in NYC.	84441487	1474080530771	1474080533770	SHIFT	16
163698	1777375	Scotty and I will be in NYC.	Scotty and I will be in NYC.	84441401	1474080531083	1474080531208	B	66
163698	1777375	Scotty and I will be in NYC.	Scotty and I will be in NYC.	84441403	1474080531898	1474080531993	BKSP	8
163698	1777375	Scotty and I will be in NYC.	Scotty and I will be in NYC.	84441405	1474080532165	1474080532283	N	78
163698	1777375	Scotty and I will be in NYC.	Scotty and I will be in NYC.	84441482	1474080532583	1474080532707	Y	89
163698	1777375	Scotty and I will be in NYC.	Scotty and I will be in NYC.	84441484	1474080533585	1474080533707	C	67
163698	1777375	Scotty and I will be in NYC.	Scotty and I will be in NYC.	84441491	1474080534129	1474080534250	.	190
163698	1777391	I would expect an answer ASAP.	I would expect ab answer ASAP.	84441672	1474080536483	1474080536836	SHIFT	16
163698	1777391	I would expect an answer ASAP.	I would expect ab answer ASAP.	84441675	1474080536663	1474080536892	U	85
163698	1777391	I would expect an answer ASAP.	I would expect ab answer ASAP.	84441680	1474080536806	1474080536954	 	32
163698	1777391	I would expect an answer ASAP.	I would expect ab answer ASAP.	84441687	1474080537001	1474080537126	w	87
163698	1777391	I would expect an answer ASAP.	I would expect ab answer ASAP.	84441692	1474080537251	1474080537369	BKSP	8
163698	1777391	I would expect an answer ASAP.	I would expect ab answer ASAP.	84441698	1474080537400	1474080537508	BKSP	8
163698	1777391	I would expect an answer ASAP.	I would expect ab answer ASAP.	84441713	1474080537555	1474080538532	SHIFT	16
163698	1777391	I would expect an answer ASAP.	I would expect ab answer ASAP.	84441703	1474080537665	1474080537859	I	73
163698	1777391	I would expect an answer ASAP.	I would expect ab answer ASAP.	84441707	1474080537976	1474080538075	BKSP	8
163698	1777391	I would expect an answer ASAP.	I would expect ab answer ASAP.	84441710	1474080538122	1474080538225	BKSP	8
163698	1777391	I would expect an answer ASAP.	I would expect ab answer ASAP.	84441777	1474080538319	1474080538532	I	73
163698	1777391	I would expect an answer ASAP.	I would expect ab answer ASAP.	84441781	1474080538425	1474080538594	 	32
163698	1777391	I would expect an answer ASAP.	I would expect ab answer ASAP.	84441785	1474080538872	1474080539044	w	87
163698	1777391	I would expect an answer ASAP.	I would expect ab answer ASAP.	84441788	1474080538975	1474080539122	o	79
163698	1777391	I would expect an answer ASAP.	I would expect ab answer ASAP.	84441791	1474080539231	1474080539372	k	75
163698	1777391	I would expect an answer ASAP.	I would expect ab answer ASAP.	84441793	1474080539657	1474080539767	BKSP	8
163698	1777391	I would expect an answer ASAP.	I would expect ab answer ASAP.	84441796	1474080539892	1474080540008	u	85
163698	1777391	I would expect an answer ASAP.	I would expect ab answer ASAP.	84441799	1474080540101	1474080540217	k	75
163698	1777391	I would expect an answer ASAP.	I would expect ab answer ASAP.	84441870	1474080540652	1474080540727	BKSP	8
163698	1777391	I would expect an answer ASAP.	I would expect ab answer ASAP.	84441875	1474080540852	1474080540973	k	75
163698	1777391	I would expect an answer ASAP.	I would expect ab answer ASAP.	84441880	1474080541005	1474080541159	d	68
163698	1777391	I would expect an answer ASAP.	I would expect ab answer ASAP.	84441885	1474080541150	1474080541273	 	32
163698	1777391	I would expect an answer ASAP.	I would expect ab answer ASAP.	84441890	1474080541398	1474080541484	BKSP	8
163698	1777391	I would expect an answer ASAP.	I would expect ab answer ASAP.	84441895	1474080541547	1474080541664	BKSP	8
163698	1777391	I would expect an answer ASAP.	I would expect ab answer ASAP.	84441898	1474080541680	1474080541744	BKSP	8
163698	1777391	I would expect an answer ASAP.	I would expect ab answer ASAP.	84441900	1474080541838	1474080541940	k	75
163698	1777391	I would expect an answer ASAP.	I would expect ab answer ASAP.	84441901	1474080542065	1474080542198	f	70
163698	1777391	I would expect an answer ASAP.	I would expect ab answer ASAP.	84441994	1474080542392	1474080542477	BKSP	8
163698	1777391	I would expect an answer ASAP.	I would expect ab answer ASAP.	84441996	1474080542555	1474080542611	BKSP	8
163698	1777391	I would expect an answer ASAP.	I would expect ab answer ASAP.	84441999	1474080542767	1474080542844	j	74
163698	1777391	I would expect an answer ASAP.	I would expect ab answer ASAP.	84442002	1474080542795	1474080542860	k	75
163698	1777391	I would expect an answer ASAP.	I would expect ab answer ASAP.	84442004	1474080543172	1474080543267	BKSP	8
163698	1777391	I would expect an answer ASAP.	I would expect ab answer ASAP.	84442006	1474080543316	1474080543433	BKSP	8
163698	1777391	I would expect an answer ASAP.	I would expect ab answer ASAP.	84442008	1474080543729	1474080543856	k	75
163698	1777391	I would expect an answer ASAP.	I would expect ab answer ASAP.	84442010	1474080544184	1474080544275	BKSP	8
163698	1777391	I would expect an answer ASAP.	I would expect ab answer ASAP.	84442013	1474080544462	1474080544542	l	76
163698	1777391	I would expect an answer ASAP.	I would expect ab answer ASAP.	84442018	1474080544652	1474080544728	;	186
163698	1777391	I would expect an answer ASAP.	I would expect ab answer ASAP.	84442094	1474080545100	1474080545193	BKSP	8
163698	1777391	I would expect an answer ASAP.	I would expect ab answer ASAP.	84442099	1474080545318	1474080545480	f	70
163698	1777391	I would expect an answer ASAP.	I would expect ab answer ASAP.	84442105	1474080545440	1474080545558	 	32
163698	1777391	I would expect an answer ASAP.	I would expect ab answer ASAP.	84442108	1474080545902	1474080545977	BKSP	8
163698	1777391	I would expect an answer ASAP.	I would expect ab answer ASAP.	84442114	1474080546040	1474080546156	BKSP	8
163698	1777391	I would expect an answer ASAP.	I would expect ab answer ASAP.	84442120	1474080546126	1474080546288	d	68
163698	1777391	I would expect an answer ASAP.	I would expect ab answer ASAP.	84442125	1474080546227	1474080546342	 	32
163698	1777391	I would expect an answer ASAP.	I would expect ab answer ASAP.	84442129	1474080546837	1474080546973	e	69
163698	1777391	I would expect an answer ASAP.	I would expect ab answer ASAP.	84442236	1474080547124	1474080547335	x	88
163698	1777391	I would expect an answer ASAP.	I would expect ab answer ASAP.	84442240	1474080547869	1474080547991	0	48
163698	1777391	I would expect an answer ASAP.	I would expect ab answer ASAP.	84442245	1474080547976	1474080548132	e	69
163698	1777391	I would expect an answer ASAP.	I would expect ab answer ASAP.	84442252	1474080548304	1474080548378	c	67
163698	1777391	I would expect an answer ASAP.	I would expect ab answer ASAP.	84442259	1474080548566	1474080548621	BKSP	8
163698	1777391	I would expect an answer ASAP.	I would expect ab answer ASAP.	84442264	1474080549217	1474080549309	BKSP	8
163698	1777391	I would expect an answer ASAP.	I would expect ab answer ASAP.	84442269	1474080549387	1474080549460	BKSP	8
163698	1777391	I would expect an answer ASAP.	I would expect ab answer ASAP.	84442273	1474080549845	1474080549911	p	80
163698	1777391	I would expect an answer ASAP.	I would expect ab answer ASAP.	84442300	1474080549927	1474080550081	e	69
163698	1777391	I would expect an answer ASAP.	I would expect ab answer ASAP.	84442302	1474080550778	1474080550900	c	67
163698	1777391	I would expect an answer ASAP.	I would expect ab answer ASAP.	84442378	1474080550916	1474080551142	r	82
163698	1777391	I would expect an answer ASAP.	I would expect ab answer ASAP.	84442304	1474080550969	1474080551044	t	84
163698	1777391	I would expect an answer ASAP.	I would expect ab answer ASAP.	84442380	1474080551028	1474080551220	 	32
163698	1777391	I would expect an answer ASAP.	I would expect ab answer ASAP.	84442382	1474080551455	1474080551524	=	187
163698	1777391	I would expect an answer ASAP.	I would expect ab answer ASAP.	84442384	1474080551606	1474080551693	BKSP	8
163698	1777391	I would expect an answer ASAP.	I would expect ab answer ASAP.	84442386	1474080551740	1474080551794	BKSP	8
163698	1777391	I would expect an answer ASAP.	I would expect ab answer ASAP.	84442387	1474080551857	1474080551942	BKSP	8
163698	1777391	I would expect an answer ASAP.	I would expect ab answer ASAP.	84442388	1474080551990	1474080552076	BKSP	8
163698	1777391	I would expect an answer ASAP.	I would expect ab answer ASAP.	84442389	1474080552415	1474080552585	t	84
163698	1777391	I would expect an answer ASAP.	I would expect ab answer ASAP.	84442390	1474080552539	1474080552673	 	32
163698	1777391	I would expect an answer ASAP.	I would expect ab answer ASAP.	84442391	1474080553159	1474080553309	a	65
163698	1777391	I would expect an answer ASAP.	I would expect ab answer ASAP.	84442453	1474080553274	1474080553487	b	66
163698	1777391	I would expect an answer ASAP.	I would expect ab answer ASAP.	84442455	1474080553422	1474080553596	 	32
163698	1777391	I would expect an answer ASAP.	I would expect ab answer ASAP.	84442457	1474080553848	1474080554018	a	65
163698	1777391	I would expect an answer ASAP.	I would expect ab answer ASAP.	84442458	1474080554096	1474080554254	n	78
163698	1777391	I would expect an answer ASAP.	I would expect ab answer ASAP.	84442459	1474080554270	1474080554484	s	83
163698	1777391	I would expect an answer ASAP.	I would expect ab answer ASAP.	84442460	1474080555018	1474080555141	w	87
163698	1777391	I would expect an answer ASAP.	I would expect ab answer ASAP.	84442556	1474080555571	1474080555675	e	69
163698	1777391	I would expect an answer ASAP.	I would expect ab answer ASAP.	84442560	1474080555784	1474080555930	r	82
163698	1777391	I would expect an answer ASAP.	I would expect ab answer ASAP.	84442564	1474080555907	1474080556032	 	32
163698	1777391	I would expect an answer ASAP.	I would expect ab answer ASAP.	84442743	1474080556246	1474080558711	SHIFT	16
163698	1777391	I would expect an answer ASAP.	I would expect ab answer ASAP.	84442567	1474080556536	1474080556767	A	65
163698	1777391	I would expect an answer ASAP.	I would expect ab answer ASAP.	84442571	1474080557378	1474080557468	S	83
163698	1777391	I would expect an answer ASAP.	I would expect ab answer ASAP.	84442733	1474080557994	1474080558154	A	65
163698	1777391	I would expect an answer ASAP.	I would expect ab answer ASAP.	84442737	1474080558248	1474080558367	P	80
163698	1777391	I would expect an answer ASAP.	I would expect ab answer ASAP.	84442757	1474080559198	1474080559506	SHIFT	16
163698	1777391	I would expect an answer ASAP.	I would expect ab answer ASAP.	84442750	1474080559350	1474080559443	>	190
163698	1777391	I would expect an answer ASAP.	I would expect ab answer ASAP.	84442762	1474080559771	1474080559884	BKSP	8
163698	1777391	I would expect an answer ASAP.	I would expect ab answer ASAP.	84442767	1474080560040	1474080560103	;	186
163698	1777391	I would expect an answer ASAP.	I would expect ab answer ASAP.	84442771	1474080560550	1474080560626	BKSP	8
163698	1777391	I would expect an answer ASAP.	I would expect ab answer ASAP.	84442775	1474080560751	1474080560850	.	190
163698	1777415	We are waiting on the cold front.	We are waiting on the cold front.	84442912	1474080562859	1474080563216	SHIFT	16
163698	1777415	We are waiting on the cold front.	We are waiting on the cold front.	84442915	1474080563090	1474080563294	W	87
163698	1777415	We are waiting on the cold front.	We are waiting on the cold front.	84442919	1474080563387	1474080563563	e	69
163698	1777415	We are waiting on the cold front.	We are waiting on the cold front.	84442924	1474080563641	1474080563766	 	32
163698	1777415	We are waiting on the cold front.	We are waiting on the cold front.	84442930	1474080563844	1474080564026	a	65
163698	1777415	We are waiting on the cold front.	We are waiting on the cold front.	84442981	1474080564013	1474080564270	r	82
163698	1777415	We are waiting on the cold front.	We are waiting on the cold front.	84442983	1474080564172	1474080564339	e	69
163698	1777415	We are waiting on the cold front.	We are waiting on the cold front.	84442987	1474080564301	1474080564377	 	32
163698	1777415	We are waiting on the cold front.	We are waiting on the cold front.	84442990	1474080564512	1474080564643	a	65
163698	1777415	We are waiting on the cold front.	We are waiting on the cold front.	84442993	1474080564570	1474080564752	w	87
163698	1777415	We are waiting on the cold front.	We are waiting on the cold front.	84442996	1474080565002	1474080565093	=	187
163698	1777415	We are waiting on the cold front.	We are waiting on the cold front.	84443041	1474080565152	1474080565253	BKSP	8
163698	1777415	We are waiting on the cold front.	We are waiting on the cold front.	84443044	1474080565202	1474080565332	w	87
163698	1777415	We are waiting on the cold front.	We are waiting on the cold front.	84443045	1474080565363	1474080565491	BKSP	8
163698	1777415	We are waiting on the cold front.	We are waiting on the cold front.	84443050	1474080565537	1474080565636	BKSP	8
163698	1777415	We are waiting on the cold front.	We are waiting on the cold front.	84443052	1474080565685	1474080565905	w	87
163698	1777415	We are waiting on the cold front.	We are waiting on the cold front.	84443055	1474080565743	1474080565937	a	65
163698	1777415	We are waiting on the cold front.	We are waiting on the cold front.	84443060	1474080566062	1474080566175	BKSP	8
163698	1777415	We are waiting on the cold front.	We are waiting on the cold front.	84443064	1474080566221	1474080566334	BKSP	8
163698	1777415	We are waiting on the cold front.	We are waiting on the cold front.	84443067	1474080566381	1474080566460	BKSP	8
163698	1777415	We are waiting on the cold front.	We are waiting on the cold front.	84443117	1474080566491	1474080566767	w	87
163698	1777415	We are waiting on the cold front.	We are waiting on the cold front.	84443069	1474080566559	1474080566756	a	65
163698	1777415	We are waiting on the cold front.	We are waiting on the cold front.	84443123	1474080567095	1474080567238	u	85
163698	1777415	We are waiting on the cold front.	We are waiting on the cold front.	84443132	1474080567253	1474080567436	t	84
163698	1777415	We are waiting on the cold front.	We are waiting on the cold front.	84443139	1474080567749	1474080567850	BKSP	8
163698	1777415	We are waiting on the cold front.	We are waiting on the cold front.	84443145	1474080567913	1474080568008	BKSP	8
163698	1777415	We are waiting on the cold front.	We are waiting on the cold front.	84443149	1474080568101	1474080568193	u	85
163698	1777415	We are waiting on the cold front.	We are waiting on the cold front.	84443152	1474080568532	1474080568634	BKSP	8
163698	1777415	We are waiting on the cold front.	We are waiting on the cold front.	84443155	1474080568743	1474080568872	i	73
163698	1777415	We are waiting on the cold front.	We are waiting on the cold front.	84443157	1474080569184	1474080569316	t	84
163698	1777415	We are waiting on the cold front.	We are waiting on the cold front.	84443229	1474080569467	1474080569646	i	73
163698	1777415	We are waiting on the cold front.	We are waiting on the cold front.	84443232	1474080569989	1474080570107	b	66
163698	1777415	We are waiting on the cold front.	We are waiting on the cold front.	84443236	1474080570123	1474080570262	g	71
163698	1777415	We are waiting on the cold front.	We are waiting on the cold front.	84443239	1474080570249	1474080570358	 	32
163698	1777415	We are waiting on the cold front.	We are waiting on the cold front.	84443241	1474080570780	1474080570906	BKSP	8
163698	1777415	We are waiting on the cold front.	We are waiting on the cold front.	84443244	1474080570953	1474080571089	BKSP	8
163698	1777415	We are waiting on the cold front.	We are waiting on the cold front.	84443253	1474080571199	1474080571307	h	72
163698	1777415	We are waiting on the cold front.	We are waiting on the cold front.	84443416	1474080571463	1474080571543	BKSP	8
163698	1777415	We are waiting on the cold front.	We are waiting on the cold front.	84443422	1474080571605	1474080571733	BKSP	8
163698	1777415	We are waiting on the cold front.	We are waiting on the cold front.	84443426	1474080572072	1474080572148	h	72
163698	1777415	We are waiting on the cold front.	We are waiting on the cold front.	84443431	1474080572495	1474080572592	BKSP	8
163698	1777415	We are waiting on the cold front.	We are waiting on the cold front.	84443435	1474080572783	1474080572883	b	66
163698	1777415	We are waiting on the cold front.	We are waiting on the cold front.	84443437	1474080573564	1474080573753	BKSP	8
163698	1777415	We are waiting on the cold front.	We are waiting on the cold front.	84443438	1474080573987	1474080574091	n	78
163698	1777415	We are waiting on the cold front.	We are waiting on the cold front.	84443439	1474080574106	1474080574244	g	71
163698	1777415	We are waiting on the cold front.	We are waiting on the cold front.	84443474	1474080574217	1474080574318	 	32
163698	1777415	We are waiting on the cold front.	We are waiting on the cold front.	84443476	1474080574458	1474080574574	o	79
163698	1777415	We are waiting on the cold front.	We are waiting on the cold front.	84443477	1474080574667	1474080574853	b	66
163698	1777415	We are waiting on the cold front.	We are waiting on the cold front.	84443479	1474080574790	1474080574900	 	32
163698	1777415	We are waiting on the cold front.	We are waiting on the cold front.	84443480	1474080574962	1474080575066	t	84
163698	1777415	We are waiting on the cold front.	We are waiting on the cold front.	84443609	1474080575128	1474080575379	h	72
163698	1777415	We are waiting on the cold front.	We are waiting on the cold front.	84443483	1474080575256	1474080575367	e	69
163698	1777415	We are waiting on the cold front.	We are waiting on the cold front.	84443612	1474080575319	1474080575441	 	32
163698	1777415	We are waiting on the cold front.	We are waiting on the cold front.	84443615	1474080575598	1474080575694	BKSP	8
163698	1777415	We are waiting on the cold front.	We are waiting on the cold front.	84443620	1474080575756	1474080575841	BKSP	8
163698	1777415	We are waiting on the cold front.	We are waiting on the cold front.	84443624	1474080575904	1474080575991	BKSP	8
163698	1777415	We are waiting on the cold front.	We are waiting on the cold front.	84443628	1474080576054	1474080576141	BKSP	8
163698	1777415	We are waiting on the cold front.	We are waiting on the cold front.	84443633	1474080576266	1474080576374	BKSP	8
163698	1777415	We are waiting on the cold front.	We are waiting on the cold front.	84443636	1474080576454	1474080576557	BKSP	8
163698	1777415	We are waiting on the cold front.	We are waiting on the cold front.	84443642	1474080576978	1474080577068	n	78
163698	1777415	We are waiting on the cold front.	We are waiting on the cold front.	84443648	1474080577053	1474080577213	 	32
163698	1777415	We are waiting on the cold front.	We are waiting on the cold front.	84443655	1474080577292	1474080577391	t	84
163698	1777415	We are waiting on the cold front.	We are waiting on the cold front.	84443664	1474080577453	1474080577694	h	72
163698	1777415	We are waiting on the cold front.	We are waiting on the cold front.	84443695	1474080577597	1474080577736	e	69
163698	1777415	We are waiting on the cold front.	We are waiting on the cold front.	84443698	1474080577644	1474080577798	 	32
163698	1777415	We are waiting on the cold front.	We are waiting on the cold front.	84443705	1474080578061	1474080578240	c	67
163698	1777415	We are waiting on the cold front.	We are waiting on the cold front.	84443702	1474080578103	1474080578208	o	79
163698	1777415	We are waiting on the cold front.	We are waiting on the cold front.	84443708	1474080578302	1474080578391	l	76
163698	1777415	We are waiting on the cold front.	We are waiting on the cold front.	84443710	1474080578851	1474080579010	d	68
163698	1777415	We are waiting on the cold front.	We are waiting on the cold front.	84443810	1474080578925	1474080579052	 	32
163698	1777415	We are waiting on the cold front.	We are waiting on the cold front.	84443812	1474080579646	1474080579795	f	70
163698	1777415	We are waiting on the cold front.	We are waiting on the cold front.	84443815	1474080579741	1474080579891	o	79
163698	1777415	We are waiting on the cold front.	We are waiting on the cold front.	84443817	1474080579873	1474080580037	r	82
163698	1777415	We are waiting on the cold front.	We are waiting on the cold front.	84443820	1474080580696	1474080580822	BKSP	8
163698	1777415	We are waiting on the cold front.	We are waiting on the cold front.	84443821	1474080580885	1474080580976	BKSP	8
163698	1777415	We are waiting on the cold front.	We are waiting on the cold front.	84443824	1474080581132	1474080581319	r	82
163698	1777415	We are waiting on the cold front.	We are waiting on the cold front.	84443901	1474080581290	1474080581369	o	79
163698	1777415	We are waiting on the cold front.	We are waiting on the cold front.	84443906	1474080581881	1474080582037	n	78
163698	1777415	We are waiting on the cold front.	We are waiting on the cold front.	84443911	1474080582000	1474080582138	t	84
163698	1777415	We are waiting on the cold front.	We are waiting on the cold front.	84443916	1474080583125	1474080583347	SHIFT	16
163698	1777415	We are waiting on the cold front.	We are waiting on the cold front.	84443921	1474080583550	1474080583619	.	190
163698	1777439	The All-Employee Meeting will be held Tuesday, Oct.	The All-Employee Meeting will be held Tuesday	84444269	1474080585726	1474080586061	SHIFT	16
163698	1777439	The All-Employee Meeting will be held Tuesday, Oct.	The All-Employee Meeting will be held Tuesday	84444271	1474080585992	1474080586092	CAPS_LOCK	20
163698	1777439	The All-Employee Meeting will be held Tuesday, Oct.	The All-Employee Meeting will be held Tuesday	84444277	1474080586076	1474080586592	SHIFT	16
163698	1777439	The All-Employee Meeting will be held Tuesday, Oct.	The All-Employee Meeting will be held Tuesday	84444273	1474080586377	1474080586530	a	65
163698	1777439	The All-Employee Meeting will be held Tuesday, Oct.	The All-Employee Meeting will be held Tuesday	84444281	1474080586889	1474080587000	BKSP	8
163698	1777439	The All-Employee Meeting will be held Tuesday, Oct.	The All-Employee Meeting will be held Tuesday	84444290	1474080587015	1474080587512	SHIFT	16
163698	1777439	The All-Employee Meeting will be held Tuesday, Oct.	The All-Employee Meeting will be held Tuesday	84444285	1474080587312	1474080587481	t	84
163698	1777439	The All-Employee Meeting will be held Tuesday, Oct.	The All-Employee Meeting will be held Tuesday	84444293	1474080587559	1474080587705	H	72
163698	1777439	The All-Employee Meeting will be held Tuesday, Oct.	The All-Employee Meeting will be held Tuesday	84444295	1474080588174	1474080588274	BKSP	8
163698	1777439	The All-Employee Meeting will be held Tuesday, Oct.	The All-Employee Meeting will be held Tuesday	84444299	1474080588321	1474080588418	BKSP	8
163698	1777439	The All-Employee Meeting will be held Tuesday, Oct.	The All-Employee Meeting will be held Tuesday	84444304	1474080588341	1474080588848	SHIFT	16
163698	1777439	The All-Employee Meeting will be held Tuesday, Oct.	The All-Employee Meeting will be held Tuesday	84444301	1474080588590	1474080588785	t	84
163698	1777439	The All-Employee Meeting will be held Tuesday, Oct.	The All-Employee Meeting will be held Tuesday	84444308	1474080589038	1474080589178	SHIFT	16
163698	1777439	The All-Employee Meeting will be held Tuesday, Oct.	The All-Employee Meeting will be held Tuesday	84444312	1474080589624	1474080589751	CAPS_LOCK	20
163698	1777439	The All-Employee Meeting will be held Tuesday, Oct.	The All-Employee Meeting will be held Tuesday	84444317	1474080590210	1474080590424	SHIFT	16
163698	1777439	The All-Employee Meeting will be held Tuesday, Oct.	The All-Employee Meeting will be held Tuesday	84444322	1474080590533	1474080590635	BKSP	8
163698	1777439	The All-Employee Meeting will be held Tuesday, Oct.	The All-Employee Meeting will be held Tuesday	84444345	1474080590729	1474080591237	SHIFT	16
163698	1777439	The All-Employee Meeting will be held Tuesday, Oct.	The All-Employee Meeting will be held Tuesday	84444325	1474080591090	1474080591174	T	84
163698	1777439	The All-Employee Meeting will be held Tuesday, Oct.	The All-Employee Meeting will be held Tuesday	84444348	1474080591393	1474080591569	h	72
163698	1777439	The All-Employee Meeting will be held Tuesday, Oct.	The All-Employee Meeting will be held Tuesday	84444352	1474080591585	1474080591731	e	69
163698	1777439	The All-Employee Meeting will be held Tuesday, Oct.	The All-Employee Meeting will be held Tuesday	84444359	1474080591666	1474080591782	 	32
163698	1777439	The All-Employee Meeting will be held Tuesday, Oct.	The All-Employee Meeting will be held Tuesday	84444365	1474080591939	1474080592087	a	65
163698	1777439	The All-Employee Meeting will be held Tuesday, Oct.	The All-Employee Meeting will be held Tuesday	84444373	1474080592306	1474080592417	BKSP	8
163698	1777439	The All-Employee Meeting will be held Tuesday, Oct.	The All-Employee Meeting will be held Tuesday	84444498	1474080592464	1474080593113	SHIFT	16
163698	1777439	The All-Employee Meeting will be held Tuesday, Oct.	The All-Employee Meeting will be held Tuesday	84444377	1474080592933	1474080593087	A	65
163698	1777439	The All-Employee Meeting will be held Tuesday, Oct.	The All-Employee Meeting will be held Tuesday	84444499	1474080593379	1474080593458	l	76
163698	1777439	The All-Employee Meeting will be held Tuesday, Oct.	The All-Employee Meeting will be held Tuesday	84444500	1474080593521	1474080593622	l	76
163698	1777439	The All-Employee Meeting will be held Tuesday, Oct.	The All-Employee Meeting will be held Tuesday	84444501	1474080594119	1474080594268	SHIFT	16
163698	1777439	The All-Employee Meeting will be held Tuesday, Oct.	The All-Employee Meeting will be held Tuesday	84444503	1474080594213	1474080594332	P	80
163698	1777439	The All-Employee Meeting will be held Tuesday, Oct.	The All-Employee Meeting will be held Tuesday	84444505	1474080594645	1474080594733	BKSP	8
163698	1777439	The All-Employee Meeting will be held Tuesday, Oct.	The All-Employee Meeting will be held Tuesday	84444508	1474080594952	1474080595041	o	79
163698	1777439	The All-Employee Meeting will be held Tuesday, Oct.	The All-Employee Meeting will be held Tuesday	84444511	1474080595339	1474080595437	NUM_LK	144
163698	1777439	The All-Employee Meeting will be held Tuesday, Oct.	The All-Employee Meeting will be held Tuesday	84444518	1474080595585	1474080595659	-	189
163698	1777439	The All-Employee Meeting will be held Tuesday, Oct.	The All-Employee Meeting will be held Tuesday	84444778	1474080596108	1474080596238	BKSP	8
163698	1777439	The All-Employee Meeting will be held Tuesday, Oct.	The All-Employee Meeting will be held Tuesday	84444779	1474080596300	1474080596464	BKSP	8
163698	1777439	The All-Employee Meeting will be held Tuesday, Oct.	The All-Employee Meeting will be held Tuesday	84444780	1474080596604	1474080596738	=	187
163698	1777439	The All-Employee Meeting will be held Tuesday, Oct.	The All-Employee Meeting will be held Tuesday	84444781	1474080597239	1474080597364	NUM_LK	144
163698	1777439	The All-Employee Meeting will be held Tuesday, Oct.	The All-Employee Meeting will be held Tuesday	84444782	1474080597819	1474080597925	BKSP	8
163698	1777439	The All-Employee Meeting will be held Tuesday, Oct.	The All-Employee Meeting will be held Tuesday	84444783	1474080598591	1474080598707	-	189
163698	1777439	The All-Employee Meeting will be held Tuesday, Oct.	The All-Employee Meeting will be held Tuesday	84444785	1474080599365	1474080599993	SHIFT	16
163698	1777439	The All-Employee Meeting will be held Tuesday, Oct.	The All-Employee Meeting will be held Tuesday	84444784	1474080599684	1474080599805	E	69
163698	1777439	The All-Employee Meeting will be held Tuesday, Oct.	The All-Employee Meeting will be held Tuesday	84444786	1474080600149	1474080600281	m	77
163698	1777439	The All-Employee Meeting will be held Tuesday, Oct.	The All-Employee Meeting will be held Tuesday	84444787	1474080601386	1474080601468	p	80
163698	1777439	The All-Employee Meeting will be held Tuesday, Oct.	The All-Employee Meeting will be held Tuesday	84444853	1474080601546	1474080601681	l	76
163698	1777439	The All-Employee Meeting will be held Tuesday, Oct.	The All-Employee Meeting will be held Tuesday	84444854	1474080602447	1474080602587	o	79
163698	1777439	The All-Employee Meeting will be held Tuesday, Oct.	The All-Employee Meeting will be held Tuesday	84444855	1474080603152	1474080603282	y	89
163698	1777439	The All-Employee Meeting will be held Tuesday, Oct.	The All-Employee Meeting will be held Tuesday	84444856	1474080603297	1474080603406	e	69
163698	1777439	The All-Employee Meeting will be held Tuesday, Oct.	The All-Employee Meeting will be held Tuesday	84444857	1474080603562	1474080603688	s	83
163698	1777439	The All-Employee Meeting will be held Tuesday, Oct.	The All-Employee Meeting will be held Tuesday	84444916	1474080603735	1474080603871	s	83
163698	1777439	The All-Employee Meeting will be held Tuesday, Oct.	The All-Employee Meeting will be held Tuesday	84444918	1474080603887	1474080604022	 	32
163698	1777439	The All-Employee Meeting will be held Tuesday, Oct.	The All-Employee Meeting will be held Tuesday	84444921	1474080604163	1474080604320	m	77
163698	1777439	The All-Employee Meeting will be held Tuesday, Oct.	The All-Employee Meeting will be held Tuesday	84444923	1474080604539	1474080604687	e	69
163698	1777439	The All-Employee Meeting will be held Tuesday, Oct.	The All-Employee Meeting will be held Tuesday	84444925	1474080605173	1474080605330	e	69
163698	1777439	The All-Employee Meeting will be held Tuesday, Oct.	The All-Employee Meeting will be held Tuesday	84445165	1474080605733	1474080605833	BKSP	8
163698	1777439	The All-Employee Meeting will be held Tuesday, Oct.	The All-Employee Meeting will be held Tuesday	84445168	1474080605880	1474080605968	BKSP	8
163698	1777439	The All-Employee Meeting will be held Tuesday, Oct.	The All-Employee Meeting will be held Tuesday	84445172	1474080606202	1474080606331	BKSP	8
163698	1777439	The All-Employee Meeting will be held Tuesday, Oct.	The All-Employee Meeting will be held Tuesday	84445178	1474080608079	1474080608206	BKSP	8
163698	1777439	The All-Employee Meeting will be held Tuesday, Oct.	The All-Employee Meeting will be held Tuesday	84445182	1474080608284	1474080608382	BKSP	8
163698	1777439	The All-Employee Meeting will be held Tuesday, Oct.	The All-Employee Meeting will be held Tuesday	84445186	1474080608476	1474080608572	BKSP	8
163698	1777439	The All-Employee Meeting will be held Tuesday, Oct.	The All-Employee Meeting will be held Tuesday	84445190	1474080608885	1474080609030	e	69
163698	1777439	The All-Employee Meeting will be held Tuesday, Oct.	The All-Employee Meeting will be held Tuesday	84445193	1474080609466	1474080609557	 	32
163698	1777439	The All-Employee Meeting will be held Tuesday, Oct.	The All-Employee Meeting will be held Tuesday	84445198	1474080609807	1474080610182	SHIFT	16
163698	1777439	The All-Employee Meeting will be held Tuesday, Oct.	The All-Employee Meeting will be held Tuesday	84445196	1474080609979	1474080610151	M	77
163698	1777439	The All-Employee Meeting will be held Tuesday, Oct.	The All-Employee Meeting will be held Tuesday	84445200	1474080610463	1474080610589	e	69
163698	1777439	The All-Employee Meeting will be held Tuesday, Oct.	The All-Employee Meeting will be held Tuesday	84445202	1474080610667	1474080610804	e	69
163698	1777439	The All-Employee Meeting will be held Tuesday, Oct.	The All-Employee Meeting will be held Tuesday	84445318	1474080610940	1474080611071	t	84
163698	1777439	The All-Employee Meeting will be held Tuesday, Oct.	The All-Employee Meeting will be held Tuesday	84445324	1474080611196	1474080611330	u	85
163698	1777439	The All-Employee Meeting will be held Tuesday, Oct.	The All-Employee Meeting will be held Tuesday	84445330	1474080611423	1474080611538	b	66
163698	1777439	The All-Employee Meeting will be held Tuesday, Oct.	The All-Employee Meeting will be held Tuesday	84445337	1474080611989	1474080612104	BKSP	8
163698	1777439	The All-Employee Meeting will be held Tuesday, Oct.	The All-Employee Meeting will be held Tuesday	84445341	1474080612198	1474080612329	BKSP	8
163698	1777439	The All-Employee Meeting will be held Tuesday, Oct.	The All-Employee Meeting will be held Tuesday	84445348	1474080613104	1474080613222	u	85
163698	1777439	The All-Employee Meeting will be held Tuesday, Oct.	The All-Employee Meeting will be held Tuesday	84445350	1474080613817	1474080613953	b	66
163698	1777439	The All-Employee Meeting will be held Tuesday, Oct.	The All-Employee Meeting will be held Tuesday	84445541	1474080613984	1474080614145	g	71
163698	1777439	The All-Employee Meeting will be held Tuesday, Oct.	The All-Employee Meeting will be held Tuesday	84445542	1474080614380	1474080614489	BKSP	8
163698	1777439	The All-Employee Meeting will be held Tuesday, Oct.	The All-Employee Meeting will be held Tuesday	84445544	1474080614567	1474080614672	BKSP	8
163698	1777439	The All-Employee Meeting will be held Tuesday, Oct.	The All-Employee Meeting will be held Tuesday	84445545	1474080614875	1474080615044	BKSP	8
163698	1777439	The All-Employee Meeting will be held Tuesday, Oct.	The All-Employee Meeting will be held Tuesday	84445546	1474080615468	1474080615573	9	57
163698	1777439	The All-Employee Meeting will be held Tuesday, Oct.	The All-Employee Meeting will be held Tuesday	84445547	1474080615995	1474080616130	BKSP	8
163698	1777439	The All-Employee Meeting will be held Tuesday, Oct.	The All-Employee Meeting will be held Tuesday	84445548	1474080616695	1474080616884	8	56
163698	1777439	The All-Employee Meeting will be held Tuesday, Oct.	The All-Employee Meeting will be held Tuesday	84445549	1474080618076	1474080618236	BKSP	8
163698	1777439	The All-Employee Meeting will be held Tuesday, Oct.	The All-Employee Meeting will be held Tuesday	84445550	1474080618731	1474080618878	i	73
163698	1777439	The All-Employee Meeting will be held Tuesday, Oct.	The All-Employee Meeting will be held Tuesday	84445551	1474080619357	1474080619535	n	78
163698	1777439	The All-Employee Meeting will be held Tuesday, Oct.	The All-Employee Meeting will be held Tuesday	84445652	1474080619780	1474080619865	g	71
163698	1777439	The All-Employee Meeting will be held Tuesday, Oct.	The All-Employee Meeting will be held Tuesday	84445654	1474080620256	1474080620402	 	32
163698	1777439	The All-Employee Meeting will be held Tuesday, Oct.	The All-Employee Meeting will be held Tuesday	84445656	1474080620543	1474080620672	w	87
163698	1777439	The All-Employee Meeting will be held Tuesday, Oct.	The All-Employee Meeting will be held Tuesday	84445658	1474080621579	1474080621705	u	85
163698	1777439	The All-Employee Meeting will be held Tuesday, Oct.	The All-Employee Meeting will be held Tuesday	84445660	1474080621908	1474080622006	k	75
163698	1777439	The All-Employee Meeting will be held Tuesday, Oct.	The All-Employee Meeting will be held Tuesday	84445733	1474080622188	1474080622289	BKSP	8
163698	1777439	The All-Employee Meeting will be held Tuesday, Oct.	The All-Employee Meeting will be held Tuesday	84445736	1474080622320	1474080622447	BKSP	8
163698	1777439	The All-Employee Meeting will be held Tuesday, Oct.	The All-Employee Meeting will be held Tuesday	84445739	1474080622898	1474080622951	i	73
163698	1777439	The All-Employee Meeting will be held Tuesday, Oct.	The All-Employee Meeting will be held Tuesday	84445743	1474080623092	1474080623151	l	76
163698	1777439	The All-Employee Meeting will be held Tuesday, Oct.	The All-Employee Meeting will be held Tuesday	84445747	1474080623214	1474080623338	l	76
163698	1777439	The All-Employee Meeting will be held Tuesday, Oct.	The All-Employee Meeting will be held Tuesday	84445751	1474080623420	1474080623537	 	32
163698	1777439	The All-Employee Meeting will be held Tuesday, Oct.	The All-Employee Meeting will be held Tuesday	84445755	1474080623662	1474080623843	b	66
163698	1777439	The All-Employee Meeting will be held Tuesday, Oct.	The All-Employee Meeting will be held Tuesday	84445834	1474080623802	1474080623953	r	82
163698	1777439	The All-Employee Meeting will be held Tuesday, Oct.	The All-Employee Meeting will be held Tuesday	84445838	1474080623905	1474080624038	 	32
163698	1777439	The All-Employee Meeting will be held Tuesday, Oct.	The All-Employee Meeting will be held Tuesday	84445842	1474080624429	1474080624554	h	72
163698	1777439	The All-Employee Meeting will be held Tuesday, Oct.	The All-Employee Meeting will be held Tuesday	84445846	1474080624695	1474080624858	r	82
163698	1777439	The All-Employee Meeting will be held Tuesday, Oct.	The All-Employee Meeting will be held Tuesday	84445849	1474080624799	1474080624937	l	76
163698	1777439	The All-Employee Meeting will be held Tuesday, Oct.	The All-Employee Meeting will be held Tuesday	84445852	1474080625062	1474080625141	BKSP	8
163698	1777439	The All-Employee Meeting will be held Tuesday, Oct.	The All-Employee Meeting will be held Tuesday	84445855	1474080625219	1474080625323	BKSP	8
163698	1777439	The All-Employee Meeting will be held Tuesday, Oct.	The All-Employee Meeting will be held Tuesday	84445856	1474080625370	1474080625457	BKSP	8
163698	1777439	The All-Employee Meeting will be held Tuesday, Oct.	The All-Employee Meeting will be held Tuesday	84445860	1474080625504	1474080625608	BKSP	8
163698	1777439	The All-Employee Meeting will be held Tuesday, Oct.	The All-Employee Meeting will be held Tuesday	84445864	1474080625656	1474080625724	BKSP	8
163698	1777439	The All-Employee Meeting will be held Tuesday, Oct.	The All-Employee Meeting will be held Tuesday	84445870	1474080625786	1474080625873	BKSP	8
163698	1777439	The All-Employee Meeting will be held Tuesday, Oct.	The All-Employee Meeting will be held Tuesday	84445876	1474080625985	1474080626059	r	82
163698	1777439	The All-Employee Meeting will be held Tuesday, Oct.	The All-Employee Meeting will be held Tuesday	84445919	1474080626422	1474080626523	BKSP	8
163698	1777439	The All-Employee Meeting will be held Tuesday, Oct.	The All-Employee Meeting will be held Tuesday	84445923	1474080626710	1474080626894	b	66
163698	1777439	The All-Employee Meeting will be held Tuesday, Oct.	The All-Employee Meeting will be held Tuesday	84445928	1474080626876	1474080626993	r	82
163698	1777439	The All-Employee Meeting will be held Tuesday, Oct.	The All-Employee Meeting will be held Tuesday	84445933	1474080626976	1474080627119	 	32
163698	1777439	The All-Employee Meeting will be held Tuesday, Oct.	The All-Employee Meeting will be held Tuesday	84445936	1474080627338	1474080627500	h	72
163698	1777439	The All-Employee Meeting will be held Tuesday, Oct.	The All-Employee Meeting will be held Tuesday	84446031	1474080627467	1474080627638	r	82
163698	1777439	The All-Employee Meeting will be held Tuesday, Oct.	The All-Employee Meeting will be held Tuesday	84446034	1474080627635	1474080627778	l	76
163698	1777439	The All-Employee Meeting will be held Tuesday, Oct.	The All-Employee Meeting will be held Tuesday	84446036	1474080627934	1474080628023	BKSP	8
163698	1777439	The All-Employee Meeting will be held Tuesday, Oct.	The All-Employee Meeting will be held Tuesday	84446038	1474080628085	1474080628173	BKSP	8
163698	1777439	The All-Employee Meeting will be held Tuesday, Oct.	The All-Employee Meeting will be held Tuesday	84446040	1474080628235	1474080628323	BKSP	8
163698	1777439	The All-Employee Meeting will be held Tuesday, Oct.	The All-Employee Meeting will be held Tuesday	84446041	1474080628370	1474080628472	BKSP	8
163698	1777439	The All-Employee Meeting will be held Tuesday, Oct.	The All-Employee Meeting will be held Tuesday	84446042	1474080628550	1474080628686	r	82
163698	1777439	The All-Employee Meeting will be held Tuesday, Oct.	The All-Employee Meeting will be held Tuesday	84446043	1474080628889	1474080628974	BKSP	8
163698	1777439	The All-Employee Meeting will be held Tuesday, Oct.	The All-Employee Meeting will be held Tuesday	84446048	1474080629037	1474080629139	BKSP	8
163698	1777439	The All-Employee Meeting will be held Tuesday, Oct.	The All-Employee Meeting will be held Tuesday	84446051	1474080629186	1474080629356	e	69
163698	1777439	The All-Employee Meeting will be held Tuesday, Oct.	The All-Employee Meeting will be held Tuesday	84446055	1474080629258	1474080629387	 	32
163698	1777439	The All-Employee Meeting will be held Tuesday, Oct.	The All-Employee Meeting will be held Tuesday	84446057	1474080629966	1474080630041	h	72
163698	1777439	The All-Employee Meeting will be held Tuesday, Oct.	The All-Employee Meeting will be held Tuesday	84446141	1474080630712	1474080630871	r	82
163698	1777439	The All-Employee Meeting will be held Tuesday, Oct.	The All-Employee Meeting will be held Tuesday	84446143	1474080630837	1474080630970	l	76
163698	1777439	The All-Employee Meeting will be held Tuesday, Oct.	The All-Employee Meeting will be held Tuesday	84446147	1474080631114	1474080631306	f	70
163698	1777439	The All-Employee Meeting will be held Tuesday, Oct.	The All-Employee Meeting will be held Tuesday	84446151	1474080631253	1474080631382	 	32
163698	1777439	The All-Employee Meeting will be held Tuesday, Oct.	The All-Employee Meeting will be held Tuesday	84446155	1474080631679	1474080631790	BKSP	8
163698	1777439	The All-Employee Meeting will be held Tuesday, Oct.	The All-Employee Meeting will be held Tuesday	84446159	1474080631836	1474080631948	BKSP	8
163698	1777439	The All-Employee Meeting will be held Tuesday, Oct.	The All-Employee Meeting will be held Tuesday	84446163	1474080631979	1474080632081	BKSP	8
163698	1777439	The All-Employee Meeting will be held Tuesday, Oct.	The All-Employee Meeting will be held Tuesday	84446168	1474080632112	1474080632219	BKSP	8
163698	1777439	The All-Employee Meeting will be held Tuesday, Oct.	The All-Employee Meeting will be held Tuesday	84446170	1474080633297	1474080633440	e	69
163698	1777439	The All-Employee Meeting will be held Tuesday, Oct.	The All-Employee Meeting will be held Tuesday	84446288	1474080633389	1474080633531	l	76
163698	1777439	The All-Employee Meeting will be held Tuesday, Oct.	The All-Employee Meeting will be held Tuesday	84446289	1474080633577	1474080633754	d	68
163698	1777439	The All-Employee Meeting will be held Tuesday, Oct.	The All-Employee Meeting will be held Tuesday	84446290	1474080633697	1474080633820	 	32
163698	1777439	The All-Employee Meeting will be held Tuesday, Oct.	The All-Employee Meeting will be held Tuesday	84446298	1474080635153	1474080635485	SHIFT	16
163698	1777439	The All-Employee Meeting will be held Tuesday, Oct.	The All-Employee Meeting will be held Tuesday	84446292	1474080635315	1474080635406	R	82
163698	1777439	The All-Employee Meeting will be held Tuesday, Oct.	The All-Employee Meeting will be held Tuesday	84446304	1474080635896	1474080635981	BKSP	8
163698	1777439	The All-Employee Meeting will be held Tuesday, Oct.	The All-Employee Meeting will be held Tuesday	84446315	1474080636028	1474080636456	SHIFT	16
163698	1777439	The All-Employee Meeting will be held Tuesday, Oct.	The All-Employee Meeting will be held Tuesday	84446308	1474080636200	1474080636316	T	84
163698	1777439	The All-Employee Meeting will be held Tuesday, Oct.	The All-Employee Meeting will be held Tuesday	84446321	1474080636737	1474080636908	u	85
163698	1777439	The All-Employee Meeting will be held Tuesday, Oct.	The All-Employee Meeting will be held Tuesday	84446343	1474080636884	1474080637029	e	69
163698	1777439	The All-Employee Meeting will be held Tuesday, Oct.	The All-Employee Meeting will be held Tuesday	84446344	1474080637107	1474080637283	s	83
163698	1777439	The All-Employee Meeting will be held Tuesday, Oct.	The All-Employee Meeting will be held Tuesday	84446345	1474080637580	1474080637783	d	68
163698	1777439	The All-Employee Meeting will be held Tuesday, Oct.	The All-Employee Meeting will be held Tuesday	84446346	1474080637714	1474080637877	a	65
163698	1777439	The All-Employee Meeting will be held Tuesday, Oct.	The All-Employee Meeting will be held Tuesday	84446347	1474080637908	1474080638124	y	89
163698	1777439	The All-Employee Meeting will be held Tuesday, Oct.	The All-Employee Meeting will be held Tuesday	84446414	1474080638047	1474080638202	 	32
163698	1777439	The All-Employee Meeting will be held Tuesday, Oct.	The All-Employee Meeting will be held Tuesday	84446417	1474080638436	1474080638485	=	187
163698	1777439	The All-Employee Meeting will be held Tuesday, Oct.	The All-Employee Meeting will be held Tuesday	84446421	1474080638806	1474080638905	BKSP	8
163698	1777439	The All-Employee Meeting will be held Tuesday, Oct.	The All-Employee Meeting will be held Tuesday	84446424	1474080639045	1474080639155	BKSP	8
163698	1777439	The All-Employee Meeting will be held Tuesday, Oct.	The All-Employee Meeting will be held Tuesday	84446426	1474080639452	1474080639571	.	190
163698	1777491	Thanks for keeping your eyes out there on our stuff!	Thanks for keeping your eyes out there on out stuff!	84446626	1474080639918	1474080644650	BKSP	8
163698	1777491	Thanks for keeping your eyes out there on our stuff!	Thanks for keeping your eyes out there on out stuff!	84446534	1474080642814	1474080643220	SHIFT	16
163698	1777491	Thanks for keeping your eyes out there on our stuff!	Thanks for keeping your eyes out there on out stuff!	84446531	1474080643091	1474080643173	T	84
163698	1777491	Thanks for keeping your eyes out there on our stuff!	Thanks for keeping your eyes out there on out stuff!	84446536	1474080643283	1474080643418	h	72
163698	1777491	Thanks for keeping your eyes out there on our stuff!	Thanks for keeping your eyes out there on out stuff!	84446537	1474080643418	1474080643521	a	65
163698	1777491	Thanks for keeping your eyes out there on our stuff!	Thanks for keeping your eyes out there on out stuff!	84446538	1474080643756	1474080643879	b	66
163698	1777491	Thanks for keeping your eyes out there on our stuff!	Thanks for keeping your eyes out there on out stuff!	84446540	1474080644020	1474080644133	k	75
163698	1777491	Thanks for keeping your eyes out there on our stuff!	Thanks for keeping your eyes out there on out stuff!	84446624	1474080644051	1474080644190	s	83
163698	1777491	Thanks for keeping your eyes out there on our stuff!	Thanks for keeping your eyes out there on out stuff!	84446628	1474080644729	1474080644838	BKSP	8
163698	1777491	Thanks for keeping your eyes out there on our stuff!	Thanks for keeping your eyes out there on out stuff!	84446630	1474080644885	1474080644972	BKSP	8
163698	1777491	Thanks for keeping your eyes out there on our stuff!	Thanks for keeping your eyes out there on out stuff!	84446632	1474080645155	1474080645273	n	78
163698	1777491	Thanks for keeping your eyes out there on our stuff!	Thanks for keeping your eyes out there on out stuff!	84446636	1474080645539	1474080645617	j	83
163698	1777491	Thanks for keeping your eyes out there on our stuff!	Thanks for keeping your eyes out there on out stuff!	84446638	1474080645835	1474080645931	BKSP	8
163698	1777491	Thanks for keeping your eyes out there on our stuff!	Thanks for keeping your eyes out there on out stuff!	84446640	1474080645993	1474080646066	BKSP	8
163698	1777491	Thanks for keeping your eyes out there on our stuff!	Thanks for keeping your eyes out there on out stuff!	84446643	1474080646504	1474080646662	k	75
163698	1777491	Thanks for keeping your eyes out there on our stuff!	Thanks for keeping your eyes out there on out stuff!	84446666	1474080646621	1474080646788	s	83
163698	1777491	Thanks for keeping your eyes out there on our stuff!	Thanks for keeping your eyes out there on out stuff!	84446671	1474080646699	1474080646820	 	32
163698	1777491	Thanks for keeping your eyes out there on our stuff!	Thanks for keeping your eyes out there on out stuff!	84446675	1474080647132	1474080647284	f	70
163698	1777491	Thanks for keeping your eyes out there on our stuff!	Thanks for keeping your eyes out there on out stuff!	84446685	1474080647394	1474080647552	i	73
163698	1777491	Thanks for keeping your eyes out there on our stuff!	Thanks for keeping your eyes out there on out stuff!	84446681	1474080647421	1474080647537	r	82
163698	1777491	Thanks for keeping your eyes out there on our stuff!	Thanks for keeping your eyes out there on out stuff!	84446689	1474080647724	1474080647837	=	187
163698	1777491	Thanks for keeping your eyes out there on our stuff!	Thanks for keeping your eyes out there on out stuff!	84446749	1474080647894	1474080648021	BKSP	8
163698	1777491	Thanks for keeping your eyes out there on our stuff!	Thanks for keeping your eyes out there on out stuff!	84446751	1474080648052	1474080648165	BKSP	8
163698	1777491	Thanks for keeping your eyes out there on our stuff!	Thanks for keeping your eyes out there on out stuff!	84446753	1474080648211	1474080648274	BKSP	8
163698	1777491	Thanks for keeping your eyes out there on our stuff!	Thanks for keeping your eyes out there on out stuff!	84446755	1474080648399	1474080648697	o	73
163698	1777491	Thanks for keeping your eyes out there on our stuff!	Thanks for keeping your eyes out there on out stuff!	84446754	1474080648552	1474080648681	r	82
163698	1777491	Thanks for keeping your eyes out there on our stuff!	Thanks for keeping your eyes out there on out stuff!	84446756	1474080648597	1474080648756	 	32
163698	1777491	Thanks for keeping your eyes out there on our stuff!	Thanks for keeping your eyes out there on out stuff!	84446757	1474080648967	1474080649039	BKSP	8
163698	1777491	Thanks for keeping your eyes out there on our stuff!	Thanks for keeping your eyes out there on out stuff!	84446758	1474080649122	1474080649236	BKSP	8
163698	1777491	Thanks for keeping your eyes out there on our stuff!	Thanks for keeping your eyes out there on out stuff!	84446759	1474080649267	1474080649356	BKSP	8
163698	1777491	Thanks for keeping your eyes out there on our stuff!	Thanks for keeping your eyes out there on out stuff!	84446760	1474080649371	1474080649472	BKSP	8
163698	1777491	Thanks for keeping your eyes out there on our stuff!	Thanks for keeping your eyes out there on out stuff!	84446761	1474080649603	1474080649898	i	73
163698	1777491	Thanks for keeping your eyes out there on our stuff!	Thanks for keeping your eyes out there on out stuff!	84446841	1474080649861	1474080649957	t	84
163698	1777491	Thanks for keeping your eyes out there on our stuff!	Thanks for keeping your eyes out there on out stuff!	84446844	1474080649894	1474080650035	 	32
163698	1777491	Thanks for keeping your eyes out there on our stuff!	Thanks for keeping your eyes out there on out stuff!	84446848	1474080650145	1474080650231	BKSP	8
163698	1777491	Thanks for keeping your eyes out there on our stuff!	Thanks for keeping your eyes out there on out stuff!	84446852	1474080650294	1474080650406	BKSP	8
163698	1777491	Thanks for keeping your eyes out there on our stuff!	Thanks for keeping your eyes out there on out stuff!	84446855	1474080650428	1474080650522	BKSP	8
163698	1777491	Thanks for keeping your eyes out there on our stuff!	Thanks for keeping your eyes out there on out stuff!	84446858	1474080650647	1474080650769	o	79
163698	1777491	Thanks for keeping your eyes out there on our stuff!	Thanks for keeping your eyes out there on out stuff!	84446861	1474080651092	1474080651255	t	84
163698	1777491	Thanks for keeping your eyes out there on our stuff!	Thanks for keeping your eyes out there on out stuff!	84446864	1474080651219	1474080651353	 	32
163698	1777491	Thanks for keeping your eyes out there on our stuff!	Thanks for keeping your eyes out there on out stuff!	84446866	1474080652057	1474080652138	BKSP	8
163698	1777491	Thanks for keeping your eyes out there on our stuff!	Thanks for keeping your eyes out there on out stuff!	84446868	1474080652185	1474080652283	BKSP	8
163698	1777491	Thanks for keeping your eyes out there on our stuff!	Thanks for keeping your eyes out there on out stuff!	84446869	1474080652408	1474080652499	 	32
163698	1777491	Thanks for keeping your eyes out there on our stuff!	Thanks for keeping your eyes out there on out stuff!	84446903	1474080652454	1474080652572	r	82
163698	1777491	Thanks for keeping your eyes out there on our stuff!	Thanks for keeping your eyes out there on out stuff!	84446905	1474080652719	1474080652838	BKSP	8
163698	1777491	Thanks for keeping your eyes out there on our stuff!	Thanks for keeping your eyes out there on out stuff!	84446909	1474080653025	1474080653137	BKSP	8
163698	1777491	Thanks for keeping your eyes out there on our stuff!	Thanks for keeping your eyes out there on out stuff!	84446912	1474080653372	1474080653488	t	84
163698	1777491	Thanks for keeping your eyes out there on our stuff!	Thanks for keeping your eyes out there on out stuff!	84446914	1474080653757	1474080653870	BKSP	8
163698	1777491	Thanks for keeping your eyes out there on our stuff!	Thanks for keeping your eyes out there on out stuff!	84446917	1474080653917	1474080654052	r	82
163698	1777491	Thanks for keeping your eyes out there on our stuff!	Thanks for keeping your eyes out there on out stuff!	84446919	1474080654318	1474080654421	 	32
163698	1777491	Thanks for keeping your eyes out there on our stuff!	Thanks for keeping your eyes out there on out stuff!	84446921	1474080654780	1474080654888	k	75
163698	1777491	Thanks for keeping your eyes out there on our stuff!	Thanks for keeping your eyes out there on out stuff!	84446923	1474080654966	1474080655086	e	69
163698	1777491	Thanks for keeping your eyes out there on our stuff!	Thanks for keeping your eyes out there on out stuff!	84446962	1474080655445	1474080655594	e	69
163698	1777491	Thanks for keeping your eyes out there on our stuff!	Thanks for keeping your eyes out there on out stuff!	84446966	1474080655703	1474080655838	p	80
163698	1777491	Thanks for keeping your eyes out there on our stuff!	Thanks for keeping your eyes out there on out stuff!	84446969	1474080656088	1474080656219	i	73
163698	1777491	Thanks for keeping your eyes out there on our stuff!	Thanks for keeping your eyes out there on out stuff!	84446973	1474080656375	1474080656480	n	78
163698	1777491	Thanks for keeping your eyes out there on our stuff!	Thanks for keeping your eyes out there on out stuff!	84446976	1474080656542	1474080656678	g	71
163698	1777491	Thanks for keeping your eyes out there on our stuff!	Thanks for keeping your eyes out there on out stuff!	84447059	1474080656725	1474080656837	 	32
163698	1777491	Thanks for keeping your eyes out there on our stuff!	Thanks for keeping your eyes out there on out stuff!	84447061	1474080657201	1474080657360	y	89
163698	1777491	Thanks for keeping your eyes out there on our stuff!	Thanks for keeping your eyes out there on out stuff!	84447068	1474080657532	1474080657663	p	80
163698	1777491	Thanks for keeping your eyes out there on our stuff!	Thanks for keeping your eyes out there on out stuff!	84447071	1474080657960	1474080658086	u	85
163698	1777491	Thanks for keeping your eyes out there on our stuff!	Thanks for keeping your eyes out there on out stuff!	84447075	1474080658226	1474080658321	BKSP	8
163698	1777491	Thanks for keeping your eyes out there on our stuff!	Thanks for keeping your eyes out there on out stuff!	84447080	1474080658383	1474080658487	BKSP	8
163698	1777491	Thanks for keeping your eyes out there on our stuff!	Thanks for keeping your eyes out there on out stuff!	84447084	1474080659265	1474080659442	o	79
163698	1777491	Thanks for keeping your eyes out there on our stuff!	Thanks for keeping your eyes out there on out stuff!	84447122	1474080659834	1474080659983	u	85
163698	1777491	Thanks for keeping your eyes out there on our stuff!	Thanks for keeping your eyes out there on out stuff!	84447125	1474080660171	1474080660356	r	82
163698	1777491	Thanks for keeping your eyes out there on our stuff!	Thanks for keeping your eyes out there on out stuff!	84447129	1474080660681	1474080660844	 	32
163698	1777491	Thanks for keeping your eyes out there on our stuff!	Thanks for keeping your eyes out there on out stuff!	84447136	1474080660953	1474080661085	e	69
163698	1777491	Thanks for keeping your eyes out there on our stuff!	Thanks for keeping your eyes out there on out stuff!	84447141	1474080661101	1474080661294	y	89
163698	1777491	Thanks for keeping your eyes out there on our stuff!	Thanks for keeping your eyes out there on out stuff!	84447220	1474080661282	1474080661444	e	69
163698	1777491	Thanks for keeping your eyes out there on our stuff!	Thanks for keeping your eyes out there on out stuff!	84447221	1474080661841	1474080662015	s	83
163698	1777491	Thanks for keeping your eyes out there on our stuff!	Thanks for keeping your eyes out there on out stuff!	84447222	1474080662046	1474080662185	 	32
163698	1777491	Thanks for keeping your eyes out there on our stuff!	Thanks for keeping your eyes out there on out stuff!	84447223	1474080662372	1474080662502	0	48
163698	1777491	Thanks for keeping your eyes out there on our stuff!	Thanks for keeping your eyes out there on out stuff!	84447224	1474080662674	1474080662865	y	89
163698	1777491	Thanks for keeping your eyes out there on our stuff!	Thanks for keeping your eyes out there on out stuff!	84447225	1474080663037	1474080663178	t	84
163698	1777491	Thanks for keeping your eyes out there on our stuff!	Thanks for keeping your eyes out there on out stuff!	84447366	1474080663315	1474080663388	=	187
163698	1777491	Thanks for keeping your eyes out there on our stuff!	Thanks for keeping your eyes out there on out stuff!	84447368	1474080663452	1474080663563	BKSP	8
163698	1777491	Thanks for keeping your eyes out there on our stuff!	Thanks for keeping your eyes out there on out stuff!	84447371	1474080663613	1474080663690	BKSP	8
163698	1777491	Thanks for keeping your eyes out there on our stuff!	Thanks for keeping your eyes out there on out stuff!	84447374	1474080663768	1474080663824	BKSP	8
163698	1777491	Thanks for keeping your eyes out there on our stuff!	Thanks for keeping your eyes out there on out stuff!	84447381	1474080664060	1474080664234	u	85
163698	1777491	Thanks for keeping your eyes out there on our stuff!	Thanks for keeping your eyes out there on out stuff!	84447388	1474080664781	1474080664948	r	82
163698	1777491	Thanks for keeping your eyes out there on our stuff!	Thanks for keeping your eyes out there on out stuff!	84447392	1474080665261	1474080665349	BKSP	8
163698	1777491	Thanks for keeping your eyes out there on our stuff!	Thanks for keeping your eyes out there on out stuff!	84447396	1474080665411	1474080665504	BKSP	8
163698	1777491	Thanks for keeping your eyes out there on our stuff!	Thanks for keeping your eyes out there on out stuff!	84447399	1474080665567	1474080665638	BKSP	8
163698	1777491	Thanks for keeping your eyes out there on our stuff!	Thanks for keeping your eyes out there on out stuff!	84447404	1474080665794	1474080665919	u	85
163698	1777491	Thanks for keeping your eyes out there on our stuff!	Thanks for keeping your eyes out there on out stuff!	84447408	1474080666266	1474080666386	=	187
163698	1777491	Thanks for keeping your eyes out there on our stuff!	Thanks for keeping your eyes out there on out stuff!	84447602	1474080666772	1474080666863	BKSP	8
163698	1777491	Thanks for keeping your eyes out there on our stuff!	Thanks for keeping your eyes out there on out stuff!	84447604	1474080666941	1474080667036	BKSP	8
163698	1777491	Thanks for keeping your eyes out there on our stuff!	Thanks for keeping your eyes out there on out stuff!	84447607	1474080667177	1474080667239	i	73
163698	1777491	Thanks for keeping your eyes out there on our stuff!	Thanks for keeping your eyes out there on out stuff!	84447611	1474080668162	1474080668300	BKSP	8
163698	1777491	Thanks for keeping your eyes out there on our stuff!	Thanks for keeping your eyes out there on out stuff!	84447615	1474080669445	1474080669562	o	79
163698	1777491	Thanks for keeping your eyes out there on our stuff!	Thanks for keeping your eyes out there on out stuff!	84447620	1474080671037	1474080671147	y	89
163698	1777491	Thanks for keeping your eyes out there on our stuff!	Thanks for keeping your eyes out there on out stuff!	84447624	1474080671764	1474080671915	BKSP	8
163698	1777491	Thanks for keeping your eyes out there on our stuff!	Thanks for keeping your eyes out there on out stuff!	84447627	1474080672715	1474080672813	u	85
163698	1777491	Thanks for keeping your eyes out there on our stuff!	Thanks for keeping your eyes out there on out stuff!	84447629	1474080673369	1474080673520	t	84
163698	1777491	Thanks for keeping your eyes out there on our stuff!	Thanks for keeping your eyes out there on out stuff!	84447649	1474080673484	1474080673648	 	32
163698	1777491	Thanks for keeping your eyes out there on our stuff!	Thanks for keeping your eyes out there on out stuff!	84447651	1474080673883	1474080674017	t	84
163698	1777491	Thanks for keeping your eyes out there on our stuff!	Thanks for keeping your eyes out there on out stuff!	84447655	1474080674032	1474080674032	CTRL	17
163698	1777491	Thanks for keeping your eyes out there on our stuff!	Thanks for keeping your eyes out there on out stuff!	84447658	1474080674126	1474080674126	CTRL	17
163698	1777491	Thanks for keeping your eyes out there on our stuff!	Thanks for keeping your eyes out there on out stuff!	84447669	1474080674126	1474080674269	h	72
163698	1777491	Thanks for keeping your eyes out there on our stuff!	Thanks for keeping your eyes out there on out stuff!	84447662	1474080674139	1474080674166	CTRL	17
163698	1777491	Thanks for keeping your eyes out there on our stuff!	Thanks for keeping your eyes out there on out stuff!	84447673	1474080674167	1474080674300	e	69
163698	1777491	Thanks for keeping your eyes out there on our stuff!	Thanks for keeping your eyes out there on out stuff!	84447666	1474080674169	1474080674269	CTRL	17
163698	1777491	Thanks for keeping your eyes out there on our stuff!	Thanks for keeping your eyes out there on out stuff!	84447672	1474080674269	1474080674300	CTRL	17
163698	1777491	Thanks for keeping your eyes out there on our stuff!	Thanks for keeping your eyes out there on out stuff!	84447674	1474080674300	1474080674550	CTRL	17
163698	1777491	Thanks for keeping your eyes out there on our stuff!	Thanks for keeping your eyes out there on out stuff!	84447675	1474080674723	1474080674915	r	82
163698	1777491	Thanks for keeping your eyes out there on our stuff!	Thanks for keeping your eyes out there on out stuff!	84447713	1474080674834	1474080675005	e	69
163698	1777491	Thanks for keeping your eyes out there on our stuff!	Thanks for keeping your eyes out there on out stuff!	84447715	1474080674988	1474080675149	 	32
163698	1777491	Thanks for keeping your eyes out there on our stuff!	Thanks for keeping your eyes out there on out stuff!	84447717	1474080675730	1474080675821	i	73
163698	1777491	Thanks for keeping your eyes out there on our stuff!	Thanks for keeping your eyes out there on out stuff!	84447718	1474080675899	1474080676099	b	66
163698	1777491	Thanks for keeping your eyes out there on our stuff!	Thanks for keeping your eyes out there on out stuff!	84447721	1474080676042	1474080676177	 	32
163698	1777491	Thanks for keeping your eyes out there on our stuff!	Thanks for keeping your eyes out there on out stuff!	84447722	1474080676442	1474080676567	i	73
163698	1777491	Thanks for keeping your eyes out there on our stuff!	Thanks for keeping your eyes out there on out stuff!	84447905	1474080676926	1474080677021	BKSP	8
163698	1777491	Thanks for keeping your eyes out there on our stuff!	Thanks for keeping your eyes out there on out stuff!	84447909	1474080677084	1474080677155	BKSP	8
163698	1777491	Thanks for keeping your eyes out there on our stuff!	Thanks for keeping your eyes out there on out stuff!	84447917	1474080677217	1474080677319	BKSP	8
163698	1777491	Thanks for keeping your eyes out there on our stuff!	Thanks for keeping your eyes out there on out stuff!	84447921	1474080677533	1474080677668	BKSP	8
163698	1777491	Thanks for keeping your eyes out there on our stuff!	Thanks for keeping your eyes out there on out stuff!	84447927	1474080678303	1474080678459	i	73
163698	1777491	Thanks for keeping your eyes out there on our stuff!	Thanks for keeping your eyes out there on out stuff!	84447931	1474080678552	1474080678786	b	66
163698	1777491	Thanks for keeping your eyes out there on our stuff!	Thanks for keeping your eyes out there on out stuff!	84447934	1474080678684	1474080678879	 	32
163698	1777491	Thanks for keeping your eyes out there on our stuff!	Thanks for keeping your eyes out there on out stuff!	84447937	1474080679208	1474080679404	i	73
163698	1777491	Thanks for keeping your eyes out there on our stuff!	Thanks for keeping your eyes out there on out stuff!	84447941	1474080680034	1474080680120	BKSP	8
163698	1777491	Thanks for keeping your eyes out there on our stuff!	Thanks for keeping your eyes out there on out stuff!	84447946	1474080680183	1474080680280	BKSP	8
163698	1777491	Thanks for keeping your eyes out there on our stuff!	Thanks for keeping your eyes out there on out stuff!	84447952	1474080680467	1474080680578	BKSP	8
163698	1777491	Thanks for keeping your eyes out there on our stuff!	Thanks for keeping your eyes out there on out stuff!	84447956	1474080681378	1474080681581	n	78
163698	1777491	Thanks for keeping your eyes out there on our stuff!	Thanks for keeping your eyes out there on out stuff!	84448055	1474080681526	1474080681686	 	32
163698	1777491	Thanks for keeping your eyes out there on our stuff!	Thanks for keeping your eyes out there on out stuff!	84448057	1474080681842	1474080681961	BKSP	8
163698	1777491	Thanks for keeping your eyes out there on our stuff!	Thanks for keeping your eyes out there on out stuff!	84448059	1474080682024	1474080682105	BKSP	8
163698	1777491	Thanks for keeping your eyes out there on our stuff!	Thanks for keeping your eyes out there on out stuff!	84448061	1474080682137	1474080682229	BKSP	8
163698	1777491	Thanks for keeping your eyes out there on our stuff!	Thanks for keeping your eyes out there on out stuff!	84448063	1474080682370	1474080682557	i	73
163698	1777491	Thanks for keeping your eyes out there on our stuff!	Thanks for keeping your eyes out there on out stuff!	84448064	1474080682646	1474080682784	n	78
163698	1777491	Thanks for keeping your eyes out there on our stuff!	Thanks for keeping your eyes out there on out stuff!	84448065	1474080682956	1474080683046	BKSP	8
163698	1777491	Thanks for keeping your eyes out there on our stuff!	Thanks for keeping your eyes out there on out stuff!	84448066	1474080683124	1474080683182	BKSP	8
163698	1777491	Thanks for keeping your eyes out there on our stuff!	Thanks for keeping your eyes out there on out stuff!	84448067	1474080683272	1474080683385	i	73
163698	1777491	Thanks for keeping your eyes out there on our stuff!	Thanks for keeping your eyes out there on out stuff!	84448068	1474080683760	1474080683869	BKSP	8
163698	1777491	Thanks for keeping your eyes out there on our stuff!	Thanks for keeping your eyes out there on out stuff!	84448069	1474080684103	1474080684214	o	79
163698	1777491	Thanks for keeping your eyes out there on our stuff!	Thanks for keeping your eyes out there on out stuff!	84448070	1474080684417	1474080684614	n	78
163698	1777491	Thanks for keeping your eyes out there on our stuff!	Thanks for keeping your eyes out there on out stuff!	84448117	1474080684550	1474080684711	 	32
163698	1777491	Thanks for keeping your eyes out there on our stuff!	Thanks for keeping your eyes out there on out stuff!	84448120	1474080685024	1474080685166	i	73
163698	1777491	Thanks for keeping your eyes out there on our stuff!	Thanks for keeping your eyes out there on out stuff!	84448123	1474080685182	1474080685347	r	82
163698	1777491	Thanks for keeping your eyes out there on our stuff!	Thanks for keeping your eyes out there on out stuff!	84448127	1474080685629	1474080685719	BKSP	8
163698	1777491	Thanks for keeping your eyes out there on our stuff!	Thanks for keeping your eyes out there on out stuff!	84448135	1474080685781	1474080685886	BKSP	8
163698	1777491	Thanks for keeping your eyes out there on our stuff!	Thanks for keeping your eyes out there on out stuff!	84448138	1474080685979	1474080686116	i	73
163698	1777491	Thanks for keeping your eyes out there on our stuff!	Thanks for keeping your eyes out there on out stuff!	84448143	1474080686363	1474080686453	BKSP	8
163698	1777491	Thanks for keeping your eyes out there on our stuff!	Thanks for keeping your eyes out there on out stuff!	84448145	1474080686750	1474080686953	o	79
163698	1777491	Thanks for keeping your eyes out there on our stuff!	Thanks for keeping your eyes out there on out stuff!	84448149	1474080687488	1474080687610	y	89
163698	1777491	Thanks for keeping your eyes out there on our stuff!	Thanks for keeping your eyes out there on out stuff!	84448266	1474080687982	1474080688070	BKSP	8
163698	1777491	Thanks for keeping your eyes out there on our stuff!	Thanks for keeping your eyes out there on out stuff!	84448269	1474080688211	1474080688344	y	89
163698	1777491	Thanks for keeping your eyes out there on our stuff!	Thanks for keeping your eyes out there on out stuff!	84448272	1474080688701	1474080688820	-	189
163698	1777491	Thanks for keeping your eyes out there on our stuff!	Thanks for keeping your eyes out there on out stuff!	84448273	1474080689163	1474080689264	BKSP	8
163698	1777491	Thanks for keeping your eyes out there on our stuff!	Thanks for keeping your eyes out there on out stuff!	84448274	1474080689310	1474080689450	BKSP	8
163698	1777491	Thanks for keeping your eyes out there on our stuff!	Thanks for keeping your eyes out there on out stuff!	84448276	1474080689893	1474080689996	u	85
163698	1777491	Thanks for keeping your eyes out there on our stuff!	Thanks for keeping your eyes out there on out stuff!	84448278	1474080690417	1474080690572	t	84
163698	1777491	Thanks for keeping your eyes out there on our stuff!	Thanks for keeping your eyes out there on out stuff!	84448352	1474080690512	1474080690613	 	32
163698	1777491	Thanks for keeping your eyes out there on our stuff!	Thanks for keeping your eyes out there on out stuff!	84448353	1474080690894	1474080691076	s	83
163698	1777491	Thanks for keeping your eyes out there on our stuff!	Thanks for keeping your eyes out there on out stuff!	84448354	1474080691049	1474080691215	t	84
163698	1777491	Thanks for keeping your eyes out there on our stuff!	Thanks for keeping your eyes out there on out stuff!	84448355	1474080691450	1474080691614	f	70
163698	1777491	Thanks for keeping your eyes out there on our stuff!	Thanks for keeping your eyes out there on out stuff!	84448356	1474080692053	1474080692152	BKSP	8
163698	1777491	Thanks for keeping your eyes out there on our stuff!	Thanks for keeping your eyes out there on out stuff!	84448358	1474080692789	1474080692863	u	85
163698	1777491	Thanks for keeping your eyes out there on our stuff!	Thanks for keeping your eyes out there on out stuff!	84448360	1474080692910	1474080693034	g	71
163698	1777491	Thanks for keeping your eyes out there on our stuff!	Thanks for keeping your eyes out there on out stuff!	84448468	1474080693096	1474080693220	g	71
163698	1777491	Thanks for keeping your eyes out there on our stuff!	Thanks for keeping your eyes out there on out stuff!	84448471	1474080693517	1474080693611	BKSP	8
163698	1777491	Thanks for keeping your eyes out there on our stuff!	Thanks for keeping your eyes out there on out stuff!	84448477	1474080693690	1474080693747	BKSP	8
163698	1777491	Thanks for keeping your eyes out there on our stuff!	Thanks for keeping your eyes out there on out stuff!	84448483	1474080693809	1474080693884	BKSP	8
163698	1777491	Thanks for keeping your eyes out there on our stuff!	Thanks for keeping your eyes out there on out stuff!	84448488	1474080693843	1474080693975	f	70
163698	1777491	Thanks for keeping your eyes out there on our stuff!	Thanks for keeping your eyes out there on out stuff!	84448495	1474080694037	1474080694160	f	70
163698	1777491	Thanks for keeping your eyes out there on our stuff!	Thanks for keeping your eyes out there on out stuff!	84448500	1474080694662	1474080694752	BKSP	8
163698	1777491	Thanks for keeping your eyes out there on our stuff!	Thanks for keeping your eyes out there on out stuff!	84448506	1474080694877	1474080694963	BKSP	8
163698	1777491	Thanks for keeping your eyes out there on our stuff!	Thanks for keeping your eyes out there on out stuff!	84448512	1474080695463	1474080695661	u	85
163698	1777491	Thanks for keeping your eyes out there on our stuff!	Thanks for keeping your eyes out there on out stuff!	84448518	1474080696086	1474080696217	f	70
163698	1777491	Thanks for keeping your eyes out there on our stuff!	Thanks for keeping your eyes out there on out stuff!	84448755	1474080696280	1474080696426	f	70
163698	1777491	Thanks for keeping your eyes out there on our stuff!	Thanks for keeping your eyes out there on out stuff!	84448781	1474080696887	1474080702840	SHIFT	16
163698	1777491	Thanks for keeping your eyes out there on our stuff!	Thanks for keeping your eyes out there on out stuff!	84448760	1474080697468	1474080697538	?	191
163698	1777491	Thanks for keeping your eyes out there on our stuff!	Thanks for keeping your eyes out there on out stuff!	84448763	1474080697866	1474080697960	DELETE	46
163698	1777491	Thanks for keeping your eyes out there on our stuff!	Thanks for keeping your eyes out there on out stuff!	84448768	1474080698591	1474080698717	BKSP	8
163698	1777491	Thanks for keeping your eyes out there on our stuff!	Thanks for keeping your eyes out there on out stuff!	84448775	1474080702557	1474080702699	!	49
163698	1777542	The law enforcement has responsibility for the safety of the public.	The law enforcement has responsibility for the safety of yhe	84449012	1474080707432	1474080707869	SHIFT	16
163698	1777542	The law enforcement has responsibility for the safety of the public.	The law enforcement has responsibility for the safety of yhe	84449010	1474080707760	1474080707869	T	84
163698	1777542	The law enforcement has responsibility for the safety of the public.	The law enforcement has responsibility for the safety of yhe	84449014	1474080708010	1474080708266	h	72
163698	1777542	The law enforcement has responsibility for the safety of the public.	The law enforcement has responsibility for the safety of yhe	84449015	1474080708118	1474080708296	e	69
163698	1777542	The law enforcement has responsibility for the safety of the public.	The law enforcement has responsibility for the safety of yhe	84449016	1474080708235	1474080708375	 	32
163698	1777542	The law enforcement has responsibility for the safety of the public.	The law enforcement has responsibility for the safety of yhe	84449017	1474080708609	1474080708861	SHIFT	16
163698	1777542	The law enforcement has responsibility for the safety of the public.	The law enforcement has responsibility for the safety of yhe	84449018	1474080709033	1474080709177	l	76
163698	1777542	The law enforcement has responsibility for the safety of the public.	The law enforcement has responsibility for the safety of yhe	84449063	1474080709159	1474080709368	a	65
163698	1777542	The law enforcement has responsibility for the safety of the public.	The law enforcement has responsibility for the safety of yhe	84449067	1474080709306	1474080709500	w	87
163698	1777542	The law enforcement has responsibility for the safety of the public.	The law enforcement has responsibility for the safety of yhe	84449070	1474080709465	1474080709599	 	32
163698	1777542	The law enforcement has responsibility for the safety of the public.	The law enforcement has responsibility for the safety of yhe	84449073	1474080709990	1474080710141	e	69
163698	1777542	The law enforcement has responsibility for the safety of the public.	The law enforcement has responsibility for the safety of yhe	84449075	1474080710141	1474080710329	n	78
163698	1777542	The law enforcement has responsibility for the safety of the public.	The law enforcement has responsibility for the safety of yhe	84449076	1474080710391	1474080710501	d	68
163698	1777542	The law enforcement has responsibility for the safety of the public.	The law enforcement has responsibility for the safety of yhe	84449176	1474080710844	1474080710992	BKSP	8
163698	1777542	The law enforcement has responsibility for the safety of the public.	The law enforcement has responsibility for the safety of yhe	84449178	1474080710951	1474080711087	f	70
163698	1777542	The law enforcement has responsibility for the safety of the public.	The law enforcement has responsibility for the safety of yhe	84449181	1474080711060	1474080711224	o	79
163698	1777542	The law enforcement has responsibility for the safety of the public.	The law enforcement has responsibility for the safety of yhe	84449183	1474080711505	1474080711655	t	84
163698	1777542	The law enforcement has responsibility for the safety of the public.	The law enforcement has responsibility for the safety of yhe	84449185	1474080712269	1474080712383	BKSP	8
163698	1777542	The law enforcement has responsibility for the safety of the public.	The law enforcement has responsibility for the safety of yhe	84449187	1474080712398	1474080712542	t	84
163698	1777542	The law enforcement has responsibility for the safety of the public.	The law enforcement has responsibility for the safety of yhe	84449188	1474080712969	1474080713083	BKSP	8
163698	1777542	The law enforcement has responsibility for the safety of the public.	The law enforcement has responsibility for the safety of yhe	84449189	1474080713114	1474080713259	t	84
163698	1777542	The law enforcement has responsibility for the safety of the public.	The law enforcement has responsibility for the safety of yhe	84449258	1474080713535	1474080713643	BKSP	8
163698	1777542	The law enforcement has responsibility for the safety of the public.	The law enforcement has responsibility for the safety of yhe	84449260	1474080713659	1474080713845	r	82
163698	1777542	The law enforcement has responsibility for the safety of the public.	The law enforcement has responsibility for the safety of yhe	84449262	1474080714457	1474080714592	c	67
163698	1777542	The law enforcement has responsibility for the safety of the public.	The law enforcement has responsibility for the safety of yhe	84449265	1474080714607	1474080714665	e	69
163698	1777542	The law enforcement has responsibility for the safety of the public.	The law enforcement has responsibility for the safety of yhe	84449269	1474080715595	1474080715732	m	77
163698	1777542	The law enforcement has responsibility for the safety of the public.	The law enforcement has responsibility for the safety of yhe	84449273	1474080715873	1474080716008	n	78
163698	1777542	The law enforcement has responsibility for the safety of the public.	The law enforcement has responsibility for the safety of yhe	84449361	1474080715983	1474080716083	e	69
163698	1777542	The law enforcement has responsibility for the safety of the public.	The law enforcement has responsibility for the safety of yhe	84449363	1474080716566	1474080716652	BKSP	8
163698	1777542	The law enforcement has responsibility for the safety of the public.	The law enforcement has responsibility for the safety of yhe	84449365	1474080716699	1474080716802	BKSP	8
163698	1777542	The law enforcement has responsibility for the safety of the public.	The law enforcement has responsibility for the safety of yhe	84449369	1474080716896	1474080717064	e	69
163698	1777542	The law enforcement has responsibility for the safety of the public.	The law enforcement has responsibility for the safety of yhe	84449372	1474080716994	1474080717157	n	78
163698	1777542	The law enforcement has responsibility for the safety of the public.	The law enforcement has responsibility for the safety of yhe	84449375	1474080717220	1474080717411	t	84
163698	1777542	The law enforcement has responsibility for the safety of the public.	The law enforcement has responsibility for the safety of yhe	84449378	1474080717427	1474080717526	 	32
163698	1777542	The law enforcement has responsibility for the safety of the public.	The law enforcement has responsibility for the safety of yhe	84449381	1474080718270	1474080718431	h	72
163698	1777542	The law enforcement has responsibility for the safety of the public.	The law enforcement has responsibility for the safety of yhe	84449406	1474080718407	1474080718592	a	65
163698	1777542	The law enforcement has responsibility for the safety of the public.	The law enforcement has responsibility for the safety of yhe	84449407	1474080718542	1474080718730	s	83
163698	1777542	The law enforcement has responsibility for the safety of the public.	The law enforcement has responsibility for the safety of yhe	84449408	1474080718713	1474080718848	 	32
163698	1777542	The law enforcement has responsibility for the safety of the public.	The law enforcement has responsibility for the safety of yhe	84449409	1474080719210	1474080719412	r	82
163698	1777542	The law enforcement has responsibility for the safety of the public.	The law enforcement has responsibility for the safety of yhe	84449410	1474080719333	1474080719506	e	69
163698	1777542	The law enforcement has responsibility for the safety of the public.	The law enforcement has responsibility for the safety of yhe	84449411	1474080719615	1474080719794	s	83
163698	1777542	The law enforcement has responsibility for the safety of the public.	The law enforcement has responsibility for the safety of yhe	84449490	1474080719913	1474080720064	o	79
163698	1777542	The law enforcement has responsibility for the safety of the public.	The law enforcement has responsibility for the safety of yhe	84449491	1474080720205	1474080720379	i	73
163698	1777542	The law enforcement has responsibility for the safety of the public.	The law enforcement has responsibility for the safety of yhe	84449492	1474080720613	1474080720742	BKSP	8
163698	1777542	The law enforcement has responsibility for the safety of the public.	The law enforcement has responsibility for the safety of yhe	84449493	1474080720789	1474080720901	BKSP	8
163698	1777542	The law enforcement has responsibility for the safety of the public.	The law enforcement has responsibility for the safety of yhe	84449494	1474080721307	1474080721553	p	80
163698	1777542	The law enforcement has responsibility for the safety of the public.	The law enforcement has responsibility for the safety of yhe	84449495	1474080721495	1474080721725	o	79
163698	1777542	The law enforcement has responsibility for the safety of the public.	The law enforcement has responsibility for the safety of yhe	84449496	1474080722446	1474080722609	n	78
163698	1777542	The law enforcement has responsibility for the safety of the public.	The law enforcement has responsibility for the safety of yhe	84449546	1474080722598	1474080722769	s	83
163698	1777542	The law enforcement has responsibility for the safety of the public.	The law enforcement has responsibility for the safety of yhe	84449548	1474080722701	1474080722847	i	73
163698	1777542	The law enforcement has responsibility for the safety of the public.	The law enforcement has responsibility for the safety of yhe	84449550	1474080723003	1474080723116	b	66
163698	1777542	The law enforcement has responsibility for the safety of the public.	The law enforcement has responsibility for the safety of yhe	84449554	1474080723257	1474080723397	i	73
163698	1777542	The law enforcement has responsibility for the safety of the public.	The law enforcement has responsibility for the safety of yhe	84449557	1474080723538	1474080723594	k	75
163698	1777542	The law enforcement has responsibility for the safety of the public.	The law enforcement has responsibility for the safety of yhe	84449560	1474080724126	1474080724226	BKSP	8
163698	1777542	The law enforcement has responsibility for the safety of the public.	The law enforcement has responsibility for the safety of yhe	84449562	1474080724520	1474080724705	l	76
163698	1777542	The law enforcement has responsibility for the safety of the public.	The law enforcement has responsibility for the safety of yhe	84449625	1474080725197	1474080725362	i	73
163698	1777542	The law enforcement has responsibility for the safety of the public.	The law enforcement has responsibility for the safety of yhe	84449630	1474080725581	1474080725770	t	84
163698	1777542	The law enforcement has responsibility for the safety of the public.	The law enforcement has responsibility for the safety of yhe	84449635	1474080725710	1474080725967	u	85
163698	1777542	The law enforcement has responsibility for the safety of the public.	The law enforcement has responsibility for the safety of yhe	84449641	1474080725848	1474080726045	 	32
163698	1777542	The law enforcement has responsibility for the safety of the public.	The law enforcement has responsibility for the safety of yhe	84449645	1474080726297	1474080726384	BKSP	8
163698	1777542	The law enforcement has responsibility for the safety of the public.	The law enforcement has responsibility for the safety of yhe	84449647	1474080726446	1474080726550	BKSP	8
163698	1777542	The law enforcement has responsibility for the safety of the public.	The law enforcement has responsibility for the safety of yhe	84449649	1474080726690	1474080726940	y	89
163698	1777542	The law enforcement has responsibility for the safety of the public.	The law enforcement has responsibility for the safety of yhe	84449664	1474080726800	1474080727015	 	32
163698	1777542	The law enforcement has responsibility for the safety of the public.	The law enforcement has responsibility for the safety of yhe	84449667	1474080727591	1474080727736	f	70
163698	1777542	The law enforcement has responsibility for the safety of the public.	The law enforcement has responsibility for the safety of yhe	84449668	1474080727662	1474080727829	i	73
163698	1777542	The law enforcement has responsibility for the safety of the public.	The law enforcement has responsibility for the safety of yhe	84449669	1474080727861	1474080728031	r	32
163698	1777542	The law enforcement has responsibility for the safety of the public.	The law enforcement has responsibility for the safety of yhe	84449670	1474080728109	1474080728185	t	84
163698	1777542	The law enforcement has responsibility for the safety of the public.	The law enforcement has responsibility for the safety of yhe	84449738	1474080728400	1474080728500	BKSP	8
163698	1777542	The law enforcement has responsibility for the safety of the public.	The law enforcement has responsibility for the safety of yhe	84449741	1474080728547	1474080728651	BKSP	8
163698	1777542	The law enforcement has responsibility for the safety of the public.	The law enforcement has responsibility for the safety of yhe	84449744	1474080728683	1474080728778	BKSP	8
163698	1777542	The law enforcement has responsibility for the safety of the public.	The law enforcement has responsibility for the safety of yhe	84449746	1474080728809	1474080728909	BKSP	8
163698	1777542	The law enforcement has responsibility for the safety of the public.	The law enforcement has responsibility for the safety of yhe	84449748	1474080729034	1474080729191	i	73
163698	1777542	The law enforcement has responsibility for the safety of the public.	The law enforcement has responsibility for the safety of yhe	84449750	1474080729167	1474080729290	r	82
163698	1777542	The law enforcement has responsibility for the safety of the public.	The law enforcement has responsibility for the safety of yhe	84449751	1474080729242	1474080729366	 	32
163698	1777542	The law enforcement has responsibility for the safety of the public.	The law enforcement has responsibility for the safety of yhe	84449753	1474080729507	1474080729594	BKSP	8
163698	1777542	The law enforcement has responsibility for the safety of the public.	The law enforcement has responsibility for the safety of yhe	84449754	1474080729657	1474080729745	BKSP	8
163698	1777542	The law enforcement has responsibility for the safety of the public.	The law enforcement has responsibility for the safety of yhe	84449756	1474080729776	1474080729915	BKSP	8
163698	1777542	The law enforcement has responsibility for the safety of the public.	The law enforcement has responsibility for the safety of yhe	84449757	1474080730009	1474080730102	i	73
163698	1777542	The law enforcement has responsibility for the safety of the public.	The law enforcement has responsibility for the safety of yhe	84449759	1474080730447	1474080730560	BKSP	8
163698	1777542	The law enforcement has responsibility for the safety of the public.	The law enforcement has responsibility for the safety of yhe	84449762	1474080730654	1474080730749	o	79
163698	1777542	The law enforcement has responsibility for the safety of the public.	The law enforcement has responsibility for the safety of yhe	84449851	1474080731293	1474080731431	t	84
163698	1777542	The law enforcement has responsibility for the safety of the public.	The law enforcement has responsibility for the safety of yhe	84449852	1474080731378	1474080731531	 	32
163698	1777542	The law enforcement has responsibility for the safety of the public.	The law enforcement has responsibility for the safety of yhe	84449854	1474080731687	1474080731794	t	84
163698	1777542	The law enforcement has responsibility for the safety of the public.	The law enforcement has responsibility for the safety of yhe	84449857	1474080732286	1474080732340	BKSP	8
163698	1777542	The law enforcement has responsibility for the safety of the public.	The law enforcement has responsibility for the safety of yhe	84449860	1474080732378	1474080732478	BKSP	8
163698	1777542	The law enforcement has responsibility for the safety of the public.	The law enforcement has responsibility for the safety of yhe	84449865	1474080732509	1474080732633	BKSP	8
163698	1777542	The law enforcement has responsibility for the safety of the public.	The law enforcement has responsibility for the safety of yhe	84449867	1474080732680	1474080732846	r	82
163698	1777542	The law enforcement has responsibility for the safety of the public.	The law enforcement has responsibility for the safety of yhe	84449870	1474080733347	1474080733490	 	32
163698	1777542	The law enforcement has responsibility for the safety of the public.	The law enforcement has responsibility for the safety of yhe	84449873	1474080733610	1474080733685	r	82
163698	1777542	The law enforcement has responsibility for the safety of the public.	The law enforcement has responsibility for the safety of yhe	84449874	1474080733779	1474080733851	y	89
163698	1777542	The law enforcement has responsibility for the safety of the public.	The law enforcement has responsibility for the safety of yhe	84449875	1474080733882	1474080733978	y	89
163698	1777542	The law enforcement has responsibility for the safety of the public.	The law enforcement has responsibility for the safety of yhe	84449933	1474080733906	1474080734036	 	69
163698	1777542	The law enforcement has responsibility for the safety of the public.	The law enforcement has responsibility for the safety of yhe	84449939	1474080734244	1474080734345	BKSP	8
163698	1777542	The law enforcement has responsibility for the safety of the public.	The law enforcement has responsibility for the safety of yhe	84449944	1474080734392	1474080734503	BKSP	8
163698	1777542	The law enforcement has responsibility for the safety of the public.	The law enforcement has responsibility for the safety of yhe	84449949	1474080734534	1474080734642	BKSP	8
163698	1777542	The law enforcement has responsibility for the safety of the public.	The law enforcement has responsibility for the safety of yhe	84449951	1474080734673	1474080734767	BKSP	8
163698	1777542	The law enforcement has responsibility for the safety of the public.	The law enforcement has responsibility for the safety of yhe	84449952	1474080734884	1474080735062	t	84
163698	1777542	The law enforcement has responsibility for the safety of the public.	The law enforcement has responsibility for the safety of yhe	84449953	1474080735217	1474080735301	BKSP	8
163698	1777542	The law enforcement has responsibility for the safety of the public.	The law enforcement has responsibility for the safety of yhe	84449955	1474080735348	1474080735460	BKSP	8
163698	1777542	The law enforcement has responsibility for the safety of the public.	The law enforcement has responsibility for the safety of yhe	84449957	1474080735460	1474080735605	t	84
163698	1777542	The law enforcement has responsibility for the safety of the public.	The law enforcement has responsibility for the safety of yhe	84449960	1474080735561	1474080735729	h	72
163698	1777542	The law enforcement has responsibility for the safety of the public.	The law enforcement has responsibility for the safety of yhe	84449964	1474080735729	1474080735892	e	69
163698	1777542	The law enforcement has responsibility for the safety of the public.	The law enforcement has responsibility for the safety of yhe	84450008	1474080735882	1474080735998	 	32
163698	1777542	The law enforcement has responsibility for the safety of the public.	The law enforcement has responsibility for the safety of yhe	84450009	1474080736485	1474080736654	d	68
163698	1777542	The law enforcement has responsibility for the safety of the public.	The law enforcement has responsibility for the safety of yhe	84450011	1474080736614	1474080736776	a	65
163698	1777542	The law enforcement has responsibility for the safety of the public.	The law enforcement has responsibility for the safety of yhe	84450014	1474080736901	1474080737000	BKSP	8
163698	1777542	The law enforcement has responsibility for the safety of the public.	The law enforcement has responsibility for the safety of yhe	84450019	1474080737047	1474080737150	BKSP	8
163698	1777542	The law enforcement has responsibility for the safety of the public.	The law enforcement has responsibility for the safety of yhe	84450023	1474080737114	1474080737285	s	83
163698	1777542	The law enforcement has responsibility for the safety of the public.	The law enforcement has responsibility for the safety of yhe	84450026	1474080737216	1474080737379	a	65
163698	1777542	The law enforcement has responsibility for the safety of the public.	The law enforcement has responsibility for the safety of yhe	84450031	1474080737718	1474080737832	f	70
163698	1777542	The law enforcement has responsibility for the safety of the public.	The law enforcement has responsibility for the safety of yhe	84450135	1474080738069	1474080738214	e	69
163698	1777542	The law enforcement has responsibility for the safety of the public.	The law enforcement has responsibility for the safety of yhe	84450136	1474080738386	1474080738467	BKSP	8
163698	1777542	The law enforcement has responsibility for the safety of the public.	The law enforcement has responsibility for the safety of yhe	84450138	1474080738978	1474080739129	e	69
163698	1777542	The law enforcement has responsibility for the safety of the public.	The law enforcement has responsibility for the safety of yhe	84450140	1474080739060	1474080739239	t	84
163698	1777542	The law enforcement has responsibility for the safety of the public.	The law enforcement has responsibility for the safety of yhe	84450142	1474080739301	1474080739558	y	89
163698	1777542	The law enforcement has responsibility for the safety of the public.	The law enforcement has responsibility for the safety of yhe	84450144	1474080739981	1474080740092	 	32
163698	1777542	The law enforcement has responsibility for the safety of the public.	The law enforcement has responsibility for the safety of yhe	84450201	1474080740338	1474080740434	f	70
163698	1777542	The law enforcement has responsibility for the safety of the public.	The law enforcement has responsibility for the safety of yhe	84450202	1474080740998	1474080741115	BKSP	8
163698	1777542	The law enforcement has responsibility for the safety of the public.	The law enforcement has responsibility for the safety of yhe	84450204	1474080741209	1474080741435	i	73
163698	1777542	The law enforcement has responsibility for the safety of the public.	The law enforcement has responsibility for the safety of yhe	84450208	1474080741379	1474080741556	 	32
163698	1777542	The law enforcement has responsibility for the safety of the public.	The law enforcement has responsibility for the safety of yhe	84450210	1474080741401	1474080741556	f	70
163698	1777542	The law enforcement has responsibility for the safety of the public.	The law enforcement has responsibility for the safety of yhe	84450213	1474080741821	1474080741928	BKSP	8
163698	1777542	The law enforcement has responsibility for the safety of the public.	The law enforcement has responsibility for the safety of yhe	84450217	1474080741965	1474080742049	BKSP	8
163698	1777542	The law enforcement has responsibility for the safety of the public.	The law enforcement has responsibility for the safety of yhe	84450221	1474080742081	1474080742183	BKSP	8
163698	1777542	The law enforcement has responsibility for the safety of the public.	The law enforcement has responsibility for the safety of yhe	84450225	1474080742261	1474080742344	9	57
163698	1777542	The law enforcement has responsibility for the safety of the public.	The law enforcement has responsibility for the safety of yhe	84450270	1474080742406	1474080742588	o	70
163698	1777542	The law enforcement has responsibility for the safety of the public.	The law enforcement has responsibility for the safety of yhe	84450271	1474080742564	1474080742646	 	32
163698	1777542	The law enforcement has responsibility for the safety of the public.	The law enforcement has responsibility for the safety of yhe	84450272	1474080742756	1474080742874	BKSP	8
163698	1777542	The law enforcement has responsibility for the safety of the public.	The law enforcement has responsibility for the safety of yhe	84450274	1474080742955	1474080743017	BKSP	8
163698	1777542	The law enforcement has responsibility for the safety of the public.	The law enforcement has responsibility for the safety of yhe	84450277	1474080743066	1474080743167	BKSP	8
163698	1777542	The law enforcement has responsibility for the safety of the public.	The law enforcement has responsibility for the safety of yhe	84450279	1474080743198	1474080743285	BKSP	8
163698	1777542	The law enforcement has responsibility for the safety of the public.	The law enforcement has responsibility for the safety of yhe	84450281	1474080743425	1474080743512	i	73
163698	1777542	The law enforcement has responsibility for the safety of the public.	The law enforcement has responsibility for the safety of yhe	84450283	1474080743613	1474080743791	f	70
163698	1777542	The law enforcement has responsibility for the safety of the public.	The law enforcement has responsibility for the safety of yhe	84450414	1474080743748	1474080743860	 	32
163698	1777542	The law enforcement has responsibility for the safety of the public.	The law enforcement has responsibility for the safety of yhe	84450418	1474080743971	1474080744083	BKSP	8
163698	1777542	The law enforcement has responsibility for the safety of the public.	The law enforcement has responsibility for the safety of yhe	84450422	1474080744146	1474080744265	BKSP	8
163698	1777542	The law enforcement has responsibility for the safety of the public.	The law enforcement has responsibility for the safety of yhe	84450425	1474080744736	1474080744858	-	189
163698	1777542	The law enforcement has responsibility for the safety of the public.	The law enforcement has responsibility for the safety of yhe	84450428	1474080744983	1474080745124	BKSP	8
163698	1777542	The law enforcement has responsibility for the safety of the public.	The law enforcement has responsibility for the safety of yhe	84450430	1474080745139	1474080745242	BKSP	8
163698	1777542	The law enforcement has responsibility for the safety of the public.	The law enforcement has responsibility for the safety of yhe	84450432	1474080745668	1474080745759	0	48
163698	1777542	The law enforcement has responsibility for the safety of the public.	The law enforcement has responsibility for the safety of yhe	84450434	1474080746606	1474080746756	BKSP	8
163698	1777542	The law enforcement has responsibility for the safety of the public.	The law enforcement has responsibility for the safety of yhe	84450438	1474080746834	1474080746926	i	73
163698	1777542	The law enforcement has responsibility for the safety of the public.	The law enforcement has responsibility for the safety of yhe	84450443	1474080747223	1474080747348	BKSP	8
163698	1777542	The law enforcement has responsibility for the safety of the public.	The law enforcement has responsibility for the safety of yhe	84450448	1474080748115	1474080748178	o	79
163698	1777542	The law enforcement has responsibility for the safety of the public.	The law enforcement has responsibility for the safety of yhe	84450456	1474080748789	1474080748945	f	70
163698	1777542	The law enforcement has responsibility for the safety of the public.	The law enforcement has responsibility for the safety of yhe	84450466	1474080748892	1474080749038	 	32
163698	1777542	The law enforcement has responsibility for the safety of the public.	The law enforcement has responsibility for the safety of yhe	84450469	1474080749131	1474080749201	y	89
163698	1777542	The law enforcement has responsibility for the safety of the public.	The law enforcement has responsibility for the safety of yhe	84450470	1474080749279	1474080749469	h	72
163698	1777542	The law enforcement has responsibility for the safety of the public.	The law enforcement has responsibility for the safety of yhe	84450471	1474080749382	1474080749495	e	69
163698	1777542	The law enforcement has responsibility for the safety of the public.	The law enforcement has responsibility for the safety of yhe	84450472	1474080749410	1474080749542	 	32
163698	1777571	Your friend's defense, however, has other plans.	Your friend's defense, however, has other plans.	84450671	1474080749651	1474080753945	BKSP	8
163698	1777571	Your friend's defense, however, has other plans.	Your friend's defense, however, has other plans.	84450667	1474080752776	1474080753295	SHIFT	16
163698	1777571	Your friend's defense, however, has other plans.	Your friend's defense, however, has other plans.	84450664	1474080753116	1474080753185	Y	89
163698	1777571	Your friend's defense, however, has other plans.	Your friend's defense, however, has other plans.	84450659	1474080753138	1474080753185	T	84
163698	1777571	Your friend's defense, however, has other plans.	Your friend's defense, however, has other plans.	84450676	1474080754773	1474080754876	o	79
163698	1777571	Your friend's defense, however, has other plans.	Your friend's defense, however, has other plans.	84450678	1474080755111	1474080755259	u	85
163698	1777571	Your friend's defense, however, has other plans.	Your friend's defense, however, has other plans.	84450726	1474080755231	1474080755402	r	82
163698	1777571	Your friend's defense, however, has other plans.	Your friend's defense, however, has other plans.	84450729	1474080755326	1474080755465	 	32
163698	1777571	Your friend's defense, however, has other plans.	Your friend's defense, however, has other plans.	84450731	1474080755796	1474080756035	f	70
163698	1777571	Your friend's defense, however, has other plans.	Your friend's defense, however, has other plans.	84450734	1474080755976	1474080756145	e	69
163698	1777571	Your friend's defense, however, has other plans.	Your friend's defense, however, has other plans.	84450735	1474080756410	1474080756509	BKSP	8
163698	1777571	Your friend's defense, however, has other plans.	Your friend's defense, however, has other plans.	84450736	1474080756650	1474080756765	u	85
163698	1777571	Your friend's defense, however, has other plans.	Your friend's defense, however, has other plans.	84450737	1474080756780	1474080756954	r	82
163698	1777571	Your friend's defense, however, has other plans.	Your friend's defense, however, has other plans.	84450770	1474080757043	1474080757133	BKSP	8
163698	1777571	Your friend's defense, however, has other plans.	Your friend's defense, however, has other plans.	84450776	1474080757180	1474080757276	BKSP	8
163698	1777571	Your friend's defense, however, has other plans.	Your friend's defense, however, has other plans.	84450781	1474080757246	1474080757405	r	82
163698	1777571	Your friend's defense, however, has other plans.	Your friend's defense, however, has other plans.	84450788	1474080757364	1474080757514	i	73
163698	1777571	Your friend's defense, however, has other plans.	Your friend's defense, however, has other plans.	84450795	1474080757514	1474080757676	e	69
163698	1777571	Your friend's defense, however, has other plans.	Your friend's defense, however, has other plans.	84450800	1474080758067	1474080758218	n	78
163698	1777571	Your friend's defense, however, has other plans.	Your friend's defense, however, has other plans.	84450876	1474080758151	1474080758353	d	68
163698	1777571	Your friend's defense, however, has other plans.	Your friend's defense, however, has other plans.	84450879	1474080758924	1474080759043	;	186
163698	1777571	Your friend's defense, however, has other plans.	Your friend's defense, however, has other plans.	84450883	1474080759001	1474080759163	s	83
163698	1777571	Your friend's defense, however, has other plans.	Your friend's defense, however, has other plans.	84450887	1474080759413	1474080759510	BKSP	8
163698	1777571	Your friend's defense, however, has other plans.	Your friend's defense, however, has other plans.	84450888	1474080759557	1474080759651	BKSP	8
163698	1777571	Your friend's defense, however, has other plans.	Your friend's defense, however, has other plans.	84450891	1474080759760	1474080759850	]	221
163698	1777571	Your friend's defense, however, has other plans.	Your friend's defense, however, has other plans.	84450894	1474080760445	1474080760564	BKSP	8
163698	1777571	Your friend's defense, however, has other plans.	Your friend's defense, however, has other plans.	84450896	1474080760998	1474080761051	'	222
163698	1777571	Your friend's defense, however, has other plans.	Your friend's defense, however, has other plans.	84450898	1474080761098	1474080761230	s	83
163698	1777571	Your friend's defense, however, has other plans.	Your friend's defense, however, has other plans.	84450939	1474080761303	1474080761415	 	32
163698	1777571	Your friend's defense, however, has other plans.	Your friend's defense, however, has other plans.	84450940	1474080762115	1474080762316	d	68
163698	1777571	Your friend's defense, however, has other plans.	Your friend's defense, however, has other plans.	84450941	1474080762226	1474080762410	e	69
163698	1777571	Your friend's defense, however, has other plans.	Your friend's defense, however, has other plans.	84450942	1474080762598	1474080762816	f	70
163698	1777571	Your friend's defense, however, has other plans.	Your friend's defense, however, has other plans.	84450992	1474080762714	1474080762905	e	69
163698	1777571	Your friend's defense, however, has other plans.	Your friend's defense, however, has other plans.	84450993	1474080763168	1474080763312	n	78
163698	1777571	Your friend's defense, however, has other plans.	Your friend's defense, however, has other plans.	84450994	1474080763251	1474080763428	s	83
163698	1777571	Your friend's defense, however, has other plans.	Your friend's defense, however, has other plans.	84450996	1474080763615	1474080763808	e	69
163698	1777571	Your friend's defense, however, has other plans.	Your friend's defense, however, has other plans.	84450998	1474080763787	1474080763891	 	32
163698	1777571	Your friend's defense, however, has other plans.	Your friend's defense, however, has other plans.	84451000	1474080764125	1474080764232	BKSP	8
163698	1777571	Your friend's defense, however, has other plans.	Your friend's defense, however, has other plans.	84451002	1474080764388	1474080764507	,	188
163698	1777571	Your friend's defense, however, has other plans.	Your friend's defense, however, has other plans.	84451084	1474080765214	1474080765331	 	32
163698	1777571	Your friend's defense, however, has other plans.	Your friend's defense, however, has other plans.	84451088	1474080765424	1474080765563	h	72
163698	1777571	Your friend's defense, however, has other plans.	Your friend's defense, however, has other plans.	84451089	1474080766190	1474080766314	o	79
163698	1777571	Your friend's defense, however, has other plans.	Your friend's defense, however, has other plans.	84451091	1474080766345	1474080766518	w	87
163698	1777571	Your friend's defense, however, has other plans.	Your friend's defense, however, has other plans.	84451209	1474080766474	1474080766628	e	69
163698	1777571	Your friend's defense, however, has other plans.	Your friend's defense, however, has other plans.	84451211	1474080767065	1474080767182	r	82
163698	1777571	Your friend's defense, however, has other plans.	Your friend's defense, however, has other plans.	84451213	1474080767917	1474080768031	BKSP	8
163698	1777571	Your friend's defense, however, has other plans.	Your friend's defense, however, has other plans.	84451216	1474080768459	1474080768580	e	69
163698	1777571	Your friend's defense, however, has other plans.	Your friend's defense, however, has other plans.	84451219	1474080768877	1474080768992	v	86
163698	1777571	Your friend's defense, however, has other plans.	Your friend's defense, however, has other plans.	84451222	1474080769210	1474080769299	BKSP	8
163698	1777571	Your friend's defense, however, has other plans.	Your friend's defense, however, has other plans.	84451225	1474080769362	1474080769449	BKSP	8
163698	1777571	Your friend's defense, however, has other plans.	Your friend's defense, however, has other plans.	84451229	1474080769668	1474080769780	v	86
163698	1777571	Your friend's defense, however, has other plans.	Your friend's defense, however, has other plans.	84451235	1474080769812	1474080769945	e	69
163698	1777571	Your friend's defense, however, has other plans.	Your friend's defense, however, has other plans.	84451310	1474080770020	1474080770173	r	82
163698	1777571	Your friend's defense, however, has other plans.	Your friend's defense, however, has other plans.	84451311	1474080770140	1474080770266	 	32
163698	1777571	Your friend's defense, however, has other plans.	Your friend's defense, however, has other plans.	84451312	1474080770610	1474080770699	BKSP	8
163698	1777571	Your friend's defense, however, has other plans.	Your friend's defense, however, has other plans.	84451313	1474080771483	1474080771599	,	188
163698	1777571	Your friend's defense, however, has other plans.	Your friend's defense, however, has other plans.	84451314	1474080771645	1474080771780	 	32
163698	1777571	Your friend's defense, however, has other plans.	Your friend's defense, however, has other plans.	84451316	1474080772014	1474080772155	h	72
163698	1777571	Your friend's defense, however, has other plans.	Your friend's defense, however, has other plans.	84451383	1474080772140	1474080772335	a	65
163698	1777571	Your friend's defense, however, has other plans.	Your friend's defense, however, has other plans.	84451385	1474080772264	1474080772471	s	83
163698	1777571	Your friend's defense, however, has other plans.	Your friend's defense, however, has other plans.	84451387	1474080772413	1474080772555	 	32
163698	1777571	Your friend's defense, however, has other plans.	Your friend's defense, however, has other plans.	84451389	1474080772718	1474080772800	p	80
163698	1777571	Your friend's defense, however, has other plans.	Your friend's defense, however, has other plans.	84451391	1474080773065	1474080773175	t	84
163698	1777571	Your friend's defense, however, has other plans.	Your friend's defense, however, has other plans.	84451397	1474080773441	1474080773517	BKSP	8
163698	1777571	Your friend's defense, however, has other plans.	Your friend's defense, however, has other plans.	84451406	1474080773580	1474080773691	BKSP	8
163698	1777571	Your friend's defense, however, has other plans.	Your friend's defense, however, has other plans.	84451412	1474080773941	1474080774028	o	79
163698	1777571	Your friend's defense, however, has other plans.	Your friend's defense, however, has other plans.	84451488	1474080774232	1474080774295	t	84
163698	1777571	Your friend's defense, however, has other plans.	Your friend's defense, however, has other plans.	84451493	1474080774388	1474080774537	h	72
163698	1777571	Your friend's defense, however, has other plans.	Your friend's defense, however, has other plans.	84451499	1474080774519	1474080774608	e	69
163698	1777571	Your friend's defense, however, has other plans.	Your friend's defense, however, has other plans.	84451505	1474080774608	1474080774678	 	32
163698	1777571	Your friend's defense, however, has other plans.	Your friend's defense, however, has other plans.	84451510	1474080775554	1474080775664	BKSP	8
163698	1777571	Your friend's defense, however, has other plans.	Your friend's defense, however, has other plans.	84451519	1474080775696	1474080775817	r	82
163698	1777571	Your friend's defense, however, has other plans.	Your friend's defense, however, has other plans.	84451547	1474080775766	1474080775880	 	32
163698	1777571	Your friend's defense, however, has other plans.	Your friend's defense, however, has other plans.	84451548	1474080776145	1474080776249	p	80
163698	1777571	Your friend's defense, however, has other plans.	Your friend's defense, however, has other plans.	84451549	1474080776312	1474080776415	l	76
163698	1777571	Your friend's defense, however, has other plans.	Your friend's defense, however, has other plans.	84451550	1474080776337	1474080776494	a	65
163698	1777571	Your friend's defense, however, has other plans.	Your friend's defense, however, has other plans.	84451551	1474080776779	1474080776912	n	78
163698	1777571	Your friend's defense, however, has other plans.	Your friend's defense, however, has other plans.	84451578	1474080776901	1474080777014	s	83
163698	1777571	Your friend's defense, however, has other plans.	Your friend's defense, however, has other plans.	84451579	1474080777490	1474080777591	.	190
