PARTICIPANT_ID	TEST_SECTION_ID	SENTENCE	USER_INPUT	KEYSTROKE_ID	PRESS_TIME	RELEASE_TIME	LETTER	KEYCODE
163972	1780581	Thanks for your help in quickly setting this up.	Thanks for your help in quickly setting this up.	84596048	1474085844975	1474085847898	SHIFT	16
163972	1780581	Thanks for your help in quickly setting this up.	Thanks for your help in quickly setting this up.	84596049	1474085847812	1474085847952	T	84
163972	1780581	Thanks for your help in quickly setting this up.	Thanks for your help in quickly setting this up.	84596050	1474085847914	1474085847998	h	72
163972	1780581	Thanks for your help in quickly setting this up.	Thanks for your help in quickly setting this up.	84596051	1474085848113	1474085848249	a	65
163972	1780581	Thanks for your help in quickly setting this up.	Thanks for your help in quickly setting this up.	84596052	1474085848182	1474085848303	n	78
163972	1780581	Thanks for your help in quickly setting this up.	Thanks for your help in quickly setting this up.	84596066	1474085848266	1474085848348	k	75
163972	1780581	Thanks for your help in quickly setting this up.	Thanks for your help in quickly setting this up.	84596067	1474085848366	1474085848482	s	83
163972	1780581	Thanks for your help in quickly setting this up.	Thanks for your help in quickly setting this up.	84596069	1474085848498	1474085848598	 	32
163972	1780581	Thanks for your help in quickly setting this up.	Thanks for your help in quickly setting this up.	84596071	1474085848664	1474085848776	f	70
163972	1780581	Thanks for your help in quickly setting this up.	Thanks for your help in quickly setting this up.	84596073	1474085848748	1474085848831	o	79
163972	1780581	Thanks for your help in quickly setting this up.	Thanks for your help in quickly setting this up.	84596074	1474085848882	1474085848976	r	82
163972	1780581	Thanks for your help in quickly setting this up.	Thanks for your help in quickly setting this up.	84596075	1474085848950	1474085849019	 	32
163972	1780581	Thanks for your help in quickly setting this up.	Thanks for your help in quickly setting this up.	84596076	1474085849098	1474085849183	y	89
163972	1780581	Thanks for your help in quickly setting this up.	Thanks for your help in quickly setting this up.	84596077	1474085849183	1474085849301	o	79
163972	1780581	Thanks for your help in quickly setting this up.	Thanks for your help in quickly setting this up.	84596078	1474085849256	1474085849368	u	85
163972	1780581	Thanks for your help in quickly setting this up.	Thanks for your help in quickly setting this up.	84596079	1474085849317	1474085849400	r	82
163972	1780581	Thanks for your help in quickly setting this up.	Thanks for your help in quickly setting this up.	84596080	1474085849431	1474085849548	 	32
163972	1780581	Thanks for your help in quickly setting this up.	Thanks for your help in quickly setting this up.	84596089	1474085849568	1474085849699	h	72
163972	1780581	Thanks for your help in quickly setting this up.	Thanks for your help in quickly setting this up.	84596091	1474085850099	1474085850199	e	69
163972	1780581	Thanks for your help in quickly setting this up.	Thanks for your help in quickly setting this up.	84596093	1474085850215	1474085850392	l	76
163972	1780581	Thanks for your help in quickly setting this up.	Thanks for your help in quickly setting this up.	84596095	1474085850369	1474085850519	p	80
163972	1780581	Thanks for your help in quickly setting this up.	Thanks for your help in quickly setting this up.	84596107	1474085850484	1474085850569	 	32
163972	1780581	Thanks for your help in quickly setting this up.	Thanks for your help in quickly setting this up.	84596109	1474085850631	1474085850787	i	73
163972	1780581	Thanks for your help in quickly setting this up.	Thanks for your help in quickly setting this up.	84596111	1474085850749	1474085850869	n	78
163972	1780581	Thanks for your help in quickly setting this up.	Thanks for your help in quickly setting this up.	84596113	1474085850803	1474085850885	 	32
163972	1780581	Thanks for your help in quickly setting this up.	Thanks for your help in quickly setting this up.	84596115	1474085851001	1474085851103	q	81
163972	1780581	Thanks for your help in quickly setting this up.	Thanks for your help in quickly setting this up.	84596131	1474085851069	1474085851153	u	85
163972	1780581	Thanks for your help in quickly setting this up.	Thanks for your help in quickly setting this up.	84596132	1474085851124	1474085851186	i	73
163972	1780581	Thanks for your help in quickly setting this up.	Thanks for your help in quickly setting this up.	84596133	1474085851249	1474085851401	c	67
163972	1780581	Thanks for your help in quickly setting this up.	Thanks for your help in quickly setting this up.	84596135	1474085851417	1474085851501	l	76
163972	1780581	Thanks for your help in quickly setting this up.	Thanks for your help in quickly setting this up.	84596137	1474085851748	1474085851836	BKSP	8
163972	1780581	Thanks for your help in quickly setting this up.	Thanks for your help in quickly setting this up.	84596139	1474085851948	1474085852102	k	75
163972	1780581	Thanks for your help in quickly setting this up.	Thanks for your help in quickly setting this up.	84596141	1474085852149	1474085852204	l	76
163972	1780581	Thanks for your help in quickly setting this up.	Thanks for your help in quickly setting this up.	84596160	1474085852686	1474085852787	y	89
163972	1780581	Thanks for your help in quickly setting this up.	Thanks for your help in quickly setting this up.	84596162	1474085852803	1474085852903	 	32
163972	1780581	Thanks for your help in quickly setting this up.	Thanks for your help in quickly setting this up.	84596163	1474085853003	1474085853087	s	83
163972	1780581	Thanks for your help in quickly setting this up.	Thanks for your help in quickly setting this up.	84596164	1474085853119	1474085853203	e	69
163972	1780581	Thanks for your help in quickly setting this up.	Thanks for your help in quickly setting this up.	84596166	1474085853287	1474085853338	t	84
163972	1780581	Thanks for your help in quickly setting this up.	Thanks for your help in quickly setting this up.	84596172	1474085853434	1474085853505	t	84
163972	1780581	Thanks for your help in quickly setting this up.	Thanks for your help in quickly setting this up.	84596173	1474085853536	1474085853640	i	73
163972	1780581	Thanks for your help in quickly setting this up.	Thanks for your help in quickly setting this up.	84596174	1474085853605	1474085853720	n	78
163972	1780581	Thanks for your help in quickly setting this up.	Thanks for your help in quickly setting this up.	84596175	1474085853720	1474085853808	g	71
163972	1780581	Thanks for your help in quickly setting this up.	Thanks for your help in quickly setting this up.	84596186	1474085853790	1474085853873	 	32
163972	1780581	Thanks for your help in quickly setting this up.	Thanks for your help in quickly setting this up.	84596187	1474085854036	1474085854160	t	84
163972	1780581	Thanks for your help in quickly setting this up.	Thanks for your help in quickly setting this up.	84596188	1474085854107	1474085854207	h	72
163972	1780581	Thanks for your help in quickly setting this up.	Thanks for your help in quickly setting this up.	84596189	1474085854173	1474085854239	i	73
163972	1780581	Thanks for your help in quickly setting this up.	Thanks for your help in quickly setting this up.	84596190	1474085854255	1474085854390	s	83
163972	1780581	Thanks for your help in quickly setting this up.	Thanks for your help in quickly setting this up.	84596203	1474085854339	1474085854419	 	32
163972	1780581	Thanks for your help in quickly setting this up.	Thanks for your help in quickly setting this up.	84596205	1474085854435	1474085854591	u	85
163972	1780581	Thanks for your help in quickly setting this up.	Thanks for your help in quickly setting this up.	84596207	1474085854538	1474085854622	p	80
163972	1780581	Thanks for your help in quickly setting this up.	Thanks for your help in quickly setting this up.	84596211	1474085854738	1474085854845	.	190
163972	1780583	Mixed signals from Washington had convinced China.	Mixed signals from Washington had convinced China. 	84596257	1474085856762	1474085857997	SHIFT	16
163972	1780583	Mixed signals from Washington had convinced China.	Mixed signals from Washington had convinced China. 	84596255	1474085857897	1474085857992	M	77
163972	1780583	Mixed signals from Washington had convinced China.	Mixed signals from Washington had convinced China. 	84596259	1474085858029	1474085858114	i	73
163972	1780583	Mixed signals from Washington had convinced China.	Mixed signals from Washington had convinced China. 	84596261	1474085858202	1474085858296	x	88
163972	1780583	Mixed signals from Washington had convinced China.	Mixed signals from Washington had convinced China. 	84596262	1474085858506	1474085858637	d	68
163972	1780583	Mixed signals from Washington had convinced China.	Mixed signals from Washington had convinced China. 	84596263	1474085858606	1474085858679	 	32
163972	1780583	Mixed signals from Washington had convinced China.	Mixed signals from Washington had convinced China. 	84596264	1474085858753	1474085858828	s	83
163972	1780583	Mixed signals from Washington had convinced China.	Mixed signals from Washington had convinced China. 	84596265	1474085858828	1474085858907	i	73
163972	1780583	Mixed signals from Washington had convinced China.	Mixed signals from Washington had convinced China. 	84596266	1474085858954	1474085859038	g	71
163972	1780583	Mixed signals from Washington had convinced China.	Mixed signals from Washington had convinced China. 	84596267	1474085859054	1474085859107	n	78
163972	1780583	Mixed signals from Washington had convinced China.	Mixed signals from Washington had convinced China. 	84596268	1474085859186	1474085859296	a	65
163972	1780583	Mixed signals from Washington had convinced China.	Mixed signals from Washington had convinced China. 	84596282	1474085859324	1474085859400	l	76
163972	1780583	Mixed signals from Washington had convinced China.	Mixed signals from Washington had convinced China. 	84596285	1474085859609	1474085860256	BKSP	8
163972	1780583	Mixed signals from Washington had convinced China.	Mixed signals from Washington had convinced China. 	84596287	1474085860341	1474085860425	BKSP	8
163972	1780583	Mixed signals from Washington had convinced China.	Mixed signals from Washington had convinced China. 	84596288	1474085860529	1474085860613	BKSP	8
163972	1780583	Mixed signals from Washington had convinced China.	Mixed signals from Washington had convinced China. 	84596289	1474085860687	1474085860776	e	69
163972	1780583	Mixed signals from Washington had convinced China.	Mixed signals from Washington had convinced China. 	84596290	1474085860814	1474085860897	 	32
163972	1780583	Mixed signals from Washington had convinced China.	Mixed signals from Washington had convinced China. 	84596291	1474085861185	1474085861249	BKSP	8
163972	1780583	Mixed signals from Washington had convinced China.	Mixed signals from Washington had convinced China. 	84596292	1474085861296	1474085861408	d	68
163972	1780583	Mixed signals from Washington had convinced China.	Mixed signals from Washington had convinced China. 	84596298	1474085861396	1474085861495	 	32
163972	1780583	Mixed signals from Washington had convinced China.	Mixed signals from Washington had convinced China. 	84596300	1474085861620	1474085861720	s	83
163972	1780583	Mixed signals from Washington had convinced China.	Mixed signals from Washington had convinced China. 	84596302	1474085861681	1474085861764	i	73
163972	1780583	Mixed signals from Washington had convinced China.	Mixed signals from Washington had convinced China. 	84596304	1474085861851	1474085861900	g	71
163972	1780583	Mixed signals from Washington had convinced China.	Mixed signals from Washington had convinced China. 	84596308	1474085861924	1474085861993	n	78
163972	1780583	Mixed signals from Washington had convinced China.	Mixed signals from Washington had convinced China. 	84596310	1474085862102	1474085862207	a	65
163972	1780583	Mixed signals from Washington had convinced China.	Mixed signals from Washington had convinced China. 	84596315	1474085862180	1474085862260	l	76
163972	1780583	Mixed signals from Washington had convinced China.	Mixed signals from Washington had convinced China. 	84596316	1474085862344	1474085862456	s	83
163972	1780583	Mixed signals from Washington had convinced China.	Mixed signals from Washington had convinced China. 	84596318	1474085862428	1474085862497	 	32
163972	1780583	Mixed signals from Washington had convinced China.	Mixed signals from Washington had convinced China. 	84596320	1474085862559	1474085862628	f	70
163972	1780583	Mixed signals from Washington had convinced China.	Mixed signals from Washington had convinced China. 	84596322	1474085862728	1474085862831	r	82
163972	1780583	Mixed signals from Washington had convinced China.	Mixed signals from Washington had convinced China. 	84596335	1474085862798	1474085862934	o	79
163972	1780583	Mixed signals from Washington had convinced China.	Mixed signals from Washington had convinced China. 	84596336	1474085862874	1474085862983	m	77
163972	1780583	Mixed signals from Washington had convinced China.	Mixed signals from Washington had convinced China. 	84596338	1474085862934	1474085863014	 	32
163972	1780583	Mixed signals from Washington had convinced China.	Mixed signals from Washington had convinced China. 	84596339	1474085863128	1474085863552	SHIFT	16
163972	1780583	Mixed signals from Washington had convinced China.	Mixed signals from Washington had convinced China. 	84596341	1474085863520	1474085863633	W	87
163972	1780583	Mixed signals from Washington had convinced China.	Mixed signals from Washington had convinced China. 	84596342	1474085863780	1474085863965	a	65
163972	1780583	Mixed signals from Washington had convinced China.	Mixed signals from Washington had convinced China. 	84596345	1474085863965	1474085864100	s	83
163972	1780583	Mixed signals from Washington had convinced China.	Mixed signals from Washington had convinced China. 	84596353	1474085864050	1474085864135	h	72
163972	1780583	Mixed signals from Washington had convinced China.	Mixed signals from Washington had convinced China. 	84596354	1474085864100	1474085864264	i	73
163972	1780583	Mixed signals from Washington had convinced China.	Mixed signals from Washington had convinced China. 	84596355	1474085864232	1474085864302	n	78
163972	1780583	Mixed signals from Washington had convinced China.	Mixed signals from Washington had convinced China. 	84596356	1474085864265	1474085864335	g	71
163972	1780583	Mixed signals from Washington had convinced China.	Mixed signals from Washington had convinced China. 	84596357	1474085864432	1474085864567	t	84
163972	1780583	Mixed signals from Washington had convinced China.	Mixed signals from Washington had convinced China. 	84596361	1474085864484	1474085864624	o	79
163972	1780583	Mixed signals from Washington had convinced China.	Mixed signals from Washington had convinced China. 	84596362	1474085864580	1474085864687	n	78
163972	1780583	Mixed signals from Washington had convinced China.	Mixed signals from Washington had convinced China. 	84596363	1474085864654	1474085864735	 	32
163972	1780583	Mixed signals from Washington had convinced China.	Mixed signals from Washington had convinced China. 	84596364	1474085864835	1474085864917	h	72
163972	1780583	Mixed signals from Washington had convinced China.	Mixed signals from Washington had convinced China. 	84596365	1474085864917	1474085865032	a	65
163972	1780583	Mixed signals from Washington had convinced China.	Mixed signals from Washington had convinced China. 	84596371	1474085865016	1474085865137	d	68
163972	1780583	Mixed signals from Washington had convinced China.	Mixed signals from Washington had convinced China. 	84596372	1474085865101	1474085865152	 	32
163972	1780583	Mixed signals from Washington had convinced China.	Mixed signals from Washington had convinced China. 	84596373	1474085865266	1474085865402	c	67
163972	1780583	Mixed signals from Washington had convinced China.	Mixed signals from Washington had convinced China. 	84596374	1474085865351	1474085865471	o	79
163972	1780583	Mixed signals from Washington had convinced China.	Mixed signals from Washington had convinced China. 	84596375	1474085865418	1474085865503	n	78
163972	1780583	Mixed signals from Washington had convinced China.	Mixed signals from Washington had convinced China. 	84596376	1474085865551	1474085865619	v	86
163972	1780583	Mixed signals from Washington had convinced China.	Mixed signals from Washington had convinced China. 	84596383	1474085865636	1474085865703	i	73
163972	1780583	Mixed signals from Washington had convinced China.	Mixed signals from Washington had convinced China. 	84596384	1474085865783	1474085865868	c	67
163972	1780583	Mixed signals from Washington had convinced China.	Mixed signals from Washington had convinced China. 	84596385	1474085865999	1474085866070	n	78
163972	1780583	Mixed signals from Washington had convinced China.	Mixed signals from Washington had convinced China. 	84596386	1474085866468	1474085866537	BKSP	8
163972	1780583	Mixed signals from Washington had convinced China.	Mixed signals from Washington had convinced China. 	84596387	1474085866737	1474085866819	BKSP	8
163972	1780583	Mixed signals from Washington had convinced China.	Mixed signals from Washington had convinced China. 	84596388	1474085866937	1474085867038	n	78
163972	1780583	Mixed signals from Washington had convinced China.	Mixed signals from Washington had convinced China. 	84596389	1474085867085	1474085867138	c	67
163972	1780583	Mixed signals from Washington had convinced China.	Mixed signals from Washington had convinced China. 	84596395	1474085867253	1474085867321	e	69
163972	1780583	Mixed signals from Washington had convinced China.	Mixed signals from Washington had convinced China. 	84596397	1474085867416	1474085867520	d	68
163972	1780583	Mixed signals from Washington had convinced China.	Mixed signals from Washington had convinced China. 	84596399	1474085867487	1474085867553	 	32
163972	1780583	Mixed signals from Washington had convinced China.	Mixed signals from Washington had convinced China. 	84596401	1474085867653	1474085867838	SHIFT	16
163972	1780583	Mixed signals from Washington had convinced China.	Mixed signals from Washington had convinced China. 	84596402	1474085868032	1474085868384	SHIFT	16
163972	1780583	Mixed signals from Washington had convinced China.	Mixed signals from Washington had convinced China. 	84596419	1474085868253	1474085868386	C	67
163972	1780583	Mixed signals from Washington had convinced China.	Mixed signals from Washington had convinced China. 	84596420	1474085868353	1474085868438	H	72
163972	1780583	Mixed signals from Washington had convinced China.	Mixed signals from Washington had convinced China. 	84596421	1474085868469	1474085868606	i	73
163972	1780583	Mixed signals from Washington had convinced China.	Mixed signals from Washington had convinced China. 	84596422	1474085868555	1474085868664	n	78
163972	1780583	Mixed signals from Washington had convinced China.	Mixed signals from Washington had convinced China. 	84596423	1474085868640	1474085868706	e	69
163972	1780583	Mixed signals from Washington had convinced China.	Mixed signals from Washington had convinced China. 	84596424	1474085868818	1474085868873	a	65
163972	1780583	Mixed signals from Washington had convinced China.	Mixed signals from Washington had convinced China. 	84596425	1474085869018	1474085869105	BKSP	8
163972	1780583	Mixed signals from Washington had convinced China.	Mixed signals from Washington had convinced China. 	84596426	1474085869171	1474085869256	BKSP	8
163972	1780583	Mixed signals from Washington had convinced China.	Mixed signals from Washington had convinced China. 	84596427	1474085869318	1474085869389	BKSP	8
163972	1780583	Mixed signals from Washington had convinced China.	Mixed signals from Washington had convinced China. 	84596429	1474085869472	1474085869524	BKSP	8
163972	1780583	Mixed signals from Washington had convinced China.	Mixed signals from Washington had convinced China. 	84596431	1474085869603	1474085869658	BKSP	8
163972	1780583	Mixed signals from Washington had convinced China.	Mixed signals from Washington had convinced China. 	84596433	1474085869804	1474085869911	h	72
163972	1780583	Mixed signals from Washington had convinced China.	Mixed signals from Washington had convinced China. 	84596435	1474085869889	1474085870023	i	73
163972	1780583	Mixed signals from Washington had convinced China.	Mixed signals from Washington had convinced China. 	84596437	1474085869989	1474085870082	n	78
163972	1780583	Mixed signals from Washington had convinced China.	Mixed signals from Washington had convinced China. 	84596439	1474085870082	1474085870198	a	65
163972	1780583	Mixed signals from Washington had convinced China.	Mixed signals from Washington had convinced China. 	84596442	1474085870229	1474085870322	.	190
163972	1780583	Mixed signals from Washington had convinced China.	Mixed signals from Washington had convinced China. 	84596445	1474085870640	1474085870707	 	32
163972	1780588	I would suggest you and Mark address this together.	I would suggest you and Mark address this together.	84596502	1474085874520	1474085874827	SHIFT	16
163972	1780588	I would suggest you and Mark address this together.	I would suggest you and Mark address this together.	84596501	1474085874636	1474085874767	I	73
163972	1780588	I would suggest you and Mark address this together.	I would suggest you and Mark address this together.	84596503	1474085874743	1474085874827	 	32
163972	1780588	I would suggest you and Mark address this together.	I would suggest you and Mark address this together.	84596506	1474085874989	1474085875102	w	87
163972	1780588	I would suggest you and Mark address this together.	I would suggest you and Mark address this together.	84596511	1474085875022	1474085875126	o	79
163972	1780588	I would suggest you and Mark address this together.	I would suggest you and Mark address this together.	84596512	1474085875073	1474085875167	u	85
163972	1780588	I would suggest you and Mark address this together.	I would suggest you and Mark address this together.	84596513	1474085875220	1474085875305	l	76
163972	1780588	I would suggest you and Mark address this together.	I would suggest you and Mark address this together.	84596514	1474085875320	1474085875405	d	68
163972	1780588	I would suggest you and Mark address this together.	I would suggest you and Mark address this together.	84596515	1474085875420	1474085875490	 	32
163972	1780588	I would suggest you and Mark address this together.	I would suggest you and Mark address this together.	84596517	1474085875606	1474085875648	u	85
163972	1780588	I would suggest you and Mark address this together.	I would suggest you and Mark address this together.	84596519	1474085875889	1474085875973	BKSP	8
163972	1780588	I would suggest you and Mark address this together.	I would suggest you and Mark address this together.	84596521	1474085876036	1474085876115	s	83
163972	1780588	I would suggest you and Mark address this together.	I would suggest you and Mark address this together.	84596524	1474085876073	1474085876166	u	85
163972	1780588	I would suggest you and Mark address this together.	I would suggest you and Mark address this together.	84596525	1474085876221	1474085876274	g	71
163972	1780588	I would suggest you and Mark address this together.	I would suggest you and Mark address this together.	84596526	1474085876352	1474085876398	g	71
163972	1780588	I would suggest you and Mark address this together.	I would suggest you and Mark address this together.	84596527	1474085876505	1474085876646	e	69
163972	1780588	I would suggest you and Mark address this together.	I would suggest you and Mark address this together.	84596528	1474085876618	1474085876789	s	83
163972	1780588	I would suggest you and Mark address this together.	I would suggest you and Mark address this together.	84596538	1474085876705	1474085876816	t	84
163972	1780588	I would suggest you and Mark address this together.	I would suggest you and Mark address this together.	84596540	1474085876789	1474085876871	 	32
163972	1780588	I would suggest you and Mark address this together.	I would suggest you and Mark address this together.	84596542	1474085876920	1474085876999	y	89
163972	1780588	I would suggest you and Mark address this together.	I would suggest you and Mark address this together.	84596544	1474085877014	1474085877149	o	79
163972	1780588	I would suggest you and Mark address this together.	I would suggest you and Mark address this together.	84596545	1474085877090	1474085877216	u	85
163972	1780588	I would suggest you and Mark address this together.	I would suggest you and Mark address this together.	84596546	1474085877167	1474085877247	 	32
163972	1780588	I would suggest you and Mark address this together.	I would suggest you and Mark address this together.	84596548	1474085877255	1474085877333	a	65
163972	1780588	I would suggest you and Mark address this together.	I would suggest you and Mark address this together.	84596550	1474085877367	1474085877431	n	78
163972	1780588	I would suggest you and Mark address this together.	I would suggest you and Mark address this together.	84596552	1474085877431	1474085877522	d	68
163972	1780588	I would suggest you and Mark address this together.	I would suggest you and Mark address this together.	84596554	1474085877537	1474085877600	 	32
163972	1780588	I would suggest you and Mark address this together.	I would suggest you and Mark address this together.	84596556	1474085877671	1474085877875	SHIFT	16
163972	1780588	I would suggest you and Mark address this together.	I would suggest you and Mark address this together.	84596563	1474085877802	1474085877875	M	77
163972	1780588	I would suggest you and Mark address this together.	I would suggest you and Mark address this together.	84596564	1474085878006	1474085878152	a	65
163972	1780588	I would suggest you and Mark address this together.	I would suggest you and Mark address this together.	84596565	1474085878106	1474085878248	r	82
163972	1780588	I would suggest you and Mark address this together.	I would suggest you and Mark address this together.	84596566	1474085878222	1474085878368	k	75
163972	1780588	I would suggest you and Mark address this together.	I would suggest you and Mark address this together.	84596567	1474085878307	1474085878407	 	32
163972	1780588	I would suggest you and Mark address this together.	I would suggest you and Mark address this together.	84596568	1474085878577	1474085878692	a	65
163972	1780588	I would suggest you and Mark address this together.	I would suggest you and Mark address this together.	84596571	1474085878738	1474085878818	d	68
163972	1780588	I would suggest you and Mark address this together.	I would suggest you and Mark address this together.	84596573	1474085878893	1474085878977	d	68
163972	1780588	I would suggest you and Mark address this together.	I would suggest you and Mark address this together.	84596575	1474085879055	1474085879168	r	82
163972	1780588	I would suggest you and Mark address this together.	I would suggest you and Mark address this together.	84596577	1474085879144	1474085879256	e	69
163972	1780588	I would suggest you and Mark address this together.	I would suggest you and Mark address this together.	84596579	1474085879382	1474085879472	s	83
163972	1780588	I would suggest you and Mark address this together.	I would suggest you and Mark address this together.	84596581	1474085879545	1474085879640	s	83
163972	1780588	I would suggest you and Mark address this together.	I would suggest you and Mark address this together.	84596582	1474085879686	1474085879768	 	32
163972	1780588	I would suggest you and Mark address this together.	I would suggest you and Mark address this together.	84596583	1474085879833	1474085879934	t	84
163972	1780588	I would suggest you and Mark address this together.	I would suggest you and Mark address this together.	84596584	1474085879934	1474085880036	h	72
163972	1780588	I would suggest you and Mark address this together.	I would suggest you and Mark address this together.	84596589	1474085879984	1474085880072	i	73
163972	1780588	I would suggest you and Mark address this together.	I would suggest you and Mark address this together.	84596590	1474085880086	1474085880200	s	83
163972	1780588	I would suggest you and Mark address this together.	I would suggest you and Mark address this together.	84596591	1474085880184	1474085880251	 	32
163972	1780588	I would suggest you and Mark address this together.	I would suggest you and Mark address this together.	84596592	1474085880349	1474085880404	t	84
163972	1780588	I would suggest you and Mark address this together.	I would suggest you and Mark address this together.	84596593	1474085880435	1474085880518	o	79
163972	1780588	I would suggest you and Mark address this together.	I would suggest you and Mark address this together.	84596594	1474085880587	1474085880669	g	71
163972	1780588	I would suggest you and Mark address this together.	I would suggest you and Mark address this together.	84596595	1474085880749	1474085880835	e	69
163972	1780588	I would suggest you and Mark address this together.	I would suggest you and Mark address this together.	84596596	1474085880918	1474085880987	t	84
163972	1780588	I would suggest you and Mark address this together.	I would suggest you and Mark address this together.	84596597	1474085881003	1474085881087	h	72
163972	1780588	I would suggest you and Mark address this together.	I would suggest you and Mark address this together.	84596598	1474085881124	1474085881222	e	69
163972	1780588	I would suggest you and Mark address this together.	I would suggest you and Mark address this together.	84596606	1474085881171	1474085881266	r	82
163972	1780588	I would suggest you and Mark address this together.	I would suggest you and Mark address this together.	84596608	1474085881287	1474085881387	.	190
163972	1780591	Are you in today?	Are you in today?	84596646	1474085884541	1474085885493	SHIFT	16
163972	1780591	Are you in today?	Are you in today?	84596647	1474085885441	1474085885593	A	65
163972	1780591	Are you in today?	Are you in today?	84596648	1474085885541	1474085885690	r	82
163972	1780591	Are you in today?	Are you in today?	84596649	1474085885609	1474085885719	e	69
163972	1780591	Are you in today?	Are you in today?	84596650	1474085885706	1474085885791	 	32
163972	1780591	Are you in today?	Are you in today?	84596651	1474085885920	1474085885991	y	89
163972	1780591	Are you in today?	Are you in today?	84596653	1474085886015	1474085886167	o	79
163972	1780591	Are you in today?	Are you in today?	84596655	1474085886107	1474085886177	u	85
163972	1780591	Are you in today?	Are you in today?	84596659	1474085886151	1474085886243	 	32
163972	1780591	Are you in today?	Are you in today?	84596661	1474085886258	1474085886437	i	73
163972	1780591	Are you in today?	Are you in today?	84596666	1474085886368	1474085886506	n	78
163972	1780591	Are you in today?	Are you in today?	84596667	1474085886456	1474085886536	 	32
163972	1780591	Are you in today?	Are you in today?	84596668	1474085886536	1474085886610	t	84
163972	1780591	Are you in today?	Are you in today?	84596669	1474085886664	1474085886756	o	79
163972	1780591	Are you in today?	Are you in today?	84596670	1474085886840	1474085886977	d	68
163972	1780591	Are you in today?	Are you in today?	84596681	1474085886940	1474085887081	a	65
163972	1780591	Are you in today?	Are you in today?	84596682	1474085887071	1474085887140	y	89
163972	1780591	Are you in today?	Are you in today?	84596683	1474085887479	1474085887560	?	191
163972	1780592	What is going on?	What is going on?	84596728	1474085890773	1474085890903	W	87
163972	1780592	What is going on?	What is going on?	84596729	1474085890873	1474085890958	h	72
163972	1780592	What is going on?	What is going on?	84596730	1474085891004	1474085891175	a	65
163972	1780592	What is going on?	What is going on?	84596732	1474085891089	1474085891187	t	84
163972	1780592	What is going on?	What is going on?	84596731	1474085891128	1474085891187	 	32
163972	1780592	What is going on?	What is going on?	84596733	1474085891233	1474085891298	i	73
163972	1780592	What is going on?	What is going on?	84596734	1474085891314	1474085891396	s	83
163972	1780592	What is going on?	What is going on?	84596735	1474085891411	1474085891479	 	32
163972	1780592	What is going on?	What is going on?	84596737	1474085891510	1474085891617	g	71
163972	1780592	What is going on?	What is going on?	84596743	1474085891563	1474085891699	o	79
163972	1780592	What is going on?	What is going on?	84596744	1474085891656	1474085891767	i	73
163972	1780592	What is going on?	What is going on?	84596746	1474085891715	1474085891834	n	78
163972	1780592	What is going on?	What is going on?	84596747	1474085891783	1474085891888	g	71
163972	1780592	What is going on?	What is going on?	84596748	1474085891866	1474085891947	 	32
163972	1780592	What is going on?	What is going on?	84596749	1474085891998	1474085892119	o	79
163972	1780592	What is going on?	What is going on?	84596752	1474085892082	1474085892166	n	78
163972	1780592	What is going on?	What is going on?	84596756	1474085892166	1474085892430	SHIFT	16
163972	1780592	What is going on?	What is going on?	84596754	1474085892264	1474085892367	?	191
163972	1780594	I cannot figure out where these prices are coming from.	I cannot figure out where these prices are coming from.	84596786	1474085894520	1474085894760	SHIFT	16
163972	1780594	I cannot figure out where these prices are coming from.	I cannot figure out where these prices are coming from.	84596785	1474085894648	1474085894736	I	73
163972	1780594	I cannot figure out where these prices are coming from.	I cannot figure out where these prices are coming from.	84596787	1474085894760	1474085894821	 	32
163972	1780594	I cannot figure out where these prices are coming from.	I cannot figure out where these prices are coming from.	84596788	1474085895258	1474085895392	c	67
163972	1780594	I cannot figure out where these prices are coming from.	I cannot figure out where these prices are coming from.	84596789	1474085895351	1474085895496	a	65
163972	1780594	I cannot figure out where these prices are coming from.	I cannot figure out where these prices are coming from.	84596796	1474085895478	1474085895523	n	78
163972	1780594	I cannot figure out where these prices are coming from.	I cannot figure out where these prices are coming from.	84596797	1474085895599	1474085895700	n	78
163972	1780594	I cannot figure out where these prices are coming from.	I cannot figure out where these prices are coming from.	84596798	1474085895700	1474085895772	o	79
163972	1780594	I cannot figure out where these prices are coming from.	I cannot figure out where these prices are coming from.	84596799	1474085895800	1474085895888	t	84
163972	1780594	I cannot figure out where these prices are coming from.	I cannot figure out where these prices are coming from.	84596800	1474085895889	1474085895953	 	32
163972	1780594	I cannot figure out where these prices are coming from.	I cannot figure out where these prices are coming from.	84596801	1474085896036	1474085896104	f	70
163972	1780594	I cannot figure out where these prices are coming from.	I cannot figure out where these prices are coming from.	84596810	1474085896122	1474085896187	i	73
163972	1780594	I cannot figure out where these prices are coming from.	I cannot figure out where these prices are coming from.	84596812	1474085896282	1474085896338	g	71
163972	1780594	I cannot figure out where these prices are coming from.	I cannot figure out where these prices are coming from.	84596814	1474085896354	1474085896421	u	85
163972	1780594	I cannot figure out where these prices are coming from.	I cannot figure out where these prices are coming from.	84596816	1474085896536	1474085896620	e	69
163972	1780594	I cannot figure out where these prices are coming from.	I cannot figure out where these prices are coming from.	84596818	1474085896904	1474085896983	BKSP	8
163972	1780594	I cannot figure out where these prices are coming from.	I cannot figure out where these prices are coming from.	84596819	1474085896971	1474085897107	r	82
163972	1780594	I cannot figure out where these prices are coming from.	I cannot figure out where these prices are coming from.	84596820	1474085897069	1474085897157	e	69
163972	1780594	I cannot figure out where these prices are coming from.	I cannot figure out where these prices are coming from.	84596821	1474085897107	1474085897206	 	32
163972	1780594	I cannot figure out where these prices are coming from.	I cannot figure out where these prices are coming from.	84596822	1474085897352	1474085897488	o	79
163972	1780594	I cannot figure out where these prices are coming from.	I cannot figure out where these prices are coming from.	84596823	1474085897469	1474085897538	u	85
163972	1780594	I cannot figure out where these prices are coming from.	I cannot figure out where these prices are coming from.	84596824	1474085897553	1474085897663	t	84
163972	1780594	I cannot figure out where these prices are coming from.	I cannot figure out where these prices are coming from.	84596828	1474085897655	1474085897722	 	32
163972	1780594	I cannot figure out where these prices are coming from.	I cannot figure out where these prices are coming from.	84596830	1474085897784	1474085897904	w	87
163972	1780594	I cannot figure out where these prices are coming from.	I cannot figure out where these prices are coming from.	84596832	1474085897857	1474085897955	h	72
163972	1780594	I cannot figure out where these prices are coming from.	I cannot figure out where these prices are coming from.	84596833	1474085897955	1474085898071	e	69
163972	1780594	I cannot figure out where these prices are coming from.	I cannot figure out where these prices are coming from.	84596834	1474085898055	1474085898191	r	82
163972	1780594	I cannot figure out where these prices are coming from.	I cannot figure out where these prices are coming from.	84596835	1474085898154	1474085898223	e	69
163972	1780594	I cannot figure out where these prices are coming from.	I cannot figure out where these prices are coming from.	84596836	1474085898238	1474085898307	 	32
163972	1780594	I cannot figure out where these prices are coming from.	I cannot figure out where these prices are coming from.	84596837	1474085898344	1474085898407	t	84
163972	1780594	I cannot figure out where these prices are coming from.	I cannot figure out where these prices are coming from.	84596838	1474085898407	1474085898472	h	72
163972	1780594	I cannot figure out where these prices are coming from.	I cannot figure out where these prices are coming from.	84596839	1474085898507	1474085898588	e	69
163972	1780594	I cannot figure out where these prices are coming from.	I cannot figure out where these prices are coming from.	84596840	1474085898588	1474085898773	s	83
163972	1780594	I cannot figure out where these prices are coming from.	I cannot figure out where these prices are coming from.	84596852	1474085898707	1474085898856	e	69
163972	1780594	I cannot figure out where these prices are coming from.	I cannot figure out where these prices are coming from.	84596853	1474085898839	1474085898908	 	32
163972	1780594	I cannot figure out where these prices are coming from.	I cannot figure out where these prices are coming from.	84596854	1474085898970	1474085899071	p	80
163972	1780594	I cannot figure out where these prices are coming from.	I cannot figure out where these prices are coming from.	84596855	1474085899208	1474085899308	r	82
163972	1780594	I cannot figure out where these prices are coming from.	I cannot figure out where these prices are coming from.	84596856	1474085899371	1474085899442	i	73
163972	1780594	I cannot figure out where these prices are coming from.	I cannot figure out where these prices are coming from.	84596857	1474085899489	1474085899575	c	67
163972	1780594	I cannot figure out where these prices are coming from.	I cannot figure out where these prices are coming from.	84596858	1474085899704	1474085899844	e	69
163972	1780594	I cannot figure out where these prices are coming from.	I cannot figure out where these prices are coming from.	84596859	1474085899807	1474085899920	s	83
163972	1780594	I cannot figure out where these prices are coming from.	I cannot figure out where these prices are coming from.	84596860	1474085899891	1474085899959	 	32
163972	1780594	I cannot figure out where these prices are coming from.	I cannot figure out where these prices are coming from.	84596862	1474085900011	1474085900174	a	65
163972	1780594	I cannot figure out where these prices are coming from.	I cannot figure out where these prices are coming from.	84596863	1474085900111	1474085900272	r	82
163972	1780594	I cannot figure out where these prices are coming from.	I cannot figure out where these prices are coming from.	84596864	1474085900211	1474085900280	e	69
163972	1780594	I cannot figure out where these prices are coming from.	I cannot figure out where these prices are coming from.	84596865	1474085900255	1474085900318	 	32
163972	1780594	I cannot figure out where these prices are coming from.	I cannot figure out where these prices are coming from.	84596866	1474085900436	1474085900592	c	67
163972	1780594	I cannot figure out where these prices are coming from.	I cannot figure out where these prices are coming from.	84596867	1474085900520	1474085900636	o	79
163972	1780594	I cannot figure out where these prices are coming from.	I cannot figure out where these prices are coming from.	84596868	1474085900560	1474085900667	m	77
163972	1780594	I cannot figure out where these prices are coming from.	I cannot figure out where these prices are coming from.	84596869	1474085900736	1474085900863	i	73
163972	1780594	I cannot figure out where these prices are coming from.	I cannot figure out where these prices are coming from.	84596870	1474085900842	1474085900912	n	78
163972	1780594	I cannot figure out where these prices are coming from.	I cannot figure out where these prices are coming from.	84596871	1474085900893	1474085900991	g	71
163972	1780594	I cannot figure out where these prices are coming from.	I cannot figure out where these prices are coming from.	84596872	1474085901007	1474085901092	 	32
163972	1780594	I cannot figure out where these prices are coming from.	I cannot figure out where these prices are coming from.	84596873	1474085901224	1474085901277	f	70
163972	1780594	I cannot figure out where these prices are coming from.	I cannot figure out where these prices are coming from.	84596879	1474085901374	1474085901488	r	82
163972	1780594	I cannot figure out where these prices are coming from.	I cannot figure out where these prices are coming from.	84596880	1474085901443	1474085901556	o	79
163972	1780594	I cannot figure out where these prices are coming from.	I cannot figure out where these prices are coming from.	84596881	1474085901496	1474085901603	m	77
163972	1780594	I cannot figure out where these prices are coming from.	I cannot figure out where these prices are coming from.	84596882	1474085901659	1474085901759	.	190
163972	1780596	Mike Anderson will retain the starting job for now.	Mike Anderson will retain the starting job for now.	84596893	1474085904567	1474085904903	SHIFT	16
163972	1780596	Mike Anderson will retain the starting job for now.	Mike Anderson will retain the starting job for now.	84596894	1474085904771	1474085904918	M	77
163972	1780596	Mike Anderson will retain the starting job for now.	Mike Anderson will retain the starting job for now.	84596896	1474085904991	1474085905056	i	73
163972	1780596	Mike Anderson will retain the starting job for now.	Mike Anderson will retain the starting job for now.	84596898	1474085905161	1474085905230	k	75
163972	1780596	Mike Anderson will retain the starting job for now.	Mike Anderson will retain the starting job for now.	84596900	1474085905276	1474085905360	e	69
163972	1780596	Mike Anderson will retain the starting job for now.	Mike Anderson will retain the starting job for now.	84596902	1474085905360	1474085905447	 	32
163972	1780596	Mike Anderson will retain the starting job for now.	Mike Anderson will retain the starting job for now.	84596910	1474085905664	1474085905914	SHIFT	16
163972	1780596	Mike Anderson will retain the starting job for now.	Mike Anderson will retain the starting job for now.	84596911	1474085905843	1474085905945	A	65
163972	1780596	Mike Anderson will retain the starting job for now.	Mike Anderson will retain the starting job for now.	84596912	1474085905992	1474085906050	n	78
163972	1780596	Mike Anderson will retain the starting job for now.	Mike Anderson will retain the starting job for now.	84596913	1474085906256	1474085906331	d	68
163972	1780596	Mike Anderson will retain the starting job for now.	Mike Anderson will retain the starting job for now.	84596914	1474085906445	1474085906567	e	69
163972	1780596	Mike Anderson will retain the starting job for now.	Mike Anderson will retain the starting job for now.	84596920	1474085906530	1474085906598	r	82
163972	1780596	Mike Anderson will retain the starting job for now.	Mike Anderson will retain the starting job for now.	84596921	1474085906645	1474085906783	s	83
163972	1780596	Mike Anderson will retain the starting job for now.	Mike Anderson will retain the starting job for now.	84596922	1474085906717	1474085906852	o	79
163972	1780596	Mike Anderson will retain the starting job for now.	Mike Anderson will retain the starting job for now.	84596923	1474085906814	1474085906912	n	78
163972	1780596	Mike Anderson will retain the starting job for now.	Mike Anderson will retain the starting job for now.	84596924	1474085906852	1474085906949	 	32
163972	1780596	Mike Anderson will retain the starting job for now.	Mike Anderson will retain the starting job for now.	84596925	1474085907079	1474085907232	w	87
163972	1780596	Mike Anderson will retain the starting job for now.	Mike Anderson will retain the starting job for now.	84596931	1474085907215	1474085907299	i	73
163972	1780596	Mike Anderson will retain the starting job for now.	Mike Anderson will retain the starting job for now.	84596932	1474085907331	1474085907431	l	76
163972	1780596	Mike Anderson will retain the starting job for now.	Mike Anderson will retain the starting job for now.	84596933	1474085907499	1474085907623	l	76
163972	1780596	Mike Anderson will retain the starting job for now.	Mike Anderson will retain the starting job for now.	84596934	1474085907600	1474085907700	 	32
163972	1780596	Mike Anderson will retain the starting job for now.	Mike Anderson will retain the starting job for now.	84596935	1474085907731	1474085907800	e	69
163972	1780596	Mike Anderson will retain the starting job for now.	Mike Anderson will retain the starting job for now.	84596936	1474085908157	1474085908294	r	82
163972	1780596	Mike Anderson will retain the starting job for now.	Mike Anderson will retain the starting job for now.	84596957	1474085908410	1474085908469	BKSP	8
163972	1780596	Mike Anderson will retain the starting job for now.	Mike Anderson will retain the starting job for now.	84596959	1474085908557	1474085908625	BKSP	8
163972	1780596	Mike Anderson will retain the starting job for now.	Mike Anderson will retain the starting job for now.	84596962	1474085908710	1474085908831	r	82
163972	1780596	Mike Anderson will retain the starting job for now.	Mike Anderson will retain the starting job for now.	84596965	1474085908810	1474085908887	e	69
163972	1780596	Mike Anderson will retain the starting job for now.	Mike Anderson will retain the starting job for now.	84596968	1474085908995	1474085909094	t	84
163972	1780596	Mike Anderson will retain the starting job for now.	Mike Anderson will retain the starting job for now.	84596972	1474085909110	1474085909204	a	65
163972	1780596	Mike Anderson will retain the starting job for now.	Mike Anderson will retain the starting job for now.	84596979	1474085909154	1474085909303	i	73
163972	1780596	Mike Anderson will retain the starting job for now.	Mike Anderson will retain the starting job for now.	84596983	1474085909274	1474085909392	n	78
163972	1780596	Mike Anderson will retain the starting job for now.	Mike Anderson will retain the starting job for now.	84596986	1474085909351	1474085909426	 	32
163972	1780596	Mike Anderson will retain the starting job for now.	Mike Anderson will retain the starting job for now.	84596988	1474085909457	1474085909521	t	84
163972	1780596	Mike Anderson will retain the starting job for now.	Mike Anderson will retain the starting job for now.	84596991	1474085909536	1474085909617	h	72
163972	1780596	Mike Anderson will retain the starting job for now.	Mike Anderson will retain the starting job for now.	84596994	1474085909617	1474085909696	e	69
163972	1780596	Mike Anderson will retain the starting job for now.	Mike Anderson will retain the starting job for now.	84596999	1474085909724	1474085909823	 	32
163972	1780596	Mike Anderson will retain the starting job for now.	Mike Anderson will retain the starting job for now.	84597000	1474085909844	1474085909992	s	83
163972	1780596	Mike Anderson will retain the starting job for now.	Mike Anderson will retain the starting job for now.	84597001	1474085909949	1474085910049	t	84
163972	1780596	Mike Anderson will retain the starting job for now.	Mike Anderson will retain the starting job for now.	84597002	1474085910182	1474085910337	a	65
163972	1780596	Mike Anderson will retain the starting job for now.	Mike Anderson will retain the starting job for now.	84597003	1474085910272	1474085910355	r	82
163972	1780596	Mike Anderson will retain the starting job for now.	Mike Anderson will retain the starting job for now.	84597004	1474085910451	1474085910536	t	84
163972	1780596	Mike Anderson will retain the starting job for now.	Mike Anderson will retain the starting job for now.	84597005	1474085910551	1474085910663	i	73
163972	1780596	Mike Anderson will retain the starting job for now.	Mike Anderson will retain the starting job for now.	84597006	1474085910620	1474085910688	n	78
163972	1780596	Mike Anderson will retain the starting job for now.	Mike Anderson will retain the starting job for now.	84597007	1474085910727	1474085910823	g	71
163972	1780596	Mike Anderson will retain the starting job for now.	Mike Anderson will retain the starting job for now.	84597013	1474085910805	1474085910873	 	32
163972	1780596	Mike Anderson will retain the starting job for now.	Mike Anderson will retain the starting job for now.	84597014	1474085910967	1474085911071	j	74
163972	1780596	Mike Anderson will retain the starting job for now.	Mike Anderson will retain the starting job for now.	84597015	1474085911052	1474085911207	o	79
163972	1780596	Mike Anderson will retain the starting job for now.	Mike Anderson will retain the starting job for now.	84597016	1474085911174	1474085911320	b	66
163972	1780596	Mike Anderson will retain the starting job for now.	Mike Anderson will retain the starting job for now.	84597017	1474085911304	1474085911375	 	32
163972	1780596	Mike Anderson will retain the starting job for now.	Mike Anderson will retain the starting job for now.	84597019	1474085911420	1474085911505	f	70
163972	1780596	Mike Anderson will retain the starting job for now.	Mike Anderson will retain the starting job for now.	84597025	1474085911505	1474085911573	o	79
163972	1780596	Mike Anderson will retain the starting job for now.	Mike Anderson will retain the starting job for now.	84597029	1474085911621	1474085911712	r	82
163972	1780596	Mike Anderson will retain the starting job for now.	Mike Anderson will retain the starting job for now.	84597032	1474085911657	1474085911754	 	32
163972	1780596	Mike Anderson will retain the starting job for now.	Mike Anderson will retain the starting job for now.	84597035	1474085911786	1474085911874	n	78
163972	1780596	Mike Anderson will retain the starting job for now.	Mike Anderson will retain the starting job for now.	84597039	1474085911823	1474085911919	o	79
163972	1780596	Mike Anderson will retain the starting job for now.	Mike Anderson will retain the starting job for now.	84597042	1474085911887	1474085911970	w	87
163972	1780596	Mike Anderson will retain the starting job for now.	Mike Anderson will retain the starting job for now.	84597044	1474085912037	1474085912122	.	190
163972	1780598	Wang said that his release was a miracle.	Wang said that his release was a miracle.	84597084	1474085914720	1474085914955	SHIFT	16
163972	1780598	Wang said that his release was a miracle.	Wang said that his release was a miracle.	84597085	1474085914871	1474085914971	W	87
163972	1780598	Wang said that his release was a miracle.	Wang said that his release was a miracle.	84597086	1474085915102	1474085915206	a	65
163972	1780598	Wang said that his release was a miracle.	Wang said that his release was a miracle.	84597087	1474085915462	1474085915546	n	78
163972	1780598	Wang said that his release was a miracle.	Wang said that his release was a miracle.	84597088	1474085915593	1474085915728	g	71
163972	1780598	Wang said that his release was a miracle.	Wang said that his release was a miracle.	84597089	1474085915728	1474085915808	 	32
163972	1780598	Wang said that his release was a miracle.	Wang said that his release was a miracle.	84597096	1474085915979	1474085916104	s	83
163972	1780598	Wang said that his release was a miracle.	Wang said that his release was a miracle.	84597097	1474085916084	1474085916187	a	65
163972	1780598	Wang said that his release was a miracle.	Wang said that his release was a miracle.	84597098	1474085916187	1474085916271	i	73
163972	1780598	Wang said that his release was a miracle.	Wang said that his release was a miracle.	84597099	1474085916296	1474085916369	d	68
163972	1780598	Wang said that his release was a miracle.	Wang said that his release was a miracle.	84597100	1474085916385	1474085916454	 	32
163972	1780598	Wang said that his release was a miracle.	Wang said that his release was a miracle.	84597111	1474085916506	1474085916578	t	84
163972	1780598	Wang said that his release was a miracle.	Wang said that his release was a miracle.	84597114	1474085916578	1474085916639	h	72
163972	1780598	Wang said that his release was a miracle.	Wang said that his release was a miracle.	84597117	1474085916686	1474085916871	a	65
163972	1780598	Wang said that his release was a miracle.	Wang said that his release was a miracle.	84597123	1474085916762	1474085916884	t	84
163972	1780598	Wang said that his release was a miracle.	Wang said that his release was a miracle.	84597125	1474085916832	1474085916915	 	32
163972	1780598	Wang said that his release was a miracle.	Wang said that his release was a miracle.	84597126	1474085916960	1474085917046	h	72
163972	1780598	Wang said that his release was a miracle.	Wang said that his release was a miracle.	84597127	1474085916996	1474085917095	i	73
163972	1780598	Wang said that his release was a miracle.	Wang said that his release was a miracle.	84597128	1474085917077	1474085917161	s	83
163972	1780598	Wang said that his release was a miracle.	Wang said that his release was a miracle.	84597129	1474085917176	1474085917261	 	32
163972	1780598	Wang said that his release was a miracle.	Wang said that his release was a miracle.	84597130	1474085917292	1474085917430	r	82
163972	1780598	Wang said that his release was a miracle.	Wang said that his release was a miracle.	84597136	1474085917395	1474085917482	e	69
163972	1780598	Wang said that his release was a miracle.	Wang said that his release was a miracle.	84597137	1474085917498	1474085917611	l	76
163972	1780598	Wang said that his release was a miracle.	Wang said that his release was a miracle.	84597138	1474085917708	1474085917809	e	69
163972	1780598	Wang said that his release was a miracle.	Wang said that his release was a miracle.	84597139	1474085917845	1474085918065	a	65
163972	1780598	Wang said that his release was a miracle.	Wang said that his release was a miracle.	84597140	1474085917951	1474085918098	s	83
163972	1780598	Wang said that his release was a miracle.	Wang said that his release was a miracle.	84597141	1474085918012	1474085918164	e	69
163972	1780598	Wang said that his release was a miracle.	Wang said that his release was a miracle.	84597142	1474085918136	1474085918195	 	32
163972	1780598	Wang said that his release was a miracle.	Wang said that his release was a miracle.	84597143	1474085918261	1474085918409	w	87
163972	1780598	Wang said that his release was a miracle.	Wang said that his release was a miracle.	84597144	1474085918409	1474085918631	a	65
163972	1780598	Wang said that his release was a miracle.	Wang said that his release was a miracle.	84597155	1474085918505	1474085918646	s	83
163972	1780598	Wang said that his release was a miracle.	Wang said that his release was a miracle.	84597156	1474085918595	1474085918662	 	32
163972	1780598	Wang said that his release was a miracle.	Wang said that his release was a miracle.	84597157	1474085918746	1474085918847	a	65
163972	1780598	Wang said that his release was a miracle.	Wang said that his release was a miracle.	84597158	1474085918798	1474085918879	 	32
163972	1780598	Wang said that his release was a miracle.	Wang said that his release was a miracle.	84597159	1474085919111	1474085919227	m	77
163972	1780598	Wang said that his release was a miracle.	Wang said that his release was a miracle.	84597160	1474085919248	1474085919327	i	73
163972	1780598	Wang said that his release was a miracle.	Wang said that his release was a miracle.	84597171	1474085919298	1474085919397	r	82
163972	1780598	Wang said that his release was a miracle.	Wang said that his release was a miracle.	84597172	1474085919412	1474085919480	a	65
163972	1780598	Wang said that his release was a miracle.	Wang said that his release was a miracle.	84597173	1474085919580	1474085919665	c	67
163972	1780598	Wang said that his release was a miracle.	Wang said that his release was a miracle.	84597174	1474085919728	1474085919766	l	76
163972	1780598	Wang said that his release was a miracle.	Wang said that his release was a miracle.	84597175	1474085919968	1474085920053	e	69
163972	1780598	Wang said that his release was a miracle.	Wang said that his release was a miracle.	84597176	1474085920099	1474085920168	.	190
163972	1780601	Jordan is taking her last job, corporate development.	Jordan is taking her last job, corporate development.	84597199	1474085922664	1474085922834	SHIFT	16
163972	1780601	Jordan is taking her last job, corporate development.	Jordan is taking her last job, corporate development.	84597200	1474085922769	1474085922868	J	74
163972	1780601	Jordan is taking her last job, corporate development.	Jordan is taking her last job, corporate development.	84597202	1474085922931	1474085923015	r	82
163972	1780601	Jordan is taking her last job, corporate development.	Jordan is taking her last job, corporate development.	84597204	1474085922986	1474085923070	o	79
163972	1780601	Jordan is taking her last job, corporate development.	Jordan is taking her last job, corporate development.	84597206	1474085923133	1474085923251	d	68
163972	1780601	Jordan is taking her last job, corporate development.	Jordan is taking her last job, corporate development.	84597208	1474085923288	1474085923421	a	65
163972	1780601	Jordan is taking her last job, corporate development.	Jordan is taking her last job, corporate development.	84597216	1474085923388	1474085923503	n	78
163972	1780601	Jordan is taking her last job, corporate development.	Jordan is taking her last job, corporate development.	84597218	1474085923451	1474085923550	 	32
163972	1780601	Jordan is taking her last job, corporate development.	Jordan is taking her last job, corporate development.	84597219	1474085923568	1474085923637	i	73
163972	1780601	Jordan is taking her last job, corporate development.	Jordan is taking her last job, corporate development.	84597220	1474085923637	1474085923735	s	83
163972	1780601	Jordan is taking her last job, corporate development.	Jordan is taking her last job, corporate development.	84597221	1474085923750	1474085923824	 	32
163972	1780601	Jordan is taking her last job, corporate development.	Jordan is taking her last job, corporate development.	84597222	1474085923840	1474085923935	t	84
163972	1780601	Jordan is taking her last job, corporate development.	Jordan is taking her last job, corporate development.	84597223	1474085923944	1474085924071	a	65
163972	1780601	Jordan is taking her last job, corporate development.	Jordan is taking her last job, corporate development.	84597224	1474085924039	1474085924104	k	75
163972	1780601	Jordan is taking her last job, corporate development.	Jordan is taking her last job, corporate development.	84597225	1474085924200	1474085924296	i	73
163972	1780601	Jordan is taking her last job, corporate development.	Jordan is taking her last job, corporate development.	84597227	1474085924288	1474085924384	n	78
163972	1780601	Jordan is taking her last job, corporate development.	Jordan is taking her last job, corporate development.	84597229	1474085924424	1474085924528	g	71
163972	1780601	Jordan is taking her last job, corporate development.	Jordan is taking her last job, corporate development.	84597249	1474085924529	1474085924616	 	32
163972	1780601	Jordan is taking her last job, corporate development.	Jordan is taking her last job, corporate development.	84597250	1474085924919	1474085926047	BKSP	8
163972	1780601	Jordan is taking her last job, corporate development.	Jordan is taking her last job, corporate development.	84597251	1474085926064	1474085926256	SHIFT	16
163972	1780601	Jordan is taking her last job, corporate development.	Jordan is taking her last job, corporate development.	84597252	1474085926176	1474085926272	J	74
163972	1780601	Jordan is taking her last job, corporate development.	Jordan is taking her last job, corporate development.	84597253	1474085926344	1474085926431	o	79
163972	1780601	Jordan is taking her last job, corporate development.	Jordan is taking her last job, corporate development.	84597254	1474085926480	1474085926529	r	82
163972	1780601	Jordan is taking her last job, corporate development.	Jordan is taking her last job, corporate development.	84597255	1474085926668	1474085926790	d	68
163972	1780601	Jordan is taking her last job, corporate development.	Jordan is taking her last job, corporate development.	84597256	1474085926790	1474085926939	a	65
163972	1780601	Jordan is taking her last job, corporate development.	Jordan is taking her last job, corporate development.	84597257	1474085926870	1474085926983	n	78
163972	1780601	Jordan is taking her last job, corporate development.	Jordan is taking her last job, corporate development.	84597258	1474085926939	1474085927021	 	32
163972	1780601	Jordan is taking her last job, corporate development.	Jordan is taking her last job, corporate development.	84597259	1474085927036	1474085927107	i	73
163972	1780601	Jordan is taking her last job, corporate development.	Jordan is taking her last job, corporate development.	84597260	1474085927122	1474085927239	s	83
163972	1780601	Jordan is taking her last job, corporate development.	Jordan is taking her last job, corporate development.	84597268	1474085927220	1474085927306	 	32
163972	1780601	Jordan is taking her last job, corporate development.	Jordan is taking her last job, corporate development.	84597270	1474085927322	1474085927447	t	84
163972	1780601	Jordan is taking her last job, corporate development.	Jordan is taking her last job, corporate development.	84597272	1474085927437	1474085927559	a	65
163972	1780601	Jordan is taking her last job, corporate development.	Jordan is taking her last job, corporate development.	84597274	1474085927506	1474085927590	k	75
163972	1780601	Jordan is taking her last job, corporate development.	Jordan is taking her last job, corporate development.	84597276	1474085927690	1474085927791	i	73
163972	1780601	Jordan is taking her last job, corporate development.	Jordan is taking her last job, corporate development.	84597283	1474085927773	1474085927871	n	78
163972	1780601	Jordan is taking her last job, corporate development.	Jordan is taking her last job, corporate development.	84597284	1474085927888	1474085927975	g	71
163972	1780601	Jordan is taking her last job, corporate development.	Jordan is taking her last job, corporate development.	84597285	1474085927941	1474085928021	 	32
163972	1780601	Jordan is taking her last job, corporate development.	Jordan is taking her last job, corporate development.	84597286	1474085928091	1474085928174	h	72
163972	1780601	Jordan is taking her last job, corporate development.	Jordan is taking her last job, corporate development.	84597287	1474085928207	1474085928326	e	69
163972	1780601	Jordan is taking her last job, corporate development.	Jordan is taking her last job, corporate development.	84597297	1474085928274	1474085928392	r	82
163972	1780601	Jordan is taking her last job, corporate development.	Jordan is taking her last job, corporate development.	84597298	1474085928338	1474085928409	 	32
163972	1780601	Jordan is taking her last job, corporate development.	Jordan is taking her last job, corporate development.	84597299	1474085928472	1474085928557	l	76
163972	1780601	Jordan is taking her last job, corporate development.	Jordan is taking her last job, corporate development.	84597300	1474085928592	1474085928792	a	65
163972	1780601	Jordan is taking her last job, corporate development.	Jordan is taking her last job, corporate development.	84597317	1474085928643	1474085928821	s	83
163972	1780601	Jordan is taking her last job, corporate development.	Jordan is taking her last job, corporate development.	84597320	1474085928762	1474085928928	t	84
163972	1780601	Jordan is taking her last job, corporate development.	Jordan is taking her last job, corporate development.	84597322	1474085928909	1474085929040	,	188
163972	1780601	Jordan is taking her last job, corporate development.	Jordan is taking her last job, corporate development.	84597324	1474085929040	1474085929125	 	32
163972	1780601	Jordan is taking her last job, corporate development.	Jordan is taking her last job, corporate development.	84597326	1474085929331	1474085929409	BKSP	8
163972	1780601	Jordan is taking her last job, corporate development.	Jordan is taking her last job, corporate development.	84597328	1474085929493	1474085929575	BKSP	8
163972	1780601	Jordan is taking her last job, corporate development.	Jordan is taking her last job, corporate development.	84597330	1474085929655	1474085929726	 	32
163972	1780601	Jordan is taking her last job, corporate development.	Jordan is taking her last job, corporate development.	84597331	1474085930343	1474085930434	j	74
163972	1780601	Jordan is taking her last job, corporate development.	Jordan is taking her last job, corporate development.	84597332	1474085930533	1474085930648	o	79
163972	1780601	Jordan is taking her last job, corporate development.	Jordan is taking her last job, corporate development.	84597349	1474085930617	1474085930695	b	66
163972	1780601	Jordan is taking her last job, corporate development.	Jordan is taking her last job, corporate development.	84597350	1474085930833	1474085930960	,	188
163972	1780601	Jordan is taking her last job, corporate development.	Jordan is taking her last job, corporate development.	84597351	1474085930933	1474085931020	 	32
163972	1780601	Jordan is taking her last job, corporate development.	Jordan is taking her last job, corporate development.	84597352	1474085931428	1474085931567	c	67
163972	1780601	Jordan is taking her last job, corporate development.	Jordan is taking her last job, corporate development.	84597353	1474085931528	1474085931595	o	79
163972	1780601	Jordan is taking her last job, corporate development.	Jordan is taking her last job, corporate development.	84597354	1474085932048	1474085932149	r	82
163972	1780601	Jordan is taking her last job, corporate development.	Jordan is taking her last job, corporate development.	84597360	1474085932233	1474085932317	p	80
163972	1780601	Jordan is taking her last job, corporate development.	Jordan is taking her last job, corporate development.	84597362	1474085932450	1474085932519	o	79
163972	1780601	Jordan is taking her last job, corporate development.	Jordan is taking her last job, corporate development.	84597365	1474085932597	1474085932662	r	82
163972	1780601	Jordan is taking her last job, corporate development.	Jordan is taking her last job, corporate development.	84597368	1474085932816	1474085932863	t	84
163972	1780601	Jordan is taking her last job, corporate development.	Jordan is taking her last job, corporate development.	84597371	1474085933087	1474085933180	BKSP	8
163972	1780601	Jordan is taking her last job, corporate development.	Jordan is taking her last job, corporate development.	84597374	1474085933195	1474085933265	a	65
163972	1780601	Jordan is taking her last job, corporate development.	Jordan is taking her last job, corporate development.	84597383	1474085933231	1474085933381	t	84
163972	1780601	Jordan is taking her last job, corporate development.	Jordan is taking her last job, corporate development.	84597384	1474085933330	1474085933464	e	69
163972	1780601	Jordan is taking her last job, corporate development.	Jordan is taking her last job, corporate development.	84597385	1474085933396	1474085933496	 	32
163972	1780601	Jordan is taking her last job, corporate development.	Jordan is taking her last job, corporate development.	84597386	1474085933646	1474085933730	d	68
163972	1780601	Jordan is taking her last job, corporate development.	Jordan is taking her last job, corporate development.	84597387	1474085933846	1474085933882	e	69
163972	1780601	Jordan is taking her last job, corporate development.	Jordan is taking her last job, corporate development.	84597388	1474085933972	1474085934062	v	86
163972	1780601	Jordan is taking her last job, corporate development.	Jordan is taking her last job, corporate development.	84597403	1474085934090	1474085934196	e	69
163972	1780601	Jordan is taking her last job, corporate development.	Jordan is taking her last job, corporate development.	84597405	1474085934196	1474085934279	l	76
163972	1780601	Jordan is taking her last job, corporate development.	Jordan is taking her last job, corporate development.	84597407	1474085934462	1474085934622	o	79
163972	1780601	Jordan is taking her last job, corporate development.	Jordan is taking her last job, corporate development.	84597409	1474085934589	1474085934694	p	80
163972	1780601	Jordan is taking her last job, corporate development.	Jordan is taking her last job, corporate development.	84597411	1474085934778	1474085934862	m	77
163972	1780601	Jordan is taking her last job, corporate development.	Jordan is taking her last job, corporate development.	84597420	1474085934871	1474085934948	e	69
163972	1780601	Jordan is taking her last job, corporate development.	Jordan is taking her last job, corporate development.	84597421	1474085934963	1474085935047	n	78
163972	1780601	Jordan is taking her last job, corporate development.	Jordan is taking her last job, corporate development.	84597422	1474085935062	1474085935167	t	84
163972	1780601	Jordan is taking her last job, corporate development.	Jordan is taking her last job, corporate development.	84597423	1474085935131	1474085935232	.	190
163972	1780603	Rookie Kevin Swayne will move into the starting lineup.	Rookie Kevin Swayne will move into the starting lineup.	84597469	1474085940451	1474085940679	SHIFT	16
163972	1780603	Rookie Kevin Swayne will move into the starting lineup.	Rookie Kevin Swayne will move into the starting lineup.	84597470	1474085940581	1474085940719	R	82
163972	1780603	Rookie Kevin Swayne will move into the starting lineup.	Rookie Kevin Swayne will move into the starting lineup.	84597471	1474085940697	1474085940775	o	79
163972	1780603	Rookie Kevin Swayne will move into the starting lineup.	Rookie Kevin Swayne will move into the starting lineup.	84597472	1474085940844	1474085940922	o	79
163972	1780603	Rookie Kevin Swayne will move into the starting lineup.	Rookie Kevin Swayne will move into the starting lineup.	84597473	1474085940998	1474085941079	k	75
163972	1780603	Rookie Kevin Swayne will move into the starting lineup.	Rookie Kevin Swayne will move into the starting lineup.	84597474	1474085941161	1474085941238	i	73
163972	1780603	Rookie Kevin Swayne will move into the starting lineup.	Rookie Kevin Swayne will move into the starting lineup.	84597475	1474085941288	1474085941383	e	69
163972	1780603	Rookie Kevin Swayne will move into the starting lineup.	Rookie Kevin Swayne will move into the starting lineup.	84597476	1474085941389	1474085941456	 	32
163972	1780603	Rookie Kevin Swayne will move into the starting lineup.	Rookie Kevin Swayne will move into the starting lineup.	84597477	1474085941504	1474085941689	SHIFT	16
163972	1780603	Rookie Kevin Swayne will move into the starting lineup.	Rookie Kevin Swayne will move into the starting lineup.	84597478	1474085941636	1474085941704	K	75
163972	1780603	Rookie Kevin Swayne will move into the starting lineup.	Rookie Kevin Swayne will move into the starting lineup.	84597479	1474085941751	1474085941807	e	69
163972	1780603	Rookie Kevin Swayne will move into the starting lineup.	Rookie Kevin Swayne will move into the starting lineup.	84597480	1474085941890	1474085941990	v	86
163972	1780603	Rookie Kevin Swayne will move into the starting lineup.	Rookie Kevin Swayne will move into the starting lineup.	84597497	1474085942026	1474085942111	e	69
163972	1780603	Rookie Kevin Swayne will move into the starting lineup.	Rookie Kevin Swayne will move into the starting lineup.	84597498	1474085942090	1474085942207	i	73
163972	1780603	Rookie Kevin Swayne will move into the starting lineup.	Rookie Kevin Swayne will move into the starting lineup.	84597499	1474085942157	1474085942296	n	78
163972	1780603	Rookie Kevin Swayne will move into the starting lineup.	Rookie Kevin Swayne will move into the starting lineup.	84597500	1474085942255	1474085942325	 	32
163972	1780603	Rookie Kevin Swayne will move into the starting lineup.	Rookie Kevin Swayne will move into the starting lineup.	84597501	1474085942657	1474085942710	BKSP	8
163972	1780603	Rookie Kevin Swayne will move into the starting lineup.	Rookie Kevin Swayne will move into the starting lineup.	84597502	1474085942773	1474085942856	BKSP	8
163972	1780603	Rookie Kevin Swayne will move into the starting lineup.	Rookie Kevin Swayne will move into the starting lineup.	84597503	1474085942941	1474085942991	BKSP	8
163972	1780603	Rookie Kevin Swayne will move into the starting lineup.	Rookie Kevin Swayne will move into the starting lineup.	84597504	1474085943073	1474085943143	BKSP	8
163972	1780603	Rookie Kevin Swayne will move into the starting lineup.	Rookie Kevin Swayne will move into the starting lineup.	84597505	1474085943311	1474085943426	i	73
163972	1780603	Rookie Kevin Swayne will move into the starting lineup.	Rookie Kevin Swayne will move into the starting lineup.	84597518	1474085943395	1474085943511	n	78
163972	1780603	Rookie Kevin Swayne will move into the starting lineup.	Rookie Kevin Swayne will move into the starting lineup.	84597519	1474085943449	1474085943558	 	32
163972	1780603	Rookie Kevin Swayne will move into the starting lineup.	Rookie Kevin Swayne will move into the starting lineup.	84597521	1474085943802	1474085944038	SHIFT	16
163972	1780603	Rookie Kevin Swayne will move into the starting lineup.	Rookie Kevin Swayne will move into the starting lineup.	84597523	1474085943953	1474085944038	S	83
163972	1780603	Rookie Kevin Swayne will move into the starting lineup.	Rookie Kevin Swayne will move into the starting lineup.	84597524	1474085944222	1474085944367	w	87
163972	1780603	Rookie Kevin Swayne will move into the starting lineup.	Rookie Kevin Swayne will move into the starting lineup.	84597525	1474085944354	1474085944495	a	65
163972	1780603	Rookie Kevin Swayne will move into the starting lineup.	Rookie Kevin Swayne will move into the starting lineup.	84597526	1474085944485	1474085944560	y	89
163972	1780603	Rookie Kevin Swayne will move into the starting lineup.	Rookie Kevin Swayne will move into the starting lineup.	84597527	1474085944685	1474085944743	n	78
163972	1780603	Rookie Kevin Swayne will move into the starting lineup.	Rookie Kevin Swayne will move into the starting lineup.	84597528	1474085944810	1474085944910	e	69
163972	1780603	Rookie Kevin Swayne will move into the starting lineup.	Rookie Kevin Swayne will move into the starting lineup.	84597529	1474085944910	1474085944978	 	32
163972	1780603	Rookie Kevin Swayne will move into the starting lineup.	Rookie Kevin Swayne will move into the starting lineup.	84597530	1474085945111	1474085945228	w	87
163972	1780603	Rookie Kevin Swayne will move into the starting lineup.	Rookie Kevin Swayne will move into the starting lineup.	84597548	1474085945177	1474085945267	i	73
163972	1780603	Rookie Kevin Swayne will move into the starting lineup.	Rookie Kevin Swayne will move into the starting lineup.	84597549	1474085945311	1474085945392	l	76
163972	1780603	Rookie Kevin Swayne will move into the starting lineup.	Rookie Kevin Swayne will move into the starting lineup.	84597550	1474085945474	1474085945544	l	76
163972	1780603	Rookie Kevin Swayne will move into the starting lineup.	Rookie Kevin Swayne will move into the starting lineup.	84597551	1474085946354	1474085946439	 	32
163972	1780603	Rookie Kevin Swayne will move into the starting lineup.	Rookie Kevin Swayne will move into the starting lineup.	84597552	1474085946543	1474085946671	m	77
163972	1780603	Rookie Kevin Swayne will move into the starting lineup.	Rookie Kevin Swayne will move into the starting lineup.	84597553	1474085946643	1474085946727	o	79
163972	1780603	Rookie Kevin Swayne will move into the starting lineup.	Rookie Kevin Swayne will move into the starting lineup.	84597555	1474085946774	1474085946919	v	86
163972	1780603	Rookie Kevin Swayne will move into the starting lineup.	Rookie Kevin Swayne will move into the starting lineup.	84597557	1474085946906	1474085947028	e	69
163972	1780603	Rookie Kevin Swayne will move into the starting lineup.	Rookie Kevin Swayne will move into the starting lineup.	84597559	1474085946943	1474085947044	 	32
163972	1780603	Rookie Kevin Swayne will move into the starting lineup.	Rookie Kevin Swayne will move into the starting lineup.	84597561	1474085947077	1474085947197	i	73
163972	1780603	Rookie Kevin Swayne will move into the starting lineup.	Rookie Kevin Swayne will move into the starting lineup.	84597568	1474085947159	1474085947275	n	78
163972	1780603	Rookie Kevin Swayne will move into the starting lineup.	Rookie Kevin Swayne will move into the starting lineup.	84597570	1474085947291	1474085947423	t	84
163972	1780603	Rookie Kevin Swayne will move into the starting lineup.	Rookie Kevin Swayne will move into the starting lineup.	84597571	1474085947378	1474085947512	o	79
163972	1780603	Rookie Kevin Swayne will move into the starting lineup.	Rookie Kevin Swayne will move into the starting lineup.	84597572	1474085947471	1474085947544	 	32
163972	1780603	Rookie Kevin Swayne will move into the starting lineup.	Rookie Kevin Swayne will move into the starting lineup.	84597573	1474085947625	1474085947720	t	84
163972	1780603	Rookie Kevin Swayne will move into the starting lineup.	Rookie Kevin Swayne will move into the starting lineup.	84597574	1474085947697	1474085947763	h	72
163972	1780603	Rookie Kevin Swayne will move into the starting lineup.	Rookie Kevin Swayne will move into the starting lineup.	84597575	1474085947779	1474085947863	e	69
163972	1780603	Rookie Kevin Swayne will move into the starting lineup.	Rookie Kevin Swayne will move into the starting lineup.	84597576	1474085947863	1474085947946	 	32
163972	1780603	Rookie Kevin Swayne will move into the starting lineup.	Rookie Kevin Swayne will move into the starting lineup.	84597577	1474085947993	1474085948127	s	83
163972	1780603	Rookie Kevin Swayne will move into the starting lineup.	Rookie Kevin Swayne will move into the starting lineup.	84597578	1474085948111	1474085948230	t	84
163972	1780603	Rookie Kevin Swayne will move into the starting lineup.	Rookie Kevin Swayne will move into the starting lineup.	84597584	1474085948277	1474085948447	a	65
163972	1780603	Rookie Kevin Swayne will move into the starting lineup.	Rookie Kevin Swayne will move into the starting lineup.	84597579	1474085948346	1474085948430	r	82
163972	1780603	Rookie Kevin Swayne will move into the starting lineup.	Rookie Kevin Swayne will move into the starting lineup.	84597587	1474085948532	1474085948639	t	84
163972	1780603	Rookie Kevin Swayne will move into the starting lineup.	Rookie Kevin Swayne will move into the starting lineup.	84597590	1474085948597	1474085948711	i	73
163972	1780603	Rookie Kevin Swayne will move into the starting lineup.	Rookie Kevin Swayne will move into the starting lineup.	84597592	1474085948681	1474085948749	n	78
163972	1780603	Rookie Kevin Swayne will move into the starting lineup.	Rookie Kevin Swayne will move into the starting lineup.	84597594	1474085948764	1474085948871	g	71
163972	1780603	Rookie Kevin Swayne will move into the starting lineup.	Rookie Kevin Swayne will move into the starting lineup.	84597595	1474085948849	1474085948933	 	32
163972	1780603	Rookie Kevin Swayne will move into the starting lineup.	Rookie Kevin Swayne will move into the starting lineup.	84597596	1474085948980	1474085949143	l	76
163972	1780603	Rookie Kevin Swayne will move into the starting lineup.	Rookie Kevin Swayne will move into the starting lineup.	84597597	1474085949111	1474085949223	i	73
163972	1780603	Rookie Kevin Swayne will move into the starting lineup.	Rookie Kevin Swayne will move into the starting lineup.	84597598	1474085949181	1474085949279	n	78
163972	1780603	Rookie Kevin Swayne will move into the starting lineup.	Rookie Kevin Swayne will move into the starting lineup.	84597599	1474085949263	1474085949348	e	69
163972	1780603	Rookie Kevin Swayne will move into the starting lineup.	Rookie Kevin Swayne will move into the starting lineup.	84597600	1474085949474	1474085949631	u	85
163972	1780603	Rookie Kevin Swayne will move into the starting lineup.	Rookie Kevin Swayne will move into the starting lineup.	84597601	1474085949590	1474085949674	p	80
163972	1780603	Rookie Kevin Swayne will move into the starting lineup.	Rookie Kevin Swayne will move into the starting lineup.	84597602	1474085949821	1474085949898	.	190
163972	1780610	Would you please send runner to get this?	Would you please send runner to get this?	84597640	1474085952239	1474085952599	SHIFT	16
163972	1780610	Would you please send runner to get this?	Would you please send runner to get this?	84597642	1474085952471	1474085952620	W	87
163972	1780610	Would you please send runner to get this?	Would you please send runner to get this?	84597644	1474085952575	1474085952677	O	79
163972	1780610	Would you please send runner to get this?	Would you please send runner to get this?	84597645	1474085952635	1474085952708	u	85
163972	1780610	Would you please send runner to get this?	Would you please send runner to get this?	84597646	1474085952775	1474085952851	l	76
163972	1780610	Would you please send runner to get this?	Would you please send runner to get this?	84597647	1474085952871	1474085952975	d	68
163972	1780610	Would you please send runner to get this?	Would you please send runner to get this?	84597674	1474085952991	1474085953047	 	32
163972	1780610	Would you please send runner to get this?	Would you please send runner to get this?	84597676	1474085953157	1474085953203	y	89
163972	1780610	Would you please send runner to get this?	Would you please send runner to get this?	84597678	1474085953737	1474085954584	BKSP	8
163972	1780610	Would you please send runner to get this?	Would you please send runner to get this?	84597680	1474085954621	1474085954824	SHIFT	16
163972	1780610	Would you please send runner to get this?	Would you please send runner to get this?	84597682	1474085954759	1474085954879	W	87
163972	1780610	Would you please send runner to get this?	Would you please send runner to get this?	84597684	1474085954863	1474085954959	o	79
163972	1780610	Would you please send runner to get this?	Would you please send runner to get this?	84597685	1474085954935	1474085955000	u	85
163972	1780610	Would you please send runner to get this?	Would you please send runner to get this?	84597686	1474085955087	1474085955154	l	76
163972	1780610	Would you please send runner to get this?	Would you please send runner to get this?	84597687	1474085955188	1474085955289	d	68
163972	1780610	Would you please send runner to get this?	Would you please send runner to get this?	84597688	1474085955289	1474085955355	 	32
163972	1780610	Would you please send runner to get this?	Would you please send runner to get this?	84597690	1474085955436	1474085955505	y	89
163972	1780610	Would you please send runner to get this?	Would you please send runner to get this?	84597693	1474085955521	1474085955673	o	79
163972	1780610	Would you please send runner to get this?	Would you please send runner to get this?	84597701	1474085955621	1474085955740	u	85
163972	1780610	Would you please send runner to get this?	Would you please send runner to get this?	84597702	1474085955690	1474085955756	 	32
163972	1780610	Would you please send runner to get this?	Would you please send runner to get this?	84597703	1474085955868	1474085955955	p	80
163972	1780610	Would you please send runner to get this?	Would you please send runner to get this?	84597704	1474085956021	1474085956128	l	76
163972	1780610	Would you please send runner to get this?	Would you please send runner to get this?	84597705	1474085956128	1474085956239	e	69
163972	1780610	Would you please send runner to get this?	Would you please send runner to get this?	84597706	1474085956255	1474085956457	a	65
163972	1780610	Would you please send runner to get this?	Would you please send runner to get this?	84597718	1474085956354	1474085956506	s	83
163972	1780610	Would you please send runner to get this?	Would you please send runner to get this?	84597720	1474085956423	1474085956567	e	69
163972	1780610	Would you please send runner to get this?	Would you please send runner to get this?	84597721	1474085956521	1474085956606	 	32
163972	1780610	Would you please send runner to get this?	Would you please send runner to get this?	84597722	1474085956706	1474085956858	s	83
163972	1780610	Would you please send runner to get this?	Would you please send runner to get this?	84597723	1474085956791	1474085956903	e	69
163972	1780610	Would you please send runner to get this?	Would you please send runner to get this?	84597724	1474085956957	1474085957023	n	78
163972	1780610	Would you please send runner to get this?	Would you please send runner to get this?	84597725	1474085957054	1474085957156	d	68
163972	1780610	Would you please send runner to get this?	Would you please send runner to get this?	84597734	1474085957175	1474085957225	 	32
163972	1780610	Would you please send runner to get this?	Would you please send runner to get this?	84597736	1474085957354	1474085957424	r	82
163972	1780610	Would you please send runner to get this?	Would you please send runner to get this?	84597737	1474085957440	1474085957491	u	85
163972	1780610	Would you please send runner to get this?	Would you please send runner to get this?	84597738	1474085957607	1474085957659	n	78
163972	1780610	Would you please send runner to get this?	Would you please send runner to get this?	84597739	1474085957732	1474085957791	n	78
163972	1780610	Would you please send runner to get this?	Would you please send runner to get this?	84597740	1474085957798	1474085957909	e	69
163972	1780610	Would you please send runner to get this?	Would you please send runner to get this?	84597741	1474085957857	1474085957935	r	82
163972	1780610	Would you please send runner to get this?	Would you please send runner to get this?	84597742	1474085957925	1474085957983	 	32
163972	1780610	Would you please send runner to get this?	Would you please send runner to get this?	84597743	1474085958054	1474085958135	t	84
163972	1780610	Would you please send runner to get this?	Would you please send runner to get this?	84597749	1474085958093	1474085958211	o	79
163972	1780610	Would you please send runner to get this?	Would you please send runner to get this?	84597750	1474085958175	1474085958242	 	32
163972	1780610	Would you please send runner to get this?	Would you please send runner to get this?	84597751	1474085958304	1474085958360	g	71
163972	1780610	Would you please send runner to get this?	Would you please send runner to get this?	84597752	1474085958392	1474085958543	e	69
163972	1780610	Would you please send runner to get this?	Would you please send runner to get this?	84597753	1474085958493	1474085958583	t	84
163972	1780610	Would you please send runner to get this?	Would you please send runner to get this?	84597759	1474085958560	1474085958626	 	32
163972	1780610	Would you please send runner to get this?	Would you please send runner to get this?	84597760	1474085958672	1474085958761	t	84
163972	1780610	Would you please send runner to get this?	Would you please send runner to get this?	84597761	1474085958726	1474085958828	h	72
163972	1780610	Would you please send runner to get this?	Would you please send runner to get this?	84597762	1474085958777	1474085958859	i	73
163972	1780610	Would you please send runner to get this?	Would you please send runner to get this?	84597763	1474085958875	1474085958943	s	83
163972	1780610	Would you please send runner to get this?	Would you please send runner to get this?	84597765	1474085958974	1474085959226	SHIFT	16
163972	1780610	Would you please send runner to get this?	Would you please send runner to get this?	84597764	1474085959087	1474085959159	?	191
163972	1780611	Can you call me at home?	Can you call me at home?	84597803	1474085961524	1474085961762	SHIFT	16
163972	1780611	Can you call me at home?	Can you call me at home?	84597804	1474085961696	1474085961823	C	67
163972	1780611	Can you call me at home?	Can you call me at home?	84597805	1474085961807	1474085961926	a	65
163972	1780611	Can you call me at home?	Can you call me at home?	84597806	1474085961903	1474085961946	n	78
163972	1780611	Can you call me at home?	Can you call me at home?	84597807	1474085962024	1474085962114	 	32
163972	1780611	Can you call me at home?	Can you call me at home?	84597808	1474085962518	1474085962581	y	89
163972	1780611	Can you call me at home?	Can you call me at home?	84597809	1474085962607	1474085962727	o	79
163972	1780611	Can you call me at home?	Can you call me at home?	84597810	1474085962695	1474085962818	u	85
163972	1780611	Can you call me at home?	Can you call me at home?	84597811	1474085962749	1474085962834	 	32
163972	1780611	Can you call me at home?	Can you call me at home?	84597812	1474085962896	1474085963032	c	67
163972	1780611	Can you call me at home?	Can you call me at home?	84597823	1474085962980	1474085963134	a	65
163972	1780611	Can you call me at home?	Can you call me at home?	84597824	1474085963075	1474085963149	l	76
163972	1780611	Can you call me at home?	Can you call me at home?	84597825	1474085963219	1474085963319	l	76
163972	1780611	Can you call me at home?	Can you call me at home?	84597826	1474085963335	1474085963419	 	32
163972	1780611	Can you call me at home?	Can you call me at home?	84597827	1474085963739	1474085963816	m	77
163972	1780611	Can you call me at home?	Can you call me at home?	84597828	1474085963855	1474085963955	e	69
163972	1780611	Can you call me at home?	Can you call me at home?	84597829	1474085963970	1474085964026	 	32
163972	1780611	Can you call me at home?	Can you call me at home?	84597830	1474085964104	1474085964233	a	65
163972	1780611	Can you call me at home?	Can you call me at home?	84597831	1474085964183	1474085964304	t	84
163972	1780611	Can you call me at home?	Can you call me at home?	84597832	1474085964280	1474085964364	 	32
163972	1780611	Can you call me at home?	Can you call me at home?	84597833	1474085964533	1474085964696	o	79
163972	1780611	Can you call me at home?	Can you call me at home?	84597835	1474085964708	1474085964783	m	77
163972	1780611	Can you call me at home?	Can you call me at home?	84597837	1474085965032	1474085965085	BKSP	8
163972	1780611	Can you call me at home?	Can you call me at home?	84597839	1474085965166	1474085965218	BKSP	8
163972	1780611	Can you call me at home?	Can you call me at home?	84597841	1474085965334	1474085965417	h	72
163972	1780611	Can you call me at home?	Can you call me at home?	84597843	1474085965435	1474085965570	o	79
163972	1780611	Can you call me at home?	Can you call me at home?	84597844	1474085965535	1474085965632	m	77
163972	1780611	Can you call me at home?	Can you call me at home?	84597845	1474085965570	1474085965644	e	69
163972	1780611	Can you call me at home?	Can you call me at home?	84597847	1474085965707	1474085966236	SHIFT	16
163972	1780611	Can you call me at home?	Can you call me at home?	84597846	1474085965982	1474085966114	?	191
163972	1780613	He said he was not aware he suffered from it.	He said he was not aware he suffered from it.	84597869	1474085968437	1474085968605	SHIFT	16
163972	1780613	He said he was not aware he suffered from it.	He said he was not aware he suffered from it.	84597870	1474085968558	1474085968621	H	72
163972	1780613	He said he was not aware he suffered from it.	He said he was not aware he suffered from it.	84597871	1474085968661	1474085968759	e	69
163972	1780613	He said he was not aware he suffered from it.	He said he was not aware he suffered from it.	84597872	1474085968759	1474085968822	 	32
163972	1780613	He said he was not aware he suffered from it.	He said he was not aware he suffered from it.	84597873	1474085968921	1474085969091	s	83
163972	1780613	He said he was not aware he suffered from it.	He said he was not aware he suffered from it.	84597875	1474085969064	1474085969160	a	65
163972	1780613	He said he was not aware he suffered from it.	He said he was not aware he suffered from it.	84597877	1474085969131	1474085969207	i	73
163972	1780613	He said he was not aware he suffered from it.	He said he was not aware he suffered from it.	84597879	1474085969264	1474085969345	d	68
163972	1780613	He said he was not aware he suffered from it.	He said he was not aware he suffered from it.	84597880	1474085969329	1474085969406	 	32
163972	1780613	He said he was not aware he suffered from it.	He said he was not aware he suffered from it.	84597882	1474085969470	1474085969523	h	72
163972	1780613	He said he was not aware he suffered from it.	He said he was not aware he suffered from it.	84597883	1474085969604	1474085969689	e	69
163972	1780613	He said he was not aware he suffered from it.	He said he was not aware he suffered from it.	84597885	1474085969739	1474085969806	 	32
163972	1780613	He said he was not aware he suffered from it.	He said he was not aware he suffered from it.	84597886	1474085970222	1474085970327	w	87
163972	1780613	He said he was not aware he suffered from it.	He said he was not aware he suffered from it.	84597887	1474085970343	1474085970552	a	65
163972	1780613	He said he was not aware he suffered from it.	He said he was not aware he suffered from it.	84597893	1474085970453	1474085970575	s	83
163972	1780613	He said he was not aware he suffered from it.	He said he was not aware he suffered from it.	84597894	1474085970524	1474085970606	 	32
163972	1780613	He said he was not aware he suffered from it.	He said he was not aware he suffered from it.	84597895	1474085970672	1474085970792	n	78
163972	1780613	He said he was not aware he suffered from it.	He said he was not aware he suffered from it.	84597896	1474085970741	1474085970839	o	79
163972	1780613	He said he was not aware he suffered from it.	He said he was not aware he suffered from it.	84597897	1474085970839	1474085970923	t	84
163972	1780613	He said he was not aware he suffered from it.	He said he was not aware he suffered from it.	84597898	1474085970939	1474085971022	 	32
163972	1780613	He said he was not aware he suffered from it.	He said he was not aware he suffered from it.	84597899	1474085971091	1474085971210	a	65
163972	1780613	He said he was not aware he suffered from it.	He said he was not aware he suffered from it.	84597903	1474085971308	1474085971439	w	87
163972	1780613	He said he was not aware he suffered from it.	He said he was not aware he suffered from it.	84597905	1474085971476	1474085971643	a	65
163972	1780613	He said he was not aware he suffered from it.	He said he was not aware he suffered from it.	84597906	1474085971592	1474085971759	r	82
163972	1780613	He said he was not aware he suffered from it.	He said he was not aware he suffered from it.	84597908	1474085971708	1474085971827	e	69
163972	1780613	He said he was not aware he suffered from it.	He said he was not aware he suffered from it.	84597909	1474085971778	1474085971894	 	32
163972	1780613	He said he was not aware he suffered from it.	He said he was not aware he suffered from it.	84597910	1474085971956	1474085972025	h	72
163972	1780613	He said he was not aware he suffered from it.	He said he was not aware he suffered from it.	84597911	1474085972057	1474085972140	e	69
163972	1780613	He said he was not aware he suffered from it.	He said he was not aware he suffered from it.	84597912	1474085972176	1474085972227	 	32
163972	1780613	He said he was not aware he suffered from it.	He said he was not aware he suffered from it.	84597913	1474085972448	1474085972541	s	83
163972	1780613	He said he was not aware he suffered from it.	He said he was not aware he suffered from it.	84597914	1474085972541	1474085972601	u	85
163972	1780613	He said he was not aware he suffered from it.	He said he was not aware he suffered from it.	84597915	1474085972764	1474085972857	f	70
163972	1780613	He said he was not aware he suffered from it.	He said he was not aware he suffered from it.	84597916	1474085972948	1474085973048	f	70
163972	1780613	He said he was not aware he suffered from it.	He said he was not aware he suffered from it.	84597917	1474085973133	1474085973232	e	69
163972	1780613	He said he was not aware he suffered from it.	He said he was not aware he suffered from it.	84597918	1474085973202	1474085973302	r	82
163972	1780613	He said he was not aware he suffered from it.	He said he was not aware he suffered from it.	84597919	1474085973302	1474085973386	e	69
163972	1780613	He said he was not aware he suffered from it.	He said he was not aware he suffered from it.	84597920	1474085973486	1474085973586	d	68
163972	1780613	He said he was not aware he suffered from it.	He said he was not aware he suffered from it.	84597921	1474085973586	1474085973644	 	32
163972	1780613	He said he was not aware he suffered from it.	He said he was not aware he suffered from it.	84597922	1474085973704	1474085973746	f	70
163972	1780613	He said he was not aware he suffered from it.	He said he was not aware he suffered from it.	84597923	1474085973866	1474085973984	r	82
163972	1780613	He said he was not aware he suffered from it.	He said he was not aware he suffered from it.	84597924	1474085973929	1474085974046	o	79
163972	1780613	He said he was not aware he suffered from it.	He said he was not aware he suffered from it.	84597925	1474085974012	1474085974136	m	77
163972	1780613	He said he was not aware he suffered from it.	He said he was not aware he suffered from it.	84597926	1474085974088	1474085974162	 	32
163972	1780613	He said he was not aware he suffered from it.	He said he was not aware he suffered from it.	84597927	1474085974190	1474085974262	i	73
163972	1780613	He said he was not aware he suffered from it.	He said he was not aware he suffered from it.	84597929	1474085974262	1474085974343	t	84
163972	1780613	He said he was not aware he suffered from it.	He said he was not aware he suffered from it.	84597931	1474085974392	1474085974469	.	190
163972	1780614	Jeff, attached is my resume.	Jeff, attached is my resume.	84597964	1474085977413	1474085979832	SHIFT	16
163972	1780614	Jeff, attached is my resume.	Jeff, attached is my resume.	84597965	1474085979799	1474085979899	J	74
163972	1780614	Jeff, attached is my resume.	Jeff, attached is my resume.	84597967	1474085979945	1474085980045	e	69
163972	1780614	Jeff, attached is my resume.	Jeff, attached is my resume.	84597969	1474085980128	1474085980185	f	70
163972	1780614	Jeff, attached is my resume.	Jeff, attached is my resume.	84597973	1474085980276	1474085980376	f	70
163972	1780614	Jeff, attached is my resume.	Jeff, attached is my resume.	84597976	1474085980408	1474085980512	,	188
163972	1780614	Jeff, attached is my resume.	Jeff, attached is my resume.	84597983	1474085980483	1474085980530	 	32
163972	1780614	Jeff, attached is my resume.	Jeff, attached is my resume.	84597984	1474085980793	1474085980917	a	65
163972	1780614	Jeff, attached is my resume.	Jeff, attached is my resume.	84597985	1474085980935	1474085980986	t	84
163972	1780614	Jeff, attached is my resume.	Jeff, attached is my resume.	84597986	1474085981068	1474085981168	t	84
163972	1780614	Jeff, attached is my resume.	Jeff, attached is my resume.	84597987	1474085981199	1474085981285	a	65
163972	1780614	Jeff, attached is my resume.	Jeff, attached is my resume.	84597988	1474085981374	1474085981446	c	67
163972	1780614	Jeff, attached is my resume.	Jeff, attached is my resume.	84597989	1474085981543	1474085981604	h	72
163972	1780614	Jeff, attached is my resume.	Jeff, attached is my resume.	84597990	1474085981643	1474085981703	e	69
163972	1780614	Jeff, attached is my resume.	Jeff, attached is my resume.	84597991	1474085981821	1474085981920	d	68
163972	1780614	Jeff, attached is my resume.	Jeff, attached is my resume.	84597992	1474085981887	1474085981951	 	32
163972	1780614	Jeff, attached is my resume.	Jeff, attached is my resume.	84597993	1474085981998	1474085982071	i	73
163972	1780614	Jeff, attached is my resume.	Jeff, attached is my resume.	84597994	1474085982091	1474085982200	s	83
163972	1780614	Jeff, attached is my resume.	Jeff, attached is my resume.	84597995	1474085982178	1474085982263	 	32
163972	1780614	Jeff, attached is my resume.	Jeff, attached is my resume.	84597996	1474085982326	1474085982405	m	77
163972	1780614	Jeff, attached is my resume.	Jeff, attached is my resume.	84597997	1474085982526	1474085982648	y	89
163972	1780614	Jeff, attached is my resume.	Jeff, attached is my resume.	84598003	1474085982589	1474085982675	 	32
163972	1780614	Jeff, attached is my resume.	Jeff, attached is my resume.	84598004	1474085982722	1474085982832	r	82
163972	1780614	Jeff, attached is my resume.	Jeff, attached is my resume.	84598005	1474085982787	1474085982863	e	69
163972	1780614	Jeff, attached is my resume.	Jeff, attached is my resume.	84598006	1474085982979	1474085983072	s	83
163972	1780614	Jeff, attached is my resume.	Jeff, attached is my resume.	84598007	1474085983048	1474085983106	u	85
163972	1780614	Jeff, attached is my resume.	Jeff, attached is my resume.	84598008	1474085983399	1474085983483	m	77
163972	1780614	Jeff, attached is my resume.	Jeff, attached is my resume.	84598010	1474085983524	1474085983605	e	69
163972	1780614	Jeff, attached is my resume.	Jeff, attached is my resume.	84598011	1474085983648	1474085983721	.	190
163972	1780617	Edwards said Chrebet passed the various tests and scans he was given.	Edwards said Chrebet passed the various tests and scans he was given.	84598103	1474085991897	1474085992182	SHIFT	16
163972	1780617	Edwards said Chrebet passed the various tests and scans he was given.	Edwards said Chrebet passed the various tests and scans he was given.	84598104	1474085992099	1474085992199	E	69
163972	1780617	Edwards said Chrebet passed the various tests and scans he was given.	Edwards said Chrebet passed the various tests and scans he was given.	84598107	1474085992315	1474085992399	d	68
163972	1780617	Edwards said Chrebet passed the various tests and scans he was given.	Edwards said Chrebet passed the various tests and scans he was given.	84598110	1474085992630	1474085992715	w	87
163972	1780617	Edwards said Chrebet passed the various tests and scans he was given.	Edwards said Chrebet passed the various tests and scans he was given.	84598132	1474085992762	1474085992921	a	65
163972	1780617	Edwards said Chrebet passed the various tests and scans he was given.	Edwards said Chrebet passed the various tests and scans he was given.	84598113	1474085992864	1474085992901	s	83
163972	1780617	Edwards said Chrebet passed the various tests and scans he was given.	Edwards said Chrebet passed the various tests and scans he was given.	84598133	1474085993232	1474085993333	BKSP	8
163972	1780617	Edwards said Chrebet passed the various tests and scans he was given.	Edwards said Chrebet passed the various tests and scans he was given.	84598134	1474085993348	1474085993479	r	82
163972	1780617	Edwards said Chrebet passed the various tests and scans he was given.	Edwards said Chrebet passed the various tests and scans he was given.	84598135	1474085993479	1474085993650	d	68
163972	1780617	Edwards said Chrebet passed the various tests and scans he was given.	Edwards said Chrebet passed the various tests and scans he was given.	84598136	1474085993582	1474085993716	s	83
163972	1780617	Edwards said Chrebet passed the various tests and scans he was given.	Edwards said Chrebet passed the various tests and scans he was given.	84598137	1474085993765	1474085993880	 	32
163972	1780617	Edwards said Chrebet passed the various tests and scans he was given.	Edwards said Chrebet passed the various tests and scans he was given.	84598138	1474085994067	1474085994219	s	83
163972	1780617	Edwards said Chrebet passed the various tests and scans he was given.	Edwards said Chrebet passed the various tests and scans he was given.	84598157	1474085994182	1474085994283	a	65
163972	1780617	Edwards said Chrebet passed the various tests and scans he was given.	Edwards said Chrebet passed the various tests and scans he was given.	84598159	1474085994304	1474085994366	i	73
163972	1780617	Edwards said Chrebet passed the various tests and scans he was given.	Edwards said Chrebet passed the various tests and scans he was given.	84598160	1474085994404	1474085994509	d	68
163972	1780617	Edwards said Chrebet passed the various tests and scans he was given.	Edwards said Chrebet passed the various tests and scans he was given.	84598161	1474085994509	1474085994583	 	32
163972	1780617	Edwards said Chrebet passed the various tests and scans he was given.	Edwards said Chrebet passed the various tests and scans he was given.	84598162	1474085994837	1474085995152	SHIFT	16
163972	1780617	Edwards said Chrebet passed the various tests and scans he was given.	Edwards said Chrebet passed the various tests and scans he was given.	84598163	1474085995080	1474085995199	C	67
163972	1780617	Edwards said Chrebet passed the various tests and scans he was given.	Edwards said Chrebet passed the various tests and scans he was given.	84598164	1474085995282	1474085995368	h	72
163972	1780617	Edwards said Chrebet passed the various tests and scans he was given.	Edwards said Chrebet passed the various tests and scans he was given.	84598165	1474085995482	1474085995632	r	82
163972	1780617	Edwards said Chrebet passed the various tests and scans he was given.	Edwards said Chrebet passed the various tests and scans he was given.	84598166	1474085995600	1474085995700	e	69
163972	1780617	Edwards said Chrebet passed the various tests and scans he was given.	Edwards said Chrebet passed the various tests and scans he was given.	84598167	1474085995782	1474085995868	b	66
163972	1780617	Edwards said Chrebet passed the various tests and scans he was given.	Edwards said Chrebet passed the various tests and scans he was given.	84598168	1474085995883	1474085995999	e	69
163972	1780617	Edwards said Chrebet passed the various tests and scans he was given.	Edwards said Chrebet passed the various tests and scans he was given.	84598169	1474085995999	1474085996096	t	84
163972	1780617	Edwards said Chrebet passed the various tests and scans he was given.	Edwards said Chrebet passed the various tests and scans he was given.	84598178	1474085996053	1474085996137	 	32
163972	1780617	Edwards said Chrebet passed the various tests and scans he was given.	Edwards said Chrebet passed the various tests and scans he was given.	84598180	1474085996298	1474085996401	p	80
163972	1780617	Edwards said Chrebet passed the various tests and scans he was given.	Edwards said Chrebet passed the various tests and scans he was given.	84598182	1474085996483	1474085996632	a	65
163972	1780617	Edwards said Chrebet passed the various tests and scans he was given.	Edwards said Chrebet passed the various tests and scans he was given.	84598183	1474085996621	1474085996752	s	83
163972	1780617	Edwards said Chrebet passed the various tests and scans he was given.	Edwards said Chrebet passed the various tests and scans he was given.	84598184	1474085996837	1474085996983	s	83
163972	1780617	Edwards said Chrebet passed the various tests and scans he was given.	Edwards said Chrebet passed the various tests and scans he was given.	84598185	1474085996999	1474085997070	e	69
163972	1780617	Edwards said Chrebet passed the various tests and scans he was given.	Edwards said Chrebet passed the various tests and scans he was given.	84598186	1474085997153	1474085997296	d	68
163972	1780617	Edwards said Chrebet passed the various tests and scans he was given.	Edwards said Chrebet passed the various tests and scans he was given.	84598187	1474085997269	1474085997323	 	32
163972	1780617	Edwards said Chrebet passed the various tests and scans he was given.	Edwards said Chrebet passed the various tests and scans he was given.	84598188	1474085997385	1474085997454	t	84
163972	1780617	Edwards said Chrebet passed the various tests and scans he was given.	Edwards said Chrebet passed the various tests and scans he was given.	84598190	1474085997454	1474085997538	h	72
163972	1780617	Edwards said Chrebet passed the various tests and scans he was given.	Edwards said Chrebet passed the various tests and scans he was given.	84598192	1474085997554	1474085997638	e	69
163972	1780617	Edwards said Chrebet passed the various tests and scans he was given.	Edwards said Chrebet passed the various tests and scans he was given.	84598196	1474085997656	1474085997720	 	32
163972	1780617	Edwards said Chrebet passed the various tests and scans he was given.	Edwards said Chrebet passed the various tests and scans he was given.	84598197	1474085997801	1474085997892	v	86
163972	1780617	Edwards said Chrebet passed the various tests and scans he was given.	Edwards said Chrebet passed the various tests and scans he was given.	84598198	1474085997920	1474085998039	a	65
163972	1780617	Edwards said Chrebet passed the various tests and scans he was given.	Edwards said Chrebet passed the various tests and scans he was given.	84598199	1474085998123	1474085998216	r	82
163972	1780617	Edwards said Chrebet passed the various tests and scans he was given.	Edwards said Chrebet passed the various tests and scans he was given.	84598200	1474085998173	1474085998372	i	73
163972	1780617	Edwards said Chrebet passed the various tests and scans he was given.	Edwards said Chrebet passed the various tests and scans he was given.	84598201	1474085998306	1474085998424	o	79
163972	1780617	Edwards said Chrebet passed the various tests and scans he was given.	Edwards said Chrebet passed the various tests and scans he was given.	84598202	1474085998388	1474085998472	u	85
163972	1780617	Edwards said Chrebet passed the various tests and scans he was given.	Edwards said Chrebet passed the various tests and scans he was given.	84598205	1474085998440	1474085998527	s	83
163972	1780617	Edwards said Chrebet passed the various tests and scans he was given.	Edwards said Chrebet passed the various tests and scans he was given.	84598208	1474085998543	1474085998630	 	32
163972	1780617	Edwards said Chrebet passed the various tests and scans he was given.	Edwards said Chrebet passed the various tests and scans he was given.	84598212	1474085998661	1474085998761	t	84
163972	1780617	Edwards said Chrebet passed the various tests and scans he was given.	Edwards said Chrebet passed the various tests and scans he was given.	84598217	1474085998804	1474085998968	e	69
163972	1780617	Edwards said Chrebet passed the various tests and scans he was given.	Edwards said Chrebet passed the various tests and scans he was given.	84598218	1474085998928	1474085999072	s	83
163972	1780617	Edwards said Chrebet passed the various tests and scans he was given.	Edwards said Chrebet passed the various tests and scans he was given.	84598219	1474085999030	1474085999167	t	84
163972	1780617	Edwards said Chrebet passed the various tests and scans he was given.	Edwards said Chrebet passed the various tests and scans he was given.	84598220	1474085999145	1474085999277	s	83
163972	1780617	Edwards said Chrebet passed the various tests and scans he was given.	Edwards said Chrebet passed the various tests and scans he was given.	84598221	1474085999292	1474085999371	 	32
163972	1780617	Edwards said Chrebet passed the various tests and scans he was given.	Edwards said Chrebet passed the various tests and scans he was given.	84598222	1474085999436	1474085999528	a	65
163972	1780617	Edwards said Chrebet passed the various tests and scans he was given.	Edwards said Chrebet passed the various tests and scans he was given.	84598223	1474085999490	1474085999558	n	78
163972	1780617	Edwards said Chrebet passed the various tests and scans he was given.	Edwards said Chrebet passed the various tests and scans he was given.	84598224	1474085999604	1474085999688	d	68
163972	1780617	Edwards said Chrebet passed the various tests and scans he was given.	Edwards said Chrebet passed the various tests and scans he was given.	84598225	1474085999704	1474085999757	 	32
163972	1780617	Edwards said Chrebet passed the various tests and scans he was given.	Edwards said Chrebet passed the various tests and scans he was given.	84598226	1474085999820	1474085999890	s	83
163972	1780617	Edwards said Chrebet passed the various tests and scans he was given.	Edwards said Chrebet passed the various tests and scans he was given.	84598227	1474085999974	1474086000104	c	67
163972	1780617	Edwards said Chrebet passed the various tests and scans he was given.	Edwards said Chrebet passed the various tests and scans he was given.	84598228	1474086000072	1474086000199	a	65
163972	1780617	Edwards said Chrebet passed the various tests and scans he was given.	Edwards said Chrebet passed the various tests and scans he was given.	84598229	1474086000188	1474086000232	n	78
163972	1780617	Edwards said Chrebet passed the various tests and scans he was given.	Edwards said Chrebet passed the various tests and scans he was given.	84598230	1474086000304	1474086000432	s	83
163972	1780617	Edwards said Chrebet passed the various tests and scans he was given.	Edwards said Chrebet passed the various tests and scans he was given.	84598243	1474086000405	1474086000459	 	32
163972	1780617	Edwards said Chrebet passed the various tests and scans he was given.	Edwards said Chrebet passed the various tests and scans he was given.	84598244	1474086000596	1474086000659	h	72
163972	1780617	Edwards said Chrebet passed the various tests and scans he was given.	Edwards said Chrebet passed the various tests and scans he was given.	84598245	1474086000789	1474086000873	e	69
163972	1780617	Edwards said Chrebet passed the various tests and scans he was given.	Edwards said Chrebet passed the various tests and scans he was given.	84598246	1474086000920	1474086000975	 	32
163972	1780617	Edwards said Chrebet passed the various tests and scans he was given.	Edwards said Chrebet passed the various tests and scans he was given.	84598247	1474086001073	1474086001159	w	87
163972	1780617	Edwards said Chrebet passed the various tests and scans he was given.	Edwards said Chrebet passed the various tests and scans he was given.	84598248	1474086001221	1474086001400	a	65
163972	1780617	Edwards said Chrebet passed the various tests and scans he was given.	Edwards said Chrebet passed the various tests and scans he was given.	84598254	1474086001275	1474086001424	s	83
163972	1780617	Edwards said Chrebet passed the various tests and scans he was given.	Edwards said Chrebet passed the various tests and scans he was given.	84598255	1474086001376	1474086001444	 	32
163972	1780617	Edwards said Chrebet passed the various tests and scans he was given.	Edwards said Chrebet passed the various tests and scans he was given.	84598256	1474086001522	1474086001577	g	71
163972	1780617	Edwards said Chrebet passed the various tests and scans he was given.	Edwards said Chrebet passed the various tests and scans he was given.	84598257	1474086001608	1474086001676	i	73
163972	1780617	Edwards said Chrebet passed the various tests and scans he was given.	Edwards said Chrebet passed the various tests and scans he was given.	84598258	1474086001745	1474086001856	v	86
163972	1780617	Edwards said Chrebet passed the various tests and scans he was given.	Edwards said Chrebet passed the various tests and scans he was given.	84598259	1474086001845	1474086001961	e	69
163972	1780617	Edwards said Chrebet passed the various tests and scans he was given.	Edwards said Chrebet passed the various tests and scans he was given.	84598260	1474086002007	1474086002064	n	78
163972	1780617	Edwards said Chrebet passed the various tests and scans he was given.	Edwards said Chrebet passed the various tests and scans he was given.	84598261	1474086002181	1474086002280	.	190
