PARTICIPANT_ID	TEST_SECTION_ID	SENTENCE	USER_INPUT	KEYSTROKE_ID	PRESS_TIME	RELEASE_TIME	LETTER	KEYCODE
167194	1816176	Check with Vince Strohmeyer.	Check with Vince Strohmeyer.	86299311	1474154509561	1474154509894	SHIFT	16
167194	1816176	Check with Vince Strohmeyer.	Check with Vince Strohmeyer.	86299312	1474154509831	1474154509902	C	67
167194	1816176	Check with Vince Strohmeyer.	Check with Vince Strohmeyer.	86299313	1474154510015	1474154510102	h	72
167194	1816176	Check with Vince Strohmeyer.	Check with Vince Strohmeyer.	86299314	1474154510095	1474154510174	e	69
167194	1816176	Check with Vince Strohmeyer.	Check with Vince Strohmeyer.	86299315	1474154510239	1474154510350	c	67
167194	1816176	Check with Vince Strohmeyer.	Check with Vince Strohmeyer.	86299317	1474154510360	1474154510493	k	75
167194	1816176	Check with Vince Strohmeyer.	Check with Vince Strohmeyer.	86299330	1474154510487	1474154510638	 	32
167194	1816176	Check with Vince Strohmeyer.	Check with Vince Strohmeyer.	86299332	1474154510743	1474154510846	w	87
167194	1816176	Check with Vince Strohmeyer.	Check with Vince Strohmeyer.	86299333	1474154510815	1474154510942	i	73
167194	1816176	Check with Vince Strohmeyer.	Check with Vince Strohmeyer.	86299334	1474154510935	1474154510960	t	84
167194	1816176	Check with Vince Strohmeyer.	Check with Vince Strohmeyer.	86299335	1474154511063	1474154511150	h	72
167194	1816176	Check with Vince Strohmeyer.	Check with Vince Strohmeyer.	86299336	1474154511158	1474154511294	 	32
167194	1816176	Check with Vince Strohmeyer.	Check with Vince Strohmeyer.	86299359	1474154511310	1474154511494	SHIFT	16
167194	1816176	Check with Vince Strohmeyer.	Check with Vince Strohmeyer.	86299360	1474154511407	1474154511502	V	86
167194	1816176	Check with Vince Strohmeyer.	Check with Vince Strohmeyer.	86299363	1474154511551	1474154511622	i	73
167194	1816176	Check with Vince Strohmeyer.	Check with Vince Strohmeyer.	86299366	1474154511711	1474154511806	n	78
167194	1816176	Check with Vince Strohmeyer.	Check with Vince Strohmeyer.	86299368	1474154511751	1474154511885	c	67
167194	1816176	Check with Vince Strohmeyer.	Check with Vince Strohmeyer.	86299376	1474154511863	1474154511966	e	69
167194	1816176	Check with Vince Strohmeyer.	Check with Vince Strohmeyer.	86299377	1474154511918	1474154512062	 	32
167194	1816176	Check with Vince Strohmeyer.	Check with Vince Strohmeyer.	86299380	1474154511990	1474154512214	SHIFT	16
167194	1816176	Check with Vince Strohmeyer.	Check with Vince Strohmeyer.	86299378	1474154512095	1474154512190	S	83
167194	1816176	Check with Vince Strohmeyer.	Check with Vince Strohmeyer.	86299382	1474154512342	1474154512398	t	84
167194	1816176	Check with Vince Strohmeyer.	Check with Vince Strohmeyer.	86299384	1474154512687	1474154512775	r	82
167194	1816176	Check with Vince Strohmeyer.	Check with Vince Strohmeyer.	86299391	1474154512759	1474154512910	o	79
167194	1816176	Check with Vince Strohmeyer.	Check with Vince Strohmeyer.	86299393	1474154512935	1474154513022	h	72
167194	1816176	Check with Vince Strohmeyer.	Check with Vince Strohmeyer.	86299395	1474154513079	1474154513214	m	77
167194	1816176	Check with Vince Strohmeyer.	Check with Vince Strohmeyer.	86299397	1474154513223	1474154513302	e	69
167194	1816176	Check with Vince Strohmeyer.	Check with Vince Strohmeyer.	86299398	1474154513407	1474154513437	t	84
167194	1816176	Check with Vince Strohmeyer.	Check with Vince Strohmeyer.	86299416	1474154513431	1474154513486	e	69
167194	1816176	Check with Vince Strohmeyer.	Check with Vince Strohmeyer.	86299418	1474154513599	1474154513710	BKSP	8
167194	1816176	Check with Vince Strohmeyer.	Check with Vince Strohmeyer.	86299421	1474154513718	1474154513790	y	89
167194	1816176	Check with Vince Strohmeyer.	Check with Vince Strohmeyer.	86299424	1474154513846	1474154513902	BKSP	8
167194	1816176	Check with Vince Strohmeyer.	Check with Vince Strohmeyer.	86299427	1474154513983	1474154514054	y	8
167194	1816176	Check with Vince Strohmeyer.	Check with Vince Strohmeyer.	86299431	1474154514063	1474154514222	e	69
167194	1816176	Check with Vince Strohmeyer.	Check with Vince Strohmeyer.	86299436	1474154514151	1474154514246	r	82
167194	1816176	Check with Vince Strohmeyer.	Check with Vince Strohmeyer.	86299437	1474154514415	1474154514542	.	190
167194	1816181	I will be out on Friday, but any other day is fine.	I will be out on Friday, but any other day is fine.	86299713	1474154532159	1474154532397	SHIFT	16
167194	1816181	I will be out on Friday, but any other day is fine.	I will be out on Friday, but any other day is fine.	86299711	1474154532278	1474154532390	I	73
167194	1816181	I will be out on Friday, but any other day is fine.	I will be out on Friday, but any other day is fine.	86299715	1474154532406	1474154532542	 	32
167194	1816181	I will be out on Friday, but any other day is fine.	I will be out on Friday, but any other day is fine.	86299716	1474154532494	1474154532614	w	87
167194	1816181	I will be out on Friday, but any other day is fine.	I will be out on Friday, but any other day is fine.	86299722	1474154532559	1474154532713	i	73
167194	1816181	I will be out on Friday, but any other day is fine.	I will be out on Friday, but any other day is fine.	86299717	1474154532654	1474154532709	l	76
167194	1816181	I will be out on Friday, but any other day is fine.	I will be out on Friday, but any other day is fine.	86299725	1474154532782	1474154532918	l	76
167194	1816181	I will be out on Friday, but any other day is fine.	I will be out on Friday, but any other day is fine.	86299729	1474154532878	1474154532998	 	32
167194	1816181	I will be out on Friday, but any other day is fine.	I will be out on Friday, but any other day is fine.	86299731	1474154533007	1474154533117	b	66
167194	1816181	I will be out on Friday, but any other day is fine.	I will be out on Friday, but any other day is fine.	86299733	1474154533070	1474154533150	e	69
167194	1816181	I will be out on Friday, but any other day is fine.	I will be out on Friday, but any other day is fine.	86299735	1474154533166	1474154533253	 	32
167194	1816181	I will be out on Friday, but any other day is fine.	I will be out on Friday, but any other day is fine.	86299737	1474154533294	1474154533398	o	79
167194	1816181	I will be out on Friday, but any other day is fine.	I will be out on Friday, but any other day is fine.	86299739	1474154533470	1474154533581	u	85
167194	1816181	I will be out on Friday, but any other day is fine.	I will be out on Friday, but any other day is fine.	86299741	1474154533551	1474154533649	t	84
167194	1816181	I will be out on Friday, but any other day is fine.	I will be out on Friday, but any other day is fine.	86299744	1474154533630	1474154533729	 	32
167194	1816181	I will be out on Friday, but any other day is fine.	I will be out on Friday, but any other day is fine.	86299752	1474154533726	1474154533814	o	79
167194	1816181	I will be out on Friday, but any other day is fine.	I will be out on Friday, but any other day is fine.	86299753	1474154533894	1474154533974	n	78
167194	1816181	I will be out on Friday, but any other day is fine.	I will be out on Friday, but any other day is fine.	86299754	1474154533934	1474154534038	 	32
167194	1816181	I will be out on Friday, but any other day is fine.	I will be out on Friday, but any other day is fine.	86299756	1474154534054	1474154534230	SHIFT	16
167194	1816181	I will be out on Friday, but any other day is fine.	I will be out on Friday, but any other day is fine.	86299755	1474154534126	1474154534222	F	70
167194	1816181	I will be out on Friday, but any other day is fine.	I will be out on Friday, but any other day is fine.	86299757	1474154534302	1474154534390	r	82
167194	1816181	I will be out on Friday, but any other day is fine.	I will be out on Friday, but any other day is fine.	86299758	1474154534406	1474154534541	i	73
167194	1816181	I will be out on Friday, but any other day is fine.	I will be out on Friday, but any other day is fine.	86299778	1474154534486	1474154534566	e	69
167194	1816181	I will be out on Friday, but any other day is fine.	I will be out on Friday, but any other day is fine.	86299780	1474154534678	1474154534772	d	68
167194	1816181	I will be out on Friday, but any other day is fine.	I will be out on Friday, but any other day is fine.	86299782	1474154534758	1474154534845	a	65
167194	1816181	I will be out on Friday, but any other day is fine.	I will be out on Friday, but any other day is fine.	86299784	1474154534926	1474154535014	BKSP	8
167194	1816181	I will be out on Friday, but any other day is fine.	I will be out on Friday, but any other day is fine.	86299786	1474154535086	1474154535141	BKSP	8
167194	1816181	I will be out on Friday, but any other day is fine.	I will be out on Friday, but any other day is fine.	86299788	1474154535206	1474154535310	BKSP	8
167194	1816181	I will be out on Friday, but any other day is fine.	I will be out on Friday, but any other day is fine.	86299790	1474154535238	1474154535341	d	68
167194	1816181	I will be out on Friday, but any other day is fine.	I will be out on Friday, but any other day is fine.	86299792	1474154535334	1474154535429	a	65
167194	1816181	I will be out on Friday, but any other day is fine.	I will be out on Friday, but any other day is fine.	86299794	1474154535486	1474154535597	y	89
167194	1816181	I will be out on Friday, but any other day is fine.	I will be out on Friday, but any other day is fine.	86299801	1474154535590	1474154535717	,	188
167194	1816181	I will be out on Friday, but any other day is fine.	I will be out on Friday, but any other day is fine.	86299803	1474154535702	1474154535806	 	32
167194	1816181	I will be out on Friday, but any other day is fine.	I will be out on Friday, but any other day is fine.	86299805	1474154535870	1474154535965	b	66
167194	1816181	I will be out on Friday, but any other day is fine.	I will be out on Friday, but any other day is fine.	86299807	1474154535974	1474154536090	u	85
167194	1816181	I will be out on Friday, but any other day is fine.	I will be out on Friday, but any other day is fine.	86299809	1474154536070	1474154536181	t	84
167194	1816181	I will be out on Friday, but any other day is fine.	I will be out on Friday, but any other day is fine.	86299810	1474154536158	1474154536269	 	32
167194	1816181	I will be out on Friday, but any other day is fine.	I will be out on Friday, but any other day is fine.	86299811	1474154536286	1474154536405	a	65
167194	1816181	I will be out on Friday, but any other day is fine.	I will be out on Friday, but any other day is fine.	86299812	1474154536390	1474154536509	n	78
167194	1816181	I will be out on Friday, but any other day is fine.	I will be out on Friday, but any other day is fine.	86299813	1474154536478	1474154536565	y	89
167194	1816181	I will be out on Friday, but any other day is fine.	I will be out on Friday, but any other day is fine.	86299814	1474154536574	1474154536669	 	32
167194	1816181	I will be out on Friday, but any other day is fine.	I will be out on Friday, but any other day is fine.	86299815	1474154536654	1474154536765	o	79
167194	1816181	I will be out on Friday, but any other day is fine.	I will be out on Friday, but any other day is fine.	86299816	1474154536774	1474154536853	t	84
167194	1816181	I will be out on Friday, but any other day is fine.	I will be out on Friday, but any other day is fine.	86299817	1474154536901	1474154536997	h	72
167194	1816181	I will be out on Friday, but any other day is fine.	I will be out on Friday, but any other day is fine.	86299818	1474154536958	1474154537077	e	69
167194	1816181	I will be out on Friday, but any other day is fine.	I will be out on Friday, but any other day is fine.	86299820	1474154537023	1474154537109	r	82
167194	1816181	I will be out on Friday, but any other day is fine.	I will be out on Friday, but any other day is fine.	86299835	1474154537102	1474154537214	 	32
167194	1816181	I will be out on Friday, but any other day is fine.	I will be out on Friday, but any other day is fine.	86299838	1474154537334	1474154537397	d	68
167194	1816181	I will be out on Friday, but any other day is fine.	I will be out on Friday, but any other day is fine.	86299839	1474154537390	1474154537478	a	65
167194	1816181	I will be out on Friday, but any other day is fine.	I will be out on Friday, but any other day is fine.	86299842	1474154537526	1474154537629	y	89
167194	1816181	I will be out on Friday, but any other day is fine.	I will be out on Friday, but any other day is fine.	86299843	1474154537654	1474154537749	 	32
167194	1816181	I will be out on Friday, but any other day is fine.	I will be out on Friday, but any other day is fine.	86299851	1474154537742	1474154537894	i	73
167194	1816181	I will be out on Friday, but any other day is fine.	I will be out on Friday, but any other day is fine.	86299853	1474154537838	1474154537957	s	83
167194	1816181	I will be out on Friday, but any other day is fine.	I will be out on Friday, but any other day is fine.	86299856	1474154537974	1474154538102	 	32
167194	1816181	I will be out on Friday, but any other day is fine.	I will be out on Friday, but any other day is fine.	86299859	1474154538238	1474154538341	f	70
167194	1816181	I will be out on Friday, but any other day is fine.	I will be out on Friday, but any other day is fine.	86299862	1474154538310	1474154538390	i	73
167194	1816181	I will be out on Friday, but any other day is fine.	I will be out on Friday, but any other day is fine.	86299865	1474154538446	1474154538525	n	78
167194	1816181	I will be out on Friday, but any other day is fine.	I will be out on Friday, but any other day is fine.	86299871	1474154538518	1474154538629	e	69
167194	1816181	I will be out on Friday, but any other day is fine.	I will be out on Friday, but any other day is fine.	86299873	1474154538702	1474154538839	.	190
167194	1816193	Tried to call but couldn't reach you.	Tried to call but couldn't reach you.	86299951	1474154540358	1474154540653	SHIFT	16
167194	1816193	Tried to call but couldn't reach you.	Tried to call but couldn't reach you.	86299949	1474154540557	1474154540637	T	84
167194	1816193	Tried to call but couldn't reach you.	Tried to call but couldn't reach you.	86299954	1474154540718	1474154540821	r	82
167194	1816193	Tried to call but couldn't reach you.	Tried to call but couldn't reach you.	86299956	1474154540846	1474154540981	i	73
167194	1816193	Tried to call but couldn't reach you.	Tried to call but couldn't reach you.	86299958	1474154540910	1474154541045	e	69
167194	1816193	Tried to call but couldn't reach you.	Tried to call but couldn't reach you.	86299971	1474154541030	1474154541157	d	68
167194	1816193	Tried to call but couldn't reach you.	Tried to call but couldn't reach you.	86299973	1474154541126	1474154541269	 	32
167194	1816193	Tried to call but couldn't reach you.	Tried to call but couldn't reach you.	86299976	1474154541366	1474154541469	t	84
167194	1816193	Tried to call but couldn't reach you.	Tried to call but couldn't reach you.	86299979	1474154541446	1474154541557	o	79
167194	1816193	Tried to call but couldn't reach you.	Tried to call but couldn't reach you.	86299982	1474154541477	1474154541613	 	32
167194	1816193	Tried to call but couldn't reach you.	Tried to call but couldn't reach you.	86299984	1474154541671	1474154541797	c	67
167194	1816193	Tried to call but couldn't reach you.	Tried to call but couldn't reach you.	86299988	1474154541758	1474154541869	a	65
167194	1816193	Tried to call but couldn't reach you.	Tried to call but couldn't reach you.	86299991	1474154541813	1474154541893	l	76
167194	1816193	Tried to call but couldn't reach you.	Tried to call but couldn't reach you.	86299993	1474154541942	1474154542045	l	76
167194	1816193	Tried to call but couldn't reach you.	Tried to call but couldn't reach you.	86299996	1474154541999	1474154542124	 	32
167194	1816193	Tried to call but couldn't reach you.	Tried to call but couldn't reach you.	86299998	1474154542102	1474154542181	b	66
167194	1816193	Tried to call but couldn't reach you.	Tried to call but couldn't reach you.	86299999	1474154542192	1474154542285	u	85
167194	1816193	Tried to call but couldn't reach you.	Tried to call but couldn't reach you.	86300017	1474154542293	1474154542397	t	84
167194	1816193	Tried to call but couldn't reach you.	Tried to call but couldn't reach you.	86300020	1474154542382	1474154542477	 	32
167194	1816193	Tried to call but couldn't reach you.	Tried to call but couldn't reach you.	86300022	1474154542765	1474154542869	c	67
167194	1816193	Tried to call but couldn't reach you.	Tried to call but couldn't reach you.	86300023	1474154542830	1474154542910	o	79
167194	1816193	Tried to call but couldn't reach you.	Tried to call but couldn't reach you.	86300024	1474154542982	1474154543062	u	85
167194	1816193	Tried to call but couldn't reach you.	Tried to call but couldn't reach you.	86300038	1474154543094	1474154543197	l	76
167194	1816193	Tried to call but couldn't reach you.	Tried to call but couldn't reach you.	86300040	1474154543462	1474154543573	d	68
167194	1816193	Tried to call but couldn't reach you.	Tried to call but couldn't reach you.	86300043	1474154543566	1474154543661	n	78
167194	1816193	Tried to call but couldn't reach you.	Tried to call but couldn't reach you.	86300049	1474154543702	1474154543893	SHIFT	16
167194	1816193	Tried to call but couldn't reach you.	Tried to call but couldn't reach you.	86300046	1474154543766	1474154543845	'	50
167194	1816193	Tried to call but couldn't reach you.	Tried to call but couldn't reach you.	86300051	1474154543958	1474154544061	t	84
167194	1816193	Tried to call but couldn't reach you.	Tried to call but couldn't reach you.	86300054	1474154544077	1474154544189	 	32
167194	1816193	Tried to call but couldn't reach you.	Tried to call but couldn't reach you.	86300055	1474154544206	1474154544325	r	82
167194	1816193	Tried to call but couldn't reach you.	Tried to call but couldn't reach you.	86300056	1474154544294	1474154544405	e	69
167194	1816193	Tried to call but couldn't reach you.	Tried to call but couldn't reach you.	86300057	1474154544374	1474154544421	a	65
167194	1816193	Tried to call but couldn't reach you.	Tried to call but couldn't reach you.	86300058	1474154544502	1474154544557	c	67
167194	1816193	Tried to call but couldn't reach you.	Tried to call but couldn't reach you.	86300074	1474154544677	1474154544765	h	72
167194	1816193	Tried to call but couldn't reach you.	Tried to call but couldn't reach you.	86300075	1474154544782	1474154544877	 	32
167194	1816193	Tried to call but couldn't reach you.	Tried to call but couldn't reach you.	86300076	1474154544911	1474154544973	y	89
167194	1816193	Tried to call but couldn't reach you.	Tried to call but couldn't reach you.	86300078	1474154544942	1474154545061	o	79
167194	1816193	Tried to call but couldn't reach you.	Tried to call but couldn't reach you.	86300080	1474154545254	1474154545349	u	85
167194	1816193	Tried to call but couldn't reach you.	Tried to call but couldn't reach you.	86300082	1474154545406	1474154545541	.	190
167194	1816199	Just playing with you!	Just playing with you!	86300118	1474154547229	1474154547669	SHIFT	16
167194	1816199	Just playing with you!	Just playing with you!	86300119	1474154547574	1474154547677	J	74
167194	1816199	Just playing with you!	Just playing with you!	86300121	1474154547782	1474154547869	u	85
167194	1816199	Just playing with you!	Just playing with you!	86300123	1474154547878	1474154547997	s	83
167194	1816199	Just playing with you!	Just playing with you!	86300125	1474154547965	1474154548069	t	84
167194	1816199	Just playing with you!	Just playing with you!	86300135	1474154548054	1474154548165	 	32
167194	1816199	Just playing with you!	Just playing with you!	86300136	1474154548094	1474154548190	p	80
167194	1816199	Just playing with you!	Just playing with you!	86300137	1474154548254	1474154548381	l	76
167194	1816199	Just playing with you!	Just playing with you!	86300138	1474154548326	1474154548453	a	65
167194	1816199	Just playing with you!	Just playing with you!	86300139	1474154548422	1474154548493	y	89
167194	1816199	Just playing with you!	Just playing with you!	86300140	1474154548526	1474154548653	i	73
167194	1816199	Just playing with you!	Just playing with you!	86300145	1474154548582	1474154548725	n	78
167194	1816199	Just playing with you!	Just playing with you!	86300146	1474154548661	1474154548773	g	71
167194	1816199	Just playing with you!	Just playing with you!	86300148	1474154548750	1474154548885	 	32
167194	1816199	Just playing with you!	Just playing with you!	86300150	1474154548902	1474154549020	w	87
167194	1816199	Just playing with you!	Just playing with you!	86300154	1474154549014	1474154549152	i	73
167194	1816199	Just playing with you!	Just playing with you!	86300152	1474154549086	1474154549149	t	84
167194	1816199	Just playing with you!	Just playing with you!	86300155	1474154549222	1474154549320	h	72
167194	1816199	Just playing with you!	Just playing with you!	86300156	1474154549302	1474154549449	 	32
167194	1816199	Just playing with you!	Just playing with you!	86300157	1474154549446	1474154549541	y	89
167194	1816199	Just playing with you!	Just playing with you!	86300160	1474154549502	1474154549621	o	79
167194	1816199	Just playing with you!	Just playing with you!	86300162	1474154549742	1474154549813	u	85
167194	1816199	Just playing with you!	Just playing with you!	86300171	1474154549901	1474154550189	SHIFT	16
167194	1816199	Just playing with you!	Just playing with you!	86300170	1474154550021	1474154550117	!	49
167194	1816203	Reports said Clinton feels the same way.	Reports said Clinton feels the same way.	86300209	1474154551957	1474154552213	SHIFT	16
167194	1816203	Reports said Clinton feels the same way.	Reports said Clinton feels the same way.	86300211	1474154552133	1474154552261	R	82
167194	1816203	Reports said Clinton feels the same way.	Reports said Clinton feels the same way.	86300213	1474154552319	1474154552429	e	69
167194	1816203	Reports said Clinton feels the same way.	Reports said Clinton feels the same way.	86300214	1474154552406	1474154552501	p	80
167194	1816203	Reports said Clinton feels the same way.	Reports said Clinton feels the same way.	86300215	1474154552550	1474154552684	o	79
167194	1816203	Reports said Clinton feels the same way.	Reports said Clinton feels the same way.	86300230	1474154552678	1474154552765	r	82
167194	1816203	Reports said Clinton feels the same way.	Reports said Clinton feels the same way.	86300232	1474154552829	1474154552917	t	84
167194	1816203	Reports said Clinton feels the same way.	Reports said Clinton feels the same way.	86300238	1474154552942	1474154553101	s	83
167194	1816203	Reports said Clinton feels the same way.	Reports said Clinton feels the same way.	86300242	1474154553069	1474154553205	 	32
167194	1816203	Reports said Clinton feels the same way.	Reports said Clinton feels the same way.	86300247	1474154553230	1474154553324	a	65
167194	1816203	Reports said Clinton feels the same way.	Reports said Clinton feels the same way.	86300248	1474154553318	1474154553461	s	83
167194	1816203	Reports said Clinton feels the same way.	Reports said Clinton feels the same way.	86300249	1474154553550	1474154553605	BKSP	8
167194	1816203	Reports said Clinton feels the same way.	Reports said Clinton feels the same way.	86300250	1474154553662	1474154553773	BKSP	8
167194	1816203	Reports said Clinton feels the same way.	Reports said Clinton feels the same way.	86300251	1474154553726	1474154553853	s	83
167194	1816203	Reports said Clinton feels the same way.	Reports said Clinton feels the same way.	86300252	1474154553790	1474154553900	a	65
167194	1816203	Reports said Clinton feels the same way.	Reports said Clinton feels the same way.	86300253	1474154553894	1474154554037	i	73
167194	1816203	Reports said Clinton feels the same way.	Reports said Clinton feels the same way.	86300254	1474154553990	1474154554101	d	68
167194	1816203	Reports said Clinton feels the same way.	Reports said Clinton feels the same way.	86300268	1474154554078	1474154554205	 	32
167194	1816203	Reports said Clinton feels the same way.	Reports said Clinton feels the same way.	86300272	1474154554197	1474154554389	SHIFT	16
167194	1816203	Reports said Clinton feels the same way.	Reports said Clinton feels the same way.	86300276	1474154554342	1474154554437	C	67
167194	1816203	Reports said Clinton feels the same way.	Reports said Clinton feels the same way.	86300279	1474154554445	1474154554564	l	76
167194	1816203	Reports said Clinton feels the same way.	Reports said Clinton feels the same way.	86300281	1474154554559	1474154554653	i	73
167194	1816203	Reports said Clinton feels the same way.	Reports said Clinton feels the same way.	86300282	1474154554710	1474154554804	n	78
167194	1816203	Reports said Clinton feels the same way.	Reports said Clinton feels the same way.	86300290	1474154554798	1474154554893	t	84
167194	1816203	Reports said Clinton feels the same way.	Reports said Clinton feels the same way.	86300292	1474154554965	1474154555045	o	79
167194	1816203	Reports said Clinton feels the same way.	Reports said Clinton feels the same way.	86300293	1474154555118	1474154555213	n	78
167194	1816203	Reports said Clinton feels the same way.	Reports said Clinton feels the same way.	86300295	1474154555181	1474154555316	 	32
167194	1816203	Reports said Clinton feels the same way.	Reports said Clinton feels the same way.	86300296	1474154555310	1474154555453	f	70
167194	1816203	Reports said Clinton feels the same way.	Reports said Clinton feels the same way.	86300313	1474154555414	1474154555509	e	69
167194	1816203	Reports said Clinton feels the same way.	Reports said Clinton feels the same way.	86300317	1474154555566	1474154555661	e	69
167194	1816203	Reports said Clinton feels the same way.	Reports said Clinton feels the same way.	86300319	1474154555653	1474154555805	l	76
167194	1816203	Reports said Clinton feels the same way.	Reports said Clinton feels the same way.	86300322	1474154555766	1474154555909	s	83
167194	1816203	Reports said Clinton feels the same way.	Reports said Clinton feels the same way.	86300324	1474154555870	1474154555981	 	32
167194	1816203	Reports said Clinton feels the same way.	Reports said Clinton feels the same way.	86300327	1474154556070	1474154556141	t	84
167194	1816203	Reports said Clinton feels the same way.	Reports said Clinton feels the same way.	86300337	1474154556214	1474154556317	h	72
167194	1816203	Reports said Clinton feels the same way.	Reports said Clinton feels the same way.	86300341	1474154556294	1474154556388	e	69
167194	1816203	Reports said Clinton feels the same way.	Reports said Clinton feels the same way.	86300344	1474154556374	1474154556502	 	32
167194	1816203	Reports said Clinton feels the same way.	Reports said Clinton feels the same way.	86300378	1474154556493	1474154556644	s	83
167194	1816203	Reports said Clinton feels the same way.	Reports said Clinton feels the same way.	86300347	1474154556581	1474154556637	a	65
167194	1816203	Reports said Clinton feels the same way.	Reports said Clinton feels the same way.	86300381	1474154556661	1474154556773	m	77
167194	1816203	Reports said Clinton feels the same way.	Reports said Clinton feels the same way.	86300384	1474154556750	1474154556853	e	69
167194	1816203	Reports said Clinton feels the same way.	Reports said Clinton feels the same way.	86300389	1474154556822	1474154556933	 	32
167194	1816203	Reports said Clinton feels the same way.	Reports said Clinton feels the same way.	86300393	1474154557397	1474154557461	BKSP	8
167194	1816203	Reports said Clinton feels the same way.	Reports said Clinton feels the same way.	86300396	1474154557494	1474154557613	w	87
167194	1816203	Reports said Clinton feels the same way.	Reports said Clinton feels the same way.	86300399	1474154557765	1474154557837	BKSP	8
167194	1816203	Reports said Clinton feels the same way.	Reports said Clinton feels the same way.	86300402	1474154557838	1474154557957	 	32
167194	1816203	Reports said Clinton feels the same way.	Reports said Clinton feels the same way.	86300403	1474154558094	1474154558220	w	87
167194	1816203	Reports said Clinton feels the same way.	Reports said Clinton feels the same way.	86300404	1474154558190	1474154558295	a	65
167194	1816203	Reports said Clinton feels the same way.	Reports said Clinton feels the same way.	86300406	1474154558309	1474154558412	y	89
167194	1816203	Reports said Clinton feels the same way.	Reports said Clinton feels the same way.	86300408	1474154558397	1474154558501	.	190
167194	1816206	Genaro, we have fixed the pricing in our system.	Genaro, we have fixed the pricing in our system.	86300450	1474154560613	1474154560804	SHIFT	16
167194	1816206	Genaro, we have fixed the pricing in our system.	Genaro, we have fixed the pricing in our system.	86300449	1474154560694	1474154560797	G	71
167194	1816206	Genaro, we have fixed the pricing in our system.	Genaro, we have fixed the pricing in our system.	86300451	1474154560893	1474154560988	e	69
167194	1816206	Genaro, we have fixed the pricing in our system.	Genaro, we have fixed the pricing in our system.	86300453	1474154560982	1474154561093	n	78
167194	1816206	Genaro, we have fixed the pricing in our system.	Genaro, we have fixed the pricing in our system.	86300456	1474154561293	1474154561413	a	65
167194	1816206	Genaro, we have fixed the pricing in our system.	Genaro, we have fixed the pricing in our system.	86300459	1474154561462	1474154561549	r	82
167194	1816206	Genaro, we have fixed the pricing in our system.	Genaro, we have fixed the pricing in our system.	86300476	1474154561621	1474154561749	o	79
167194	1816206	Genaro, we have fixed the pricing in our system.	Genaro, we have fixed the pricing in our system.	86300477	1474154561878	1474154562053	,	188
167194	1816206	Genaro, we have fixed the pricing in our system.	Genaro, we have fixed the pricing in our system.	86300478	1474154562013	1474154562093	 	32
167194	1816206	Genaro, we have fixed the pricing in our system.	Genaro, we have fixed the pricing in our system.	86300479	1474154562102	1474154562237	w	87
167194	1816206	Genaro, we have fixed the pricing in our system.	Genaro, we have fixed the pricing in our system.	86300485	1474154562198	1474154562324	e	69
167194	1816206	Genaro, we have fixed the pricing in our system.	Genaro, we have fixed the pricing in our system.	86300487	1474154562309	1474154562421	 	32
167194	1816206	Genaro, we have fixed the pricing in our system.	Genaro, we have fixed the pricing in our system.	86300488	1474154562431	1474154562501	h	72
167194	1816206	Genaro, we have fixed the pricing in our system.	Genaro, we have fixed the pricing in our system.	86300489	1474154562510	1474154562589	a	65
167194	1816206	Genaro, we have fixed the pricing in our system.	Genaro, we have fixed the pricing in our system.	86300490	1474154562621	1474154562757	v	86
167194	1816206	Genaro, we have fixed the pricing in our system.	Genaro, we have fixed the pricing in our system.	86300501	1474154562702	1474154562812	e	69
167194	1816206	Genaro, we have fixed the pricing in our system.	Genaro, we have fixed the pricing in our system.	86300502	1474154562773	1474154562893	 	32
167194	1816206	Genaro, we have fixed the pricing in our system.	Genaro, we have fixed the pricing in our system.	86300503	1474154562965	1474154563037	h	72
167194	1816206	Genaro, we have fixed the pricing in our system.	Genaro, we have fixed the pricing in our system.	86300504	1474154563189	1474154563244	BKSP	8
167194	1816206	Genaro, we have fixed the pricing in our system.	Genaro, we have fixed the pricing in our system.	86300505	1474154563261	1474154563341	f	70
167194	1816206	Genaro, we have fixed the pricing in our system.	Genaro, we have fixed the pricing in our system.	86300506	1474154563342	1474154563493	i	73
167194	1816206	Genaro, we have fixed the pricing in our system.	Genaro, we have fixed the pricing in our system.	86300524	1474154563414	1474154563549	x	88
167194	1816206	Genaro, we have fixed the pricing in our system.	Genaro, we have fixed the pricing in our system.	86300526	1474154563597	1474154563660	e	69
167194	1816206	Genaro, we have fixed the pricing in our system.	Genaro, we have fixed the pricing in our system.	86300531	1474154563910	1474154564037	d	68
167194	1816206	Genaro, we have fixed the pricing in our system.	Genaro, we have fixed the pricing in our system.	86300534	1474154564030	1474154564125	 	32
167194	1816206	Genaro, we have fixed the pricing in our system.	Genaro, we have fixed the pricing in our system.	86300536	1474154564149	1474154564213	t	84
167194	1816206	Genaro, we have fixed the pricing in our system.	Genaro, we have fixed the pricing in our system.	86300539	1474154564277	1474154564388	h	72
167194	1816206	Genaro, we have fixed the pricing in our system.	Genaro, we have fixed the pricing in our system.	86300544	1474154564358	1474154564469	e	69
167194	1816206	Genaro, we have fixed the pricing in our system.	Genaro, we have fixed the pricing in our system.	86300545	1474154564438	1474154564532	 	32
167194	1816206	Genaro, we have fixed the pricing in our system.	Genaro, we have fixed the pricing in our system.	86300546	1474154564518	1474154564637	p	80
167194	1816206	Genaro, we have fixed the pricing in our system.	Genaro, we have fixed the pricing in our system.	86300548	1474154564613	1474154564685	r	82
167194	1816206	Genaro, we have fixed the pricing in our system.	Genaro, we have fixed the pricing in our system.	86300552	1474154564710	1474154564844	i	73
167194	1816206	Genaro, we have fixed the pricing in our system.	Genaro, we have fixed the pricing in our system.	86300577	1474154564837	1474154564964	c	67
167194	1816206	Genaro, we have fixed the pricing in our system.	Genaro, we have fixed the pricing in our system.	86300579	1474154564957	1474154565093	i	73
167194	1816206	Genaro, we have fixed the pricing in our system.	Genaro, we have fixed the pricing in our system.	86300581	1474154565197	1474154565308	n	78
167194	1816206	Genaro, we have fixed the pricing in our system.	Genaro, we have fixed the pricing in our system.	86300583	1474154565270	1474154565396	g	71
167194	1816206	Genaro, we have fixed the pricing in our system.	Genaro, we have fixed the pricing in our system.	86300585	1474154565366	1474154565484	 	32
167194	1816206	Genaro, we have fixed the pricing in our system.	Genaro, we have fixed the pricing in our system.	86300589	1474154565558	1474154565669	i	73
167194	1816206	Genaro, we have fixed the pricing in our system.	Genaro, we have fixed the pricing in our system.	86300603	1474154565733	1474154565844	n	78
167194	1816206	Genaro, we have fixed the pricing in our system.	Genaro, we have fixed the pricing in our system.	86300605	1474154565829	1474154565941	 	32
167194	1816206	Genaro, we have fixed the pricing in our system.	Genaro, we have fixed the pricing in our system.	86300610	1474154566069	1474154566189	o	79
167194	1816206	Genaro, we have fixed the pricing in our system.	Genaro, we have fixed the pricing in our system.	86300612	1474154566220	1474154566332	u	85
167194	1816206	Genaro, we have fixed the pricing in our system.	Genaro, we have fixed the pricing in our system.	86300633	1474154566309	1474154566412	r	82
167194	1816206	Genaro, we have fixed the pricing in our system.	Genaro, we have fixed the pricing in our system.	86300635	1474154566381	1474154566519	 	32
167194	1816206	Genaro, we have fixed the pricing in our system.	Genaro, we have fixed the pricing in our system.	86300638	1474154566517	1474154566621	s	83
167194	1816206	Genaro, we have fixed the pricing in our system.	Genaro, we have fixed the pricing in our system.	86300640	1474154566710	1474154566788	y	89
167194	1816206	Genaro, we have fixed the pricing in our system.	Genaro, we have fixed the pricing in our system.	86300642	1474154566781	1474154566909	s	83
167194	1816206	Genaro, we have fixed the pricing in our system.	Genaro, we have fixed the pricing in our system.	86300645	1474154566916	1474154567061	t	84
167194	1816206	Genaro, we have fixed the pricing in our system.	Genaro, we have fixed the pricing in our system.	86300652	1474154567021	1474154567141	e	69
167194	1816206	Genaro, we have fixed the pricing in our system.	Genaro, we have fixed the pricing in our system.	86300656	1474154567094	1474154567173	m	77
167194	1816206	Genaro, we have fixed the pricing in our system.	Genaro, we have fixed the pricing in our system.	86300659	1474154567309	1474154567436	.	190
167194	1816213	I'm in a meeting until noon.	I'm in a meeting until noon.	86300714	1474154569252	1474154569869	SHIFT	16
167194	1816213	I'm in a meeting until noon.	I'm in a meeting until noon.	86300712	1474154569613	1474154569740	I	73
167194	1816213	I'm in a meeting until noon.	I'm in a meeting until noon.	86300716	1474154569989	1474154570084	m	77
167194	1816213	I'm in a meeting until noon.	I'm in a meeting until noon.	86300719	1474154570125	1474154570236	 	32
167194	1816213	I'm in a meeting until noon.	I'm in a meeting until noon.	86300722	1474154570357	1474154570420	BKSP	8
167194	1816213	I'm in a meeting until noon.	I'm in a meeting until noon.	86300726	1474154570493	1474154570557	BKSP	8
167194	1816213	I'm in a meeting until noon.	I'm in a meeting until noon.	86300732	1474154570709	1474154570901	SHIFT	16
167194	1816213	I'm in a meeting until noon.	I'm in a meeting until noon.	86300729	1474154570805	1474154570884	'	50
167194	1816213	I'm in a meeting until noon.	I'm in a meeting until noon.	86300734	1474154570941	1474154571029	m	77
167194	1816213	I'm in a meeting until noon.	I'm in a meeting until noon.	86300735	1474154571052	1474154571172	 	32
167194	1816213	I'm in a meeting until noon.	I'm in a meeting until noon.	86300737	1474154571126	1474154571189	i	73
167194	1816213	I'm in a meeting until noon.	I'm in a meeting until noon.	86300738	1474154571245	1474154571340	n	78
167194	1816213	I'm in a meeting until noon.	I'm in a meeting until noon.	86300739	1474154571293	1474154571412	 	32
167194	1816213	I'm in a meeting until noon.	I'm in a meeting until noon.	86300740	1474154571437	1474154571564	a	65
167194	1816213	I'm in a meeting until noon.	I'm in a meeting until noon.	86300757	1474154571557	1474154571676	 	32
167194	1816213	I'm in a meeting until noon.	I'm in a meeting until noon.	86300760	1474154571709	1474154571804	m	77
167194	1816213	I'm in a meeting until noon.	I'm in a meeting until noon.	86300762	1474154571774	1474154571868	e	69
167194	1816213	I'm in a meeting until noon.	I'm in a meeting until noon.	86300764	1474154571957	1474154572116	e	69
167194	1816213	I'm in a meeting until noon.	I'm in a meeting until noon.	86300766	1474154572077	1474154572181	t	84
167194	1816213	I'm in a meeting until noon.	I'm in a meeting until noon.	86300769	1474154572197	1474154572333	i	73
167194	1816213	I'm in a meeting until noon.	I'm in a meeting until noon.	86300780	1474154572277	1474154572404	n	78
167194	1816213	I'm in a meeting until noon.	I'm in a meeting until noon.	86300782	1474154572357	1474154572468	g	71
167194	1816213	I'm in a meeting until noon.	I'm in a meeting until noon.	86300785	1474154572455	1474154572580	 	32
167194	1816213	I'm in a meeting until noon.	I'm in a meeting until noon.	86300788	1474154572597	1474154572669	u	85
167194	1816213	I'm in a meeting until noon.	I'm in a meeting until noon.	86300792	1474154572750	1474154572820	n	78
167194	1816213	I'm in a meeting until noon.	I'm in a meeting until noon.	86300795	1474154572845	1474154572932	t	84
167194	1816213	I'm in a meeting until noon.	I'm in a meeting until noon.	86300802	1474154572917	1474154573053	i	73
167194	1816213	I'm in a meeting until noon.	I'm in a meeting until noon.	86300804	1474154573005	1474154573124	l	76
167194	1816213	I'm in a meeting until noon.	I'm in a meeting until noon.	86300808	1474154573061	1474154573173	 	32
167194	1816213	I'm in a meeting until noon.	I'm in a meeting until noon.	86300811	1474154573509	1474154573588	n	78
167194	1816213	I'm in a meeting until noon.	I'm in a meeting until noon.	86300814	1474154573556	1474154573612	o	79
167194	1816213	I'm in a meeting until noon.	I'm in a meeting until noon.	86300816	1474154573661	1474154573764	o	79
167194	1816213	I'm in a meeting until noon.	I'm in a meeting until noon.	86300818	1474154573780	1474154573860	n	78
167194	1816213	I'm in a meeting until noon.	I'm in a meeting until noon.	86300819	1474154573885	1474154574020	.	190
167194	1816217	I think Tim wants to move quickly.	I think Tim wants to move quickly.	86300891	1474154575812	1474154576076	SHIFT	16
167194	1816217	I think Tim wants to move quickly.	I think Tim wants to move quickly.	86300894	1474154576005	1474154576108	I	73
167194	1816217	I think Tim wants to move quickly.	I think Tim wants to move quickly.	86300903	1474154576109	1474154576236	 	32
167194	1816217	I think Tim wants to move quickly.	I think Tim wants to move quickly.	86300898	1474154576189	1474154576229	t	84
167194	1816217	I think Tim wants to move quickly.	I think Tim wants to move quickly.	86300906	1474154576317	1474154576396	h	72
167194	1816217	I think Tim wants to move quickly.	I think Tim wants to move quickly.	86300918	1474154576365	1474154576483	i	73
167194	1816217	I think Tim wants to move quickly.	I think Tim wants to move quickly.	86300920	1474154576453	1474154576564	n	78
167194	1816217	I think Tim wants to move quickly.	I think Tim wants to move quickly.	86300924	1474154576549	1474154576660	k	75
167194	1816217	I think Tim wants to move quickly.	I think Tim wants to move quickly.	86300927	1474154576637	1474154576724	 	32
167194	1816217	I think Tim wants to move quickly.	I think Tim wants to move quickly.	86300930	1474154576692	1474154576876	SHIFT	16
167194	1816217	I think Tim wants to move quickly.	I think Tim wants to move quickly.	86300935	1474154576805	1474154576884	T	84
167194	1816217	I think Tim wants to move quickly.	I think Tim wants to move quickly.	86300939	1474154576925	1474154576996	i	73
167194	1816217	I think Tim wants to move quickly.	I think Tim wants to move quickly.	86300946	1474154577045	1474154577164	m	77
167194	1816217	I think Tim wants to move quickly.	I think Tim wants to move quickly.	86300948	1474154577093	1474154577181	 	32
167194	1816217	I think Tim wants to move quickly.	I think Tim wants to move quickly.	86300950	1474154577189	1474154577356	w	87
167194	1816217	I think Tim wants to move quickly.	I think Tim wants to move quickly.	86300954	1474154577317	1474154577388	a	65
167194	1816217	I think Tim wants to move quickly.	I think Tim wants to move quickly.	86300959	1474154577397	1474154577508	n	78
167194	1816217	I think Tim wants to move quickly.	I think Tim wants to move quickly.	86300968	1474154577462	1474154577556	t	84
167194	1816217	I think Tim wants to move quickly.	I think Tim wants to move quickly.	86300970	1474154577565	1474154577748	s	83
167194	1816217	I think Tim wants to move quickly.	I think Tim wants to move quickly.	86300974	1474154577717	1474154577821	 	32
167194	1816217	I think Tim wants to move quickly.	I think Tim wants to move quickly.	86300977	1474154577837	1474154577932	t	84
167194	1816217	I think Tim wants to move quickly.	I think Tim wants to move quickly.	86300982	1474154577901	1474154578004	o	79
167194	1816217	I think Tim wants to move quickly.	I think Tim wants to move quickly.	86300993	1474154577981	1474154578084	 	32
167194	1816217	I think Tim wants to move quickly.	I think Tim wants to move quickly.	86300995	1474154578101	1474154578196	m	77
167194	1816217	I think Tim wants to move quickly.	I think Tim wants to move quickly.	86300997	1474154578260	1474154578380	o	79
167194	1816217	I think Tim wants to move quickly.	I think Tim wants to move quickly.	86300999	1474154578349	1474154578485	v	86
167194	1816217	I think Tim wants to move quickly.	I think Tim wants to move quickly.	86301001	1474154578445	1474154578564	e	69
167194	1816217	I think Tim wants to move quickly.	I think Tim wants to move quickly.	86301007	1474154578509	1474154578644	 	32
167194	1816217	I think Tim wants to move quickly.	I think Tim wants to move quickly.	86301009	1474154578757	1474154578852	q	81
167194	1816217	I think Tim wants to move quickly.	I think Tim wants to move quickly.	86301011	1474154578804	1474154578892	u	85
167194	1816217	I think Tim wants to move quickly.	I think Tim wants to move quickly.	86301013	1474154578981	1474154579100	i	73
167194	1816217	I think Tim wants to move quickly.	I think Tim wants to move quickly.	86301015	1474154579093	1474154579212	c	67
167194	1816217	I think Tim wants to move quickly.	I think Tim wants to move quickly.	86301026	1474154579157	1474154579236	k	75
167194	1816217	I think Tim wants to move quickly.	I think Tim wants to move quickly.	86301028	1474154579301	1474154579404	l	76
167194	1816217	I think Tim wants to move quickly.	I think Tim wants to move quickly.	86301032	1474154579405	1474154579509	y	89
167194	1816222	Jones executive vice president and chief operating officer.	Jones executive vice president and chief operating officer.	86301662	1474154579542	1474154595439	.	190
167194	1816222	Jones executive vice president and chief operating officer.	Jones executive vice president and chief operating officer.	86301253	1474154585157	1474154585412	SHIFT	16
167194	1816222	Jones executive vice president and chief operating officer.	Jones executive vice president and chief operating officer.	86301257	1474154585389	1474154585515	J	74
167194	1816222	Jones executive vice president and chief operating officer.	Jones executive vice president and chief operating officer.	86301262	1474154585501	1474154585620	o	79
167194	1816222	Jones executive vice president and chief operating officer.	Jones executive vice president and chief operating officer.	86301266	1474154585628	1474154585740	n	78
167194	1816222	Jones executive vice president and chief operating officer.	Jones executive vice president and chief operating officer.	86301269	1474154585725	1474154585908	e	69
167194	1816222	Jones executive vice president and chief operating officer.	Jones executive vice president and chief operating officer.	86301295	1474154585821	1474154585980	s	83
167194	1816222	Jones executive vice president and chief operating officer.	Jones executive vice president and chief operating officer.	86301298	1474154585924	1474154586076	 	32
167194	1816222	Jones executive vice president and chief operating officer.	Jones executive vice president and chief operating officer.	86301301	1474154586092	1474154586196	e	69
167194	1816222	Jones executive vice president and chief operating officer.	Jones executive vice president and chief operating officer.	86301304	1474154586485	1474154586588	e	69
167194	1816222	Jones executive vice president and chief operating officer.	Jones executive vice president and chief operating officer.	86301306	1474154586773	1474154586868	BKSP	8
167194	1816222	Jones executive vice president and chief operating officer.	Jones executive vice president and chief operating officer.	86301308	1474154586813	1474154586916	x	88
167194	1816222	Jones executive vice president and chief operating officer.	Jones executive vice president and chief operating officer.	86301310	1474154587012	1474154587108	e	69
167194	1816222	Jones executive vice president and chief operating officer.	Jones executive vice president and chief operating officer.	86301319	1474154587173	1474154587260	c	67
167194	1816222	Jones executive vice president and chief operating officer.	Jones executive vice president and chief operating officer.	86301322	1474154587292	1474154587372	u	85
167194	1816222	Jones executive vice president and chief operating officer.	Jones executive vice president and chief operating officer.	86301326	1474154587461	1474154587596	i	73
167194	1816222	Jones executive vice president and chief operating officer.	Jones executive vice president and chief operating officer.	86301330	1474154587565	1474154587676	t	84
167194	1816222	Jones executive vice president and chief operating officer.	Jones executive vice president and chief operating officer.	86301371	1474154587613	1474154587756	e	69
167194	1816222	Jones executive vice president and chief operating officer.	Jones executive vice president and chief operating officer.	86301373	1474154587940	1474154587980	BKSP	8
167194	1816222	Jones executive vice president and chief operating officer.	Jones executive vice president and chief operating officer.	86301375	1474154588109	1474154588164	BKSP	8
167194	1816222	Jones executive vice president and chief operating officer.	Jones executive vice president and chief operating officer.	86301381	1474154588284	1474154588380	BKSP	8
167194	1816222	Jones executive vice president and chief operating officer.	Jones executive vice president and chief operating officer.	86301387	1474154588772	1474154588860	t	84
167194	1816222	Jones executive vice president and chief operating officer.	Jones executive vice president and chief operating officer.	86301392	1474154588845	1474154588995	i	73
167194	1816222	Jones executive vice president and chief operating officer.	Jones executive vice president and chief operating officer.	86301396	1474154588989	1474154589028	v	86
167194	1816222	Jones executive vice president and chief operating officer.	Jones executive vice president and chief operating officer.	86301399	1474154589341	1474154589476	e	69
167194	1816222	Jones executive vice president and chief operating officer.	Jones executive vice president and chief operating officer.	86301403	1474154589453	1474154589596	 	32
167194	1816222	Jones executive vice president and chief operating officer.	Jones executive vice president and chief operating officer.	86301406	1474154589757	1474154589852	v	86
167194	1816222	Jones executive vice president and chief operating officer.	Jones executive vice president and chief operating officer.	86301409	1474154589868	1474154590020	i	73
167194	1816222	Jones executive vice president and chief operating officer.	Jones executive vice president and chief operating officer.	86301412	1474154589973	1474154590108	c	67
167194	1816222	Jones executive vice president and chief operating officer.	Jones executive vice president and chief operating officer.	86301415	1474154590052	1474154590188	e	69
167194	1816222	Jones executive vice president and chief operating officer.	Jones executive vice president and chief operating officer.	86301422	1474154590117	1474154590268	 	32
167194	1816222	Jones executive vice president and chief operating officer.	Jones executive vice president and chief operating officer.	86301425	1474154590349	1474154590484	p	80
167194	1816222	Jones executive vice president and chief operating officer.	Jones executive vice president and chief operating officer.	86301427	1474154590445	1474154590548	r	82
167194	1816222	Jones executive vice president and chief operating officer.	Jones executive vice president and chief operating officer.	86301430	1474154590509	1474154590612	e	69
167194	1816222	Jones executive vice president and chief operating officer.	Jones executive vice president and chief operating officer.	86301434	1474154590685	1474154590803	s	83
167194	1816222	Jones executive vice president and chief operating officer.	Jones executive vice president and chief operating officer.	86301448	1474154590789	1474154590924	i	73
167194	1816222	Jones executive vice president and chief operating officer.	Jones executive vice president and chief operating officer.	86301452	1474154590909	1474154591036	d	68
167194	1816222	Jones executive vice president and chief operating officer.	Jones executive vice president and chief operating officer.	86301458	1474154590988	1474154591116	e	69
167194	1816222	Jones executive vice president and chief operating officer.	Jones executive vice president and chief operating officer.	86301459	1474154591132	1474154591236	n	78
167194	1816222	Jones executive vice president and chief operating officer.	Jones executive vice president and chief operating officer.	86301460	1474154591213	1474154591331	t	84
167194	1816222	Jones executive vice president and chief operating officer.	Jones executive vice president and chief operating officer.	86301474	1474154591325	1474154591436	 	32
167194	1816222	Jones executive vice president and chief operating officer.	Jones executive vice president and chief operating officer.	86301478	1474154591461	1474154591563	a	65
167194	1816222	Jones executive vice president and chief operating officer.	Jones executive vice president and chief operating officer.	86301484	1474154591557	1474154591660	n	78
167194	1816222	Jones executive vice president and chief operating officer.	Jones executive vice president and chief operating officer.	86301489	1474154591637	1474154591755	d	68
167194	1816222	Jones executive vice president and chief operating officer.	Jones executive vice president and chief operating officer.	86301493	1474154591725	1474154591852	 	32
167194	1816222	Jones executive vice president and chief operating officer.	Jones executive vice president and chief operating officer.	86301496	1474154591925	1474154591964	c	67
167194	1816222	Jones executive vice president and chief operating officer.	Jones executive vice president and chief operating officer.	86301518	1474154592092	1474154592164	h	72
167194	1816222	Jones executive vice president and chief operating officer.	Jones executive vice president and chief operating officer.	86301521	1474154592189	1474154592332	i	73
167194	1816222	Jones executive vice president and chief operating officer.	Jones executive vice president and chief operating officer.	86301526	1474154592269	1474154592380	e	69
167194	1816222	Jones executive vice president and chief operating officer.	Jones executive vice president and chief operating officer.	86301529	1474154592453	1474154592571	f	70
167194	1816222	Jones executive vice president and chief operating officer.	Jones executive vice president and chief operating officer.	86301532	1474154592725	1474154592884	 	32
167194	1816222	Jones executive vice president and chief operating officer.	Jones executive vice president and chief operating officer.	86301554	1474154592965	1474154593068	o	79
167194	1816222	Jones executive vice president and chief operating officer.	Jones executive vice president and chief operating officer.	86301556	1474154593045	1474154593188	p	80
167194	1816222	Jones executive vice president and chief operating officer.	Jones executive vice president and chief operating officer.	86301557	1474154593341	1474154593492	e	69
167194	1816222	Jones executive vice president and chief operating officer.	Jones executive vice president and chief operating officer.	86301559	1474154593549	1474154593699	r	82
167194	1816222	Jones executive vice president and chief operating officer.	Jones executive vice president and chief operating officer.	86301578	1474154593684	1474154593772	a	65
167194	1816222	Jones executive vice president and chief operating officer.	Jones executive vice president and chief operating officer.	86301580	1474154593845	1474154593924	t	84
167194	1816222	Jones executive vice president and chief operating officer.	Jones executive vice president and chief operating officer.	86301582	1474154593932	1474154594076	i	73
167194	1816222	Jones executive vice president and chief operating officer.	Jones executive vice president and chief operating officer.	86301587	1474154594084	1474154594228	n	78
167194	1816222	Jones executive vice president and chief operating officer.	Jones executive vice president and chief operating officer.	86301592	1474154594164	1474154594300	g	71
167194	1816222	Jones executive vice president and chief operating officer.	Jones executive vice president and chief operating officer.	86301610	1474154594276	1474154594412	 	32
167194	1816222	Jones executive vice president and chief operating officer.	Jones executive vice president and chief operating officer.	86301613	1474154594533	1474154594635	o	79
167194	1816222	Jones executive vice president and chief operating officer.	Jones executive vice president and chief operating officer.	86301617	1474154594612	1474154594684	f	70
167194	1816222	Jones executive vice president and chief operating officer.	Jones executive vice president and chief operating officer.	86301620	1474154594740	1474154594819	f	70
167194	1816222	Jones executive vice president and chief operating officer.	Jones executive vice president and chief operating officer.	86301625	1474154594828	1474154594948	i	73
167194	1816222	Jones executive vice president and chief operating officer.	Jones executive vice president and chief operating officer.	86301645	1474154594917	1474154595044	c	67
167194	1816222	Jones executive vice president and chief operating officer.	Jones executive vice president and chief operating officer.	86301653	1474154595021	1474154595156	e	69
167194	1816222	Jones executive vice president and chief operating officer.	Jones executive vice president and chief operating officer.	86301657	1474154595182	1474154595291	r	82
167194	1816235	The military refuses to leave power and restore democracy by May 21.	The military refuses to leave power and restore democracy by May 21.	86301830	1474154599060	1474154599252	SHIFT	16
167194	1816235	The military refuses to leave power and restore democracy by May 21.	The military refuses to leave power and restore democracy by May 21.	86301828	1474154599133	1474154599203	T	84
167194	1816235	The military refuses to leave power and restore democracy by May 21.	The military refuses to leave power and restore democracy by May 21.	86301832	1474154599292	1474154599395	h	72
167194	1816235	The military refuses to leave power and restore democracy by May 21.	The military refuses to leave power and restore democracy by May 21.	86301836	1474154599381	1474154599532	e	69
167194	1816235	The military refuses to leave power and restore democracy by May 21.	The military refuses to leave power and restore democracy by May 21.	86301840	1474154599572	1474154599724	 	32
167194	1816235	The military refuses to leave power and restore democracy by May 21.	The military refuses to leave power and restore democracy by May 21.	86301857	1474154599700	1474154599764	m	77
167194	1816235	The military refuses to leave power and restore democracy by May 21.	The military refuses to leave power and restore democracy by May 21.	86301858	1474154599828	1474154599955	i	73
167194	1816235	The military refuses to leave power and restore democracy by May 21.	The military refuses to leave power and restore democracy by May 21.	86301859	1474154599932	1474154600068	l	76
167194	1816235	The military refuses to leave power and restore democracy by May 21.	The military refuses to leave power and restore democracy by May 21.	86301860	1474154600021	1474154600148	i	73
167194	1816235	The military refuses to leave power and restore democracy by May 21.	The military refuses to leave power and restore democracy by May 21.	86301861	1474154600124	1474154600260	t	84
167194	1816235	The military refuses to leave power and restore democracy by May 21.	The military refuses to leave power and restore democracy by May 21.	86301862	1474154600332	1474154600468	a	65
167194	1816235	The military refuses to leave power and restore democracy by May 21.	The military refuses to leave power and restore democracy by May 21.	86301876	1474154600420	1474154600516	r	82
167194	1816235	The military refuses to leave power and restore democracy by May 21.	The military refuses to leave power and restore democracy by May 21.	86301878	1474154600612	1474154600708	y	89
167194	1816235	The military refuses to leave power and restore democracy by May 21.	The military refuses to leave power and restore democracy by May 21.	86301880	1474154600717	1474154600860	 	32
167194	1816235	The military refuses to leave power and restore democracy by May 21.	The military refuses to leave power and restore democracy by May 21.	86301883	1474154600893	1474154601020	r	82
167194	1816235	The military refuses to leave power and restore democracy by May 21.	The military refuses to leave power and restore democracy by May 21.	86301886	1474154600973	1474154601118	e	69
167194	1816235	The military refuses to leave power and restore democracy by May 21.	The military refuses to leave power and restore democracy by May 21.	86301907	1474154601093	1474154601220	s	83
167194	1816235	The military refuses to leave power and restore democracy by May 21.	The military refuses to leave power and restore democracy by May 21.	86301908	1474154601364	1474154601447	BKSP	8
167194	1816235	The military refuses to leave power and restore democracy by May 21.	The military refuses to leave power and restore democracy by May 21.	86301909	1474154601445	1474154601540	f	70
167194	1816235	The military refuses to leave power and restore democracy by May 21.	The military refuses to leave power and restore democracy by May 21.	86301911	1474154601556	1474154601659	u	85
167194	1816235	The military refuses to leave power and restore democracy by May 21.	The military refuses to leave power and restore democracy by May 21.	86301914	1474154601653	1474154601795	s	83
167194	1816235	The military refuses to leave power and restore democracy by May 21.	The military refuses to leave power and restore democracy by May 21.	86301918	1474154601764	1474154601915	e	69
167194	1816235	The military refuses to leave power and restore democracy by May 21.	The military refuses to leave power and restore democracy by May 21.	86301931	1474154601884	1474154602043	s	83
167194	1816235	The military refuses to leave power and restore democracy by May 21.	The military refuses to leave power and restore democracy by May 21.	86301933	1474154602029	1474154602139	 	32
167194	1816235	The military refuses to leave power and restore democracy by May 21.	The military refuses to leave power and restore democracy by May 21.	86301936	1474154602147	1474154602236	t	84
167194	1816235	The military refuses to leave power and restore democracy by May 21.	The military refuses to leave power and restore democracy by May 21.	86301939	1474154602213	1474154602331	o	79
167194	1816235	The military refuses to leave power and restore democracy by May 21.	The military refuses to leave power and restore democracy by May 21.	86301941	1474154602300	1474154602403	 	32
167194	1816235	The military refuses to leave power and restore democracy by May 21.	The military refuses to leave power and restore democracy by May 21.	86301943	1474154602444	1474154602587	l	76
167194	1816235	The military refuses to leave power and restore democracy by May 21.	The military refuses to leave power and restore democracy by May 21.	86301954	1474154602532	1474154602659	e	69
167194	1816235	The military refuses to leave power and restore democracy by May 21.	The military refuses to leave power and restore democracy by May 21.	86301956	1474154602612	1474154602715	a	65
167194	1816235	The military refuses to leave power and restore democracy by May 21.	The military refuses to leave power and restore democracy by May 21.	86301959	1474154602757	1474154602891	v	86
167194	1816235	The military refuses to leave power and restore democracy by May 21.	The military refuses to leave power and restore democracy by May 21.	86301962	1474154602877	1474154603022	e	69
167194	1816235	The military refuses to leave power and restore democracy by May 21.	The military refuses to leave power and restore democracy by May 21.	86301965	1474154602996	1474154603116	 	32
167194	1816235	The military refuses to leave power and restore democracy by May 21.	The military refuses to leave power and restore democracy by May 21.	86301967	1474154603180	1474154603307	p	80
167194	1816235	The military refuses to leave power and restore democracy by May 21.	The military refuses to leave power and restore democracy by May 21.	86301987	1474154603372	1474154603516	o	79
167194	1816235	The military refuses to leave power and restore democracy by May 21.	The military refuses to leave power and restore democracy by May 21.	86301990	1474154603445	1474154603555	w	87
167194	1816235	The military refuses to leave power and restore democracy by May 21.	The military refuses to leave power and restore democracy by May 21.	86301994	1474154603548	1474154603595	e	69
167194	1816235	The military refuses to leave power and restore democracy by May 21.	The military refuses to leave power and restore democracy by May 21.	86301997	1474154603677	1474154603699	r	82
167194	1816235	The military refuses to leave power and restore democracy by May 21.	The military refuses to leave power and restore democracy by May 21.	86302002	1474154604060	1474154604183	 	32
167194	1816235	The military refuses to leave power and restore democracy by May 21.	The military refuses to leave power and restore democracy by May 21.	86302018	1474154604180	1474154604300	a	65
167194	1816235	The military refuses to leave power and restore democracy by May 21.	The military refuses to leave power and restore democracy by May 21.	86302020	1474154604308	1474154604419	n	78
167194	1816235	The military refuses to leave power and restore democracy by May 21.	The military refuses to leave power and restore democracy by May 21.	86302025	1474154604380	1474154604499	d	68
167194	1816235	The military refuses to leave power and restore democracy by May 21.	The military refuses to leave power and restore democracy by May 21.	86302028	1474154604469	1474154604587	 	32
167194	1816235	The military refuses to leave power and restore democracy by May 21.	The military refuses to leave power and restore democracy by May 21.	86302031	1474154604628	1474154604755	r	82
167194	1816235	The military refuses to leave power and restore democracy by May 21.	The military refuses to leave power and restore democracy by May 21.	86302069	1474154604716	1474154604860	e	69
167194	1816235	The military refuses to leave power and restore democracy by May 21.	The military refuses to leave power and restore democracy by May 21.	86302073	1474154604812	1474154604956	s	83
167194	1816235	The military refuses to leave power and restore democracy by May 21.	The military refuses to leave power and restore democracy by May 21.	86302075	1474154604940	1474154605083	o	79
167194	1816235	The military refuses to leave power and restore democracy by May 21.	The military refuses to leave power and restore democracy by May 21.	86302078	1474154605077	1474154605179	t	84
167194	1816235	The military refuses to leave power and restore democracy by May 21.	The military refuses to leave power and restore democracy by May 21.	86302080	1474154605318	1474154605396	u	85
167194	1816235	The military refuses to leave power and restore democracy by May 21.	The military refuses to leave power and restore democracy by May 21.	86302082	1474154605596	1474154605675	BKSP	8
167194	1816235	The military refuses to leave power and restore democracy by May 21.	The military refuses to leave power and restore democracy by May 21.	86302086	1474154605764	1474154605827	BKSP	8
167194	1816235	The military refuses to leave power and restore democracy by May 21.	The military refuses to leave power and restore democracy by May 21.	86302090	1474154605900	1474154605995	BKSP	8
167194	1816235	The military refuses to leave power and restore democracy by May 21.	The military refuses to leave power and restore democracy by May 21.	86302108	1474154605980	1474154606084	t	84
167194	1816235	The military refuses to leave power and restore democracy by May 21.	The military refuses to leave power and restore democracy by May 21.	86302112	1474154606100	1474154606203	o	79
167194	1816235	The military refuses to leave power and restore democracy by May 21.	The military refuses to leave power and restore democracy by May 21.	86302116	1474154606284	1474154606428	r	82
167194	1816235	The military refuses to leave power and restore democracy by May 21.	The military refuses to leave power and restore democracy by May 21.	86302123	1474154606357	1474154606499	e	69
167194	1816235	The military refuses to leave power and restore democracy by May 21.	The military refuses to leave power and restore democracy by May 21.	86302129	1474154606468	1474154606612	 	32
167194	1816235	The military refuses to leave power and restore democracy by May 21.	The military refuses to leave power and restore democracy by May 21.	86302135	1474154606804	1474154606939	d	68
167194	1816235	The military refuses to leave power and restore democracy by May 21.	The military refuses to leave power and restore democracy by May 21.	86302162	1474154606908	1474154607043	e	69
167194	1816235	The military refuses to leave power and restore democracy by May 21.	The military refuses to leave power and restore democracy by May 21.	86302164	1474154607028	1474154607156	m	77
167194	1816235	The military refuses to leave power and restore democracy by May 21.	The military refuses to leave power and restore democracy by May 21.	86302166	1474154607100	1474154607236	o	79
167194	1816235	The military refuses to leave power and restore democracy by May 21.	The military refuses to leave power and restore democracy by May 21.	86302168	1474154607324	1474154607444	c	67
167194	1816235	The military refuses to leave power and restore democracy by May 21.	The military refuses to leave power and restore democracy by May 21.	86302170	1474154607820	1474154607933	r	82
167194	1816235	The military refuses to leave power and restore democracy by May 21.	The military refuses to leave power and restore democracy by May 21.	86302223	1474154607908	1474154608011	a	65
167194	1816235	The military refuses to leave power and restore democracy by May 21.	The military refuses to leave power and restore democracy by May 21.	86302225	1474154608092	1474154608212	c	67
167194	1816235	The military refuses to leave power and restore democracy by May 21.	The military refuses to leave power and restore democracy by May 21.	86302227	1474154608355	1474154608483	y	89
167194	1816235	The military refuses to leave power and restore democracy by May 21.	The military refuses to leave power and restore democracy by May 21.	86302228	1474154608516	1474154608603	 	32
167194	1816235	The military refuses to leave power and restore democracy by May 21.	The military refuses to leave power and restore democracy by May 21.	86302229	1474154608684	1474154608763	b	66
167194	1816235	The military refuses to leave power and restore democracy by May 21.	The military refuses to leave power and restore democracy by May 21.	86302232	1474154608884	1474154608979	y	89
167194	1816235	The military refuses to leave power and restore democracy by May 21.	The military refuses to leave power and restore democracy by May 21.	86302247	1474154608982	1474154609067	 	32
167194	1816235	The military refuses to leave power and restore democracy by May 21.	The military refuses to leave power and restore democracy by May 21.	86302248	1474154609035	1474154609243	SHIFT	16
167194	1816235	The military refuses to leave power and restore democracy by May 21.	The military refuses to leave power and restore democracy by May 21.	86302249	1474154609180	1474154609292	M	77
167194	1816235	The military refuses to leave power and restore democracy by May 21.	The military refuses to leave power and restore democracy by May 21.	86302250	1474154609300	1474154609419	a	65
167194	1816235	The military refuses to leave power and restore democracy by May 21.	The military refuses to leave power and restore democracy by May 21.	86302251	1474154609484	1474154609587	y	89
167194	1816235	The military refuses to leave power and restore democracy by May 21.	The military refuses to leave power and restore democracy by May 21.	86302252	1474154609604	1474154609739	 	32
167194	1816235	The military refuses to leave power and restore democracy by May 21.	The military refuses to leave power and restore democracy by May 21.	86302273	1474154609812	1474154609955	2	50
167194	1816235	The military refuses to leave power and restore democracy by May 21.	The military refuses to leave power and restore democracy by May 21.	86302278	1474154609908	1474154610027	1	49
167194	1816235	The military refuses to leave power and restore democracy by May 21.	The military refuses to leave power and restore democracy by May 21.	86302280	1474154610060	1474154610171	.	190
167194	1816247	I'll try and get to this later today.	I'll try and get to this later today.	86302395	1474154612091	1474154612419	SHIFT	16
167194	1816247	I'll try and get to this later today.	I'll try and get to this later today.	86302394	1474154612244	1474154612379	I	73
167194	1816247	I'll try and get to this later today.	I'll try and get to this later today.	86302396	1474154612372	1474154612435	'	50
167194	1816247	I'll try and get to this later today.	I'll try and get to this later today.	86302397	1474154612580	1474154612659	l	76
167194	1816247	I'll try and get to this later today.	I'll try and get to this later today.	86302398	1474154612716	1474154612819	l	76
167194	1816247	I'll try and get to this later today.	I'll try and get to this later today.	86302399	1474154612820	1474154612947	 	32
167194	1816247	I'll try and get to this later today.	I'll try and get to this later today.	86302429	1474154612932	1474154612995	t	84
167194	1816247	I'll try and get to this later today.	I'll try and get to this later today.	86302431	1474154613156	1474154613259	r	82
167194	1816247	I'll try and get to this later today.	I'll try and get to this later today.	86302435	1474154613348	1474154613460	y	89
167194	1816247	I'll try and get to this later today.	I'll try and get to this later today.	86302438	1474154613452	1474154613570	 	32
167194	1816247	I'll try and get to this later today.	I'll try and get to this later today.	86302442	1474154613548	1474154613651	a	65
167194	1816247	I'll try and get to this later today.	I'll try and get to this later today.	86302445	1474154613620	1474154613747	n	78
167194	1816247	I'll try and get to this later today.	I'll try and get to this later today.	86302448	1474154613708	1474154613818	d	68
167194	1816247	I'll try and get to this later today.	I'll try and get to this later today.	86302453	1474154613796	1474154613883	 	32
167194	1816247	I'll try and get to this later today.	I'll try and get to this later today.	86302458	1474154613908	1474154614003	g	71
167194	1816247	I'll try and get to this later today.	I'll try and get to this later today.	86302463	1474154614012	1474154614115	e	69
167194	1816247	I'll try and get to this later today.	I'll try and get to this later today.	86302472	1474154614084	1474154614187	t	84
167194	1816247	I'll try and get to this later today.	I'll try and get to this later today.	86302473	1474154614204	1474154614323	 	32
167194	1816247	I'll try and get to this later today.	I'll try and get to this later today.	86302475	1474154614308	1474154614419	t	84
167194	1816247	I'll try and get to this later today.	I'll try and get to this later today.	86302478	1474154614412	1474154614555	o	79
167194	1816247	I'll try and get to this later today.	I'll try and get to this later today.	86302483	1474154614532	1474154614630	 	32
167194	1816247	I'll try and get to this later today.	I'll try and get to this later today.	86302515	1474154614628	1474154614675	t	84
167194	1816247	I'll try and get to this later today.	I'll try and get to this later today.	86302517	1474154614756	1474154614795	t	84
167194	1816247	I'll try and get to this later today.	I'll try and get to this later today.	86302519	1474154615060	1474154615131	h	72
167194	1816247	I'll try and get to this later today.	I'll try and get to this later today.	86302521	1474154615164	1474154615219	BKSP	8
167194	1816247	I'll try and get to this later today.	I'll try and get to this later today.	86302523	1474154615300	1474154615378	BKSP	8
167194	1816247	I'll try and get to this later today.	I'll try and get to this later today.	86302525	1474154615349	1474154615435	h	72
167194	1816247	I'll try and get to this later today.	I'll try and get to this later today.	86302527	1474154615460	1474154615587	i	73
167194	1816247	I'll try and get to this later today.	I'll try and get to this later today.	86302526	1474154615524	1474154615659	s	83
167194	1816247	I'll try and get to this later today.	I'll try and get to this later today.	86302528	1474154615620	1474154615731	 	32
167194	1816247	I'll try and get to this later today.	I'll try and get to this later today.	86302529	1474154615684	1474154615835	l	76
167194	1816247	I'll try and get to this later today.	I'll try and get to this later today.	86302530	1474154615764	1474154615858	a	65
167194	1816247	I'll try and get to this later today.	I'll try and get to this later today.	86302531	1474154615843	1474154615946	t	84
167194	1816247	I'll try and get to this later today.	I'll try and get to this later today.	86302542	1474154615940	1474154616058	e	69
167194	1816247	I'll try and get to this later today.	I'll try and get to this later today.	86302543	1474154616012	1474154616123	r	82
167194	1816247	I'll try and get to this later today.	I'll try and get to this later today.	86302544	1474154616108	1474154616219	 	32
167194	1816247	I'll try and get to this later today.	I'll try and get to this later today.	86302545	1474154616260	1474154616363	t	84
167194	1816247	I'll try and get to this later today.	I'll try and get to this later today.	86302546	1474154616395	1474154616507	o	79
167194	1816247	I'll try and get to this later today.	I'll try and get to this later today.	86302547	1474154616516	1474154616621	d	68
167194	1816247	I'll try and get to this later today.	I'll try and get to this later today.	86302558	1474154616596	1474154616699	a	65
167194	1816247	I'll try and get to this later today.	I'll try and get to this later today.	86302561	1474154616756	1474154616851	y	89
167194	1816247	I'll try and get to this later today.	I'll try and get to this later today.	86302564	1474154616859	1474154617006	.	190
167194	1816256	I am looking forward to the salad.	I am looking forward to the salad.	86302698	1474154618723	1474154618987	SHIFT	16
167194	1816256	I am looking forward to the salad.	I am looking forward to the salad.	86302700	1474154618892	1474154619011	I	73
167194	1816256	I am looking forward to the salad.	I am looking forward to the salad.	86302706	1474154618988	1474154619139	 	32
167194	1816256	I am looking forward to the salad.	I am looking forward to the salad.	86302713	1474154619116	1474154619210	a	65
167194	1816256	I am looking forward to the salad.	I am looking forward to the salad.	86302717	1474154619196	1474154619275	m	77
167194	1816256	I am looking forward to the salad.	I am looking forward to the salad.	86302722	1474154619284	1474154619402	 	32
167194	1816256	I am looking forward to the salad.	I am looking forward to the salad.	86302740	1474154619395	1474154619459	l	76
167194	1816256	I am looking forward to the salad.	I am looking forward to the salad.	86302745	1474154619548	1474154619603	o	79
167194	1816256	I am looking forward to the salad.	I am looking forward to the salad.	86302751	1474154619660	1474154619747	o	79
167194	1816256	I am looking forward to the salad.	I am looking forward to the salad.	86302757	1474154619820	1474154619924	k	75
167194	1816256	I am looking forward to the salad.	I am looking forward to the salad.	86302763	1474154619884	1474154620011	i	73
167194	1816256	I am looking forward to the salad.	I am looking forward to the salad.	86302809	1474154619940	1474154620059	n	78
167194	1816256	I am looking forward to the salad.	I am looking forward to the salad.	86302812	1474154620019	1474154620115	g	71
167194	1816256	I am looking forward to the salad.	I am looking forward to the salad.	86302815	1474154620092	1474154620259	 	32
167194	1816256	I am looking forward to the salad.	I am looking forward to the salad.	86302816	1474154620268	1474154620379	f	70
167194	1816256	I am looking forward to the salad.	I am looking forward to the salad.	86302817	1474154620397	1474154620499	o	79
167194	1816256	I am looking forward to the salad.	I am looking forward to the salad.	86302818	1474154620820	1474154620899	r	82
167194	1816256	I am looking forward to the salad.	I am looking forward to the salad.	86302845	1474154620996	1474154621163	w	87
167194	1816256	I am looking forward to the salad.	I am looking forward to the salad.	86302849	1474154621116	1474154621243	a	65
167194	1816256	I am looking forward to the salad.	I am looking forward to the salad.	86302854	1474154621267	1474154621387	r	82
167194	1816256	I am looking forward to the salad.	I am looking forward to the salad.	86302863	1474154621460	1474154621595	d	68
167194	1816256	I am looking forward to the salad.	I am looking forward to the salad.	86302906	1474154621572	1474154621675	 	32
167194	1816256	I am looking forward to the salad.	I am looking forward to the salad.	86302907	1474154621708	1474154621803	t	84
167194	1816256	I am looking forward to the salad.	I am looking forward to the salad.	86302908	1474154621780	1474154621891	o	79
167194	1816256	I am looking forward to the salad.	I am looking forward to the salad.	86302909	1474154621852	1474154621963	 	32
167194	1816256	I am looking forward to the salad.	I am looking forward to the salad.	86302911	1474154622252	1474154622331	t	84
167194	1816256	I am looking forward to the salad.	I am looking forward to the salad.	86302912	1474154622403	1474154622490	h	72
167194	1816256	I am looking forward to the salad.	I am looking forward to the salad.	86302942	1474154622460	1474154622564	e	69
167194	1816256	I am looking forward to the salad.	I am looking forward to the salad.	86302945	1474154622547	1474154622683	 	32
167194	1816256	I am looking forward to the salad.	I am looking forward to the salad.	86302948	1474154622700	1474154622827	s	83
167194	1816256	I am looking forward to the salad.	I am looking forward to the salad.	86302951	1474154622788	1474154622867	a	65
167194	1816256	I am looking forward to the salad.	I am looking forward to the salad.	86302954	1474154622884	1474154623011	l	76
167194	1816256	I am looking forward to the salad.	I am looking forward to the salad.	86302958	1474154623300	1474154623443	a	65
167194	1816256	I am looking forward to the salad.	I am looking forward to the salad.	86302955	1474154623420	1474154623530	d	68
167194	1816264	Send me your address.	Send me your adress.	86303066	1474154625275	1474154625547	SHIFT	16
167194	1816264	Send me your address.	Send me your adress.	86303061	1474154625429	1474154625523	S	83
167194	1816264	Send me your address.	Send me your adress.	86303071	1474154625612	1474154625698	e	69
167194	1816264	Send me your address.	Send me your adress.	86303075	1474154625683	1474154625787	n	78
167194	1816264	Send me your address.	Send me your adress.	86303079	1474154625811	1474154625939	d	68
167194	1816264	Send me your address.	Send me your adress.	86303084	1474154625947	1474154626114	 	32
167194	1816264	Send me your address.	Send me your adress.	86303105	1474154626092	1474154626202	m	77
167194	1816264	Send me your address.	Send me your adress.	86303109	1474154626172	1474154626291	e	69
167194	1816264	Send me your address.	Send me your adress.	86303114	1474154626260	1474154626379	 	32
167194	1816264	Send me your address.	Send me your adress.	86303119	1474154626515	1474154626610	y	89
167194	1816264	Send me your address.	Send me your adress.	86303125	1474154626580	1474154626667	o	79
167194	1816264	Send me your address.	Send me your adress.	86303129	1474154626724	1474154626818	u	85
167194	1816264	Send me your address.	Send me your adress.	86303134	1474154626796	1474154626874	r	82
167194	1816264	Send me your address.	Send me your adress.	86303138	1474154626860	1474154626995	 	32
167194	1816264	Send me your address.	Send me your adress.	86303143	1474154626963	1474154627083	a	65
167194	1816264	Send me your address.	Send me your adress.	86303148	1474154627043	1474154627131	d	68
167194	1816264	Send me your address.	Send me your adress.	86303153	1474154627212	1474154627299	r	82
167194	1816264	Send me your address.	Send me your adress.	86303169	1474154627276	1474154627395	e	69
167194	1816264	Send me your address.	Send me your adress.	86303172	1474154627411	1474154627507	s	83
167194	1816264	Send me your address.	Send me your adress.	86303176	1474154627572	1474154627683	s	83
167194	1816269	Probably can handle Monday PM.	Probably can handle Monday PM.	86303316	1474154630067	1474154630243	SHIFT	16
167194	1816269	Probably can handle Monday PM.	Probably can handle Monday PM.	86303319	1474154630196	1474154630307	P	80
167194	1816269	Probably can handle Monday PM.	Probably can handle Monday PM.	86303323	1474154630340	1474154630419	r	82
167194	1816269	Probably can handle Monday PM.	Probably can handle Monday PM.	86303328	1474154630427	1474154630555	o	79
167194	1816269	Probably can handle Monday PM.	Probably can handle Monday PM.	86303333	1474154630540	1474154630606	b	66
167194	1816269	Probably can handle Monday PM.	Probably can handle Monday PM.	86303364	1474154630604	1474154630714	a	65
167194	1816269	Probably can handle Monday PM.	Probably can handle Monday PM.	86303369	1474154630676	1474154630779	b	66
167194	1816269	Probably can handle Monday PM.	Probably can handle Monday PM.	86303374	1474154630811	1474154630955	l	76
167194	1816269	Probably can handle Monday PM.	Probably can handle Monday PM.	86303380	1474154630892	1474154631010	y	89
167194	1816269	Probably can handle Monday PM.	Probably can handle Monday PM.	86303387	1474154630988	1474154631147	 	32
167194	1816269	Probably can handle Monday PM.	Probably can handle Monday PM.	86303393	1474154631171	1474154631307	c	67
167194	1816269	Probably can handle Monday PM.	Probably can handle Monday PM.	86303412	1474154631236	1474154631363	a	65
167194	1816269	Probably can handle Monday PM.	Probably can handle Monday PM.	86303415	1474154631332	1474154631434	n	78
167194	1816269	Probably can handle Monday PM.	Probably can handle Monday PM.	86303418	1474154631419	1474154631499	 	32
167194	1816269	Probably can handle Monday PM.	Probably can handle Monday PM.	86303421	1474154631555	1474154631658	h	72
167194	1816269	Probably can handle Monday PM.	Probably can handle Monday PM.	86303425	1474154631651	1474154631739	a	65
167194	1816269	Probably can handle Monday PM.	Probably can handle Monday PM.	86303432	1474154631740	1474154631846	n	78
167194	1816269	Probably can handle Monday PM.	Probably can handle Monday PM.	86303486	1474154631843	1474154631954	d	68
167194	1816269	Probably can handle Monday PM.	Probably can handle Monday PM.	86303490	1474154631972	1474154632132	l	76
167194	1816269	Probably can handle Monday PM.	Probably can handle Monday PM.	86303492	1474154632108	1474154632227	e	69
167194	1816269	Probably can handle Monday PM.	Probably can handle Monday PM.	86303495	1474154632195	1474154632339	 	32
167194	1816269	Probably can handle Monday PM.	Probably can handle Monday PM.	86303502	1474154632298	1474154632619	SHIFT	16
167194	1816269	Probably can handle Monday PM.	Probably can handle Monday PM.	86303499	1474154632443	1474154632547	M	77
167194	1816269	Probably can handle Monday PM.	Probably can handle Monday PM.	86303507	1474154633243	1474154633306	o	79
167194	1816269	Probably can handle Monday PM.	Probably can handle Monday PM.	86303521	1474154633404	1474154633507	n	78
167194	1816269	Probably can handle Monday PM.	Probably can handle Monday PM.	86303524	1474154633459	1474154633571	d	68
167194	1816269	Probably can handle Monday PM.	Probably can handle Monday PM.	86303527	1474154633540	1474154633635	a	65
167194	1816269	Probably can handle Monday PM.	Probably can handle Monday PM.	86303531	1474154633675	1474154633786	y	89
167194	1816269	Probably can handle Monday PM.	Probably can handle Monday PM.	86303535	1474154633795	1474154633923	 	32
167194	1816269	Probably can handle Monday PM.	Probably can handle Monday PM.	86303550	1474154633819	1474154634267	SHIFT	16
167194	1816269	Probably can handle Monday PM.	Probably can handle Monday PM.	86303545	1474154633931	1474154634051	P	80
167194	1816269	Probably can handle Monday PM.	Probably can handle Monday PM.	86303547	1474154634163	1474154634235		188
167194	1816269	Probably can handle Monday PM.	Probably can handle Monday PM.	86303554	1474154634587	1474154634675	BKSP	8
167194	1816269	Probably can handle Monday PM.	Probably can handle Monday PM.	86303563	1474154634820	1474154635018	SHIFT	16
167194	1816269	Probably can handle Monday PM.	Probably can handle Monday PM.	86303559	1474154634916	1474154635003	M	77
167194	1816280	What did you and Ava decide to do?	What did you and Ava decide to do?	86303691	1474154637740	1474154637987	SHIFT	16
167194	1816280	What did you and Ava decide to do?	What did you and Ava decide to do?	86303694	1474154637900	1474154637995	W	87
167194	1816280	What did you and Ava decide to do?	What did you and Ava decide to do?	86303697	1474154638091	1474154638155	h	72
167194	1816280	What did you and Ava decide to do?	What did you and Ava decide to do?	86303699	1474154638123	1474154638274	a	65
167194	1816280	What did you and Ava decide to do?	What did you and Ava decide to do?	86303702	1474154638259	1474154638378	t	84
167194	1816280	What did you and Ava decide to do?	What did you and Ava decide to do?	86303725	1474154638371	1474154638515	 	32
167194	1816280	What did you and Ava decide to do?	What did you and Ava decide to do?	86303728	1474154638643	1474154638730	d	68
167194	1816280	What did you and Ava decide to do?	What did you and Ava decide to do?	86303733	1474154638771	1474154638946	i	73
167194	1816280	What did you and Ava decide to do?	What did you and Ava decide to do?	86303737	1474154638859	1474154638955	d	68
167194	1816280	What did you and Ava decide to do?	What did you and Ava decide to do?	86303741	1474154638939	1474154639042	 	32
167194	1816280	What did you and Ava decide to do?	What did you and Ava decide to do?	86303745	1474154639075	1474154639179	y	89
167194	1816280	What did you and Ava decide to do?	What did you and Ava decide to do?	86303751	1474154639107	1474154639186	o	79
167194	1816280	What did you and Ava decide to do?	What did you and Ava decide to do?	86303752	1474154639267	1474154639363	u	85
167194	1816280	What did you and Ava decide to do?	What did you and Ava decide to do?	86303756	1474154639307	1474154639402	 	32
167194	1816280	What did you and Ava decide to do?	What did you and Ava decide to do?	86303761	1474154639435	1474154639530	a	65
167194	1816280	What did you and Ava decide to do?	What did you and Ava decide to do?	86303764	1474154639563	1474154639642	m	77
167194	1816280	What did you and Ava decide to do?	What did you and Ava decide to do?	86303850	1474154639603	1474154639723	d	68
167194	1816280	What did you and Ava decide to do?	What did you and Ava decide to do?	86303855	1474154639691	1474154639810	 	32
167194	1816280	What did you and Ava decide to do?	What did you and Ava decide to do?	86303862	1474154639755	1474154639955	SHIFT	16
167194	1816280	What did you and Ava decide to do?	What did you and Ava decide to do?	86303869	1474154639859	1474154639962	A	65
167194	1816280	What did you and Ava decide to do?	What did you and Ava decide to do?	86303875	1474154640019	1474154640130	v	86
167194	1816280	What did you and Ava decide to do?	What did you and Ava decide to do?	86303880	1474154640108	1474154640219	a	65
167194	1816280	What did you and Ava decide to do?	What did you and Ava decide to do?	86303883	1474154640283	1474154640339	BKSP	8
167194	1816280	What did you and Ava decide to do?	What did you and Ava decide to do?	86303887	1474154640419	1474154640475	BKSP	8
167194	1816280	What did you and Ava decide to do?	What did you and Ava decide to do?	86303890	1474154640547	1474154640587	BKSP	8
167194	1816280	What did you and Ava decide to do?	What did you and Ava decide to do?	86303893	1474154640659	1474154640706	BKSP	8
167194	1816280	What did you and Ava decide to do?	What did you and Ava decide to do?	86303898	1474154640795	1474154640826	BKSP	8
167194	1816280	What did you and Ava decide to do?	What did you and Ava decide to do?	86303903	1474154640907	1474154640955	BKSP	8
167194	1816280	What did you and Ava decide to do?	What did you and Ava decide to do?	86303907	1474154641035	1474154641133	n	78
167194	1816280	What did you and Ava decide to do?	What did you and Ava decide to do?	86303918	1474154641108	1474154641194	d	68
167194	1816280	What did you and Ava decide to do?	What did you and Ava decide to do?	86303922	1474154641235	1474154641298	 	32
167194	1816280	What did you and Ava decide to do?	What did you and Ava decide to do?	86303929	1474154641274	1474154641691	SHIFT	16
167194	1816280	What did you and Ava decide to do?	What did you and Ava decide to do?	86303936	1474154641627	1474154641723	A	65
167194	1816280	What did you and Ava decide to do?	What did you and Ava decide to do?	86303946	1474154641819	1474154641922	v	86
167194	1816280	What did you and Ava decide to do?	What did you and Ava decide to do?	86303949	1474154641899	1474154642026	a	65
167194	1816280	What did you and Ava decide to do?	What did you and Ava decide to do?	86303975	1474154642019	1474154642130	 	32
167194	1816280	What did you and Ava decide to do?	What did you and Ava decide to do?	86303977	1474154642195	1474154642315	d	68
167194	1816280	What did you and Ava decide to do?	What did you and Ava decide to do?	86303981	1474154642363	1474154642452	e	69
167194	1816280	What did you and Ava decide to do?	What did you and Ava decide to do?	86303986	1474154642499	1474154642602	c	67
167194	1816280	What did you and Ava decide to do?	What did you and Ava decide to do?	86303990	1474154642595	1474154642746	i	73
167194	1816280	What did you and Ava decide to do?	What did you and Ava decide to do?	86304002	1474154642699	1474154642810	d	68
167194	1816280	What did you and Ava decide to do?	What did you and Ava decide to do?	86304006	1474154642771	1474154642907	e	69
167194	1816280	What did you and Ava decide to do?	What did you and Ava decide to do?	86304011	1474154642916	1474154643053	 	32
167194	1816280	What did you and Ava decide to do?	What did you and Ava decide to do?	86304015	1474154643027	1474154643106	t	84
167194	1816280	What did you and Ava decide to do?	What did you and Ava decide to do?	86304019	1474154643131	1474154643274	o	79
167194	1816280	What did you and Ava decide to do?	What did you and Ava decide to do?	86304072	1474154643243	1474154643338	 	32
167194	1816280	What did you and Ava decide to do?	What did you and Ava decide to do?	86304074	1474154643483	1474154643603	d	68
167194	1816280	What did you and Ava decide to do?	What did you and Ava decide to do?	86304075	1474154643555	1474154643635	o	79
167194	1816280	What did you and Ava decide to do?	What did you and Ava decide to do?	86304077	1474154643954	1474154644258	SHIFT	16
167194	1816280	What did you and Ava decide to do?	What did you and Ava decide to do?	86304076	1474154644146	1474154644227	?	191
