PARTICIPANT_ID	TEST_SECTION_ID	SENTENCE	USER_INPUT	KEYSTROKE_ID	PRESS_TIME	RELEASE_TIME	LETTER	KEYCODE
169433	1839427	It's going to be a tough weekend.	It's going to be a tough weekend.	87407261	1474206921975	1474206922301	SHIFT	16
169433	1839427	It's going to be a tough weekend.	It's going to be a tough weekend.	87407262	1474206922049	1474206922302	I	73
169433	1839427	It's going to be a tough weekend.	It's going to be a tough weekend.	87407263	1474206922302	1474206922368	t	84
169433	1839427	It's going to be a tough weekend.	It's going to be a tough weekend.	87407265	1474206922345	1474206922459	'	222
169433	1839427	It's going to be a tough weekend.	It's going to be a tough weekend.	87407267	1474206922462	1474206922597	s	83
169433	1839427	It's going to be a tough weekend.	It's going to be a tough weekend.	87407279	1474206922576	1474206922650	 	32
169433	1839427	It's going to be a tough weekend.	It's going to be a tough weekend.	87407280	1474206922703	1474206922837	g	71
169433	1839427	It's going to be a tough weekend.	It's going to be a tough weekend.	87407281	1474206922810	1474206922874	o	79
169433	1839427	It's going to be a tough weekend.	It's going to be a tough weekend.	87407282	1474206923174	1474206923309	i	73
169433	1839427	It's going to be a tough weekend.	It's going to be a tough weekend.	87407283	1474206923387	1474206923469	n	78
169433	1839427	It's going to be a tough weekend.	It's going to be a tough weekend.	87407305	1474206923465	1474206923586	g	71
169433	1839427	It's going to be a tough weekend.	It's going to be a tough weekend.	87407309	1474206923560	1474206923623	 	32
169433	1839427	It's going to be a tough weekend.	It's going to be a tough weekend.	87407311	1474206923696	1474206923817	t	84
169433	1839427	It's going to be a tough weekend.	It's going to be a tough weekend.	87407315	1474206923781	1474206923860	o	79
169433	1839427	It's going to be a tough weekend.	It's going to be a tough weekend.	87407317	1474206923953	1474206924017	 	32
169433	1839427	It's going to be a tough weekend.	It's going to be a tough weekend.	87407319	1474206924070	1474206924155	b	66
169433	1839427	It's going to be a tough weekend.	It's going to be a tough weekend.	87407327	1474206924172	1474206924268	e	69
169433	1839427	It's going to be a tough weekend.	It's going to be a tough weekend.	87407328	1474206924243	1474206924362	 	32
169433	1839427	It's going to be a tough weekend.	It's going to be a tough weekend.	87407329	1474206924371	1474206924504	a	65
169433	1839427	It's going to be a tough weekend.	It's going to be a tough weekend.	87407330	1474206924464	1474206924547	 	32
169433	1839427	It's going to be a tough weekend.	It's going to be a tough weekend.	87407331	1474206924700	1474206924838	t	84
169433	1839427	It's going to be a tough weekend.	It's going to be a tough weekend.	87407339	1474206924797	1474206924872	o	79
169433	1839427	It's going to be a tough weekend.	It's going to be a tough weekend.	87407340	1474206924947	1474206925009	u	85
169433	1839427	It's going to be a tough weekend.	It's going to be a tough weekend.	87407341	1474206925033	1474206925129	g	71
169433	1839427	It's going to be a tough weekend.	It's going to be a tough weekend.	87407342	1474206925112	1474206925181	h	72
169433	1839427	It's going to be a tough weekend.	It's going to be a tough weekend.	87407343	1474206925267	1474206925365	 	32
169433	1839427	It's going to be a tough weekend.	It's going to be a tough weekend.	87407351	1474206925329	1474206925474	w	87
169433	1839427	It's going to be a tough weekend.	It's going to be a tough weekend.	87407354	1474206925431	1474206925501	e	69
169433	1839427	It's going to be a tough weekend.	It's going to be a tough weekend.	87407356	1474206925563	1474206925670	e	69
169433	1839427	It's going to be a tough weekend.	It's going to be a tough weekend.	87407358	1474206925678	1474206925769	k	75
169433	1839427	It's going to be a tough weekend.	It's going to be a tough weekend.	87407360	1474206925754	1474206925854	e	69
169433	1839427	It's going to be a tough weekend.	It's going to be a tough weekend.	87407362	1474206925873	1474206925963	n	78
169433	1839427	It's going to be a tough weekend.	It's going to be a tough weekend.	87407364	1474206925998	1474206926155	d	68
169433	1839427	It's going to be a tough weekend.	It's going to be a tough weekend.	87407365	1474206926157	1474206926251	.	190
169433	1839432	Are you being a baby?	Are you being a baby?	87407403	1474206928101	1474206928236	SHIFT	16
169433	1839432	Are you being a baby?	Are you being a baby?	87407404	1474206928146	1474206928273	A	65
169433	1839432	Are you being a baby?	Are you being a baby?	87407405	1474206928342	1474206928455	r	82
169433	1839432	Are you being a baby?	Are you being a baby?	87407406	1474206928407	1474206928530	e	69
169433	1839432	Are you being a baby?	Are you being a baby?	87407407	1474206928532	1474206928600	 	32
169433	1839432	Are you being a baby?	Are you being a baby?	87407408	1474206928640	1474206928762	y	89
169433	1839432	Are you being a baby?	Are you being a baby?	87407414	1474206928720	1474206928784	o	79
169433	1839432	Are you being a baby?	Are you being a baby?	87407415	1474206928863	1474206928917	u	85
169433	1839432	Are you being a baby?	Are you being a baby?	87407416	1474206928996	1474206929072	 	32
169433	1839432	Are you being a baby?	Are you being a baby?	87407417	1474206929067	1474206929152	b	66
169433	1839432	Are you being a baby?	Are you being a baby?	87407418	1474206929214	1474206929365	e	69
169433	1839432	Are you being a baby?	Are you being a baby?	87407432	1474206929316	1474206929374	i	73
169433	1839432	Are you being a baby?	Are you being a baby?	87407435	1474206929446	1474206929515	n	78
169433	1839432	Are you being a baby?	Are you being a baby?	87407437	1474206929510	1474206929598	g	71
169433	1839432	Are you being a baby?	Are you being a baby?	87407438	1474206929620	1474206929692	 	32
169433	1839432	Are you being a baby?	Are you being a baby?	87407439	1474206929801	1474206929909	 	32
169433	1839432	Are you being a baby?	Are you being a baby?	87407440	1474206930164	1474206930226	BKSP	8
169433	1839432	Are you being a baby?	Are you being a baby?	87407441	1474206930266	1474206930379	a	65
169433	1839432	Are you being a baby?	Are you being a baby?	87407446	1474206930404	1474206930483	 	32
169433	1839432	Are you being a baby?	Are you being a baby?	87407447	1474206930690	1474206930820	b	66
169433	1839432	Are you being a baby?	Are you being a baby?	87407448	1474206930890	1474206930997	a	65
169433	1839432	Are you being a baby?	Are you being a baby?	87407449	1474206930953	1474206931029	b	66
169433	1839432	Are you being a baby?	Are you being a baby?	87407450	1474206931096	1474206931163	y	89
169433	1839434	What level of detail do you need?	What level of detail do you need?	87407480	1474206931297	1474206932899	SHIFT	16
169433	1839434	What level of detail do you need?	What level of detail do you need?	87407635	1474206931353	1474206938537	?	191
169433	1839434	What level of detail do you need?	What level of detail do you need?	87407482	1474206932856	1474206932952	W	87
169433	1839434	What level of detail do you need?	What level of detail do you need?	87407484	1474206932939	1474206933024	h	72
169433	1839434	What level of detail do you need?	What level of detail do you need?	87407486	1474206933057	1474206933148	a	65
169433	1839434	What level of detail do you need?	What level of detail do you need?	87407487	1474206933103	1474206933155	t	84
169433	1839434	What level of detail do you need?	What level of detail do you need?	87407488	1474206933240	1474206933302	 	32
169433	1839434	What level of detail do you need?	What level of detail do you need?	87407513	1474206933397	1474206933555	l	76
169433	1839434	What level of detail do you need?	What level of detail do you need?	87407514	1474206933828	1474206933963	e	69
169433	1839434	What level of detail do you need?	What level of detail do you need?	87407515	1474206934072	1474206934188	v	86
169433	1839434	What level of detail do you need?	What level of detail do you need?	87407516	1474206934159	1474206934348	e	69
169433	1839434	What level of detail do you need?	What level of detail do you need?	87407517	1474206934464	1474206934529	l	76
169433	1839434	What level of detail do you need?	What level of detail do you need?	87407524	1474206934636	1474206934701	 	32
169433	1839434	What level of detail do you need?	What level of detail do you need?	87407525	1474206934775	1474206934856	o	79
169433	1839434	What level of detail do you need?	What level of detail do you need?	87407527	1474206934874	1474206934982	f	70
169433	1839434	What level of detail do you need?	What level of detail do you need?	87407531	1474206934963	1474206935043	 	32
169433	1839434	What level of detail do you need?	What level of detail do you need?	87407534	1474206935063	1474206935181	d	68
169433	1839434	What level of detail do you need?	What level of detail do you need?	87407556	1474206935139	1474206935236	e	69
169433	1839434	What level of detail do you need?	What level of detail do you need?	87407557	1474206935324	1474206935415	a	65
169433	1839434	What level of detail do you need?	What level of detail do you need?	87407558	1474206935624	1474206935709	BKSP	8
169433	1839434	What level of detail do you need?	What level of detail do you need?	87407559	1474206935712	1474206935780	t	84
169433	1839434	What level of detail do you need?	What level of detail do you need?	87407561	1474206935875	1474206936034	a	65
169433	1839434	What level of detail do you need?	What level of detail do you need?	87407560	1474206935974	1474206936014	i	73
169433	1839434	What level of detail do you need?	What level of detail do you need?	87407562	1474206936119	1474206936197	l	76
169433	1839434	What level of detail do you need?	What level of detail do you need?	87407585	1474206936281	1474206936345	 	32
169433	1839434	What level of detail do you need?	What level of detail do you need?	87407586	1474206936606	1474206936752	f	70
169433	1839434	What level of detail do you need?	What level of detail do you need?	87407587	1474206936715	1474206936767	o	79
169433	1839434	What level of detail do you need?	What level of detail do you need?	87407588	1474206936899	1474206936951	BKSP	8
169433	1839434	What level of detail do you need?	What level of detail do you need?	87407589	1474206937008	1474206937080	BKSP	8
169433	1839434	What level of detail do you need?	What level of detail do you need?	87407590	1474206937084	1474206937185	d	68
169433	1839434	What level of detail do you need?	What level of detail do you need?	87407613	1474206937166	1474206937240	o	79
169433	1839434	What level of detail do you need?	What level of detail do you need?	87407615	1474206937325	1474206937382	 	32
169433	1839434	What level of detail do you need?	What level of detail do you need?	87407617	1474206937444	1474206937545	y	89
169433	1839434	What level of detail do you need?	What level of detail do you need?	87407618	1474206937488	1474206937586	o	79
169433	1839434	What level of detail do you need?	What level of detail do you need?	87407620	1474206937644	1474206937700	u	85
169433	1839434	What level of detail do you need?	What level of detail do you need?	87407621	1474206937772	1474206937834	 	32
169433	1839434	What level of detail do you need?	What level of detail do you need?	87407631	1474206937896	1474206937964	n	78
169433	1839434	What level of detail do you need?	What level of detail do you need?	87407632	1474206937988	1474206938042	e	69
169433	1839434	What level of detail do you need?	What level of detail do you need?	87407633	1474206938109	1474206938218	e	69
169433	1839434	What level of detail do you need?	What level of detail do you need?	87407634	1474206938195	1474206938314	d	68
169433	1839434	What level of detail do you need?	What level of detail do you need?	87407636	1474206938391	1474206938571	SHIFT	16
169433	1839439	Show your friends how much you care.	Show your friends how much you care.	87407673	1474206940038	1474206940216	SHIFT	16
169433	1839439	Show your friends how much you care.	Show your friends how much you care.	87407674	1474206940137	1474206940259	S	83
169433	1839439	Show your friends how much you care.	Show your friends how much you care.	87407675	1474206940231	1474206940271	h	72
169433	1839439	Show your friends how much you care.	Show your friends how much you care.	87407676	1474206940380	1474206940433	o	79
169433	1839439	Show your friends how much you care.	Show your friends how much you care.	87407677	1474206940426	1474206940524	w	87
169433	1839439	Show your friends how much you care.	Show your friends how much you care.	87407678	1474206940543	1474206940615	 	32
169433	1839439	Show your friends how much you care.	Show your friends how much you care.	87407685	1474206940683	1474206940794	y	89
169433	1839439	Show your friends how much you care.	Show your friends how much you care.	87407686	1474206940757	1474206940830	o	79
169433	1839439	Show your friends how much you care.	Show your friends how much you care.	87407687	1474206940897	1474206940964	u	85
169433	1839439	Show your friends how much you care.	Show your friends how much you care.	87407689	1474206940984	1474206941072	r	82
169433	1839439	Show your friends how much you care.	Show your friends how much you care.	87407701	1474206941067	1474206941145	 	32
169433	1839439	Show your friends how much you care.	Show your friends how much you care.	87407703	1474206941161	1474206941244	f	70
169433	1839439	Show your friends how much you care.	Show your friends how much you care.	87407706	1474206941320	1474206941425	r	82
169433	1839439	Show your friends how much you care.	Show your friends how much you care.	87407709	1474206941399	1474206941468	i	73
169433	1839439	Show your friends how much you care.	Show your friends how much you care.	87407712	1474206941494	1474206941608	e	69
169433	1839439	Show your friends how much you care.	Show your friends how much you care.	87407743	1474206941579	1474206941667	n	78
169433	1839439	Show your friends how much you care.	Show your friends how much you care.	87407746	1474206941670	1474206941804	d	68
169433	1839439	Show your friends how much you care.	Show your friends how much you care.	87407749	1474206941796	1474206941976	s	83
169433	1839439	Show your friends how much you care.	Show your friends how much you care.	87407752	1474206941978	1474206942055	 	32
169433	1839439	Show your friends how much you care.	Show your friends how much you care.	87407754	1474206942242	1474206942294	h	72
169433	1839439	Show your friends how much you care.	Show your friends how much you care.	87407756	1474206942390	1474206942460	o	79
169433	1839439	Show your friends how much you care.	Show your friends how much you care.	87407760	1474206942491	1474206942627	w	87
169433	1839439	Show your friends how much you care.	Show your friends how much you care.	87407763	1474206942581	1474206942651	 	32
169433	1839439	Show your friends how much you care.	Show your friends how much you care.	87407766	1474206942772	1474206942884	m	77
169433	1839439	Show your friends how much you care.	Show your friends how much you care.	87407769	1474206943044	1474206943134	u	85
169433	1839439	Show your friends how much you care.	Show your friends how much you care.	87407771	1474206943148	1474206943277	c	67
169433	1839439	Show your friends how much you care.	Show your friends how much you care.	87407776	1474206943238	1474206943299	h	72
169433	1839439	Show your friends how much you care.	Show your friends how much you care.	87407777	1474206943400	1474206943470	 	32
169433	1839439	Show your friends how much you care.	Show your friends how much you care.	87407778	1474206943663	1474206943760	y	89
169433	1839439	Show your friends how much you care.	Show your friends how much you care.	87407779	1474206943727	1474206943791	o	79
169433	1839439	Show your friends how much you care.	Show your friends how much you care.	87407780	1474206943868	1474206943920	u	85
169433	1839439	Show your friends how much you care.	Show your friends how much you care.	87407781	1474206944010	1474206944106	 	32
169433	1839439	Show your friends how much you care.	Show your friends how much you care.	87407803	1474206944080	1474206944157	c	67
169433	1839439	Show your friends how much you care.	Show your friends how much you care.	87407804	1474206944238	1474206944340	a	65
169433	1839439	Show your friends how much you care.	Show your friends how much you care.	87407805	1474206944432	1474206944548	r	82
169433	1839439	Show your friends how much you care.	Show your friends how much you care.	87407806	1474206944494	1474206944656	e	69
169433	1839439	Show your friends how much you care.	Show your friends how much you care.	87407807	1474206944639	1474206944724	.	190
169433	1839443	He remains a good Fantasy backup when healthy.	He remains a good Fantasy backup when healthy.	87407849	1474206946213	1474206946346	SHIFT	16
169433	1839443	He remains a good Fantasy backup when healthy.	He remains a good Fantasy backup when healthy.	87407851	1474206946304	1474206946392	H	72
169433	1839443	He remains a good Fantasy backup when healthy.	He remains a good Fantasy backup when healthy.	87407853	1474206946410	1474206946543	e	69
169433	1839443	He remains a good Fantasy backup when healthy.	He remains a good Fantasy backup when healthy.	87407856	1474206946492	1474206946572	 	32
169433	1839443	He remains a good Fantasy backup when healthy.	He remains a good Fantasy backup when healthy.	87407860	1474206946626	1474206946736	r	82
169433	1839443	He remains a good Fantasy backup when healthy.	He remains a good Fantasy backup when healthy.	87407874	1474206946716	1474206946866	e	69
169433	1839443	He remains a good Fantasy backup when healthy.	He remains a good Fantasy backup when healthy.	87407876	1474206946961	1474206947070	m	77
169433	1839443	He remains a good Fantasy backup when healthy.	He remains a good Fantasy backup when healthy.	87407878	1474206947101	1474206947200	a	65
169433	1839443	He remains a good Fantasy backup when healthy.	He remains a good Fantasy backup when healthy.	87407879	1474206947263	1474206947371	i	73
169433	1839443	He remains a good Fantasy backup when healthy.	He remains a good Fantasy backup when healthy.	87407880	1474206947479	1474206947511	n	83
169433	1839443	He remains a good Fantasy backup when healthy.	He remains a good Fantasy backup when healthy.	87407906	1474206947970	1474206948024	BKSP	8
169433	1839443	He remains a good Fantasy backup when healthy.	He remains a good Fantasy backup when healthy.	87407910	1474206948065	1474206948121	BKSP	8
169433	1839443	He remains a good Fantasy backup when healthy.	He remains a good Fantasy backup when healthy.	87407913	1474206948220	1474206948285	n	78
169433	1839443	He remains a good Fantasy backup when healthy.	He remains a good Fantasy backup when healthy.	87407916	1474206948297	1474206948414	s	83
169433	1839443	He remains a good Fantasy backup when healthy.	He remains a good Fantasy backup when healthy.	87407917	1474206948443	1474206948534	 	32
169433	1839443	He remains a good Fantasy backup when healthy.	He remains a good Fantasy backup when healthy.	87407918	1474206948518	1474206948630	a	65
169433	1839443	He remains a good Fantasy backup when healthy.	He remains a good Fantasy backup when healthy.	87407919	1474206948636	1474206948713	 	32
169433	1839443	He remains a good Fantasy backup when healthy.	He remains a good Fantasy backup when healthy.	87407930	1474206948825	1474206948941	g	71
169433	1839443	He remains a good Fantasy backup when healthy.	He remains a good Fantasy backup when healthy.	87407932	1474206948900	1474206948947	o	79
169433	1839443	He remains a good Fantasy backup when healthy.	He remains a good Fantasy backup when healthy.	87407936	1474206949016	1474206949090	o	79
169433	1839443	He remains a good Fantasy backup when healthy.	He remains a good Fantasy backup when healthy.	87407940	1474206949112	1474206949289	d	68
169433	1839443	He remains a good Fantasy backup when healthy.	He remains a good Fantasy backup when healthy.	87407959	1474206949275	1474206949363	 	32
169433	1839443	He remains a good Fantasy backup when healthy.	He remains a good Fantasy backup when healthy.	87407967	1474206949474	1474206949694	SHIFT	16
169433	1839443	He remains a good Fantasy backup when healthy.	He remains a good Fantasy backup when healthy.	87407962	1474206949561	1474206949673	F	70
169433	1839443	He remains a good Fantasy backup when healthy.	He remains a good Fantasy backup when healthy.	87407972	1474206949752	1474206949916	a	65
169433	1839443	He remains a good Fantasy backup when healthy.	He remains a good Fantasy backup when healthy.	87407977	1474206949905	1474206950002	n	78
169433	1839443	He remains a good Fantasy backup when healthy.	He remains a good Fantasy backup when healthy.	87407983	1474206950124	1474206950255	t	84
169433	1839443	He remains a good Fantasy backup when healthy.	He remains a good Fantasy backup when healthy.	87408005	1474206950229	1474206950336	s	83
169433	1839443	He remains a good Fantasy backup when healthy.	He remains a good Fantasy backup when healthy.	87408006	1474206950263	1474206950412	a	65
169433	1839443	He remains a good Fantasy backup when healthy.	He remains a good Fantasy backup when healthy.	87408007	1474206950638	1474206950690	BKSP	8
169433	1839443	He remains a good Fantasy backup when healthy.	He remains a good Fantasy backup when healthy.	87408008	1474206950742	1474206950814	BKSP	8
169433	1839443	He remains a good Fantasy backup when healthy.	He remains a good Fantasy backup when healthy.	87408009	1474206950832	1474206950953	a	65
169433	1839443	He remains a good Fantasy backup when healthy.	He remains a good Fantasy backup when healthy.	87408010	1474206950894	1474206951018	s	83
169433	1839443	He remains a good Fantasy backup when healthy.	He remains a good Fantasy backup when healthy.	87408013	1474206950994	1474206951063	y	89
169433	1839443	He remains a good Fantasy backup when healthy.	He remains a good Fantasy backup when healthy.	87408017	1474206951161	1474206951259	 	32
169433	1839443	He remains a good Fantasy backup when healthy.	He remains a good Fantasy backup when healthy.	87408035	1474206951326	1474206951437	b	66
169433	1839443	He remains a good Fantasy backup when healthy.	He remains a good Fantasy backup when healthy.	87408036	1474206951419	1474206951485	a	65
169433	1839443	He remains a good Fantasy backup when healthy.	He remains a good Fantasy backup when healthy.	87408037	1474206951581	1474206951696	c	67
169433	1839443	He remains a good Fantasy backup when healthy.	He remains a good Fantasy backup when healthy.	87408038	1474206951632	1474206951703	k	75
169433	1839443	He remains a good Fantasy backup when healthy.	He remains a good Fantasy backup when healthy.	87408039	1474206951780	1474206951834	u	85
169433	1839443	He remains a good Fantasy backup when healthy.	He remains a good Fantasy backup when healthy.	87408050	1474206951927	1474206951991	p	80
169433	1839443	He remains a good Fantasy backup when healthy.	He remains a good Fantasy backup when healthy.	87408053	1474206952095	1474206952183	 	32
169433	1839443	He remains a good Fantasy backup when healthy.	He remains a good Fantasy backup when healthy.	87408055	1474206952189	1474206952295	w	87
169433	1839443	He remains a good Fantasy backup when healthy.	He remains a good Fantasy backup when healthy.	87408058	1474206952270	1474206952336	h	72
169433	1839443	He remains a good Fantasy backup when healthy.	He remains a good Fantasy backup when healthy.	87408061	1474206952369	1474206952455	e	69
169433	1839443	He remains a good Fantasy backup when healthy.	He remains a good Fantasy backup when healthy.	87408068	1474206952440	1474206952516	n	78
169433	1839443	He remains a good Fantasy backup when healthy.	He remains a good Fantasy backup when healthy.	87408070	1474206952591	1474206952665	 	32
169433	1839443	He remains a good Fantasy backup when healthy.	He remains a good Fantasy backup when healthy.	87408072	1474206952754	1474206952859	h	72
169433	1839443	He remains a good Fantasy backup when healthy.	He remains a good Fantasy backup when healthy.	87408074	1474206952845	1474206952914	e	69
169433	1839443	He remains a good Fantasy backup when healthy.	He remains a good Fantasy backup when healthy.	87408076	1474206952991	1474206953092	a	65
169433	1839443	He remains a good Fantasy backup when healthy.	He remains a good Fantasy backup when healthy.	87408084	1474206953070	1474206953173	l	76
169433	1839443	He remains a good Fantasy backup when healthy.	He remains a good Fantasy backup when healthy.	87408085	1474206953203	1474206953281	t	84
169433	1839443	He remains a good Fantasy backup when healthy.	He remains a good Fantasy backup when healthy.	87408086	1474206953314	1474206953418	h	72
169433	1839443	He remains a good Fantasy backup when healthy.	He remains a good Fantasy backup when healthy.	87408087	1474206953459	1474206953569	y	89
169433	1839443	He remains a good Fantasy backup when healthy.	He remains a good Fantasy backup when healthy.	87408088	1474206953644	1474206953761	.	190
169433	1839449	Can you help with this one?	Can you help with this one?	87408141	1474206955473	1474206955645	SHIFT	16
169433	1839449	Can you help with this one?	Can you help with this one?	87408142	1474206955605	1474206955686	C	67
169433	1839449	Can you help with this one?	Can you help with this one?	87408143	1474206955714	1474206955863	a	65
169433	1839449	Can you help with this one?	Can you help with this one?	87408144	1474206955815	1474206955873	n	78
169433	1839449	Can you help with this one?	Can you help with this one?	87408146	1474206955959	1474206956017	 	32
169433	1839449	Can you help with this one?	Can you help with this one?	87408149	1474206956030	1474206956128	y	89
169433	1839449	Can you help with this one?	Can you help with this one?	87408168	1474206956117	1474206956175	o	79
169433	1839449	Can you help with this one?	Can you help with this one?	87408170	1474206956264	1474206956309	u	85
169433	1839449	Can you help with this one?	Can you help with this one?	87408171	1474206956395	1474206956473	 	32
169433	1839449	Can you help with this one?	Can you help with this one?	87408173	1474206956555	1474206956641	h	72
169433	1839449	Can you help with this one?	Can you help with this one?	87408174	1474206956681	1474206956803	e	69
169433	1839449	Can you help with this one?	Can you help with this one?	87408176	1474206956857	1474206956967	l	76
169433	1839449	Can you help with this one?	Can you help with this one?	87408179	1474206957051	1474206957137	p	80
169433	1839449	Can you help with this one?	Can you help with this one?	87408180	1474206957231	1474206957299	 	32
169433	1839449	Can you help with this one?	Can you help with this one?	87408181	1474206957310	1474206957406	w	87
169433	1839449	Can you help with this one?	Can you help with this one?	87408183	1474206957389	1474206957474	i	73
169433	1839449	Can you help with this one?	Can you help with this one?	87408186	1474206957482	1474206957567	t	84
169433	1839449	Can you help with this one?	Can you help with this one?	87408201	1474206957579	1474206957648	h	72
169433	1839449	Can you help with this one?	Can you help with this one?	87408202	1474206957734	1474206957817	 	32
169433	1839449	Can you help with this one?	Can you help with this one?	87408203	1474206957843	1474206957941	t	84
169433	1839449	Can you help with this one?	Can you help with this one?	87408204	1474206957910	1474206957980	h	72
169433	1839449	Can you help with this one?	Can you help with this one?	87408205	1474206958041	1474206958132	i	73
169433	1839449	Can you help with this one?	Can you help with this one?	87408211	1474206958152	1474206958255	s	83
169433	1839449	Can you help with this one?	Can you help with this one?	87408213	1474206958211	1474206958269	 	32
169433	1839449	Can you help with this one?	Can you help with this one?	87408215	1474206958345	1474206958407	o	79
169433	1839449	Can you help with this one?	Can you help with this one?	87408217	1474206958487	1474206958578	n	78
169433	1839449	Can you help with this one?	Can you help with this one?	87408223	1474206958554	1474206958622	e	69
169433	1839449	Can you help with this one?	Can you help with this one?	87408224	1474206958803	1474206958894	?	191
169433	1839453	Hope you guys are doing fine.	Hope you guys are doing fine.	87408283	1474206960417	1474206960478	H	72
169433	1839453	Hope you guys are doing fine.	Hope you guys are doing fine.	87408287	1474206960578	1474206960642	o	79
169433	1839453	Hope you guys are doing fine.	Hope you guys are doing fine.	87408290	1474206960723	1474206960780	p	80
169433	1839453	Hope you guys are doing fine.	Hope you guys are doing fine.	87408293	1474206960865	1474206960968	e	69
169433	1839453	Hope you guys are doing fine.	Hope you guys are doing fine.	87408306	1474206960920	1474206961048	 	32
169433	1839453	Hope you guys are doing fine.	Hope you guys are doing fine.	87408310	1474206961149	1474206961277	o	89
169433	1839453	Hope you guys are doing fine.	Hope you guys are doing fine.	87408314	1474206961352	1474206961405	u	85
169433	1839453	Hope you guys are doing fine.	Hope you guys are doing fine.	87408318	1474206961478	1474206961563	 	32
169433	1839453	Hope you guys are doing fine.	Hope you guys are doing fine.	87408324	1474206961603	1474206961692	g	71
169433	1839453	Hope you guys are doing fine.	Hope you guys are doing fine.	87408340	1474206961671	1474206961738	u	85
169433	1839453	Hope you guys are doing fine.	Hope you guys are doing fine.	87408342	1474206961801	1474206961871	y	89
169433	1839453	Hope you guys are doing fine.	Hope you guys are doing fine.	87408344	1474206961849	1474206961980	s	83
169433	1839453	Hope you guys are doing fine.	Hope you guys are doing fine.	87408347	1474206961976	1474206962080	 	32
169433	1839453	Hope you guys are doing fine.	Hope you guys are doing fine.	87408350	1474206962120	1474206962233	a	65
169433	1839453	Hope you guys are doing fine.	Hope you guys are doing fine.	87408354	1474206962308	1474206962459	r	82
169433	1839453	Hope you guys are doing fine.	Hope you guys are doing fine.	87408360	1474206962368	1474206962526	e	69
169433	1839453	Hope you guys are doing fine.	Hope you guys are doing fine.	87408363	1474206962488	1474206962557	 	32
169433	1839453	Hope you guys are doing fine.	Hope you guys are doing fine.	87408367	1474206962590	1474206962742	d	68
169433	1839453	Hope you guys are doing fine.	Hope you guys are doing fine.	87408371	1474206962681	1474206962746	o	79
169433	1839453	Hope you guys are doing fine.	Hope you guys are doing fine.	87408373	1474206962825	1474206962899	i	73
169433	1839453	Hope you guys are doing fine.	Hope you guys are doing fine.	87408376	1474206963008	1474206963092	n	78
169433	1839453	Hope you guys are doing fine.	Hope you guys are doing fine.	87408381	1474206963100	1474206963190	g	71
169433	1839453	Hope you guys are doing fine.	Hope you guys are doing fine.	87408383	1474206963193	1474206963251	 	32
169433	1839453	Hope you guys are doing fine.	Hope you guys are doing fine.	87408387	1474206963287	1474206963386	f	70
169433	1839453	Hope you guys are doing fine.	Hope you guys are doing fine.	87408390	1474206963354	1474206963416	i	73
169433	1839453	Hope you guys are doing fine.	Hope you guys are doing fine.	87408393	1474206963490	1474206963565	n	78
169433	1839453	Hope you guys are doing fine.	Hope you guys are doing fine.	87408396	1474206963554	1474206963673	e	69
169433	1839453	Hope you guys are doing fine.	Hope you guys are doing fine.	87408397	1474206963720	1474206963829	.	190
169433	1839457	The accord was due to have come into effect overnight.	The accord was due to have come into effect overnight.	87408479	1474206965344	1474206965616	SHIFT	16
169433	1839457	The accord was due to have come into effect overnight.	The accord was due to have come into effect overnight.	87408477	1474206965489	1474206965569	T	84
169433	1839457	The accord was due to have come into effect overnight.	The accord was due to have come into effect overnight.	87408480	1474206965654	1474206965735	h	72
169433	1839457	The accord was due to have come into effect overnight.	The accord was due to have come into effect overnight.	87408481	1474206965785	1474206965868	e	69
169433	1839457	The accord was due to have come into effect overnight.	The accord was due to have come into effect overnight.	87408482	1474206965859	1474206965942	 	32
169433	1839457	The accord was due to have come into effect overnight.	The accord was due to have come into effect overnight.	87408483	1474206965973	1474206966057	a	65
169433	1839457	The accord was due to have come into effect overnight.	The accord was due to have come into effect overnight.	87408492	1474206966149	1474206966203	c	67
169433	1839457	The accord was due to have come into effect overnight.	The accord was due to have come into effect overnight.	87408496	1474206966262	1474206966353	c	67
169433	1839457	The accord was due to have come into effect overnight.	The accord was due to have come into effect overnight.	87408499	1474206966368	1474206966448	o	79
169433	1839457	The accord was due to have come into effect overnight.	The accord was due to have come into effect overnight.	87408502	1474206966438	1474206966499	r	82
169433	1839457	The accord was due to have come into effect overnight.	The accord was due to have come into effect overnight.	87408504	1474206966572	1474206966685	d	68
169433	1839457	The accord was due to have come into effect overnight.	The accord was due to have come into effect overnight.	87408530	1474206966710	1474206966785	 	32
169433	1839457	The accord was due to have come into effect overnight.	The accord was due to have come into effect overnight.	87408534	1474206966790	1474206966877	w	87
169433	1839457	The accord was due to have come into effect overnight.	The accord was due to have come into effect overnight.	87408538	1474206966957	1474206967086	a	65
169433	1839457	The accord was due to have come into effect overnight.	The accord was due to have come into effect overnight.	87408542	1474206967026	1474206967138	s	83
169433	1839457	The accord was due to have come into effect overnight.	The accord was due to have come into effect overnight.	87408545	1474206967144	1474206967219	 	32
169433	1839457	The accord was due to have come into effect overnight.	The accord was due to have come into effect overnight.	87408548	1474206967226	1474206967301	d	68
169433	1839457	The accord was due to have come into effect overnight.	The accord was due to have come into effect overnight.	87408549	1474206967296	1474206967375	u	85
169433	1839457	The accord was due to have come into effect overnight.	The accord was due to have come into effect overnight.	87408550	1474206967387	1474206967467	e	69
169433	1839457	The accord was due to have come into effect overnight.	The accord was due to have come into effect overnight.	87408551	1474206967493	1474206967557	 	32
169433	1839457	The accord was due to have come into effect overnight.	The accord was due to have come into effect overnight.	87408552	1474206967581	1474206967733	t	84
169433	1839457	The accord was due to have come into effect overnight.	The accord was due to have come into effect overnight.	87408566	1474206967665	1474206967737	o	79
169433	1839457	The accord was due to have come into effect overnight.	The accord was due to have come into effect overnight.	87408569	1474206967838	1474206967896	 	32
169433	1839457	The accord was due to have come into effect overnight.	The accord was due to have come into effect overnight.	87408572	1474206967967	1474206968024	h	72
169433	1839457	The accord was due to have come into effect overnight.	The accord was due to have come into effect overnight.	87408576	1474206968027	1474206968117	a	65
169433	1839457	The accord was due to have come into effect overnight.	The accord was due to have come into effect overnight.	87408579	1474206968127	1474206968193	v	86
169433	1839457	The accord was due to have come into effect overnight.	The accord was due to have come into effect overnight.	87408581	1474206968208	1474206968298	e	69
169433	1839457	The accord was due to have come into effect overnight.	The accord was due to have come into effect overnight.	87408591	1474206968311	1474206968376	 	32
169433	1839457	The accord was due to have come into effect overnight.	The accord was due to have come into effect overnight.	87408593	1474206968441	1474206968544	c	67
169433	1839457	The accord was due to have come into effect overnight.	The accord was due to have come into effect overnight.	87408595	1474206968520	1474206968577	o	79
169433	1839457	The accord was due to have come into effect overnight.	The accord was due to have come into effect overnight.	87408597	1474206968669	1474206968750	m	77
169433	1839457	The accord was due to have come into effect overnight.	The accord was due to have come into effect overnight.	87408599	1474206968756	1474206968872	e	69
169433	1839457	The accord was due to have come into effect overnight.	The accord was due to have come into effect overnight.	87408626	1474206968855	1474206968913	 	32
169433	1839457	The accord was due to have come into effect overnight.	The accord was due to have come into effect overnight.	87408630	1474206968984	1474206969024	i	73
169433	1839457	The accord was due to have come into effect overnight.	The accord was due to have come into effect overnight.	87408635	1474206969118	1474206969171	n	78
169433	1839457	The accord was due to have come into effect overnight.	The accord was due to have come into effect overnight.	87408638	1474206969431	1474206969523	t	84
169433	1839457	The accord was due to have come into effect overnight.	The accord was due to have come into effect overnight.	87408640	1474206969513	1474206969584	o	79
169433	1839457	The accord was due to have come into effect overnight.	The accord was due to have come into effect overnight.	87408643	1474206969681	1474206969744	 	32
169433	1839457	The accord was due to have come into effect overnight.	The accord was due to have come into effect overnight.	87408659	1474206969939	1474206970056	e	69
169433	1839457	The accord was due to have come into effect overnight.	The accord was due to have come into effect overnight.	87408661	1474206970074	1474206970166	f	70
169433	1839457	The accord was due to have come into effect overnight.	The accord was due to have come into effect overnight.	87408666	1474206970227	1474206970309	f	70
169433	1839457	The accord was due to have come into effect overnight.	The accord was due to have come into effect overnight.	87408669	1474206970316	1474206970471	e	69
169433	1839457	The accord was due to have come into effect overnight.	The accord was due to have come into effect overnight.	87408679	1474206970445	1474206970608	c	67
169433	1839457	The accord was due to have come into effect overnight.	The accord was due to have come into effect overnight.	87408678	1474206970522	1474206970588	t	84
169433	1839457	The accord was due to have come into effect overnight.	The accord was due to have come into effect overnight.	87408681	1474206970677	1474206970738	 	32
169433	1839457	The accord was due to have come into effect overnight.	The accord was due to have come into effect overnight.	87408683	1474206970826	1474206970934	o	79
169433	1839457	The accord was due to have come into effect overnight.	The accord was due to have come into effect overnight.	87408687	1474206970929	1474206971016	v	86
169433	1839457	The accord was due to have come into effect overnight.	The accord was due to have come into effect overnight.	87408692	1474206971071	1474206971234	e	69
169433	1839457	The accord was due to have come into effect overnight.	The accord was due to have come into effect overnight.	87408699	1474206971150	1474206971270	r	82
169433	1839457	The accord was due to have come into effect overnight.	The accord was due to have come into effect overnight.	87408700	1474206971200	1474206971290	n	78
169433	1839457	The accord was due to have come into effect overnight.	The accord was due to have come into effect overnight.	87408701	1474206971355	1474206971427	i	73
169433	1839457	The accord was due to have come into effect overnight.	The accord was due to have come into effect overnight.	87408702	1474206971411	1474206971485	g	71
169433	1839457	The accord was due to have come into effect overnight.	The accord was due to have come into effect overnight.	87408703	1474206971521	1474206971590	h	72
169433	1839457	The accord was due to have come into effect overnight.	The accord was due to have come into effect overnight.	87408706	1474206971582	1474206971659	t	84
169433	1839457	The accord was due to have come into effect overnight.	The accord was due to have come into effect overnight.	87408709	1474206971766	1474206971894	.	190
169433	1839464	Jordan is taking her last job, corporate development.	Jordan is taking her last job, corporate development.	87408774	1474206973274	1474206973470	SHIFT	16
169433	1839464	Jordan is taking her last job, corporate development.	Jordan is taking her last job, corporate development.	87408772	1474206973389	1474206973450	J	74
169433	1839464	Jordan is taking her last job, corporate development.	Jordan is taking her last job, corporate development.	87408776	1474206973544	1474206973649	o	79
169433	1839464	Jordan is taking her last job, corporate development.	Jordan is taking her last job, corporate development.	87408780	1474206973604	1474206973678	r	82
169433	1839464	Jordan is taking her last job, corporate development.	Jordan is taking her last job, corporate development.	87408785	1474206973795	1474206973913	a	65
169433	1839464	Jordan is taking her last job, corporate development.	Jordan is taking her last job, corporate development.	87408789	1474206974054	1474206974116	BKSP	8
169433	1839464	Jordan is taking her last job, corporate development.	Jordan is taking her last job, corporate development.	87408792	1474206974149	1474206974228	d	68
169433	1839464	Jordan is taking her last job, corporate development.	Jordan is taking her last job, corporate development.	87408800	1474206974223	1474206974399	a	65
169433	1839464	Jordan is taking her last job, corporate development.	Jordan is taking her last job, corporate development.	87408802	1474206974342	1474206974415	n	78
169433	1839464	Jordan is taking her last job, corporate development.	Jordan is taking her last job, corporate development.	87408804	1474206974495	1474206974546	 	32
169433	1839464	Jordan is taking her last job, corporate development.	Jordan is taking her last job, corporate development.	87408806	1474206974629	1474206974718	i	73
169433	1839464	Jordan is taking her last job, corporate development.	Jordan is taking her last job, corporate development.	87408809	1474206974701	1474206974793	s	83
169433	1839464	Jordan is taking her last job, corporate development.	Jordan is taking her last job, corporate development.	87408814	1474206974803	1474206974891	 	32
169433	1839464	Jordan is taking her last job, corporate development.	Jordan is taking her last job, corporate development.	87408826	1474206974882	1474206974952	t	84
169433	1839464	Jordan is taking her last job, corporate development.	Jordan is taking her last job, corporate development.	87408828	1474206975057	1474206975193	a	65
169433	1839464	Jordan is taking her last job, corporate development.	Jordan is taking her last job, corporate development.	87408830	1474206975165	1474206975233	k	75
169433	1839464	Jordan is taking her last job, corporate development.	Jordan is taking her last job, corporate development.	87408831	1474206975302	1474206975368	i	73
169433	1839464	Jordan is taking her last job, corporate development.	Jordan is taking her last job, corporate development.	87408833	1474206975443	1474206975520	n	78
169433	1839464	Jordan is taking her last job, corporate development.	Jordan is taking her last job, corporate development.	87408850	1474206975510	1474206975639	g	71
169433	1839464	Jordan is taking her last job, corporate development.	Jordan is taking her last job, corporate development.	87408852	1474206975625	1474206975684	 	32
169433	1839464	Jordan is taking her last job, corporate development.	Jordan is taking her last job, corporate development.	87408854	1474206975790	1474206975902	h	72
169433	1839464	Jordan is taking her last job, corporate development.	Jordan is taking her last job, corporate development.	87408856	1474206975878	1474206976016	e	69
169433	1839464	Jordan is taking her last job, corporate development.	Jordan is taking her last job, corporate development.	87408859	1474206975965	1474206976096	r	82
169433	1839464	Jordan is taking her last job, corporate development.	Jordan is taking her last job, corporate development.	87408875	1474206976065	1474206976151	 	32
169433	1839464	Jordan is taking her last job, corporate development.	Jordan is taking her last job, corporate development.	87408877	1474206976640	1474206976766	l	76
169433	1839464	Jordan is taking her last job, corporate development.	Jordan is taking her last job, corporate development.	87408879	1474206976720	1474206976851	a	65
169433	1839464	Jordan is taking her last job, corporate development.	Jordan is taking her last job, corporate development.	87408881	1474206976801	1474206976893	s	83
169433	1839464	Jordan is taking her last job, corporate development.	Jordan is taking her last job, corporate development.	87408883	1474206976984	1474206977085	t	84
169433	1839464	Jordan is taking her last job, corporate development.	Jordan is taking her last job, corporate development.	87408901	1474206977067	1474206977141	 	32
169433	1839464	Jordan is taking her last job, corporate development.	Jordan is taking her last job, corporate development.	87408904	1474206977216	1474206977290	j	74
169433	1839464	Jordan is taking her last job, corporate development.	Jordan is taking her last job, corporate development.	87408907	1474206977386	1474206977464	o	79
169433	1839464	Jordan is taking her last job, corporate development.	Jordan is taking her last job, corporate development.	87408909	1474206977516	1474206977619	b	66
169433	1839464	Jordan is taking her last job, corporate development.	Jordan is taking her last job, corporate development.	87408911	1474206977629	1474206977737	,	188
169433	1839464	Jordan is taking her last job, corporate development.	Jordan is taking her last job, corporate development.	87408913	1474206977818	1474206977903	 	32
169433	1839464	Jordan is taking her last job, corporate development.	Jordan is taking her last job, corporate development.	87408939	1474206978001	1474206978138	c	67
169433	1839464	Jordan is taking her last job, corporate development.	Jordan is taking her last job, corporate development.	87408940	1474206978110	1474206978193	o	79
169433	1839464	Jordan is taking her last job, corporate development.	Jordan is taking her last job, corporate development.	87408941	1474206978268	1474206978354	p	80
169433	1839464	Jordan is taking her last job, corporate development.	Jordan is taking her last job, corporate development.	87408942	1474206978504	1474206978555	BKSP	8
169433	1839464	Jordan is taking her last job, corporate development.	Jordan is taking her last job, corporate development.	87408943	1474206978607	1474206978665	BKSP	8
169433	1839464	Jordan is taking her last job, corporate development.	Jordan is taking her last job, corporate development.	87408944	1474206978682	1474206978776	r	82
169433	1839464	Jordan is taking her last job, corporate development.	Jordan is taking her last job, corporate development.	87408945	1474206979140	1474206979203	BKSP	8
169433	1839464	Jordan is taking her last job, corporate development.	Jordan is taking her last job, corporate development.	87408946	1474206979315	1474206979410	o	79
169433	1839464	Jordan is taking her last job, corporate development.	Jordan is taking her last job, corporate development.	87408968	1474206979381	1474206979513	r	82
169433	1839464	Jordan is taking her last job, corporate development.	Jordan is taking her last job, corporate development.	87408972	1474206979568	1474206979655	p	80
169433	1839464	Jordan is taking her last job, corporate development.	Jordan is taking her last job, corporate development.	87408975	1474206979744	1474206979840	o	79
169433	1839464	Jordan is taking her last job, corporate development.	Jordan is taking her last job, corporate development.	87408978	1474206979912	1474206979989	r	82
169433	1839464	Jordan is taking her last job, corporate development.	Jordan is taking her last job, corporate development.	87408981	1474206980325	1474206980452	a	65
169433	1839464	Jordan is taking her last job, corporate development.	Jordan is taking her last job, corporate development.	87409001	1474206980429	1474206980502	t	84
169433	1839464	Jordan is taking her last job, corporate development.	Jordan is taking her last job, corporate development.	87409004	1474206980531	1474206980659	e	69
169433	1839464	Jordan is taking her last job, corporate development.	Jordan is taking her last job, corporate development.	87409007	1474206980616	1474206980700	 	32
169433	1839464	Jordan is taking her last job, corporate development.	Jordan is taking her last job, corporate development.	87409009	1474206981010	1474206981180	d	68
169433	1839464	Jordan is taking her last job, corporate development.	Jordan is taking her last job, corporate development.	87409011	1474206981119	1474206981257	e	69
169433	1839464	Jordan is taking her last job, corporate development.	Jordan is taking her last job, corporate development.	87409013	1474206981349	1474206981456	v	86
169433	1839464	Jordan is taking her last job, corporate development.	Jordan is taking her last job, corporate development.	87409025	1474206981515	1474206981659	e	69
169433	1839464	Jordan is taking her last job, corporate development.	Jordan is taking her last job, corporate development.	87409026	1474206981610	1474206981669	l	76
169433	1839464	Jordan is taking her last job, corporate development.	Jordan is taking her last job, corporate development.	87409027	1474206981730	1474206981780	o	79
169433	1839464	Jordan is taking her last job, corporate development.	Jordan is taking her last job, corporate development.	87409028	1474206981844	1474206981940	p	80
169433	1839464	Jordan is taking her last job, corporate development.	Jordan is taking her last job, corporate development.	87409030	1474206982283	1474206982377	m	77
169433	1839464	Jordan is taking her last job, corporate development.	Jordan is taking her last job, corporate development.	87409050	1474206982412	1474206982509	e	69
169433	1839464	Jordan is taking her last job, corporate development.	Jordan is taking her last job, corporate development.	87409051	1474206982501	1474206982571	n	78
169433	1839464	Jordan is taking her last job, corporate development.	Jordan is taking her last job, corporate development.	87409053	1474206982619	1474206982745	t	84
169433	1839464	Jordan is taking her last job, corporate development.	Jordan is taking her last job, corporate development.	87409056	1474206982758	1474206982873	.	190
169433	1839470	I think that Pam Butler called him.	I think that Pam Butler called him.	87409113	1474206984587	1474206984739	SHIFT	16
169433	1839470	I think that Pam Butler called him.	I think that Pam Butler called him.	87409112	1474206984640	1474206984719	I	73
169433	1839470	I think that Pam Butler called him.	I think that Pam Butler called him.	87409114	1474206984797	1474206984861	 	32
169433	1839470	I think that Pam Butler called him.	I think that Pam Butler called him.	87409115	1474206984879	1474206984967	t	84
169433	1839470	I think that Pam Butler called him.	I think that Pam Butler called him.	87409117	1474206984944	1474206985005	h	72
169433	1839470	I think that Pam Butler called him.	I think that Pam Butler called him.	87409119	1474206985078	1474206985131	i	73
169433	1839470	I think that Pam Butler called him.	I think that Pam Butler called him.	87409134	1474206985198	1474206985255	n	78
169433	1839470	I think that Pam Butler called him.	I think that Pam Butler called him.	87409135	1474206985339	1474206985396	k	75
169433	1839470	I think that Pam Butler called him.	I think that Pam Butler called him.	87409136	1474206985467	1474206985530	 	32
169433	1839470	I think that Pam Butler called him.	I think that Pam Butler called him.	87409137	1474206985544	1474206985633	t	84
169433	1839470	I think that Pam Butler called him.	I think that Pam Butler called him.	87409153	1474206985627	1474206985694	h	72
169433	1839470	I think that Pam Butler called him.	I think that Pam Butler called him.	87409157	1474206985730	1474206985888	a	65
169433	1839470	I think that Pam Butler called him.	I think that Pam Butler called him.	87409155	1474206985806	1474206985859	t	84
169433	1839470	I think that Pam Butler called him.	I think that Pam Butler called him.	87409159	1474206985936	1474206986004	 	32
169433	1839470	I think that Pam Butler called him.	I think that Pam Butler called him.	87409165	1474206986115	1474206986271	SHIFT	16
169433	1839470	I think that Pam Butler called him.	I think that Pam Butler called him.	87409162	1474206986204	1474206986237	P	80
169433	1839470	I think that Pam Butler called him.	I think that Pam Butler called him.	87409167	1474206986331	1474206986474	a	65
169433	1839470	I think that Pam Butler called him.	I think that Pam Butler called him.	87409172	1474206986433	1474206986494	m	77
169433	1839470	I think that Pam Butler called him.	I think that Pam Butler called him.	87409174	1474206986857	1474206986960	 	32
169433	1839470	I think that Pam Butler called him.	I think that Pam Butler called him.	87409176	1474206986986	1474206987122	SHIFT	16
169433	1839470	I think that Pam Butler called him.	I think that Pam Butler called him.	87409179	1474206987058	1474206987128	B	66
169433	1839470	I think that Pam Butler called him.	I think that Pam Butler called him.	87409181	1474206987203	1474206987280	u	85
169433	1839470	I think that Pam Butler called him.	I think that Pam Butler called him.	87409183	1474206987361	1474206987441	t	84
169433	1839470	I think that Pam Butler called him.	I think that Pam Butler called him.	87409185	1474206987490	1474206987573	l	76
169433	1839470	I think that Pam Butler called him.	I think that Pam Butler called him.	87409197	1474206987583	1474206987717	e	69
169433	1839470	I think that Pam Butler called him.	I think that Pam Butler called him.	87409198	1474206987640	1474206987762	r	82
169433	1839470	I think that Pam Butler called him.	I think that Pam Butler called him.	87409199	1474206987757	1474206987863	 	32
169433	1839470	I think that Pam Butler called him.	I think that Pam Butler called him.	87409200	1474206987933	1474206988034	c	67
169433	1839470	I think that Pam Butler called him.	I think that Pam Butler called him.	87409201	1474206988117	1474206988225	a	65
169433	1839470	I think that Pam Butler called him.	I think that Pam Butler called him.	87409220	1474206988199	1474206988250	l	76
169433	1839470	I think that Pam Butler called him.	I think that Pam Butler called him.	87409223	1474206988314	1474206988383	l	76
169433	1839470	I think that Pam Butler called him.	I think that Pam Butler called him.	87409226	1474206988359	1474206988493	e	69
169433	1839470	I think that Pam Butler called him.	I think that Pam Butler called him.	87409228	1474206988417	1474206988546	d	68
169433	1839470	I think that Pam Butler called him.	I think that Pam Butler called him.	87409230	1474206988496	1474206988578	 	32
169433	1839470	I think that Pam Butler called him.	I think that Pam Butler called him.	87409232	1474206988758	1474206988880	h	72
169433	1839470	I think that Pam Butler called him.	I think that Pam Butler called him.	87409231	1474206988800	1474206988860	i	73
169433	1839470	I think that Pam Butler called him.	I think that Pam Butler called him.	87409234	1474206988943	1474206989033	m	77
169433	1839470	I think that Pam Butler called him.	I think that Pam Butler called him.	87409238	1474206989150	1474206989261	.	190
169433	1839471	Do you have that information yet?.	Do you have that information yet?.	87409277	1474206990757	1474206990891	SHIFT	16
169433	1839471	Do you have that information yet?.	Do you have that information yet?.	87409278	1474206990851	1474206990959	D	68
169433	1839471	Do you have that information yet?.	Do you have that information yet?.	87409279	1474206990948	1474206990976	o	79
169433	1839471	Do you have that information yet?.	Do you have that information yet?.	87409280	1474206991158	1474206991264	 	32
169433	1839471	Do you have that information yet?.	Do you have that information yet?.	87409281	1474206991584	1474206991654	y	89
169433	1839471	Do you have that information yet?.	Do you have that information yet?.	87409282	1474206991672	1474206991734	o	79
169433	1839471	Do you have that information yet?.	Do you have that information yet?.	87409292	1474206991807	1474206991854	u	85
169433	1839471	Do you have that information yet?.	Do you have that information yet?.	87409294	1474206991943	1474206991998	 	32
169433	1839471	Do you have that information yet?.	Do you have that information yet?.	87409296	1474206992063	1474206992138	h	72
169433	1839471	Do you have that information yet?.	Do you have that information yet?.	87409297	1474206992148	1474206992223	a	65
169433	1839471	Do you have that information yet?.	Do you have that information yet?.	87409298	1474206992228	1474206992296	v	86
169433	1839471	Do you have that information yet?.	Do you have that information yet?.	87409304	1474206992291	1474206992381	e	69
169433	1839471	Do you have that information yet?.	Do you have that information yet?.	87409306	1474206992377	1474206992449	 	32
169433	1839471	Do you have that information yet?.	Do you have that information yet?.	87409308	1474206992478	1474206992567	t	84
169433	1839471	Do you have that information yet?.	Do you have that information yet?.	87409310	1474206992552	1474206992632	h	72
169433	1839471	Do you have that information yet?.	Do you have that information yet?.	87409314	1474206992682	1474206992826	a	65
169433	1839471	Do you have that information yet?.	Do you have that information yet?.	87409325	1474206992776	1474206992833	t	84
169433	1839471	Do you have that information yet?.	Do you have that information yet?.	87409326	1474206992929	1474206993009	 	32
169433	1839471	Do you have that information yet?.	Do you have that information yet?.	87409327	1474206993075	1474206993148	i	73
169433	1839471	Do you have that information yet?.	Do you have that information yet?.	87409328	1474206993236	1474206993307	n	78
169433	1839471	Do you have that information yet?.	Do you have that information yet?.	87409329	1474206993382	1474206993456	f	70
169433	1839471	Do you have that information yet?.	Do you have that information yet?.	87409330	1474206993474	1474206993561	o	79
169433	1839471	Do you have that information yet?.	Do you have that information yet?.	87409342	1474206993602	1474206993695	r	82
169433	1839471	Do you have that information yet?.	Do you have that information yet?.	87409343	1474206993676	1474206993770	m	77
169433	1839471	Do you have that information yet?.	Do you have that information yet?.	87409344	1474206993805	1474206993887	a	65
169433	1839471	Do you have that information yet?.	Do you have that information yet?.	87409345	1474206993972	1474206994067	t	84
169433	1839471	Do you have that information yet?.	Do you have that information yet?.	87409359	1474206994021	1474206994080	i	73
169433	1839471	Do you have that information yet?.	Do you have that information yet?.	87409362	1474206994142	1474206994217	o	79
169433	1839471	Do you have that information yet?.	Do you have that information yet?.	87409366	1474206994288	1474206994344	n	78
169433	1839471	Do you have that information yet?.	Do you have that information yet?.	87409368	1474206994432	1474206994487	 	32
169433	1839471	Do you have that information yet?.	Do you have that information yet?.	87409370	1474206994580	1474206994656	y	89
169433	1839471	Do you have that information yet?.	Do you have that information yet?.	87409373	1474206994690	1474206994822	e	69
169433	1839471	Do you have that information yet?.	Do you have that information yet?.	87409382	1474206994796	1474206994857	t	84
169433	1839471	Do you have that information yet?.	Do you have that information yet?.	87409384	1474206995086	1474206995303	SHIFT	16
169433	1839471	Do you have that information yet?.	Do you have that information yet?.	87409383	1474206995159	1474206995284	?	191
169433	1839471	Do you have that information yet?.	Do you have that information yet?.	87409385	1474206995390	1474206995484	.	190
169433	1839474	Rookie Kevin Swayne will move into the starting lineup.	Rookie Kevin Swayne will move into the starting lineup.	87409406	1474206997077	1474206997529	SHIFT	16
169433	1839474	Rookie Kevin Swayne will move into the starting lineup.	Rookie Kevin Swayne will move into the starting lineup.	87409407	1474206997471	1474206997598	R	82
169433	1839474	Rookie Kevin Swayne will move into the starting lineup.	Rookie Kevin Swayne will move into the starting lineup.	87409408	1474206997593	1474206997666	o	79
169433	1839474	Rookie Kevin Swayne will move into the starting lineup.	Rookie Kevin Swayne will move into the starting lineup.	87409409	1474206997731	1474206997791	o	79
169433	1839474	Rookie Kevin Swayne will move into the starting lineup.	Rookie Kevin Swayne will move into the starting lineup.	87409410	1474206997868	1474206997931	k	75
169433	1839474	Rookie Kevin Swayne will move into the starting lineup.	Rookie Kevin Swayne will move into the starting lineup.	87409411	1474206997992	1474206998069	i	73
169433	1839474	Rookie Kevin Swayne will move into the starting lineup.	Rookie Kevin Swayne will move into the starting lineup.	87409417	1474206998084	1474206998136	e	69
169433	1839474	Rookie Kevin Swayne will move into the starting lineup.	Rookie Kevin Swayne will move into the starting lineup.	87409418	1474206998156	1474206998233	 	32
169433	1839474	Rookie Kevin Swayne will move into the starting lineup.	Rookie Kevin Swayne will move into the starting lineup.	87409420	1474206998338	1474206998538	SHIFT	16
169433	1839474	Rookie Kevin Swayne will move into the starting lineup.	Rookie Kevin Swayne will move into the starting lineup.	87409419	1474206998434	1474206998517	K	75
169433	1839474	Rookie Kevin Swayne will move into the starting lineup.	Rookie Kevin Swayne will move into the starting lineup.	87409421	1474206998563	1474206998665	e	69
169433	1839474	Rookie Kevin Swayne will move into the starting lineup.	Rookie Kevin Swayne will move into the starting lineup.	87409435	1474206998767	1474206998920	v	86
169433	1839474	Rookie Kevin Swayne will move into the starting lineup.	Rookie Kevin Swayne will move into the starting lineup.	87409422	1474206998845	1474206998900	i	73
169433	1839474	Rookie Kevin Swayne will move into the starting lineup.	Rookie Kevin Swayne will move into the starting lineup.	87409438	1474206998987	1474206999048	n	78
169433	1839474	Rookie Kevin Swayne will move into the starting lineup.	Rookie Kevin Swayne will move into the starting lineup.	87409441	1474206999128	1474206999203	 	32
169433	1839474	Rookie Kevin Swayne will move into the starting lineup.	Rookie Kevin Swayne will move into the starting lineup.	87409445	1474206999199	1474206999416	SHIFT	16
169433	1839474	Rookie Kevin Swayne will move into the starting lineup.	Rookie Kevin Swayne will move into the starting lineup.	87409449	1474206999271	1474206999436	S	83
169433	1839474	Rookie Kevin Swayne will move into the starting lineup.	Rookie Kevin Swayne will move into the starting lineup.	87409451	1474206999401	1474206999511	W	87
169433	1839474	Rookie Kevin Swayne will move into the starting lineup.	Rookie Kevin Swayne will move into the starting lineup.	87409452	1474206999604	1474206999710	a	65
169433	1839474	Rookie Kevin Swayne will move into the starting lineup.	Rookie Kevin Swayne will move into the starting lineup.	87409465	1474206999795	1474206999899	y	89
169433	1839474	Rookie Kevin Swayne will move into the starting lineup.	Rookie Kevin Swayne will move into the starting lineup.	87409466	1474207000197	1474207000245	BKSP	8
169433	1839474	Rookie Kevin Swayne will move into the starting lineup.	Rookie Kevin Swayne will move into the starting lineup.	87409468	1474207000312	1474207000344	=	187
169433	1839474	Rookie Kevin Swayne will move into the starting lineup.	Rookie Kevin Swayne will move into the starting lineup.	87409470	1474207000526	1474207000561	BKSP	8
169433	1839474	Rookie Kevin Swayne will move into the starting lineup.	Rookie Kevin Swayne will move into the starting lineup.	87409474	1474207000619	1474207000660	BKSP	8
169433	1839474	Rookie Kevin Swayne will move into the starting lineup.	Rookie Kevin Swayne will move into the starting lineup.	87409477	1474207000719	1474207000780	BKSP	8
169433	1839474	Rookie Kevin Swayne will move into the starting lineup.	Rookie Kevin Swayne will move into the starting lineup.	87409480	1474207001039	1474207001097	w	87
169433	1839474	Rookie Kevin Swayne will move into the starting lineup.	Rookie Kevin Swayne will move into the starting lineup.	87409482	1474207001174	1474207001285	a	65
169433	1839474	Rookie Kevin Swayne will move into the starting lineup.	Rookie Kevin Swayne will move into the starting lineup.	87409495	1474207001250	1474207001328	y	89
169433	1839474	Rookie Kevin Swayne will move into the starting lineup.	Rookie Kevin Swayne will move into the starting lineup.	87409497	1474207001436	1474207001548	n	78
169433	1839474	Rookie Kevin Swayne will move into the starting lineup.	Rookie Kevin Swayne will move into the starting lineup.	87409499	1474207001553	1474207001613	e	69
169433	1839474	Rookie Kevin Swayne will move into the starting lineup.	Rookie Kevin Swayne will move into the starting lineup.	87409501	1474207001674	1474207001762	 	32
169433	1839474	Rookie Kevin Swayne will move into the starting lineup.	Rookie Kevin Swayne will move into the starting lineup.	87409503	1474207001980	1474207002034	w	87
169433	1839474	Rookie Kevin Swayne will move into the starting lineup.	Rookie Kevin Swayne will move into the starting lineup.	87409505	1474207002337	1474207002400	i	73
169433	1839474	Rookie Kevin Swayne will move into the starting lineup.	Rookie Kevin Swayne will move into the starting lineup.	87409514	1474207002487	1474207002548	l	76
169433	1839474	Rookie Kevin Swayne will move into the starting lineup.	Rookie Kevin Swayne will move into the starting lineup.	87409516	1474207002602	1474207002668	l	76
169433	1839474	Rookie Kevin Swayne will move into the starting lineup.	Rookie Kevin Swayne will move into the starting lineup.	87409519	1474207002756	1474207002814	 	32
169433	1839474	Rookie Kevin Swayne will move into the starting lineup.	Rookie Kevin Swayne will move into the starting lineup.	87409523	1474207002904	1474207002990	m	77
169433	1839474	Rookie Kevin Swayne will move into the starting lineup.	Rookie Kevin Swayne will move into the starting lineup.	87409529	1474207003077	1474207003165	o	79
169433	1839474	Rookie Kevin Swayne will move into the starting lineup.	Rookie Kevin Swayne will move into the starting lineup.	87409554	1474207003184	1474207003267	v	86
169433	1839474	Rookie Kevin Swayne will move into the starting lineup.	Rookie Kevin Swayne will move into the starting lineup.	87409561	1474207003231	1474207003393	e	69
169433	1839474	Rookie Kevin Swayne will move into the starting lineup.	Rookie Kevin Swayne will move into the starting lineup.	87409556	1474207003309	1474207003373	 	32
169433	1839474	Rookie Kevin Swayne will move into the starting lineup.	Rookie Kevin Swayne will move into the starting lineup.	87409564	1474207003933	1474207004026	i	73
169433	1839474	Rookie Kevin Swayne will move into the starting lineup.	Rookie Kevin Swayne will move into the starting lineup.	87409566	1474207004089	1474207004153	n	78
169433	1839474	Rookie Kevin Swayne will move into the starting lineup.	Rookie Kevin Swayne will move into the starting lineup.	87409581	1474207004160	1474207004284	t	84
169433	1839474	Rookie Kevin Swayne will move into the starting lineup.	Rookie Kevin Swayne will move into the starting lineup.	87409583	1474207004247	1474207004288	o	79
169433	1839474	Rookie Kevin Swayne will move into the starting lineup.	Rookie Kevin Swayne will move into the starting lineup.	87409585	1474207004744	1474207004840	 	32
169433	1839474	Rookie Kevin Swayne will move into the starting lineup.	Rookie Kevin Swayne will move into the starting lineup.	87409587	1474207004897	1474207004986	t	84
169433	1839474	Rookie Kevin Swayne will move into the starting lineup.	Rookie Kevin Swayne will move into the starting lineup.	87409615	1474207004970	1474207005065	h	72
169433	1839474	Rookie Kevin Swayne will move into the starting lineup.	Rookie Kevin Swayne will move into the starting lineup.	87409616	1474207005100	1474207005225	e	69
169433	1839474	Rookie Kevin Swayne will move into the starting lineup.	Rookie Kevin Swayne will move into the starting lineup.	87409619	1474207005200	1474207005301	 	32
169433	1839474	Rookie Kevin Swayne will move into the starting lineup.	Rookie Kevin Swayne will move into the starting lineup.	87409621	1474207005334	1474207005458	s	83
169433	1839474	Rookie Kevin Swayne will move into the starting lineup.	Rookie Kevin Swayne will move into the starting lineup.	87409624	1474207005470	1474207005548	t	84
169433	1839474	Rookie Kevin Swayne will move into the starting lineup.	Rookie Kevin Swayne will move into the starting lineup.	87409627	1474207005728	1474207005825	a	65
169433	1839474	Rookie Kevin Swayne will move into the starting lineup.	Rookie Kevin Swayne will move into the starting lineup.	87409630	1474207005895	1474207005982	r	82
169433	1839474	Rookie Kevin Swayne will move into the starting lineup.	Rookie Kevin Swayne will move into the starting lineup.	87409631	1474207006060	1474207006178	t	84
169433	1839474	Rookie Kevin Swayne will move into the starting lineup.	Rookie Kevin Swayne will move into the starting lineup.	87409632	1474207006164	1474207006227	i	73
169433	1839474	Rookie Kevin Swayne will move into the starting lineup.	Rookie Kevin Swayne will move into the starting lineup.	87409633	1474207006306	1474207006377	n	78
169433	1839474	Rookie Kevin Swayne will move into the starting lineup.	Rookie Kevin Swayne will move into the starting lineup.	87409641	1474207006347	1474207006446	g	71
169433	1839474	Rookie Kevin Swayne will move into the starting lineup.	Rookie Kevin Swayne will move into the starting lineup.	87409644	1474207006450	1474207006501	 	32
169433	1839474	Rookie Kevin Swayne will move into the starting lineup.	Rookie Kevin Swayne will move into the starting lineup.	87409648	1474207006579	1474207006658	l	76
169433	1839474	Rookie Kevin Swayne will move into the starting lineup.	Rookie Kevin Swayne will move into the starting lineup.	87409651	1474207006728	1474207006796	i	73
169433	1839474	Rookie Kevin Swayne will move into the starting lineup.	Rookie Kevin Swayne will move into the starting lineup.	87409653	1474207006889	1474207006975	n	78
169433	1839474	Rookie Kevin Swayne will move into the starting lineup.	Rookie Kevin Swayne will move into the starting lineup.	87409670	1474207006967	1474207007055	e	69
169433	1839474	Rookie Kevin Swayne will move into the starting lineup.	Rookie Kevin Swayne will move into the starting lineup.	87409672	1474207007257	1474207007332	u	85
169433	1839474	Rookie Kevin Swayne will move into the starting lineup.	Rookie Kevin Swayne will move into the starting lineup.	87409674	1474207007366	1474207007465	p	80
169433	1839474	Rookie Kevin Swayne will move into the starting lineup.	Rookie Kevin Swayne will move into the starting lineup.	87409676	1474207007597	1474207007724	.	190
169433	1839480	Chase back office and their restart plan updates individually.	Chase back office and their restart plan updates individually.	87409735	1474207009519	1474207009671	SHIFT	16
169433	1839480	Chase back office and their restart plan updates individually.	Chase back office and their restart plan updates individually.	87409740	1474207009628	1474207009722	C	67
169433	1839480	Chase back office and their restart plan updates individually.	Chase back office and their restart plan updates individually.	87409746	1474207009734	1474207009865	h	72
169433	1839480	Chase back office and their restart plan updates individually.	Chase back office and their restart plan updates individually.	87409753	1474207009829	1474207009960	a	65
169433	1839480	Chase back office and their restart plan updates individually.	Chase back office and their restart plan updates individually.	87409757	1474207009924	1474207010030	s	83
169433	1839480	Chase back office and their restart plan updates individually.	Chase back office and their restart plan updates individually.	87409759	1474207010102	1474207010201	e	69
169433	1839480	Chase back office and their restart plan updates individually.	Chase back office and their restart plan updates individually.	87409762	1474207010131	1474207010233	 	32
169433	1839480	Chase back office and their restart plan updates individually.	Chase back office and their restart plan updates individually.	87409763	1474207010306	1474207010410	b	66
169433	1839480	Chase back office and their restart plan updates individually.	Chase back office and their restart plan updates individually.	87409764	1474207010369	1474207010441	a	65
169433	1839480	Chase back office and their restart plan updates individually.	Chase back office and their restart plan updates individually.	87409766	1474207010518	1474207010642	c	67
169433	1839480	Chase back office and their restart plan updates individually.	Chase back office and their restart plan updates individually.	87409769	1474207010594	1474207010680	k	75
169433	1839480	Chase back office and their restart plan updates individually.	Chase back office and their restart plan updates individually.	87409772	1474207010762	1474207010817	 	32
169433	1839480	Chase back office and their restart plan updates individually.	Chase back office and their restart plan updates individually.	87409786	1474207010889	1474207011019	o	79
169433	1839480	Chase back office and their restart plan updates individually.	Chase back office and their restart plan updates individually.	87409789	1474207010997	1474207011051	f	70
169433	1839480	Chase back office and their restart plan updates individually.	Chase back office and their restart plan updates individually.	87409791	1474207011115	1474207011196	f	70
169433	1839480	Chase back office and their restart plan updates individually.	Chase back office and their restart plan updates individually.	87409793	1474207011219	1474207011315	i	73
169433	1839480	Chase back office and their restart plan updates individually.	Chase back office and their restart plan updates individually.	87409817	1474207011299	1474207011427	c	67
169433	1839480	Chase back office and their restart plan updates individually.	Chase back office and their restart plan updates individually.	87409820	1474207011395	1474207011572	e	69
169433	1839480	Chase back office and their restart plan updates individually.	Chase back office and their restart plan updates individually.	87409823	1474207011568	1474207011644	 	32
169433	1839480	Chase back office and their restart plan updates individually.	Chase back office and their restart plan updates individually.	87409826	1474207011694	1474207011820	a	65
169433	1839480	Chase back office and their restart plan updates individually.	Chase back office and their restart plan updates individually.	87409828	1474207011795	1474207011875	n	78
169433	1839480	Chase back office and their restart plan updates individually.	Chase back office and their restart plan updates individually.	87409829	1474207011878	1474207011984	d	68
169433	1839480	Chase back office and their restart plan updates individually.	Chase back office and their restart plan updates individually.	87409837	1474207011995	1474207012060	 	32
169433	1839480	Chase back office and their restart plan updates individually.	Chase back office and their restart plan updates individually.	87409840	1474207012106	1474207012199	t	84
169433	1839480	Chase back office and their restart plan updates individually.	Chase back office and their restart plan updates individually.	87409843	1474207012185	1474207012282	h	72
169433	1839480	Chase back office and their restart plan updates individually.	Chase back office and their restart plan updates individually.	87409844	1474207012272	1474207012400	e	69
169433	1839480	Chase back office and their restart plan updates individually.	Chase back office and their restart plan updates individually.	87409845	1474207012408	1474207012512	i	73
169433	1839480	Chase back office and their restart plan updates individually.	Chase back office and their restart plan updates individually.	87409858	1474207012505	1474207012609	r	82
169433	1839480	Chase back office and their restart plan updates individually.	Chase back office and their restart plan updates individually.	87409859	1474207012647	1474207012744	 	32
169433	1839480	Chase back office and their restart plan updates individually.	Chase back office and their restart plan updates individually.	87409861	1474207013117	1474207013232	r	82
169433	1839480	Chase back office and their restart plan updates individually.	Chase back office and their restart plan updates individually.	87409863	1474207013252	1474207013358	e	69
169433	1839480	Chase back office and their restart plan updates individually.	Chase back office and their restart plan updates individually.	87409864	1474207013427	1474207013539	s	83
169433	1839480	Chase back office and their restart plan updates individually.	Chase back office and their restart plan updates individually.	87409870	1474207013531	1474207013634	t	84
169433	1839480	Chase back office and their restart plan updates individually.	Chase back office and their restart plan updates individually.	87409871	1474207013630	1474207013750	a	65
169433	1839480	Chase back office and their restart plan updates individually.	Chase back office and their restart plan updates individually.	87409872	1474207013735	1474207013819	r	82
169433	1839480	Chase back office and their restart plan updates individually.	Chase back office and their restart plan updates individually.	87409873	1474207013958	1474207014087	t	84
169433	1839480	Chase back office and their restart plan updates individually.	Chase back office and their restart plan updates individually.	87409875	1474207014212	1474207014312	 	32
169433	1839480	Chase back office and their restart plan updates individually.	Chase back office and their restart plan updates individually.	87409877	1474207014400	1474207014472	p	80
169433	1839480	Chase back office and their restart plan updates individually.	Chase back office and their restart plan updates individually.	87409886	1474207014555	1474207014651	l	76
169433	1839480	Chase back office and their restart plan updates individually.	Chase back office and their restart plan updates individually.	87409887	1474207014653	1474207014763	a	65
169433	1839480	Chase back office and their restart plan updates individually.	Chase back office and their restart plan updates individually.	87409888	1474207014751	1474207014823	n	78
169433	1839480	Chase back office and their restart plan updates individually.	Chase back office and their restart plan updates individually.	87409889	1474207014908	1474207014967	 	32
169433	1839480	Chase back office and their restart plan updates individually.	Chase back office and their restart plan updates individually.	87409890	1474207015058	1474207015131	u	85
169433	1839480	Chase back office and their restart plan updates individually.	Chase back office and their restart plan updates individually.	87409901	1474207015250	1474207015284	p	80
169433	1839480	Chase back office and their restart plan updates individually.	Chase back office and their restart plan updates individually.	87409902	1474207015616	1474207015673	d	68
169433	1839480	Chase back office and their restart plan updates individually.	Chase back office and their restart plan updates individually.	87409903	1474207015726	1474207015862	a	65
169433	1839480	Chase back office and their restart plan updates individually.	Chase back office and their restart plan updates individually.	87409904	1474207016218	1474207016317	t	84
169433	1839480	Chase back office and their restart plan updates individually.	Chase back office and their restart plan updates individually.	87409916	1474207016304	1474207016368	e	69
169433	1839480	Chase back office and their restart plan updates individually.	Chase back office and their restart plan updates individually.	87409918	1474207016448	1474207016571	s	83
169433	1839480	Chase back office and their restart plan updates individually.	Chase back office and their restart plan updates individually.	87409920	1474207016513	1474207016601	 	32
169433	1839480	Chase back office and their restart plan updates individually.	Chase back office and their restart plan updates individually.	87409923	1474207016687	1474207016774	i	73
169433	1839480	Chase back office and their restart plan updates individually.	Chase back office and their restart plan updates individually.	87409926	1474207016876	1474207016997	n	78
169433	1839480	Chase back office and their restart plan updates individually.	Chase back office and their restart plan updates individually.	87409929	1474207017134	1474207017251	d	68
169433	1839480	Chase back office and their restart plan updates individually.	Chase back office and their restart plan updates individually.	87409950	1474207017237	1474207017353	i	73
169433	1839480	Chase back office and their restart plan updates individually.	Chase back office and their restart plan updates individually.	87409951	1474207017391	1474207017511	v	86
169433	1839480	Chase back office and their restart plan updates individually.	Chase back office and their restart plan updates individually.	87409952	1474207017606	1474207017730	i	73
169433	1839480	Chase back office and their restart plan updates individually.	Chase back office and their restart plan updates individually.	87409953	1474207017734	1474207017881	d	68
169433	1839480	Chase back office and their restart plan updates individually.	Chase back office and their restart plan updates individually.	87409954	1474207017851	1474207017943	u	85
169433	1839480	Chase back office and their restart plan updates individually.	Chase back office and their restart plan updates individually.	87409967	1474207017999	1474207018163	a	65
169433	1839480	Chase back office and their restart plan updates individually.	Chase back office and their restart plan updates individually.	87409956	1474207018087	1474207018143	l	76
169433	1839480	Chase back office and their restart plan updates individually.	Chase back office and their restart plan updates individually.	87409968	1474207018229	1474207018366	l	76
169433	1839480	Chase back office and their restart plan updates individually.	Chase back office and their restart plan updates individually.	87409970	1474207018334	1474207018421	y	89
169433	1839480	Chase back office and their restart plan updates individually.	Chase back office and their restart plan updates individually.	87409973	1474207018632	1474207018732	.	190
169433	1839488	I'll email her later tonight.	I'll email her later tonight.	87410025	1474207020441	1474207020602	SHIFT	16
169433	1839488	I'll email her later tonight.	I'll email her later tonight.	87410026	1474207020515	1474207020607	I	73
169433	1839488	I'll email her later tonight.	I'll email her later tonight.	87410027	1474207020782	1474207020875	'	222
169433	1839488	I'll email her later tonight.	I'll email her later tonight.	87410029	1474207020982	1474207021032	l	76
169433	1839488	I'll email her later tonight.	I'll email her later tonight.	87410031	1474207021098	1474207021160	l	76
169433	1839488	I'll email her later tonight.	I'll email her later tonight.	87410034	1474207021259	1474207021337	 	32
169433	1839488	I'll email her later tonight.	I'll email her later tonight.	87410052	1474207021354	1474207021494	e	69
169433	1839488	I'll email her later tonight.	I'll email her later tonight.	87410053	1474207021456	1474207021540	m	77
169433	1839488	I'll email her later tonight.	I'll email her later tonight.	87410057	1474207021613	1474207021792	a	65
169433	1839488	I'll email her later tonight.	I'll email her later tonight.	87410055	1474207021705	1474207021772	i	73
169433	1839488	I'll email her later tonight.	I'll email her later tonight.	87410059	1474207021855	1474207021930	l	76
169433	1839488	I'll email her later tonight.	I'll email her later tonight.	87410068	1474207022023	1474207022069	 	32
169433	1839488	I'll email her later tonight.	I'll email her later tonight.	87410071	1474207022137	1474207022222	h	72
169433	1839488	I'll email her later tonight.	I'll email her later tonight.	87410073	1474207022208	1474207022333	e	69
169433	1839488	I'll email her later tonight.	I'll email her later tonight.	87410076	1474207022290	1474207022383	r	82
169433	1839488	I'll email her later tonight.	I'll email her later tonight.	87410094	1474207022338	1474207022398	 	32
169433	1839488	I'll email her later tonight.	I'll email her later tonight.	87410098	1474207022491	1474207022585	l	76
169433	1839488	I'll email her later tonight.	I'll email her later tonight.	87410100	1474207022590	1474207022680	a	65
169433	1839488	I'll email her later tonight.	I'll email her later tonight.	87410104	1474207022756	1474207022828	t	84
169433	1839488	I'll email her later tonight.	I'll email her later tonight.	87410107	1474207022841	1474207022963	e	69
169433	1839488	I'll email her later tonight.	I'll email her later tonight.	87410133	1474207022871	1474207023005	r	82
169433	1839488	I'll email her later tonight.	I'll email her later tonight.	87410135	1474207022958	1474207023055	 	32
169433	1839488	I'll email her later tonight.	I'll email her later tonight.	87410137	1474207023150	1474207023199	n	78
169433	1839488	I'll email her later tonight.	I'll email her later tonight.	87410139	1474207023844	1474207023902	BKSP	8
169433	1839488	I'll email her later tonight.	I'll email her later tonight.	87410142	1474207023981	1474207024078	t	84
169433	1839488	I'll email her later tonight.	I'll email her later tonight.	87410145	1474207024073	1474207024177	o	79
169433	1839488	I'll email her later tonight.	I'll email her later tonight.	87410147	1474207024260	1474207024326	n	78
169433	1839488	I'll email her later tonight.	I'll email her later tonight.	87410150	1474207024412	1474207024480	i	73
169433	1839488	I'll email her later tonight.	I'll email her later tonight.	87410151	1474207024493	1474207024587	g	71
169433	1839488	I'll email her later tonight.	I'll email her later tonight.	87410152	1474207024578	1474207024646	h	72
169433	1839488	I'll email her later tonight.	I'll email her later tonight.	87410153	1474207024671	1474207024797	t	84
169433	1839488	I'll email her later tonight.	I'll email her later tonight.	87410155	1474207024839	1474207024945	.	190
169433	1839490	I'm glad you liked it.	I'm glad you liked it.	87410226	1474207026705	1474207026925	SHIFT	16
169433	1839490	I'm glad you liked it.	I'm glad you liked it.	87410224	1474207026819	1474207026895	I	73
169433	1839490	I'm glad you liked it.	I'm glad you liked it.	87410228	1474207027115	1474207027240	'	222
169433	1839490	I'm glad you liked it.	I'm glad you liked it.	87410232	1474207027367	1474207027460	m	77
169433	1839490	I'm glad you liked it.	I'm glad you liked it.	87410234	1474207027538	1474207027616	 	32
169433	1839490	I'm glad you liked it.	I'm glad you liked it.	87410254	1474207027609	1474207027697	g	71
169433	1839490	I'm glad you liked it.	I'm glad you liked it.	87410258	1474207027804	1474207027943	l	76
169433	1839490	I'm glad you liked it.	I'm glad you liked it.	87410260	1474207027896	1474207028011	a	65
169433	1839490	I'm glad you liked it.	I'm glad you liked it.	87410262	1474207027990	1474207028112	d	68
169433	1839490	I'm glad you liked it.	I'm glad you liked it.	87410265	1474207028073	1474207028150	 	32
169433	1839490	I'm glad you liked it.	I'm glad you liked it.	87410288	1474207028255	1474207028448	y	89
169433	1839490	I'm glad you liked it.	I'm glad you liked it.	87410267	1474207028361	1474207028428	o	79
169433	1839490	I'm glad you liked it.	I'm glad you liked it.	87410291	1474207028517	1474207028554	u	85
169433	1839490	I'm glad you liked it.	I'm glad you liked it.	87410295	1474207028655	1474207028735	 	32
169433	1839490	I'm glad you liked it.	I'm glad you liked it.	87410298	1474207028806	1474207028890	l	76
169433	1839490	I'm glad you liked it.	I'm glad you liked it.	87410300	1474207028964	1474207029025	i	73
169433	1839490	I'm glad you liked it.	I'm glad you liked it.	87410302	1474207029077	1474207029191	k	75
169433	1839490	I'm glad you liked it.	I'm glad you liked it.	87410303	1474207029179	1474207029324	e	69
169433	1839490	I'm glad you liked it.	I'm glad you liked it.	87410307	1474207029302	1474207029409	d	68
169433	1839490	I'm glad you liked it.	I'm glad you liked it.	87410304	1474207029347	1474207029378	e	69
169433	1839490	I'm glad you liked it.	I'm glad you liked it.	87410309	1474207029412	1474207029486	 	32
169433	1839490	I'm glad you liked it.	I'm glad you liked it.	87410312	1474207029574	1474207029689	i	73
169433	1839490	I'm glad you liked it.	I'm glad you liked it.	87410367	1474207029675	1474207029782	t	84
169433	1839490	I'm glad you liked it.	I'm glad you liked it.	87410369	1474207030026	1474207030069	BKSP	8
169433	1839490	I'm glad you liked it.	I'm glad you liked it.	87410371	1474207030126	1474207030181	BKSP	8
169433	1839490	I'm glad you liked it.	I'm glad you liked it.	87410373	1474207030250	1474207030304	BKSP	8
169433	1839490	I'm glad you liked it.	I'm glad you liked it.	87410377	1474207030377	1474207030433	BKSP	8
169433	1839490	I'm glad you liked it.	I'm glad you liked it.	87410380	1474207030516	1474207030555	BKSP	8
169433	1839490	I'm glad you liked it.	I'm glad you liked it.	87410385	1474207031250	1474207031373	d	68
169433	1839490	I'm glad you liked it.	I'm glad you liked it.	87410389	1474207031699	1474207031803	 	32
169433	1839490	I'm glad you liked it.	I'm glad you liked it.	87410392	1474207031901	1474207032036	i	73
169433	1839490	I'm glad you liked it.	I'm glad you liked it.	87410394	1474207032064	1474207032215	t	84
169433	1839490	I'm glad you liked it.	I'm glad you liked it.	87410396	1474207032433	1474207032572	.	190
