PARTICIPANT_ID	TEST_SECTION_ID	SENTENCE	USER_INPUT	KEYSTROKE_ID	PRESS_TIME	RELEASE_TIME	LETTER	KEYCODE
169703	1842414	I told Gary you could make the call.	I told Gary you could make the call.	87551621	1474214046096	1474214048104	SHIFT	16
169703	1842414	I told Gary you could make the call.	I told Gary you could make the call.	87551623	1474214048385	1474214048746	SHIFT	16
169703	1842414	I told Gary you could make the call.	I told Gary you could make the call.	87551625	1474214048657	1474214048819	I	73
169703	1842414	I told Gary you could make the call.	I told Gary you could make the call.	87551627	1474214048735	1474214048854	 	32
169703	1842414	I told Gary you could make the call.	I told Gary you could make the call.	87551629	1474214048850	1474214048943	t	84
169703	1842414	I told Gary you could make the call.	I told Gary you could make the call.	87551632	1474214048936	1474214049011	o	79
169703	1842414	I told Gary you could make the call.	I told Gary you could make the call.	87551634	1474214049071	1474214049156	l	76
169703	1842414	I told Gary you could make the call.	I told Gary you could make the call.	87551638	1474214049164	1474214049250	d	68
169703	1842414	I told Gary you could make the call.	I told Gary you could make the call.	87551639	1474214049229	1474214049339	 	32
169703	1842414	I told Gary you could make the call.	I told Gary you could make the call.	87551640	1474214049291	1474214049452	SHIFT	16
169703	1842414	I told Gary you could make the call.	I told Gary you could make the call.	87551641	1474214049434	1474214049499	G	71
169703	1842414	I told Gary you could make the call.	I told Gary you could make the call.	87551642	1474214049584	1474214049689	a	65
169703	1842414	I told Gary you could make the call.	I told Gary you could make the call.	87551649	1474214049644	1474214049746	r	82
169703	1842414	I told Gary you could make the call.	I told Gary you could make the call.	87551650	1474214049721	1474214049831	y	89
169703	1842414	I told Gary you could make the call.	I told Gary you could make the call.	87551651	1474214049782	1474214049884	 	32
169703	1842414	I told Gary you could make the call.	I told Gary you could make the call.	87551652	1474214049925	1474214050018	y	89
169703	1842414	I told Gary you could make the call.	I told Gary you could make the call.	87551653	1474214049983	1474214050064	o	79
169703	1842414	I told Gary you could make the call.	I told Gary you could make the call.	87551654	1474214050135	1474214050231	u	85
169703	1842414	I told Gary you could make the call.	I told Gary you could make the call.	87551655	1474214050195	1474214050288	 	32
169703	1842414	I told Gary you could make the call.	I told Gary you could make the call.	87551656	1474214050241	1474214050361	c	67
169703	1842414	I told Gary you could make the call.	I told Gary you could make the call.	87551657	1474214050350	1474214050417	o	79
169703	1842414	I told Gary you could make the call.	I told Gary you could make the call.	87551658	1474214050483	1474214050549	u	85
169703	1842414	I told Gary you could make the call.	I told Gary you could make the call.	87551659	1474214050635	1474214050711	l	76
169703	1842414	I told Gary you could make the call.	I told Gary you could make the call.	87551660	1474214050728	1474214050815	d	68
169703	1842414	I told Gary you could make the call.	I told Gary you could make the call.	87551661	1474214050776	1474214050894	 	32
169703	1842414	I told Gary you could make the call.	I told Gary you could make the call.	87551662	1474214050848	1474214050932	m	77
169703	1842414	I told Gary you could make the call.	I told Gary you could make the call.	87551663	1474214050927	1474214051014	a	65
169703	1842414	I told Gary you could make the call.	I told Gary you could make the call.	87551664	1474214051015	1474214051106	k	75
169703	1842414	I told Gary you could make the call.	I told Gary you could make the call.	87551665	1474214051109	1474214051182	e	69
169703	1842414	I told Gary you could make the call.	I told Gary you could make the call.	87551666	1474214051165	1474214051263	 	32
169703	1842414	I told Gary you could make the call.	I told Gary you could make the call.	87551667	1474214051262	1474214051333	t	84
169703	1842414	I told Gary you could make the call.	I told Gary you could make the call.	87551668	1474214051322	1474214051406	h	72
169703	1842414	I told Gary you could make the call.	I told Gary you could make the call.	87551669	1474214051404	1474214051461	e	69
169703	1842414	I told Gary you could make the call.	I told Gary you could make the call.	87551671	1474214051467	1474214051564	 	32
169703	1842414	I told Gary you could make the call.	I told Gary you could make the call.	87551715	1474214051551	1474214051622	c	67
169703	1842414	I told Gary you could make the call.	I told Gary you could make the call.	87551720	1474214051670	1474214051786	a	65
169703	1842414	I told Gary you could make the call.	I told Gary you could make the call.	87551718	1474214051730	1474214051782	l	76
169703	1842414	I told Gary you could make the call.	I told Gary you could make the call.	87551724	1474214051861	1474214051929	l	76
169703	1842414	I told Gary you could make the call.	I told Gary you could make the call.	87551725	1474214052053	1474214052089	ALT	18
169703	1842417	OK I thought it was in Washington state.	OK I thought it was in Washington state.	87551759	1474214055364	1474214056114	SHIFT	16
169703	1842417	OK I thought it was in Washington state.	OK I thought it was in Washington state.	87551757	1474214055745	1474214055856	O	79
169703	1842417	OK I thought it was in Washington state.	OK I thought it was in Washington state.	87551758	1474214055953	1474214056046	K	75
169703	1842417	OK I thought it was in Washington state.	OK I thought it was in Washington state.	87551760	1474214056056	1474214056156	 	32
169703	1842417	OK I thought it was in Washington state.	OK I thought it was in Washington state.	87551761	1474214056340	1474214056490	SHIFT	16
169703	1842417	OK I thought it was in Washington state.	OK I thought it was in Washington state.	87551767	1474214056405	1474214056523	I	73
169703	1842417	OK I thought it was in Washington state.	OK I thought it was in Washington state.	87551768	1474214056488	1474214056590	 	32
169703	1842417	OK I thought it was in Washington state.	OK I thought it was in Washington state.	87551769	1474214056558	1474214056641	t	84
169703	1842417	OK I thought it was in Washington state.	OK I thought it was in Washington state.	87551770	1474214056712	1474214056796	h	72
169703	1842417	OK I thought it was in Washington state.	OK I thought it was in Washington state.	87551771	1474214056757	1474214056828	o	79
169703	1842417	OK I thought it was in Washington state.	OK I thought it was in Washington state.	87551772	1474214056899	1474214056971	u	85
169703	1842417	OK I thought it was in Washington state.	OK I thought it was in Washington state.	87551776	1474214056962	1474214057048	g	71
169703	1842417	OK I thought it was in Washington state.	OK I thought it was in Washington state.	87551778	1474214057034	1474214057121	h	72
169703	1842417	OK I thought it was in Washington state.	OK I thought it was in Washington state.	87551780	1474214057144	1474214057214	t	84
169703	1842417	OK I thought it was in Washington state.	OK I thought it was in Washington state.	87551781	1474214057183	1474214057306	 	32
169703	1842417	OK I thought it was in Washington state.	OK I thought it was in Washington state.	87551783	1474214057265	1474214057351	i	73
169703	1842417	OK I thought it was in Washington state.	OK I thought it was in Washington state.	87551786	1474214057365	1474214057420	t	84
169703	1842417	OK I thought it was in Washington state.	OK I thought it was in Washington state.	87551794	1474214057412	1474214057508	 	32
169703	1842417	OK I thought it was in Washington state.	OK I thought it was in Washington state.	87551795	1474214057528	1474214057618	w	87
169703	1842417	OK I thought it was in Washington state.	OK I thought it was in Washington state.	87551797	1474214057674	1474214057827	a	65
169703	1842417	OK I thought it was in Washington state.	OK I thought it was in Washington state.	87551801	1474214057735	1474214057845	s	83
169703	1842417	OK I thought it was in Washington state.	OK I thought it was in Washington state.	87551804	1474214057802	1474214057913	 	32
169703	1842417	OK I thought it was in Washington state.	OK I thought it was in Washington state.	87551811	1474214057889	1474214057968	i	73
169703	1842417	OK I thought it was in Washington state.	OK I thought it was in Washington state.	87551812	1474214058035	1474214058126	n	78
169703	1842417	OK I thought it was in Washington state.	OK I thought it was in Washington state.	87551813	1474214058057	1474214058219	 	16
169703	1842417	OK I thought it was in Washington state.	OK I thought it was in Washington state.	87551814	1474214058180	1474214058260	W	87
169703	1842417	OK I thought it was in Washington state.	OK I thought it was in Washington state.	87551815	1474214058334	1474214058443	a	65
169703	1842417	OK I thought it was in Washington state.	OK I thought it was in Washington state.	87551824	1474214058384	1474214058511	s	83
169703	1842417	OK I thought it was in Washington state.	OK I thought it was in Washington state.	87551826	1474214058469	1474214058543	h	72
169703	1842417	OK I thought it was in Washington state.	OK I thought it was in Washington state.	87551828	1474214058604	1474214058670	i	73
169703	1842417	OK I thought it was in Washington state.	OK I thought it was in Washington state.	87551832	1474214058733	1474214058812	n	78
169703	1842417	OK I thought it was in Washington state.	OK I thought it was in Washington state.	87551835	1474214058820	1474214058903	g	71
169703	1842417	OK I thought it was in Washington state.	OK I thought it was in Washington state.	87551844	1474214058876	1474214058964	 	32
169703	1842417	OK I thought it was in Washington state.	OK I thought it was in Washington state.	87551846	1474214059040	1474214059142	t	84
169703	1842417	OK I thought it was in Washington state.	OK I thought it was in Washington state.	87551848	1474214059349	1474214059416	BKSP	8
169703	1842417	OK I thought it was in Washington state.	OK I thought it was in Washington state.	87551851	1474214059480	1474214059549	BKSP	8
169703	1842417	OK I thought it was in Washington state.	OK I thought it was in Washington state.	87551855	1474214060006	1474214060084	t	84
169703	1842417	OK I thought it was in Washington state.	OK I thought it was in Washington state.	87551859	1474214060057	1474214060104	o	79
169703	1842417	OK I thought it was in Washington state.	OK I thought it was in Washington state.	87551862	1474214060199	1474214060283	n	78
169703	1842417	OK I thought it was in Washington state.	OK I thought it was in Washington state.	87551864	1474214060274	1474214060376	 	32
169703	1842417	OK I thought it was in Washington state.	OK I thought it was in Washington state.	87551865	1474214060375	1474214060457	s	83
169703	1842417	OK I thought it was in Washington state.	OK I thought it was in Washington state.	87551866	1474214060533	1474214060621	t	84
169703	1842417	OK I thought it was in Washington state.	OK I thought it was in Washington state.	87551867	1474214060668	1474214060768	a	65
169703	1842417	OK I thought it was in Washington state.	OK I thought it was in Washington state.	87551868	1474214060737	1474214060814	t	84
169703	1842417	OK I thought it was in Washington state.	OK I thought it was in Washington state.	87551869	1474214060884	1474214060950	e	69
169703	1842420	Yes I am coming twice.	Yes I am coming twice.	87551900	1474214062395	1474214062715	SHIFT	16
169703	1842420	Yes I am coming twice.	Yes I am coming twice.	87551901	1474214062637	1474214062747	Y	89
169703	1842420	Yes I am coming twice.	Yes I am coming twice.	87551902	1474214062774	1474214062843	e	69
169703	1842420	Yes I am coming twice.	Yes I am coming twice.	87551903	1474214062931	1474214063024	s	83
169703	1842420	Yes I am coming twice.	Yes I am coming twice.	87551904	1474214063116	1474214063195	 	32
169703	1842420	Yes I am coming twice.	Yes I am coming twice.	87551906	1474214063163	1474214063353	SHIFT	16
169703	1842420	Yes I am coming twice.	Yes I am coming twice.	87551910	1474214063280	1474214063398	I	73
169703	1842420	Yes I am coming twice.	Yes I am coming twice.	87551911	1474214063355	1474214063461	 	32
169703	1842420	Yes I am coming twice.	Yes I am coming twice.	87551913	1474214063467	1474214063570	a	65
169703	1842420	Yes I am coming twice.	Yes I am coming twice.	87551916	1474214063555	1474214063655	m	77
169703	1842420	Yes I am coming twice.	Yes I am coming twice.	87551917	1474214063621	1474214063721	 	32
169703	1842420	Yes I am coming twice.	Yes I am coming twice.	87551918	1474214063741	1474214063837	c	67
169703	1842420	Yes I am coming twice.	Yes I am coming twice.	87551919	1474214063833	1474214063903	o	79
169703	1842420	Yes I am coming twice.	Yes I am coming twice.	87551920	1474214063979	1474214064031	m	77
169703	1842420	Yes I am coming twice.	Yes I am coming twice.	87551921	1474214064106	1474214064164	i	73
169703	1842420	Yes I am coming twice.	Yes I am coming twice.	87551922	1474214064224	1474214064305	n	78
169703	1842420	Yes I am coming twice.	Yes I am coming twice.	87551923	1474214064303	1474214064373	g	71
169703	1842420	Yes I am coming twice.	Yes I am coming twice.	87551924	1474214064332	1474214064433	 	32
169703	1842420	Yes I am coming twice.	Yes I am coming twice.	87551925	1474214064459	1474214064534	t	84
169703	1842420	Yes I am coming twice.	Yes I am coming twice.	87551926	1474214064623	1474214064704	w	87
169703	1842420	Yes I am coming twice.	Yes I am coming twice.	87551927	1474214064706	1474214064789	i	73
169703	1842420	Yes I am coming twice.	Yes I am coming twice.	87551928	1474214064806	1474214064906	c	67
169703	1842420	Yes I am coming twice.	Yes I am coming twice.	87551929	1474214064902	1474214065002	e	69
169703	1842420	Yes I am coming twice.	Yes I am coming twice.	87551930	1474214064977	1474214065055	.	190
169703	1842423	he Fed will continue to have oversight over 38 US banks.	he Fed will continue to have oversight over 38 US banks.	87551952	1474214066314	1474214066821	SHIFT	16
169703	1842423	he Fed will continue to have oversight over 38 US banks.	he Fed will continue to have oversight over 38 US banks.	87551954	1474214066993	1474214067112	h	72
169703	1842423	he Fed will continue to have oversight over 38 US banks.	he Fed will continue to have oversight over 38 US banks.	87551956	1474214067071	1474214067145	e	69
169703	1842423	he Fed will continue to have oversight over 38 US banks.	he Fed will continue to have oversight over 38 US banks.	87551958	1474214067152	1474214067264	 	32
169703	1842423	he Fed will continue to have oversight over 38 US banks.	he Fed will continue to have oversight over 38 US banks.	87551960	1474214067204	1474214067340	SHIFT	16
169703	1842423	he Fed will continue to have oversight over 38 US banks.	he Fed will continue to have oversight over 38 US banks.	87551965	1474214067291	1474214067366	F	70
169703	1842423	he Fed will continue to have oversight over 38 US banks.	he Fed will continue to have oversight over 38 US banks.	87551970	1474214067444	1474214067507	e	69
169703	1842423	he Fed will continue to have oversight over 38 US banks.	he Fed will continue to have oversight over 38 US banks.	87551979	1474214067577	1474214067647	d	68
169703	1842423	he Fed will continue to have oversight over 38 US banks.	he Fed will continue to have oversight over 38 US banks.	87551980	1474214067637	1474214067710	 	32
169703	1842423	he Fed will continue to have oversight over 38 US banks.	he Fed will continue to have oversight over 38 US banks.	87551983	1474214067716	1474214067808	w	87
169703	1842423	he Fed will continue to have oversight over 38 US banks.	he Fed will continue to have oversight over 38 US banks.	87551986	1474214067765	1474214067840	i	73
169703	1842423	he Fed will continue to have oversight over 38 US banks.	he Fed will continue to have oversight over 38 US banks.	87551989	1474214067914	1474214067970	l	76
169703	1842423	he Fed will continue to have oversight over 38 US banks.	he Fed will continue to have oversight over 38 US banks.	87551993	1474214068028	1474214068100	l	76
169703	1842423	he Fed will continue to have oversight over 38 US banks.	he Fed will continue to have oversight over 38 US banks.	87551995	1474214068066	1474214068150	 	32
169703	1842423	he Fed will continue to have oversight over 38 US banks.	he Fed will continue to have oversight over 38 US banks.	87551999	1474214068107	1474214068211	c	67
169703	1842423	he Fed will continue to have oversight over 38 US banks.	he Fed will continue to have oversight over 38 US banks.	87552002	1474214068195	1474214068250	o	79
169703	1842423	he Fed will continue to have oversight over 38 US banks.	he Fed will continue to have oversight over 38 US banks.	87552005	1474214068337	1474214068407	n	78
169703	1842423	he Fed will continue to have oversight over 38 US banks.	he Fed will continue to have oversight over 38 US banks.	87552013	1474214068405	1474214068502	t	84
169703	1842423	he Fed will continue to have oversight over 38 US banks.	he Fed will continue to have oversight over 38 US banks.	87552015	1474214068501	1474214068566	i	73
169703	1842423	he Fed will continue to have oversight over 38 US banks.	he Fed will continue to have oversight over 38 US banks.	87552017	1474214068634	1474214068682	n	78
169703	1842423	he Fed will continue to have oversight over 38 US banks.	he Fed will continue to have oversight over 38 US banks.	87552019	1474214068758	1474214068833	u	85
169703	1842423	he Fed will continue to have oversight over 38 US banks.	he Fed will continue to have oversight over 38 US banks.	87552020	1474214068811	1474214068894	e	69
169703	1842423	he Fed will continue to have oversight over 38 US banks.	he Fed will continue to have oversight over 38 US banks.	87552022	1474214068909	1474214068990	 	32
169703	1842423	he Fed will continue to have oversight over 38 US banks.	he Fed will continue to have oversight over 38 US banks.	87552027	1474214068978	1474214069060	t	84
169703	1842423	he Fed will continue to have oversight over 38 US banks.	he Fed will continue to have oversight over 38 US banks.	87552029	1474214069038	1474214069120	o	79
169703	1842423	he Fed will continue to have oversight over 38 US banks.	he Fed will continue to have oversight over 38 US banks.	87552032	1474214069106	1474214069194	 	32
169703	1842423	he Fed will continue to have oversight over 38 US banks.	he Fed will continue to have oversight over 38 US banks.	87552036	1474214069214	1474214069289	h	72
169703	1842423	he Fed will continue to have oversight over 38 US banks.	he Fed will continue to have oversight over 38 US banks.	87552038	1474214069248	1474214069322	a	65
169703	1842423	he Fed will continue to have oversight over 38 US banks.	he Fed will continue to have oversight over 38 US banks.	87552040	1474214069369	1474214069437	v	86
169703	1842423	he Fed will continue to have oversight over 38 US banks.	he Fed will continue to have oversight over 38 US banks.	87552046	1474214069513	1474214069586	e	69
169703	1842423	he Fed will continue to have oversight over 38 US banks.	he Fed will continue to have oversight over 38 US banks.	87552048	1474214069556	1474214069642	 	32
169703	1842423	he Fed will continue to have oversight over 38 US banks.	he Fed will continue to have oversight over 38 US banks.	87552049	1474214069663	1474214069761	o	79
169703	1842423	he Fed will continue to have oversight over 38 US banks.	he Fed will continue to have oversight over 38 US banks.	87552050	1474214069733	1474214069813	v	86
169703	1842423	he Fed will continue to have oversight over 38 US banks.	he Fed will continue to have oversight over 38 US banks.	87552051	1474214069869	1474214069959	e	69
169703	1842423	he Fed will continue to have oversight over 38 US banks.	he Fed will continue to have oversight over 38 US banks.	87552054	1474214069919	1474214069988	r	82
169703	1842423	he Fed will continue to have oversight over 38 US banks.	he Fed will continue to have oversight over 38 US banks.	87552055	1474214070073	1474214070139	s	83
169703	1842423	he Fed will continue to have oversight over 38 US banks.	he Fed will continue to have oversight over 38 US banks.	87552056	1474214070132	1474214070210	i	73
169703	1842423	he Fed will continue to have oversight over 38 US banks.	he Fed will continue to have oversight over 38 US banks.	87552058	1474214070225	1474214070290	g	71
169703	1842423	he Fed will continue to have oversight over 38 US banks.	he Fed will continue to have oversight over 38 US banks.	87552061	1474214070297	1474214070373	h	72
169703	1842423	he Fed will continue to have oversight over 38 US banks.	he Fed will continue to have oversight over 38 US banks.	87552064	1474214070400	1474214070487	t	84
169703	1842423	he Fed will continue to have oversight over 38 US banks.	he Fed will continue to have oversight over 38 US banks.	87552076	1474214070469	1474214070557	 	32
169703	1842423	he Fed will continue to have oversight over 38 US banks.	he Fed will continue to have oversight over 38 US banks.	87552077	1474214070789	1474214070859	o	79
169703	1842423	he Fed will continue to have oversight over 38 US banks.	he Fed will continue to have oversight over 38 US banks.	87552078	1474214070872	1474214070946	v	86
169703	1842423	he Fed will continue to have oversight over 38 US banks.	he Fed will continue to have oversight over 38 US banks.	87552079	1474214071132	1474214071196	BKSP	8
169703	1842423	he Fed will continue to have oversight over 38 US banks.	he Fed will continue to have oversight over 38 US banks.	87552080	1474214071257	1474214071324	BKSP	8
169703	1842423	he Fed will continue to have oversight over 38 US banks.	he Fed will continue to have oversight over 38 US banks.	87552081	1474214071506	1474214071564	o	79
169703	1842423	he Fed will continue to have oversight over 38 US banks.	he Fed will continue to have oversight over 38 US banks.	87552082	1474214071587	1474214071668	v	86
169703	1842423	he Fed will continue to have oversight over 38 US banks.	he Fed will continue to have oversight over 38 US banks.	87552084	1474214071728	1474214071837	e	69
169703	1842423	he Fed will continue to have oversight over 38 US banks.	he Fed will continue to have oversight over 38 US banks.	87552096	1474214071781	1474214071873	r	82
169703	1842423	he Fed will continue to have oversight over 38 US banks.	he Fed will continue to have oversight over 38 US banks.	87552099	1474214071865	1474214071967	 	32
169703	1842423	he Fed will continue to have oversight over 38 US banks.	he Fed will continue to have oversight over 38 US banks.	87552102	1474214071980	1474214072074	3	51
169703	1842423	he Fed will continue to have oversight over 38 US banks.	he Fed will continue to have oversight over 38 US banks.	87552106	1474214072082	1474214072194	8	56
169703	1842423	he Fed will continue to have oversight over 38 US banks.	he Fed will continue to have oversight over 38 US banks.	87552110	1474214072217	1474214072307	 	32
169703	1842423	he Fed will continue to have oversight over 38 US banks.	he Fed will continue to have oversight over 38 US banks.	87552117	1474214072393	1474214072711	SHIFT	16
169703	1842423	he Fed will continue to have oversight over 38 US banks.	he Fed will continue to have oversight over 38 US banks.	87552113	1474214072471	1474214072566	U	85
169703	1842423	he Fed will continue to have oversight over 38 US banks.	he Fed will continue to have oversight over 38 US banks.	87552115	1474214072574	1474214072678	S	83
169703	1842423	he Fed will continue to have oversight over 38 US banks.	he Fed will continue to have oversight over 38 US banks.	87552118	1474214072668	1474214072756	 	32
169703	1842423	he Fed will continue to have oversight over 38 US banks.	he Fed will continue to have oversight over 38 US banks.	87552120	1474214072917	1474214073023	b	66
169703	1842423	he Fed will continue to have oversight over 38 US banks.	he Fed will continue to have oversight over 38 US banks.	87552122	1474214073008	1474214073101	a	65
169703	1842423	he Fed will continue to have oversight over 38 US banks.	he Fed will continue to have oversight over 38 US banks.	87552124	1474214073106	1474214073180	n	78
169703	1842423	he Fed will continue to have oversight over 38 US banks.	he Fed will continue to have oversight over 38 US banks.	87552130	1474214073268	1474214073331	k	75
169703	1842423	he Fed will continue to have oversight over 38 US banks.	he Fed will continue to have oversight over 38 US banks.	87552131	1474214073356	1474214073448	s	83
169703	1842423	he Fed will continue to have oversight over 38 US banks.	he Fed will continue to have oversight over 38 US banks.	87552132	1474214073454	1474214073526	.	190
169703	1842428	Can you help me here?	Can you help me here?	87552148	1474214074864	1474214075035	SHIFT	16
169703	1842428	Can you help me here?	Can you help me here?	87552149	1474214074960	1474214075058	C	67
169703	1842428	Can you help me here?	Can you help me here?	87552150	1474214075115	1474214075229	a	65
169703	1842428	Can you help me here?	Can you help me here?	87552151	1474214075163	1474214075286	n	78
169703	1842428	Can you help me here?	Can you help me here?	87552152	1474214075246	1474214075338	 	32
169703	1842428	Can you help me here?	Can you help me here?	87552164	1474214075330	1474214075422	y	89
169703	1842428	Can you help me here?	Can you help me here?	87552165	1474214075389	1474214075468	o	79
169703	1842428	Can you help me here?	Can you help me here?	87552166	1474214075526	1474214075621	u	85
169703	1842428	Can you help me here?	Can you help me here?	87552167	1474214075590	1474214075736	 	32
169703	1842428	Can you help me here?	Can you help me here?	87552168	1474214075693	1474214075776	h	72
169703	1842428	Can you help me here?	Can you help me here?	87552169	1474214075810	1474214075921	e	69
169703	1842428	Can you help me here?	Can you help me here?	87552175	1474214075926	1474214076014	l	76
169703	1842428	Can you help me here?	Can you help me here?	87552176	1474214076103	1474214076190	p	80
169703	1842428	Can you help me here?	Can you help me here?	87552177	1474214076192	1474214076303	 	32
169703	1842428	Can you help me here?	Can you help me here?	87552178	1474214076320	1474214076411	m	77
169703	1842428	Can you help me here?	Can you help me here?	87552179	1474214076416	1474214076500	e	69
169703	1842428	Can you help me here?	Can you help me here?	87552189	1474214076467	1474214076569	 	32
169703	1842428	Can you help me here?	Can you help me here?	87552190	1474214076555	1474214076654	h	72
169703	1842428	Can you help me here?	Can you help me here?	87552191	1474214076625	1474214076706	e	69
169703	1842428	Can you help me here?	Can you help me here?	87552192	1474214076769	1474214076832	r	82
169703	1842428	Can you help me here?	Can you help me here?	87552193	1474214076900	1474214076956	e	69
169703	1842428	Can you help me here?	Can you help me here?	87552195	1474214076910	1474214077044	SHIFT	16
169703	1842428	Can you help me here?	Can you help me here?	87552194	1474214076985	1474214077060	?	191
169703	1842430	The meteor shower was incredible last night.	The meteor shower was incredible last night.	87552226	1474214078320	1474214078566	SHIFT	16
169703	1842430	The meteor shower was incredible last night.	The meteor shower was incredible last night.	87552229	1474214078477	1474214078567	T	84
169703	1842430	The meteor shower was incredible last night.	The meteor shower was incredible last night.	87552232	1474214078595	1474214078695	h	72
169703	1842430	The meteor shower was incredible last night.	The meteor shower was incredible last night.	87552234	1474214078689	1474214078780	e	69
169703	1842430	The meteor shower was incredible last night.	The meteor shower was incredible last night.	87552238	1474214078797	1474214078915	 	32
169703	1842430	The meteor shower was incredible last night.	The meteor shower was incredible last night.	87552244	1474214078880	1474214078990	m	77
169703	1842430	The meteor shower was incredible last night.	The meteor shower was incredible last night.	87552245	1474214078952	1474214079040	e	69
169703	1842430	The meteor shower was incredible last night.	The meteor shower was incredible last night.	87552246	1474214079118	1474214079183	t	84
169703	1842430	The meteor shower was incredible last night.	The meteor shower was incredible last night.	87552247	1474214079272	1474214079361	e	69
169703	1842430	The meteor shower was incredible last night.	The meteor shower was incredible last night.	87552249	1474214079413	1474214079503	o	79
169703	1842430	The meteor shower was incredible last night.	The meteor shower was incredible last night.	87552251	1474214079551	1474214079630	r	82
169703	1842430	The meteor shower was incredible last night.	The meteor shower was incredible last night.	87552258	1474214079667	1474214079774	 	32
169703	1842430	The meteor shower was incredible last night.	The meteor shower was incredible last night.	87552260	1474214079782	1474214079863	s	83
169703	1842430	The meteor shower was incredible last night.	The meteor shower was incredible last night.	87552261	1474214079835	1474214079910	h	72
169703	1842430	The meteor shower was incredible last night.	The meteor shower was incredible last night.	87552262	1474214079986	1474214080072	o	79
169703	1842430	The meteor shower was incredible last night.	The meteor shower was incredible last night.	87552267	1474214080046	1474214080131	w	87
169703	1842430	The meteor shower was incredible last night.	The meteor shower was incredible last night.	87552270	1474214080190	1474214080266	e	69
169703	1842430	The meteor shower was incredible last night.	The meteor shower was incredible last night.	87552273	1474214080317	1474214080408	r	82
169703	1842430	The meteor shower was incredible last night.	The meteor shower was incredible last night.	87552275	1474214080419	1474214080524	 	32
169703	1842430	The meteor shower was incredible last night.	The meteor shower was incredible last night.	87552276	1474214080503	1474214080601	w	87
169703	1842430	The meteor shower was incredible last night.	The meteor shower was incredible last night.	87552277	1474214080674	1474214080804	a	65
169703	1842430	The meteor shower was incredible last night.	The meteor shower was incredible last night.	87552278	1474214080776	1474214080875	s	83
169703	1842430	The meteor shower was incredible last night.	The meteor shower was incredible last night.	87552279	1474214080831	1474214080926	 	32
169703	1842430	The meteor shower was incredible last night.	The meteor shower was incredible last night.	87552280	1474214080933	1474214081029	i	73
169703	1842430	The meteor shower was incredible last night.	The meteor shower was incredible last night.	87552281	1474214081112	1474214081195	n	78
169703	1842430	The meteor shower was incredible last night.	The meteor shower was incredible last night.	87552282	1474214081189	1474214081255	c	67
169703	1842430	The meteor shower was incredible last night.	The meteor shower was incredible last night.	87552283	1474214081347	1474214081400	r	69
169703	1842430	The meteor shower was incredible last night.	The meteor shower was incredible last night.	87552300	1474214081804	1474214081889	BKSP	8
169703	1842430	The meteor shower was incredible last night.	The meteor shower was incredible last night.	87552302	1474214081958	1474214082033	BKSP	8
169703	1842430	The meteor shower was incredible last night.	The meteor shower was incredible last night.	87552303	1474214081997	1474214082089	r	82
169703	1842430	The meteor shower was incredible last night.	The meteor shower was incredible last night.	87552304	1474214082157	1474214082225	e	69
169703	1842430	The meteor shower was incredible last night.	The meteor shower was incredible last night.	87552305	1474214082298	1474214082367	d	68
169703	1842430	The meteor shower was incredible last night.	The meteor shower was incredible last night.	87552306	1474214082405	1474214082495	i	73
169703	1842430	The meteor shower was incredible last night.	The meteor shower was incredible last night.	87552309	1474214082476	1474214082547	b	66
169703	1842430	The meteor shower was incredible last night.	The meteor shower was incredible last night.	87552311	1474214082586	1474214082665	l	76
169703	1842430	The meteor shower was incredible last night.	The meteor shower was incredible last night.	87552314	1474214082668	1474214082741	e	69
169703	1842430	The meteor shower was incredible last night.	The meteor shower was incredible last night.	87552318	1474214082742	1474214082851	 	32
169703	1842430	The meteor shower was incredible last night.	The meteor shower was incredible last night.	87552322	1474214082830	1474214082930	l	76
169703	1842430	The meteor shower was incredible last night.	The meteor shower was incredible last night.	87552337	1474214082909	1474214082995	a	65
169703	1842430	The meteor shower was incredible last night.	The meteor shower was incredible last night.	87552338	1474214082949	1474214083054	s	83
169703	1842430	The meteor shower was incredible last night.	The meteor shower was incredible last night.	87552339	1474214083107	1474214083205	t	84
169703	1842430	The meteor shower was incredible last night.	The meteor shower was incredible last night.	87552340	1474214083169	1474214083301	 	32
169703	1842430	The meteor shower was incredible last night.	The meteor shower was incredible last night.	87552341	1474214083264	1474214083336	n	78
169703	1842430	The meteor shower was incredible last night.	The meteor shower was incredible last night.	87552342	1474214083402	1474214083475	i	73
169703	1842430	The meteor shower was incredible last night.	The meteor shower was incredible last night.	87552351	1474214083469	1474214083536	g	71
169703	1842430	The meteor shower was incredible last night.	The meteor shower was incredible last night.	87552353	1474214083551	1474214083632	h	72
169703	1842430	The meteor shower was incredible last night.	The meteor shower was incredible last night.	87552355	1474214083613	1474214083691	t	84
169703	1842430	The meteor shower was incredible last night.	The meteor shower was incredible last night.	87552357	1474214083746	1474214083805	.	190
169703	1842432	If the Penskes have any luck at all, they could be unstoppable.	If the Penskes have any luck at all, they could be unstoppable.	87552384	1474214084847	1474214085578	SHIFT	16
169703	1842432	If the Penskes have any luck at all, they could be unstoppable.	If the Penskes have any luck at all, they could be unstoppable.	87552385	1474214085498	1474214085583	I	73
169703	1842432	If the Penskes have any luck at all, they could be unstoppable.	If the Penskes have any luck at all, they could be unstoppable.	87552387	1474214085666	1474214085746	f	70
169703	1842432	If the Penskes have any luck at all, they could be unstoppable.	If the Penskes have any luck at all, they could be unstoppable.	87552389	1474214085740	1474214085826	 	32
169703	1842432	If the Penskes have any luck at all, they could be unstoppable.	If the Penskes have any luck at all, they could be unstoppable.	87552391	1474214085827	1474214085902	t	84
169703	1842432	If the Penskes have any luck at all, they could be unstoppable.	If the Penskes have any luck at all, they could be unstoppable.	87552399	1474214085888	1474214085980	h	72
169703	1842432	If the Penskes have any luck at all, they could be unstoppable.	If the Penskes have any luck at all, they could be unstoppable.	87552400	1474214085977	1474214086058	e	69
169703	1842432	If the Penskes have any luck at all, they could be unstoppable.	If the Penskes have any luck at all, they could be unstoppable.	87552401	1474214086046	1474214086131	 	32
169703	1842432	If the Penskes have any luck at all, they could be unstoppable.	If the Penskes have any luck at all, they could be unstoppable.	87552402	1474214086123	1474214086261	SHIFT	16
169703	1842432	If the Penskes have any luck at all, they could be unstoppable.	If the Penskes have any luck at all, they could be unstoppable.	87552403	1474214086200	1474214086283	P	80
169703	1842432	If the Penskes have any luck at all, they could be unstoppable.	If the Penskes have any luck at all, they could be unstoppable.	87552404	1474214086332	1474214086411	e	69
169703	1842432	If the Penskes have any luck at all, they could be unstoppable.	If the Penskes have any luck at all, they could be unstoppable.	87552406	1474214086480	1474214086590	n	78
169703	1842432	If the Penskes have any luck at all, they could be unstoppable.	If the Penskes have any luck at all, they could be unstoppable.	87552415	1474214086642	1474214086731	s	83
169703	1842432	If the Penskes have any luck at all, they could be unstoppable.	If the Penskes have any luck at all, they could be unstoppable.	87552416	1474214086774	1474214086852	k	75
169703	1842432	If the Penskes have any luck at all, they could be unstoppable.	If the Penskes have any luck at all, they could be unstoppable.	87552417	1474214086868	1474214086951	e	69
169703	1842432	If the Penskes have any luck at all, they could be unstoppable.	If the Penskes have any luck at all, they could be unstoppable.	87552418	1474214087022	1474214087102	s	83
169703	1842432	If the Penskes have any luck at all, they could be unstoppable.	If the Penskes have any luck at all, they could be unstoppable.	87552426	1474214087097	1474214087207	 	32
169703	1842432	If the Penskes have any luck at all, they could be unstoppable.	If the Penskes have any luck at all, they could be unstoppable.	87552427	1474214087211	1474214087309	h	72
169703	1842432	If the Penskes have any luck at all, they could be unstoppable.	If the Penskes have any luck at all, they could be unstoppable.	87552428	1474214087255	1474214087349	a	65
169703	1842432	If the Penskes have any luck at all, they could be unstoppable.	If the Penskes have any luck at all, they could be unstoppable.	87552429	1474214087385	1474214087452	v	86
169703	1842432	If the Penskes have any luck at all, they could be unstoppable.	If the Penskes have any luck at all, they could be unstoppable.	87552430	1474214087533	1474214087606	e	69
169703	1842432	If the Penskes have any luck at all, they could be unstoppable.	If the Penskes have any luck at all, they could be unstoppable.	87552431	1474214087616	1474214087719	 	32
169703	1842432	If the Penskes have any luck at all, they could be unstoppable.	If the Penskes have any luck at all, they could be unstoppable.	87552437	1474214087706	1474214087802	a	65
169703	1842432	If the Penskes have any luck at all, they could be unstoppable.	If the Penskes have any luck at all, they could be unstoppable.	87552439	1474214087782	1474214087824	n	78
169703	1842432	If the Penskes have any luck at all, they could be unstoppable.	If the Penskes have any luck at all, they could be unstoppable.	87552440	1474214087914	1474214088003	y	89
169703	1842432	If the Penskes have any luck at all, they could be unstoppable.	If the Penskes have any luck at all, they could be unstoppable.	87552441	1474214088004	1474214088095	 	32
169703	1842432	If the Penskes have any luck at all, they could be unstoppable.	If the Penskes have any luck at all, they could be unstoppable.	87552442	1474214088134	1474214088221	l	76
169703	1842432	If the Penskes have any luck at all, they could be unstoppable.	If the Penskes have any luck at all, they could be unstoppable.	87552443	1474214088288	1474214088381	u	85
169703	1842432	If the Penskes have any luck at all, they could be unstoppable.	If the Penskes have any luck at all, they could be unstoppable.	87552444	1474214088382	1474214088468	c	67
169703	1842432	If the Penskes have any luck at all, they could be unstoppable.	If the Penskes have any luck at all, they could be unstoppable.	87552445	1474214088466	1474214088565	k	75
169703	1842432	If the Penskes have any luck at all, they could be unstoppable.	If the Penskes have any luck at all, they could be unstoppable.	87552446	1474214088536	1474214088630	 	32
169703	1842432	If the Penskes have any luck at all, they could be unstoppable.	If the Penskes have any luck at all, they could be unstoppable.	87552447	1474214088604	1474214088705	a	65
169703	1842432	If the Penskes have any luck at all, they could be unstoppable.	If the Penskes have any luck at all, they could be unstoppable.	87552458	1474214088704	1474214088782	t	84
169703	1842432	If the Penskes have any luck at all, they could be unstoppable.	If the Penskes have any luck at all, they could be unstoppable.	87552459	1474214088805	1474214088893	 	32
169703	1842432	If the Penskes have any luck at all, they could be unstoppable.	If the Penskes have any luck at all, they could be unstoppable.	87552461	1474214088889	1474214088989	a	65
169703	1842432	If the Penskes have any luck at all, they could be unstoppable.	If the Penskes have any luck at all, they could be unstoppable.	87552462	1474214089019	1474214089088	l	76
169703	1842432	If the Penskes have any luck at all, they could be unstoppable.	If the Penskes have any luck at all, they could be unstoppable.	87552463	1474214089149	1474214089227	l	76
169703	1842432	If the Penskes have any luck at all, they could be unstoppable.	If the Penskes have any luck at all, they could be unstoppable.	87552464	1474214089299	1474214089394	,	188
169703	1842432	If the Penskes have any luck at all, they could be unstoppable.	If the Penskes have any luck at all, they could be unstoppable.	87552465	1474214089381	1474214089485	 	32
169703	1842432	If the Penskes have any luck at all, they could be unstoppable.	If the Penskes have any luck at all, they could be unstoppable.	87552466	1474214089478	1474214089566	t	84
169703	1842432	If the Penskes have any luck at all, they could be unstoppable.	If the Penskes have any luck at all, they could be unstoppable.	87552467	1474214089568	1474214089649	h	72
169703	1842432	If the Penskes have any luck at all, they could be unstoppable.	If the Penskes have any luck at all, they could be unstoppable.	87552468	1474214089658	1474214089739	e	69
169703	1842432	If the Penskes have any luck at all, they could be unstoppable.	If the Penskes have any luck at all, they could be unstoppable.	87552469	1474214089738	1474214089827	y	89
169703	1842432	If the Penskes have any luck at all, they could be unstoppable.	If the Penskes have any luck at all, they could be unstoppable.	87552470	1474214089815	1474214089894	 	32
169703	1842432	If the Penskes have any luck at all, they could be unstoppable.	If the Penskes have any luck at all, they could be unstoppable.	87552471	1474214089877	1474214089976	c	67
169703	1842432	If the Penskes have any luck at all, they could be unstoppable.	If the Penskes have any luck at all, they could be unstoppable.	87552472	1474214089951	1474214090011	o	79
169703	1842432	If the Penskes have any luck at all, they could be unstoppable.	If the Penskes have any luck at all, they could be unstoppable.	87552473	1474214090072	1474214090128	u	85
169703	1842432	If the Penskes have any luck at all, they could be unstoppable.	If the Penskes have any luck at all, they could be unstoppable.	87552474	1474214090212	1474214090292	l	76
169703	1842432	If the Penskes have any luck at all, they could be unstoppable.	If the Penskes have any luck at all, they could be unstoppable.	87552475	1474214090300	1474214090388	d	68
169703	1842432	If the Penskes have any luck at all, they could be unstoppable.	If the Penskes have any luck at all, they could be unstoppable.	87552479	1474214090342	1474214090468	 	32
169703	1842432	If the Penskes have any luck at all, they could be unstoppable.	If the Penskes have any luck at all, they could be unstoppable.	87552484	1474214090440	1474214090522	b	66
169703	1842432	If the Penskes have any luck at all, they could be unstoppable.	If the Penskes have any luck at all, they could be unstoppable.	87552489	1474214090493	1474214090563	e	69
169703	1842432	If the Penskes have any luck at all, they could be unstoppable.	If the Penskes have any luck at all, they could be unstoppable.	87552493	1474214090561	1474214090649	 	32
169703	1842432	If the Penskes have any luck at all, they could be unstoppable.	If the Penskes have any luck at all, they could be unstoppable.	87552496	1474214090669	1474214090753	u	85
169703	1842432	If the Penskes have any luck at all, they could be unstoppable.	If the Penskes have any luck at all, they could be unstoppable.	87552498	1474214090814	1474214090895	n	78
169703	1842432	If the Penskes have any luck at all, they could be unstoppable.	If the Penskes have any luck at all, they could be unstoppable.	87552501	1474214090869	1474214090948	s	83
169703	1842432	If the Penskes have any luck at all, they could be unstoppable.	If the Penskes have any luck at all, they could be unstoppable.	87552502	1474214091024	1474214091109	t	84
169703	1842432	If the Penskes have any luck at all, they could be unstoppable.	If the Penskes have any luck at all, they could be unstoppable.	87552503	1474214091093	1474214091148	o	79
169703	1842432	If the Penskes have any luck at all, they could be unstoppable.	If the Penskes have any luck at all, they could be unstoppable.	87552504	1474214091243	1474214091301	p	80
169703	1842432	If the Penskes have any luck at all, they could be unstoppable.	If the Penskes have any luck at all, they could be unstoppable.	87552505	1474214091363	1474214091449	p	80
169703	1842432	If the Penskes have any luck at all, they could be unstoppable.	If the Penskes have any luck at all, they could be unstoppable.	87552506	1474214091439	1474214091503	a	65
169703	1842432	If the Penskes have any luck at all, they could be unstoppable.	If the Penskes have any luck at all, they could be unstoppable.	87552507	1474214091559	1474214091633	b	66
169703	1842432	If the Penskes have any luck at all, they could be unstoppable.	If the Penskes have any luck at all, they could be unstoppable.	87552508	1474214091654	1474214091733	l	76
169703	1842432	If the Penskes have any luck at all, they could be unstoppable.	If the Penskes have any luck at all, they could be unstoppable.	87552509	1474214091724	1474214091802	e	69
169703	1842432	If the Penskes have any luck at all, they could be unstoppable.	If the Penskes have any luck at all, they could be unstoppable.	87552510	1474214091819	1474214091898	.	190
169703	1842436	Let me know if I can help.	Let me know if I can help.	87552535	1474214093235	1474214093426	SHIFT	16
169703	1842436	Let me know if I can help.	Let me know if I can help.	87552537	1474214093372	1474214093455	L	76
169703	1842436	Let me know if I can help.	Let me know if I can help.	87552538	1474214093449	1474214093546	e	69
169703	1842436	Let me know if I can help.	Let me know if I can help.	87552539	1474214093623	1474214093696	t	84
169703	1842436	Let me know if I can help.	Let me know if I can help.	87552540	1474214093682	1474214093796	 	32
169703	1842436	Let me know if I can help.	Let me know if I can help.	87552541	1474214093745	1474214093835	m	77
169703	1842436	Let me know if I can help.	Let me know if I can help.	87552542	1474214093844	1474214093930	e	69
169703	1842436	Let me know if I can help.	Let me know if I can help.	87552543	1474214093921	1474214094016	 	32
169703	1842436	Let me know if I can help.	Let me know if I can help.	87552545	1474214093987	1474214094057	k	75
169703	1842436	Let me know if I can help.	Let me know if I can help.	87552547	1474214094124	1474214094174	n	78
169703	1842436	Let me know if I can help.	Let me know if I can help.	87552549	1474214094263	1474214094329	o	79
169703	1842436	Let me know if I can help.	Let me know if I can help.	87552553	1474214094325	1474214094422	w	87
169703	1842436	Let me know if I can help.	Let me know if I can help.	87552554	1474214094388	1474214094489	 	32
169703	1842436	Let me know if I can help.	Let me know if I can help.	87552555	1474214094457	1474214094552	i	73
169703	1842436	Let me know if I can help.	Let me know if I can help.	87552556	1474214094562	1474214094656	f	70
169703	1842436	Let me know if I can help.	Let me know if I can help.	87552558	1474214094663	1474214094747	 	32
169703	1842436	Let me know if I can help.	Let me know if I can help.	87552560	1474214094790	1474214094927	SHIFT	16
169703	1842436	Let me know if I can help.	Let me know if I can help.	87552564	1474214094853	1474214094941	I	73
169703	1842436	Let me know if I can help.	Let me know if I can help.	87552565	1474214094916	1474214095017	 	32
169703	1842436	Let me know if I can help.	Let me know if I can help.	87552566	1474214094987	1474214095073	c	67
169703	1842436	Let me know if I can help.	Let me know if I can help.	87552567	1474214095115	1474214095216	a	65
169703	1842436	Let me know if I can help.	Let me know if I can help.	87552568	1474214095159	1474214095237	n	78
169703	1842436	Let me know if I can help.	Let me know if I can help.	87552569	1474214095218	1474214095283	 	32
169703	1842436	Let me know if I can help.	Let me know if I can help.	87552570	1474214095312	1474214095395	h	72
169703	1842436	Let me know if I can help.	Let me know if I can help.	87552571	1474214095383	1474214095480	e	69
169703	1842436	Let me know if I can help.	Let me know if I can help.	87552573	1474214095497	1474214095559	l	76
169703	1842436	Let me know if I can help.	Let me know if I can help.	87552575	1474214095620	1474214095683	p	80
169703	1842436	Let me know if I can help.	Let me know if I can help.	87552577	1474214095762	1474214095830	.	190
169703	1842438	I think I'm OK.	I think I'm OK.	87552595	1474214097233	1474214097483	SHIFT	16
169703	1842438	I think I'm OK.	I think I'm OK.	87552596	1474214097399	1474214097509	I	73
169703	1842438	I think I'm OK.	I think I'm OK.	87552597	1474214097482	1474214097592	 	32
169703	1842438	I think I'm OK.	I think I'm OK.	87552599	1474214097610	1474214097705	t	84
169703	1842438	I think I'm OK.	I think I'm OK.	87552601	1474214097684	1474214097745	h	72
169703	1842438	I think I'm OK.	I think I'm OK.	87552603	1474214097815	1474214097890	i	73
169703	1842438	I think I'm OK.	I think I'm OK.	87552606	1474214097894	1474214097975	n	78
169703	1842438	I think I'm OK.	I think I'm OK.	87552607	1474214097956	1474214098045	k	75
169703	1842438	I think I'm OK.	I think I'm OK.	87552608	1474214098022	1474214098098	 	32
169703	1842438	I think I'm OK.	I think I'm OK.	87552609	1474214098130	1474214098189	i	73
169703	1842438	I think I'm OK.	I think I'm OK.	87552610	1474214098386	1474214098456	BKSP	8
169703	1842438	I think I'm OK.	I think I'm OK.	87552620	1474214098431	1474214098622	SHIFT	16
169703	1842438	I think I'm OK.	I think I'm OK.	87552612	1474214098543	1474214098606	I	73
169703	1842438	I think I'm OK.	I think I'm OK.	87552621	1474214098744	1474214098817	'	222
169703	1842438	I think I'm OK.	I think I'm OK.	87552622	1474214098929	1474214099012	m	77
169703	1842438	I think I'm OK.	I think I'm OK.	87552623	1474214099006	1474214099082	 	32
169703	1842438	I think I'm OK.	I think I'm OK.	87552626	1474214099051	1474214099377	SHIFT	16
169703	1842438	I think I'm OK.	I think I'm OK.	87552624	1474214099144	1474214099216	O	79
169703	1842438	I think I'm OK.	I think I'm OK.	87552625	1474214099280	1474214099355	K	75
169703	1842438	I think I'm OK.	I think I'm OK.	87552627	1474214099522	1474214099589	.	190
169703	1842441	Washington was not moving toward a unilateral lifting of the embargo.	Washington was not moving toward a unilateral lifting of the embargo	87552653	1474214100902	1474214101097	SHIFT	16
169703	1842441	Washington was not moving toward a unilateral lifting of the embargo.	Washington was not moving toward a unilateral lifting of the embargo	87552654	1474214101032	1474214101136	W	87
169703	1842441	Washington was not moving toward a unilateral lifting of the embargo.	Washington was not moving toward a unilateral lifting of the embargo	87552655	1474214101207	1474214101319	a	65
169703	1842441	Washington was not moving toward a unilateral lifting of the embargo.	Washington was not moving toward a unilateral lifting of the embargo	87552656	1474214101244	1474214101392	s	83
169703	1842441	Washington was not moving toward a unilateral lifting of the embargo.	Washington was not moving toward a unilateral lifting of the embargo	87552657	1474214101337	1474214101408	h	72
169703	1842441	Washington was not moving toward a unilateral lifting of the embargo.	Washington was not moving toward a unilateral lifting of the embargo	87552658	1474214101473	1474214101528	i	73
169703	1842441	Washington was not moving toward a unilateral lifting of the embargo.	Washington was not moving toward a unilateral lifting of the embargo	87552664	1474214101586	1474214101665	n	78
169703	1842441	Washington was not moving toward a unilateral lifting of the embargo.	Washington was not moving toward a unilateral lifting of the embargo	87552665	1474214101672	1474214101750	g	71
169703	1842441	Washington was not moving toward a unilateral lifting of the embargo.	Washington was not moving toward a unilateral lifting of the embargo	87552666	1474214101845	1474214101881	o	84
169703	1842441	Washington was not moving toward a unilateral lifting of the embargo.	Washington was not moving toward a unilateral lifting of the embargo	87552667	1474214102494	1474214102593	n	78
169703	1842441	Washington was not moving toward a unilateral lifting of the embargo.	Washington was not moving toward a unilateral lifting of the embargo	87552668	1474214102609	1474214102702	 	32
169703	1842441	Washington was not moving toward a unilateral lifting of the embargo.	Washington was not moving toward a unilateral lifting of the embargo	87552669	1474214102677	1474214102767	w	87
169703	1842441	Washington was not moving toward a unilateral lifting of the embargo.	Washington was not moving toward a unilateral lifting of the embargo	87552670	1474214102816	1474214102941	a	65
169703	1842441	Washington was not moving toward a unilateral lifting of the embargo.	Washington was not moving toward a unilateral lifting of the embargo	87552679	1474214102882	1474214102991	s	83
169703	1842441	Washington was not moving toward a unilateral lifting of the embargo.	Washington was not moving toward a unilateral lifting of the embargo	87552682	1474214102925	1474214103044	 	32
169703	1842441	Washington was not moving toward a unilateral lifting of the embargo.	Washington was not moving toward a unilateral lifting of the embargo	87552685	1474214102993	1474214103067	n	78
169703	1842441	Washington was not moving toward a unilateral lifting of the embargo.	Washington was not moving toward a unilateral lifting of the embargo	87552688	1474214103141	1474214103222	o	79
169703	1842441	Washington was not moving toward a unilateral lifting of the embargo.	Washington was not moving toward a unilateral lifting of the embargo	87552691	1474214103197	1474214103277	t	84
169703	1842441	Washington was not moving toward a unilateral lifting of the embargo.	Washington was not moving toward a unilateral lifting of the embargo	87552693	1474214103278	1474214103386	 	32
169703	1842441	Washington was not moving toward a unilateral lifting of the embargo.	Washington was not moving toward a unilateral lifting of the embargo	87552694	1474214103338	1474214103408	m	77
169703	1842441	Washington was not moving toward a unilateral lifting of the embargo.	Washington was not moving toward a unilateral lifting of the embargo	87552695	1474214103476	1474214103549	o	79
169703	1842441	Washington was not moving toward a unilateral lifting of the embargo.	Washington was not moving toward a unilateral lifting of the embargo	87552696	1474214103542	1474214103648	v	86
169703	1842441	Washington was not moving toward a unilateral lifting of the embargo.	Washington was not moving toward a unilateral lifting of the embargo	87552697	1474214103625	1474214103703	i	73
169703	1842441	Washington was not moving toward a unilateral lifting of the embargo.	Washington was not moving toward a unilateral lifting of the embargo	87552698	1474214103767	1474214103844	n	78
169703	1842441	Washington was not moving toward a unilateral lifting of the embargo.	Washington was not moving toward a unilateral lifting of the embargo	87552699	1474214103863	1474214103941	g	71
169703	1842441	Washington was not moving toward a unilateral lifting of the embargo.	Washington was not moving toward a unilateral lifting of the embargo	87552700	1474214103922	1474214104016	 	32
169703	1842441	Washington was not moving toward a unilateral lifting of the embargo.	Washington was not moving toward a unilateral lifting of the embargo	87552701	1474214104017	1474214104101	t	84
169703	1842441	Washington was not moving toward a unilateral lifting of the embargo.	Washington was not moving toward a unilateral lifting of the embargo	87552702	1474214104101	1474214104188	o	79
169703	1842441	Washington was not moving toward a unilateral lifting of the embargo.	Washington was not moving toward a unilateral lifting of the embargo	87552703	1474214104210	1474214104290	w	87
169703	1842441	Washington was not moving toward a unilateral lifting of the embargo.	Washington was not moving toward a unilateral lifting of the embargo	87552704	1474214104350	1474214104438	a	65
169703	1842441	Washington was not moving toward a unilateral lifting of the embargo.	Washington was not moving toward a unilateral lifting of the embargo	87552721	1474214104420	1474214104494	r	82
169703	1842441	Washington was not moving toward a unilateral lifting of the embargo.	Washington was not moving toward a unilateral lifting of the embargo	87552722	1474214104568	1474214104659	d	68
169703	1842441	Washington was not moving toward a unilateral lifting of the embargo.	Washington was not moving toward a unilateral lifting of the embargo	87552723	1474214104688	1474214104789	 	32
169703	1842441	Washington was not moving toward a unilateral lifting of the embargo.	Washington was not moving toward a unilateral lifting of the embargo	87552724	1474214104859	1474214104972	a	65
169703	1842441	Washington was not moving toward a unilateral lifting of the embargo.	Washington was not moving toward a unilateral lifting of the embargo	87552725	1474214104978	1474214105069	 	32
169703	1842441	Washington was not moving toward a unilateral lifting of the embargo.	Washington was not moving toward a unilateral lifting of the embargo	87552726	1474214105211	1474214105294	u	85
169703	1842441	Washington was not moving toward a unilateral lifting of the embargo.	Washington was not moving toward a unilateral lifting of the embargo	87552749	1474214105385	1474214105453	n	78
169703	1842441	Washington was not moving toward a unilateral lifting of the embargo.	Washington was not moving toward a unilateral lifting of the embargo	87552751	1474214106257	1474214106337	i	73
169703	1842441	Washington was not moving toward a unilateral lifting of the embargo.	Washington was not moving toward a unilateral lifting of the embargo	87552754	1474214106433	1474214106513	l	76
169703	1842441	Washington was not moving toward a unilateral lifting of the embargo.	Washington was not moving toward a unilateral lifting of the embargo	87552758	1474214106493	1474214106579	a	65
169703	1842441	Washington was not moving toward a unilateral lifting of the embargo.	Washington was not moving toward a unilateral lifting of the embargo	87552762	1474214106587	1474214106668	t	84
169703	1842441	Washington was not moving toward a unilateral lifting of the embargo.	Washington was not moving toward a unilateral lifting of the embargo	87552766	1474214106698	1474214106829	e	69
169703	1842441	Washington was not moving toward a unilateral lifting of the embargo.	Washington was not moving toward a unilateral lifting of the embargo	87552767	1474214106770	1474214106865	r	82
169703	1842441	Washington was not moving toward a unilateral lifting of the embargo.	Washington was not moving toward a unilateral lifting of the embargo	87552768	1474214106959	1474214107077	a	65
169703	1842441	Washington was not moving toward a unilateral lifting of the embargo.	Washington was not moving toward a unilateral lifting of the embargo	87552769	1474214107043	1474214107130	l	76
169703	1842441	Washington was not moving toward a unilateral lifting of the embargo.	Washington was not moving toward a unilateral lifting of the embargo	87552770	1474214107138	1474214107235	 	32
169703	1842441	Washington was not moving toward a unilateral lifting of the embargo.	Washington was not moving toward a unilateral lifting of the embargo	87552776	1474214107252	1474214107323	l	76
169703	1842441	Washington was not moving toward a unilateral lifting of the embargo.	Washington was not moving toward a unilateral lifting of the embargo	87552777	1474214107393	1474214107486	i	73
169703	1842441	Washington was not moving toward a unilateral lifting of the embargo.	Washington was not moving toward a unilateral lifting of the embargo	87552778	1474214107424	1474214107505	f	70
169703	1842441	Washington was not moving toward a unilateral lifting of the embargo.	Washington was not moving toward a unilateral lifting of the embargo	87552779	1474214107553	1474214107636	i	73
169703	1842441	Washington was not moving toward a unilateral lifting of the embargo.	Washington was not moving toward a unilateral lifting of the embargo	87552780	1474214107709	1474214107796	n	78
169703	1842441	Washington was not moving toward a unilateral lifting of the embargo.	Washington was not moving toward a unilateral lifting of the embargo	87552802	1474214107754	1474214107837	t	84
169703	1842441	Washington was not moving toward a unilateral lifting of the embargo.	Washington was not moving toward a unilateral lifting of the embargo	87552803	1474214108304	1474214108375	BKSP	8
169703	1842441	Washington was not moving toward a unilateral lifting of the embargo.	Washington was not moving toward a unilateral lifting of the embargo	87552804	1474214108449	1474214108508	BKSP	8
169703	1842441	Washington was not moving toward a unilateral lifting of the embargo.	Washington was not moving toward a unilateral lifting of the embargo	87552805	1474214108576	1474214108651	BKSP	8
169703	1842441	Washington was not moving toward a unilateral lifting of the embargo.	Washington was not moving toward a unilateral lifting of the embargo	87552806	1474214108678	1474214108791	t	84
169703	1842441	Washington was not moving toward a unilateral lifting of the embargo.	Washington was not moving toward a unilateral lifting of the embargo	87552807	1474214108980	1474214109078	i	73
169703	1842441	Washington was not moving toward a unilateral lifting of the embargo.	Washington was not moving toward a unilateral lifting of the embargo	87552808	1474214109159	1474214109236	n	78
169703	1842441	Washington was not moving toward a unilateral lifting of the embargo.	Washington was not moving toward a unilateral lifting of the embargo	87552809	1474214109243	1474214109316	g	71
169703	1842441	Washington was not moving toward a unilateral lifting of the embargo.	Washington was not moving toward a unilateral lifting of the embargo	87552810	1474214109320	1474214109402	 	32
169703	1842441	Washington was not moving toward a unilateral lifting of the embargo.	Washington was not moving toward a unilateral lifting of the embargo	87552814	1474214109470	1474214109553	o	79
169703	1842441	Washington was not moving toward a unilateral lifting of the embargo.	Washington was not moving toward a unilateral lifting of the embargo	87552816	1474214109554	1474214109631	f	70
169703	1842441	Washington was not moving toward a unilateral lifting of the embargo.	Washington was not moving toward a unilateral lifting of the embargo	87552818	1474214109638	1474214109728	 	32
169703	1842441	Washington was not moving toward a unilateral lifting of the embargo.	Washington was not moving toward a unilateral lifting of the embargo	87552820	1474214109716	1474214109798	t	84
169703	1842441	Washington was not moving toward a unilateral lifting of the embargo.	Washington was not moving toward a unilateral lifting of the embargo	87552826	1474214109797	1474214109876	h	72
169703	1842441	Washington was not moving toward a unilateral lifting of the embargo.	Washington was not moving toward a unilateral lifting of the embargo	87552827	1474214109870	1474214109962	e	69
169703	1842441	Washington was not moving toward a unilateral lifting of the embargo.	Washington was not moving toward a unilateral lifting of the embargo	87552828	1474214109939	1474214110065	 	32
169703	1842441	Washington was not moving toward a unilateral lifting of the embargo.	Washington was not moving toward a unilateral lifting of the embargo	87552829	1474214110217	1474214110299	e	69
169703	1842441	Washington was not moving toward a unilateral lifting of the embargo.	Washington was not moving toward a unilateral lifting of the embargo	87552830	1474214110296	1474214110385	m	77
169703	1842441	Washington was not moving toward a unilateral lifting of the embargo.	Washington was not moving toward a unilateral lifting of the embargo	87552831	1474214110457	1474214110555	b	66
169703	1842441	Washington was not moving toward a unilateral lifting of the embargo.	Washington was not moving toward a unilateral lifting of the embargo	87552844	1474214110552	1474214110656	a	65
169703	1842441	Washington was not moving toward a unilateral lifting of the embargo.	Washington was not moving toward a unilateral lifting of the embargo	87552845	1474214110619	1474214110699	r	82
169703	1842441	Washington was not moving toward a unilateral lifting of the embargo.	Washington was not moving toward a unilateral lifting of the embargo	87552846	1474214110790	1474214110899	f	70
169703	1842441	Washington was not moving toward a unilateral lifting of the embargo.	Washington was not moving toward a unilateral lifting of the embargo	87552847	1474214110904	1474214110981	o	79
169703	1842441	Washington was not moving toward a unilateral lifting of the embargo.	Washington was not moving toward a unilateral lifting of the embargo	87552848	1474214111123	1474214111177	BKSP	8
169703	1842441	Washington was not moving toward a unilateral lifting of the embargo.	Washington was not moving toward a unilateral lifting of the embargo	87552850	1474214111250	1474214111314	BKSP	8
169703	1842441	Washington was not moving toward a unilateral lifting of the embargo.	Washington was not moving toward a unilateral lifting of the embargo	87552851	1474214111326	1474214111418	g	71
169703	1842441	Washington was not moving toward a unilateral lifting of the embargo.	Washington was not moving toward a unilateral lifting of the embargo	87552849	1474214111389	1474214111458	o	79
169703	1842443	Chinese President defended the military crackdown on protesters.	Chinese President defended the military crackdown on protesters.	87552865	1474214112595	1474214112910	SHIFT	16
169703	1842443	Chinese President defended the military crackdown on protesters.	Chinese President defended the military crackdown on protesters.	87552867	1474214112841	1474214112932	C	67
169703	1842443	Chinese President defended the military crackdown on protesters.	Chinese President defended the military crackdown on protesters.	87552869	1474214112939	1474214113000	h	72
169703	1842443	Chinese President defended the military crackdown on protesters.	Chinese President defended the military crackdown on protesters.	87552871	1474214113075	1474214113136	i	73
169703	1842443	Chinese President defended the military crackdown on protesters.	Chinese President defended the military crackdown on protesters.	87552872	1474214113199	1474214113285	n	78
169703	1842443	Chinese President defended the military crackdown on protesters.	Chinese President defended the military crackdown on protesters.	87552876	1474214113247	1474214113334	e	69
169703	1842443	Chinese President defended the military crackdown on protesters.	Chinese President defended the military crackdown on protesters.	87552878	1474214113402	1474214113449	s	83
169703	1842443	Chinese President defended the military crackdown on protesters.	Chinese President defended the military crackdown on protesters.	87552880	1474214113520	1474214113609	e	69
169703	1842443	Chinese President defended the military crackdown on protesters.	Chinese President defended the military crackdown on protesters.	87552882	1474214113606	1474214113695	 	32
169703	1842443	Chinese President defended the military crackdown on protesters.	Chinese President defended the military crackdown on protesters.	87552884	1474214113679	1474214113820	SHIFT	16
169703	1842443	Chinese President defended the military crackdown on protesters.	Chinese President defended the military crackdown on protesters.	87552886	1474214113768	1474214113842	P	80
169703	1842443	Chinese President defended the military crackdown on protesters.	Chinese President defended the military crackdown on protesters.	87552889	1474214113838	1474214113925	r	82
169703	1842443	Chinese President defended the military crackdown on protesters.	Chinese President defended the military crackdown on protesters.	87552890	1474214113984	1474214114050	e	69
169703	1842443	Chinese President defended the military crackdown on protesters.	Chinese President defended the military crackdown on protesters.	87552891	1474214114112	1474214114193	s	83
169703	1842443	Chinese President defended the military crackdown on protesters.	Chinese President defended the military crackdown on protesters.	87552892	1474214114213	1474214114302	i	73
169703	1842443	Chinese President defended the military crackdown on protesters.	Chinese President defended the military crackdown on protesters.	87552893	1474214114280	1474214114342	d	68
169703	1842443	Chinese President defended the military crackdown on protesters.	Chinese President defended the military crackdown on protesters.	87552894	1474214114415	1474214114486	e	69
169703	1842443	Chinese President defended the military crackdown on protesters.	Chinese President defended the military crackdown on protesters.	87552895	1474214114470	1474214114549	n	78
169703	1842443	Chinese President defended the military crackdown on protesters.	Chinese President defended the military crackdown on protesters.	87552896	1474214114575	1474214114650	t	84
169703	1842443	Chinese President defended the military crackdown on protesters.	Chinese President defended the military crackdown on protesters.	87552897	1474214114648	1474214114750	 	32
169703	1842443	Chinese President defended the military crackdown on protesters.	Chinese President defended the military crackdown on protesters.	87552898	1474214114754	1474214114835	d	68
169703	1842443	Chinese President defended the military crackdown on protesters.	Chinese President defended the military crackdown on protesters.	87552899	1474214114905	1474214114993	e	69
169703	1842443	Chinese President defended the military crackdown on protesters.	Chinese President defended the military crackdown on protesters.	87552900	1474214115048	1474214115117	f	70
169703	1842443	Chinese President defended the military crackdown on protesters.	Chinese President defended the military crackdown on protesters.	87552901	1474214115179	1474214115253	e	69
169703	1842443	Chinese President defended the military crackdown on protesters.	Chinese President defended the military crackdown on protesters.	87552902	1474214115257	1474214115345	n	78
169703	1842443	Chinese President defended the military crackdown on protesters.	Chinese President defended the military crackdown on protesters.	87552903	1474214115341	1474214115412	d	68
169703	1842443	Chinese President defended the military crackdown on protesters.	Chinese President defended the military crackdown on protesters.	87552904	1474214115481	1474214115553	e	69
169703	1842443	Chinese President defended the military crackdown on protesters.	Chinese President defended the military crackdown on protesters.	87552905	1474214115613	1474214115684	d	68
169703	1842443	Chinese President defended the military crackdown on protesters.	Chinese President defended the military crackdown on protesters.	87552906	1474214115677	1474214115777	 	32
169703	1842443	Chinese President defended the military crackdown on protesters.	Chinese President defended the military crackdown on protesters.	87552907	1474214115764	1474214115839	t	84
169703	1842443	Chinese President defended the military crackdown on protesters.	Chinese President defended the military crackdown on protesters.	87552908	1474214115853	1474214115928	h	72
169703	1842443	Chinese President defended the military crackdown on protesters.	Chinese President defended the military crackdown on protesters.	87552909	1474214115911	1474214116002	e	69
169703	1842443	Chinese President defended the military crackdown on protesters.	Chinese President defended the military crackdown on protesters.	87552910	1474214115991	1474214116100	 	32
169703	1842443	Chinese President defended the military crackdown on protesters.	Chinese President defended the military crackdown on protesters.	87552917	1474214116066	1474214116144	m	77
169703	1842443	Chinese President defended the military crackdown on protesters.	Chinese President defended the military crackdown on protesters.	87552919	1474214116219	1474214116297	i	73
169703	1842443	Chinese President defended the military crackdown on protesters.	Chinese President defended the military crackdown on protesters.	87552921	1474214116369	1474214116430	l	76
169703	1842443	Chinese President defended the military crackdown on protesters.	Chinese President defended the military crackdown on protesters.	87552922	1474214116491	1474214116585	i	73
169703	1842443	Chinese President defended the military crackdown on protesters.	Chinese President defended the military crackdown on protesters.	87552923	1474214116545	1474214116616	t	84
169703	1842443	Chinese President defended the military crackdown on protesters.	Chinese President defended the military crackdown on protesters.	87552924	1474214116681	1474214116754	a	65
169703	1842443	Chinese President defended the military crackdown on protesters.	Chinese President defended the military crackdown on protesters.	87552932	1474214116717	1474214116815	r	82
169703	1842443	Chinese President defended the military crackdown on protesters.	Chinese President defended the military crackdown on protesters.	87552936	1474214116832	1474214116936	y	89
169703	1842443	Chinese President defended the military crackdown on protesters.	Chinese President defended the military crackdown on protesters.	87552938	1474214116922	1474214117032	 	32
169703	1842443	Chinese President defended the military crackdown on protesters.	Chinese President defended the military crackdown on protesters.	87552939	1474214117032	1474214117115	c	67
169703	1842443	Chinese President defended the military crackdown on protesters.	Chinese President defended the military crackdown on protesters.	87552941	1474214117185	1474214117272	r	82
169703	1842443	Chinese President defended the military crackdown on protesters.	Chinese President defended the military crackdown on protesters.	87552943	1474214117331	1474214117423	a	65
169703	1842443	Chinese President defended the military crackdown on protesters.	Chinese President defended the military crackdown on protesters.	87552953	1474214117445	1474214117510	c	67
169703	1842443	Chinese President defended the military crackdown on protesters.	Chinese President defended the military crackdown on protesters.	87552954	1474214117526	1474214117620	k	75
169703	1842443	Chinese President defended the military crackdown on protesters.	Chinese President defended the military crackdown on protesters.	87552955	1474214117620	1474214117667	r	84
169703	1842443	Chinese President defended the military crackdown on protesters.	Chinese President defended the military crackdown on protesters.	87552956	1474214117972	1474214118038	BKSP	8
169703	1842443	Chinese President defended the military crackdown on protesters.	Chinese President defended the military crackdown on protesters.	87552957	1474214118150	1474214118238	d	68
169703	1842443	Chinese President defended the military crackdown on protesters.	Chinese President defended the military crackdown on protesters.	87552958	1474214118438	1474214118491	BKSP	8
169703	1842443	Chinese President defended the military crackdown on protesters.	Chinese President defended the military crackdown on protesters.	87552959	1474214118560	1474214118636	BKSP	8
169703	1842443	Chinese President defended the military crackdown on protesters.	Chinese President defended the military crackdown on protesters.	87552960	1474214118657	1474214118743	d	68
169703	1842443	Chinese President defended the military crackdown on protesters.	Chinese President defended the military crackdown on protesters.	87552962	1474214118732	1474214118805	o	79
169703	1842443	Chinese President defended the military crackdown on protesters.	Chinese President defended the military crackdown on protesters.	87552964	1474214118822	1474214118906	w	87
169703	1842443	Chinese President defended the military crackdown on protesters.	Chinese President defended the military crackdown on protesters.	87552967	1474214118917	1474214119003	n	78
169703	1842443	Chinese President defended the military crackdown on protesters.	Chinese President defended the military crackdown on protesters.	87552970	1474214119009	1474214119097	 	32
169703	1842443	Chinese President defended the military crackdown on protesters.	Chinese President defended the military crackdown on protesters.	87552976	1474214119113	1474214119182	o	79
169703	1842443	Chinese President defended the military crackdown on protesters.	Chinese President defended the military crackdown on protesters.	87552977	1474214119260	1474214119343	n	78
169703	1842443	Chinese President defended the military crackdown on protesters.	Chinese President defended the military crackdown on protesters.	87552978	1474214119337	1474214119407	 	32
169703	1842443	Chinese President defended the military crackdown on protesters.	Chinese President defended the military crackdown on protesters.	87552979	1474214119465	1474214119554	p	80
169703	1842443	Chinese President defended the military crackdown on protesters.	Chinese President defended the military crackdown on protesters.	87552994	1474214119553	1474214119638	r	82
169703	1842443	Chinese President defended the military crackdown on protesters.	Chinese President defended the military crackdown on protesters.	87552995	1474214119786	1474214119884	o	79
169703	1842443	Chinese President defended the military crackdown on protesters.	Chinese President defended the military crackdown on protesters.	87552996	1474214119946	1474214120033	t	84
169703	1842443	Chinese President defended the military crackdown on protesters.	Chinese President defended the military crackdown on protesters.	87552997	1474214120115	1474214120192	e	69
169703	1842443	Chinese President defended the military crackdown on protesters.	Chinese President defended the military crackdown on protesters.	87552998	1474214120273	1474214120309	s	83
169703	1842443	Chinese President defended the military crackdown on protesters.	Chinese President defended the military crackdown on protesters.	87552999	1474214120398	1474214120488	t	84
169703	1842443	Chinese President defended the military crackdown on protesters.	Chinese President defended the military crackdown on protesters.	87553000	1474214120526	1474214120615	o	79
169703	1842443	Chinese President defended the military crackdown on protesters.	Chinese President defended the military crackdown on protesters.	87553001	1474214120862	1474214120940	BKSP	8
169703	1842443	Chinese President defended the military crackdown on protesters.	Chinese President defended the military crackdown on protesters.	87553002	1474214120899	1474214120970	e	69
169703	1842443	Chinese President defended the military crackdown on protesters.	Chinese President defended the military crackdown on protesters.	87553003	1474214121031	1474214121090	r	82
169703	1842443	Chinese President defended the military crackdown on protesters.	Chinese President defended the military crackdown on protesters.	87553005	1474214121159	1474214121233	s	83
169703	1842443	Chinese President defended the military crackdown on protesters.	Chinese President defended the military crackdown on protesters.	87553007	1474214121491	1474214121575	.	190
169703	1842445	I will add this to the folder and let you know when we get into it.	I will add this to the folder and let you know when we get into it.	87553031	1474214122882	1474214123149	SHIFT	16
169703	1842445	I will add this to the folder and let you know when we get into it.	I will add this to the folder and let you know when we get into it.	87553033	1474214123054	1474214123182	I	73
169703	1842445	I will add this to the folder and let you know when we get into it.	I will add this to the folder and let you know when we get into it.	87553035	1474214123145	1474214123270	 	32
169703	1842445	I will add this to the folder and let you know when we get into it.	I will add this to the folder and let you know when we get into it.	87553037	1474214123258	1474214123396	SHIFT	16
169703	1842445	I will add this to the folder and let you know when we get into it.	I will add this to the folder and let you know when we get into it.	87553039	1474214123578	1474214123662	w	87
169703	1842445	I will add this to the folder and let you know when we get into it.	I will add this to the folder and let you know when we get into it.	87553040	1474214123647	1474214123718	i	73
169703	1842445	I will add this to the folder and let you know when we get into it.	I will add this to the folder and let you know when we get into it.	87553041	1474214123804	1474214123858	l	76
169703	1842445	I will add this to the folder and let you know when we get into it.	I will add this to the folder and let you know when we get into it.	87553043	1474214123916	1474214123998	l	76
169703	1842445	I will add this to the folder and let you know when we get into it.	I will add this to the folder and let you know when we get into it.	87553046	1474214123969	1474214124072	 	32
169703	1842445	I will add this to the folder and let you know when we get into it.	I will add this to the folder and let you know when we get into it.	87553049	1474214124042	1474214124127	a	65
169703	1842445	I will add this to the folder and let you know when we get into it.	I will add this to the folder and let you know when we get into it.	87553050	1474214124110	1474214124167	d	68
169703	1842445	I will add this to the folder and let you know when we get into it.	I will add this to the folder and let you know when we get into it.	87553051	1474214124229	1474214124319	d	68
169703	1842445	I will add this to the folder and let you know when we get into it.	I will add this to the folder and let you know when we get into it.	87553053	1474214124330	1474214124423	 	32
169703	1842445	I will add this to the folder and let you know when we get into it.	I will add this to the folder and let you know when we get into it.	87553055	1474214124394	1474214124478	t	84
169703	1842445	I will add this to the folder and let you know when we get into it.	I will add this to the folder and let you know when we get into it.	87553057	1474214124479	1474214124537	h	72
169703	1842445	I will add this to the folder and let you know when we get into it.	I will add this to the folder and let you know when we get into it.	87553059	1474214124595	1474214124688	i	73
169703	1842445	I will add this to the folder and let you know when we get into it.	I will add this to the folder and let you know when we get into it.	87553061	1474214124654	1474214124740	s	83
169703	1842445	I will add this to the folder and let you know when we get into it.	I will add this to the folder and let you know when we get into it.	87553062	1474214124718	1474214124815	 	32
169703	1842445	I will add this to the folder and let you know when we get into it.	I will add this to the folder and let you know when we get into it.	87553063	1474214124819	1474214124904	t	84
169703	1842445	I will add this to the folder and let you know when we get into it.	I will add this to the folder and let you know when we get into it.	87553064	1474214124872	1474214124981	o	79
169703	1842445	I will add this to the folder and let you know when we get into it.	I will add this to the folder and let you know when we get into it.	87553065	1474214124937	1474214125033	 	32
169703	1842445	I will add this to the folder and let you know when we get into it.	I will add this to the folder and let you know when we get into it.	87553066	1474214125002	1474214125074	t	84
169703	1842445	I will add this to the folder and let you know when we get into it.	I will add this to the folder and let you know when we get into it.	87553067	1474214125098	1474214125182	h	72
169703	1842445	I will add this to the folder and let you know when we get into it.	I will add this to the folder and let you know when we get into it.	87553068	1474214125162	1474214125249	e	69
169703	1842445	I will add this to the folder and let you know when we get into it.	I will add this to the folder and let you know when we get into it.	87553069	1474214125234	1474214125327	 	32
169703	1842445	I will add this to the folder and let you know when we get into it.	I will add this to the folder and let you know when we get into it.	87553070	1474214125323	1474214125405	f	70
169703	1842445	I will add this to the folder and let you know when we get into it.	I will add this to the folder and let you know when we get into it.	87553077	1474214125394	1474214125464	o	79
169703	1842445	I will add this to the folder and let you know when we get into it.	I will add this to the folder and let you know when we get into it.	87553080	1474214125529	1474214125617	l	76
169703	1842445	I will add this to the folder and let you know when we get into it.	I will add this to the folder and let you know when we get into it.	87553082	1474214125577	1474214125661	d	68
169703	1842445	I will add this to the folder and let you know when we get into it.	I will add this to the folder and let you know when we get into it.	87553084	1474214125681	1474214125787	e	69
169703	1842445	I will add this to the folder and let you know when we get into it.	I will add this to the folder and let you know when we get into it.	87553086	1474214125744	1474214125825	r	82
169703	1842445	I will add this to the folder and let you know when we get into it.	I will add this to the folder and let you know when we get into it.	87553087	1474214125815	1474214125906	 	32
169703	1842445	I will add this to the folder and let you know when we get into it.	I will add this to the folder and let you know when we get into it.	87553088	1474214125913	1474214126004	a	65
169703	1842445	I will add this to the folder and let you know when we get into it.	I will add this to the folder and let you know when we get into it.	87553089	1474214125962	1474214126051	n	78
169703	1842445	I will add this to the folder and let you know when we get into it.	I will add this to the folder and let you know when we get into it.	87553090	1474214126033	1474214126130	d	68
169703	1842445	I will add this to the folder and let you know when we get into it.	I will add this to the folder and let you know when we get into it.	87553092	1474214126101	1474214126211	 	32
169703	1842445	I will add this to the folder and let you know when we get into it.	I will add this to the folder and let you know when we get into it.	87553097	1474214126186	1474214126282	l	76
169703	1842445	I will add this to the folder and let you know when we get into it.	I will add this to the folder and let you know when we get into it.	87553099	1474214126230	1474214126384	e	69
169703	1842445	I will add this to the folder and let you know when we get into it.	I will add this to the folder and let you know when we get into it.	87553101	1474214126363	1474214126441	r	84
169703	1842445	I will add this to the folder and let you know when we get into it.	I will add this to the folder and let you know when we get into it.	87553103	1474214126696	1474214126746	BKSP	8
169703	1842445	I will add this to the folder and let you know when we get into it.	I will add this to the folder and let you know when we get into it.	87553105	1474214126964	1474214127050	 	32
169703	1842445	I will add this to the folder and let you know when we get into it.	I will add this to the folder and let you know when we get into it.	87553110	1474214126990	1474214127105	y	89
169703	1842445	I will add this to the folder and let you know when we get into it.	I will add this to the folder and let you know when we get into it.	87553111	1474214127133	1474214127180	o	79
169703	1842445	I will add this to the folder and let you know when we get into it.	I will add this to the folder and let you know when we get into it.	87553112	1474214127253	1474214127317	u	85
169703	1842445	I will add this to the folder and let you know when we get into it.	I will add this to the folder and let you know when we get into it.	87553113	1474214127318	1474214127423	 	32
169703	1842445	I will add this to the folder and let you know when we get into it.	I will add this to the folder and let you know when we get into it.	87553114	1474214127410	1474214127478	k	75
169703	1842445	I will add this to the folder and let you know when we get into it.	I will add this to the folder and let you know when we get into it.	87553115	1474214127530	1474214127591	n	78
169703	1842445	I will add this to the folder and let you know when we get into it.	I will add this to the folder and let you know when we get into it.	87553122	1474214127682	1474214127754	o	79
169703	1842445	I will add this to the folder and let you know when we get into it.	I will add this to the folder and let you know when we get into it.	87553123	1474214127782	1474214127868	w	87
169703	1842445	I will add this to the folder and let you know when we get into it.	I will add this to the folder and let you know when we get into it.	87553124	1474214127825	1474214127913	 	32
169703	1842445	I will add this to the folder and let you know when we get into it.	I will add this to the folder and let you know when we get into it.	87553125	1474214127941	1474214128023	w	87
169703	1842445	I will add this to the folder and let you know when we get into it.	I will add this to the folder and let you know when we get into it.	87553135	1474214127999	1474214128113	h	72
169703	1842445	I will add this to the folder and let you know when we get into it.	I will add this to the folder and let you know when we get into it.	87553137	1474214128112	1474214128198	e	69
169703	1842445	I will add this to the folder and let you know when we get into it.	I will add this to the folder and let you know when we get into it.	87553138	1474214128195	1474214128292	n	78
169703	1842445	I will add this to the folder and let you know when we get into it.	I will add this to the folder and let you know when we get into it.	87553139	1474214128290	1474214128395	 	32
169703	1842445	I will add this to the folder and let you know when we get into it.	I will add this to the folder and let you know when we get into it.	87553140	1474214128405	1474214128488	w	87
169703	1842445	I will add this to the folder and let you know when we get into it.	I will add this to the folder and let you know when we get into it.	87553141	1474214128548	1474214128621	e	69
169703	1842445	I will add this to the folder and let you know when we get into it.	I will add this to the folder and let you know when we get into it.	87553145	1474214128614	1474214128707	 	32
169703	1842445	I will add this to the folder and let you know when we get into it.	I will add this to the folder and let you know when we get into it.	87553147	1474214128717	1474214128786	g	71
169703	1842445	I will add this to the folder and let you know when we get into it.	I will add this to the folder and let you know when we get into it.	87553149	1474214128838	1474214128913	e	69
169703	1842445	I will add this to the folder and let you know when we get into it.	I will add this to the folder and let you know when we get into it.	87553150	1474214128867	1474214128953	t	84
169703	1842445	I will add this to the folder and let you know when we get into it.	I will add this to the folder and let you know when we get into it.	87553151	1474214128900	1474214128997	 	32
169703	1842445	I will add this to the folder and let you know when we get into it.	I will add this to the folder and let you know when we get into it.	87553152	1474214128974	1474214129067	i	73
169703	1842445	I will add this to the folder and let you know when we get into it.	I will add this to the folder and let you know when we get into it.	87553153	1474214129135	1474214129194	n	78
169703	1842445	I will add this to the folder and let you know when we get into it.	I will add this to the folder and let you know when we get into it.	87553154	1474214129207	1474214129300	t	84
169703	1842445	I will add this to the folder and let you know when we get into it.	I will add this to the folder and let you know when we get into it.	87553155	1474214129294	1474214129376	o	79
169703	1842445	I will add this to the folder and let you know when we get into it.	I will add this to the folder and let you know when we get into it.	87553156	1474214129392	1474214129500	 	32
169703	1842445	I will add this to the folder and let you know when we get into it.	I will add this to the folder and let you know when we get into it.	87553157	1474214129473	1474214129574	i	73
169703	1842445	I will add this to the folder and let you know when we get into it.	I will add this to the folder and let you know when we get into it.	87553158	1474214129544	1474214129646	t	84
169703	1842445	I will add this to the folder and let you know when we get into it.	I will add this to the folder and let you know when we get into it.	87553159	1474214129688	1474214129759	.	190
169703	1842449	I was going to call you but I hate to bother your holiday.	I was going to call you but I hate to bother your holiday.	87553179	1474214131144	1474214131584	SHIFT	16
169703	1842449	I was going to call you but I hate to bother your holiday.	I was going to call you but I hate to bother your holiday.	87553181	1474214131476	1474214131585	I	73
169703	1842449	I was going to call you but I hate to bother your holiday.	I was going to call you but I hate to bother your holiday.	87553182	1474214131554	1474214131689	 	32
169703	1842449	I was going to call you but I hate to bother your holiday.	I was going to call you but I hate to bother your holiday.	87553183	1474214131675	1474214131758	w	87
169703	1842449	I was going to call you but I hate to bother your holiday.	I was going to call you but I hate to bother your holiday.	87553184	1474214131818	1474214131951	a	65
169703	1842449	I was going to call you but I hate to bother your holiday.	I was going to call you but I hate to bother your holiday.	87553190	1474214131893	1474214131997	s	83
169703	1842449	I was going to call you but I hate to bother your holiday.	I was going to call you but I hate to bother your holiday.	87553191	1474214131973	1474214132057	 	32
169703	1842449	I was going to call you but I hate to bother your holiday.	I was going to call you but I hate to bother your holiday.	87553192	1474214132079	1474214132165	g	71
169703	1842449	I was going to call you but I hate to bother your holiday.	I was going to call you but I hate to bother your holiday.	87553193	1474214132124	1474214132200	o	79
169703	1842449	I was going to call you but I hate to bother your holiday.	I was going to call you but I hate to bother your holiday.	87553194	1474214132382	1474214132491	n	78
169703	1842449	I was going to call you but I hate to bother your holiday.	I was going to call you but I hate to bother your holiday.	87553195	1474214132581	1474214132676	g	71
169703	1842449	I was going to call you but I hate to bother your holiday.	I was going to call you but I hate to bother your holiday.	87553206	1474214132866	1474214132927	BKSP	8
169703	1842449	I was going to call you but I hate to bother your holiday.	I was going to call you but I hate to bother your holiday.	87553207	1474214132993	1474214133062	BKSP	8
169703	1842449	I was going to call you but I hate to bother your holiday.	I was going to call you but I hate to bother your holiday.	87553208	1474214133125	1474214133195	i	73
169703	1842449	I was going to call you but I hate to bother your holiday.	I was going to call you but I hate to bother your holiday.	87553209	1474214133260	1474214133331	n	78
169703	1842449	I was going to call you but I hate to bother your holiday.	I was going to call you but I hate to bother your holiday.	87553210	1474214133331	1474214133432	g	71
169703	1842449	I was going to call you but I hate to bother your holiday.	I was going to call you but I hate to bother your holiday.	87553211	1474214133409	1474214133518	 	32
169703	1842449	I was going to call you but I hate to bother your holiday.	I was going to call you but I hate to bother your holiday.	87553212	1474214133530	1474214133613	t	84
169703	1842449	I was going to call you but I hate to bother your holiday.	I was going to call you but I hate to bother your holiday.	87553213	1474214133595	1474214133687	o	79
169703	1842449	I was going to call you but I hate to bother your holiday.	I was going to call you but I hate to bother your holiday.	87553214	1474214133640	1474214133750	 	32
169703	1842449	I was going to call you but I hate to bother your holiday.	I was going to call you but I hate to bother your holiday.	87553215	1474214133714	1474214133795	c	67
169703	1842449	I was going to call you but I hate to bother your holiday.	I was going to call you but I hate to bother your holiday.	87553218	1474214133848	1474214133960	a	65
169703	1842449	I was going to call you but I hate to bother your holiday.	I was going to call you but I hate to bother your holiday.	87553216	1474214133888	1474214133950	l	76
169703	1842449	I was going to call you but I hate to bother your holiday.	I was going to call you but I hate to bother your holiday.	87553220	1474214134017	1474214134114	l	76
169703	1842449	I was going to call you but I hate to bother your holiday.	I was going to call you but I hate to bother your holiday.	87553224	1474214134078	1474214134162	 	32
169703	1842449	I was going to call you but I hate to bother your holiday.	I was going to call you but I hate to bother your holiday.	87553225	1474214134124	1474214134217	y	89
169703	1842449	I was going to call you but I hate to bother your holiday.	I was going to call you but I hate to bother your holiday.	87553226	1474214134198	1474214134263	p	79
169703	1842449	I was going to call you but I hate to bother your holiday.	I was going to call you but I hate to bother your holiday.	87553227	1474214134359	1474214134466	u	85
169703	1842449	I was going to call you but I hate to bother your holiday.	I was going to call you but I hate to bother your holiday.	87553228	1474214134490	1474214134596	 	32
169703	1842449	I was going to call you but I hate to bother your holiday.	I was going to call you but I hate to bother your holiday.	87553253	1474214134634	1474214134724	b	66
169703	1842449	I was going to call you but I hate to bother your holiday.	I was going to call you but I hate to bother your holiday.	87553255	1474214134857	1474214134923	BKSP	8
169703	1842449	I was going to call you but I hate to bother your holiday.	I was going to call you but I hate to bother your holiday.	87553256	1474214134983	1474214135040	BKSP	8
169703	1842449	I was going to call you but I hate to bother your holiday.	I was going to call you but I hate to bother your holiday.	87553257	1474214135102	1474214135164	BKSP	8
169703	1842449	I was going to call you but I hate to bother your holiday.	I was going to call you but I hate to bother your holiday.	87553258	1474214135231	1474214135304	BKSP	8
169703	1842449	I was going to call you but I hate to bother your holiday.	I was going to call you but I hate to bother your holiday.	87553259	1474214135419	1474214135524	u	85
169703	1842449	I was going to call you but I hate to bother your holiday.	I was going to call you but I hate to bother your holiday.	87553260	1474214135501	1474214135601	 	32
169703	1842449	I was going to call you but I hate to bother your holiday.	I was going to call you but I hate to bother your holiday.	87553261	1474214135563	1474214135652	b	66
169703	1842449	I was going to call you but I hate to bother your holiday.	I was going to call you but I hate to bother your holiday.	87553262	1474214135681	1474214135772	u	85
169703	1842449	I was going to call you but I hate to bother your holiday.	I was going to call you but I hate to bother your holiday.	87553263	1474214135750	1474214135839	t	84
169703	1842449	I was going to call you but I hate to bother your holiday.	I was going to call you but I hate to bother your holiday.	87553264	1474214135895	1474214135973	 	32
169703	1842449	I was going to call you but I hate to bother your holiday.	I was going to call you but I hate to bother your holiday.	87553266	1474214135928	1474214136188	SHIFT	16
169703	1842449	I was going to call you but I hate to bother your holiday.	I was going to call you but I hate to bother your holiday.	87553265	1474214136087	1474214136176	I	73
169703	1842449	I was going to call you but I hate to bother your holiday.	I was going to call you but I hate to bother your holiday.	87553268	1474214136188	1474214136310	 	32
169703	1842449	I was going to call you but I hate to bother your holiday.	I was going to call you but I hate to bother your holiday.	87553270	1474214136294	1474214136395	h	72
169703	1842449	I was going to call you but I hate to bother your holiday.	I was going to call you but I hate to bother your holiday.	87553275	1474214136357	1474214136427	a	65
169703	1842449	I was going to call you but I hate to bother your holiday.	I was going to call you but I hate to bother your holiday.	87553276	1474214136633	1474214136713	t	84
169703	1842449	I was going to call you but I hate to bother your holiday.	I was going to call you but I hate to bother your holiday.	87553277	1474214136795	1474214136863	e	69
169703	1842449	I was going to call you but I hate to bother your holiday.	I was going to call you but I hate to bother your holiday.	87553278	1474214136844	1474214136929	 	32
169703	1842449	I was going to call you but I hate to bother your holiday.	I was going to call you but I hate to bother your holiday.	87553279	1474214136952	1474214137029	t	84
169703	1842449	I was going to call you but I hate to bother your holiday.	I was going to call you but I hate to bother your holiday.	87553280	1474214137009	1474214137089	o	79
169703	1842449	I was going to call you but I hate to bother your holiday.	I was going to call you but I hate to bother your holiday.	87553281	1474214137050	1474214137140	 	32
169703	1842449	I was going to call you but I hate to bother your holiday.	I was going to call you but I hate to bother your holiday.	87553282	1474214137132	1474214137213	b	66
169703	1842449	I was going to call you but I hate to bother your holiday.	I was going to call you but I hate to bother your holiday.	87553284	1474214137186	1474214137263	o	79
169703	1842449	I was going to call you but I hate to bother your holiday.	I was going to call you but I hate to bother your holiday.	87553286	1474214137305	1474214137379	t	84
169703	1842449	I was going to call you but I hate to bother your holiday.	I was going to call you but I hate to bother your holiday.	87553296	1474214137366	1474214137467	h	72
169703	1842449	I was going to call you but I hate to bother your holiday.	I was going to call you but I hate to bother your holiday.	87553299	1474214137479	1474214137589	e	69
169703	1842449	I was going to call you but I hate to bother your holiday.	I was going to call you but I hate to bother your holiday.	87553303	1474214137537	1474214137631	r	82
169703	1842449	I was going to call you but I hate to bother your holiday.	I was going to call you but I hate to bother your holiday.	87553305	1474214137629	1474214137733	 	32
169703	1842449	I was going to call you but I hate to bother your holiday.	I was going to call you but I hate to bother your holiday.	87553307	1474214137720	1474214137816	y	89
169703	1842449	I was going to call you but I hate to bother your holiday.	I was going to call you but I hate to bother your holiday.	87553314	1474214137804	1474214137869	o	79
169703	1842449	I was going to call you but I hate to bother your holiday.	I was going to call you but I hate to bother your holiday.	87553316	1474214137925	1474214138019	u	85
169703	1842449	I was going to call you but I hate to bother your holiday.	I was going to call you but I hate to bother your holiday.	87553317	1474214137990	1474214138066	r	82
169703	1842449	I was going to call you but I hate to bother your holiday.	I was going to call you but I hate to bother your holiday.	87553318	1474214138065	1474214138138	 	32
169703	1842449	I was going to call you but I hate to bother your holiday.	I was going to call you but I hate to bother your holiday.	87553319	1474214138157	1474214138253	h	72
169703	1842449	I was going to call you but I hate to bother your holiday.	I was going to call you but I hate to bother your holiday.	87553320	1474214138218	1474214138295	o	79
169703	1842449	I was going to call you but I hate to bother your holiday.	I was going to call you but I hate to bother your holiday.	87553321	1474214138349	1474214138419	l	76
169703	1842449	I was going to call you but I hate to bother your holiday.	I was going to call you but I hate to bother your holiday.	87553322	1474214138487	1474214138576	i	73
169703	1842449	I was going to call you but I hate to bother your holiday.	I was going to call you but I hate to bother your holiday.	87553323	1474214138562	1474214138712	d	68
169703	1842449	I was going to call you but I hate to bother your holiday.	I was going to call you but I hate to bother your holiday.	87553324	1474214138751	1474214138869	a	65
169703	1842449	I was going to call you but I hate to bother your holiday.	I was going to call you but I hate to bother your holiday.	87553326	1474214138844	1474214138921	y	89
169703	1842449	I was going to call you but I hate to bother your holiday.	I was going to call you but I hate to bother your holiday.	87553328	1474214139046	1474214139118	.	190
169703	1842450	He did not return to the game, and is listed as day to day.	He did not return the game, and is listed as day to day	87553355	1474214140473	1474214140712	SHIFT	16
169703	1842450	He did not return to the game, and is listed as day to day.	He did not return the game, and is listed as day to day	87553356	1474214140622	1474214140713	H	72
169703	1842450	He did not return to the game, and is listed as day to day.	He did not return the game, and is listed as day to day	87553357	1474214140756	1474214140841	e	69
169703	1842450	He did not return to the game, and is listed as day to day.	He did not return the game, and is listed as day to day	87553359	1474214140835	1474214140929	 	32
169703	1842450	He did not return to the game, and is listed as day to day.	He did not return the game, and is listed as day to day	87553361	1474214140934	1474214141017	d	68
169703	1842450	He did not return to the game, and is listed as day to day.	He did not return the game, and is listed as day to day	87553375	1474214141012	1474214141084	i	73
169703	1842450	He did not return to the game, and is listed as day to day.	He did not return the game, and is listed as day to day	87553376	1474214141081	1474214141161	d	68
169703	1842450	He did not return to the game, and is listed as day to day.	He did not return the game, and is listed as day to day	87553377	1474214141184	1474214141249	n	78
169703	1842450	He did not return to the game, and is listed as day to day.	He did not return the game, and is listed as day to day	87553378	1474214141486	1474214141545	BKSP	8
169703	1842450	He did not return to the game, and is listed as day to day.	He did not return the game, and is listed as day to day	87553379	1474214141587	1474214141721	 	32
169703	1842450	He did not return to the game, and is listed as day to day.	He did not return the game, and is listed as day to day	87553380	1474214141691	1474214141763	n	78
169703	1842450	He did not return to the game, and is listed as day to day.	He did not return the game, and is listed as day to day	87553381	1474214141838	1474214141926	o	79
169703	1842450	He did not return to the game, and is listed as day to day.	He did not return the game, and is listed as day to day	87553382	1474214141905	1474214141986	t	84
169703	1842450	He did not return to the game, and is listed as day to day.	He did not return the game, and is listed as day to day	87553383	1474214141970	1474214142083	 	32
169703	1842450	He did not return to the game, and is listed as day to day.	He did not return the game, and is listed as day to day	87553384	1474214142062	1474214142150	r	82
169703	1842450	He did not return to the game, and is listed as day to day.	He did not return the game, and is listed as day to day	87553385	1474214142203	1474214142271	e	69
169703	1842450	He did not return to the game, and is listed as day to day.	He did not return the game, and is listed as day to day	87553386	1474214142331	1474214142434	u	85
169703	1842450	He did not return to the game, and is listed as day to day.	He did not return the game, and is listed as day to day	87553404	1474214142386	1474214142521	t	84
169703	1842450	He did not return to the game, and is listed as day to day.	He did not return the game, and is listed as day to day	87553406	1474214142562	1474214142660	n	78
169703	1842450	He did not return to the game, and is listed as day to day.	He did not return the game, and is listed as day to day	87553409	1474214142861	1474214142918	BKSP	8
169703	1842450	He did not return to the game, and is listed as day to day.	He did not return the game, and is listed as day to day	87553412	1474214142985	1474214143046	BKSP	8
169703	1842450	He did not return to the game, and is listed as day to day.	He did not return the game, and is listed as day to day	87553415	1474214143114	1474214143185	BKSP	8
169703	1842450	He did not return to the game, and is listed as day to day.	He did not return the game, and is listed as day to day	87553418	1474214143236	1474214143329	t	84
169703	1842450	He did not return to the game, and is listed as day to day.	He did not return the game, and is listed as day to day	87553419	1474214143317	1474214143400	u	85
169703	1842450	He did not return to the game, and is listed as day to day.	He did not return the game, and is listed as day to day	87553420	1474214143466	1474214143560	n	78
169703	1842450	He did not return to the game, and is listed as day to day.	He did not return the game, and is listed as day to day	87553421	1474214143612	1474214143694	 	32
169703	1842450	He did not return to the game, and is listed as day to day.	He did not return the game, and is listed as day to day	87553429	1474214144052	1474214144119	BKSP	8
169703	1842450	He did not return to the game, and is listed as day to day.	He did not return the game, and is listed as day to day	87553430	1474214144179	1474214144265	BKSP	8
169703	1842450	He did not return to the game, and is listed as day to day.	He did not return the game, and is listed as day to day	87553431	1474214144311	1474214144400	r	82
169703	1842450	He did not return to the game, and is listed as day to day.	He did not return the game, and is listed as day to day	87553432	1474214144393	1474214144481	n	78
169703	1842450	He did not return to the game, and is listed as day to day.	He did not return the game, and is listed as day to day	87553433	1474214144491	1474214144582	 	32
169703	1842450	He did not return to the game, and is listed as day to day.	He did not return the game, and is listed as day to day	87553434	1474214144536	1474214144632	t	84
169703	1842450	He did not return to the game, and is listed as day to day.	He did not return the game, and is listed as day to day	87553435	1474214144633	1474214144730	h	72
169703	1842450	He did not return to the game, and is listed as day to day.	He did not return the game, and is listed as day to day	87553446	1474214144727	1474214144802	e	69
169703	1842450	He did not return to the game, and is listed as day to day.	He did not return the game, and is listed as day to day	87553447	1474214144788	1474214144882	 	32
169703	1842450	He did not return to the game, and is listed as day to day.	He did not return the game, and is listed as day to day	87553448	1474214144890	1474214144956	g	71
169703	1842450	He did not return to the game, and is listed as day to day.	He did not return the game, and is listed as day to day	87553449	1474214145012	1474214145112	a	65
169703	1842450	He did not return to the game, and is listed as day to day.	He did not return the game, and is listed as day to day	87553450	1474214145096	1474214145182	m	77
169703	1842450	He did not return to the game, and is listed as day to day.	He did not return the game, and is listed as day to day	87553461	1474214145163	1474214145259	e	69
169703	1842450	He did not return to the game, and is listed as day to day.	He did not return the game, and is listed as day to day	87553462	1474214145296	1474214145369	,	188
169703	1842450	He did not return to the game, and is listed as day to day.	He did not return the game, and is listed as day to day	87553463	1474214145402	1474214145509	 	32
169703	1842450	He did not return to the game, and is listed as day to day.	He did not return the game, and is listed as day to day	87553464	1474214145616	1474214145724	a	65
169703	1842450	He did not return to the game, and is listed as day to day.	He did not return the game, and is listed as day to day	87553465	1474214145688	1474214145788	n	78
169703	1842450	He did not return to the game, and is listed as day to day.	He did not return the game, and is listed as day to day	87553470	1474214145787	1474214145881	d	68
169703	1842450	He did not return to the game, and is listed as day to day.	He did not return the game, and is listed as day to day	87553471	1474214145857	1474214145953	 	32
169703	1842450	He did not return to the game, and is listed as day to day.	He did not return the game, and is listed as day to day	87553472	1474214145956	1474214146046	i	73
169703	1842450	He did not return to the game, and is listed as day to day.	He did not return the game, and is listed as day to day	87553473	1474214146049	1474214146143	s	83
169703	1842450	He did not return to the game, and is listed as day to day.	He did not return the game, and is listed as day to day	87553474	1474214146097	1474214146188	 	32
169703	1842450	He did not return to the game, and is listed as day to day.	He did not return the game, and is listed as day to day	87553476	1474214146162	1474214146223	l	76
169703	1842450	He did not return to the game, and is listed as day to day.	He did not return the game, and is listed as day to day	87553478	1474214146287	1474214146391	i	73
169703	1842450	He did not return to the game, and is listed as day to day.	He did not return the game, and is listed as day to day	87553480	1474214146319	1474214146400	s	83
169703	1842450	He did not return to the game, and is listed as day to day.	He did not return the game, and is listed as day to day	87553482	1474214146477	1474214146553	t	84
169703	1842450	He did not return to the game, and is listed as day to day.	He did not return the game, and is listed as day to day	87553484	1474214146621	1474214146692	e	69
169703	1842450	He did not return to the game, and is listed as day to day.	He did not return the game, and is listed as day to day	87553485	1474214146753	1474214146834	d	68
169703	1842450	He did not return to the game, and is listed as day to day.	He did not return the game, and is listed as day to day	87553486	1474214146839	1474214146932	 	32
169703	1842450	He did not return to the game, and is listed as day to day.	He did not return the game, and is listed as day to day	87553487	1474214146954	1474214147090	a	65
169703	1842450	He did not return to the game, and is listed as day to day.	He did not return the game, and is listed as day to day	87553488	1474214147038	1474214147144	s	83
169703	1842450	He did not return to the game, and is listed as day to day.	He did not return the game, and is listed as day to day	87553489	1474214147126	1474214147218	 	32
169703	1842450	He did not return to the game, and is listed as day to day.	He did not return the game, and is listed as day to day	87553490	1474214147251	1474214147313	f	70
169703	1842450	He did not return to the game, and is listed as day to day.	He did not return the game, and is listed as day to day	87553499	1474214147559	1474214147625	BKSP	8
169703	1842450	He did not return to the game, and is listed as day to day.	He did not return the game, and is listed as day to day	87553500	1474214147654	1474214147758	d	68
169703	1842450	He did not return to the game, and is listed as day to day.	He did not return the game, and is listed as day to day	87553501	1474214147759	1474214147867	a	65
169703	1842450	He did not return to the game, and is listed as day to day.	He did not return the game, and is listed as day to day	87553502	1474214147782	1474214147902	y	89
169703	1842450	He did not return to the game, and is listed as day to day.	He did not return the game, and is listed as day to day	87553503	1474214147858	1474214147961	 	32
169703	1842450	He did not return to the game, and is listed as day to day.	He did not return the game, and is listed as day to day	87553504	1474214147942	1474214148040	t	84
169703	1842450	He did not return to the game, and is listed as day to day.	He did not return the game, and is listed as day to day	87553505	1474214148024	1474214148132	o	79
169703	1842450	He did not return to the game, and is listed as day to day.	He did not return the game, and is listed as day to day	87553506	1474214148093	1474214148184	 	32
169703	1842450	He did not return to the game, and is listed as day to day.	He did not return the game, and is listed as day to day	87553507	1474214148139	1474214148232	d	68
169703	1842450	He did not return to the game, and is listed as day to day.	He did not return the game, and is listed as day to day	87553508	1474214148242	1474214148357	a	65
169703	1842450	He did not return to the game, and is listed as day to day.	He did not return the game, and is listed as day to day	87553509	1474214148280	1474214148366	y	89
169703	1842454	I have an electric knife.	I have an electric knife.	87553528	1474214149676	1474214149944	SHIFT	16
169703	1842454	I have an electric knife.	I have an electric knife.	87553530	1474214149841	1474214149964	I	73
169703	1842454	I have an electric knife.	I have an electric knife.	87553532	1474214149917	1474214150037	 	32
169703	1842454	I have an electric knife.	I have an electric knife.	87553534	1474214150098	1474214150223	h	72
169703	1842454	I have an electric knife.	I have an electric knife.	87553536	1474214150204	1474214150298	a	65
169703	1842454	I have an electric knife.	I have an electric knife.	87553537	1474214150346	1474214150400	v	86
169703	1842454	I have an electric knife.	I have an electric knife.	87553538	1474214150487	1474214150561	e	69
169703	1842454	I have an electric knife.	I have an electric knife.	87553540	1474214150565	1474214150650	 	32
169703	1842454	I have an electric knife.	I have an electric knife.	87553542	1474214150652	1474214150770	a	65
169703	1842454	I have an electric knife.	I have an electric knife.	87553544	1474214150718	1474214150823	n	78
169703	1842454	I have an electric knife.	I have an electric knife.	87553553	1474214150775	1474214150874	 	32
169703	1842454	I have an electric knife.	I have an electric knife.	87553554	1474214150852	1474214150934	e	69
169703	1842454	I have an electric knife.	I have an electric knife.	87553555	1474214150971	1474214151056	l	76
169703	1842454	I have an electric knife.	I have an electric knife.	87553556	1474214151028	1474214151116	e	69
169703	1842454	I have an electric knife.	I have an electric knife.	87553557	1474214151187	1474214151250	c	67
169703	1842454	I have an electric knife.	I have an electric knife.	87553558	1474214151337	1474214151413	t	84
169703	1842454	I have an electric knife.	I have an electric knife.	87553564	1474214151462	1474214151536	r	82
169703	1842454	I have an electric knife.	I have an electric knife.	87553565	1474214151528	1474214151633	i	73
169703	1842454	I have an electric knife.	I have an electric knife.	87553566	1474214151630	1474214151723	c	67
169703	1842454	I have an electric knife.	I have an electric knife.	87553567	1474214151708	1474214151820	 	32
169703	1842454	I have an electric knife.	I have an electric knife.	87553568	1474214151814	1474214151969	SHIFT	16
169703	1842454	I have an electric knife.	I have an electric knife.	87553575	1474214151917	1474214151988	K	75
169703	1842454	I have an electric knife.	I have an electric knife.	87553576	1474214152062	1474214152127	n	78
169703	1842454	I have an electric knife.	I have an electric knife.	87553577	1474214152203	1474214152293	i	73
169703	1842454	I have an electric knife.	I have an electric knife.	87553578	1474214152244	1474214152307	f	70
169703	1842454	I have an electric knife.	I have an electric knife.	87553579	1474214152375	1474214152474	e	69
169703	1842454	I have an electric knife.	I have an electric knife.	87553581	1474214152588	1474214152658	.	190
169703	1842454	I have an electric knife.	I have an electric knife.	87553591	1474214152786	1474214152851	BKSP	8
169703	1842454	I have an electric knife.	I have an electric knife.	87553592	1474214152914	1474214152975	BKSP	8
169703	1842454	I have an electric knife.	I have an electric knife.	87553593	1474214153034	1474214153099	BKSP	8
169703	1842454	I have an electric knife.	I have an electric knife.	87553594	1474214153166	1474214153226	BKSP	8
169703	1842454	I have an electric knife.	I have an electric knife.	87553595	1474214153297	1474214153358	BKSP	8
169703	1842454	I have an electric knife.	I have an electric knife.	87553596	1474214153425	1474214153502	BKSP	8
169703	1842454	I have an electric knife.	I have an electric knife.	87553597	1474214153598	1474214153673	k	75
169703	1842454	I have an electric knife.	I have an electric knife.	87553599	1474214153752	1474214153812	n	78
169703	1842454	I have an electric knife.	I have an electric knife.	87553600	1474214153891	1474214153965	i	73
169703	1842454	I have an electric knife.	I have an electric knife.	87553601	1474214153936	1474214153997	f	70
169703	1842454	I have an electric knife.	I have an electric knife.	87553603	1474214154064	1474214154153	e	69
169703	1842454	I have an electric knife.	I have an electric knife.	87553598	1474214154137	1474214154195	.	190
