PARTICIPANT_ID	TEST_SECTION_ID	SENTENCE	USER_INPUT	KEYSTROKE_ID	PRESS_TIME	RELEASE_TIME	LETTER	KEYCODE
171850	1867944	Don't bother to start him.	Don't bother to start him.	88763996	1474253783411	1474253784049	SHIFT	16
171850	1867944	Don't bother to start him.	Don't bother to start him.	88763995	1474253783854	1474253783975	D	68
171850	1867944	Don't bother to start him.	Don't bother to start him.	88763997	1474253784213	1474253784298	o	79
171850	1867944	Don't bother to start him.	Don't bother to start him.	88763998	1474253784373	1474253784449	n	78
171850	1867944	Don't bother to start him.	Don't bother to start him.	88763999	1474253785532	1474253785626	'	222
171850	1867944	Don't bother to start him.	Don't bother to start him.	88764000	1474253785727	1474253785806	t	84
171850	1867944	Don't bother to start him.	Don't bother to start him.	88764013	1474253785965	1474253786077	 	32
171850	1867944	Don't bother to start him.	Don't bother to start him.	88764017	1474253786320	1474253786396	b	66
171850	1867944	Don't bother to start him.	Don't bother to start him.	88764019	1474253786537	1474253786636	o	79
171850	1867944	Don't bother to start him.	Don't bother to start him.	88764021	1474253786625	1474253786717	t	84
171850	1867944	Don't bother to start him.	Don't bother to start him.	88764047	1474253786707	1474253786795	h	72
171850	1867944	Don't bother to start him.	Don't bother to start him.	88764050	1474253786818	1474253786963	e	69
171850	1867944	Don't bother to start him.	Don't bother to start him.	88764054	1474253786910	1474253787051	r	82
171850	1867944	Don't bother to start him.	Don't bother to start him.	88764058	1474253787000	1474253787102	 	32
171850	1867944	Don't bother to start him.	Don't bother to start him.	88764062	1474253787308	1474253787428	t	84
171850	1867944	Don't bother to start him.	Don't bother to start him.	88764111	1474253787418	1474253787590	o	79
171850	1867944	Don't bother to start him.	Don't bother to start him.	88764114	1474253787871	1474253787994	 	32
171850	1867944	Don't bother to start him.	Don't bother to start him.	88764117	1474253788125	1474253788231	s	83
171850	1867944	Don't bother to start him.	Don't bother to start him.	88764119	1474253788348	1474253788437	t	84
171850	1867944	Don't bother to start him.	Don't bother to start him.	88764124	1474253788506	1474253788679	a	65
171850	1867944	Don't bother to start him.	Don't bother to start him.	88764156	1474253788638	1474253788756	r	82
171850	1867944	Don't bother to start him.	Don't bother to start him.	88764157	1474253788843	1474253788941	t	84
171850	1867944	Don't bother to start him.	Don't bother to start him.	88764158	1474253788929	1474253789029	 	32
171850	1867944	Don't bother to start him.	Don't bother to start him.	88764161	1474253789078	1474253789180	h	72
171850	1867944	Don't bother to start him.	Don't bother to start him.	88764167	1474253789243	1474253789329	i	73
171850	1867944	Don't bother to start him.	Don't bother to start him.	88764172	1474253789547	1474253789627	m	77
171850	1867944	Don't bother to start him.	Don't bother to start him.	88764239	1474253790311	1474253790411	.	190
171850	1867956	Don't use Bennett this week.	Don't use Bennett this week.	88764387	1474253791875	1474253792140	SHIFT	16
171850	1867956	Don't use Bennett this week.	Don't use Bennett this week.	88764393	1474253792949	1474253793605	SHIFT	16
171850	1867956	Don't use Bennett this week.	Don't use Bennett this week.	88764390	1474253793475	1474253793595	D	68
171850	1867956	Don't use Bennett this week.	Don't use Bennett this week.	88764396	1474253793656	1474253793728	o	79
171850	1867956	Don't use Bennett this week.	Don't use Bennett this week.	88764398	1474253793826	1474253793886	n	78
171850	1867956	Don't use Bennett this week.	Don't use Bennett this week.	88764401	1474253794353	1474253794444	'	222
171850	1867956	Don't use Bennett this week.	Don't use Bennett this week.	88764406	1474253794478	1474253794567	t	84
171850	1867956	Don't use Bennett this week.	Don't use Bennett this week.	88764415	1474253794597	1474253794709	 	32
171850	1867956	Don't use Bennett this week.	Don't use Bennett this week.	88764416	1474253794880	1474253794980	u	85
171850	1867956	Don't use Bennett this week.	Don't use Bennett this week.	88764419	1474253795008	1474253795111	s	83
171850	1867956	Don't use Bennett this week.	Don't use Bennett this week.	88764423	1474253795137	1474253795275	e	69
171850	1867956	Don't use Bennett this week.	Don't use Bennett this week.	88764463	1474253795265	1474253795364	 	32
171850	1867956	Don't use Bennett this week.	Don't use Bennett this week.	88764467	1474253795574	1474253795801	SHIFT	16
171850	1867956	Don't use Bennett this week.	Don't use Bennett this week.	88764465	1474253795707	1474253795785	B	66
171850	1867956	Don't use Bennett this week.	Don't use Bennett this week.	88764469	1474253795911	1474253796010	e	69
171850	1867956	Don't use Bennett this week.	Don't use Bennett this week.	88764471	1474253796018	1474253796074	n	78
171850	1867956	Don't use Bennett this week.	Don't use Bennett this week.	88764473	1474253796162	1474253796236	n	78
171850	1867956	Don't use Bennett this week.	Don't use Bennett this week.	88764478	1474253796441	1474253796557	e	69
171850	1867956	Don't use Bennett this week.	Don't use Bennett this week.	88764490	1474253796688	1474253796774	t	84
171850	1867956	Don't use Bennett this week.	Don't use Bennett this week.	88764493	1474253796845	1474253796924	t	84
171850	1867956	Don't use Bennett this week.	Don't use Bennett this week.	88764494	1474253796931	1474253797011	 	32
171850	1867956	Don't use Bennett this week.	Don't use Bennett this week.	88764495	1474253797028	1474253797112	t	84
171850	1867956	Don't use Bennett this week.	Don't use Bennett this week.	88764509	1474253797060	1474253797146	h	72
171850	1867956	Don't use Bennett this week.	Don't use Bennett this week.	88764512	1474253797193	1474253797339	i	73
171850	1867956	Don't use Bennett this week.	Don't use Bennett this week.	88764516	1474253797274	1474253797385	s	83
171850	1867956	Don't use Bennett this week.	Don't use Bennett this week.	88764518	1474253797348	1474253797456	 	32
171850	1867956	Don't use Bennett this week.	Don't use Bennett this week.	88764520	1474253797545	1474253797662	w	87
171850	1867956	Don't use Bennett this week.	Don't use Bennett this week.	88764522	1474253797669	1474253797761	e	69
171850	1867956	Don't use Bennett this week.	Don't use Bennett this week.	88764551	1474253797840	1474253797926	e	69
171850	1867956	Don't use Bennett this week.	Don't use Bennett this week.	88764553	1474253798055	1474253798134	k	75
171850	1867956	Don't use Bennett this week.	Don't use Bennett this week.	88764554	1474253798688	1474253798776	.	190
171850	1867963	Tried to call but couldn't reach you.	Tried to call but couldn't reach you.	88764685	1474253802471	1474253802772	SHIFT	16
171850	1867963	Tried to call but couldn't reach you.	Tried to call but couldn't reach you.	88764687	1474253802707	1474253802821	T	84
171850	1867963	Tried to call but couldn't reach you.	Tried to call but couldn't reach you.	88764689	1474253802933	1474253803027	r	82
171850	1867963	Tried to call but couldn't reach you.	Tried to call but couldn't reach you.	88764691	1474253803034	1474253803131	i	73
171850	1867963	Tried to call but couldn't reach you.	Tried to call but couldn't reach you.	88764694	1474253803106	1474253803221	e	69
171850	1867963	Tried to call but couldn't reach you.	Tried to call but couldn't reach you.	88764698	1474253803271	1474253803374	d	68
171850	1867963	Tried to call but couldn't reach you.	Tried to call but couldn't reach you.	88764716	1474253803347	1474253803441	 	32
171850	1867963	Tried to call but couldn't reach you.	Tried to call but couldn't reach you.	88764718	1474253803486	1474253803570	t	84
171850	1867963	Tried to call but couldn't reach you.	Tried to call but couldn't reach you.	88764722	1474253803523	1474253803656	o	79
171850	1867963	Tried to call but couldn't reach you.	Tried to call but couldn't reach you.	88764724	1474253803600	1474253803709	 	32
171850	1867963	Tried to call but couldn't reach you.	Tried to call but couldn't reach you.	88764726	1474253803772	1474253803880	c	67
171850	1867963	Tried to call but couldn't reach you.	Tried to call but couldn't reach you.	88764728	1474253803994	1474253804093	a	65
171850	1867963	Tried to call but couldn't reach you.	Tried to call but couldn't reach you.	88764736	1474253804076	1474253804127	l	76
171850	1867963	Tried to call but couldn't reach you.	Tried to call but couldn't reach you.	88764737	1474253804199	1474253804285	l	76
171850	1867963	Tried to call but couldn't reach you.	Tried to call but couldn't reach you.	88764739	1474253804297	1474253804415	 	32
171850	1867963	Tried to call but couldn't reach you.	Tried to call but couldn't reach you.	88764741	1474253804405	1474253804491	b	66
171850	1867963	Tried to call but couldn't reach you.	Tried to call but couldn't reach you.	88764744	1474253804539	1474253804628	u	85
171850	1867963	Tried to call but couldn't reach you.	Tried to call but couldn't reach you.	88764746	1474253804636	1474253804700	t	84
171850	1867963	Tried to call but couldn't reach you.	Tried to call but couldn't reach you.	88764763	1474253804714	1474253804813	 	32
171850	1867963	Tried to call but couldn't reach you.	Tried to call but couldn't reach you.	88764764	1474253805069	1474253805166	c	67
171850	1867963	Tried to call but couldn't reach you.	Tried to call but couldn't reach you.	88764765	1474253805155	1474253805222	o	79
171850	1867963	Tried to call but couldn't reach you.	Tried to call but couldn't reach you.	88764766	1474253805272	1474253805348	u	85
171850	1867963	Tried to call but couldn't reach you.	Tried to call but couldn't reach you.	88764767	1474253805447	1474253805529	l	76
171850	1867963	Tried to call but couldn't reach you.	Tried to call but couldn't reach you.	88764795	1474253805568	1474253805671	d	68
171850	1867963	Tried to call but couldn't reach you.	Tried to call but couldn't reach you.	88764796	1474253805772	1474253805836	m	77
171850	1867963	Tried to call but couldn't reach you.	Tried to call but couldn't reach you.	88764797	1474253806649	1474253806725	'	222
171850	1867963	Tried to call but couldn't reach you.	Tried to call but couldn't reach you.	88764798	1474253806732	1474253806811	t	84
171850	1867963	Tried to call but couldn't reach you.	Tried to call but couldn't reach you.	88764799	1474253806861	1474253806946	 	32
171850	1867963	Tried to call but couldn't reach you.	Tried to call but couldn't reach you.	88764841	1474253807229	1474253807284	BKSP	8
171850	1867963	Tried to call but couldn't reach you.	Tried to call but couldn't reach you.	88764842	1474253807367	1474253807430	BKSP	8
171850	1867963	Tried to call but couldn't reach you.	Tried to call but couldn't reach you.	88764843	1474253807509	1474253807556	BKSP	8
171850	1867963	Tried to call but couldn't reach you.	Tried to call but couldn't reach you.	88764844	1474253807651	1474253807733	BKSP	8
171850	1867963	Tried to call but couldn't reach you.	Tried to call but couldn't reach you.	88764845	1474253808155	1474253808221	n	78
171850	1867963	Tried to call but couldn't reach you.	Tried to call but couldn't reach you.	88764846	1474253808667	1474253808737	'	222
171850	1867963	Tried to call but couldn't reach you.	Tried to call but couldn't reach you.	88764847	1474253808760	1474253808825	t	84
171850	1867963	Tried to call but couldn't reach you.	Tried to call but couldn't reach you.	88764848	1474253808839	1474253808945	 	32
171850	1867963	Tried to call but couldn't reach you.	Tried to call but couldn't reach you.	88764849	1474253808960	1474253809127	r	82
171850	1867963	Tried to call but couldn't reach you.	Tried to call but couldn't reach you.	88764859	1474253809093	1474253809246	e	69
171850	1867963	Tried to call but couldn't reach you.	Tried to call but couldn't reach you.	88764861	1474253809382	1474253809513	a	65
171850	1867963	Tried to call but couldn't reach you.	Tried to call but couldn't reach you.	88764864	1474253809553	1474253809664	c	67
171850	1867963	Tried to call but couldn't reach you.	Tried to call but couldn't reach you.	88764865	1474253809650	1474253809777	h	72
171850	1867963	Tried to call but couldn't reach you.	Tried to call but couldn't reach you.	88764866	1474253809723	1474253809821	 	32
171850	1867963	Tried to call but couldn't reach you.	Tried to call but couldn't reach you.	88764867	1474253809933	1474253810011	y	89
171850	1867963	Tried to call but couldn't reach you.	Tried to call but couldn't reach you.	88764875	1474253810018	1474253810067	o	79
171850	1867963	Tried to call but couldn't reach you.	Tried to call but couldn't reach you.	88764876	1474253810076	1474253810193	u	85
171850	1867963	Tried to call but couldn't reach you.	Tried to call but couldn't reach you.	88764877	1474253810786	1474253810855	.	190
171850	1867974	That must be a lot in kilometers.	That must be a lot in kilometers	88764960	1474253813665	1474253813986	SHIFT	16
171850	1867974	That must be a lot in kilometers.	That must be a lot in kilometers	88764961	1474253813934	1474253814063	T	84
171850	1867974	That must be a lot in kilometers.	That must be a lot in kilometers	88764962	1474253814070	1474253814159	h	72
171850	1867974	That must be a lot in kilometers.	That must be a lot in kilometers	88764963	1474253814235	1474253814329	a	65
171850	1867974	That must be a lot in kilometers.	That must be a lot in kilometers	88764965	1474253814316	1474253814421	t	84
171850	1867974	That must be a lot in kilometers.	That must be a lot in kilometers	88764968	1474253814592	1474253814683	 	32
171850	1867974	That must be a lot in kilometers.	That must be a lot in kilometers	88764998	1474253814791	1474253814881	m	77
171850	1867974	That must be a lot in kilometers.	That must be a lot in kilometers	88765001	1474253814974	1474253815074	u	85
171850	1867974	That must be a lot in kilometers.	That must be a lot in kilometers	88765004	1474253815060	1474253815143	s	83
171850	1867974	That must be a lot in kilometers.	That must be a lot in kilometers	88765009	1474253815222	1474253815288	b	66
171850	1867974	That must be a lot in kilometers.	That must be a lot in kilometers	88765012	1474253815517	1474253815617	BKSP	8
171850	1867974	That must be a lot in kilometers.	That must be a lot in kilometers	88765045	1474253815599	1474253815690	t	84
171850	1867974	That must be a lot in kilometers.	That must be a lot in kilometers	88765050	1474253815670	1474253815751	 	32
171850	1867974	That must be a lot in kilometers.	That must be a lot in kilometers	88765054	1474253815792	1474253815890	b	66
171850	1867974	That must be a lot in kilometers.	That must be a lot in kilometers	88765057	1474253815876	1474253815982	e	69
171850	1867974	That must be a lot in kilometers.	That must be a lot in kilometers	88765060	1474253816217	1474253816315	 	32
171850	1867974	That must be a lot in kilometers.	That must be a lot in kilometers	88765063	1474253816757	1474253816877	a	65
171850	1867974	That must be a lot in kilometers.	That must be a lot in kilometers	88765087	1474253816861	1474253816961	 	32
171850	1867974	That must be a lot in kilometers.	That must be a lot in kilometers	88765089	1474253817053	1474253817116	l	76
171850	1867974	That must be a lot in kilometers.	That must be a lot in kilometers	88765090	1474253817273	1474253817364	o	79
171850	1867974	That must be a lot in kilometers.	That must be a lot in kilometers	88765091	1474253817353	1474253817464	t	84
171850	1867974	That must be a lot in kilometers.	That must be a lot in kilometers	88765092	1474253817472	1474253817555	 	32
171850	1867974	That must be a lot in kilometers.	That must be a lot in kilometers	88765094	1474253817620	1474253817738	o	79
171850	1867974	That must be a lot in kilometers.	That must be a lot in kilometers	88765140	1474253817797	1474253817893	f	70
171850	1867974	That must be a lot in kilometers.	That must be a lot in kilometers	88765142	1474253818162	1474253818235	BKSP	8
171850	1867974	That must be a lot in kilometers.	That must be a lot in kilometers	88765144	1474253818324	1474253818383	BKSP	8
171850	1867974	That must be a lot in kilometers.	That must be a lot in kilometers	88765145	1474253818509	1474253818578	i	73
171850	1867974	That must be a lot in kilometers.	That must be a lot in kilometers	88765146	1474253818763	1474253818887	n	78
171850	1867974	That must be a lot in kilometers.	That must be a lot in kilometers	88765149	1474253818875	1474253818977	 	32
171850	1867974	That must be a lot in kilometers.	That must be a lot in kilometers	88765152	1474253819277	1474253819359	k	75
171850	1867974	That must be a lot in kilometers.	That must be a lot in kilometers	88765184	1474253819413	1474253819496	i	73
171850	1867974	That must be a lot in kilometers.	That must be a lot in kilometers	88765186	1474253819581	1474253819634	l	76
171850	1867974	That must be a lot in kilometers.	That must be a lot in kilometers	88765189	1474253819719	1474253819791	o	79
171850	1867974	That must be a lot in kilometers.	That must be a lot in kilometers	88765191	1474253819917	1474253819968	n	78
171850	1867974	That must be a lot in kilometers.	That must be a lot in kilometers	88765193	1474253820408	1474253820479	BKSP	8
171850	1867974	That must be a lot in kilometers.	That must be a lot in kilometers	88765194	1474253820578	1474253820668	m	77
171850	1867974	That must be a lot in kilometers.	That must be a lot in kilometers	88765197	1474253820625	1474253820777	e	69
171850	1867974	That must be a lot in kilometers.	That must be a lot in kilometers	88765199	1474253820753	1474253820872	t	84
171850	1867974	That must be a lot in kilometers.	That must be a lot in kilometers	88765201	1474253820916	1474253821048	e	69
171850	1867974	That must be a lot in kilometers.	That must be a lot in kilometers	88765206	1474253821014	1474253821122	r	82
171850	1867979	We had a great time!	We had a great time!	88765312	1474253823567	1474253824152	SHIFT	16
171850	1867979	We had a great time!	We had a great time!	88765314	1474253824075	1474253824173	W	87
171850	1867979	We had a great time!	We had a great time!	88765317	1474253824454	1474253824564	e	69
171850	1867979	We had a great time!	We had a great time!	88765320	1474253824592	1474253824686	 	32
171850	1867979	We had a great time!	We had a great time!	88765323	1474253824694	1474253824806	h	72
171850	1867979	We had a great time!	We had a great time!	88765349	1474253824780	1474253824898	a	65
171850	1867979	We had a great time!	We had a great time!	88765352	1474253825246	1474253825336	d	68
171850	1867979	We had a great time!	We had a great time!	88765356	1474253825343	1474253825416	 	32
171850	1867979	We had a great time!	We had a great time!	88765359	1474253825424	1474253825523	a	65
171850	1867979	We had a great time!	We had a great time!	88765362	1474253825556	1474253825629	 	32
171850	1867979	We had a great time!	We had a great time!	88765365	1474253825668	1474253825793	g	71
171850	1867979	We had a great time!	We had a great time!	88765392	1474253825773	1474253825927	r	82
171850	1867979	We had a great time!	We had a great time!	88765393	1474253825916	1474253826023	e	69
171850	1867979	We had a great time!	We had a great time!	88765395	1474253826150	1474253826250	a	65
171850	1867979	We had a great time!	We had a great time!	88765396	1474253826339	1474253826369	r	82
171850	1867979	We had a great time!	We had a great time!	88765397	1474253826376	1474253826479	 	32
171850	1867979	We had a great time!	We had a great time!	88765398	1474253826692	1474253826760	BKSP	8
171850	1867979	We had a great time!	We had a great time!	88765399	1474253826828	1474253826905	BKSP	8
171850	1867979	We had a great time!	We had a great time!	88765437	1474253826892	1474253826975	t	84
171850	1867979	We had a great time!	We had a great time!	88765439	1474253826960	1474253827061	 	32
171850	1867979	We had a great time!	We had a great time!	88765442	1474253827125	1474253827220	i	73
171850	1867979	We had a great time!	We had a great time!	88765447	1474253827307	1474253827424	m	77
171850	1867979	We had a great time!	We had a great time!	88765451	1474253827489	1474253827544	e	69
171850	1867979	We had a great time!	We had a great time!	88765456	1474253827676	1474253827732	BKSP	8
171850	1867979	We had a great time!	We had a great time!	88765461	1474253827840	1474253827852	BKSP	8
171850	1867979	We had a great time!	We had a great time!	88765464	1474253827941	1474253827991	BKSP	8
171850	1867979	We had a great time!	We had a great time!	88765468	1474253828159	1474253828239	t	84
171850	1867979	We had a great time!	We had a great time!	88765494	1474253828247	1474253828320	i	73
171850	1867979	We had a great time!	We had a great time!	88765495	1474253828404	1474253828518	m	77
171850	1867979	We had a great time!	We had a great time!	88765499	1474253828443	1474253828527	e	69
171850	1867979	We had a great time!	We had a great time!	88765505	1474253828859	1474253829412	SHIFT	16
171850	1867979	We had a great time!	We had a great time!	88765503	1474253829258	1474253829391	!	49
171850	1867989	I am out of town until Friday.	I am out of town until Friday.	88765554	1474253831262	1474253831550	SHIFT	16
171850	1867989	I am out of town until Friday.	I am out of town until Friday.	88765559	1474253831478	1474253831619	I	73
171850	1867989	I am out of town until Friday.	I am out of town until Friday.	88765563	1474253831608	1474253831722	 	32
171850	1867989	I am out of town until Friday.	I am out of town until Friday.	88765567	1474253831703	1474253831785	a	65
171850	1867989	I am out of town until Friday.	I am out of town until Friday.	88765571	1474253831766	1474253831898	m	77
171850	1867989	I am out of town until Friday.	I am out of town until Friday.	88765605	1474253831878	1474253831995	 	32
171850	1867989	I am out of town until Friday.	I am out of town until Friday.	88765611	1474253832262	1474253832350	o	79
171850	1867989	I am out of town until Friday.	I am out of town until Friday.	88765617	1474253832438	1474253832517	u	85
171850	1867989	I am out of town until Friday.	I am out of town until Friday.	88765623	1474253832535	1474253832628	t	84
171850	1867989	I am out of town until Friday.	I am out of town until Friday.	88765629	1474253832606	1474253832699	 	32
171850	1867989	I am out of town until Friday.	I am out of town until Friday.	88765636	1474253832750	1474253832859	o	79
171850	1867989	I am out of town until Friday.	I am out of town until Friday.	88765668	1474253832830	1474253832956	f	70
171850	1867989	I am out of town until Friday.	I am out of town until Friday.	88765671	1474253832917	1474253833030	 	32
171850	1867989	I am out of town until Friday.	I am out of town until Friday.	88765673	1474253833098	1474253833187	t	84
171850	1867989	I am out of town until Friday.	I am out of town until Friday.	88765675	1474253833211	1474253833325	o	79
171850	1867989	I am out of town until Friday.	I am out of town until Friday.	88765676	1474253833400	1474253833485	w	87
171850	1867989	I am out of town until Friday.	I am out of town until Friday.	88765677	1474253833668	1474253833796	n	78
171850	1867989	I am out of town until Friday.	I am out of town until Friday.	88765717	1474253833765	1474253833865	 	32
171850	1867989	I am out of town until Friday.	I am out of town until Friday.	88765719	1474253834185	1474253834259	u	85
171850	1867989	I am out of town until Friday.	I am out of town until Friday.	88765721	1474253834402	1474253834503	n	78
171850	1867989	I am out of town until Friday.	I am out of town until Friday.	88765724	1474253834559	1474253834651	t	84
171850	1867989	I am out of town until Friday.	I am out of town until Friday.	88765727	1474253834632	1474253834714	i	73
171850	1867989	I am out of town until Friday.	I am out of town until Friday.	88765730	1474253834814	1474253834875	l	76
171850	1867989	I am out of town until Friday.	I am out of town until Friday.	88765790	1474253834940	1474253835023	l	76
171850	1867989	I am out of town until Friday.	I am out of town until Friday.	88765791	1474253835030	1474253835146	 	32
171850	1867989	I am out of town until Friday.	I am out of town until Friday.	88765792	1474253835241	1474253835405	SHIFT	16
171850	1867989	I am out of town until Friday.	I am out of town until Friday.	88765793	1474253835376	1474253835463	F	70
171850	1867989	I am out of town until Friday.	I am out of town until Friday.	88765794	1474253835771	1474253835832	BKSP	8
171850	1867989	I am out of town until Friday.	I am out of town until Friday.	88765795	1474253836040	1474253836089	BKSP	8
171850	1867989	I am out of town until Friday.	I am out of town until Friday.	88765796	1474253836183	1474253836242	BKSP	8
171850	1867989	I am out of town until Friday.	I am out of town until Friday.	88765797	1474253836533	1474253836624	 	32
171850	1867989	I am out of town until Friday.	I am out of town until Friday.	88765798	1474253836653	1474253836840	SHIFT	16
171850	1867989	I am out of town until Friday.	I am out of town until Friday.	88765826	1474253836802	1474253836914	F	70
171850	1867989	I am out of town until Friday.	I am out of town until Friday.	88765828	1474253837147	1474253837247	r	82
171850	1867989	I am out of town until Friday.	I am out of town until Friday.	88765831	1474253837259	1474253837347	i	73
171850	1867989	I am out of town until Friday.	I am out of town until Friday.	88765834	1474253837781	1474253837879	d	68
171850	1867989	I am out of town until Friday.	I am out of town until Friday.	88765837	1474253837897	1474253838000	a	65
171850	1867989	I am out of town until Friday.	I am out of town until Friday.	88765841	1474253838006	1474253838090	y	89
171850	1867989	I am out of town until Friday.	I am out of town until Friday.	88765889	1474253838179	1474253838446	SHIFT	16
171850	1867989	I am out of town until Friday.	I am out of town until Friday.	88765891	1474253838627	1474253838691	/	191
171850	1867989	I am out of town until Friday.	I am out of town until Friday.	88765892	1474253839140	1474253839231	BKSP	8
171850	1867989	I am out of town until Friday.	I am out of town until Friday.	88765894	1474253839704	1474253839759	.	190
171850	1867996	Let me know where you might be.	Let me know where you might be.	88765972	1474253841663	1474253841847	SHIFT	16
171850	1867996	Let me know where you might be.	Let me know where you might be.	88765973	1474253841785	1474253841890	L	76
171850	1867996	Let me know where you might be.	Let me know where you might be.	88765974	1474253841957	1474253842041	e	69
171850	1867996	Let me know where you might be.	Let me know where you might be.	88765975	1474253842246	1474253842332	t	84
171850	1867996	Let me know where you might be.	Let me know where you might be.	88765976	1474253842312	1474253842427	 	32
171850	1867996	Let me know where you might be.	Let me know where you might be.	88765977	1474253842444	1474253842555	m	77
171850	1867996	Let me know where you might be.	Let me know where you might be.	88766004	1474253842537	1474253842631	e	69
171850	1867996	Let me know where you might be.	Let me know where you might be.	88766008	1474253842639	1474253842733	 	32
171850	1867996	Let me know where you might be.	Let me know where you might be.	88766013	1474253843306	1474253843380	k	75
171850	1867996	Let me know where you might be.	Let me know where you might be.	88766020	1474253843417	1474253843524	n	78
171850	1867996	Let me know where you might be.	Let me know where you might be.	88766028	1474253843616	1474253843712	o	79
171850	1867996	Let me know where you might be.	Let me know where you might be.	88766045	1474253843702	1474253843791	w	87
171850	1867996	Let me know where you might be.	Let me know where you might be.	88766047	1474253843874	1474253843951	 	32
171850	1867996	Let me know where you might be.	Let me know where you might be.	88766052	1474253844182	1474253844308	w	87
171850	1867996	Let me know where you might be.	Let me know where you might be.	88766056	1474253844272	1474253844381	h	72
171850	1867996	Let me know where you might be.	Let me know where you might be.	88766059	1474253844371	1474253844544	e	69
171850	1867996	Let me know where you might be.	Let me know where you might be.	88766081	1474253844516	1474253844675	r	82
171850	1867996	Let me know where you might be.	Let me know where you might be.	88766084	1474253844641	1474253844767	e	69
171850	1867996	Let me know where you might be.	Let me know where you might be.	88766086	1474253844713	1474253844816	 	32
171850	1867996	Let me know where you might be.	Let me know where you might be.	88766088	1474253844911	1474253845012	y	89
171850	1867996	Let me know where you might be.	Let me know where you might be.	88766091	1474253844973	1474253845054	o	79
171850	1867996	Let me know where you might be.	Let me know where you might be.	88766096	1474253845169	1474253845316	u	85
171850	1867996	Let me know where you might be.	Let me know where you might be.	88766136	1474253845277	1474253845379	 	32
171850	1867996	Let me know where you might be.	Let me know where you might be.	88766139	1474253845756	1474253845839	w	87
171850	1867996	Let me know where you might be.	Let me know where you might be.	88766142	1474253846273	1474253846370	BKSP	8
171850	1867996	Let me know where you might be.	Let me know where you might be.	88766144	1474253846520	1474253846595	m	77
171850	1867996	Let me know where you might be.	Let me know where you might be.	88766145	1474253846663	1474253846756	i	73
171850	1867996	Let me know where you might be.	Let me know where you might be.	88766146	1474253846757	1474253846856	g	71
171850	1867996	Let me know where you might be.	Let me know where you might be.	88766147	1474253846856	1474253846934	h	72
171850	1867996	Let me know where you might be.	Let me know where you might be.	88766169	1474253846941	1474253847022	t	84
171850	1867996	Let me know where you might be.	Let me know where you might be.	88766170	1474253847005	1474253847109	 	32
171850	1867996	Let me know where you might be.	Let me know where you might be.	88766171	1474253847118	1474253847212	b	66
171850	1867996	Let me know where you might be.	Let me know where you might be.	88766173	1474253847195	1474253847291	e	69
171850	1867996	Let me know where you might be.	Let me know where you might be.	88766176	1474253847952	1474253848020	.	190
171850	1868002	This is a golden moment.	This is a golden moment.	88766296	1474253849645	1474253850085	SHIFT	16
171850	1868002	This is a golden moment.	This is a golden moment.	88766299	1474253850027	1474253850134	T	84
171850	1868002	This is a golden moment.	This is a golden moment.	88766304	1474253850146	1474253850240	h	72
171850	1868002	This is a golden moment.	This is a golden moment.	88766306	1474253850293	1474253850453	i	73
171850	1868002	This is a golden moment.	This is a golden moment.	88766309	1474253850487	1474253850596	 	32
171850	1868002	This is a golden moment.	This is a golden moment.	88766310	1474253850636	1474253850741	i	73
171850	1868002	This is a golden moment.	This is a golden moment.	88766360	1474253850976	1474253851043	BKSP	8
171850	1868002	This is a golden moment.	This is a golden moment.	88766363	1474253851254	1474253851311	BKSP	8
171850	1868002	This is a golden moment.	This is a golden moment.	88766367	1474253851413	1474253851446	BKSP	8
171850	1868002	This is a golden moment.	This is a golden moment.	88766371	1474253851752	1474253851900	i	73
171850	1868002	This is a golden moment.	This is a golden moment.	88766375	1474253851861	1474253851979	 	83
171850	1868002	This is a golden moment.	This is a golden moment.	88766378	1474253852213	1474253852326	i	73
171850	1868002	This is a golden moment.	This is a golden moment.	88766417	1474253852286	1474253852424	s	83
171850	1868002	This is a golden moment.	This is a golden moment.	88766421	1474253852414	1474253852501	 	32
171850	1868002	This is a golden moment.	This is a golden moment.	88766425	1474253852552	1474253852689	a	65
171850	1868002	This is a golden moment.	This is a golden moment.	88766427	1474253852636	1474253852723	 	32
171850	1868002	This is a golden moment.	This is a golden moment.	88766428	1474253853372	1474253853474	g	71
171850	1868002	This is a golden moment.	This is a golden moment.	88766430	1474253853482	1474253853541	o	79
171850	1868002	This is a golden moment.	This is a golden moment.	88766468	1474253853909	1474253854007	l	76
171850	1868002	This is a golden moment.	This is a golden moment.	88766473	1474253854090	1474253854171	d	68
171850	1868002	This is a golden moment.	This is a golden moment.	88766480	1474253854288	1474253854397	e	69
171850	1868002	This is a golden moment.	This is a golden moment.	88766487	1474253854386	1474253854531	n	78
171850	1868002	This is a golden moment.	This is a golden moment.	88766503	1474253854466	1474253854597	 	32
171850	1868002	This is a golden moment.	This is a golden moment.	88766505	1474253854696	1474253854765	m	77
171850	1868002	This is a golden moment.	This is a golden moment.	88766507	1474253854843	1474253854922	o	79
171850	1868002	This is a golden moment.	This is a golden moment.	88766509	1474253854983	1474253855108	m	77
171850	1868002	This is a golden moment.	This is a golden moment.	88766513	1474253855108	1474253855188	e	69
171850	1868002	This is a golden moment.	This is a golden moment.	88766517	1474253855198	1474253855295	n	78
171850	1868002	This is a golden moment.	This is a golden moment.	88766547	1474253855276	1474253855387	t	84
171850	1868002	This is a golden moment.	This is a golden moment.	88766548	1474253855971	1474253856054	.	190
171850	1868009	I will call in 20 to 30 minutes.	I will call in 20 to 30 minutes.	88766639	1474253857875	1474253858155	SHIFT	16
171850	1868009	I will call in 20 to 30 minutes.	I will call in 20 to 30 minutes.	88766635	1474253858066	1474253858146	I	73
171850	1868009	I will call in 20 to 30 minutes.	I will call in 20 to 30 minutes.	88766645	1474253858242	1474253858324	 	32
171850	1868009	I will call in 20 to 30 minutes.	I will call in 20 to 30 minutes.	88766654	1474253858330	1474253858413	w	87
171850	1868009	I will call in 20 to 30 minutes.	I will call in 20 to 30 minutes.	88766662	1474253858380	1474253858476	i	73
171850	1868009	I will call in 20 to 30 minutes.	I will call in 20 to 30 minutes.	88766669	1474253858767	1474253858820	l	76
171850	1868009	I will call in 20 to 30 minutes.	I will call in 20 to 30 minutes.	88766706	1474253858915	1474253858972	l	76
171850	1868009	I will call in 20 to 30 minutes.	I will call in 20 to 30 minutes.	88766708	1474253859001	1474253859125	 	32
171850	1868009	I will call in 20 to 30 minutes.	I will call in 20 to 30 minutes.	88766711	1474253859248	1474253859351	c	67
171850	1868009	I will call in 20 to 30 minutes.	I will call in 20 to 30 minutes.	88766713	1474253859457	1474253859582	a	65
171850	1868009	I will call in 20 to 30 minutes.	I will call in 20 to 30 minutes.	88766716	1474253859598	1474253859658	l	76
171850	1868009	I will call in 20 to 30 minutes.	I will call in 20 to 30 minutes.	88766733	1474253859735	1474253859808	l	76
171850	1868009	I will call in 20 to 30 minutes.	I will call in 20 to 30 minutes.	88766735	1474253859821	1474253859970	 	32
171850	1868009	I will call in 20 to 30 minutes.	I will call in 20 to 30 minutes.	88766738	1474253859962	1474253860043	i	73
171850	1868009	I will call in 20 to 30 minutes.	I will call in 20 to 30 minutes.	88766740	1474253860088	1474253860216	n	78
171850	1868009	I will call in 20 to 30 minutes.	I will call in 20 to 30 minutes.	88766805	1474253860148	1474253860271	 	32
171850	1868009	I will call in 20 to 30 minutes.	I will call in 20 to 30 minutes.	88766810	1474253860692	1474253860789	2	50
171850	1868009	I will call in 20 to 30 minutes.	I will call in 20 to 30 minutes.	88766812	1474253860761	1474253860898	0	48
171850	1868009	I will call in 20 to 30 minutes.	I will call in 20 to 30 minutes.	88766814	1474253860829	1474253860948	 	32
171850	1868009	I will call in 20 to 30 minutes.	I will call in 20 to 30 minutes.	88766816	1474253861153	1474253861253	t	84
171850	1868009	I will call in 20 to 30 minutes.	I will call in 20 to 30 minutes.	88766874	1474253861242	1474253861376	o	79
171850	1868009	I will call in 20 to 30 minutes.	I will call in 20 to 30 minutes.	88766878	1474253861310	1474253861441	 	32
171850	1868009	I will call in 20 to 30 minutes.	I will call in 20 to 30 minutes.	88766880	1474253862257	1474253862333	3	51
171850	1868009	I will call in 20 to 30 minutes.	I will call in 20 to 30 minutes.	88766887	1474253862322	1474253862479	0	48
171850	1868009	I will call in 20 to 30 minutes.	I will call in 20 to 30 minutes.	88766894	1474253862399	1474253862538	 	32
171850	1868009	I will call in 20 to 30 minutes.	I will call in 20 to 30 minutes.	88766899	1474253862644	1474253862738	m	77
171850	1868009	I will call in 20 to 30 minutes.	I will call in 20 to 30 minutes.	88766926	1474253862844	1474253862954	i	73
171850	1868009	I will call in 20 to 30 minutes.	I will call in 20 to 30 minutes.	88766929	1474253863039	1474253863120	n	78
171850	1868009	I will call in 20 to 30 minutes.	I will call in 20 to 30 minutes.	88766932	1474253863216	1474253863300	u	85
171850	1868009	I will call in 20 to 30 minutes.	I will call in 20 to 30 minutes.	88766936	1474253863289	1474253863369	t	84
171850	1868009	I will call in 20 to 30 minutes.	I will call in 20 to 30 minutes.	88766938	1474253863612	1474253863704	e	69
171850	1868009	I will call in 20 to 30 minutes.	I will call in 20 to 30 minutes.	88767000	1474253863870	1474253863984	s	83
171850	1868009	I will call in 20 to 30 minutes.	I will call in 20 to 30 minutes.	88767005	1474253864446	1474253864512	/	191
171850	1868009	I will call in 20 to 30 minutes.	I will call in 20 to 30 minutes.	88767009	1474253864711	1474253864785	BKSP	8
171850	1868009	I will call in 20 to 30 minutes.	I will call in 20 to 30 minutes.	88767013	1474253865038	1474253865063	.	190
171850	1868016	Mark, please take a look and let me know if you have any questions.	Mark, please take a look and let me know if you have any questions.	88767125	1474253867094	1474253867470	SHIFT	16
171850	1868016	Mark, please take a look and let me know if you have any questions.	Mark, please take a look and let me know if you have any questions.	88767127	1474253867401	1474253867488	M	77
171850	1868016	Mark, please take a look and let me know if you have any questions.	Mark, please take a look and let me know if you have any questions.	88767129	1474253867547	1474253867656	a	65
171850	1868016	Mark, please take a look and let me know if you have any questions.	Mark, please take a look and let me know if you have any questions.	88767131	1474253867716	1474253867852	r	82
171850	1868016	Mark, please take a look and let me know if you have any questions.	Mark, please take a look and let me know if you have any questions.	88767132	1474253868372	1474253868454	k	75
171850	1868016	Mark, please take a look and let me know if you have any questions.	Mark, please take a look and let me know if you have any questions.	88767133	1474253868655	1474253868734	,	188
171850	1868016	Mark, please take a look and let me know if you have any questions.	Mark, please take a look and let me know if you have any questions.	88767285	1474253868819	1474253868923	 	32
171850	1868016	Mark, please take a look and let me know if you have any questions.	Mark, please take a look and let me know if you have any questions.	88767288	1474253868934	1474253869007	SHIFT	16
171850	1868016	Mark, please take a look and let me know if you have any questions.	Mark, please take a look and let me know if you have any questions.	88767291	1474253869622	1474253869729	p	80
171850	1868016	Mark, please take a look and let me know if you have any questions.	Mark, please take a look and let me know if you have any questions.	88767293	1474253869765	1474253869831	k	75
171850	1868016	Mark, please take a look and let me know if you have any questions.	Mark, please take a look and let me know if you have any questions.	88767297	1474253869839	1474253869919	e	69
171850	1868016	Mark, please take a look and let me know if you have any questions.	Mark, please take a look and let me know if you have any questions.	88767301	1474253870228	1474253870314	BKSP	8
171850	1868016	Mark, please take a look and let me know if you have any questions.	Mark, please take a look and let me know if you have any questions.	88767303	1474253870651	1474253870714	BKSP	8
171850	1868016	Mark, please take a look and let me know if you have any questions.	Mark, please take a look and let me know if you have any questions.	88767305	1474253871321	1474253871420	BKSP	8
171850	1868016	Mark, please take a look and let me know if you have any questions.	Mark, please take a look and let me know if you have any questions.	88767307	1474253871550	1474253871644	l	76
171850	1868016	Mark, please take a look and let me know if you have any questions.	Mark, please take a look and let me know if you have any questions.	88767323	1474253871672	1474253871742	e	69
171850	1868016	Mark, please take a look and let me know if you have any questions.	Mark, please take a look and let me know if you have any questions.	88767327	1474253871968	1474253872116	a	65
171850	1868016	Mark, please take a look and let me know if you have any questions.	Mark, please take a look and let me know if you have any questions.	88767332	1474253872070	1474253872177	s	83
171850	1868016	Mark, please take a look and let me know if you have any questions.	Mark, please take a look and let me know if you have any questions.	88767333	1474253872231	1474253872365	e	69
171850	1868016	Mark, please take a look and let me know if you have any questions.	Mark, please take a look and let me know if you have any questions.	88767385	1474253872354	1474253872478	 	32
171850	1868016	Mark, please take a look and let me know if you have any questions.	Mark, please take a look and let me know if you have any questions.	88767386	1474253872674	1474253872745	BKSP	8
171850	1868016	Mark, please take a look and let me know if you have any questions.	Mark, please take a look and let me know if you have any questions.	88767387	1474253872832	1474253872879	BKSP	8
171850	1868016	Mark, please take a look and let me know if you have any questions.	Mark, please take a look and let me know if you have any questions.	88767388	1474253872975	1474253873018	BKSP	8
171850	1868016	Mark, please take a look and let me know if you have any questions.	Mark, please take a look and let me know if you have any questions.	88767390	1474253873117	1474253873151	BKSP	8
171850	1868016	Mark, please take a look and let me know if you have any questions.	Mark, please take a look and let me know if you have any questions.	88767393	1474253873374	1474253873433	BKSP	8
171850	1868016	Mark, please take a look and let me know if you have any questions.	Mark, please take a look and let me know if you have any questions.	88767396	1474253873548	1474253873614	BKSP	8
171850	1868016	Mark, please take a look and let me know if you have any questions.	Mark, please take a look and let me know if you have any questions.	88767399	1474253873991	1474253874084	p	80
171850	1868016	Mark, please take a look and let me know if you have any questions.	Mark, please take a look and let me know if you have any questions.	88767402	1474253874092	1474253874223	l	76
171850	1868016	Mark, please take a look and let me know if you have any questions.	Mark, please take a look and let me know if you have any questions.	88767405	1474253874213	1474253874300	e	69
171850	1868016	Mark, please take a look and let me know if you have any questions.	Mark, please take a look and let me know if you have any questions.	88767406	1474253874386	1474253874562	a	65
171850	1868016	Mark, please take a look and let me know if you have any questions.	Mark, please take a look and let me know if you have any questions.	88767422	1474253874499	1474253874620	s	83
171850	1868016	Mark, please take a look and let me know if you have any questions.	Mark, please take a look and let me know if you have any questions.	88767424	1474253874692	1474253874843	e	69
171850	1868016	Mark, please take a look and let me know if you have any questions.	Mark, please take a look and let me know if you have any questions.	88767426	1474253874814	1474253874936	 	32
171850	1868016	Mark, please take a look and let me know if you have any questions.	Mark, please take a look and let me know if you have any questions.	88767428	1474253875004	1474253875115	t	84
171850	1868016	Mark, please take a look and let me know if you have any questions.	Mark, please take a look and let me know if you have any questions.	88767430	1474253875624	1474253875714	a	65
171850	1868016	Mark, please take a look and let me know if you have any questions.	Mark, please take a look and let me know if you have any questions.	88767432	1474253875735	1474253875860	k	75
171850	1868016	Mark, please take a look and let me know if you have any questions.	Mark, please take a look and let me know if you have any questions.	88767444	1474253875828	1474253875924	e	69
171850	1868016	Mark, please take a look and let me know if you have any questions.	Mark, please take a look and let me know if you have any questions.	88767446	1474253875907	1474253876024	 	32
171850	1868016	Mark, please take a look and let me know if you have any questions.	Mark, please take a look and let me know if you have any questions.	88767449	1474253876036	1474253876167	a	65
171850	1868016	Mark, please take a look and let me know if you have any questions.	Mark, please take a look and let me know if you have any questions.	88767451	1474253876133	1474253876231	 	32
171850	1868016	Mark, please take a look and let me know if you have any questions.	Mark, please take a look and let me know if you have any questions.	88767453	1474253876289	1474253876375	l	76
171850	1868016	Mark, please take a look and let me know if you have any questions.	Mark, please take a look and let me know if you have any questions.	88767456	1474253876472	1474253876538	o	79
171850	1868016	Mark, please take a look and let me know if you have any questions.	Mark, please take a look and let me know if you have any questions.	88767494	1474253876624	1474253876661	o	79
171850	1868016	Mark, please take a look and let me know if you have any questions.	Mark, please take a look and let me know if you have any questions.	88767497	1474253876955	1474253877115	k	75
171850	1868016	Mark, please take a look and let me know if you have any questions.	Mark, please take a look and let me know if you have any questions.	88767500	1474253877064	1474253877180	 	32
171850	1868016	Mark, please take a look and let me know if you have any questions.	Mark, please take a look and let me know if you have any questions.	88767504	1474253877187	1474253877337	a	65
171850	1868016	Mark, please take a look and let me know if you have any questions.	Mark, please take a look and let me know if you have any questions.	88767508	1474253877387	1474253877507	n	78
171850	1868016	Mark, please take a look and let me know if you have any questions.	Mark, please take a look and let me know if you have any questions.	88767520	1474253877496	1474253877620	d	68
171850	1868016	Mark, please take a look and let me know if you have any questions.	Mark, please take a look and let me know if you have any questions.	88767523	1474253877585	1474253877665	 	32
171850	1868016	Mark, please take a look and let me know if you have any questions.	Mark, please take a look and let me know if you have any questions.	88767525	1474253877771	1474253877866	l	76
171850	1868016	Mark, please take a look and let me know if you have any questions.	Mark, please take a look and let me know if you have any questions.	88767529	1474253877851	1474253877969	e	69
171850	1868016	Mark, please take a look and let me know if you have any questions.	Mark, please take a look and let me know if you have any questions.	88767532	1474253878045	1474253878170	t	84
171850	1868016	Mark, please take a look and let me know if you have any questions.	Mark, please take a look and let me know if you have any questions.	88767545	1474253878108	1474253878208	 	32
171850	1868016	Mark, please take a look and let me know if you have any questions.	Mark, please take a look and let me know if you have any questions.	88767547	1474253878240	1474253878372	m	77
171850	1868016	Mark, please take a look and let me know if you have any questions.	Mark, please take a look and let me know if you have any questions.	88767550	1474253878345	1474253878457	e	69
171850	1868016	Mark, please take a look and let me know if you have any questions.	Mark, please take a look and let me know if you have any questions.	88767552	1474253878424	1474253878540	 	32
171850	1868016	Mark, please take a look and let me know if you have any questions.	Mark, please take a look and let me know if you have any questions.	88767554	1474253878547	1474253878631	k	75
171850	1868016	Mark, please take a look and let me know if you have any questions.	Mark, please take a look and let me know if you have any questions.	88767555	1474253878663	1474253878780	n	78
171850	1868016	Mark, please take a look and let me know if you have any questions.	Mark, please take a look and let me know if you have any questions.	88767615	1474253878766	1474253878802	 	32
171850	1868016	Mark, please take a look and let me know if you have any questions.	Mark, please take a look and let me know if you have any questions.	88767619	1474253878865	1474253879003	o	79
171850	1868016	Mark, please take a look and let me know if you have any questions.	Mark, please take a look and let me know if you have any questions.	88767622	1474253878963	1474253879095	w	87
171850	1868016	Mark, please take a look and let me know if you have any questions.	Mark, please take a look and let me know if you have any questions.	88767625	1474253879247	1474253879315	BKSP	8
171850	1868016	Mark, please take a look and let me know if you have any questions.	Mark, please take a look and let me know if you have any questions.	88767628	1474253879520	1474253879585	BKSP	8
171850	1868016	Mark, please take a look and let me know if you have any questions.	Mark, please take a look and let me know if you have any questions.	88767632	1474253879678	1474253879760	BKSP	8
171850	1868016	Mark, please take a look and let me know if you have any questions.	Mark, please take a look and let me know if you have any questions.	88767638	1474253879843	1474253879914	w	87
171850	1868016	Mark, please take a look and let me know if you have any questions.	Mark, please take a look and let me know if you have any questions.	88767643	1474253879884	1474253879975	o	79
171850	1868016	Mark, please take a look and let me know if you have any questions.	Mark, please take a look and let me know if you have any questions.	88767648	1474253880339	1474253880407	BKSP	8
171850	1868016	Mark, please take a look and let me know if you have any questions.	Mark, please take a look and let me know if you have any questions.	88767652	1474253880498	1474253880583	BKSP	8
171850	1868016	Mark, please take a look and let me know if you have any questions.	Mark, please take a look and let me know if you have any questions.	88767655	1474253880683	1474253880823	o	79
171850	1868016	Mark, please take a look and let me know if you have any questions.	Mark, please take a look and let me know if you have any questions.	88767661	1474253880756	1474253880853	w	87
171850	1868016	Mark, please take a look and let me know if you have any questions.	Mark, please take a look and let me know if you have any questions.	88767665	1474253880782	1474253880914	 	32
171850	1868016	Mark, please take a look and let me know if you have any questions.	Mark, please take a look and let me know if you have any questions.	88767669	1474253881148	1474253881249	i	73
171850	1868016	Mark, please take a look and let me know if you have any questions.	Mark, please take a look and let me know if you have any questions.	88767671	1474253881393	1474253881499	f	70
171850	1868016	Mark, please take a look and let me know if you have any questions.	Mark, please take a look and let me know if you have any questions.	88767673	1474253881489	1474253881584	 	32
171850	1868016	Mark, please take a look and let me know if you have any questions.	Mark, please take a look and let me know if you have any questions.	88767676	1474253881690	1474253881782	y	89
171850	1868016	Mark, please take a look and let me know if you have any questions.	Mark, please take a look and let me know if you have any questions.	88767699	1474253881763	1474253881886	o	79
171850	1868016	Mark, please take a look and let me know if you have any questions.	Mark, please take a look and let me know if you have any questions.	88767701	1474253881937	1474253882083	u	85
171850	1868016	Mark, please take a look and let me know if you have any questions.	Mark, please take a look and let me know if you have any questions.	88767707	1474253882024	1474253882118	 	32
171850	1868016	Mark, please take a look and let me know if you have any questions.	Mark, please take a look and let me know if you have any questions.	88767711	1474253882211	1474253882302	h	72
171850	1868016	Mark, please take a look and let me know if you have any questions.	Mark, please take a look and let me know if you have any questions.	88767715	1474253882325	1474253882402	a	65
171850	1868016	Mark, please take a look and let me know if you have any questions.	Mark, please take a look and let me know if you have any questions.	88767719	1474253882427	1474253882547	v	86
171850	1868016	Mark, please take a look and let me know if you have any questions.	Mark, please take a look and let me know if you have any questions.	88767790	1474253882526	1474253882626	e	69
171850	1868016	Mark, please take a look and let me know if you have any questions.	Mark, please take a look and let me know if you have any questions.	88767793	1474253882649	1474253882745	 	32
171850	1868016	Mark, please take a look and let me know if you have any questions.	Mark, please take a look and let me know if you have any questions.	88767794	1474253882793	1474253882892	a	65
171850	1868016	Mark, please take a look and let me know if you have any questions.	Mark, please take a look and let me know if you have any questions.	88767796	1474253882910	1474253883039	n	78
171850	1868016	Mark, please take a look and let me know if you have any questions.	Mark, please take a look and let me know if you have any questions.	88767798	1474253883579	1474253883665	y	89
171850	1868016	Mark, please take a look and let me know if you have any questions.	Mark, please take a look and let me know if you have any questions.	88767800	1474253884027	1474253884127	 	32
171850	1868016	Mark, please take a look and let me know if you have any questions.	Mark, please take a look and let me know if you have any questions.	88767843	1474253884596	1474253884704	q	81
171850	1868016	Mark, please take a look and let me know if you have any questions.	Mark, please take a look and let me know if you have any questions.	88767849	1474253884752	1474253884842	u	85
171850	1868016	Mark, please take a look and let me know if you have any questions.	Mark, please take a look and let me know if you have any questions.	88767857	1474253885001	1474253885113	e	69
171850	1868016	Mark, please take a look and let me know if you have any questions.	Mark, please take a look and let me know if you have any questions.	88767863	1474253885285	1474253885406	s	83
171850	1868016	Mark, please take a look and let me know if you have any questions.	Mark, please take a look and let me know if you have any questions.	88767869	1474253885513	1474253885601	t	84
171850	1868016	Mark, please take a look and let me know if you have any questions.	Mark, please take a look and let me know if you have any questions.	88767897	1474253885625	1474253885797	i	73
171850	1868016	Mark, please take a look and let me know if you have any questions.	Mark, please take a look and let me know if you have any questions.	88767900	1474253885760	1474253885850	o	79
171850	1868016	Mark, please take a look and let me know if you have any questions.	Mark, please take a look and let me know if you have any questions.	88767904	1474253885963	1474253886051	n	78
171850	1868016	Mark, please take a look and let me know if you have any questions.	Mark, please take a look and let me know if you have any questions.	88767905	1474253886059	1474253886153	s	83
171850	1868016	Mark, please take a look and let me know if you have any questions.	Mark, please take a look and let me know if you have any questions.	88767907	1474253886756	1474253886828	/	191
171850	1868016	Mark, please take a look and let me know if you have any questions.	Mark, please take a look and let me know if you have any questions.	88767952	1474253887546	1474253887621	BKSP	8
171850	1868016	Mark, please take a look and let me know if you have any questions.	Mark, please take a look and let me know if you have any questions.	88767954	1474253887745	1474253887820	,	188
171850	1868016	Mark, please take a look and let me know if you have any questions.	Mark, please take a look and let me know if you have any questions.	88767957	1474253888270	1474253888368	BKSP	8
171850	1868016	Mark, please take a look and let me know if you have any questions.	Mark, please take a look and let me know if you have any questions.	88767959	1474253888517	1474253888607	.	190
171850	1868037	I will try to make sure I'm in good shape.	I will try to make sure I'm in good shape.	88768051	1474253891556	1474253891761	SHIFT	16
171850	1868037	I will try to make sure I'm in good shape.	I will try to make sure I'm in good shape.	88768055	1474253891701	1474253891844	I	73
171850	1868037	I will try to make sure I'm in good shape.	I will try to make sure I'm in good shape.	88768059	1474253891786	1474253891921	 	32
171850	1868037	I will try to make sure I'm in good shape.	I will try to make sure I'm in good shape.	88768064	1474253891945	1474253892075	w	87
171850	1868037	I will try to make sure I'm in good shape.	I will try to make sure I'm in good shape.	88768067	1474253892024	1474253892097	i	73
171850	1868037	I will try to make sure I'm in good shape.	I will try to make sure I'm in good shape.	88768069	1474253892204	1474253892265	l	76
171850	1868037	I will try to make sure I'm in good shape.	I will try to make sure I'm in good shape.	88768091	1474253892328	1474253892435	l	76
171850	1868037	I will try to make sure I'm in good shape.	I will try to make sure I'm in good shape.	88768096	1474253892442	1474253892563	 	32
171850	1868037	I will try to make sure I'm in good shape.	I will try to make sure I'm in good shape.	88768099	1474253892569	1474253892661	t	84
171850	1868037	I will try to make sure I'm in good shape.	I will try to make sure I'm in good shape.	88768104	1474253892851	1474253892936	y	89
171850	1868037	I will try to make sure I'm in good shape.	I will try to make sure I'm in good shape.	88768108	1474253893158	1474253893248	BKSP	8
171850	1868037	I will try to make sure I'm in good shape.	I will try to make sure I'm in good shape.	88768110	1474253893267	1474253893350	r	82
171850	1868037	I will try to make sure I'm in good shape.	I will try to make sure I'm in good shape.	88768114	1474253893374	1474253893493	y	89
171850	1868037	I will try to make sure I'm in good shape.	I will try to make sure I'm in good shape.	88768118	1474253893437	1474253893547	 	32
171850	1868037	I will try to make sure I'm in good shape.	I will try to make sure I'm in good shape.	88768121	1474253893574	1474253893659	t	84
171850	1868037	I will try to make sure I'm in good shape.	I will try to make sure I'm in good shape.	88768124	1474253893641	1474253893776	o	79
171850	1868037	I will try to make sure I'm in good shape.	I will try to make sure I'm in good shape.	88768141	1474253893712	1474253893827	 	32
171850	1868037	I will try to make sure I'm in good shape.	I will try to make sure I'm in good shape.	88768143	1474253893909	1474253894004	m	77
171850	1868037	I will try to make sure I'm in good shape.	I will try to make sure I'm in good shape.	88768146	1474253893981	1474253894087	a	65
171850	1868037	I will try to make sure I'm in good shape.	I will try to make sure I'm in good shape.	88768149	1474253894095	1474253894206	k	75
171850	1868037	I will try to make sure I'm in good shape.	I will try to make sure I'm in good shape.	88768150	1474253894187	1474253894292	e	69
171850	1868037	I will try to make sure I'm in good shape.	I will try to make sure I'm in good shape.	88768153	1474253894280	1474253894402	 	32
171850	1868037	I will try to make sure I'm in good shape.	I will try to make sure I'm in good shape.	88768157	1474253894431	1474253894533	s	83
171850	1868037	I will try to make sure I'm in good shape.	I will try to make sure I'm in good shape.	88768163	1474253894523	1474253894620	u	85
171850	1868037	I will try to make sure I'm in good shape.	I will try to make sure I'm in good shape.	88768168	1474253894640	1474253894760	r	82
171850	1868037	I will try to make sure I'm in good shape.	I will try to make sure I'm in good shape.	88768172	1474253894723	1474253894862	e	69
171850	1868037	I will try to make sure I'm in good shape.	I will try to make sure I'm in good shape.	88768227	1474253894823	1474253894940	 	32
171850	1868037	I will try to make sure I'm in good shape.	I will try to make sure I'm in good shape.	88768229	1474253894995	1474253895254	SHIFT	16
171850	1868037	I will try to make sure I'm in good shape.	I will try to make sure I'm in good shape.	88768228	1474253895091	1474253895185	I	73
171850	1868037	I will try to make sure I'm in good shape.	I will try to make sure I'm in good shape.	88768230	1474253896349	1474253896432	'	222
171850	1868037	I will try to make sure I'm in good shape.	I will try to make sure I'm in good shape.	88768231	1474253896700	1474253896797	m	77
171850	1868037	I will try to make sure I'm in good shape.	I will try to make sure I'm in good shape.	88768232	1474253896774	1474253896902	 	32
171850	1868037	I will try to make sure I'm in good shape.	I will try to make sure I'm in good shape.	88768233	1474253896910	1474253896968	i	73
171850	1868037	I will try to make sure I'm in good shape.	I will try to make sure I'm in good shape.	88768245	1474253897052	1474253897226	n	78
171850	1868037	I will try to make sure I'm in good shape.	I will try to make sure I'm in good shape.	88768246	1474253897155	1474253897275	 	32
171850	1868037	I will try to make sure I'm in good shape.	I will try to make sure I'm in good shape.	88768248	1474253897358	1474253897447	g	71
171850	1868037	I will try to make sure I'm in good shape.	I will try to make sure I'm in good shape.	88768250	1474253897522	1474253897582	o	79
171850	1868037	I will try to make sure I'm in good shape.	I will try to make sure I'm in good shape.	88768252	1474253897662	1474253897728	o	79
171850	1868037	I will try to make sure I'm in good shape.	I will try to make sure I'm in good shape.	88768260	1474253898119	1474253898218	d	68
171850	1868037	I will try to make sure I'm in good shape.	I will try to make sure I'm in good shape.	88768262	1474253898208	1474253898310	 	32
171850	1868037	I will try to make sure I'm in good shape.	I will try to make sure I'm in good shape.	88768263	1474253898333	1474253898418	s	83
171850	1868037	I will try to make sure I'm in good shape.	I will try to make sure I'm in good shape.	88768264	1474253898381	1474253898482	h	72
171850	1868037	I will try to make sure I'm in good shape.	I will try to make sure I'm in good shape.	88768265	1474253898509	1474253898627	a	65
171850	1868037	I will try to make sure I'm in good shape.	I will try to make sure I'm in good shape.	88768298	1474253898675	1474253898752	p	80
171850	1868037	I will try to make sure I'm in good shape.	I will try to make sure I'm in good shape.	88768301	1474253898805	1474253898895	e	69
171850	1868037	I will try to make sure I'm in good shape.	I will try to make sure I'm in good shape.	88768304	1474253899541	1474253899618	.	190
171850	1868045	You can talk to Becky!	You can talk to Becky!	88768401	1474253901646	1474253902092	SHIFT	16
171850	1868045	You can talk to Becky!	You can talk to Becky!	88768397	1474253901973	1474253902059	Y	89
171850	1868045	You can talk to Becky!	You can talk to Becky!	88768404	1474253902246	1474253902379	o	79
171850	1868045	You can talk to Becky!	You can talk to Becky!	88768405	1474253902363	1474253902515	u	85
171850	1868045	You can talk to Becky!	You can talk to Becky!	88768407	1474253902444	1474253902557	 	32
171850	1868045	You can talk to Becky!	You can talk to Becky!	88768408	1474253902565	1474253902689	c	67
171850	1868045	You can talk to Becky!	You can talk to Becky!	88768421	1474253902823	1474253902914	a	65
171850	1868045	You can talk to Becky!	You can talk to Becky!	88768424	1474253902872	1474253903005	n	78
171850	1868045	You can talk to Becky!	You can talk to Becky!	88768428	1474253902952	1474253903063	 	32
171850	1868045	You can talk to Becky!	You can talk to Becky!	88768431	1474253903116	1474253903207	t	84
171850	1868045	You can talk to Becky!	You can talk to Becky!	88768435	1474253903329	1474253903446	a	65
171850	1868045	You can talk to Becky!	You can talk to Becky!	88768455	1474253903420	1474253903551	l	76
171850	1868045	You can talk to Becky!	You can talk to Becky!	88768457	1474253903564	1474253903733	k	75
171850	1868045	You can talk to Becky!	You can talk to Becky!	88768461	1474253903702	1474253903811	 	32
171850	1868045	You can talk to Becky!	You can talk to Becky!	88768463	1474253903795	1474253903907	t	84
171850	1868045	You can talk to Becky!	You can talk to Becky!	88768465	1474253903885	1474253904036	o	79
171850	1868045	You can talk to Becky!	You can talk to Becky!	88768471	1474253903965	1474253904097	 	32
171850	1868045	You can talk to Becky!	You can talk to Becky!	88768473	1474253904194	1474253904437	SHIFT	16
171850	1868045	You can talk to Becky!	You can talk to Becky!	88768472	1474253904319	1474253904405	B	66
171850	1868045	You can talk to Becky!	You can talk to Becky!	88768474	1474253904481	1474253904579	e	69
171850	1868045	You can talk to Becky!	You can talk to Becky!	88768475	1474253904715	1474253904829	c	67
171850	1868045	You can talk to Becky!	You can talk to Becky!	88768476	1474253904819	1474253904900	k	75
171850	1868045	You can talk to Becky!	You can talk to Becky!	88768477	1474253905047	1474253905117	y	89
171850	1868045	You can talk to Becky!	You can talk to Becky!	88768510	1474253905217	1474253906082	SHIFT	16
171850	1868045	You can talk to Becky!	You can talk to Becky!	88768508	1474253905905	1474253905975	!	49
171850	1868051	Let me know either way.	Let me know either way.	88768583	1474253908018	1474253908389	SHIFT	16
171850	1868051	Let me know either way.	Let me know either way.	88768582	1474253908272	1474253908358	L	76
171850	1868051	Let me know either way.	Let me know either way.	88768585	1474253908463	1474253908578	e	69
171850	1868051	Let me know either way.	Let me know either way.	88768587	1474253908740	1474253908835	t	84
171850	1868051	Let me know either way.	Let me know either way.	88768589	1474253908797	1474253908924	 	32
171850	1868051	Let me know either way.	Let me know either way.	88768604	1474253908912	1474253909038	m	77
171850	1868051	Let me know either way.	Let me know either way.	88768607	1474253909005	1474253909116	e	69
171850	1868051	Let me know either way.	Let me know either way.	88768612	1474253909131	1474253909224	 	32
171850	1868051	Let me know either way.	Let me know either way.	88768616	1474253909337	1474253909413	k	75
171850	1868051	Let me know either way.	Let me know either way.	88768619	1474253909463	1474253909542	n	78
171850	1868051	Let me know either way.	Let me know either way.	88768622	1474253909649	1474253909781	o	79
171850	1868051	Let me know either way.	Let me know either way.	88768633	1474253909701	1474253909811	w	87
171850	1868051	Let me know either way.	Let me know either way.	88768634	1474253909817	1474253909933	 	32
171850	1868051	Let me know either way.	Let me know either way.	88768635	1474253910195	1474253910277	e	69
171850	1868051	Let me know either way.	Let me know either way.	88768637	1474253910261	1474253910352	i	73
171850	1868051	Let me know either way.	Let me know either way.	88768641	1474253910380	1474253910467	t	84
171850	1868051	Let me know either way.	Let me know either way.	88768651	1474253910444	1474253910534	h	72
171850	1868051	Let me know either way.	Let me know either way.	88768654	1474253910552	1474253910667	e	69
171850	1868051	Let me know either way.	Let me know either way.	88768658	1474253910624	1474253910762	r	82
171850	1868051	Let me know either way.	Let me know either way.	88768662	1474253910683	1474253910786	 	32
171850	1868051	Let me know either way.	Let me know either way.	88768666	1474253910871	1474253910917	e	69
171850	1868051	Let me know either way.	Let me know either way.	88768672	1474253911022	1474253911052	a	65
171850	1868051	Let me know either way.	Let me know either way.	88768695	1474253911440	1474253911533	BKSP	8
171850	1868051	Let me know either way.	Let me know either way.	88768696	1474253911553	1474253911672	w	87
171850	1868051	Let me know either way.	Let me know either way.	88768697	1474253911778	1474253911845	BKSP	8
171850	1868051	Let me know either way.	Let me know either way.	88768698	1474253911912	1474253911982	BKSP	8
171850	1868051	Let me know either way.	Let me know either way.	88768700	1474253911953	1474253912066	w	87
171850	1868051	Let me know either way.	Let me know either way.	88768704	1474253912050	1474253912187	a	65
171850	1868051	Let me know either way.	Let me know either way.	88768708	1474253912128	1474253912251	y	89
171850	1868051	Let me know either way.	Let me know either way.	88768737	1474253912240	1474253912306	 	32
171850	1868051	Let me know either way.	Let me know either way.	88768738	1474253912811	1474253912893	BKSP	8
171850	1868051	Let me know either way.	Let me know either way.	88768739	1474253913050	1474253913131	.	190
171850	1868056	The Azerbaijani enclave Nagorno was torn by further fighting.	The Azerbaijani enclave Nagorno was torn by further fighting.	88768822	1474253915287	1474253915551	SHIFT	16
171850	1868056	The Azerbaijani enclave Nagorno was torn by further fighting.	The Azerbaijani enclave Nagorno was torn by further fighting.	88768825	1474253915510	1474253915639	T	84
171850	1868056	The Azerbaijani enclave Nagorno was torn by further fighting.	The Azerbaijani enclave Nagorno was torn by further fighting.	88768828	1474253915646	1474253915744	h	72
171850	1868056	The Azerbaijani enclave Nagorno was torn by further fighting.	The Azerbaijani enclave Nagorno was torn by further fighting.	88768830	1474253915706	1474253915824	e	69
171850	1868056	The Azerbaijani enclave Nagorno was torn by further fighting.	The Azerbaijani enclave Nagorno was torn by further fighting.	88768832	1474253915807	1474253915907	 	32
171850	1868056	The Azerbaijani enclave Nagorno was torn by further fighting.	The Azerbaijani enclave Nagorno was torn by further fighting.	88768834	1474253916236	1474253916483	SHIFT	16
171850	1868056	The Azerbaijani enclave Nagorno was torn by further fighting.	The Azerbaijani enclave Nagorno was torn by further fighting.	88768886	1474253916419	1474253916551	A	65
171850	1868056	The Azerbaijani enclave Nagorno was torn by further fighting.	The Azerbaijani enclave Nagorno was torn by further fighting.	88768888	1474253917042	1474253917144	z	90
171850	1868056	The Azerbaijani enclave Nagorno was torn by further fighting.	The Azerbaijani enclave Nagorno was torn by further fighting.	88768890	1474253917289	1474253917425	e	69
171850	1868056	The Azerbaijani enclave Nagorno was torn by further fighting.	The Azerbaijani enclave Nagorno was torn by further fighting.	88768892	1474253917408	1474253917540	r	82
171850	1868056	The Azerbaijani enclave Nagorno was torn by further fighting.	The Azerbaijani enclave Nagorno was torn by further fighting.	88768894	1474253917602	1474253917716	b	66
171850	1868056	The Azerbaijani enclave Nagorno was torn by further fighting.	The Azerbaijani enclave Nagorno was torn by further fighting.	88768896	1474253918413	1474253918489	a	65
171850	1868056	The Azerbaijani enclave Nagorno was torn by further fighting.	The Azerbaijani enclave Nagorno was torn by further fighting.	88768951	1474253918542	1474253918641	i	73
171850	1868056	The Azerbaijani enclave Nagorno was torn by further fighting.	The Azerbaijani enclave Nagorno was torn by further fighting.	88768956	1474253918862	1474253918958	j	74
171850	1868056	The Azerbaijani enclave Nagorno was torn by further fighting.	The Azerbaijani enclave Nagorno was torn by further fighting.	88768962	1474253918976	1474253919076	a	65
171850	1868056	The Azerbaijani enclave Nagorno was torn by further fighting.	The Azerbaijani enclave Nagorno was torn by further fighting.	88768967	1474253919572	1474253919648	n	78
171850	1868056	The Azerbaijani enclave Nagorno was torn by further fighting.	The Azerbaijani enclave Nagorno was torn by further fighting.	88768971	1474253919737	1474253919866	i	73
171850	1868056	The Azerbaijani enclave Nagorno was torn by further fighting.	The Azerbaijani enclave Nagorno was torn by further fighting.	88769017	1474253920065	1474253920167	 	32
171850	1868056	The Azerbaijani enclave Nagorno was torn by further fighting.	The Azerbaijani enclave Nagorno was torn by further fighting.	88769022	1474253920248	1474253920343	e	69
171850	1868056	The Azerbaijani enclave Nagorno was torn by further fighting.	The Azerbaijani enclave Nagorno was torn by further fighting.	88769026	1474253920380	1474253920493	n	78
171850	1868056	The Azerbaijani enclave Nagorno was torn by further fighting.	The Azerbaijani enclave Nagorno was torn by further fighting.	88769029	1474253920702	1474253920824	c	67
171850	1868056	The Azerbaijani enclave Nagorno was torn by further fighting.	The Azerbaijani enclave Nagorno was torn by further fighting.	88769030	1474253920831	1474253920917	l	76
171850	1868056	The Azerbaijani enclave Nagorno was torn by further fighting.	The Azerbaijani enclave Nagorno was torn by further fighting.	88769067	1474253921031	1474253921115	a	65
171850	1868056	The Azerbaijani enclave Nagorno was torn by further fighting.	The Azerbaijani enclave Nagorno was torn by further fighting.	88769070	1474253921379	1474253921428	v	86
171850	1868056	The Azerbaijani enclave Nagorno was torn by further fighting.	The Azerbaijani enclave Nagorno was torn by further fighting.	88769072	1474253921723	1474253921776	e	69
171850	1868056	The Azerbaijani enclave Nagorno was torn by further fighting.	The Azerbaijani enclave Nagorno was torn by further fighting.	88769073	1474253921874	1474253921948	 	32
171850	1868056	The Azerbaijani enclave Nagorno was torn by further fighting.	The Azerbaijani enclave Nagorno was torn by further fighting.	88769098	1474253922022	1474253922377	SHIFT	16
171850	1868056	The Azerbaijani enclave Nagorno was torn by further fighting.	The Azerbaijani enclave Nagorno was torn by further fighting.	88769074	1474253922217	1474253922305	N	78
171850	1868056	The Azerbaijani enclave Nagorno was torn by further fighting.	The Azerbaijani enclave Nagorno was torn by further fighting.	88769099	1474253922622	1474253922770	a	65
171850	1868056	The Azerbaijani enclave Nagorno was torn by further fighting.	The Azerbaijani enclave Nagorno was torn by further fighting.	88769100	1474253922889	1474253922940	g	71
171850	1868056	The Azerbaijani enclave Nagorno was torn by further fighting.	The Azerbaijani enclave Nagorno was torn by further fighting.	88769101	1474253923067	1474253923155	o	79
171850	1868056	The Azerbaijani enclave Nagorno was torn by further fighting.	The Azerbaijani enclave Nagorno was torn by further fighting.	88769102	1474253923200	1474253923317	r	82
171850	1868056	The Azerbaijani enclave Nagorno was torn by further fighting.	The Azerbaijani enclave Nagorno was torn by further fighting.	88769134	1474253923306	1474253923380	n	78
171850	1868056	The Azerbaijani enclave Nagorno was torn by further fighting.	The Azerbaijani enclave Nagorno was torn by further fighting.	88769138	1474253923478	1474253923594	o	79
171850	1868056	The Azerbaijani enclave Nagorno was torn by further fighting.	The Azerbaijani enclave Nagorno was torn by further fighting.	88769142	1474253924022	1474253924135	 	32
171850	1868056	The Azerbaijani enclave Nagorno was torn by further fighting.	The Azerbaijani enclave Nagorno was torn by further fighting.	88769147	1474253924250	1474253924359	w	87
171850	1868056	The Azerbaijani enclave Nagorno was torn by further fighting.	The Azerbaijani enclave Nagorno was torn by further fighting.	88769192	1474253924422	1474253924596	a	65
171850	1868056	The Azerbaijani enclave Nagorno was torn by further fighting.	The Azerbaijani enclave Nagorno was torn by further fighting.	88769150	1474253924482	1474253924587	s	83
171850	1868056	The Azerbaijani enclave Nagorno was torn by further fighting.	The Azerbaijani enclave Nagorno was torn by further fighting.	88769195	1474253924520	1474253924629	 	32
171850	1868056	The Azerbaijani enclave Nagorno was torn by further fighting.	The Azerbaijani enclave Nagorno was torn by further fighting.	88769196	1474253925338	1474253925409	t	84
171850	1868056	The Azerbaijani enclave Nagorno was torn by further fighting.	The Azerbaijani enclave Nagorno was torn by further fighting.	88769198	1474253925462	1474253925544	o	79
171850	1868056	The Azerbaijani enclave Nagorno was torn by further fighting.	The Azerbaijani enclave Nagorno was torn by further fighting.	88769203	1474253925555	1474253925640	r	82
171850	1868056	The Azerbaijani enclave Nagorno was torn by further fighting.	The Azerbaijani enclave Nagorno was torn by further fighting.	88769207	1474253925655	1474253925810	n	78
171850	1868056	The Azerbaijani enclave Nagorno was torn by further fighting.	The Azerbaijani enclave Nagorno was torn by further fighting.	88769270	1474253925743	1474253925865	 	32
171850	1868056	The Azerbaijani enclave Nagorno was torn by further fighting.	The Azerbaijani enclave Nagorno was torn by further fighting.	88769271	1474253925947	1474253926057	b	66
171850	1868056	The Azerbaijani enclave Nagorno was torn by further fighting.	The Azerbaijani enclave Nagorno was torn by further fighting.	88769273	1474253926307	1474253926463	y	89
171850	1868056	The Azerbaijani enclave Nagorno was torn by further fighting.	The Azerbaijani enclave Nagorno was torn by further fighting.	88769275	1474253926423	1474253926550	 	32
171850	1868056	The Azerbaijani enclave Nagorno was torn by further fighting.	The Azerbaijani enclave Nagorno was torn by further fighting.	88769277	1474253926839	1474253926949	f	70
171850	1868056	The Azerbaijani enclave Nagorno was torn by further fighting.	The Azerbaijani enclave Nagorno was torn by further fighting.	88769280	1474253926956	1474253927054	u	85
171850	1868056	The Azerbaijani enclave Nagorno was torn by further fighting.	The Azerbaijani enclave Nagorno was torn by further fighting.	88769311	1474253927089	1474253927200	r	82
171850	1868056	The Azerbaijani enclave Nagorno was torn by further fighting.	The Azerbaijani enclave Nagorno was torn by further fighting.	88769314	1474253927332	1474253927414	t	84
171850	1868056	The Azerbaijani enclave Nagorno was torn by further fighting.	The Azerbaijani enclave Nagorno was torn by further fighting.	88769317	1474253927710	1474253927790	h	72
171850	1868056	The Azerbaijani enclave Nagorno was torn by further fighting.	The Azerbaijani enclave Nagorno was torn by further fighting.	88769321	1474253927798	1474253927940	e	69
171850	1868056	The Azerbaijani enclave Nagorno was torn by further fighting.	The Azerbaijani enclave Nagorno was torn by further fighting.	88769388	1474253927890	1474253928045	r	82
171850	1868056	The Azerbaijani enclave Nagorno was torn by further fighting.	The Azerbaijani enclave Nagorno was torn by further fighting.	88769393	1474253928021	1474253928123	 	32
171850	1868056	The Azerbaijani enclave Nagorno was torn by further fighting.	The Azerbaijani enclave Nagorno was torn by further fighting.	88769397	1474253928836	1474253928928	f	70
171850	1868056	The Azerbaijani enclave Nagorno was torn by further fighting.	The Azerbaijani enclave Nagorno was torn by further fighting.	88769399	1474253928899	1474253929003	i	73
171850	1868056	The Azerbaijani enclave Nagorno was torn by further fighting.	The Azerbaijani enclave Nagorno was torn by further fighting.	88769400	1474253929087	1474253929188	g	71
171850	1868056	The Azerbaijani enclave Nagorno was torn by further fighting.	The Azerbaijani enclave Nagorno was torn by further fighting.	88769401	1474253929197	1474253929280	h	72
171850	1868056	The Azerbaijani enclave Nagorno was torn by further fighting.	The Azerbaijani enclave Nagorno was torn by further fighting.	88769423	1474253929448	1474253929539	t	84
171850	1868056	The Azerbaijani enclave Nagorno was torn by further fighting.	The Azerbaijani enclave Nagorno was torn by further fighting.	88769424	1474253929555	1474253929633	i	73
171850	1868056	The Azerbaijani enclave Nagorno was torn by further fighting.	The Azerbaijani enclave Nagorno was torn by further fighting.	88769425	1474253929704	1474253929806	n	78
171850	1868056	The Azerbaijani enclave Nagorno was torn by further fighting.	The Azerbaijani enclave Nagorno was torn by further fighting.	88769426	1474253929790	1474253929888	g	71
171850	1868056	The Azerbaijani enclave Nagorno was torn by further fighting.	The Azerbaijani enclave Nagorno was torn by further fighting.	88769427	1474253930372	1474253930457	.	190
171850	1868070	He cannot be in two places at once.	He cannot be in two places at once.	88769551	1474253932435	1474253932824	SHIFT	16
171850	1868070	He cannot be in two places at once.	He cannot be in two places at once.	88769544	1474253932734	1474253932801	H	72
171850	1868070	He cannot be in two places at once.	He cannot be in two places at once.	88769556	1474253932946	1474253933055	e	69
171850	1868070	He cannot be in two places at once.	He cannot be in two places at once.	88769564	1474253933063	1474253933163	 	32
171850	1868070	He cannot be in two places at once.	He cannot be in two places at once.	88769569	1474253933203	1474253933291	c	67
171850	1868070	He cannot be in two places at once.	He cannot be in two places at once.	88769576	1474253933370	1474253933501	a	65
171850	1868070	He cannot be in two places at once.	He cannot be in two places at once.	88769595	1474253933456	1474253933510	n	78
171850	1868070	He cannot be in two places at once.	He cannot be in two places at once.	88769598	1474253933582	1474253933642	n	78
171850	1868070	He cannot be in two places at once.	He cannot be in two places at once.	88769602	1474253933732	1474253933835	o	79
171850	1868070	He cannot be in two places at once.	He cannot be in two places at once.	88769608	1474253933851	1474253933930	t	84
171850	1868070	He cannot be in two places at once.	He cannot be in two places at once.	88769617	1474253933951	1474253934024	 	32
171850	1868070	He cannot be in two places at once.	He cannot be in two places at once.	88769623	1474253934089	1474253934171	b	66
171850	1868070	He cannot be in two places at once.	He cannot be in two places at once.	88769631	1474253934184	1474253934291	e	69
171850	1868070	He cannot be in two places at once.	He cannot be in two places at once.	88769632	1474253934442	1474253934532	 	32
171850	1868070	He cannot be in two places at once.	He cannot be in two places at once.	88769634	1474253934553	1474253934696	i	73
171850	1868070	He cannot be in two places at once.	He cannot be in two places at once.	88769636	1474253934683	1474253934836	n	78
171850	1868070	He cannot be in two places at once.	He cannot be in two places at once.	88769665	1474253934763	1474253934889	 	32
171850	1868070	He cannot be in two places at once.	He cannot be in two places at once.	88769667	1474253934873	1474253934968	t	84
171850	1868070	He cannot be in two places at once.	He cannot be in two places at once.	88769669	1474253935104	1474253935231	e	69
171850	1868070	He cannot be in two places at once.	He cannot be in two places at once.	88769671	1474253935204	1474253935387	o	79
171850	1868070	He cannot be in two places at once.	He cannot be in two places at once.	88769673	1474253935346	1474253935433	 	32
171850	1868070	He cannot be in two places at once.	He cannot be in two places at once.	88769675	1474253935554	1474253935615	BKSP	8
171850	1868070	He cannot be in two places at once.	He cannot be in two places at once.	88769677	1474253935696	1474253935748	BKSP	8
171850	1868070	He cannot be in two places at once.	He cannot be in two places at once.	88769679	1474253935825	1474253935899	BKSP	8
171850	1868070	He cannot be in two places at once.	He cannot be in two places at once.	88769686	1474253935888	1474253935960	w	87
171850	1868070	He cannot be in two places at once.	He cannot be in two places at once.	88769688	1474253936042	1474253936154	o	79
171850	1868070	He cannot be in two places at once.	He cannot be in two places at once.	88769690	1474253936092	1474253936217	 	32
171850	1868070	He cannot be in two places at once.	He cannot be in two places at once.	88769692	1474253936264	1474253936401	p	80
171850	1868070	He cannot be in two places at once.	He cannot be in two places at once.	88769695	1474253936386	1474253936515	l	76
171850	1868070	He cannot be in two places at once.	He cannot be in two places at once.	88769700	1474253936522	1474253936632	a	65
171850	1868070	He cannot be in two places at once.	He cannot be in two places at once.	88769715	1474253936707	1474253936808	c	67
171850	1868070	He cannot be in two places at once.	He cannot be in two places at once.	88769717	1474253936874	1474253936986	e	69
171850	1868070	He cannot be in two places at once.	He cannot be in two places at once.	88769719	1474253937042	1474253937162	s	83
171850	1868070	He cannot be in two places at once.	He cannot be in two places at once.	88769723	1474253937128	1474253937224	 	32
171850	1868070	He cannot be in two places at once.	He cannot be in two places at once.	88769726	1474253937252	1474253937357	a	65
171850	1868070	He cannot be in two places at once.	He cannot be in two places at once.	88769743	1474253937436	1474253937514	t	84
171850	1868070	He cannot be in two places at once.	He cannot be in two places at once.	88769744	1474253937499	1474253937567	 	32
171850	1868070	He cannot be in two places at once.	He cannot be in two places at once.	88769745	1474253937616	1474253937706	o	79
171850	1868070	He cannot be in two places at once.	He cannot be in two places at once.	88769746	1474253937747	1474253937856	n	78
171850	1868070	He cannot be in two places at once.	He cannot be in two places at once.	88769748	1474253937979	1474253938068	c	67
171850	1868070	He cannot be in two places at once.	He cannot be in two places at once.	88769817	1474253938116	1474253938225	e	69
171850	1868070	He cannot be in two places at once.	He cannot be in two places at once.	88769826	1474253938245	1474253938338	.	190
171850	1868070	He cannot be in two places at once.	He cannot be in two places at once.	88769832	1474253938532	1474253938574	\	220
171850	1868070	He cannot be in two places at once.	He cannot be in two places at once.	88769837	1474253939003	1474253939071	BKSP	8
