PARTICIPANT_ID	TEST_SECTION_ID	SENTENCE	USER_INPUT	KEYSTROKE_ID	PRESS_TIME	RELEASE_TIME	LETTER	KEYCODE
173767	1889345	Get with David Lund.	Get with Daivd Lund. 	89797336	1474286235967	1474286236446	SHIFT	16
173767	1889345	Get with David Lund.	Get with Daivd Lund. 	89797340	1474286236374	1474286236454	G	71
173767	1889345	Get with David Lund.	Get with Daivd Lund. 	89797343	1474286236494	1474286236622	e	69
173767	1889345	Get with David Lund.	Get with Daivd Lund. 	89797345	1474286236590	1474286236702	t	84
173767	1889345	Get with David Lund.	Get with Daivd Lund. 	89797347	1474286236750	1474286236830	 	32
173767	1889345	Get with David Lund.	Get with Daivd Lund. 	89797349	1474286237198	1474286237294	w	87
173767	1889345	Get with David Lund.	Get with Daivd Lund. 	89797363	1474286237326	1474286237398	i	73
173767	1889345	Get with David Lund.	Get with Daivd Lund. 	89797365	1474286237414	1474286237495	t	84
173767	1889345	Get with David Lund.	Get with Daivd Lund. 	89797367	1474286237478	1474286237542	h	72
173767	1889345	Get with David Lund.	Get with Daivd Lund. 	89797369	1474286237622	1474286237694	 	32
173767	1889345	Get with David Lund.	Get with Daivd Lund. 	89797370	1474286237726	1474286237862	SHIFT	16
173767	1889345	Get with David Lund.	Get with Daivd Lund. 	89797372	1474286237782	1474286237886	D	68
173767	1889345	Get with David Lund.	Get with Daivd Lund. 	89797376	1474286237915	1474286238030	a	65
173767	1889345	Get with David Lund.	Get with Daivd Lund. 	89797382	1474286238054	1474286238142	v	73
173767	1889345	Get with David Lund.	Get with Daivd Lund. 	89797387	1474286238254	1474286238390	d	68
173767	1889345	Get with David Lund.	Get with Daivd Lund. 	89797392	1474286238398	1474286238526	 	32
173767	1889345	Get with David Lund.	Get with Daivd Lund. 	89797403	1474286238470	1474286238638	SHIFT	16
173767	1889345	Get with David Lund.	Get with Daivd Lund. 	89797404	1474286238550	1474286238654	L	76
173767	1889345	Get with David Lund.	Get with Daivd Lund. 	89797405	1474286238782	1474286238902	u	85
173767	1889345	Get with David Lund.	Get with Daivd Lund. 	89797408	1474286238894	1474286238966	n	78
173767	1889345	Get with David Lund.	Get with Daivd Lund. 	89797410	1474286238950	1474286239014	d	68
173767	1889345	Get with David Lund.	Get with Daivd Lund. 	89797412	1474286239174	1474286239262	.	190
173767	1889345	Get with David Lund.	Get with Daivd Lund. 	89797422	1474286239374	1474286239470	 	32
173767	1889347	She called and wants to come over this AM.	She called and wants to come over this AM.	89797536	1474286242478	1474286242654	SHIFT	16
173767	1889347	She called and wants to come over this AM.	She called and wants to come over this AM.	89797539	1474286242622	1474286242710	S	83
173767	1889347	She called and wants to come over this AM.	She called and wants to come over this AM.	89797543	1474286242734	1474286242806	h	72
173767	1889347	She called and wants to come over this AM.	She called and wants to come over this AM.	89797545	1474286242822	1474286242894	e	69
173767	1889347	She called and wants to come over this AM.	She called and wants to come over this AM.	89797548	1474286242910	1474286242998	 	32
173767	1889347	She called and wants to come over this AM.	She called and wants to come over this AM.	89797556	1474286242990	1474286243102	c	67
173767	1889347	She called and wants to come over this AM.	She called and wants to come over this AM.	89797559	1474286243054	1474286243174	a	65
173767	1889347	She called and wants to come over this AM.	She called and wants to come over this AM.	89797561	1474286243142	1474286243206	l	76
173767	1889347	She called and wants to come over this AM.	She called and wants to come over this AM.	89797563	1474286243286	1474286243350	l	76
173767	1889347	She called and wants to come over this AM.	She called and wants to come over this AM.	89797565	1474286243374	1474286243454	e	69
173767	1889347	She called and wants to come over this AM.	She called and wants to come over this AM.	89797577	1474286243422	1474286243510	d	68
173767	1889347	She called and wants to come over this AM.	She called and wants to come over this AM.	89797578	1474286243518	1474286243590	 	32
173767	1889347	She called and wants to come over this AM.	She called and wants to come over this AM.	89797579	1474286243606	1474286243710	a	65
173767	1889347	She called and wants to come over this AM.	She called and wants to come over this AM.	89797580	1474286243719	1474286243782	n	78
173767	1889347	She called and wants to come over this AM.	She called and wants to come over this AM.	89797582	1474286243806	1474286243862	d	68
173767	1889347	She called and wants to come over this AM.	She called and wants to come over this AM.	89797583	1474286243878	1474286243975	 	32
173767	1889347	She called and wants to come over this AM.	She called and wants to come over this AM.	89797600	1474286243958	1474286244094	w	87
173767	1889347	She called and wants to come over this AM.	She called and wants to come over this AM.	89797603	1474286244054	1474286244166	a	65
173767	1889347	She called and wants to come over this AM.	She called and wants to come over this AM.	89797605	1474286244182	1474286244270	n	78
173767	1889347	She called and wants to come over this AM.	She called and wants to come over this AM.	89797607	1474286244278	1474286244366	t	84
173767	1889347	She called and wants to come over this AM.	She called and wants to come over this AM.	89797610	1474286244534	1474286244606	s	83
173767	1889347	She called and wants to come over this AM.	She called and wants to come over this AM.	89797613	1474286244678	1474286244766	 	32
173767	1889347	She called and wants to come over this AM.	She called and wants to come over this AM.	89797619	1474286244806	1474286244886	t	84
173767	1889347	She called and wants to come over this AM.	She called and wants to come over this AM.	89797620	1474286244894	1474286244966	o	79
173767	1889347	She called and wants to come over this AM.	She called and wants to come over this AM.	89797621	1474286245014	1474286245094	 	32
173767	1889347	She called and wants to come over this AM.	She called and wants to come over this AM.	89797622	1474286245158	1474286245238	c	67
173767	1889347	She called and wants to come over this AM.	She called and wants to come over this AM.	89797635	1474286245198	1474286245294	o	79
173767	1889347	She called and wants to come over this AM.	She called and wants to come over this AM.	89797638	1474286245310	1474286245334	m	77
173767	1889347	She called and wants to come over this AM.	She called and wants to come over this AM.	89797641	1474286245358	1474286245422	e	69
173767	1889347	She called and wants to come over this AM.	She called and wants to come over this AM.	89797648	1474286245470	1474286245558	 	32
173767	1889347	She called and wants to come over this AM.	She called and wants to come over this AM.	89797652	1474286245830	1474286245910	o	79
173767	1889347	She called and wants to come over this AM.	She called and wants to come over this AM.	89797656	1474286246198	1474286246270	v	86
173767	1889347	She called and wants to come over this AM.	She called and wants to come over this AM.	89797661	1474286246406	1474286246510	e	69
173767	1889347	She called and wants to come over this AM.	She called and wants to come over this AM.	89797663	1474286246478	1474286246566	r	82
173767	1889347	She called and wants to come over this AM.	She called and wants to come over this AM.	89797665	1474286246574	1474286246646	 	32
173767	1889347	She called and wants to come over this AM.	She called and wants to come over this AM.	89797667	1474286246662	1474286246726	t	84
173767	1889347	She called and wants to come over this AM.	She called and wants to come over this AM.	89797669	1474286246774	1474286246854	h	72
173767	1889347	She called and wants to come over this AM.	She called and wants to come over this AM.	89797699	1474286246926	1474286247006	e	69
173767	1889347	She called and wants to come over this AM.	She called and wants to come over this AM.	89797702	1474286247342	1474286247422	BKSP	8
173767	1889347	She called and wants to come over this AM.	She called and wants to come over this AM.	89797705	1474286247518	1474286247606	i	73
173767	1889347	She called and wants to come over this AM.	She called and wants to come over this AM.	89797707	1474286247574	1474286247662	s	83
173767	1889347	She called and wants to come over this AM.	She called and wants to come over this AM.	89797713	1474286247630	1474286247766	 	32
173767	1889347	She called and wants to come over this AM.	She called and wants to come over this AM.	89797726	1474286247998	1474286248326	SHIFT	16
173767	1889347	She called and wants to come over this AM.	She called and wants to come over this AM.	89797717	1474286248086	1474286248206	A	65
173767	1889347	She called and wants to come over this AM.	She called and wants to come over this AM.	89797724	1474286248166	1474286248270	M	77
173767	1889347	She called and wants to come over this AM.	She called and wants to come over this AM.	89797728	1474286248462	1474286248534	.	190
173767	1889355	This is a golden moment.	This is a golden moment.	89797856	1474286252222	1474286252382	SHIFT	16
173767	1889355	This is a golden moment.	This is a golden moment.	89797860	1474286252342	1474286252430	T	84
173767	1889355	This is a golden moment.	This is a golden moment.	89797861	1474286252462	1474286252534	h	72
173767	1889355	This is a golden moment.	This is a golden moment.	89797862	1474286252486	1474286252590	i	73
173767	1889355	This is a golden moment.	This is a golden moment.	89797863	1474286252574	1474286252662	s	83
173767	1889355	This is a golden moment.	This is a golden moment.	89797865	1474286252678	1474286252750	 	32
173767	1889355	This is a golden moment.	This is a golden moment.	89797873	1474286252806	1474286252886	i	73
173767	1889355	This is a golden moment.	This is a golden moment.	89797875	1474286252878	1474286252942	s	83
173767	1889355	This is a golden moment.	This is a golden moment.	89797877	1474286252950	1474286253030	 	32
173767	1889355	This is a golden moment.	This is a golden moment.	89797878	1474286253054	1474286253134	a	65
173767	1889355	This is a golden moment.	This is a golden moment.	89797893	1474286253110	1474286253206	 	32
173767	1889355	This is a golden moment.	This is a golden moment.	89797894	1474286253254	1474286253326	g	71
173767	1889355	This is a golden moment.	This is a golden moment.	89797895	1474286253294	1474286253374	o	79
173767	1889355	This is a golden moment.	This is a golden moment.	89797896	1474286253462	1474286253550	l	76
173767	1889355	This is a golden moment.	This is a golden moment.	89797897	1474286253558	1474286253686	d	68
173767	1889355	This is a golden moment.	This is a golden moment.	89797898	1474286253815	1474286253910	e	69
173767	1889355	This is a golden moment.	This is a golden moment.	89797913	1474286253894	1474286253966	n	78
173767	1889355	This is a golden moment.	This is a golden moment.	89797915	1474286254030	1474286254118	 	32
173767	1889355	This is a golden moment.	This is a golden moment.	89797917	1474286254166	1474286254222	m	77
173767	1889355	This is a golden moment.	This is a golden moment.	89797919	1474286254278	1474286254390	o	79
173767	1889355	This is a golden moment.	This is a golden moment.	89797921	1474286254358	1474286254462	m	77
173767	1889355	This is a golden moment.	This is a golden moment.	89797922	1474286254494	1474286254558	e	69
173767	1889355	This is a golden moment.	This is a golden moment.	89797932	1474286254598	1474286254678	n	78
173767	1889355	This is a golden moment.	This is a golden moment.	89797933	1474286254678	1474286254758	t	84
173767	1889355	This is a golden moment.	This is a golden moment.	89797934	1474286254838	1474286254918	.	190
173767	1889363	Peace talks last week in Kirghizstan.	Peace talks last week in Kirghizstam.	89798093	1474286260950	1474286261070	SHIFT	16
173767	1889363	Peace talks last week in Kirghizstan.	Peace talks last week in Kirghizstam.	89798094	1474286260990	1474286261086	P	80
173767	1889363	Peace talks last week in Kirghizstan.	Peace talks last week in Kirghizstam.	89798095	1474286261102	1474286261190	e	69
173767	1889363	Peace talks last week in Kirghizstan.	Peace talks last week in Kirghizstam.	89798096	1474286261207	1474286261326	a	65
173767	1889363	Peace talks last week in Kirghizstan.	Peace talks last week in Kirghizstam.	89798098	1474286261318	1474286261454	c	67
173767	1889363	Peace talks last week in Kirghizstan.	Peace talks last week in Kirghizstam.	89798111	1474286261422	1474286261494	e	69
173767	1889363	Peace talks last week in Kirghizstan.	Peace talks last week in Kirghizstam.	89798114	1474286261502	1474286261574	 	32
173767	1889363	Peace talks last week in Kirghizstan.	Peace talks last week in Kirghizstam.	89798116	1474286261606	1474286261694	t	84
173767	1889363	Peace talks last week in Kirghizstan.	Peace talks last week in Kirghizstam.	89798122	1474286261790	1474286261910	a	65
173767	1889363	Peace talks last week in Kirghizstan.	Peace talks last week in Kirghizstam.	89798128	1474286261886	1474286262014	l	76
173767	1889363	Peace talks last week in Kirghizstan.	Peace talks last week in Kirghizstam.	89798150	1474286261934	1474286262038	k	75
173767	1889363	Peace talks last week in Kirghizstan.	Peace talks last week in Kirghizstam.	89798154	1474286262022	1474286262102	s	83
173767	1889363	Peace talks last week in Kirghizstan.	Peace talks last week in Kirghizstam.	89798158	1474286262142	1474286262230	 	32
173767	1889363	Peace talks last week in Kirghizstan.	Peace talks last week in Kirghizstam.	89798160	1474286262334	1474286262438	l	76
173767	1889363	Peace talks last week in Kirghizstan.	Peace talks last week in Kirghizstam.	89798163	1474286262534	1474286262694	a	65
173767	1889363	Peace talks last week in Kirghizstan.	Peace talks last week in Kirghizstam.	89798169	1474286262622	1474286262734	s	83
173767	1889363	Peace talks last week in Kirghizstan.	Peace talks last week in Kirghizstam.	89798172	1474286262822	1474286262902	t	84
173767	1889363	Peace talks last week in Kirghizstan.	Peace talks last week in Kirghizstam.	89798175	1474286262918	1474286262998	 	32
173767	1889363	Peace talks last week in Kirghizstan.	Peace talks last week in Kirghizstam.	89798178	1474286262990	1474286263102	w	87
173767	1889363	Peace talks last week in Kirghizstan.	Peace talks last week in Kirghizstam.	89798181	1474286263078	1474286263150	e	69
173767	1889363	Peace talks last week in Kirghizstan.	Peace talks last week in Kirghizstam.	89798183	1474286263238	1474286263326	e	69
173767	1889363	Peace talks last week in Kirghizstan.	Peace talks last week in Kirghizstam.	89798190	1474286263374	1474286263486	k	75
173767	1889363	Peace talks last week in Kirghizstan.	Peace talks last week in Kirghizstam.	89798194	1474286263502	1474286263606	 	32
173767	1889363	Peace talks last week in Kirghizstan.	Peace talks last week in Kirghizstam.	89798197	1474286263646	1474286263686	n	73
173767	1889363	Peace talks last week in Kirghizstan.	Peace talks last week in Kirghizstam.	89798259	1474286263710	1474286263798	 	32
173767	1889363	Peace talks last week in Kirghizstan.	Peace talks last week in Kirghizstam.	89798265	1474286264366	1474286264566	SHIFT	16
173767	1889363	Peace talks last week in Kirghizstan.	Peace talks last week in Kirghizstam.	89798262	1474286264462	1474286264550	K	75
173767	1889363	Peace talks last week in Kirghizstan.	Peace talks last week in Kirghizstam.	89798272	1474286264662	1474286264742	i	73
173767	1889363	Peace talks last week in Kirghizstan.	Peace talks last week in Kirghizstam.	89798277	1474286264774	1474286264846	r	82
173767	1889363	Peace talks last week in Kirghizstan.	Peace talks last week in Kirghizstam.	89798283	1474286264894	1474286264974	k	75
173767	1889363	Peace talks last week in Kirghizstan.	Peace talks last week in Kirghizstam.	89798289	1474286265174	1474286265246	BKSP	8
173767	1889363	Peace talks last week in Kirghizstan.	Peace talks last week in Kirghizstam.	89798293	1474286265918	1474286266022	g	71
173767	1889363	Peace talks last week in Kirghizstan.	Peace talks last week in Kirghizstam.	89798317	1474286266014	1474286266086	h	72
173767	1889363	Peace talks last week in Kirghizstan.	Peace talks last week in Kirghizstam.	89798321	1474286266166	1474286266254	i	73
173767	1889363	Peace talks last week in Kirghizstan.	Peace talks last week in Kirghizstam.	89798325	1474286266462	1474286266582	z	90
173767	1889363	Peace talks last week in Kirghizstan.	Peace talks last week in Kirghizstam.	89798329	1474286266702	1474286266806	s	83
173767	1889363	Peace talks last week in Kirghizstan.	Peace talks last week in Kirghizstam.	89798332	1474286266926	1474286267006	t	84
173767	1889363	Peace talks last week in Kirghizstan.	Peace talks last week in Kirghizstam.	89798336	1474286267094	1474286267230	a	65
173767	1889363	Peace talks last week in Kirghizstan.	Peace talks last week in Kirghizstam.	89798340	1474286267174	1474286267246	m	77
173767	1889363	Peace talks last week in Kirghizstan.	Peace talks last week in Kirghizstam.	89798346	1474286267374	1474286267462	.	190
173767	1889371	What a nice note.	What a nice note.	89798424	1474286270286	1474286270430	SHIFT	16
173767	1889371	What a nice note.	What a nice note.	89798426	1474286270366	1474286270454	W	87
173767	1889371	What a nice note.	What a nice note.	89798428	1474286270510	1474286270606	h	72
173767	1889371	What a nice note.	What a nice note.	89798430	1474286270574	1474286270670	a	65
173767	1889371	What a nice note.	What a nice note.	89798433	1474286270662	1474286270750	t	84
173767	1889371	What a nice note.	What a nice note.	89798441	1474286270758	1474286270830	 	32
173767	1889371	What a nice note.	What a nice note.	89798446	1474286270838	1474286270942	a	65
173767	1889371	What a nice note.	What a nice note.	89798450	1474286270918	1474286270998	 	32
173767	1889371	What a nice note.	What a nice note.	89798453	1474286271094	1474286271183	n	78
173767	1889371	What a nice note.	What a nice note.	89798458	1474286271166	1474286271232	i	73
173767	1889371	What a nice note.	What a nice note.	89798464	1474286271230	1474286271286	c	67
173767	1889371	What a nice note.	What a nice note.	89798465	1474286271262	1474286271351	e	69
173767	1889371	What a nice note.	What a nice note.	89798467	1474286271334	1474286271422	 	32
173767	1889371	What a nice note.	What a nice note.	89798470	1474286271494	1474286271598	n	78
173767	1889371	What a nice note.	What a nice note.	89798473	1474286271574	1474286271670	o	79
173767	1889371	What a nice note.	What a nice note.	89798482	1474286271646	1474286271766	t	84
173767	1889371	What a nice note.	What a nice note.	89798484	1474286271686	1474286271814	e	69
173767	1889371	What a nice note.	What a nice note.	89798488	1474286271822	1474286271902	.	190
173767	1889374	The loans were allegedly made to players.	The loans were allegedly made to players.	89798656	1474286275942	1474286276134	SHIFT	16
173767	1889374	The loans were allegedly made to players.	The loans were allegedly made to players.	89798658	1474286277262	1474286277542	SHIFT	16
173767	1889374	The loans were allegedly made to players.	The loans were allegedly made to players.	89798664	1474286278710	1474286278806	SHIFT	16
173767	1889374	The loans were allegedly made to players.	The loans were allegedly made to players.	89798666	1474286279094	1474286279206	SHIFT	16
173767	1889374	The loans were allegedly made to players.	The loans were allegedly made to players.	89798670	1474286279486	1474286279638	SHIFT	16
173767	1889374	The loans were allegedly made to players.	The loans were allegedly made to players.	89798674	1474286279926	1474286280126	SHIFT	16
173767	1889374	The loans were allegedly made to players.	The loans were allegedly made to players.	89798676	1474286280078	1474286280174	T	84
173767	1889374	The loans were allegedly made to players.	The loans were allegedly made to players.	89798677	1474286280182	1474286280270	h	72
173767	1889374	The loans were allegedly made to players.	The loans were allegedly made to players.	89798678	1474286280278	1474286280358	e	69
173767	1889374	The loans were allegedly made to players.	The loans were allegedly made to players.	89798679	1474286280366	1474286280446	 	32
173767	1889374	The loans were allegedly made to players.	The loans were allegedly made to players.	89798680	1474286280518	1474286280598	l	76
173767	1889374	The loans were allegedly made to players.	The loans were allegedly made to players.	89798681	1474286280662	1474286280750	o	79
173767	1889374	The loans were allegedly made to players.	The loans were allegedly made to players.	89798682	1474286280766	1474286280854	a	65
173767	1889374	The loans were allegedly made to players.	The loans were allegedly made to players.	89798683	1474286280846	1474286280934	n	78
173767	1889374	The loans were allegedly made to players.	The loans were allegedly made to players.	89798684	1474286280958	1474286281014	s	83
173767	1889374	The loans were allegedly made to players.	The loans were allegedly made to players.	89798685	1474286281022	1474286281110	 	32
173767	1889374	The loans were allegedly made to players.	The loans were allegedly made to players.	89798689	1474286281118	1474286281190	w	87
173767	1889374	The loans were allegedly made to players.	The loans were allegedly made to players.	89798692	1474286281278	1474286281382	e	69
173767	1889374	The loans were allegedly made to players.	The loans were allegedly made to players.	89798694	1474286281366	1474286281502	r	82
173767	1889374	The loans were allegedly made to players.	The loans were allegedly made to players.	89798697	1474286281454	1474286281558	e	69
173767	1889374	The loans were allegedly made to players.	The loans were allegedly made to players.	89798699	1474286281574	1474286281670	 	32
173767	1889374	The loans were allegedly made to players.	The loans were allegedly made to players.	89798703	1474286281694	1474286281808	a	65
173767	1889374	The loans were allegedly made to players.	The loans were allegedly made to players.	89798707	1474286281782	1474286281846	l	76
173767	1889374	The loans were allegedly made to players.	The loans were allegedly made to players.	89798710	1474286281918	1474286282006	l	76
173767	1889374	The loans were allegedly made to players.	The loans were allegedly made to players.	89798712	1474286282046	1474286282142	e	69
173767	1889374	The loans were allegedly made to players.	The loans were allegedly made to players.	89798715	1474286282118	1474286282238	g	71
173767	1889374	The loans were allegedly made to players.	The loans were allegedly made to players.	89798717	1474286282278	1474286282398	e	69
173767	1889374	The loans were allegedly made to players.	The loans were allegedly made to players.	89798720	1474286282582	1474286282718	d	68
173767	1889374	The loans were allegedly made to players.	The loans were allegedly made to players.	89798724	1474286282782	1474286282870	l	76
173767	1889374	The loans were allegedly made to players.	The loans were allegedly made to players.	89798728	1474286282870	1474286282974	y	89
173767	1889374	The loans were allegedly made to players.	The loans were allegedly made to players.	89798731	1474286282990	1474286283070	 	32
173767	1889374	The loans were allegedly made to players.	The loans were allegedly made to players.	89798752	1474286283118	1474286283206	t	84
173767	1889374	The loans were allegedly made to players.	The loans were allegedly made to players.	89798753	1474286283182	1474286283270	o	79
173767	1889374	The loans were allegedly made to players.	The loans were allegedly made to players.	89798754	1474286283438	1474286283534	 	32
173767	1889374	The loans were allegedly made to players.	The loans were allegedly made to players.	89798755	1474286283766	1474286283822	BKSP	8
173767	1889374	The loans were allegedly made to players.	The loans were allegedly made to players.	89798756	1474286283894	1474286283950	BKSP	8
173767	1889374	The loans were allegedly made to players.	The loans were allegedly made to players.	89798757	1474286284022	1474286284102	BKSP	8
173767	1889374	The loans were allegedly made to players.	The loans were allegedly made to players.	89798758	1474286284214	1474286284286	m	77
173767	1889374	The loans were allegedly made to players.	The loans were allegedly made to players.	89798759	1474286284246	1474286284350	a	65
173767	1889374	The loans were allegedly made to players.	The loans were allegedly made to players.	89798760	1474286284350	1474286284470	d	68
173767	1889374	The loans were allegedly made to players.	The loans were allegedly made to players.	89798761	1474286284422	1474286284518	e	69
173767	1889374	The loans were allegedly made to players.	The loans were allegedly made to players.	89798762	1474286284510	1474286284582	 	32
173767	1889374	The loans were allegedly made to players.	The loans were allegedly made to players.	89798763	1474286284630	1474286284718	t	84
173767	1889374	The loans were allegedly made to players.	The loans were allegedly made to players.	89798767	1474286284686	1474286284758	o	79
173767	1889374	The loans were allegedly made to players.	The loans were allegedly made to players.	89798768	1474286284814	1474286284886	 	32
173767	1889374	The loans were allegedly made to players.	The loans were allegedly made to players.	89798769	1474286284958	1474286285062	p	80
173767	1889374	The loans were allegedly made to players.	The loans were allegedly made to players.	89798771	1474286285030	1474286285118	l	76
173767	1889374	The loans were allegedly made to players.	The loans were allegedly made to players.	89798773	1474286285086	1474286285174	a	65
173767	1889374	The loans were allegedly made to players.	The loans were allegedly made to players.	89798775	1474286285278	1474286285342	y	89
173767	1889374	The loans were allegedly made to players.	The loans were allegedly made to players.	89798783	1474286285334	1474286285422	e	69
173767	1889374	The loans were allegedly made to players.	The loans were allegedly made to players.	89798786	1474286285390	1474286285462	r	82
173767	1889374	The loans were allegedly made to players.	The loans were allegedly made to players.	89798790	1474286285542	1474286285629	s	83
173767	1889383	The exercises will be staged in the West and Mid-Pacific region.	The exercise will be staged in the West and Mid-Pacific region	89798880	1474286288606	1474286288846	SHIFT	16
173767	1889383	The exercises will be staged in the West and Mid-Pacific region.	The exercise will be staged in the West and Mid-Pacific region	89798881	1474286288798	1474286288886	T	84
173767	1889383	The exercises will be staged in the West and Mid-Pacific region.	The exercise will be staged in the West and Mid-Pacific region	89798882	1474286288918	1474286288998	h	72
173767	1889383	The exercises will be staged in the West and Mid-Pacific region.	The exercise will be staged in the West and Mid-Pacific region	89798883	1474286288982	1474286289062	e	69
173767	1889383	The exercises will be staged in the West and Mid-Pacific region.	The exercise will be staged in the West and Mid-Pacific region	89798884	1474286289086	1474286289183	 	32
173767	1889383	The exercises will be staged in the West and Mid-Pacific region.	The exercise will be staged in the West and Mid-Pacific region	89798909	1474286289182	1474286289286	e	69
173767	1889383	The exercises will be staged in the West and Mid-Pacific region.	The exercise will be staged in the West and Mid-Pacific region	89798911	1474286289494	1474286289574	x	88
173767	1889383	The exercises will be staged in the West and Mid-Pacific region.	The exercise will be staged in the West and Mid-Pacific region	89798912	1474286289718	1474286289838	e	69
173767	1889383	The exercises will be staged in the West and Mid-Pacific region.	The exercise will be staged in the West and Mid-Pacific region	89798913	1474286289798	1474286289894	r	82
173767	1889383	The exercises will be staged in the West and Mid-Pacific region.	The exercise will be staged in the West and Mid-Pacific region	89798914	1474286289998	1474286290086	c	67
173767	1889383	The exercises will be staged in the West and Mid-Pacific region.	The exercise will be staged in the West and Mid-Pacific region	89798915	1474286290102	1474286290198	i	73
173767	1889383	The exercises will be staged in the West and Mid-Pacific region.	The exercise will be staged in the West and Mid-Pacific region	89798925	1474286290190	1474286290262	s	83
173767	1889383	The exercises will be staged in the West and Mid-Pacific region.	The exercise will be staged in the West and Mid-Pacific region	89798927	1474286290350	1474286290414	e	69
173767	1889383	The exercises will be staged in the West and Mid-Pacific region.	The exercise will be staged in the West and Mid-Pacific region	89798928	1474286290438	1474286290510	 	32
173767	1889383	The exercises will be staged in the West and Mid-Pacific region.	The exercise will be staged in the West and Mid-Pacific region	89798929	1474286290542	1474286290598	w	87
173767	1889383	The exercises will be staged in the West and Mid-Pacific region.	The exercise will be staged in the West and Mid-Pacific region	89798930	1474286290582	1474286290662	i	73
173767	1889383	The exercises will be staged in the West and Mid-Pacific region.	The exercise will be staged in the West and Mid-Pacific region	89798931	1474286290758	1474286290814	l	76
173767	1889383	The exercises will be staged in the West and Mid-Pacific region.	The exercise will be staged in the West and Mid-Pacific region	89798942	1474286290886	1474286290958	l	76
173767	1889383	The exercises will be staged in the West and Mid-Pacific region.	The exercise will be staged in the West and Mid-Pacific region	89798944	1474286290998	1474286291086	 	32
173767	1889383	The exercises will be staged in the West and Mid-Pacific region.	The exercise will be staged in the West and Mid-Pacific region	89798945	1474286291190	1474286291278	b	66
173767	1889383	The exercises will be staged in the West and Mid-Pacific region.	The exercise will be staged in the West and Mid-Pacific region	89798946	1474286291318	1474286291390	e	69
173767	1889383	The exercises will be staged in the West and Mid-Pacific region.	The exercise will be staged in the West and Mid-Pacific region	89798947	1474286291414	1474286291510	 	32
173767	1889383	The exercises will be staged in the West and Mid-Pacific region.	The exercise will be staged in the West and Mid-Pacific region	89798968	1474286291710	1474286291782	s	83
173767	1889383	The exercises will be staged in the West and Mid-Pacific region.	The exercise will be staged in the West and Mid-Pacific region	89798969	1474286291926	1474286291990	t	84
173767	1889383	The exercises will be staged in the West and Mid-Pacific region.	The exercise will be staged in the West and Mid-Pacific region	89798970	1474286292094	1474286292190	a	65
173767	1889383	The exercises will be staged in the West and Mid-Pacific region.	The exercise will be staged in the West and Mid-Pacific region	89798971	1474286292158	1474286292254	g	71
173767	1889383	The exercises will be staged in the West and Mid-Pacific region.	The exercise will be staged in the West and Mid-Pacific region	89798972	1474286292286	1474286292406	e	69
173767	1889383	The exercises will be staged in the West and Mid-Pacific region.	The exercise will be staged in the West and Mid-Pacific region	89798973	1474286292358	1474286292465	d	68
173767	1889383	The exercises will be staged in the West and Mid-Pacific region.	The exercise will be staged in the West and Mid-Pacific region	89798974	1474286292446	1474286292518	 	32
173767	1889383	The exercises will be staged in the West and Mid-Pacific region.	The exercise will be staged in the West and Mid-Pacific region	89798975	1474286292582	1474286292710	i	73
173767	1889383	The exercises will be staged in the West and Mid-Pacific region.	The exercise will be staged in the West and Mid-Pacific region	89798976	1474286292662	1474286292766	n	78
173767	1889383	The exercises will be staged in the West and Mid-Pacific region.	The exercise will be staged in the West and Mid-Pacific region	89798977	1474286292718	1474286292790	 	32
173767	1889383	The exercises will be staged in the West and Mid-Pacific region.	The exercise will be staged in the West and Mid-Pacific region	89798978	1474286292830	1474286292918	t	84
173767	1889383	The exercises will be staged in the West and Mid-Pacific region.	The exercise will be staged in the West and Mid-Pacific region	89798992	1474286292910	1474286293014	h	72
173767	1889383	The exercises will be staged in the West and Mid-Pacific region.	The exercise will be staged in the West and Mid-Pacific region	89798994	1474286293006	1474286293102	e	69
173767	1889383	The exercises will be staged in the West and Mid-Pacific region.	The exercise will be staged in the West and Mid-Pacific region	89798996	1474286293110	1474286293198	 	32
173767	1889383	The exercises will be staged in the West and Mid-Pacific region.	The exercise will be staged in the West and Mid-Pacific region	89798998	1474286293222	1474286293382	SHIFT	16
173767	1889383	The exercises will be staged in the West and Mid-Pacific region.	The exercise will be staged in the West and Mid-Pacific region	89799000	1474286293310	1474286293398	W	87
173767	1889383	The exercises will be staged in the West and Mid-Pacific region.	The exercise will be staged in the West and Mid-Pacific region	89799001	1474286293438	1474286293510	e	69
173767	1889383	The exercises will be staged in the West and Mid-Pacific region.	The exercise will be staged in the West and Mid-Pacific region	89799002	1474286293622	1474286293702	s	83
173767	1889383	The exercises will be staged in the West and Mid-Pacific region.	The exercise will be staged in the West and Mid-Pacific region	89799006	1474286293814	1474286293894	t	84
173767	1889383	The exercises will be staged in the West and Mid-Pacific region.	The exercise will be staged in the West and Mid-Pacific region	89799008	1474286293902	1474286293974	 	32
173767	1889383	The exercises will be staged in the West and Mid-Pacific region.	The exercise will be staged in the West and Mid-Pacific region	89799010	1474286294006	1474286294086	a	65
173767	1889383	The exercises will be staged in the West and Mid-Pacific region.	The exercise will be staged in the West and Mid-Pacific region	89799012	1474286294094	1474286294183	n	78
173767	1889383	The exercises will be staged in the West and Mid-Pacific region.	The exercise will be staged in the West and Mid-Pacific region	89799024	1474286294182	1474286294286	d	68
173767	1889383	The exercises will be staged in the West and Mid-Pacific region.	The exercise will be staged in the West and Mid-Pacific region	89799026	1474286294286	1474286294382	 	32
173767	1889383	The exercises will be staged in the West and Mid-Pacific region.	The exercise will be staged in the West and Mid-Pacific region	89799028	1474286294310	1474286294462	SHIFT	16
173767	1889383	The exercises will be staged in the West and Mid-Pacific region.	The exercise will be staged in the West and Mid-Pacific region	89799030	1474286294390	1474286294478	M	77
173767	1889383	The exercises will be staged in the West and Mid-Pacific region.	The exercise will be staged in the West and Mid-Pacific region	89799032	1474286294566	1474286294646	i	73
173767	1889383	The exercises will be staged in the West and Mid-Pacific region.	The exercise will be staged in the West and Mid-Pacific region	89799034	1474286294654	1474286294718	d	68
173767	1889383	The exercises will be staged in the West and Mid-Pacific region.	The exercise will be staged in the West and Mid-Pacific region	89799035	1474286294790	1474286294886	-	189
173767	1889383	The exercises will be staged in the West and Mid-Pacific region.	The exercise will be staged in the West and Mid-Pacific region	89799066	1474286295030	1474286295382	SHIFT	16
173767	1889383	The exercises will be staged in the West and Mid-Pacific region.	The exercise will be staged in the West and Mid-Pacific region	89799063	1474286295270	1474286295350	P	80
173767	1889383	The exercises will be staged in the West and Mid-Pacific region.	The exercise will be staged in the West and Mid-Pacific region	89799069	1474286295454	1474286295566	a	65
173767	1889383	The exercises will be staged in the West and Mid-Pacific region.	The exercise will be staged in the West and Mid-Pacific region	89799073	1474286295526	1474286295630	c	67
173767	1889383	The exercises will be staged in the West and Mid-Pacific region.	The exercise will be staged in the West and Mid-Pacific region	89799075	1474286295638	1474286295718	i	73
173767	1889383	The exercises will be staged in the West and Mid-Pacific region.	The exercise will be staged in the West and Mid-Pacific region	89799078	1474286295758	1474286295838	f	70
173767	1889383	The exercises will be staged in the West and Mid-Pacific region.	The exercise will be staged in the West and Mid-Pacific region	89799091	1474286295846	1474286295950	i	73
173767	1889383	The exercises will be staged in the West and Mid-Pacific region.	The exercise will be staged in the West and Mid-Pacific region	89799094	1474286295982	1474286296086	c	67
173767	1889383	The exercises will be staged in the West and Mid-Pacific region.	The exercise will be staged in the West and Mid-Pacific region	89799098	1474286296102	1474286296190	 	32
173767	1889383	The exercises will be staged in the West and Mid-Pacific region.	The exercise will be staged in the West and Mid-Pacific region	89799100	1474286296374	1474286296494	r	82
173767	1889383	The exercises will be staged in the West and Mid-Pacific region.	The exercise will be staged in the West and Mid-Pacific region	89799106	1474286296438	1474286296550	e	69
173767	1889383	The exercises will be staged in the West and Mid-Pacific region.	The exercise will be staged in the West and Mid-Pacific region	89799107	1474286296582	1474286296694	g	71
173767	1889383	The exercises will be staged in the West and Mid-Pacific region.	The exercise will be staged in the West and Mid-Pacific region	89799108	1474286296646	1474286296742	i	73
173767	1889383	The exercises will be staged in the West and Mid-Pacific region.	The exercise will be staged in the West and Mid-Pacific region	89799109	1474286296798	1474286296926	o	79
173767	1889383	The exercises will be staged in the West and Mid-Pacific region.	The exercise will be staged in the West and Mid-Pacific region	89799110	1474286296878	1474286296982	n	78
173767	1889390	Call me anytime for information.	Call me anytime for information.	89799202	1474286300502	1474286300654	SHIFT	16
173767	1889390	Call me anytime for information.	Call me anytime for information.	89799203	1474286300598	1474286300662	C	67
173767	1889390	Call me anytime for information.	Call me anytime for information.	89799204	1474286300726	1474286300830	a	65
173767	1889390	Call me anytime for information.	Call me anytime for information.	89799205	1474286300822	1474286300878	l	76
173767	1889390	Call me anytime for information.	Call me anytime for information.	89799206	1474286300958	1474286301038	l	76
173767	1889390	Call me anytime for information.	Call me anytime for information.	89799207	1474286301054	1474286301134	 	32
173767	1889390	Call me anytime for information.	Call me anytime for information.	89799218	1474286301150	1474286301222	m	77
173767	1889390	Call me anytime for information.	Call me anytime for information.	89799221	1474286301198	1474286301294	e	69
173767	1889390	Call me anytime for information.	Call me anytime for information.	89799226	1474286301310	1474286301406	 	32
173767	1889390	Call me anytime for information.	Call me anytime for information.	89799229	1474286301414	1474286301486	a	65
173767	1889390	Call me anytime for information.	Call me anytime for information.	89799232	1474286301510	1474286301606	n	78
173767	1889390	Call me anytime for information.	Call me anytime for information.	89799240	1474286301630	1474286301710	y	89
173767	1889390	Call me anytime for information.	Call me anytime for information.	89799243	1474286301798	1474286301878	t	84
173767	1889390	Call me anytime for information.	Call me anytime for information.	89799248	1474286301862	1474286301982	i	73
173767	1889390	Call me anytime for information.	Call me anytime for information.	89799251	1474286301918	1474286302039	m	77
173767	1889390	Call me anytime for information.	Call me anytime for information.	89799261	1474286302038	1474286302126	e	69
173767	1889390	Call me anytime for information.	Call me anytime for information.	89799262	1474286302126	1474286302206	 	32
173767	1889390	Call me anytime for information.	Call me anytime for information.	89799263	1474286302222	1474286302302	f	70
173767	1889390	Call me anytime for information.	Call me anytime for information.	89799264	1474286302310	1474286302382	o	79
173767	1889390	Call me anytime for information.	Call me anytime for information.	89799265	1474286302406	1474286302470	r	82
173767	1889390	Call me anytime for information.	Call me anytime for information.	89799282	1474286302462	1474286302566	 	32
173767	1889390	Call me anytime for information.	Call me anytime for information.	89799284	1474286302678	1474286302742	a	65
173767	1889390	Call me anytime for information.	Call me anytime for information.	89799288	1474286302910	1474286302990	BKSP	8
173767	1889390	Call me anytime for information.	Call me anytime for information.	89799291	1474286303118	1474286303254	i	73
173767	1889390	Call me anytime for information.	Call me anytime for information.	89799296	1474286303182	1474286303278	n	78
173767	1889390	Call me anytime for information.	Call me anytime for information.	89799299	1474286303294	1474286303382	f	70
173767	1889390	Call me anytime for information.	Call me anytime for information.	89799307	1474286303366	1474286303454	o	79
173767	1889390	Call me anytime for information.	Call me anytime for information.	89799310	1474286303478	1474286303542	r	82
173767	1889390	Call me anytime for information.	Call me anytime for information.	89799314	1474286303550	1474286303630	m	77
173767	1889390	Call me anytime for information.	Call me anytime for information.	89799316	1474286303638	1474286303742	a	65
173767	1889390	Call me anytime for information.	Call me anytime for information.	89799319	1474286303814	1474286303888	t	84
173767	1889390	Call me anytime for information.	Call me anytime for information.	89799330	1474286303870	1474286303958	i	73
173767	1889390	Call me anytime for information.	Call me anytime for information.	89799331	1474286304038	1474286304174	o	79
173767	1889390	Call me anytime for information.	Call me anytime for information.	89799332	1474286304134	1474286304214	n	78
173767	1889395	US ships will also lead a second task force.	US ships will also lead a second task force.	89799424	1474286307270	1474286307878	SHIFT	16
173767	1889395	US ships will also lead a second task force.	US ships will also lead a second task force.	89799419	1474286307438	1474286307566	U	85
173767	1889395	US ships will also lead a second task force.	US ships will also lead a second task force.	89799421	1474286307550	1474286307670	S	83
173767	1889395	US ships will also lead a second task force.	US ships will also lead a second task force.	89799423	1474286307638	1474286307790	 	32
173767	1889395	US ships will also lead a second task force.	US ships will also lead a second task force.	89799426	1474286308078	1474286308174	s	83
173767	1889395	US ships will also lead a second task force.	US ships will also lead a second task force.	89799460	1474286308158	1474286308238	h	72
173767	1889395	US ships will also lead a second task force.	US ships will also lead a second task force.	89799463	1474286308350	1474286308414	u	85
173767	1889395	US ships will also lead a second task force.	US ships will also lead a second task force.	89799465	1474286308830	1474286308918	BKSP	8
173767	1889395	US ships will also lead a second task force.	US ships will also lead a second task force.	89799467	1474286309006	1474286309094	i	73
173767	1889395	US ships will also lead a second task force.	US ships will also lead a second task force.	89799468	1474286309190	1474286309278	p	80
173767	1889395	US ships will also lead a second task force.	US ships will also lead a second task force.	89799469	1474286309286	1474286309358	s	83
173767	1889395	US ships will also lead a second task force.	US ships will also lead a second task force.	89799470	1474286309390	1474286309470	 	32
173767	1889395	US ships will also lead a second task force.	US ships will also lead a second task force.	89799494	1474286309494	1474286309574	w	87
173767	1889395	US ships will also lead a second task force.	US ships will also lead a second task force.	89799498	1474286309582	1474286309622	i	73
173767	1889395	US ships will also lead a second task force.	US ships will also lead a second task force.	89799502	1474286309918	1474286309974	l	76
173767	1889395	US ships will also lead a second task force.	US ships will also lead a second task force.	89799505	1474286310086	1474286310142	l	76
173767	1889395	US ships will also lead a second task force.	US ships will also lead a second task force.	89799506	1474286310246	1474286310342	 	32
173767	1889395	US ships will also lead a second task force.	US ships will also lead a second task force.	89799512	1474286310382	1474286310494	a	65
173767	1889395	US ships will also lead a second task force.	US ships will also lead a second task force.	89799513	1474286310502	1474286310582	l	76
173767	1889395	US ships will also lead a second task force.	US ships will also lead a second task force.	89799514	1474286310623	1474286310702	s	83
173767	1889395	US ships will also lead a second task force.	US ships will also lead a second task force.	89799515	1474286310694	1474286310766	o	79
173767	1889395	US ships will also lead a second task force.	US ships will also lead a second task force.	89799516	1474286310814	1474286310902	 	32
173767	1889395	US ships will also lead a second task force.	US ships will also lead a second task force.	89799530	1474286310934	1474286311014	l	76
173767	1889395	US ships will also lead a second task force.	US ships will also lead a second task force.	89799531	1474286311038	1474286311086	e	69
173767	1889395	US ships will also lead a second task force.	US ships will also lead a second task force.	89799532	1474286311326	1474286311454	a	65
173767	1889395	US ships will also lead a second task force.	US ships will also lead a second task force.	89799533	1474286311414	1474286311494	d	68
173767	1889395	US ships will also lead a second task force.	US ships will also lead a second task force.	89799534	1474286311542	1474286311614	 	32
173767	1889395	US ships will also lead a second task force.	US ships will also lead a second task force.	89799540	1474286311646	1474286311766	a	65
173767	1889395	US ships will also lead a second task force.	US ships will also lead a second task force.	89799541	1474286311774	1474286311854	 	32
173767	1889395	US ships will also lead a second task force.	US ships will also lead a second task force.	89799542	1474286311862	1474286311934	s	83
173767	1889395	US ships will also lead a second task force.	US ships will also lead a second task force.	89799543	1474286312022	1474286312086	e	69
173767	1889395	US ships will also lead a second task force.	US ships will also lead a second task force.	89799544	1474286312174	1474286312270	c	67
173767	1889395	US ships will also lead a second task force.	US ships will also lead a second task force.	89799560	1474286312246	1474286312366	o	79
173767	1889395	US ships will also lead a second task force.	US ships will also lead a second task force.	89799562	1474286312302	1474286312390	n	78
173767	1889395	US ships will also lead a second task force.	US ships will also lead a second task force.	89799563	1474286312398	1474286312470	d	68
173767	1889395	US ships will also lead a second task force.	US ships will also lead a second task force.	89799564	1474286312494	1474286312598	 	32
173767	1889395	US ships will also lead a second task force.	US ships will also lead a second task force.	89799565	1474286312590	1474286312670	t	84
173767	1889395	US ships will also lead a second task force.	US ships will also lead a second task force.	89799566	1474286312782	1474286312918	a	65
173767	1889395	US ships will also lead a second task force.	US ships will also lead a second task force.	89799577	1474286312854	1474286312982	s	83
173767	1889395	US ships will also lead a second task force.	US ships will also lead a second task force.	89799578	1474286312910	1474286312998	k	75
173767	1889395	US ships will also lead a second task force.	US ships will also lead a second task force.	89799579	1474286313046	1474286313142	 	32
173767	1889395	US ships will also lead a second task force.	US ships will also lead a second task force.	89799580	1474286313134	1474286313222	f	70
173767	1889395	US ships will also lead a second task force.	US ships will also lead a second task force.	89799581	1474286313246	1474286313334	o	79
173767	1889395	US ships will also lead a second task force.	US ships will also lead a second task force.	89799582	1474286313326	1474286313382	r	82
173767	1889395	US ships will also lead a second task force.	US ships will also lead a second task force.	89799583	1474286313510	1474286313622	c	67
173767	1889395	US ships will also lead a second task force.	US ships will also lead a second task force.	89799584	1474286313566	1474286313678	e	69
173767	1889395	US ships will also lead a second task force.	US ships will also lead a second task force.	89799587	1474286313646	1474286313744	.	190
173767	1889399	The charges also cover his relations with advertising companies.	The charges also cover his relations with advertising companies.	89799653	1474286316982	1474286317118	SHIFT	16
173767	1889399	The charges also cover his relations with advertising companies.	The charges also cover his relations with advertising companies.	89799655	1474286317062	1474286317150	T	84
173767	1889399	The charges also cover his relations with advertising companies.	The charges also cover his relations with advertising companies.	89799657	1474286317174	1474286317262	h	72
173767	1889399	The charges also cover his relations with advertising companies.	The charges also cover his relations with advertising companies.	89799659	1474286317246	1474286317326	e	69
173767	1889399	The charges also cover his relations with advertising companies.	The charges also cover his relations with advertising companies.	89799661	1474286317358	1474286317462	 	32
173767	1889399	The charges also cover his relations with advertising companies.	The charges also cover his relations with advertising companies.	89799669	1474286317438	1474286317542	c	67
173767	1889399	The charges also cover his relations with advertising companies.	The charges also cover his relations with advertising companies.	89799673	1474286317558	1474286317662	h	72
173767	1889399	The charges also cover his relations with advertising companies.	The charges also cover his relations with advertising companies.	89799677	1474286317670	1474286317854	a	65
173767	1889399	The charges also cover his relations with advertising companies.	The charges also cover his relations with advertising companies.	89799682	1474286317846	1474286317934	r	82
173767	1889399	The charges also cover his relations with advertising companies.	The charges also cover his relations with advertising companies.	89799686	1474286318054	1474286318142	g	71
173767	1889399	The charges also cover his relations with advertising companies.	The charges also cover his relations with advertising companies.	89799691	1474286318174	1474286318270	e	69
173767	1889399	The charges also cover his relations with advertising companies.	The charges also cover his relations with advertising companies.	89799696	1474286318366	1474286318446	s	83
173767	1889399	The charges also cover his relations with advertising companies.	The charges also cover his relations with advertising companies.	89799697	1474286318454	1474286318543	 	32
173767	1889399	The charges also cover his relations with advertising companies.	The charges also cover his relations with advertising companies.	89799698	1474286318542	1474286318638	a	65
173767	1889399	The charges also cover his relations with advertising companies.	The charges also cover his relations with advertising companies.	89799700	1474286318646	1474286318734	l	76
173767	1889399	The charges also cover his relations with advertising companies.	The charges also cover his relations with advertising companies.	89799702	1474286318758	1474286318846	s	83
173767	1889399	The charges also cover his relations with advertising companies.	The charges also cover his relations with advertising companies.	89799706	1474286318886	1474286318974	o	79
173767	1889399	The charges also cover his relations with advertising companies.	The charges also cover his relations with advertising companies.	89799707	1474286318982	1474286319078	 	32
173767	1889399	The charges also cover his relations with advertising companies.	The charges also cover his relations with advertising companies.	89799708	1474286319222	1474286319326	c	67
173767	1889399	The charges also cover his relations with advertising companies.	The charges also cover his relations with advertising companies.	89799712	1474286319334	1474286319414	o	79
173767	1889399	The charges also cover his relations with advertising companies.	The charges also cover his relations with advertising companies.	89799718	1474286319422	1474286319486	v	86
173767	1889399	The charges also cover his relations with advertising companies.	The charges also cover his relations with advertising companies.	89799733	1474286319566	1474286319686	e	69
173767	1889399	The charges also cover his relations with advertising companies.	The charges also cover his relations with advertising companies.	89799734	1474286319670	1474286319734	r	82
173767	1889399	The charges also cover his relations with advertising companies.	The charges also cover his relations with advertising companies.	89799736	1474286319734	1474286319798	 	32
173767	1889399	The charges also cover his relations with advertising companies.	The charges also cover his relations with advertising companies.	89799738	1474286319902	1474286319998	h	72
173767	1889399	The charges also cover his relations with advertising companies.	The charges also cover his relations with advertising companies.	89799743	1474286319966	1474286320062	i	73
173767	1889399	The charges also cover his relations with advertising companies.	The charges also cover his relations with advertising companies.	89799744	1474286320054	1474286320134	s	83
173767	1889399	The charges also cover his relations with advertising companies.	The charges also cover his relations with advertising companies.	89799745	1474286320150	1474286320254	 	32
173767	1889399	The charges also cover his relations with advertising companies.	The charges also cover his relations with advertising companies.	89799746	1474286320270	1474286320438	r	82
173767	1889399	The charges also cover his relations with advertising companies.	The charges also cover his relations with advertising companies.	89799747	1474286320350	1474286320446	e	69
173767	1889399	The charges also cover his relations with advertising companies.	The charges also cover his relations with advertising companies.	89799748	1474286320470	1474286320566	l	76
173767	1889399	The charges also cover his relations with advertising companies.	The charges also cover his relations with advertising companies.	89799758	1474286320550	1474286320662	a	65
173767	1889399	The charges also cover his relations with advertising companies.	The charges also cover his relations with advertising companies.	89799761	1474286320718	1474286320814	t	84
173767	1889399	The charges also cover his relations with advertising companies.	The charges also cover his relations with advertising companies.	89799763	1474286320782	1474286320878	i	73
173767	1889399	The charges also cover his relations with advertising companies.	The charges also cover his relations with advertising companies.	89799766	1474286320934	1474286321062	o	79
173767	1889399	The charges also cover his relations with advertising companies.	The charges also cover his relations with advertising companies.	89799767	1474286321014	1474286321118	n	78
173767	1889399	The charges also cover his relations with advertising companies.	The charges also cover his relations with advertising companies.	89799769	1474286321126	1474286321206	s	83
173767	1889399	The charges also cover his relations with advertising companies.	The charges also cover his relations with advertising companies.	89799775	1474286321230	1474286321318	 	32
173767	1889399	The charges also cover his relations with advertising companies.	The charges also cover his relations with advertising companies.	89799776	1474286321310	1474286321390	w	87
173767	1889399	The charges also cover his relations with advertising companies.	The charges also cover his relations with advertising companies.	89799777	1474286321414	1474286321502	i	73
173767	1889399	The charges also cover his relations with advertising companies.	The charges also cover his relations with advertising companies.	89799778	1474286321518	1474286321590	t	84
173767	1889399	The charges also cover his relations with advertising companies.	The charges also cover his relations with advertising companies.	89799779	1474286321598	1474286321702	h	72
173767	1889399	The charges also cover his relations with advertising companies.	The charges also cover his relations with advertising companies.	89799809	1474286321694	1474286321774	 	32
173767	1889399	The charges also cover his relations with advertising companies.	The charges also cover his relations with advertising companies.	89799813	1474286321838	1474286322006	a	65
173767	1889399	The charges also cover his relations with advertising companies.	The charges also cover his relations with advertising companies.	89799816	1474286321942	1474286322062	d	68
173767	1889399	The charges also cover his relations with advertising companies.	The charges also cover his relations with advertising companies.	89799818	1474286322382	1474286322486	v	86
173767	1889399	The charges also cover his relations with advertising companies.	The charges also cover his relations with advertising companies.	89799820	1474286322582	1474286322702	e	69
173767	1889399	The charges also cover his relations with advertising companies.	The charges also cover his relations with advertising companies.	89799851	1474286322662	1474286322758	r	82
173767	1889399	The charges also cover his relations with advertising companies.	The charges also cover his relations with advertising companies.	89799853	1474286322862	1474286322934	t	84
173767	1889399	The charges also cover his relations with advertising companies.	The charges also cover his relations with advertising companies.	89799856	1474286322902	1474286322982	i	73
173767	1889399	The charges also cover his relations with advertising companies.	The charges also cover his relations with advertising companies.	89799860	1474286323726	1474286323814	s	83
173767	1889399	The charges also cover his relations with advertising companies.	The charges also cover his relations with advertising companies.	89799864	1474286323862	1474286323934	i	73
173767	1889399	The charges also cover his relations with advertising companies.	The charges also cover his relations with advertising companies.	89799866	1474286324214	1474286324326	n	78
173767	1889399	The charges also cover his relations with advertising companies.	The charges also cover his relations with advertising companies.	89799868	1474286324334	1474286324422	g	71
173767	1889399	The charges also cover his relations with advertising companies.	The charges also cover his relations with advertising companies.	89799870	1474286324470	1474286324566	 	32
173767	1889399	The charges also cover his relations with advertising companies.	The charges also cover his relations with advertising companies.	89799872	1474286324734	1474286324846	c	67
173767	1889399	The charges also cover his relations with advertising companies.	The charges also cover his relations with advertising companies.	89799874	1474286324798	1474286324894	o	79
173767	1889399	The charges also cover his relations with advertising companies.	The charges also cover his relations with advertising companies.	89799880	1474286324854	1474286324934	m	77
173767	1889399	The charges also cover his relations with advertising companies.	The charges also cover his relations with advertising companies.	89799881	1474286324998	1474286325086	p	80
173767	1889399	The charges also cover his relations with advertising companies.	The charges also cover his relations with advertising companies.	89799882	1474286325102	1474286325190	a	65
173767	1889399	The charges also cover his relations with advertising companies.	The charges also cover his relations with advertising companies.	89799883	1474286325198	1474286325270	n	78
173767	1889399	The charges also cover his relations with advertising companies.	The charges also cover his relations with advertising companies.	89799884	1474286325342	1474286325454	i	73
173767	1889399	The charges also cover his relations with advertising companies.	The charges also cover his relations with advertising companies.	89799887	1474286325422	1474286325494	e	69
173767	1889399	The charges also cover his relations with advertising companies.	The charges also cover his relations with advertising companies.	89799889	1474286325582	1474286325662	s	83
173767	1889399	The charges also cover his relations with advertising companies.	The charges also cover his relations with advertising companies.	89799891	1474286325662	1474286325750	.	190
173767	1889408	Got your back while you pick up wine.	Got your back while you pick up wine.	89799934	1474286328350	1474286328494	SHIFT	16
173767	1889408	Got your back while you pick up wine.	Got your back while you pick up wine.	89799936	1474286328414	1474286328518	G	71
173767	1889408	Got your back while you pick up wine.	Got your back while you pick up wine.	89799937	1474286328558	1474286328654	o	79
173767	1889408	Got your back while you pick up wine.	Got your back while you pick up wine.	89799938	1474286328654	1474286328742	t	84
173767	1889408	Got your back while you pick up wine.	Got your back while you pick up wine.	89799939	1474286328750	1474286328838	 	32
173767	1889408	Got your back while you pick up wine.	Got your back while you pick up wine.	89799940	1474286328854	1474286328950	y	89
173767	1889408	Got your back while you pick up wine.	Got your back while you pick up wine.	89799958	1474286328942	1474286329038	o	79
173767	1889408	Got your back while you pick up wine.	Got your back while you pick up wine.	89799961	1474286329062	1474286329126	u	85
173767	1889408	Got your back while you pick up wine.	Got your back while you pick up wine.	89799964	1474286329286	1474286329398	r	82
173767	1889408	Got your back while you pick up wine.	Got your back while you pick up wine.	89799968	1474286329422	1474286329494	 	32
173767	1889408	Got your back while you pick up wine.	Got your back while you pick up wine.	89799970	1474286329598	1474286329670	b	66
173767	1889408	Got your back while you pick up wine.	Got your back while you pick up wine.	89799971	1474286329822	1474286329942	a	65
173767	1889408	Got your back while you pick up wine.	Got your back while you pick up wine.	89799981	1474286329886	1474286329982	c	67
173767	1889408	Got your back while you pick up wine.	Got your back while you pick up wine.	89799983	1474286329958	1474286330078	k	75
173767	1889408	Got your back while you pick up wine.	Got your back while you pick up wine.	89799984	1474286330118	1474286330214	 	32
173767	1889408	Got your back while you pick up wine.	Got your back while you pick up wine.	89799985	1474286330246	1474286330342	w	87
173767	1889408	Got your back while you pick up wine.	Got your back while you pick up wine.	89799986	1474286330310	1474286330382	h	72
173767	1889408	Got your back while you pick up wine.	Got your back while you pick up wine.	89799987	1474286330446	1474286330534	i	73
173767	1889408	Got your back while you pick up wine.	Got your back while you pick up wine.	89799988	1474286330630	1474286330710	l	76
173767	1889408	Got your back while you pick up wine.	Got your back while you pick up wine.	89799989	1474286330727	1474286330782	e	69
173767	1889408	Got your back while you pick up wine.	Got your back while you pick up wine.	89799990	1474286330814	1474286330894	 	32
173767	1889408	Got your back while you pick up wine.	Got your back while you pick up wine.	89799991	1474286331038	1474286331126	o	79
173767	1889408	Got your back while you pick up wine.	Got your back while you pick up wine.	89799992	1474286331190	1474286331310	u	85
173767	1889408	Got your back while you pick up wine.	Got your back while you pick up wine.	89800031	1474286331334	1474286331414	 	32
173767	1889408	Got your back while you pick up wine.	Got your back while you pick up wine.	89800033	1474286331590	1474286331646	BKSP	8
173767	1889408	Got your back while you pick up wine.	Got your back while you pick up wine.	89800036	1474286331718	1474286331790	BKSP	8
173767	1889408	Got your back while you pick up wine.	Got your back while you pick up wine.	89800039	1474286331846	1474286331934	BKSP	8
173767	1889408	Got your back while you pick up wine.	Got your back while you pick up wine.	89800040	1474286331942	1474286332006	y	89
173767	1889408	Got your back while you pick up wine.	Got your back while you pick up wine.	89800041	1474286332014	1474286332094	o	79
173767	1889408	Got your back while you pick up wine.	Got your back while you pick up wine.	89800042	1474286332110	1474286332198	u	85
173767	1889408	Got your back while you pick up wine.	Got your back while you pick up wine.	89800043	1474286332214	1474286332286	 	32
173767	1889408	Got your back while you pick up wine.	Got your back while you pick up wine.	89800053	1474286332318	1474286332406	u	85
173767	1889408	Got your back while you pick up wine.	Got your back while you pick up wine.	89800055	1474286332606	1474286332686	BKSP	8
173767	1889408	Got your back while you pick up wine.	Got your back while you pick up wine.	89800059	1474286332766	1474286332854	p	80
173767	1889408	Got your back while you pick up wine.	Got your back while you pick up wine.	89800063	1474286332966	1474286333046	i	73
173767	1889408	Got your back while you pick up wine.	Got your back while you pick up wine.	89800066	1474286333078	1474286333168	c	67
173767	1889408	Got your back while you pick up wine.	Got your back while you pick up wine.	89800083	1474286333150	1474286333246	k	75
173767	1889408	Got your back while you pick up wine.	Got your back while you pick up wine.	89800086	1474286333286	1474286333391	 	32
173767	1889408	Got your back while you pick up wine.	Got your back while you pick up wine.	89800090	1474286333390	1474286333478	u	85
173767	1889408	Got your back while you pick up wine.	Got your back while you pick up wine.	89800092	1474286333558	1474286333654	p	80
173767	1889408	Got your back while you pick up wine.	Got your back while you pick up wine.	89800094	1474286333654	1474286333742	 	32
173767	1889408	Got your back while you pick up wine.	Got your back while you pick up wine.	89800096	1474286333790	1474286333878	i	87
173767	1889408	Got your back while you pick up wine.	Got your back while you pick up wine.	89800107	1474286333886	1474286333982	n	78
173767	1889408	Got your back while you pick up wine.	Got your back while you pick up wine.	89800110	1474286334006	1474286334070	e	69
173767	1889408	Got your back while you pick up wine.	Got your back while you pick up wine.	89800112	1474286334118	1474286334198	.	190
173767	1889413	It's incredibly demanding here.	It's incredibly demanding here.	89800222	1474286337094	1474286337326	SHIFT	16
173767	1889413	It's incredibly demanding here.	It's incredibly demanding here.	89800223	1474286337222	1474286337326	I	73
173767	1889413	It's incredibly demanding here.	It's incredibly demanding here.	89800224	1474286337438	1474286337526	t	84
173767	1889413	It's incredibly demanding here.	It's incredibly demanding here.	89800225	1474286337550	1474286337654	'	222
173767	1889413	It's incredibly demanding here.	It's incredibly demanding here.	89800226	1474286337670	1474286337766	s	83
173767	1889413	It's incredibly demanding here.	It's incredibly demanding here.	89800227	1474286337790	1474286337910	 	32
173767	1889413	It's incredibly demanding here.	It's incredibly demanding here.	89800238	1474286337942	1474286338062	i	73
173767	1889413	It's incredibly demanding here.	It's incredibly demanding here.	89800240	1474286338022	1474286338118	n	78
173767	1889413	It's incredibly demanding here.	It's incredibly demanding here.	89800242	1474286338086	1474286338174	c	67
173767	1889413	It's incredibly demanding here.	It's incredibly demanding here.	89800244	1474286338294	1474286338438	r	82
173767	1889413	It's incredibly demanding here.	It's incredibly demanding here.	89800278	1474286338390	1474286338502	e	69
173767	1889413	It's incredibly demanding here.	It's incredibly demanding here.	89800279	1474286338574	1474286338686	d	68
173767	1889413	It's incredibly demanding here.	It's incredibly demanding here.	89800280	1474286338702	1474286338798	i	73
173767	1889413	It's incredibly demanding here.	It's incredibly demanding here.	89800281	1474286339046	1474286339118	b	66
173767	1889413	It's incredibly demanding here.	It's incredibly demanding here.	89800283	1474286339174	1474286339262	l	76
173767	1889413	It's incredibly demanding here.	It's incredibly demanding here.	89800285	1474286339406	1474286339454	 	32
173767	1889413	It's incredibly demanding here.	It's incredibly demanding here.	89800290	1474286339734	1474286339806	BKSP	8
173767	1889413	It's incredibly demanding here.	It's incredibly demanding here.	89800292	1474286339814	1474286339894	y	89
173767	1889413	It's incredibly demanding here.	It's incredibly demanding here.	89800293	1474286339934	1474286340015	 	32
173767	1889413	It's incredibly demanding here.	It's incredibly demanding here.	89800295	1474286340070	1474286340174	d	68
173767	1889413	It's incredibly demanding here.	It's incredibly demanding here.	89800296	1474286340126	1474286340216	e	69
173767	1889413	It's incredibly demanding here.	It's incredibly demanding here.	89800305	1474286340206	1474286340286	m	77
173767	1889413	It's incredibly demanding here.	It's incredibly demanding here.	89800308	1474286340462	1474286340542	a	65
173767	1889413	It's incredibly demanding here.	It's incredibly demanding here.	89800313	1474286340590	1474286340670	n	78
173767	1889413	It's incredibly demanding here.	It's incredibly demanding here.	89800318	1474286340710	1474286340806	d	68
173767	1889413	It's incredibly demanding here.	It's incredibly demanding here.	89800321	1474286340799	1474286340910	i	73
173767	1889413	It's incredibly demanding here.	It's incredibly demanding here.	89800326	1474286340854	1474286340958	n	78
173767	1889413	It's incredibly demanding here.	It's incredibly demanding here.	89800327	1474286340986	1474286341054	g	71
173767	1889413	It's incredibly demanding here.	It's incredibly demanding here.	89800328	1474286341062	1474286341150	 	32
173767	1889413	It's incredibly demanding here.	It's incredibly demanding here.	89800329	1474286341254	1474286341334	h	72
173767	1889413	It's incredibly demanding here.	It's incredibly demanding here.	89800331	1474286341326	1474286341422	e	69
173767	1889413	It's incredibly demanding here.	It's incredibly demanding here.	89800336	1474286341406	1474286341542	r	82
173767	1889413	It's incredibly demanding here.	It's incredibly demanding here.	89800337	1474286341494	1474286341622	e	69
173767	1889417	Expect him to produce good numbers against New England.	Expect him to produce good numbers against New England.	89800675	1474286341582	1474286353646	.	190
173767	1889417	Expect him to produce good numbers against New England.	Expect him to produce good numbers against New England.	89800412	1474286344238	1474286344446	SHIFT	16
173767	1889417	Expect him to produce good numbers against New England.	Expect him to produce good numbers against New England.	89800411	1474286344318	1474286344422	E	69
173767	1889417	Expect him to produce good numbers against New England.	Expect him to produce good numbers against New England.	89800413	1474286344558	1474286344662	x	88
173767	1889417	Expect him to produce good numbers against New England.	Expect him to produce good numbers against New England.	89800414	1474286344694	1474286344814	[	219
173767	1889417	Expect him to produce good numbers against New England.	Expect him to produce good numbers against New England.	89800415	1474286344910	1474286345014	e	69
173767	1889417	Expect him to produce good numbers against New England.	Expect him to produce good numbers against New England.	89800456	1474286344966	1474286345078	c	67
173767	1889417	Expect him to produce good numbers against New England.	Expect him to produce good numbers against New England.	89800458	1474286345190	1474286345262	BKSP	8
173767	1889417	Expect him to produce good numbers against New England.	Expect him to produce good numbers against New England.	89800460	1474286345334	1474286345390	BKSP	8
173767	1889417	Expect him to produce good numbers against New England.	Expect him to produce good numbers against New England.	89800461	1474286345462	1474286345542	BKSP	8
173767	1889417	Expect him to produce good numbers against New England.	Expect him to produce good numbers against New England.	89800462	1474286345830	1474286345912	p	80
173767	1889417	Expect him to produce good numbers against New England.	Expect him to produce good numbers against New England.	89800463	1474286345894	1474286346030	e	69
173767	1889417	Expect him to produce good numbers against New England.	Expect him to produce good numbers against New England.	89800464	1474286345974	1474286346078	c	67
173767	1889417	Expect him to produce good numbers against New England.	Expect him to produce good numbers against New England.	89800465	1474286346222	1474286346254	t	84
173767	1889417	Expect him to produce good numbers against New England.	Expect him to produce good numbers against New England.	89800466	1474286346310	1474286346414	 	32
173767	1889417	Expect him to produce good numbers against New England.	Expect him to produce good numbers against New England.	89800481	1474286346758	1474286346846	h	72
173767	1889417	Expect him to produce good numbers against New England.	Expect him to produce good numbers against New England.	89800483	1474286346814	1474286346934	i	73
173767	1889417	Expect him to produce good numbers against New England.	Expect him to produce good numbers against New England.	89800485	1474286346870	1474286347006	m	77
173767	1889417	Expect him to produce good numbers against New England.	Expect him to produce good numbers against New England.	89800487	1474286346974	1474286347054	 	32
173767	1889417	Expect him to produce good numbers against New England.	Expect him to produce good numbers against New England.	89800489	1474286347134	1474286347214	t	84
173767	1889417	Expect him to produce good numbers against New England.	Expect him to produce good numbers against New England.	89800497	1474286347182	1474286347262	o	79
173767	1889417	Expect him to produce good numbers against New England.	Expect him to produce good numbers against New England.	89800500	1474286347334	1474286347406	 	32
173767	1889417	Expect him to produce good numbers against New England.	Expect him to produce good numbers against New England.	89800502	1474286347486	1474286347590	p	80
173767	1889417	Expect him to produce good numbers against New England.	Expect him to produce good numbers against New England.	89800505	1474286347630	1474286347710	r	82
173767	1889417	Expect him to produce good numbers against New England.	Expect him to produce good numbers against New England.	89800506	1474286347718	1474286347806	o	79
173767	1889417	Expect him to produce good numbers against New England.	Expect him to produce good numbers against New England.	89800509	1474286347838	1474286347918	d	68
173767	1889417	Expect him to produce good numbers against New England.	Expect him to produce good numbers against New England.	89800523	1474286347950	1474286348046	u	85
173767	1889417	Expect him to produce good numbers against New England.	Expect him to produce good numbers against New England.	89800525	1474286348054	1474286348158	c	67
173767	1889417	Expect him to produce good numbers against New England.	Expect him to produce good numbers against New England.	89800528	1474286348110	1474286348214	e	69
173767	1889417	Expect him to produce good numbers against New England.	Expect him to produce good numbers against New England.	89800530	1474286348230	1474286348318	 	32
173767	1889417	Expect him to produce good numbers against New England.	Expect him to produce good numbers against New England.	89800532	1474286348422	1474286348535	g	71
173767	1889417	Expect him to produce good numbers against New England.	Expect him to produce good numbers against New England.	89800547	1474286348518	1474286348582	o	79
173767	1889417	Expect him to produce good numbers against New England.	Expect him to produce good numbers against New England.	89800548	1474286348654	1474286348758	o	79
173767	1889417	Expect him to produce good numbers against New England.	Expect him to produce good numbers against New England.	89800549	1474286348790	1474286348870	d	68
173767	1889417	Expect him to produce good numbers against New England.	Expect him to produce good numbers against New England.	89800550	1474286348862	1474286348942	 	32
173767	1889417	Expect him to produce good numbers against New England.	Expect him to produce good numbers against New England.	89800551	1474286349030	1474286349118	n	78
173767	1889417	Expect him to produce good numbers against New England.	Expect him to produce good numbers against New England.	89800552	1474286349190	1474286349238	i	73
173767	1889417	Expect him to produce good numbers against New England.	Expect him to produce good numbers against New England.	89800565	1474286349678	1474286349750	BKSP	8
173767	1889417	Expect him to produce good numbers against New England.	Expect him to produce good numbers against New England.	89800567	1474286349918	1474286349990	u	85
173767	1889417	Expect him to produce good numbers against New England.	Expect him to produce good numbers against New England.	89800569	1474286350150	1474286350206	m	77
173767	1889417	Expect him to produce good numbers against New England.	Expect him to produce good numbers against New England.	89800571	1474286350350	1474286350438	b	66
173767	1889417	Expect him to produce good numbers against New England.	Expect him to produce good numbers against New England.	89800572	1474286350430	1474286350502	e	69
173767	1889417	Expect him to produce good numbers against New England.	Expect him to produce good numbers against New England.	89800575	1474286350478	1474286350550	r	82
173767	1889417	Expect him to produce good numbers against New England.	Expect him to produce good numbers against New England.	89800578	1474286350646	1474286350742	s	83
173767	1889417	Expect him to produce good numbers against New England.	Expect him to produce good numbers against New England.	89800581	1474286350750	1474286350822	 	32
173767	1889417	Expect him to produce good numbers against New England.	Expect him to produce good numbers against New England.	89800585	1474286350863	1474286350950	a	65
173767	1889417	Expect him to produce good numbers against New England.	Expect him to produce good numbers against New England.	89800590	1474286350950	1474286351046	g	71
173767	1889417	Expect him to produce good numbers against New England.	Expect him to produce good numbers against New England.	89800595	1474286351070	1474286351182	a	65
173767	1889417	Expect him to produce good numbers against New England.	Expect him to produce good numbers against New England.	89800617	1474286351190	1474286351318	i	73
173767	1889417	Expect him to produce good numbers against New England.	Expect him to produce good numbers against New England.	89800620	1474286351270	1474286351382	n	78
173767	1889417	Expect him to produce good numbers against New England.	Expect him to produce good numbers against New England.	89800621	1474286351694	1474286351790	s	83
173767	1889417	Expect him to produce good numbers against New England.	Expect him to produce good numbers against New England.	89800622	1474286351894	1474286351974	t	84
173767	1889417	Expect him to produce good numbers against New England.	Expect him to produce good numbers against New England.	89800624	1474286351974	1474286352046	 	32
173767	1889417	Expect him to produce good numbers against New England.	Expect him to produce good numbers against New England.	89800630	1474286352110	1474286352270	SHIFT	16
173767	1889417	Expect him to produce good numbers against New England.	Expect him to produce good numbers against New England.	89800633	1474286352198	1474286352278	N	78
173767	1889417	Expect him to produce good numbers against New England.	Expect him to produce good numbers against New England.	89800636	1474286352390	1474286352510	e	69
173767	1889417	Expect him to produce good numbers against New England.	Expect him to produce good numbers against New England.	89800639	1474286352446	1474286352566	w	87
173767	1889417	Expect him to produce good numbers against New England.	Expect him to produce good numbers against New England.	89800642	1474286352518	1474286352598	 	32
173767	1889417	Expect him to produce good numbers against New England.	Expect him to produce good numbers against New England.	89800644	1474286352638	1474286352790	SHIFT	16
173767	1889417	Expect him to produce good numbers against New England.	Expect him to produce good numbers against New England.	89800649	1474286352726	1474286352814	E	69
173767	1889417	Expect him to produce good numbers against New England.	Expect him to produce good numbers against New England.	89800651	1474286352870	1474286352958	n	78
173767	1889417	Expect him to produce good numbers against New England.	Expect him to produce good numbers against New England.	89800653	1474286352990	1474286353078	g	71
173767	1889417	Expect him to produce good numbers against New England.	Expect him to produce good numbers against New England.	89800655	1474286353102	1474286353182	l	76
173767	1889417	Expect him to produce good numbers against New England.	Expect him to produce good numbers against New England.	89800657	1474286353190	1474286353294	a	65
173767	1889417	Expect him to produce good numbers against New England.	Expect him to produce good numbers against New England.	89800670	1474286353286	1474286353366	n	78
173767	1889417	Expect him to produce good numbers against New England.	Expect him to produce good numbers against New England.	89800672	1474286353374	1474286353478	d	68
173767	1889430	They launched a counter attack and retook positions they had lost.	They launched a counter attack and retook positions they had lost.	89800778	1474286356718	1474286356902	SHIFT	16
173767	1889430	They launched a counter attack and retook positions they had lost.	They launched a counter attack and retook positions they had lost.	89800780	1474286356838	1474286356926	T	84
173767	1889430	They launched a counter attack and retook positions they had lost.	They launched a counter attack and retook positions they had lost.	89800783	1474286356958	1474286357038	h	72
173767	1889430	They launched a counter attack and retook positions they had lost.	They launched a counter attack and retook positions they had lost.	89800787	1474286357030	1474286357118	e	69
173767	1889430	They launched a counter attack and retook positions they had lost.	They launched a counter attack and retook positions they had lost.	89800791	1474286357150	1474286357222	y	89
173767	1889430	They launched a counter attack and retook positions they had lost.	They launched a counter attack and retook positions they had lost.	89800795	1474286357262	1474286357358	 	32
173767	1889430	They launched a counter attack and retook positions they had lost.	They launched a counter attack and retook positions they had lost.	89800810	1474286357366	1474286357486	l	76
173767	1889430	They launched a counter attack and retook positions they had lost.	They launched a counter attack and retook positions they had lost.	89800812	1474286357510	1474286357622	a	65
173767	1889430	They launched a counter attack and retook positions they had lost.	They launched a counter attack and retook positions they had lost.	89800816	1474286357678	1474286357790	u	85
173767	1889430	They launched a counter attack and retook positions they had lost.	They launched a counter attack and retook positions they had lost.	89800820	1474286357870	1474286357966	n	78
173767	1889430	They launched a counter attack and retook positions they had lost.	They launched a counter attack and retook positions they had lost.	89800823	1474286357974	1474286358046	c	67
173767	1889430	They launched a counter attack and retook positions they had lost.	They launched a counter attack and retook positions they had lost.	89800829	1474286358086	1474286358174	h	72
173767	1889430	They launched a counter attack and retook positions they had lost.	They launched a counter attack and retook positions they had lost.	89800831	1474286358182	1474286358270	e	69
173767	1889430	They launched a counter attack and retook positions they had lost.	They launched a counter attack and retook positions they had lost.	89800833	1474286358222	1474286358318	d	68
173767	1889430	They launched a counter attack and retook positions they had lost.	They launched a counter attack and retook positions they had lost.	89800835	1474286358326	1474286358398	 	32
173767	1889430	They launched a counter attack and retook positions they had lost.	They launched a counter attack and retook positions they had lost.	89800838	1474286358430	1474286358518	a	65
173767	1889430	They launched a counter attack and retook positions they had lost.	They launched a counter attack and retook positions they had lost.	89800843	1474286358502	1474286358590	 	32
173767	1889430	They launched a counter attack and retook positions they had lost.	They launched a counter attack and retook positions they had lost.	89800844	1474286358622	1474286358710	c	67
173767	1889430	They launched a counter attack and retook positions they had lost.	They launched a counter attack and retook positions they had lost.	89800845	1474286358702	1474286358782	o	79
173767	1889430	They launched a counter attack and retook positions they had lost.	They launched a counter attack and retook positions they had lost.	89800846	1474286358854	1474286358918	u	85
173767	1889430	They launched a counter attack and retook positions they had lost.	They launched a counter attack and retook positions they had lost.	89800847	1474286359038	1474286359110	n	78
173767	1889430	They launched a counter attack and retook positions they had lost.	They launched a counter attack and retook positions they had lost.	89800876	1474286359102	1474286359182	t	84
173767	1889430	They launched a counter attack and retook positions they had lost.	They launched a counter attack and retook positions they had lost.	89800879	1474286359262	1474286359350	e	69
173767	1889430	They launched a counter attack and retook positions they had lost.	They launched a counter attack and retook positions they had lost.	89800882	1474286359326	1474286359414	r	82
173767	1889430	They launched a counter attack and retook positions they had lost.	They launched a counter attack and retook positions they had lost.	89800886	1474286359454	1474286359538	 	32
173767	1889430	They launched a counter attack and retook positions they had lost.	They launched a counter attack and retook positions they had lost.	89800889	1474286359558	1474286359670	a	65
173767	1889430	They launched a counter attack and retook positions they had lost.	They launched a counter attack and retook positions they had lost.	89800894	1474286359758	1474286359830	t	84
173767	1889430	They launched a counter attack and retook positions they had lost.	They launched a counter attack and retook positions they had lost.	89800910	1474286359902	1474286359974	t	84
173767	1889430	They launched a counter attack and retook positions they had lost.	They launched a counter attack and retook positions they had lost.	89800911	1474286360102	1474286360254	a	65
173767	1889430	They launched a counter attack and retook positions they had lost.	They launched a counter attack and retook positions they had lost.	89800912	1474286360206	1474286360302	c	67
173767	1889430	They launched a counter attack and retook positions they had lost.	They launched a counter attack and retook positions they had lost.	89800913	1474286360238	1474286360302	k	75
173767	1889430	They launched a counter attack and retook positions they had lost.	They launched a counter attack and retook positions they had lost.	89800914	1474286360422	1474286360494	 	32
173767	1889430	They launched a counter attack and retook positions they had lost.	They launched a counter attack and retook positions they had lost.	89800924	1474286360486	1474286360574	a	65
173767	1889430	They launched a counter attack and retook positions they had lost.	They launched a counter attack and retook positions they had lost.	89800925	1474286360598	1474286360686	n	78
173767	1889430	They launched a counter attack and retook positions they had lost.	They launched a counter attack and retook positions they had lost.	89800926	1474286360662	1474286360742	d	68
173767	1889430	They launched a counter attack and retook positions they had lost.	They launched a counter attack and retook positions they had lost.	89800927	1474286360774	1474286360878	 	32
173767	1889430	They launched a counter attack and retook positions they had lost.	They launched a counter attack and retook positions they had lost.	89800928	1474286360854	1474286360966	r	82
173767	1889430	They launched a counter attack and retook positions they had lost.	They launched a counter attack and retook positions they had lost.	89800929	1474286361127	1474286361222	e	69
173767	1889430	They launched a counter attack and retook positions they had lost.	They launched a counter attack and retook positions they had lost.	89800943	1474286361326	1474286361414	t	84
173767	1889430	They launched a counter attack and retook positions they had lost.	They launched a counter attack and retook positions they had lost.	89800946	1474286361446	1474286361502	o	79
173767	1889430	They launched a counter attack and retook positions they had lost.	They launched a counter attack and retook positions they had lost.	89800951	1474286361574	1474286361718	o	79
173767	1889430	They launched a counter attack and retook positions they had lost.	They launched a counter attack and retook positions they had lost.	89800953	1474286361710	1474286361798	k	75
173767	1889430	They launched a counter attack and retook positions they had lost.	They launched a counter attack and retook positions they had lost.	89800955	1474286361830	1474286361926	 	32
173767	1889430	They launched a counter attack and retook positions they had lost.	They launched a counter attack and retook positions they had lost.	89800976	1474286361942	1474286362014	p	80
173767	1889430	They launched a counter attack and retook positions they had lost.	They launched a counter attack and retook positions they had lost.	89800977	1474286362126	1474286362198	o	79
173767	1889430	They launched a counter attack and retook positions they had lost.	They launched a counter attack and retook positions they had lost.	89800980	1474286362222	1474286362286	s	83
173767	1889430	They launched a counter attack and retook positions they had lost.	They launched a counter attack and retook positions they had lost.	89800983	1474286362398	1474286362478	i	73
173767	1889430	They launched a counter attack and retook positions they had lost.	They launched a counter attack and retook positions they had lost.	89800985	1474286362486	1474286362582	t	84
173767	1889430	They launched a counter attack and retook positions they had lost.	They launched a counter attack and retook positions they had lost.	89800991	1474286362622	1474286362726	i	73
173767	1889430	They launched a counter attack and retook positions they had lost.	They launched a counter attack and retook positions they had lost.	89800992	1474286362814	1474286362950	o	79
173767	1889430	They launched a counter attack and retook positions they had lost.	They launched a counter attack and retook positions they had lost.	89800993	1474286362902	1474286363022	n	78
173767	1889430	They launched a counter attack and retook positions they had lost.	They launched a counter attack and retook positions they had lost.	89800994	1474286362982	1474286363054	s	83
173767	1889430	They launched a counter attack and retook positions they had lost.	They launched a counter attack and retook positions they had lost.	89800995	1474286363102	1474286363190	 	32
173767	1889430	They launched a counter attack and retook positions they had lost.	They launched a counter attack and retook positions they had lost.	89801000	1474286363238	1474286363318	t	84
173767	1889430	They launched a counter attack and retook positions they had lost.	They launched a counter attack and retook positions they had lost.	89801003	1474286363310	1474286363374	h	72
173767	1889430	They launched a counter attack and retook positions they had lost.	They launched a counter attack and retook positions they had lost.	89801005	1474286363398	1474286363494	e	69
173767	1889430	They launched a counter attack and retook positions they had lost.	They launched a counter attack and retook positions they had lost.	89801006	1474286363479	1474286363558	y	89
173767	1889430	They launched a counter attack and retook positions they had lost.	They launched a counter attack and retook positions they had lost.	89801007	1474286363598	1474286363694	 	32
173767	1889430	They launched a counter attack and retook positions they had lost.	They launched a counter attack and retook positions they had lost.	89801021	1474286363806	1474286363950	h	72
173767	1889430	They launched a counter attack and retook positions they had lost.	They launched a counter attack and retook positions they had lost.	89801022	1474286363918	1474286364046	a	65
173767	1889430	They launched a counter attack and retook positions they had lost.	They launched a counter attack and retook positions they had lost.	89801023	1474286363974	1474286364094	s	83
173767	1889430	They launched a counter attack and retook positions they had lost.	They launched a counter attack and retook positions they had lost.	89801024	1474286364318	1474286364382	BKSP	8
173767	1889430	They launched a counter attack and retook positions they had lost.	They launched a counter attack and retook positions they had lost.	89801026	1474286364414	1474286364494	d	68
173767	1889430	They launched a counter attack and retook positions they had lost.	They launched a counter attack and retook positions they had lost.	89801027	1474286364486	1474286364598	 	32
173767	1889430	They launched a counter attack and retook positions they had lost.	They launched a counter attack and retook positions they had lost.	89801028	1474286364551	1474286364645	l	76
173767	1889430	They launched a counter attack and retook positions they had lost.	They launched a counter attack and retook positions they had lost.	89801029	1474286364742	1474286364838	o	79
173767	1889430	They launched a counter attack and retook positions they had lost.	They launched a counter attack and retook positions they had lost.	89801030	1474286364790	1474286364854	s	83
173767	1889430	They launched a counter attack and retook positions they had lost.	They launched a counter attack and retook positions they had lost.	89801031	1474286364942	1474286365014	t	84
173767	1889440	The volumes tie, so the pricing must be off somewhere.	The volumes tie, so the pricing must be off somewhere.	89801249	1474286372246	1474286372374	SHIFT	16
173767	1889440	The volumes tie, so the pricing must be off somewhere.	The volumes tie, so the pricing must be off somewhere.	89801250	1474286372334	1474286372438	T	84
173767	1889440	The volumes tie, so the pricing must be off somewhere.	The volumes tie, so the pricing must be off somewhere.	89801251	1474286372454	1474286372542	h	72
173767	1889440	The volumes tie, so the pricing must be off somewhere.	The volumes tie, so the pricing must be off somewhere.	89801252	1474286372550	1474286372630	e	69
173767	1889440	The volumes tie, so the pricing must be off somewhere.	The volumes tie, so the pricing must be off somewhere.	89801253	1474286372646	1474286372742	 	32
173767	1889440	The volumes tie, so the pricing must be off somewhere.	The volumes tie, so the pricing must be off somewhere.	89801255	1474286372750	1474286372862	v	86
173767	1889440	The volumes tie, so the pricing must be off somewhere.	The volumes tie, so the pricing must be off somewhere.	89801286	1474286372838	1474286372934	o	79
173767	1889440	The volumes tie, so the pricing must be off somewhere.	The volumes tie, so the pricing must be off somewhere.	89801288	1474286373006	1474286373110	l	76
173767	1889440	The volumes tie, so the pricing must be off somewhere.	The volumes tie, so the pricing must be off somewhere.	89801290	1474286373238	1474286373318	u	85
173767	1889440	The volumes tie, so the pricing must be off somewhere.	The volumes tie, so the pricing must be off somewhere.	89801292	1474286373534	1474286373638	m	77
173767	1889440	The volumes tie, so the pricing must be off somewhere.	The volumes tie, so the pricing must be off somewhere.	89801293	1474286373646	1474286373734	e	69
173767	1889440	The volumes tie, so the pricing must be off somewhere.	The volumes tie, so the pricing must be off somewhere.	89801295	1474286373806	1474286373910	s	83
173767	1889440	The volumes tie, so the pricing must be off somewhere.	The volumes tie, so the pricing must be off somewhere.	89801301	1474286374046	1474286374126	 	32
173767	1889440	The volumes tie, so the pricing must be off somewhere.	The volumes tie, so the pricing must be off somewhere.	89801302	1474286374182	1474286374262	t	84
173767	1889440	The volumes tie, so the pricing must be off somewhere.	The volumes tie, so the pricing must be off somewhere.	89801303	1474286374246	1474286374334	i	73
173767	1889440	The volumes tie, so the pricing must be off somewhere.	The volumes tie, so the pricing must be off somewhere.	89801304	1474286374366	1474286374438	e	69
173767	1889440	The volumes tie, so the pricing must be off somewhere.	The volumes tie, so the pricing must be off somewhere.	89801305	1474286374446	1474286374534	,	188
173767	1889440	The volumes tie, so the pricing must be off somewhere.	The volumes tie, so the pricing must be off somewhere.	89801317	1474286374550	1474286374638	 	32
173767	1889440	The volumes tie, so the pricing must be off somewhere.	The volumes tie, so the pricing must be off somewhere.	89801320	1474286374678	1474286374808	s	83
173767	1889440	The volumes tie, so the pricing must be off somewhere.	The volumes tie, so the pricing must be off somewhere.	89801324	1474286374782	1474286374846	o	79
173767	1889440	The volumes tie, so the pricing must be off somewhere.	The volumes tie, so the pricing must be off somewhere.	89801328	1474286374934	1474286375006	 	32
173767	1889440	The volumes tie, so the pricing must be off somewhere.	The volumes tie, so the pricing must be off somewhere.	89801331	1474286375022	1474286375103	t	84
173767	1889440	The volumes tie, so the pricing must be off somewhere.	The volumes tie, so the pricing must be off somewhere.	89801344	1474286375102	1474286375182	h	72
173767	1889440	The volumes tie, so the pricing must be off somewhere.	The volumes tie, so the pricing must be off somewhere.	89801347	1474286375206	1474286375278	e	69
173767	1889440	The volumes tie, so the pricing must be off somewhere.	The volumes tie, so the pricing must be off somewhere.	89801351	1474286375278	1474286375358	 	32
173767	1889440	The volumes tie, so the pricing must be off somewhere.	The volumes tie, so the pricing must be off somewhere.	89801356	1474286375430	1474286375526	p	80
173767	1889440	The volumes tie, so the pricing must be off somewhere.	The volumes tie, so the pricing must be off somewhere.	89801361	1474286375534	1474286375606	r	82
173767	1889440	The volumes tie, so the pricing must be off somewhere.	The volumes tie, so the pricing must be off somewhere.	89801365	1474286375654	1474286375742	i	73
173767	1889440	The volumes tie, so the pricing must be off somewhere.	The volumes tie, so the pricing must be off somewhere.	89801375	1474286375774	1474286375870	c	67
173767	1889440	The volumes tie, so the pricing must be off somewhere.	The volumes tie, so the pricing must be off somewhere.	89801377	1474286375854	1474286375966	i	73
173767	1889440	The volumes tie, so the pricing must be off somewhere.	The volumes tie, so the pricing must be off somewhere.	89801379	1474286375926	1474286376046	n	78
173767	1889440	The volumes tie, so the pricing must be off somewhere.	The volumes tie, so the pricing must be off somewhere.	89801380	1474286376054	1474286376134	g	71
173767	1889440	The volumes tie, so the pricing must be off somewhere.	The volumes tie, so the pricing must be off somewhere.	89801381	1474286376158	1474286376246	 	32
173767	1889440	The volumes tie, so the pricing must be off somewhere.	The volumes tie, so the pricing must be off somewhere.	89801388	1474286376334	1474286376406	m	77
173767	1889440	The volumes tie, so the pricing must be off somewhere.	The volumes tie, so the pricing must be off somewhere.	89801389	1474286376486	1474286376590	u	85
173767	1889440	The volumes tie, so the pricing must be off somewhere.	The volumes tie, so the pricing must be off somewhere.	89801390	1474286376566	1474286376654	s	83
173767	1889440	The volumes tie, so the pricing must be off somewhere.	The volumes tie, so the pricing must be off somewhere.	89801392	1474286376734	1474286376838	t	84
173767	1889440	The volumes tie, so the pricing must be off somewhere.	The volumes tie, so the pricing must be off somewhere.	89801398	1474286376806	1474286376870	 	32
173767	1889440	The volumes tie, so the pricing must be off somewhere.	The volumes tie, so the pricing must be off somewhere.	89801400	1474286376950	1474286377022	b	66
173767	1889440	The volumes tie, so the pricing must be off somewhere.	The volumes tie, so the pricing must be off somewhere.	89801403	1474286377038	1474286377110	e	69
173767	1889440	The volumes tie, so the pricing must be off somewhere.	The volumes tie, so the pricing must be off somewhere.	89801406	1474286377118	1474286377206	 	32
173767	1889440	The volumes tie, so the pricing must be off somewhere.	The volumes tie, so the pricing must be off somewhere.	89801409	1474286377278	1474286377358	o	79
173767	1889440	The volumes tie, so the pricing must be off somewhere.	The volumes tie, so the pricing must be off somewhere.	89801412	1474286377390	1474286377422	f	70
173767	1889440	The volumes tie, so the pricing must be off somewhere.	The volumes tie, so the pricing must be off somewhere.	89801424	1474286377494	1474286377582	f	70
173767	1889440	The volumes tie, so the pricing must be off somewhere.	The volumes tie, so the pricing must be off somewhere.	89801426	1474286377630	1474286377726	 	32
173767	1889440	The volumes tie, so the pricing must be off somewhere.	The volumes tie, so the pricing must be off somewhere.	89801428	1474286377718	1474286377806	s	83
173767	1889440	The volumes tie, so the pricing must be off somewhere.	The volumes tie, so the pricing must be off somewhere.	89801430	1474286377814	1474286377926	o	79
173767	1889440	The volumes tie, so the pricing must be off somewhere.	The volumes tie, so the pricing must be off somewhere.	89801439	1474286377870	1474286377982	m	77
173767	1889440	The volumes tie, so the pricing must be off somewhere.	The volumes tie, so the pricing must be off somewhere.	89801442	1474286377918	1474286377998	e	69
173767	1889440	The volumes tie, so the pricing must be off somewhere.	The volumes tie, so the pricing must be off somewhere.	89801445	1474286378102	1474286378158	w	87
173767	1889440	The volumes tie, so the pricing must be off somewhere.	The volumes tie, so the pricing must be off somewhere.	89801447	1474286378190	1474286378262	h	72
173767	1889440	The volumes tie, so the pricing must be off somewhere.	The volumes tie, so the pricing must be off somewhere.	89801450	1474286378254	1474286378350	e	69
173767	1889440	The volumes tie, so the pricing must be off somewhere.	The volumes tie, so the pricing must be off somewhere.	89801451	1474286378342	1474286378470	r	82
173767	1889440	The volumes tie, so the pricing must be off somewhere.	The volumes tie, so the pricing must be off somewhere.	89801448	1474286378422	1474286378526	e	69
