PARTICIPANT_ID	TEST_SECTION_ID	SENTENCE	USER_INPUT	KEYSTROKE_ID	PRESS_TIME	RELEASE_TIME	LETTER	KEYCODE
181209	1967027	We haven't made that decision here though.	We haven't made that ddecision here though.	93498549	1474371797593	1474371798991	SHIFT	16
181209	1967027	We haven't made that decision here though.	We haven't made that ddecision here though.	93498547	1474371798865	1474371798987	W	87
181209	1967027	We haven't made that decision here though.	We haven't made that ddecision here though.	93498551	1474371799168	1474371799242	e	69
181209	1967027	We haven't made that decision here though.	We haven't made that ddecision here though.	93498553	1474371799281	1474371799444	 	32
181209	1967027	We haven't made that decision here though.	We haven't made that ddecision here though.	93498557	1474371799696	1474371799790	h	72
181209	1967027	We haven't made that decision here though.	We haven't made that ddecision here though.	93498561	1474371799861	1474371799983	a	65
181209	1967027	We haven't made that decision here though.	We haven't made that ddecision here though.	93498593	1474371800228	1474371800339	v	86
181209	1967027	We haven't made that decision here though.	We haven't made that ddecision here though.	93498598	1474371800501	1474371800624	e	69
181209	1967027	We haven't made that decision here though.	We haven't made that ddecision here though.	93498602	1474371800999	1474371801070	n	78
181209	1967027	We haven't made that decision here though.	We haven't made that ddecision here though.	93498606	1474371801589	1474371801730	'	222
181209	1967027	We haven't made that decision here though.	We haven't made that ddecision here though.	93498609	1474371802017	1474371802171	t	84
181209	1967027	We haven't made that decision here though.	We haven't made that ddecision here though.	93498652	1474371802169	1474371802332	 	32
181209	1967027	We haven't made that decision here though.	We haven't made that ddecision here though.	93498653	1474371802991	1474371803104	m	77
181209	1967027	We haven't made that decision here though.	We haven't made that ddecision here though.	93498654	1474371803143	1474371803359	a	65
181209	1967027	We haven't made that decision here though.	We haven't made that ddecision here though.	93498655	1474371803328	1474371803420	d	68
181209	1967027	We haven't made that decision here though.	We haven't made that ddecision here though.	93498656	1474371803520	1474371803623	e	69
181209	1967027	We haven't made that decision here though.	We haven't made that ddecision here though.	93498658	1474371803653	1474371803851	 	32
181209	1967027	We haven't made that decision here though.	We haven't made that ddecision here though.	93498670	1474371803907	1474371803979	t	84
181209	1967027	We haven't made that decision here though.	We haven't made that ddecision here though.	93498671	1474371804089	1474371804221	h	72
181209	1967027	We haven't made that decision here though.	We haven't made that ddecision here though.	93498672	1474371804190	1474371804325	a	65
181209	1967027	We haven't made that decision here though.	We haven't made that ddecision here though.	93498673	1474371804396	1474371804508	t	84
181209	1967027	We haven't made that decision here though.	We haven't made that ddecision here though.	93498674	1474371804547	1474371804680	 	32
181209	1967027	We haven't made that decision here though.	We haven't made that ddecision here though.	93498735	1474371805655	1474371805800	d	68
181209	1967027	We haven't made that decision here though.	We haven't made that ddecision here though.	93498737	1474371805840	1474371805861	d	68
181209	1967027	We haven't made that decision here though.	We haven't made that ddecision here though.	93498739	1474371806358	1474371806440	e	69
181209	1967027	We haven't made that decision here though.	We haven't made that ddecision here though.	93498741	1474371806592	1474371806713	c	67
181209	1967027	We haven't made that decision here though.	We haven't made that ddecision here though.	93498742	1474371807467	1474371807539	i	73
181209	1967027	We haven't made that decision here though.	We haven't made that ddecision here though.	93498762	1474371807589	1474371807671	s	83
181209	1967027	We haven't made that decision here though.	We haven't made that ddecision here though.	93498766	1474371807711	1474371807792	i	73
181209	1967027	We haven't made that decision here though.	We haven't made that ddecision here though.	93498772	1474371808118	1474371808230	o	79
181209	1967027	We haven't made that decision here though.	We haven't made that ddecision here though.	93498777	1474371808373	1474371808519	n	78
181209	1967027	We haven't made that decision here though.	We haven't made that ddecision here though.	93498810	1474371808515	1474371808647	 	32
181209	1967027	We haven't made that decision here though.	We haven't made that ddecision here though.	93498811	1474371809793	1474371809911	h	72
181209	1967027	We haven't made that decision here though.	We haven't made that ddecision here though.	93498812	1474371809907	1474371810029	e	69
181209	1967027	We haven't made that decision here though.	We haven't made that ddecision here though.	93498813	1474371810109	1474371810190	r	82
181209	1967027	We haven't made that decision here though.	We haven't made that ddecision here though.	93498815	1474371810301	1474371810416	e	69
181209	1967027	We haven't made that decision here though.	We haven't made that ddecision here though.	93498817	1474371810506	1474371810628	 	32
181209	1967027	We haven't made that decision here though.	We haven't made that ddecision here though.	93498887	1474371811381	1474371811483	t	84
181209	1967027	We haven't made that decision here though.	We haven't made that ddecision here though.	93498889	1474371811655	1474371811747	h	72
181209	1967027	We haven't made that decision here though.	We haven't made that ddecision here though.	93498893	1474371812162	1474371812274	o	79
181209	1967027	We haven't made that decision here though.	We haven't made that ddecision here though.	93498896	1474371812335	1474371812450	u	85
181209	1967027	We haven't made that decision here though.	We haven't made that ddecision here though.	93498900	1474371812804	1474371812878	g	71
181209	1967027	We haven't made that decision here though.	We haven't made that ddecision here though.	93498922	1474371812948	1474371813009	h	72
181209	1967027	We haven't made that decision here though.	We haven't made that ddecision here though.	93498923	1474371813436	1474371813507	.	190
181209	1967039	We hope you found this information useful.	We hope you found this information useful.	93499104	1474371816197	1474371817105	SHIFT	16
181209	1967039	We hope you found this information useful.	We hope you found this information useful.	93499105	1474371816973	1474371817176	W	87
181209	1967039	We hope you found this information useful.	We hope you found this information useful.	93499106	1474371817286	1474371817388	e	69
181209	1967039	We hope you found this information useful.	We hope you found this information useful.	93499107	1474371817430	1474371817602	 	32
181209	1967039	We hope you found this information useful.	We hope you found this information useful.	93499108	1474371818487	1474371818559	h	72
181209	1967039	We hope you found this information useful.	We hope you found this information useful.	93499109	1474371819098	1474371819240	o	79
181209	1967039	We hope you found this information useful.	We hope you found this information useful.	93499151	1474371819505	1474371819658	p	80
181209	1967039	We hope you found this information useful.	We hope you found this information useful.	93499153	1474371819789	1474371819861	e	69
181209	1967039	We hope you found this information useful.	We hope you found this information useful.	93499155	1474371819944	1474371820087	 	32
181209	1967039	We hope you found this information useful.	We hope you found this information useful.	93499156	1474371820534	1474371820626	y	89
181209	1967039	We hope you found this information useful.	We hope you found this information useful.	93499157	1474371820777	1474371820939	o	79
181209	1967039	We hope you found this information useful.	We hope you found this information useful.	93499204	1474371820982	1474371821083	u	85
181209	1967039	We hope you found this information useful.	We hope you found this information useful.	93499205	1474371821143	1474371821254	 	32
181209	1967039	We hope you found this information useful.	We hope you found this information useful.	93499206	1474371822131	1474371822223	f	70
181209	1967039	We hope you found this information useful.	We hope you found this information useful.	93499207	1474371822263	1474371822404	o	79
181209	1967039	We hope you found this information useful.	We hope you found this information useful.	93499208	1474371822650	1474371822731	u	85
181209	1967039	We hope you found this information useful.	We hope you found this information useful.	93499272	1474371822904	1474371823008	n	78
181209	1967039	We hope you found this information useful.	We hope you found this information useful.	93499275	1474371823557	1474371823648	d	68
181209	1967039	We hope you found this information useful.	We hope you found this information useful.	93499279	1474371823678	1474371823790	 	32
181209	1967039	We hope you found this information useful.	We hope you found this information useful.	93499282	1474371824429	1474371824504	t	84
181209	1967039	We hope you found this information useful.	We hope you found this information useful.	93499283	1474371824604	1474371824675	h	72
181209	1967039	We hope you found this information useful.	We hope you found this information useful.	93499314	1474371824918	1474371825054	i	73
181209	1967039	We hope you found this information useful.	We hope you found this information useful.	93499315	1474371825093	1474371825175	s	83
181209	1967039	We hope you found this information useful.	We hope you found this information useful.	93499317	1474371825205	1474371825327	 	32
181209	1967039	We hope you found this information useful.	We hope you found this information useful.	93499320	1474371826262	1474371826374	i	73
181209	1967039	We hope you found this information useful.	We hope you found this information useful.	93499323	1474371826435	1474371826570	n	78
181209	1967039	We hope you found this information useful.	We hope you found this information useful.	93499383	1474371827209	1474371827361	f	70
181209	1967039	We hope you found this information useful.	We hope you found this information useful.	93499384	1474371827442	1474371827566	o	79
181209	1967039	We hope you found this information useful.	We hope you found this information useful.	93499387	1474371827676	1474371827788	r	82
181209	1967039	We hope you found this information useful.	We hope you found this information useful.	93499389	1474371828146	1474371828238	m	77
181209	1967039	We hope you found this information useful.	We hope you found this information useful.	93499391	1474371828553	1474371828736	a	65
181209	1967039	We hope you found this information useful.	We hope you found this information useful.	93499402	1474371828810	1474371828888	t	84
181209	1967039	We hope you found this information useful.	We hope you found this information useful.	93499403	1474371829134	1474371829215	i	73
181209	1967039	We hope you found this information useful.	We hope you found this information useful.	93499404	1474371829305	1474371829396	o	79
181209	1967039	We hope you found this information useful.	We hope you found this information useful.	93499406	1474371829518	1474371829643	n	78
181209	1967039	We hope you found this information useful.	We hope you found this information useful.	93499407	1474371829683	1474371829802	 	32
181209	1967039	We hope you found this information useful.	We hope you found this information useful.	93499506	1474371831727	1474371831828	u	85
181209	1967039	We hope you found this information useful.	We hope you found this information useful.	93499507	1474371831878	1474371831971	s	83
181209	1967039	We hope you found this information useful.	We hope you found this information useful.	93499509	1474371832084	1474371832166	e	69
181209	1967039	We hope you found this information useful.	We hope you found this information useful.	93499513	1474371832804	1474371832915	f	70
181209	1967039	We hope you found this information useful.	We hope you found this information useful.	93499516	1474371833035	1474371833090	i	73
181209	1967039	We hope you found this information useful.	We hope you found this information useful.	93499555	1474371833669	1474371833791	BKSP	8
181209	1967039	We hope you found this information useful.	We hope you found this information useful.	93499556	1474371833872	1474371833964	u	85
181209	1967039	We hope you found this information useful.	We hope you found this information useful.	93499558	1474371834024	1474371834127	l	76
181209	1967039	We hope you found this information useful.	We hope you found this information useful.	93499559	1474371834399	1474371834482	.	190
181209	1967053	Chad thought we were on a treasure hunt.	Chad thought we were on a treasure hunt.	93499701	1474371837501	1474371838277	SHIFT	16
181209	1967053	Chad thought we were on a treasure hunt.	Chad thought we were on a treasure hunt.	93499705	1474371838235	1474371838307	C	67
181209	1967053	Chad thought we were on a treasure hunt.	Chad thought we were on a treasure hunt.	93499709	1474371838793	1474371838865	h	72
181209	1967053	Chad thought we were on a treasure hunt.	Chad thought we were on a treasure hunt.	93499713	1474371838895	1474371838997	a	65
181209	1967053	Chad thought we were on a treasure hunt.	Chad thought we were on a treasure hunt.	93499717	1474371839151	1474371839243	d	68
181209	1967053	Chad thought we were on a treasure hunt.	Chad thought we were on a treasure hunt.	93499720	1474371839246	1474371839374	 	32
181209	1967053	Chad thought we were on a treasure hunt.	Chad thought we were on a treasure hunt.	93499758	1474371840289	1474371840380	t	84
181209	1967053	Chad thought we were on a treasure hunt.	Chad thought we were on a treasure hunt.	93499759	1474371840384	1474371840472	h	72
181209	1967053	Chad thought we were on a treasure hunt.	Chad thought we were on a treasure hunt.	93499761	1474371840808	1474371840920	o	79
181209	1967053	Chad thought we were on a treasure hunt.	Chad thought we were on a treasure hunt.	93499764	1474371840971	1474371841073	u	85
181209	1967053	Chad thought we were on a treasure hunt.	Chad thought we were on a treasure hunt.	93499768	1474371841479	1474371841611	g	71
181209	1967053	Chad thought we were on a treasure hunt.	Chad thought we were on a treasure hunt.	93499805	1474371841704	1474371841878	h	72
181209	1967053	Chad thought we were on a treasure hunt.	Chad thought we were on a treasure hunt.	93499807	1474371841876	1474371841977	t	84
181209	1967053	Chad thought we were on a treasure hunt.	Chad thought we were on a treasure hunt.	93499810	1474371842088	1474371842202	 	32
181209	1967053	Chad thought we were on a treasure hunt.	Chad thought we were on a treasure hunt.	93499813	1474371842985	1474371843096	w	87
181209	1967053	Chad thought we were on a treasure hunt.	Chad thought we were on a treasure hunt.	93499816	1474371843167	1474371843249	e	69
181209	1967053	Chad thought we were on a treasure hunt.	Chad thought we were on a treasure hunt.	93499851	1474371843279	1474371843432	 	32
181209	1967053	Chad thought we were on a treasure hunt.	Chad thought we were on a treasure hunt.	93499853	1474371843533	1474371843675	w	87
181209	1967053	Chad thought we were on a treasure hunt.	Chad thought we were on a treasure hunt.	93499860	1474371843748	1474371843870	e	69
181209	1967053	Chad thought we were on a treasure hunt.	Chad thought we were on a treasure hunt.	93499863	1474371843991	1474371844073	r	82
181209	1967053	Chad thought we were on a treasure hunt.	Chad thought we were on a treasure hunt.	93499866	1474371844174	1474371844298	e	69
181209	1967053	Chad thought we were on a treasure hunt.	Chad thought we were on a treasure hunt.	93499931	1474371844358	1474371844511	 	32
181209	1967053	Chad thought we were on a treasure hunt.	Chad thought we were on a treasure hunt.	93499934	1474371845377	1474371845478	o	79
181209	1967053	Chad thought we were on a treasure hunt.	Chad thought we were on a treasure hunt.	93499936	1474371845609	1474371845733	n	78
181209	1967053	Chad thought we were on a treasure hunt.	Chad thought we were on a treasure hunt.	93499938	1474371845764	1474371845876	 	32
181209	1967053	Chad thought we were on a treasure hunt.	Chad thought we were on a treasure hunt.	93499940	1474371846007	1474371846099	a	65
181209	1967053	Chad thought we were on a treasure hunt.	Chad thought we were on a treasure hunt.	93499993	1474371846119	1474371846252	 	32
181209	1967053	Chad thought we were on a treasure hunt.	Chad thought we were on a treasure hunt.	93499996	1474371846606	1474371846708	t	84
181209	1967053	Chad thought we were on a treasure hunt.	Chad thought we were on a treasure hunt.	93499999	1474371846842	1474371846974	r	82
181209	1967053	Chad thought we were on a treasure hunt.	Chad thought we were on a treasure hunt.	93500006	1474371847045	1474371847147	e	69
181209	1967053	Chad thought we were on a treasure hunt.	Chad thought we were on a treasure hunt.	93500009	1474371847382	1474371847564	a	65
181209	1967053	Chad thought we were on a treasure hunt.	Chad thought we were on a treasure hunt.	93500089	1474371847533	1474371847685	s	83
181209	1967053	Chad thought we were on a treasure hunt.	Chad thought we were on a treasure hunt.	93500092	1474371848112	1474371848258	u	85
181209	1967053	Chad thought we were on a treasure hunt.	Chad thought we were on a treasure hunt.	93500098	1474371848438	1474371848560	r	82
181209	1967053	Chad thought we were on a treasure hunt.	Chad thought we were on a treasure hunt.	93500104	1474371848579	1474371848712	e	69
181209	1967053	Chad thought we were on a treasure hunt.	Chad thought we were on a treasure hunt.	93500107	1474371848805	1474371848958	 	32
181209	1967053	Chad thought we were on a treasure hunt.	Chad thought we were on a treasure hunt.	93500112	1474371849599	1474371849731	h	72
181209	1967053	Chad thought we were on a treasure hunt.	Chad thought we were on a treasure hunt.	93500208	1474371849905	1474371850006	u	85
181209	1967053	Chad thought we were on a treasure hunt.	Chad thought we were on a treasure hunt.	93500210	1474371850128	1474371850250	n	78
181209	1967053	Chad thought we were on a treasure hunt.	Chad thought we were on a treasure hunt.	93500213	1474371850516	1474371850586	t	84
181209	1967053	Chad thought we were on a treasure hunt.	Chad thought we were on a treasure hunt.	93500216	1474371851156	1474371851257	.	190
181209	1967053	Chad thought we were on a treasure hunt.	Chad thought we were on a treasure hunt.	93500218	1474371851432	1474371851533	'	222
181209	1967053	Chad thought we were on a treasure hunt.	Chad thought we were on a treasure hunt.	93500241	1474371852224	1474371852275	BKSP	8
181209	1967066	This needs to go to imbalance between Quantum and Crestone.	This needs to  go to imbalance between Quantum and Crestone.	93500395	1474371855082	1474371855626	SHIFT	16
181209	1967066	This needs to go to imbalance between Quantum and Crestone.	This needs to  go to imbalance between Quantum and Crestone.	93500396	1474371855590	1474371855641	T	84
181209	1967066	This needs to go to imbalance between Quantum and Crestone.	This needs to  go to imbalance between Quantum and Crestone.	93500398	1474371855762	1474371855836	h	72
181209	1967066	This needs to go to imbalance between Quantum and Crestone.	This needs to  go to imbalance between Quantum and Crestone.	93500400	1474371856220	1474371856302	i	73
181209	1967066	This needs to go to imbalance between Quantum and Crestone.	This needs to  go to imbalance between Quantum and Crestone.	93500404	1474371856416	1474371856497	s	83
181209	1967066	This needs to go to imbalance between Quantum and Crestone.	This needs to  go to imbalance between Quantum and Crestone.	93500405	1474371856547	1474371856648	 	32
181209	1967066	This needs to go to imbalance between Quantum and Crestone.	This needs to  go to imbalance between Quantum and Crestone.	93500448	1474371857421	1474371857523	n	78
181209	1967066	This needs to go to imbalance between Quantum and Crestone.	This needs to  go to imbalance between Quantum and Crestone.	93500450	1474371857684	1474371857755	e	69
181209	1967066	This needs to go to imbalance between Quantum and Crestone.	This needs to  go to imbalance between Quantum and Crestone.	93500453	1474371857815	1474371857910	e	69
181209	1967066	This needs to go to imbalance between Quantum and Crestone.	This needs to  go to imbalance between Quantum and Crestone.	93500456	1474371858101	1474371858285	d	68
181209	1967066	This needs to go to imbalance between Quantum and Crestone.	This needs to  go to imbalance between Quantum and Crestone.	93500460	1474371858387	1474371858549	s	83
181209	1967066	This needs to go to imbalance between Quantum and Crestone.	This needs to  go to imbalance between Quantum and Crestone.	93500481	1474371858553	1474371858670	 	32
181209	1967066	This needs to go to imbalance between Quantum and Crestone.	This needs to  go to imbalance between Quantum and Crestone.	93500482	1474371859261	1474371859365	t	84
181209	1967066	This needs to go to imbalance between Quantum and Crestone.	This needs to  go to imbalance between Quantum and Crestone.	93500483	1474371859588	1474371859720	o	79
181209	1967066	This needs to go to imbalance between Quantum and Crestone.	This needs to  go to imbalance between Quantum and Crestone.	93500484	1474371859749	1474371859904	 	32
181209	1967066	This needs to go to imbalance between Quantum and Crestone.	This needs to  go to imbalance between Quantum and Crestone.	93500485	1474371859964	1474371860005	 	32
181209	1967066	This needs to go to imbalance between Quantum and Crestone.	This needs to  go to imbalance between Quantum and Crestone.	93500577	1474371860206	1474371860328	g	71
181209	1967066	This needs to go to imbalance between Quantum and Crestone.	This needs to  go to imbalance between Quantum and Crestone.	93500580	1474371860422	1474371860544	o	79
181209	1967066	This needs to go to imbalance between Quantum and Crestone.	This needs to  go to imbalance between Quantum and Crestone.	93500581	1474371860563	1474371860685	 	32
181209	1967066	This needs to go to imbalance between Quantum and Crestone.	This needs to  go to imbalance between Quantum and Crestone.	93500582	1474371862784	1474371862875	t	84
181209	1967066	This needs to go to imbalance between Quantum and Crestone.	This needs to  go to imbalance between Quantum and Crestone.	93500583	1474371862929	1474371863064	o	79
181209	1967066	This needs to go to imbalance between Quantum and Crestone.	This needs to  go to imbalance between Quantum and Crestone.	93500690	1474371863060	1474371863192	 	32
181209	1967066	This needs to go to imbalance between Quantum and Crestone.	This needs to  go to imbalance between Quantum and Crestone.	93500693	1474371864087	1474371864138	i	73
181209	1967066	This needs to go to imbalance between Quantum and Crestone.	This needs to  go to imbalance between Quantum and Crestone.	93500695	1474371864343	1474371864394	m	77
181209	1967066	This needs to go to imbalance between Quantum and Crestone.	This needs to  go to imbalance between Quantum and Crestone.	93500697	1474371865046	1474371865127	b	66
181209	1967066	This needs to go to imbalance between Quantum and Crestone.	This needs to  go to imbalance between Quantum and Crestone.	93500699	1474371865380	1474371865475	a	65
181209	1967066	This needs to go to imbalance between Quantum and Crestone.	This needs to  go to imbalance between Quantum and Crestone.	93500701	1474371865596	1474371865718	l	76
181209	1967066	This needs to go to imbalance between Quantum and Crestone.	This needs to  go to imbalance between Quantum and Crestone.	93500743	1474371865747	1474371865819	a	65
181209	1967066	This needs to go to imbalance between Quantum and Crestone.	This needs to  go to imbalance between Quantum and Crestone.	93500746	1474371866174	1474371866245	n	78
181209	1967066	This needs to go to imbalance between Quantum and Crestone.	This needs to  go to imbalance between Quantum and Crestone.	93500749	1474371866560	1474371866774	c	67
181209	1967066	This needs to go to imbalance between Quantum and Crestone.	This needs to  go to imbalance between Quantum and Crestone.	93500751	1474371866742	1474371866854	e	69
181209	1967066	This needs to go to imbalance between Quantum and Crestone.	This needs to  go to imbalance between Quantum and Crestone.	93500753	1474371866958	1474371867121	 	32
181209	1967066	This needs to go to imbalance between Quantum and Crestone.	This needs to  go to imbalance between Quantum and Crestone.	93500813	1474371868239	1474371868355	b	66
181209	1967066	This needs to go to imbalance between Quantum and Crestone.	This needs to  go to imbalance between Quantum and Crestone.	93500815	1474371868351	1474371868497	e	69
181209	1967066	This needs to go to imbalance between Quantum and Crestone.	This needs to  go to imbalance between Quantum and Crestone.	93500818	1474371868608	1474371868720	t	84
181209	1967066	This needs to go to imbalance between Quantum and Crestone.	This needs to  go to imbalance between Quantum and Crestone.	93500821	1474371868953	1474371869046	w	87
181209	1967066	This needs to go to imbalance between Quantum and Crestone.	This needs to  go to imbalance between Quantum and Crestone.	93500827	1474371869176	1474371869237	e	69
181209	1967066	This needs to go to imbalance between Quantum and Crestone.	This needs to  go to imbalance between Quantum and Crestone.	93500927	1474371869329	1474371869411	e	69
181209	1967066	This needs to go to imbalance between Quantum and Crestone.	This needs to  go to imbalance between Quantum and Crestone.	93500928	1474371869484	1474371869599	n	78
181209	1967066	This needs to go to imbalance between Quantum and Crestone.	This needs to  go to imbalance between Quantum and Crestone.	93500929	1474371869596	1474371869748	 	32
181209	1967066	This needs to go to imbalance between Quantum and Crestone.	This needs to  go to imbalance between Quantum and Crestone.	93500930	1474371870572	1474371871487	SHIFT	16
181209	1967066	This needs to go to imbalance between Quantum and Crestone.	This needs to  go to imbalance between Quantum and Crestone.	93500931	1474371871405	1474371871511	Q	81
181209	1967066	This needs to go to imbalance between Quantum and Crestone.	This needs to  go to imbalance between Quantum and Crestone.	93500932	1474371871854	1474371871925	u	85
181209	1967066	This needs to go to imbalance between Quantum and Crestone.	This needs to  go to imbalance between Quantum and Crestone.	93500975	1474371871965	1474371872069	a	65
181209	1967066	This needs to go to imbalance between Quantum and Crestone.	This needs to  go to imbalance between Quantum and Crestone.	93500977	1474371872250	1474371872332	n	78
181209	1967066	This needs to go to imbalance between Quantum and Crestone.	This needs to  go to imbalance between Quantum and Crestone.	93500978	1474371872739	1474371872831	t	84
181209	1967066	This needs to go to imbalance between Quantum and Crestone.	This needs to  go to imbalance between Quantum and Crestone.	93500981	1474371872890	1474371872992	u	85
181209	1967066	This needs to go to imbalance between Quantum and Crestone.	This needs to  go to imbalance between Quantum and Crestone.	93500984	1474371873228	1474371873258	m	77
181209	1967066	This needs to go to imbalance between Quantum and Crestone.	This needs to  go to imbalance between Quantum and Crestone.	93501022	1474371873350	1474371873462	 	32
181209	1967066	This needs to go to imbalance between Quantum and Crestone.	This needs to  go to imbalance between Quantum and Crestone.	93501024	1474371874224	1474371874364	a	65
181209	1967066	This needs to go to imbalance between Quantum and Crestone.	This needs to  go to imbalance between Quantum and Crestone.	93501026	1474371874386	1474371874507	n	78
181209	1967066	This needs to go to imbalance between Quantum and Crestone.	This needs to  go to imbalance between Quantum and Crestone.	93501027	1474371874551	1474371874633	d	68
181209	1967066	This needs to go to imbalance between Quantum and Crestone.	This needs to  go to imbalance between Quantum and Crestone.	93501028	1474371874663	1474371874794	 	32
181209	1967066	This needs to go to imbalance between Quantum and Crestone.	This needs to  go to imbalance between Quantum and Crestone.	93501075	1474371874926	1474371875936	SHIFT	16
181209	1967066	This needs to go to imbalance between Quantum and Crestone.	This needs to  go to imbalance between Quantum and Crestone.	93501074	1474371875840	1474371875932	C	67
181209	1967066	This needs to go to imbalance between Quantum and Crestone.	This needs to  go to imbalance between Quantum and Crestone.	93501077	1474371876584	1474371876645	r	82
181209	1967066	This needs to go to imbalance between Quantum and Crestone.	This needs to  go to imbalance between Quantum and Crestone.	93501080	1474371876746	1474371876827	e	69
181209	1967066	This needs to go to imbalance between Quantum and Crestone.	This needs to  go to imbalance between Quantum and Crestone.	93501083	1474371876918	1474371877040	s	83
181209	1967066	This needs to go to imbalance between Quantum and Crestone.	This needs to  go to imbalance between Quantum and Crestone.	93501086	1474371877204	1474371877295	t	84
181209	1967066	This needs to go to imbalance between Quantum and Crestone.	This needs to  go to imbalance between Quantum and Crestone.	93501139	1474371877622	1474371877744	o	79
181209	1967066	This needs to go to imbalance between Quantum and Crestone.	This needs to  go to imbalance between Quantum and Crestone.	93501140	1474371877884	1474371877997	n	78
181209	1967066	This needs to go to imbalance between Quantum and Crestone.	This needs to  go to imbalance between Quantum and Crestone.	93501141	1474371878108	1474371878191	e	69
181209	1967066	This needs to go to imbalance between Quantum and Crestone.	This needs to  go to imbalance between Quantum and Crestone.	93501142	1474371878770	1474371878850	.	190
181209	1967085	How long can you guys shop?	How long can you guys shop?	93501313	1474371881668	1474371882501	SHIFT	16
181209	1967085	How long can you guys shop?	How long can you guys shop?	93501316	1474371882440	1474371882521	H	72
181209	1967085	How long can you guys shop?	How long can you guys shop?	93501319	1474371883068	1474371883193	o	79
181209	1967085	How long can you guys shop?	How long can you guys shop?	93501322	1474371883233	1474371883315	w	87
181209	1967085	How long can you guys shop?	How long can you guys shop?	93501326	1474371883385	1474371883486	 	32
181209	1967085	How long can you guys shop?	How long can you guys shop?	93501329	1474371883954	1474371884045	l	76
181209	1967085	How long can you guys shop?	How long can you guys shop?	93501372	1474371884160	1474371884302	o	79
181209	1967085	How long can you guys shop?	How long can you guys shop?	93501374	1474371884555	1474371884639	n	78
181209	1967085	How long can you guys shop?	How long can you guys shop?	93501376	1474371884809	1474371884890	g	71
181209	1967085	How long can you guys shop?	How long can you guys shop?	93501379	1474371884931	1474371885053	 	32
181209	1967085	How long can you guys shop?	How long can you guys shop?	93501382	1474371885919	1474371886112	c	67
181209	1967085	How long can you guys shop?	How long can you guys shop?	93501420	1474371886081	1474371886175	a	65
181209	1967085	How long can you guys shop?	How long can you guys shop?	93501422	1474371886347	1474371886438	n	78
181209	1967085	How long can you guys shop?	How long can you guys shop?	93501425	1474371886459	1474371886590	 	32
181209	1967085	How long can you guys shop?	How long can you guys shop?	93501428	1474371886906	1474371887049	y	89
181209	1967085	How long can you guys shop?	How long can you guys shop?	93501432	1474371887109	1474371887264	o	79
181209	1967085	How long can you guys shop?	How long can you guys shop?	93501436	1474371887304	1474371887386	u	85
181209	1967085	How long can you guys shop?	How long can you guys shop?	93501467	1474371887415	1474371887557	 	32
181209	1967085	How long can you guys shop?	How long can you guys shop?	93501468	1474371887963	1474371888095	g	71
181209	1967085	How long can you guys shop?	How long can you guys shop?	93501469	1474371888310	1474371888442	u	85
181209	1967085	How long can you guys shop?	How long can you guys shop?	93501470	1474371888503	1474371888614	y	89
181209	1967085	How long can you guys shop?	How long can you guys shop?	93501471	1474371889062	1474371889174	s	83
181209	1967085	How long can you guys shop?	How long can you guys shop?	93501517	1474371889177	1474371889288	 	32
181209	1967085	How long can you guys shop?	How long can you guys shop?	93501518	1474371890100	1474371890195	s	83
181209	1967085	How long can you guys shop?	How long can you guys shop?	93501519	1474371890265	1474371890356	h	72
181209	1967085	How long can you guys shop?	How long can you guys shop?	93501520	1474371890588	1474371890650	o	79
181209	1967085	How long can you guys shop?	How long can you guys shop?	93501521	1474371890763	1474371890834	p	80
181209	1967085	How long can you guys shop?	How long can you guys shop?	93501531	1474371891332	1474371891484	?	191
181209	1967096	Nick makes work fun.	Nick names work fun.	93501704	1474371894871	1474371894972	N	78
181209	1967096	Nick makes work fun.	Nick names work fun.	93501705	1474371895093	1474371895248	i	73
181209	1967096	Nick makes work fun.	Nick names work fun.	93501706	1474371895430	1474371895541	c	67
181209	1967096	Nick makes work fun.	Nick names work fun.	93501708	1474371895724	1474371895809	k	75
181209	1967096	Nick makes work fun.	Nick names work fun.	93501709	1474371895889	1474371895990	 	32
181209	1967096	Nick makes work fun.	Nick names work fun.	93501750	1474371896212	1474371896296	n	78
181209	1967096	Nick makes work fun.	Nick names work fun.	93501751	1474371896376	1474371896488	a	65
181209	1967096	Nick makes work fun.	Nick names work fun.	93501753	1474371896518	1474371896630	m	77
181209	1967096	Nick makes work fun.	Nick names work fun.	93501755	1474371896845	1474371896926	e	69
181209	1967096	Nick makes work fun.	Nick names work fun.	93501758	1474371897006	1474371897117	s	83
181209	1967096	Nick makes work fun.	Nick names work fun.	93501810	1474371897168	1474371897283	 	32
181209	1967096	Nick makes work fun.	Nick names work fun.	93501814	1474371898123	1474371898205	w	87
181209	1967096	Nick makes work fun.	Nick names work fun.	93501819	1474371898288	1474371898441	o	79
181209	1967096	Nick makes work fun.	Nick names work fun.	93501822	1474371898572	1474371898664	r	82
181209	1967096	Nick makes work fun.	Nick names work fun.	93501825	1474371898849	1474371898884	k	75
181209	1967096	Nick makes work fun.	Nick names work fun.	93501894	1474371899162	1474371899284	 	32
181209	1967096	Nick makes work fun.	Nick names work fun.	93501897	1474371899976	1474371900077	f	70
181209	1967096	Nick makes work fun.	Nick names work fun.	93501902	1474371900341	1474371900413	u	85
181209	1967096	Nick makes work fun.	Nick names work fun.	93501906	1474371900555	1474371900647	n	78
181209	1967096	Nick makes work fun.	Nick names work fun.	93501909	1474371901339	1474371901410	.	190
181209	1967100	Add a Star Trek convention and sports memorabilia show to the mix.	Add a Star Trek convention and sports memorabilia show to yhe mix.	93502046	1474371904228	1474371905004	SHIFT	16
181209	1967100	Add a Star Trek convention and sports memorabilia show to the mix.	Add a Star Trek convention and sports memorabilia show to yhe mix.	93502048	1474371904839	1474371905024	A	65
181209	1967100	Add a Star Trek convention and sports memorabilia show to the mix.	Add a Star Trek convention and sports memorabilia show to yhe mix.	93502051	1474371905256	1474371905327	d	68
181209	1967100	Add a Star Trek convention and sports memorabilia show to the mix.	Add a Star Trek convention and sports memorabilia show to yhe mix.	93502054	1474371905400	1474371905500	d	68
181209	1967100	Add a Star Trek convention and sports memorabilia show to the mix.	Add a Star Trek convention and sports memorabilia show to yhe mix.	93502056	1474371905652	1474371905805	 	32
181209	1967100	Add a Star Trek convention and sports memorabilia show to the mix.	Add a Star Trek convention and sports memorabilia show to yhe mix.	93502057	1474371905835	1474371905960	a	65
181209	1967100	Add a Star Trek convention and sports memorabilia show to the mix.	Add a Star Trek convention and sports memorabilia show to yhe mix.	93502114	1474371906334	1474371906428	 	32
181209	1967100	Add a Star Trek convention and sports memorabilia show to the mix.	Add a Star Trek convention and sports memorabilia show to yhe mix.	93502116	1474371906600	1474371907017	SHIFT	16
181209	1967100	Add a Star Trek convention and sports memorabilia show to the mix.	Add a Star Trek convention and sports memorabilia show to yhe mix.	93502120	1474371906811	1474371907038	S	83
181209	1967100	Add a Star Trek convention and sports memorabilia show to the mix.	Add a Star Trek convention and sports memorabilia show to yhe mix.	93502123	1474371907239	1474371907321	t	84
181209	1967100	Add a Star Trek convention and sports memorabilia show to the mix.	Add a Star Trek convention and sports memorabilia show to yhe mix.	93502126	1474371907394	1474371907475	a	65
181209	1967100	Add a Star Trek convention and sports memorabilia show to the mix.	Add a Star Trek convention and sports memorabilia show to yhe mix.	93502127	1474371907596	1474371907688	r	82
181209	1967100	Add a Star Trek convention and sports memorabilia show to the mix.	Add a Star Trek convention and sports memorabilia show to yhe mix.	93502155	1474371907759	1474371907903	 	32
181209	1967100	Add a Star Trek convention and sports memorabilia show to the mix.	Add a Star Trek convention and sports memorabilia show to yhe mix.	93502158	1474371908348	1474371908653	SHIFT	16
181209	1967100	Add a Star Trek convention and sports memorabilia show to the mix.	Add a Star Trek convention and sports memorabilia show to yhe mix.	93502164	1474371908613	1474371908674	T	84
181209	1967100	Add a Star Trek convention and sports memorabilia show to the mix.	Add a Star Trek convention and sports memorabilia show to yhe mix.	93502169	1474371908845	1474371908910	r	82
181209	1967100	Add a Star Trek convention and sports memorabilia show to the mix.	Add a Star Trek convention and sports memorabilia show to yhe mix.	93502174	1474371909193	1474371909305	e	69
181209	1967100	Add a Star Trek convention and sports memorabilia show to the mix.	Add a Star Trek convention and sports memorabilia show to yhe mix.	93502178	1474371909560	1474371909631	k	75
181209	1967100	Add a Star Trek convention and sports memorabilia show to the mix.	Add a Star Trek convention and sports memorabilia show to yhe mix.	93502227	1474371909702	1474371909804	 	32
181209	1967100	Add a Star Trek convention and sports memorabilia show to the mix.	Add a Star Trek convention and sports memorabilia show to yhe mix.	93502230	1474371910800	1474371910902	c	67
181209	1967100	Add a Star Trek convention and sports memorabilia show to the mix.	Add a Star Trek convention and sports memorabilia show to yhe mix.	93502235	1474371910975	1474371911067	o	79
181209	1967100	Add a Star Trek convention and sports memorabilia show to the mix.	Add a Star Trek convention and sports memorabilia show to yhe mix.	93502240	1474371911198	1474371911289	n	78
181209	1967100	Add a Star Trek convention and sports memorabilia show to the mix.	Add a Star Trek convention and sports memorabilia show to yhe mix.	93502243	1474371911686	1474371911777	v	86
181209	1967100	Add a Star Trek convention and sports memorabilia show to the mix.	Add a Star Trek convention and sports memorabilia show to yhe mix.	93502282	1474371911952	1474371912064	e	69
181209	1967100	Add a Star Trek convention and sports memorabilia show to the mix.	Add a Star Trek convention and sports memorabilia show to yhe mix.	93502284	1474371912723	1474371912836	n	78
181209	1967100	Add a Star Trek convention and sports memorabilia show to the mix.	Add a Star Trek convention and sports memorabilia show to yhe mix.	93502286	1474371912906	1474371913000	t	84
181209	1967100	Add a Star Trek convention and sports memorabilia show to the mix.	Add a Star Trek convention and sports memorabilia show to yhe mix.	93502287	1474371913131	1474371913212	i	73
181209	1967100	Add a Star Trek convention and sports memorabilia show to the mix.	Add a Star Trek convention and sports memorabilia show to yhe mix.	93502288	1474371913313	1474371913394	o	79
181209	1967100	Add a Star Trek convention and sports memorabilia show to the mix.	Add a Star Trek convention and sports memorabilia show to yhe mix.	93502338	1474371913497	1474371913630	n	78
181209	1967100	Add a Star Trek convention and sports memorabilia show to the mix.	Add a Star Trek convention and sports memorabilia show to yhe mix.	93502340	1474371913669	1474371913782	 	32
181209	1967100	Add a Star Trek convention and sports memorabilia show to the mix.	Add a Star Trek convention and sports memorabilia show to yhe mix.	93502342	1474371914506	1474371914607	a	65
181209	1967100	Add a Star Trek convention and sports memorabilia show to the mix.	Add a Star Trek convention and sports memorabilia show to yhe mix.	93502345	1474371914647	1474371914789	n	78
181209	1967100	Add a Star Trek convention and sports memorabilia show to the mix.	Add a Star Trek convention and sports memorabilia show to yhe mix.	93502348	1474371914910	1474371914984	d	68
181209	1967100	Add a Star Trek convention and sports memorabilia show to the mix.	Add a Star Trek convention and sports memorabilia show to yhe mix.	93502405	1474371915014	1474371915135	 	32
181209	1967100	Add a Star Trek convention and sports memorabilia show to the mix.	Add a Star Trek convention and sports memorabilia show to yhe mix.	93502409	1474371915512	1474371915674	s	83
181209	1967100	Add a Star Trek convention and sports memorabilia show to the mix.	Add a Star Trek convention and sports memorabilia show to yhe mix.	93502414	1474371916254	1474371916335	p	80
181209	1967100	Add a Star Trek convention and sports memorabilia show to the mix.	Add a Star Trek convention and sports memorabilia show to yhe mix.	93502418	1474371916509	1474371916642	o	79
181209	1967100	Add a Star Trek convention and sports memorabilia show to the mix.	Add a Star Trek convention and sports memorabilia show to yhe mix.	93502421	1474371917150	1474371917272	r	82
181209	1967100	Add a Star Trek convention and sports memorabilia show to the mix.	Add a Star Trek convention and sports memorabilia show to yhe mix.	93502493	1474371917343	1474371917424	t	84
181209	1967100	Add a Star Trek convention and sports memorabilia show to the mix.	Add a Star Trek convention and sports memorabilia show to yhe mix.	93502496	1474371917791	1474371917912	s	83
181209	1967100	Add a Star Trek convention and sports memorabilia show to the mix.	Add a Star Trek convention and sports memorabilia show to yhe mix.	93502498	1474371917983	1474371918129	 	32
181209	1967100	Add a Star Trek convention and sports memorabilia show to the mix.	Add a Star Trek convention and sports memorabilia show to yhe mix.	93502500	1474371919135	1474371919216	m	77
181209	1967100	Add a Star Trek convention and sports memorabilia show to the mix.	Add a Star Trek convention and sports memorabilia show to yhe mix.	93502502	1474371919266	1474371919337	e	69
181209	1967100	Add a Star Trek convention and sports memorabilia show to the mix.	Add a Star Trek convention and sports memorabilia show to yhe mix.	93502595	1474371919438	1474371919523	m	77
181209	1967100	Add a Star Trek convention and sports memorabilia show to the mix.	Add a Star Trek convention and sports memorabilia show to yhe mix.	93502597	1474371920566	1474371920668	o	79
181209	1967100	Add a Star Trek convention and sports memorabilia show to the mix.	Add a Star Trek convention and sports memorabilia show to yhe mix.	93502599	1474371921450	1474371921534	r	82
181209	1967100	Add a Star Trek convention and sports memorabilia show to the mix.	Add a Star Trek convention and sports memorabilia show to yhe mix.	93502602	1474371921595	1474371921686	a	65
181209	1967100	Add a Star Trek convention and sports memorabilia show to the mix.	Add a Star Trek convention and sports memorabilia show to yhe mix.	93502607	1474371923022	1474371923116	b	66
181209	1967100	Add a Star Trek convention and sports memorabilia show to the mix.	Add a Star Trek convention and sports memorabilia show to yhe mix.	93502662	1474371923369	1474371923440	i	73
181209	1967100	Add a Star Trek convention and sports memorabilia show to the mix.	Add a Star Trek convention and sports memorabilia show to yhe mix.	93502663	1474371923583	1474371923664	l	76
181209	1967100	Add a Star Trek convention and sports memorabilia show to the mix.	Add a Star Trek convention and sports memorabilia show to yhe mix.	93502665	1474371923796	1474371923867	i	73
181209	1967100	Add a Star Trek convention and sports memorabilia show to the mix.	Add a Star Trek convention and sports memorabilia show to yhe mix.	93502667	1474371924375	1474371924497	a	65
181209	1967100	Add a Star Trek convention and sports memorabilia show to the mix.	Add a Star Trek convention and sports memorabilia show to yhe mix.	93502669	1474371924894	1474371925006	 	32
181209	1967100	Add a Star Trek convention and sports memorabilia show to the mix.	Add a Star Trek convention and sports memorabilia show to yhe mix.	93502741	1474371925565	1474371925649	s	83
181209	1967100	Add a Star Trek convention and sports memorabilia show to the mix.	Add a Star Trek convention and sports memorabilia show to yhe mix.	93502743	1474371925719	1474371925801	h	72
181209	1967100	Add a Star Trek convention and sports memorabilia show to the mix.	Add a Star Trek convention and sports memorabilia show to yhe mix.	93502744	1474371926013	1474371926097	p	80
181209	1967100	Add a Star Trek convention and sports memorabilia show to the mix.	Add a Star Trek convention and sports memorabilia show to yhe mix.	93502746	1474371926686	1474371926757	BKSP	8
181209	1967100	Add a Star Trek convention and sports memorabilia show to the mix.	Add a Star Trek convention and sports memorabilia show to yhe mix.	93502748	1474371927456	1474371927528	o	79
181209	1967100	Add a Star Trek convention and sports memorabilia show to the mix.	Add a Star Trek convention and sports memorabilia show to yhe mix.	93502752	1474371927693	1474371927763	w	87
181209	1967100	Add a Star Trek convention and sports memorabilia show to the mix.	Add a Star Trek convention and sports memorabilia show to yhe mix.	93502801	1474371927814	1474371927926	 	32
181209	1967100	Add a Star Trek convention and sports memorabilia show to the mix.	Add a Star Trek convention and sports memorabilia show to yhe mix.	93502805	1474371928800	1474371928881	t	84
181209	1967100	Add a Star Trek convention and sports memorabilia show to the mix.	Add a Star Trek convention and sports memorabilia show to yhe mix.	93502809	1474371929084	1474371929199	o	79
181209	1967100	Add a Star Trek convention and sports memorabilia show to the mix.	Add a Star Trek convention and sports memorabilia show to yhe mix.	93502813	1474371929249	1474371929361	 	32
181209	1967100	Add a Star Trek convention and sports memorabilia show to the mix.	Add a Star Trek convention and sports memorabilia show to yhe mix.	93502818	1474371929562	1474371929593	y	89
181209	1967100	Add a Star Trek convention and sports memorabilia show to the mix.	Add a Star Trek convention and sports memorabilia show to yhe mix.	93502852	1474371929676	1474371929767	h	72
181209	1967100	Add a Star Trek convention and sports memorabilia show to the mix.	Add a Star Trek convention and sports memorabilia show to yhe mix.	93502855	1474371929919	1474371930000	e	69
181209	1967100	Add a Star Trek convention and sports memorabilia show to the mix.	Add a Star Trek convention and sports memorabilia show to yhe mix.	93502858	1474371930040	1474371930154	 	32
181209	1967100	Add a Star Trek convention and sports memorabilia show to the mix.	Add a Star Trek convention and sports memorabilia show to yhe mix.	93502861	1474371930497	1474371930663	m	77
181209	1967100	Add a Star Trek convention and sports memorabilia show to the mix.	Add a Star Trek convention and sports memorabilia show to yhe mix.	93502864	1474371930703	1474371930794	i	73
181209	1967100	Add a Star Trek convention and sports memorabilia show to the mix.	Add a Star Trek convention and sports memorabilia show to yhe mix.	93502900	1474371931282	1474371931393	x	88
181209	1967100	Add a Star Trek convention and sports memorabilia show to the mix.	Add a Star Trek convention and sports memorabilia show to yhe mix.	93502902	1474371931659	1474371931750	.	190
181209	1967120	I still believe a September 30 closing is unrealistic.	I still believe a september 30 closing is unrealistic.	93502984	1474371934540	1474371935072	SHIFT	16
181209	1967120	I still believe a September 30 closing is unrealistic.	I still believe a september 30 closing is unrealistic.	93502985	1474371935069	1474371935121	I	73
181209	1967120	I still believe a September 30 closing is unrealistic.	I still believe a september 30 closing is unrealistic.	93502987	1474371935171	1474371935296	 	32
181209	1967120	I still believe a September 30 closing is unrealistic.	I still believe a september 30 closing is unrealistic.	93502990	1474371935598	1474371935722	s	83
181209	1967120	I still believe a September 30 closing is unrealistic.	I still believe a september 30 closing is unrealistic.	93502993	1474371935802	1474371935904	t	84
181209	1967120	I still believe a September 30 closing is unrealistic.	I still believe a september 30 closing is unrealistic.	93502995	1474371936035	1474371936136	i	73
181209	1967120	I still believe a September 30 closing is unrealistic.	I still believe a september 30 closing is unrealistic.	93503019	1474371936290	1474371936362	l	76
181209	1967120	I still believe a September 30 closing is unrealistic.	I still believe a september 30 closing is unrealistic.	93503020	1474371936412	1474371936523	l	76
181209	1967120	I still believe a September 30 closing is unrealistic.	I still believe a september 30 closing is unrealistic.	93503021	1474371936583	1474371936698	 	32
181209	1967120	I still believe a September 30 closing is unrealistic.	I still believe a september 30 closing is unrealistic.	93503022	1474371937739	1474371937841	b	66
181209	1967120	I still believe a September 30 closing is unrealistic.	I still believe a september 30 closing is unrealistic.	93503023	1474371937881	1474371937972	e	69
181209	1967120	I still believe a September 30 closing is unrealistic.	I still believe a september 30 closing is unrealistic.	93503069	1474371938330	1474371938410	l	76
181209	1967120	I still believe a September 30 closing is unrealistic.	I still believe a september 30 closing is unrealistic.	93503072	1474371938532	1474371938622	i	73
181209	1967120	I still believe a September 30 closing is unrealistic.	I still believe a september 30 closing is unrealistic.	93503073	1474371939029	1474371939109	e	69
181209	1967120	I still believe a September 30 closing is unrealistic.	I still believe a september 30 closing is unrealistic.	93503075	1474371939436	1474371939609	v	86
181209	1967120	I still believe a September 30 closing is unrealistic.	I still believe a september 30 closing is unrealistic.	93503116	1474371939568	1474371939689	e	69
181209	1967120	I still believe a September 30 closing is unrealistic.	I still believe a september 30 closing is unrealistic.	93503117	1474371939803	1474371939945	 	32
181209	1967120	I still believe a September 30 closing is unrealistic.	I still believe a september 30 closing is unrealistic.	93503119	1474371940494	1474371940565	a	65
181209	1967120	I still believe a September 30 closing is unrealistic.	I still believe a september 30 closing is unrealistic.	93503121	1474371940625	1474371940750	 	32
181209	1967120	I still believe a September 30 closing is unrealistic.	I still believe a september 30 closing is unrealistic.	93503123	1474371940820	1474371940932	s	83
181209	1967120	I still believe a September 30 closing is unrealistic.	I still believe a september 30 closing is unrealistic.	93503125	1474371941359	1474371941441	e	69
181209	1967120	I still believe a September 30 closing is unrealistic.	I still believe a september 30 closing is unrealistic.	93503179	1474371941949	1474371942121	p	80
181209	1967120	I still believe a September 30 closing is unrealistic.	I still believe a september 30 closing is unrealistic.	93503182	1474371942222	1474371942367	t	84
181209	1967120	I still believe a September 30 closing is unrealistic.	I still believe a september 30 closing is unrealistic.	93503187	1474371942946	1474371943035	e	69
181209	1967120	I still believe a September 30 closing is unrealistic.	I still believe a september 30 closing is unrealistic.	93503190	1474371943109	1474371943169	m	77
181209	1967120	I still believe a September 30 closing is unrealistic.	I still believe a september 30 closing is unrealistic.	93503193	1474371943737	1474371943832	b	66
181209	1967120	I still believe a September 30 closing is unrealistic.	I still believe a september 30 closing is unrealistic.	93503233	1474371943862	1474371943932	e	69
181209	1967120	I still believe a September 30 closing is unrealistic.	I still believe a september 30 closing is unrealistic.	93503235	1474371944034	1474371944116	r	82
181209	1967120	I still believe a September 30 closing is unrealistic.	I still believe a september 30 closing is unrealistic.	93503237	1474371944146	1474371944281	 	32
181209	1967120	I still believe a September 30 closing is unrealistic.	I still believe a september 30 closing is unrealistic.	93503239	1474371945203	1474371945308	3	51
181209	1967120	I still believe a September 30 closing is unrealistic.	I still believe a september 30 closing is unrealistic.	93503242	1474371945368	1474371945449	0	48
181209	1967120	I still believe a September 30 closing is unrealistic.	I still believe a september 30 closing is unrealistic.	93503291	1474371945540	1474371945642	 	32
181209	1967120	I still believe a September 30 closing is unrealistic.	I still believe a september 30 closing is unrealistic.	93503292	1474371946366	1474371946447	c	67
181209	1967120	I still believe a September 30 closing is unrealistic.	I still believe a september 30 closing is unrealistic.	93503294	1474371946497	1474371946569	l	76
181209	1967120	I still believe a September 30 closing is unrealistic.	I still believe a september 30 closing is unrealistic.	93503296	1474371946679	1474371946761	o	79
181209	1967120	I still believe a September 30 closing is unrealistic.	I still believe a september 30 closing is unrealistic.	93503299	1474371946954	1474371947057	s	83
181209	1967120	I still believe a September 30 closing is unrealistic.	I still believe a september 30 closing is unrealistic.	93503337	1474371947259	1474371947344	i	73
181209	1967120	I still believe a September 30 closing is unrealistic.	I still believe a september 30 closing is unrealistic.	93503340	1474371947474	1474371947576	n	78
181209	1967120	I still believe a September 30 closing is unrealistic.	I still believe a september 30 closing is unrealistic.	93503344	1474371947821	1474371947953	g	71
181209	1967120	I still believe a September 30 closing is unrealistic.	I still believe a september 30 closing is unrealistic.	93503347	1474371948023	1474371948135	 	32
181209	1967120	I still believe a September 30 closing is unrealistic.	I still believe a september 30 closing is unrealistic.	93503349	1474371949010	1474371949102	i	73
181209	1967120	I still believe a September 30 closing is unrealistic.	I still believe a september 30 closing is unrealistic.	93503397	1474371949162	1474371949243	s	83
181209	1967120	I still believe a September 30 closing is unrealistic.	I still believe a september 30 closing is unrealistic.	93503399	1474371949263	1474371949397	 	32
181209	1967120	I still believe a September 30 closing is unrealistic.	I still believe a september 30 closing is unrealistic.	93503401	1474371950026	1474371950098	u	85
181209	1967120	I still believe a September 30 closing is unrealistic.	I still believe a september 30 closing is unrealistic.	93503404	1474371950220	1474371950321	n	78
181209	1967120	I still believe a September 30 closing is unrealistic.	I still believe a september 30 closing is unrealistic.	93503407	1474371951013	1474371951114	r	82
181209	1967120	I still believe a September 30 closing is unrealistic.	I still believe a september 30 closing is unrealistic.	93503426	1474371951214	1474371951307	e	69
181209	1967120	I still believe a September 30 closing is unrealistic.	I still believe a september 30 closing is unrealistic.	93503427	1474371951410	1474371951623	a	65
181209	1967120	I still believe a September 30 closing is unrealistic.	I still believe a september 30 closing is unrealistic.	93503428	1474371951835	1474371951899	l	76
181209	1967120	I still believe a September 30 closing is unrealistic.	I still believe a september 30 closing is unrealistic.	93503429	1474371951999	1474371952070	i	73
181209	1967120	I still believe a September 30 closing is unrealistic.	I still believe a september 30 closing is unrealistic.	93503431	1474371952457	1474371952549	s	83
181209	1967120	I still believe a September 30 closing is unrealistic.	I still believe a september 30 closing is unrealistic.	93503452	1474371952680	1474371952781	t	84
181209	1967120	I still believe a September 30 closing is unrealistic.	I still believe a september 30 closing is unrealistic.	93503454	1474371952925	1474371953128	i	73
181209	1967120	I still believe a September 30 closing is unrealistic.	I still believe a september 30 closing is unrealistic.	93503455	1474371953484	1474371953576	c	67
181209	1967120	I still believe a September 30 closing is unrealistic.	I still believe a september 30 closing is unrealistic.	93503456	1474371953869	1474371953942	.	190
181209	1967132	What do you show as the storage schedule?	What do you know as the storage schedule?	93503553	1474371957044	1474371957816	SHIFT	16
181209	1967132	What do you show as the storage schedule?	What do you know as the storage schedule?	93503554	1474371957713	1474371957856	W	87
181209	1967132	What do you show as the storage schedule?	What do you know as the storage schedule?	93503555	1474371958082	1474371958153	h	72
181209	1967132	What do you show as the storage schedule?	What do you know as the storage schedule?	93503556	1474371958234	1474371958356	a	65
181209	1967132	What do you show as the storage schedule?	What do you know as the storage schedule?	93503557	1474371958395	1474371958479	t	84
181209	1967132	What do you show as the storage schedule?	What do you know as the storage schedule?	93503558	1474371958539	1474371958650	 	32
181209	1967132	What do you show as the storage schedule?	What do you know as the storage schedule?	93503614	1474371959413	1474371959507	d	68
181209	1967132	What do you show as the storage schedule?	What do you know as the storage schedule?	93503615	1474371959557	1474371959618	o	79
181209	1967132	What do you show as the storage schedule?	What do you know as the storage schedule?	93503616	1474371959648	1474371959760	 	32
181209	1967132	What do you show as the storage schedule?	What do you know as the storage schedule?	93503618	1474371960188	1474371960238	t	84
181209	1967132	What do you show as the storage schedule?	What do you know as the storage schedule?	93503620	1474371960857	1474371960971	BKSP	8
181209	1967132	What do you show as the storage schedule?	What do you know as the storage schedule?	93503623	1474371961062	1474371961154	y	89
181209	1967132	What do you show as the storage schedule?	What do you know as the storage schedule?	93503644	1474371961307	1474371961367	o	79
181209	1967132	What do you show as the storage schedule?	What do you know as the storage schedule?	93503645	1474371961562	1474371961684	u	85
181209	1967132	What do you show as the storage schedule?	What do you know as the storage schedule?	93503648	1474371961734	1474371961845	 	32
181209	1967132	What do you show as the storage schedule?	What do you know as the storage schedule?	93503651	1474371962354	1474371962465	k	75
181209	1967132	What do you show as the storage schedule?	What do you know as the storage schedule?	93503653	1474371962640	1474371962722	n	78
181209	1967132	What do you show as the storage schedule?	What do you know as the storage schedule?	93503748	1474371963516	1474371963607	o	79
181209	1967132	What do you show as the storage schedule?	What do you know as the storage schedule?	93503749	1474371963758	1474371963819	w	87
181209	1967132	What do you show as the storage schedule?	What do you know as the storage schedule?	93503750	1474371963880	1474371964004	 	32
181209	1967132	What do you show as the storage schedule?	What do you know as the storage schedule?	93503751	1474371966002	1474371966106	a	65
181209	1967132	What do you show as the storage schedule?	What do you know as the storage schedule?	93503752	1474371966109	1474371966196	s	83
181209	1967132	What do you show as the storage schedule?	What do you know as the storage schedule?	93503785	1474371966216	1474371966348	 	32
181209	1967132	What do you show as the storage schedule?	What do you know as the storage schedule?	93503786	1474371966583	1474371966665	t	84
181209	1967132	What do you show as the storage schedule?	What do you know as the storage schedule?	93503787	1474371966755	1474371966911	h	72
181209	1967132	What do you show as the storage schedule?	What do you know as the storage schedule?	93503788	1474371966907	1474371967008	e	69
181209	1967132	What do you show as the storage schedule?	What do you know as the storage schedule?	93503789	1474371967061	1474371967183	 	32
181209	1967132	What do you show as the storage schedule?	What do you know as the storage schedule?	93503876	1474371967913	1474371968015	s	83
181209	1967132	What do you show as the storage schedule?	What do you know as the storage schedule?	93503877	1474371968179	1474371968271	t	84
181209	1967132	What do you show as the storage schedule?	What do you know as the storage schedule?	93503878	1474371969001	1474371969106	o	79
181209	1967132	What do you show as the storage schedule?	What do you know as the storage schedule?	93503879	1474371969378	1474371969459	r	82
181209	1967132	What do you show as the storage schedule?	What do you know as the storage schedule?	93503880	1474371969509	1474371969665	a	65
181209	1967132	What do you show as the storage schedule?	What do you know as the storage schedule?	93503916	1474371969937	1474371970019	g	71
181209	1967132	What do you show as the storage schedule?	What do you know as the storage schedule?	93503917	1474371970062	1474371970153	e	69
181209	1967132	What do you show as the storage schedule?	What do you know as the storage schedule?	93503918	1474371970204	1474371970285	 	32
181209	1967132	What do you show as the storage schedule?	What do you know as the storage schedule?	93503919	1474371971150	1474371971242	s	83
181209	1967132	What do you show as the storage schedule?	What do you know as the storage schedule?	93503920	1474371971332	1474371971546	c	67
181209	1967132	What do you show as the storage schedule?	What do you know as the storage schedule?	93503990	1474371972531	1474371972625	h	72
181209	1967132	What do you show as the storage schedule?	What do you know as the storage schedule?	93503991	1474371972725	1474371972807	e	69
181209	1967132	What do you show as the storage schedule?	What do you know as the storage schedule?	93503994	1474371973039	1474371973134	d	68
181209	1967132	What do you show as the storage schedule?	What do you know as the storage schedule?	93503996	1474371973468	1474371973549	u	85
181209	1967132	What do you show as the storage schedule?	What do you know as the storage schedule?	93503998	1474371973702	1474371973764	l	76
181209	1967132	What do you show as the storage schedule?	What do you know as the storage schedule?	93504069	1474371974191	1474371974262	e	69
181209	1967132	What do you show as the storage schedule?	What do you know as the storage schedule?	93504071	1474371974596	1474371974670	.	190
181209	1967132	What do you show as the storage schedule?	What do you know as the storage schedule?	93504073	1474371975542	1474371975603	BKSP	8
181209	1967132	What do you show as the storage schedule?	What do you know as the storage schedule?	93504080	1474371975717	1474371976185	SHIFT	16
181209	1967132	What do you show as the storage schedule?	What do you know as the storage schedule?	93504076	1474371975980	1474371976051	?	191
181209	1967148	The German slowed down enough to beat Frenchman Cedric Pioline 6-3.	the German slowed down enough to beat Frenchman Cerdic Pioline 6-3.	93504259	1474371979290	1474371979799	SHIFT	16
181209	1967148	The German slowed down enough to beat Frenchman Cedric Pioline 6-3.	the German slowed down enough to beat Frenchman Cerdic Pioline 6-3.	93504262	1474371979838	1474371979910	t	84
181209	1967148	The German slowed down enough to beat Frenchman Cedric Pioline 6-3.	the German slowed down enough to beat Frenchman Cerdic Pioline 6-3.	93504266	1474371979980	1474371980115	h	72
181209	1967148	The German slowed down enough to beat Frenchman Cedric Pioline 6-3.	the German slowed down enough to beat Frenchman Cerdic Pioline 6-3.	93504270	1474371980111	1474371980196	e	69
181209	1967148	The German slowed down enough to beat Frenchman Cedric Pioline 6-3.	the German slowed down enough to beat Frenchman Cerdic Pioline 6-3.	93504273	1474371980246	1474371980337	 	32
181209	1967148	The German slowed down enough to beat Frenchman Cedric Pioline 6-3.	the German slowed down enough to beat Frenchman Cerdic Pioline 6-3.	93504276	1474371980591	1474371982055	SHIFT	16
181209	1967148	The German slowed down enough to beat Frenchman Cedric Pioline 6-3.	the German slowed down enough to beat Frenchman Cerdic Pioline 6-3.	93504314	1474371982005	1474371982083	G	71
181209	1967148	The German slowed down enough to beat Frenchman Cedric Pioline 6-3.	the German slowed down enough to beat Frenchman Cerdic Pioline 6-3.	93504316	1474371982392	1474371982484	e	69
181209	1967148	The German slowed down enough to beat Frenchman Cedric Pioline 6-3.	the German slowed down enough to beat Frenchman Cerdic Pioline 6-3.	93504318	1474371982594	1474371982676	r	82
181209	1967148	The German slowed down enough to beat Frenchman Cedric Pioline 6-3.	the German slowed down enough to beat Frenchman Cerdic Pioline 6-3.	93504319	1474371983256	1474371983349	m	77
181209	1967148	The German slowed down enough to beat Frenchman Cedric Pioline 6-3.	the German slowed down enough to beat Frenchman Cerdic Pioline 6-3.	93504320	1474371983368	1474371983511	a	65
181209	1967148	The German slowed down enough to beat Frenchman Cedric Pioline 6-3.	the German slowed down enough to beat Frenchman Cerdic Pioline 6-3.	93504321	1474371983736	1474371983817	b	66
181209	1967148	The German slowed down enough to beat Frenchman Cedric Pioline 6-3.	the German slowed down enough to beat Frenchman Cerdic Pioline 6-3.	93504351	1474371984466	1474371984549	BKSP	8
181209	1967148	The German slowed down enough to beat Frenchman Cedric Pioline 6-3.	the German slowed down enough to beat Frenchman Cerdic Pioline 6-3.	93504355	1474371984785	1474371984877	n	78
181209	1967148	The German slowed down enough to beat Frenchman Cedric Pioline 6-3.	the German slowed down enough to beat Frenchman Cerdic Pioline 6-3.	93504360	1474371984897	1474371985018	 	32
181209	1967148	The German slowed down enough to beat Frenchman Cedric Pioline 6-3.	the German slowed down enough to beat Frenchman Cerdic Pioline 6-3.	93504365	1474371985762	1474371985843	s	83
181209	1967148	The German slowed down enough to beat Frenchman Cedric Pioline 6-3.	the German slowed down enough to beat Frenchman Cerdic Pioline 6-3.	93504367	1474371985893	1474371985954	l	76
181209	1967148	The German slowed down enough to beat Frenchman Cedric Pioline 6-3.	the German slowed down enough to beat Frenchman Cerdic Pioline 6-3.	93504370	1474371986075	1474371986157	o	79
181209	1967148	The German slowed down enough to beat Frenchman Cedric Pioline 6-3.	the German slowed down enough to beat Frenchman Cerdic Pioline 6-3.	93504412	1474371986402	1474371986513	w	87
181209	1967148	The German slowed down enough to beat Frenchman Cedric Pioline 6-3.	the German slowed down enough to beat Frenchman Cerdic Pioline 6-3.	93504413	1474371986585	1474371986656	e	69
181209	1967148	The German slowed down enough to beat Frenchman Cedric Pioline 6-3.	the German slowed down enough to beat Frenchman Cerdic Pioline 6-3.	93504414	1474371986749	1474371986841	d	68
181209	1967148	The German slowed down enough to beat Frenchman Cedric Pioline 6-3.	the German slowed down enough to beat Frenchman Cerdic Pioline 6-3.	93504415	1474371986921	1474371987033	 	32
181209	1967148	The German slowed down enough to beat Frenchman Cedric Pioline 6-3.	the German slowed down enough to beat Frenchman Cerdic Pioline 6-3.	93504416	1474371987976	1474371988079	d	68
181209	1967148	The German slowed down enough to beat Frenchman Cedric Pioline 6-3.	the German slowed down enough to beat Frenchman Cerdic Pioline 6-3.	93504449	1474371988139	1474371988240	o	79
181209	1967148	The German slowed down enough to beat Frenchman Cedric Pioline 6-3.	the German slowed down enough to beat Frenchman Cerdic Pioline 6-3.	93504450	1474371988739	1474371988823	w	87
181209	1967148	The German slowed down enough to beat Frenchman Cedric Pioline 6-3.	the German slowed down enough to beat Frenchman Cerdic Pioline 6-3.	93504452	1474371988883	1474371988964	n	78
181209	1967148	The German slowed down enough to beat Frenchman Cedric Pioline 6-3.	the German slowed down enough to beat Frenchman Cerdic Pioline 6-3.	93504454	1474371989004	1474371989106	 	32
181209	1967148	The German slowed down enough to beat Frenchman Cedric Pioline 6-3.	the German slowed down enough to beat Frenchman Cerdic Pioline 6-3.	93504456	1474371989360	1474371989452	e	69
181209	1967148	The German slowed down enough to beat Frenchman Cedric Pioline 6-3.	the German slowed down enough to beat Frenchman Cerdic Pioline 6-3.	93504488	1474371989655	1474371989737	n	78
181209	1967148	The German slowed down enough to beat Frenchman Cedric Pioline 6-3.	the German slowed down enough to beat Frenchman Cerdic Pioline 6-3.	93504490	1474371990114	1474371990278	o	79
181209	1967148	The German slowed down enough to beat Frenchman Cedric Pioline 6-3.	the German slowed down enough to beat Frenchman Cerdic Pioline 6-3.	93504492	1474371990338	1474371990419	u	85
181209	1967148	The German slowed down enough to beat Frenchman Cedric Pioline 6-3.	the German slowed down enough to beat Frenchman Cerdic Pioline 6-3.	93504494	1474371990795	1474371990897	g	71
181209	1967148	The German slowed down enough to beat Frenchman Cedric Pioline 6-3.	the German slowed down enough to beat Frenchman Cerdic Pioline 6-3.	93504496	1474371990978	1474371991109	h	72
181209	1967148	The German slowed down enough to beat Frenchman Cedric Pioline 6-3.	the German slowed down enough to beat Frenchman Cerdic Pioline 6-3.	93504559	1474371991139	1474371991251	 	32
181209	1967148	The German slowed down enough to beat Frenchman Cedric Pioline 6-3.	the German slowed down enough to beat Frenchman Cerdic Pioline 6-3.	93504560	1474371992034	1474371992136	t	84
181209	1967148	The German slowed down enough to beat Frenchman Cedric Pioline 6-3.	the German slowed down enough to beat Frenchman Cerdic Pioline 6-3.	93504561	1474371992277	1474371992372	o	79
181209	1967148	The German slowed down enough to beat Frenchman Cedric Pioline 6-3.	the German slowed down enough to beat Frenchman Cerdic Pioline 6-3.	93504562	1474371992412	1474371992534	 	32
181209	1967148	The German slowed down enough to beat Frenchman Cedric Pioline 6-3.	the German slowed down enough to beat Frenchman Cerdic Pioline 6-3.	93504563	1474371992841	1474371992932	b	66
181209	1967148	The German slowed down enough to beat Frenchman Cedric Pioline 6-3.	the German slowed down enough to beat Frenchman Cerdic Pioline 6-3.	93504642	1474371993338	1474371993419	e	69
181209	1967148	The German slowed down enough to beat Frenchman Cedric Pioline 6-3.	the German slowed down enough to beat Frenchman Cerdic Pioline 6-3.	93504644	1474371993703	1474371993868	a	65
181209	1967148	The German slowed down enough to beat Frenchman Cedric Pioline 6-3.	the German slowed down enough to beat Frenchman Cerdic Pioline 6-3.	93504648	1474371994100	1474371994191	t	84
181209	1967148	The German slowed down enough to beat Frenchman Cedric Pioline 6-3.	the German slowed down enough to beat Frenchman Cerdic Pioline 6-3.	93504652	1474371994231	1474371994346	 	32
181209	1967148	The German slowed down enough to beat Frenchman Cedric Pioline 6-3.	the German slowed down enough to beat Frenchman Cerdic Pioline 6-3.	93504685	1474371994884	1474371995388	SHIFT	16
181209	1967148	The German slowed down enough to beat Frenchman Cedric Pioline 6-3.	the German slowed down enough to beat Frenchman Cerdic Pioline 6-3.	93504657	1474371995383	1474371995384	F	70
181209	1967148	The German slowed down enough to beat Frenchman Cedric Pioline 6-3.	the German slowed down enough to beat Frenchman Cerdic Pioline 6-3.	93504687	1474371995564	1474371995656	r	82
181209	1967148	The German slowed down enough to beat Frenchman Cedric Pioline 6-3.	the German slowed down enough to beat Frenchman Cerdic Pioline 6-3.	93504689	1474371995746	1474371995861	e	69
181209	1967148	The German slowed down enough to beat Frenchman Cedric Pioline 6-3.	the German slowed down enough to beat Frenchman Cerdic Pioline 6-3.	93504693	1474371996052	1474371996144	n	78
181209	1967148	The German slowed down enough to beat Frenchman Cedric Pioline 6-3.	the German slowed down enough to beat Frenchman Cerdic Pioline 6-3.	93504696	1474371996510	1474371996592	c	67
181209	1967148	The German slowed down enough to beat Frenchman Cedric Pioline 6-3.	the German slowed down enough to beat Frenchman Cerdic Pioline 6-3.	93504698	1474371996652	1474371996723	h	72
181209	1967148	The German slowed down enough to beat Frenchman Cedric Pioline 6-3.	the German slowed down enough to beat Frenchman Cerdic Pioline 6-3.	93504727	1474371996918	1474371997019	m	77
181209	1967148	The German slowed down enough to beat Frenchman Cedric Pioline 6-3.	the German slowed down enough to beat Frenchman Cerdic Pioline 6-3.	93504728	1474371997090	1474371997212	a	65
181209	1967148	The German slowed down enough to beat Frenchman Cedric Pioline 6-3.	the German slowed down enough to beat Frenchman Cerdic Pioline 6-3.	93504729	1474371997231	1474371997313	n	78
181209	1967148	The German slowed down enough to beat Frenchman Cedric Pioline 6-3.	the German slowed down enough to beat Frenchman Cerdic Pioline 6-3.	93504730	1474371997416	1474371997528	 	32
181209	1967148	The German slowed down enough to beat Frenchman Cedric Pioline 6-3.	the German slowed down enough to beat Frenchman Cerdic Pioline 6-3.	93504731	1474371998167	1474371998605	SHIFT	16
181209	1967148	The German slowed down enough to beat Frenchman Cedric Pioline 6-3.	the German slowed down enough to beat Frenchman Cerdic Pioline 6-3.	93504765	1474371998524	1474371998645	C	67
181209	1967148	The German slowed down enough to beat Frenchman Cedric Pioline 6-3.	the German slowed down enough to beat Frenchman Cerdic Pioline 6-3.	93504766	1474371998838	1474371998943	e	69
181209	1967148	The German slowed down enough to beat Frenchman Cedric Pioline 6-3.	the German slowed down enough to beat Frenchman Cerdic Pioline 6-3.	93504767	1474371999104	1474371999186	r	82
181209	1967148	The German slowed down enough to beat Frenchman Cedric Pioline 6-3.	the German slowed down enough to beat Frenchman Cerdic Pioline 6-3.	93504768	1474371999306	1474371999419	d	68
181209	1967148	The German slowed down enough to beat Frenchman Cedric Pioline 6-3.	the German slowed down enough to beat Frenchman Cerdic Pioline 6-3.	93504769	1474371999642	1474371999743	i	73
181209	1967148	The German slowed down enough to beat Frenchman Cedric Pioline 6-3.	the German slowed down enough to beat Frenchman Cerdic Pioline 6-3.	93504770	1474371999908	1474371999998	c	67
181209	1967148	The German slowed down enough to beat Frenchman Cedric Pioline 6-3.	the German slowed down enough to beat Frenchman Cerdic Pioline 6-3.	93504849	1474372000019	1474372000140	 	32
181209	1967148	The German slowed down enough to beat Frenchman Cedric Pioline 6-3.	the German slowed down enough to beat Frenchman Cerdic Pioline 6-3.	93504857	1474372001169	1474372001410	SHIFT	16
181209	1967148	The German slowed down enough to beat Frenchman Cedric Pioline 6-3.	the German slowed down enough to beat Frenchman Cerdic Pioline 6-3.	93504853	1474372001321	1474372001405	P	80
181209	1967148	The German slowed down enough to beat Frenchman Cedric Pioline 6-3.	the German slowed down enough to beat Frenchman Cerdic Pioline 6-3.	93504860	1474372001607	1474372001678	i	73
181209	1967148	The German slowed down enough to beat Frenchman Cedric Pioline 6-3.	the German slowed down enough to beat Frenchman Cerdic Pioline 6-3.	93504862	1474372001760	1474372001895	o	79
181209	1967148	The German slowed down enough to beat Frenchman Cedric Pioline 6-3.	the German slowed down enough to beat Frenchman Cerdic Pioline 6-3.	93504864	1474372002096	1474372002208	l	76
181209	1967148	The German slowed down enough to beat Frenchman Cedric Pioline 6-3.	the German slowed down enough to beat Frenchman Cerdic Pioline 6-3.	93504931	1474372002298	1474372002390	i	73
181209	1967148	The German slowed down enough to beat Frenchman Cedric Pioline 6-3.	the German slowed down enough to beat Frenchman Cerdic Pioline 6-3.	93504935	1474372002594	1474372002715	n	78
181209	1967148	The German slowed down enough to beat Frenchman Cedric Pioline 6-3.	the German slowed down enough to beat Frenchman Cerdic Pioline 6-3.	93504939	1474372002857	1474372002941	e	69
181209	1967148	The German slowed down enough to beat Frenchman Cedric Pioline 6-3.	the German slowed down enough to beat Frenchman Cerdic Pioline 6-3.	93504942	1474372003001	1474372003113	 	32
181209	1967148	The German slowed down enough to beat Frenchman Cedric Pioline 6-3.	the German slowed down enough to beat Frenchman Cerdic Pioline 6-3.	93504945	1474372004068	1474372004150	6	54
181209	1967148	The German slowed down enough to beat Frenchman Cedric Pioline 6-3.	the German slowed down enough to beat Frenchman Cerdic Pioline 6-3.	93505017	1474372004526	1474372004618	-	189
181209	1967148	The German slowed down enough to beat Frenchman Cedric Pioline 6-3.	the German slowed down enough to beat Frenchman Cerdic Pioline 6-3.	93505020	1474372005036	1474372005148	3	51
181209	1967148	The German slowed down enough to beat Frenchman Cedric Pioline 6-3.	the German slowed down enough to beat Frenchman Cerdic Pioline 6-3.	93505023	1474372005524	1474372005606	.	190
181209	1967168	Senate ratification would be a matter of humanity.	Senate ratification would be a better of humanity.	93505196	1474372008432	1474372009206	SHIFT	16
181209	1967168	Senate ratification would be a matter of humanity.	Senate ratification would be a better of humanity.	93505198	1474372009123	1474372009246	S	83
181209	1967168	Senate ratification would be a matter of humanity.	Senate ratification would be a better of humanity.	93505202	1474372009367	1474372009458	e	69
181209	1967168	Senate ratification would be a matter of humanity.	Senate ratification would be a better of humanity.	93505204	1474372009683	1474372009786	n	78
181209	1967168	Senate ratification would be a matter of humanity.	Senate ratification would be a better of humanity.	93505207	1474372010242	1474372010344	a	65
181209	1967168	Senate ratification would be a matter of humanity.	Senate ratification would be a better of humanity.	93505211	1474372010424	1474372010518	t	84
181209	1967168	Senate ratification would be a matter of humanity.	Senate ratification would be a better of humanity.	93505314	1474372010660	1474372010750	e	69
181209	1967168	Senate ratification would be a matter of humanity.	Senate ratification would be a better of humanity.	93505316	1474372010833	1474372010965	 	32
181209	1967168	Senate ratification would be a matter of humanity.	Senate ratification would be a better of humanity.	93505318	1474372012295	1474372012366	r	82
181209	1967168	Senate ratification would be a matter of humanity.	Senate ratification would be a better of humanity.	93505320	1474372012447	1474372012541	a	65
181209	1967168	Senate ratification would be a matter of humanity.	Senate ratification would be a better of humanity.	93505323	1474372012632	1474372012703	t	84
181209	1967168	Senate ratification would be a matter of humanity.	Senate ratification would be a better of humanity.	93505369	1474372013191	1474372013333	i	73
181209	1967168	Senate ratification would be a matter of humanity.	Senate ratification would be a better of humanity.	93505371	1474372013528	1474372013609	f	70
181209	1967168	Senate ratification would be a matter of humanity.	Senate ratification would be a better of humanity.	93505373	1474372013659	1474372013751	i	73
181209	1967168	Senate ratification would be a matter of humanity.	Senate ratification would be a better of humanity.	93505375	1474372014309	1474372014482	c	67
181209	1967168	Senate ratification would be a matter of humanity.	Senate ratification would be a better of humanity.	93505424	1474372014462	1474372014666	a	65
181209	1967168	Senate ratification would be a matter of humanity.	Senate ratification would be a better of humanity.	93505426	1474372014858	1474372014990	t	84
181209	1967168	Senate ratification would be a matter of humanity.	Senate ratification would be a better of humanity.	93505429	1474372015286	1474372015377	i	73
181209	1967168	Senate ratification would be a matter of humanity.	Senate ratification would be a better of humanity.	93505432	1474372015468	1474372015643	o	79
181209	1967168	Senate ratification would be a matter of humanity.	Senate ratification would be a better of humanity.	93505437	1474372015733	1474372015899	n	78
181209	1967168	Senate ratification would be a matter of humanity.	Senate ratification would be a better of humanity.	93505503	1474372015895	1474372016028	 	32
181209	1967168	Senate ratification would be a matter of humanity.	Senate ratification would be a better of humanity.	93505505	1474372017099	1474372017170	w	87
181209	1967168	Senate ratification would be a matter of humanity.	Senate ratification would be a better of humanity.	93505511	1474372017220	1474372017301	o	79
181209	1967168	Senate ratification would be a matter of humanity.	Senate ratification would be a better of humanity.	93505518	1474372017372	1474372017443	u	85
181209	1967168	Senate ratification would be a matter of humanity.	Senate ratification would be a better of humanity.	93505522	1474372017566	1474372017698	l	76
181209	1967168	Senate ratification would be a matter of humanity.	Senate ratification would be a better of humanity.	93505525	1474372017940	1474372018011	d	68
181209	1967168	Senate ratification would be a matter of humanity.	Senate ratification would be a better of humanity.	93505559	1474372018031	1474372018146	 	32
181209	1967168	Senate ratification would be a matter of humanity.	Senate ratification would be a better of humanity.	93505562	1474372018509	1474372018604	b	66
181209	1967168	Senate ratification would be a matter of humanity.	Senate ratification would be a better of humanity.	93505565	1474372018845	1474372018978	e	69
181209	1967168	Senate ratification would be a matter of humanity.	Senate ratification would be a better of humanity.	93505571	1474372019028	1474372019152	 	32
181209	1967168	Senate ratification would be a matter of humanity.	Senate ratification would be a better of humanity.	93505574	1474372019272	1474372019413	a	65
181209	1967168	Senate ratification would be a matter of humanity.	Senate ratification would be a better of humanity.	93505618	1474372019416	1474372019600	 	32
181209	1967168	Senate ratification would be a matter of humanity.	Senate ratification would be a better of humanity.	93505621	1474372019791	1474372019904	b	66
181209	1967168	Senate ratification would be a matter of humanity.	Senate ratification would be a better of humanity.	93505624	1474372019950	1474372020045	e	69
181209	1967168	Senate ratification would be a matter of humanity.	Senate ratification would be a better of humanity.	93505626	1474372020523	1474372020596	t	84
181209	1967168	Senate ratification would be a matter of humanity.	Senate ratification would be a better of humanity.	93505628	1474372020666	1474372020717	t	84
181209	1967168	Senate ratification would be a matter of humanity.	Senate ratification would be a better of humanity.	93505722	1474372021020	1474372021216	e	69
181209	1967168	Senate ratification would be a matter of humanity.	Senate ratification would be a better of humanity.	93505723	1474372021219	1474372021307	r	82
181209	1967168	Senate ratification would be a matter of humanity.	Senate ratification would be a better of humanity.	93505724	1474372021387	1474372021509	 	32
181209	1967168	Senate ratification would be a matter of humanity.	Senate ratification would be a better of humanity.	93505725	1474372022465	1474372022596	o	79
181209	1967168	Senate ratification would be a matter of humanity.	Senate ratification would be a better of humanity.	93505727	1474372023462	1474372023557	f	70
181209	1967168	Senate ratification would be a matter of humanity.	Senate ratification would be a better of humanity.	93505781	1474372023553	1474372023677	 	32
181209	1967168	Senate ratification would be a matter of humanity.	Senate ratification would be a better of humanity.	93505782	1474372024316	1474372024428	h	72
181209	1967168	Senate ratification would be a matter of humanity.	Senate ratification would be a better of humanity.	93505783	1474372024488	1474372024589	u	85
181209	1967168	Senate ratification would be a matter of humanity.	Senate ratification would be a better of humanity.	93505784	1474372024754	1474372024785	m	77
181209	1967168	Senate ratification would be a matter of humanity.	Senate ratification would be a better of humanity.	93505785	1474372025426	1474372025652	a	65
181209	1967168	Senate ratification would be a matter of humanity.	Senate ratification would be a better of humanity.	93505786	1474372025904	1474372025976	n	78
181209	1967168	Senate ratification would be a matter of humanity.	Senate ratification would be a better of humanity.	93505842	1474372026127	1474372026272	i	73
181209	1967168	Senate ratification would be a matter of humanity.	Senate ratification would be a better of humanity.	93505843	1474372026821	1474372026922	t	84
181209	1967168	Senate ratification would be a matter of humanity.	Senate ratification would be a better of humanity.	93505844	1474372026972	1474372027074	y	89
181209	1967168	Senate ratification would be a matter of humanity.	Senate ratification would be a better of humanity.	93505845	1474372027532	1474372027613	.	190
181209	1967185	We'll tell you who has the edge.	We'll tell you who has the edge.	93505996	1474372030917	1474372031658	SHIFT	16
181209	1967185	We'll tell you who has the edge.	We'll tell you who has the edge.	93505998	1474372031587	1474372031699	W	87
181209	1967185	We'll tell you who has the edge.	We'll tell you who has the edge.	93506000	1474372031762	1474372031874	e	69
181209	1967185	We'll tell you who has the edge.	We'll tell you who has the edge.	93506002	1474372032157	1474372032262	'	222
181209	1967185	We'll tell you who has the edge.	We'll tell you who has the edge.	93506005	1474372032544	1474372032615	l	76
181209	1967185	We'll tell you who has the edge.	We'll tell you who has the edge.	93506008	1474372032665	1474372032749	l	76
181209	1967185	We'll tell you who has the edge.	We'll tell you who has the edge.	93506054	1474372032899	1474372033012	 	32
181209	1967185	We'll tell you who has the edge.	We'll tell you who has the edge.	93506055	1474372033570	1474372033671	t	84
181209	1967185	We'll tell you who has the edge.	We'll tell you who has the edge.	93506056	1474372033775	1474372033928	e	69
181209	1967185	We'll tell you who has the edge.	We'll tell you who has the edge.	93506057	1474372034090	1474372034161	l	76
181209	1967185	We'll tell you who has the edge.	We'll tell you who has the edge.	93506058	1474372034244	1474372034305	l	76
181209	1967185	We'll tell you who has the edge.	We'll tell you who has the edge.	93506091	1474372034426	1474372034547	 	32
181209	1967185	We'll tell you who has the edge.	We'll tell you who has the edge.	93506093	1474372035352	1474372035474	y	89
181209	1967185	We'll tell you who has the edge.	We'll tell you who has the edge.	93506097	1474372035584	1474372035737	o	79
181209	1967185	We'll tell you who has the edge.	We'll tell you who has the edge.	93506100	1474372035778	1474372035859	u	85
181209	1967185	We'll tell you who has the edge.	We'll tell you who has the edge.	93506103	1474372035930	1474372036052	 	32
181209	1967185	We'll tell you who has the edge.	We'll tell you who has the edge.	93506155	1474372036948	1474372037039	w	87
181209	1967185	We'll tell you who has the edge.	We'll tell you who has the edge.	93506159	1474372037069	1474372037162	h	72
181209	1967185	We'll tell you who has the edge.	We'll tell you who has the edge.	93506164	1474372037376	1474372037498	o	79
181209	1967185	We'll tell you who has the edge.	We'll tell you who has the edge.	93506170	1474372037527	1474372037649	 	32
181209	1967185	We'll tell you who has the edge.	We'll tell you who has the edge.	93506175	1474372038364	1474372038465	h	72
181209	1967185	We'll tell you who has the edge.	We'll tell you who has the edge.	93506198	1474372038505	1474372038647	a	65
181209	1967185	We'll tell you who has the edge.	We'll tell you who has the edge.	93506200	1474372038717	1474372038811	s	83
181209	1967185	We'll tell you who has the edge.	We'll tell you who has the edge.	93506202	1474372038748	1474372038963	 	32
181209	1967185	We'll tell you who has the edge.	We'll tell you who has the edge.	93506204	1474372039143	1474372039215	t	84
181209	1967185	We'll tell you who has the edge.	We'll tell you who has the edge.	93506206	1474372039308	1474372039410	h	72
181209	1967185	We'll tell you who has the edge.	We'll tell you who has the edge.	93506235	1474372039501	1474372039591	e	69
181209	1967185	We'll tell you who has the edge.	We'll tell you who has the edge.	93506238	1474372039632	1474372039734	 	32
181209	1967185	We'll tell you who has the edge.	We'll tell you who has the edge.	93506241	1474372039937	1474372040019	e	69
181209	1967185	We'll tell you who has the edge.	We'll tell you who has the edge.	93506244	1474372040123	1474372040232	d	68
181209	1967185	We'll tell you who has the edge.	We'll tell you who has the edge.	93506246	1474372040629	1474372040720	g	71
181209	1967185	We'll tell you who has the edge.	We'll tell you who has the edge.	93506267	1474372040814	1474372040926	e	69
181209	1967185	We'll tell you who has the edge.	We'll tell you who has the edge.	93506270	1474372041353	1474372041424	.	190
181209	1967195	I will not be available.	I will not be available.	93506388	1474372044015	1474372044546	SHIFT	16
181209	1967195	I will not be available.	I will not be available.	93506389	1474372044525	1474372044596	I	73
181209	1967195	I will not be available.	I will not be available.	93506390	1474372044625	1474372044737	 	32
181209	1967195	I will not be available.	I will not be available.	93506392	1474372044860	1474372044951	w	87
181209	1967195	I will not be available.	I will not be available.	93506396	1474372045042	1474372045113	i	73
181209	1967195	I will not be available.	I will not be available.	93506399	1474372045265	1474372045347	l	76
181209	1967195	I will not be available.	I will not be available.	93506450	1474372045420	1474372045491	l	76
181209	1967195	I will not be available.	I will not be available.	93506454	1474372045612	1474372045713	 	32
181209	1967195	I will not be available.	I will not be available.	93506458	1474372046437	1474372046559	n	78
181209	1967195	I will not be available.	I will not be available.	93506462	1474372046649	1474372046966	o	79
181209	1967195	I will not be available.	I will not be available.	93506466	1474372047077	1474372047203	t	84
181209	1967195	I will not be available.	I will not be available.	93506494	1474372047199	1474372047331	 	32
181209	1967195	I will not be available.	I will not be available.	93506496	1474372047828	1474372047966	b	66
181209	1967195	I will not be available.	I will not be available.	93506499	1474372047962	1474372048034	e	69
181209	1967195	I will not be available.	I will not be available.	93506503	1474372048093	1474372048216	 	32
181209	1967195	I will not be available.	I will not be available.	93506505	1474372048387	1474372048552	a	65
181209	1967195	I will not be available.	I will not be available.	93506508	1474372048844	1474372048929	v	86
181209	1967195	I will not be available.	I will not be available.	93506650	1474372048979	1474372049121	a	65
181209	1967195	I will not be available.	I will not be available.	93506652	1474372049517	1474372049578	i	73
181209	1967195	I will not be available.	I will not be available.	93506654	1474372049755	1474372049791	k	75
181209	1967195	I will not be available.	I will not be available.	93506656	1474372050787	1474372050859	BKSP	8
181209	1967195	I will not be available.	I will not be available.	93506658	1474372051052	1474372051113	;	186
181209	1967195	I will not be available.	I will not be available.	93506663	1474372051662	1474372051723	BKSP	8
181209	1967195	I will not be available.	I will not be available.	93506667	1474372052059	1474372052130	l	76
181209	1967195	I will not be available.	I will not be available.	93506705	1474372052180	1474372052404	a	65
181209	1967195	I will not be available.	I will not be available.	93506707	1474372052668	1474372052790	b	66
181209	1967195	I will not be available.	I will not be available.	93506709	1474372053207	1474372053303	l	76
181209	1967195	I will not be available.	I will not be available.	93506711	1474372053301	1474372053401	e	69
181209	1967195	I will not be available.	I will not be available.	93506713	1474372053657	1474372053719	.	190
181209	1967204	We are heartened by the many notes of care and concern.	We are heartened by the many notes of care and concern.	93506858	1474372056704	1474372057759	SHIFT	16
181209	1967204	We are heartened by the many notes of care and concern.	We are heartened by the many notes of care and concern.	93506859	1474372057718	1474372057819	W	87
181209	1967204	We are heartened by the many notes of care and concern.	We are heartened by the many notes of care and concern.	93506860	1474372057994	1474372058065	e	69
181209	1967204	We are heartened by the many notes of care and concern.	We are heartened by the many notes of care and concern.	93506861	1474372058125	1474372058277	 	32
181209	1967204	We are heartened by the many notes of care and concern.	We are heartened by the many notes of care and concern.	93506863	1474372058328	1474372058480	a	65
181209	1967204	We are heartened by the many notes of care and concern.	We are heartened by the many notes of care and concern.	93506866	1474372058613	1474372058674	r	82
181209	1967204	We are heartened by the many notes of care and concern.	We are heartened by the many notes of care and concern.	93506903	1474372058795	1474372058897	e	69
181209	1967204	We are heartened by the many notes of care and concern.	We are heartened by the many notes of care and concern.	93506907	1474372058967	1474372059102	 	32
181209	1967204	We are heartened by the many notes of care and concern.	We are heartened by the many notes of care and concern.	93506911	1474372060288	1474372060413	h	72
181209	1967204	We are heartened by the many notes of care and concern.	We are heartened by the many notes of care and concern.	93506915	1474372060410	1474372060565	e	69
181209	1967204	We are heartened by the many notes of care and concern.	We are heartened by the many notes of care and concern.	93506919	1474372060635	1474372060807	a	65
181209	1967204	We are heartened by the many notes of care and concern.	We are heartened by the many notes of care and concern.	93506966	1474372060980	1474372061113	r	82
181209	1967204	We are heartened by the many notes of care and concern.	We are heartened by the many notes of care and concern.	93506969	1474372061325	1474372061408	t	84
181209	1967204	We are heartened by the many notes of care and concern.	We are heartened by the many notes of care and concern.	93506974	1474372061765	1474372061856	e	69
181209	1967204	We are heartened by the many notes of care and concern.	We are heartened by the many notes of care and concern.	93506980	1474372061998	1474372062102	n	78
181209	1967204	We are heartened by the many notes of care and concern.	We are heartened by the many notes of care and concern.	93506986	1474372062122	1474372062233	e	69
181209	1967204	We are heartened by the many notes of care and concern.	We are heartened by the many notes of care and concern.	93507111	1474372062600	1474372062763	d	68
181209	1967204	We are heartened by the many notes of care and concern.	We are heartened by the many notes of care and concern.	93507113	1474372064496	1474372064650	 	32
181209	1967204	We are heartened by the many notes of care and concern.	We are heartened by the many notes of care and concern.	93507115	1474372065463	1474372065647	b	66
181209	1967204	We are heartened by the many notes of care and concern.	We are heartened by the many notes of care and concern.	93507119	1474372065650	1474372065728	y	89
181209	1967204	We are heartened by the many notes of care and concern.	We are heartened by the many notes of care and concern.	93507122	1474372065788	1474372065910	 	32
181209	1967204	We are heartened by the many notes of care and concern.	We are heartened by the many notes of care and concern.	93507179	1474372066041	1474372066072	t	84
181209	1967204	We are heartened by the many notes of care and concern.	We are heartened by the many notes of care and concern.	93507183	1474372066224	1474372066326	h	72
181209	1967204	We are heartened by the many notes of care and concern.	We are heartened by the many notes of care and concern.	93507187	1474372066975	1474372067047	e	69
181209	1967204	We are heartened by the many notes of care and concern.	We are heartened by the many notes of care and concern.	93507190	1474372067087	1474372067202	 	32
181209	1967204	We are heartened by the many notes of care and concern.	We are heartened by the many notes of care and concern.	93507192	1474372067455	1474372067577	m	77
181209	1967204	We are heartened by the many notes of care and concern.	We are heartened by the many notes of care and concern.	93507265	1474372067649	1474372067831	a	65
181209	1967204	We are heartened by the many notes of care and concern.	We are heartened by the many notes of care and concern.	93507266	1474372067851	1474372067932	n	78
181209	1967204	We are heartened by the many notes of care and concern.	We are heartened by the many notes of care and concern.	93507267	1474372068239	1474372068332	y	89
181209	1967204	We are heartened by the many notes of care and concern.	We are heartened by the many notes of care and concern.	93507268	1474372068349	1474372068472	 	32
181209	1967204	We are heartened by the many notes of care and concern.	We are heartened by the many notes of care and concern.	93507269	1474372069571	1474372069686	n	78
181209	1967204	We are heartened by the many notes of care and concern.	We are heartened by the many notes of care and concern.	93507312	1474372069960	1474372070112	o	79
181209	1967204	We are heartened by the many notes of care and concern.	We are heartened by the many notes of care and concern.	93507314	1474372070367	1474372070520	t	84
181209	1967204	We are heartened by the many notes of care and concern.	We are heartened by the many notes of care and concern.	93507317	1474372070570	1474372070704	e	69
181209	1967204	We are heartened by the many notes of care and concern.	We are heartened by the many notes of care and concern.	93507319	1474372070905	1474372071048	s	83
181209	1967204	We are heartened by the many notes of care and concern.	We are heartened by the many notes of care and concern.	93507322	1474372071128	1474372071252	 	32
181209	1967204	We are heartened by the many notes of care and concern.	We are heartened by the many notes of care and concern.	93507371	1474372071994	1474372072136	o	79
181209	1967204	We are heartened by the many notes of care and concern.	We are heartened by the many notes of care and concern.	93507374	1474372072179	1474372072274	f	70
181209	1967204	We are heartened by the many notes of care and concern.	We are heartened by the many notes of care and concern.	93507376	1474372072270	1474372072382	 	32
181209	1967204	We are heartened by the many notes of care and concern.	We are heartened by the many notes of care and concern.	93507379	1474372072809	1474372072900	c	67
181209	1967204	We are heartened by the many notes of care and concern.	We are heartened by the many notes of care and concern.	93507381	1474372073092	1474372073237	a	65
181209	1967204	We are heartened by the many notes of care and concern.	We are heartened by the many notes of care and concern.	93507425	1474372073378	1474372073471	r	82
181209	1967204	We are heartened by the many notes of care and concern.	We are heartened by the many notes of care and concern.	93507430	1474372073551	1474372073652	e	69
181209	1967204	We are heartened by the many notes of care and concern.	We are heartened by the many notes of care and concern.	93507435	1474372073715	1474372073837	 	32
181209	1967204	We are heartened by the many notes of care and concern.	We are heartened by the many notes of care and concern.	93507437	1474372074682	1474372074784	a	65
181209	1967204	We are heartened by the many notes of care and concern.	We are heartened by the many notes of care and concern.	93507440	1474372074844	1474372074955	n	78
181209	1967204	We are heartened by the many notes of care and concern.	We are heartened by the many notes of care and concern.	93507476	1474372075035	1474372075168	d	68
181209	1967204	We are heartened by the many notes of care and concern.	We are heartened by the many notes of care and concern.	93507482	1474372075200	1474372075331	 	32
181209	1967204	We are heartened by the many notes of care and concern.	We are heartened by the many notes of care and concern.	93507485	1474372075533	1474372075655	c	67
181209	1967204	We are heartened by the many notes of care and concern.	We are heartened by the many notes of care and concern.	93507490	1474372075961	1474372076032	o	79
181209	1967204	We are heartened by the many notes of care and concern.	We are heartened by the many notes of care and concern.	93507494	1474372076266	1474372076359	n	78
181209	1967204	We are heartened by the many notes of care and concern.	We are heartened by the many notes of care and concern.	93507572	1474372076846	1474372077051	c	67
181209	1967204	We are heartened by the many notes of care and concern.	We are heartened by the many notes of care and concern.	93507576	1474372077018	1474372077284	e	69
181209	1967204	We are heartened by the many notes of care and concern.	We are heartened by the many notes of care and concern.	93507580	1474372077233	1474372077355	r	82
181209	1967204	We are heartened by the many notes of care and concern.	We are heartened by the many notes of care and concern.	93507582	1474372077597	1474372077722	b	66
181209	1967204	We are heartened by the many notes of care and concern.	We are heartened by the many notes of care and concern.	93507585	1474372078261	1474372078333	BKSP	8
181209	1967204	We are heartened by the many notes of care and concern.	We are heartened by the many notes of care and concern.	93507587	1474372078634	1474372078696	n	78
181209	1967204	We are heartened by the many notes of care and concern.	We are heartened by the many notes of care and concern.	93507622	1474372079103	1474372079194	.	190
181209	1967223	You will never be able to put them out.	You will never be able to put them out.	93507806	1474372082551	1474372083315	SHIFT	16
181209	1967223	You will never be able to put them out.	You will never be able to put them out.	93507808	1474372083274	1474372083346	Y	89
181209	1967223	You will never be able to put them out.	You will never be able to put them out.	93507811	1474372083497	1474372083630	o	79
181209	1967223	You will never be able to put them out.	You will never be able to put them out.	93507815	1474372083690	1474372083775	u	85
181209	1967223	You will never be able to put them out.	You will never be able to put them out.	93507818	1474372083854	1474372083925	 	32
181209	1967223	You will never be able to put them out.	You will never be able to put them out.	93507821	1474372084840	1474372084922	w	87
181209	1967223	You will never be able to put them out.	You will never be able to put them out.	93507871	1474372084982	1474372085043	i	73
181209	1967223	You will never be able to put them out.	You will never be able to put them out.	93507873	1474372085174	1474372085255	l	76
181209	1967223	You will never be able to put them out.	You will never be able to put them out.	93507876	1474372085329	1474372085390	l	76
181209	1967223	You will never be able to put them out.	You will never be able to put them out.	93507879	1474372085581	1474372085684	 	32
181209	1967223	You will never be able to put them out.	You will never be able to put them out.	93507882	1474372086079	1474372086181	n	78
181209	1967223	You will never be able to put them out.	You will never be able to put them out.	93507923	1474372086315	1474372086477	e	69
181209	1967223	You will never be able to put them out.	You will never be able to put them out.	93507929	1474372086813	1474372086979	v	86
181209	1967223	You will never be able to put them out.	You will never be able to put them out.	93507934	1474372086976	1474372087239	e	69
181209	1967223	You will never be able to put them out.	You will never be able to put them out.	93507939	1474372087208	1474372087311	r	82
181209	1967223	You will never be able to put them out.	You will never be able to put them out.	93507942	1474372087402	1474372087545	 	32
181209	1967223	You will never be able to put them out.	You will never be able to put them out.	93507985	1474372088294	1474372088400	b	66
181209	1967223	You will never be able to put them out.	You will never be able to put them out.	93507987	1474372088469	1474372088561	e	69
181209	1967223	You will never be able to put them out.	You will never be able to put them out.	93507990	1474372088590	1474372088734	 	32
181209	1967223	You will never be able to put them out.	You will never be able to put them out.	93507993	1474372088803	1474372088988	a	65
181209	1967223	You will never be able to put them out.	You will never be able to put them out.	93507995	1474372089220	1474372089301	b	66
181209	1967223	You will never be able to put them out.	You will never be able to put them out.	93508034	1474372089566	1474372089678	l	76
181209	1967223	You will never be able to put them out.	You will never be able to put them out.	93508038	1474372089709	1474372089810	e	69
181209	1967223	You will never be able to put them out.	You will never be able to put them out.	93508045	1474372089883	1474372089995	 	32
181209	1967223	You will never be able to put them out.	You will never be able to put them out.	93508048	1474372090744	1474372090879	t	84
181209	1967223	You will never be able to put them out.	You will never be able to put them out.	93508050	1474372090919	1474372091054	o	79
181209	1967223	You will never be able to put them out.	You will never be able to put them out.	93508137	1474372091051	1474372091142	 	32
181209	1967223	You will never be able to put them out.	You will never be able to put them out.	93508140	1474372091304	1474372091458	p	80
181209	1967223	You will never be able to put them out.	You will never be able to put them out.	93508142	1474372091569	1474372091661	u	85
181209	1967223	You will never be able to put them out.	You will never be able to put them out.	93508144	1474372091977	1474372092069	t	84
181209	1967223	You will never be able to put them out.	You will never be able to put them out.	93508147	1474372092119	1474372092261	 	32
181209	1967223	You will never be able to put them out.	You will never be able to put them out.	93508151	1474372093196	1474372093298	t	84
181209	1967223	You will never be able to put them out.	You will never be able to put them out.	93508210	1474372093368	1474372093452	h	72
181209	1967223	You will never be able to put them out.	You will never be able to put them out.	93508211	1474372093675	1474372093766	e	69
181209	1967223	You will never be able to put them out.	You will never be able to put them out.	93508212	1474372093847	1474372093972	m	77
181209	1967223	You will never be able to put them out.	You will never be able to put them out.	93508214	1474372094052	1474372094154	 	32
181209	1967223	You will never be able to put them out.	You will never be able to put them out.	93508216	1474372094620	1474372094825	o	79
181209	1967223	You will never be able to put them out.	You will never be able to put them out.	93508254	1474372094804	1474372094897	u	85
181209	1967223	You will never be able to put them out.	You will never be able to put them out.	93508255	1474372095130	1474372095231	t	84
181209	1967223	You will never be able to put them out.	You will never be able to put them out.	93508257	1474372095496	1474372095568	.	190
