PARTICIPANT_ID	TEST_SECTION_ID	SENTENCE	USER_INPUT	KEYSTROKE_ID	PRESS_TIME	RELEASE_TIME	LETTER	KEYCODE
186240	2018122	This is a major setback for the rookie.	This is a major setback for the rookie.	95895127	1474411465978	1474411466211	SHIFT	16
186240	2018122	This is a major setback for the rookie.	This is a major setback for the rookie.	95895129	1474411466108	1474411466284	T	84
186240	2018122	This is a major setback for the rookie.	This is a major setback for the rookie.	95895131	1474411466272	1474411466406	h	72
186240	2018122	This is a major setback for the rookie.	This is a major setback for the rookie.	95895135	1474411466348	1474411466489	i	73
186240	2018122	This is a major setback for the rookie.	This is a major setback for the rookie.	95895139	1474411466444	1474411466577	s	83
186240	2018122	This is a major setback for the rookie.	This is a major setback for the rookie.	95895164	1474411466558	1474411466642	 	32
186240	2018122	This is a major setback for the rookie.	This is a major setback for the rookie.	95895166	1474411466656	1474411466788	i	73
186240	2018122	This is a major setback for the rookie.	This is a major setback for the rookie.	95895170	1474411466779	1474411466899	s	83
186240	2018122	This is a major setback for the rookie.	This is a major setback for the rookie.	95895171	1474411466891	1474411466970	 	32
186240	2018122	This is a major setback for the rookie.	This is a major setback for the rookie.	95895174	1474411467025	1474411467167	a	65
186240	2018122	This is a major setback for the rookie.	This is a major setback for the rookie.	95895219	1474411467152	1474411467246	 	32
186240	2018122	This is a major setback for the rookie.	This is a major setback for the rookie.	95895223	1474411467323	1474411467445	m	77
186240	2018122	This is a major setback for the rookie.	This is a major setback for the rookie.	95895227	1474411467487	1474411467625	a	65
186240	2018122	This is a major setback for the rookie.	This is a major setback for the rookie.	95895232	1474411467770	1474411467899	j	74
186240	2018122	This is a major setback for the rookie.	This is a major setback for the rookie.	95895236	1474411467856	1474411467975	o	79
186240	2018122	This is a major setback for the rookie.	This is a major setback for the rookie.	95895241	1474411468009	1474411468150	r	82
186240	2018122	This is a major setback for the rookie.	This is a major setback for the rookie.	95895295	1474411468135	1474411468246	 	32
186240	2018122	This is a major setback for the rookie.	This is a major setback for the rookie.	95895299	1474411468801	1474411468975	s	83
186240	2018122	This is a major setback for the rookie.	This is a major setback for the rookie.	95895302	1474411468920	1474411469125	e	69
186240	2018122	This is a major setback for the rookie.	This is a major setback for the rookie.	95895304	1474411469082	1474411469223	t	84
186240	2018122	This is a major setback for the rookie.	This is a major setback for the rookie.	95895308	1474411469274	1474411469349	b	66
186240	2018122	This is a major setback for the rookie.	This is a major setback for the rookie.	95895364	1474411469340	1474411469496	a	65
186240	2018122	This is a major setback for the rookie.	This is a major setback for the rookie.	95895366	1474411469517	1474411469664	c	67
186240	2018122	This is a major setback for the rookie.	This is a major setback for the rookie.	95895370	1474411469624	1474411469732	k	75
186240	2018122	This is a major setback for the rookie.	This is a major setback for the rookie.	95895373	1474411469752	1474411469862	 	32
186240	2018122	This is a major setback for the rookie.	This is a major setback for the rookie.	95895376	1474411470031	1474411470120	f	70
186240	2018122	This is a major setback for the rookie.	This is a major setback for the rookie.	95895396	1474411470102	1474411470210	o	79
186240	2018122	This is a major setback for the rookie.	This is a major setback for the rookie.	95895399	1474411470203	1474411470307	r	82
186240	2018122	This is a major setback for the rookie.	This is a major setback for the rookie.	95895404	1474411470237	1474411470335	 	32
186240	2018122	This is a major setback for the rookie.	This is a major setback for the rookie.	95895416	1474411470384	1474411470540	t	84
186240	2018122	This is a major setback for the rookie.	This is a major setback for the rookie.	95895410	1474411470418	1474411470501	h	72
186240	2018122	This is a major setback for the rookie.	This is a major setback for the rookie.	95895501	1474411470519	1474411470675	e	69
186240	2018122	This is a major setback for the rookie.	This is a major setback for the rookie.	95895506	1474411470592	1474411470690	 	32
186240	2018122	This is a major setback for the rookie.	This is a major setback for the rookie.	95895510	1474411470764	1474411470871	r	82
186240	2018122	This is a major setback for the rookie.	This is a major setback for the rookie.	95895516	1474411470855	1474411470944	o	79
186240	2018122	This is a major setback for the rookie.	This is a major setback for the rookie.	95895520	1474411471328	1474411471414	o	79
186240	2018122	This is a major setback for the rookie.	This is a major setback for the rookie.	95895527	1474411471705	1474411471800	i	73
186240	2018122	This is a major setback for the rookie.	This is a major setback for the rookie.	95895618	1474411472242	1474411472331	BKSP	8
186240	2018122	This is a major setback for the rookie.	This is a major setback for the rookie.	95895622	1474411472731	1474411472812	k	75
186240	2018122	This is a major setback for the rookie.	This is a major setback for the rookie.	95895628	1474411472858	1474411472931	i	73
186240	2018122	This is a major setback for the rookie.	This is a major setback for the rookie.	95895634	1474411472935	1474411473085	e	69
186240	2018122	This is a major setback for the rookie.	This is a major setback for the rookie.	95895638	1474411473094	1474411473167	.	190
186240	2018122	This is a major setback for the rookie.	This is a major setback for the rookie.	95895641	1474411473514	1474411473614	 	32
186240	2018122	This is a major setback for the rookie.	This is a major setback for the rookie.	95895683	1474411474356	1474411474444	BKSP	8
186240	2018142	I know my way around the hospital better than I do the stadium.	I know my way around the hospital better then I do the stadium.	95895805	1474411476863	1474411477058	SHIFT	16
186240	2018142	I know my way around the hospital better than I do the stadium.	I know my way around the hospital better then I do the stadium.	95895803	1474411476952	1474411477043	I	73
186240	2018142	I know my way around the hospital better than I do the stadium.	I know my way around the hospital better then I do the stadium.	95895807	1474411477104	1474411477286	 	32
186240	2018142	I know my way around the hospital better than I do the stadium.	I know my way around the hospital better then I do the stadium.	95895810	1474411477366	1474411477504	k	75
186240	2018142	I know my way around the hospital better than I do the stadium.	I know my way around the hospital better then I do the stadium.	95895814	1474411477458	1474411477605	n	78
186240	2018142	I know my way around the hospital better than I do the stadium.	I know my way around the hospital better then I do the stadium.	95895859	1474411477577	1474411477713	o	79
186240	2018142	I know my way around the hospital better than I do the stadium.	I know my way around the hospital better then I do the stadium.	95895863	1474411477708	1474411477836	w	87
186240	2018142	I know my way around the hospital better than I do the stadium.	I know my way around the hospital better then I do the stadium.	95895867	1474411477979	1474411478099	 	32
186240	2018142	I know my way around the hospital better than I do the stadium.	I know my way around the hospital better then I do the stadium.	95895870	1474411478141	1474411478252	m	77
186240	2018142	I know my way around the hospital better than I do the stadium.	I know my way around the hospital better then I do the stadium.	95895873	1474411478346	1474411478434	y	89
186240	2018142	I know my way around the hospital better than I do the stadium.	I know my way around the hospital better then I do the stadium.	95895875	1474411478666	1474411478794	 	32
186240	2018142	I know my way around the hospital better than I do the stadium.	I know my way around the hospital better then I do the stadium.	95895895	1474411478821	1474411478989	w	87
186240	2018142	I know my way around the hospital better than I do the stadium.	I know my way around the hospital better then I do the stadium.	95895897	1474411478946	1474411479093	a	65
186240	2018142	I know my way around the hospital better than I do the stadium.	I know my way around the hospital better then I do the stadium.	95895899	1474411479047	1474411479154	y	89
186240	2018142	I know my way around the hospital better than I do the stadium.	I know my way around the hospital better then I do the stadium.	95895901	1474411479176	1474411479284	 	32
186240	2018142	I know my way around the hospital better than I do the stadium.	I know my way around the hospital better then I do the stadium.	95895906	1474411479475	1474411479676	r	82
186240	2018142	I know my way around the hospital better than I do the stadium.	I know my way around the hospital better then I do the stadium.	95896009	1474411479651	1474411479810	o	79
186240	2018142	I know my way around the hospital better than I do the stadium.	I know my way around the hospital better then I do the stadium.	95896014	1474411480122	1474411480226	BKSP	8
186240	2018142	I know my way around the hospital better than I do the stadium.	I know my way around the hospital better then I do the stadium.	95896017	1474411480275	1474411480380	BKSP	8
186240	2018142	I know my way around the hospital better than I do the stadium.	I know my way around the hospital better then I do the stadium.	95896022	1474411480438	1474411480593	a	65
186240	2018142	I know my way around the hospital better than I do the stadium.	I know my way around the hospital better then I do the stadium.	95896025	1474411480642	1474411480814	r	82
186240	2018142	I know my way around the hospital better than I do the stadium.	I know my way around the hospital better then I do the stadium.	95896029	1474411480795	1474411480964	o	79
186240	2018142	I know my way around the hospital better than I do the stadium.	I know my way around the hospital better then I do the stadium.	95896033	1474411480887	1474411480985	u	85
186240	2018142	I know my way around the hospital better than I do the stadium.	I know my way around the hospital better then I do the stadium.	95896037	1474411481148	1474411481274	n	78
186240	2018142	I know my way around the hospital better than I do the stadium.	I know my way around the hospital better then I do the stadium.	95896061	1474411481316	1474411481436	d	68
186240	2018142	I know my way around the hospital better than I do the stadium.	I know my way around the hospital better then I do the stadium.	95896068	1474411481440	1474411481556	 	32
186240	2018142	I know my way around the hospital better than I do the stadium.	I know my way around the hospital better then I do the stadium.	95896075	1474411481643	1474411481808	t	84
186240	2018142	I know my way around the hospital better than I do the stadium.	I know my way around the hospital better then I do the stadium.	95896078	1474411481729	1474411481808	h	72
186240	2018142	I know my way around the hospital better than I do the stadium.	I know my way around the hospital better then I do the stadium.	95896085	1474411481815	1474411481946	e	69
186240	2018142	I know my way around the hospital better than I do the stadium.	I know my way around the hospital better then I do the stadium.	95896123	1474411481849	1474411481958	 	32
186240	2018142	I know my way around the hospital better than I do the stadium.	I know my way around the hospital better then I do the stadium.	95896126	1474411482005	1474411482154	h	72
186240	2018142	I know my way around the hospital better than I do the stadium.	I know my way around the hospital better then I do the stadium.	95896131	1474411482103	1474411482249	o	79
186240	2018142	I know my way around the hospital better than I do the stadium.	I know my way around the hospital better then I do the stadium.	95896139	1474411482182	1474411482347	r	82
186240	2018142	I know my way around the hospital better than I do the stadium.	I know my way around the hospital better then I do the stadium.	95896144	1474411482425	1474411482589	p	80
186240	2018142	I know my way around the hospital better than I do the stadium.	I know my way around the hospital better then I do the stadium.	95896265	1474411482555	1474411482675	i	73
186240	2018142	I know my way around the hospital better than I do the stadium.	I know my way around the hospital better then I do the stadium.	95896272	1474411482712	1474411482846	s	83
186240	2018142	I know my way around the hospital better than I do the stadium.	I know my way around the hospital better then I do the stadium.	95896275	1474411483252	1474411483377	BKSP	8
186240	2018142	I know my way around the hospital better than I do the stadium.	I know my way around the hospital better then I do the stadium.	95896282	1474411483527	1474411483677	BKSP	8
186240	2018142	I know my way around the hospital better than I do the stadium.	I know my way around the hospital better then I do the stadium.	95896285	1474411483720	1474411483800	BKSP	8
186240	2018142	I know my way around the hospital better than I do the stadium.	I know my way around the hospital better then I do the stadium.	95896287	1474411483855	1474411483962	BKSP	8
186240	2018142	I know my way around the hospital better than I do the stadium.	I know my way around the hospital better then I do the stadium.	95896290	1474411484075	1474411484210	s	83
186240	2018142	I know my way around the hospital better than I do the stadium.	I know my way around the hospital better then I do the stadium.	95896292	1474411484544	1474411484685	p	80
186240	2018142	I know my way around the hospital better than I do the stadium.	I know my way around the hospital better then I do the stadium.	95896295	1474411484645	1474411484755	i	73
186240	2018142	I know my way around the hospital better than I do the stadium.	I know my way around the hospital better then I do the stadium.	95896297	1474411484780	1474411484909	t	84
186240	2018142	I know my way around the hospital better than I do the stadium.	I know my way around the hospital better then I do the stadium.	95896363	1474411484887	1474411485025	a	65
186240	2018142	I know my way around the hospital better than I do the stadium.	I know my way around the hospital better then I do the stadium.	95896367	1474411485029	1474411485160	l	76
186240	2018142	I know my way around the hospital better than I do the stadium.	I know my way around the hospital better then I do the stadium.	95896370	1474411485172	1474411485288	 	32
186240	2018142	I know my way around the hospital better than I do the stadium.	I know my way around the hospital better then I do the stadium.	95896371	1474411485435	1474411485542	b	66
186240	2018142	I know my way around the hospital better than I do the stadium.	I know my way around the hospital better then I do the stadium.	95896373	1474411485650	1474411485742	t	84
186240	2018142	I know my way around the hospital better than I do the stadium.	I know my way around the hospital better then I do the stadium.	95896375	1474411486044	1474411486179	BKSP	8
186240	2018142	I know my way around the hospital better than I do the stadium.	I know my way around the hospital better then I do the stadium.	95896377	1474411486200	1474411486350	e	69
186240	2018142	I know my way around the hospital better than I do the stadium.	I know my way around the hospital better then I do the stadium.	95896402	1474411486453	1474411486542	t	84
186240	2018142	I know my way around the hospital better than I do the stadium.	I know my way around the hospital better then I do the stadium.	95896405	1474411486609	1474411486704	t	84
186240	2018142	I know my way around the hospital better than I do the stadium.	I know my way around the hospital better then I do the stadium.	95896410	1474411486719	1474411486906	e	69
186240	2018142	I know my way around the hospital better than I do the stadium.	I know my way around the hospital better then I do the stadium.	95896416	1474411486832	1474411486940	r	82
186240	2018142	I know my way around the hospital better than I do the stadium.	I know my way around the hospital better then I do the stadium.	95896500	1474411486921	1474411487056	 	32
186240	2018142	I know my way around the hospital better than I do the stadium.	I know my way around the hospital better then I do the stadium.	95896504	1474411487035	1474411487154	t	84
186240	2018142	I know my way around the hospital better than I do the stadium.	I know my way around the hospital better then I do the stadium.	95896508	1474411487215	1474411487292	h	69
186240	2018142	I know my way around the hospital better than I do the stadium.	I know my way around the hospital better then I do the stadium.	95896511	1474411487873	1474411488093	BKSP	8
186240	2018142	I know my way around the hospital better than I do the stadium.	I know my way around the hospital better then I do the stadium.	95896514	1474411488349	1474411488462	BKSP	8
186240	2018142	I know my way around the hospital better than I do the stadium.	I know my way around the hospital better then I do the stadium.	95896517	1474411488610	1474411488763	e	69
186240	2018142	I know my way around the hospital better than I do the stadium.	I know my way around the hospital better then I do the stadium.	95896615	1474411488714	1474411488787	h	72
186240	2018142	I know my way around the hospital better than I do the stadium.	I know my way around the hospital better then I do the stadium.	95896617	1474411488900	1474411488972	n	78
186240	2018142	I know my way around the hospital better than I do the stadium.	I know my way around the hospital better then I do the stadium.	95896621	1474411489000	1474411489107	 	32
186240	2018142	I know my way around the hospital better than I do the stadium.	I know my way around the hospital better then I do the stadium.	95896626	1474411489697	1474411489794	BKSP	8
186240	2018142	I know my way around the hospital better than I do the stadium.	I know my way around the hospital better then I do the stadium.	95896630	1474411489843	1474411490375	BKSP	8
186240	2018142	I know my way around the hospital better than I do the stadium.	I know my way around the hospital better then I do the stadium.	95896633	1474411490437	1474411490565	BKSP	8
186240	2018142	I know my way around the hospital better than I do the stadium.	I know my way around the hospital better then I do the stadium.	95896637	1474411491030	1474411491110	h	72
186240	2018142	I know my way around the hospital better than I do the stadium.	I know my way around the hospital better then I do the stadium.	95896639	1474411491104	1474411491260	e	69
186240	2018142	I know my way around the hospital better than I do the stadium.	I know my way around the hospital better then I do the stadium.	95896775	1474411491229	1474411491312	n	78
186240	2018142	I know my way around the hospital better than I do the stadium.	I know my way around the hospital better then I do the stadium.	95896778	1474411491340	1474411491466	 	32
186240	2018142	I know my way around the hospital better than I do the stadium.	I know my way around the hospital better then I do the stadium.	95896781	1474411491505	1474411491625	i	73
186240	2018142	I know my way around the hospital better than I do the stadium.	I know my way around the hospital better then I do the stadium.	95896785	1474411491667	1474411491716	 	32
186240	2018142	I know my way around the hospital better than I do the stadium.	I know my way around the hospital better then I do the stadium.	95896788	1474411491891	1474411492004	BKSP	8
186240	2018142	I know my way around the hospital better than I do the stadium.	I know my way around the hospital better then I do the stadium.	95896791	1474411492060	1474411492353	SHIFT	16
186240	2018142	I know my way around the hospital better than I do the stadium.	I know my way around the hospital better then I do the stadium.	95896795	1474411492474	1474411492596	BKSP	8
186240	2018142	I know my way around the hospital better than I do the stadium.	I know my way around the hospital better then I do the stadium.	95896799	1474411492832	1474411493273	SHIFT	16
186240	2018142	I know my way around the hospital better than I do the stadium.	I know my way around the hospital better then I do the stadium.	95896796	1474411493132	1474411493233	I	73
186240	2018142	I know my way around the hospital better than I do the stadium.	I know my way around the hospital better then I do the stadium.	95896805	1474411493313	1474411493413	 	32
186240	2018142	I know my way around the hospital better than I do the stadium.	I know my way around the hospital better then I do the stadium.	95896829	1474411493511	1474411493645	d	68
186240	2018142	I know my way around the hospital better than I do the stadium.	I know my way around the hospital better then I do the stadium.	95896832	1474411493670	1474411493796	o	79
186240	2018142	I know my way around the hospital better than I do the stadium.	I know my way around the hospital better then I do the stadium.	95896834	1474411493823	1474411493921	 	32
186240	2018142	I know my way around the hospital better than I do the stadium.	I know my way around the hospital better then I do the stadium.	95896837	1474411493967	1474411494124	t	84
186240	2018142	I know my way around the hospital better than I do the stadium.	I know my way around the hospital better then I do the stadium.	95896911	1474411494068	1474411494148	h	72
186240	2018142	I know my way around the hospital better than I do the stadium.	I know my way around the hospital better then I do the stadium.	95896916	1474411494108	1474411494279	e	69
186240	2018142	I know my way around the hospital better than I do the stadium.	I know my way around the hospital better then I do the stadium.	95896922	1474411494233	1474411494368	 	32
186240	2018142	I know my way around the hospital better than I do the stadium.	I know my way around the hospital better then I do the stadium.	95896928	1474411494639	1474411494779	s	83
186240	2018142	I know my way around the hospital better than I do the stadium.	I know my way around the hospital better then I do the stadium.	95896933	1474411494749	1474411494893	t	84
186240	2018142	I know my way around the hospital better than I do the stadium.	I know my way around the hospital better then I do the stadium.	95896936	1474411494890	1474411495033	a	65
186240	2018142	I know my way around the hospital better than I do the stadium.	I know my way around the hospital better then I do the stadium.	95896939	1474411495233	1474411495352	i	73
186240	2018142	I know my way around the hospital better than I do the stadium.	I know my way around the hospital better then I do the stadium.	95897078	1474411495786	1474411495844	BKSP	8
186240	2018142	I know my way around the hospital better than I do the stadium.	I know my way around the hospital better then I do the stadium.	95897082	1474411495893	1474411496021	d	68
186240	2018142	I know my way around the hospital better than I do the stadium.	I know my way around the hospital better then I do the stadium.	95897086	1474411496594	1474411496697	i	73
186240	2018142	I know my way around the hospital better than I do the stadium.	I know my way around the hospital better then I do the stadium.	95897089	1474411496751	1474411496843	u	85
186240	2018142	I know my way around the hospital better than I do the stadium.	I know my way around the hospital better then I do the stadium.	95897092	1474411497002	1474411497089	m	77
186240	2018142	I know my way around the hospital better than I do the stadium.	I know my way around the hospital better then I do the stadium.	95897095	1474411497670	1474411497748	.	190
186240	2018174	I will add this to the folder and let you know when we get into it.	I will add this to the folder and let you know when we get into it.	95897302	1474411500130	1474411500448	SHIFT	16
186240	2018174	I will add this to the folder and let you know when we get into it.	I will add this to the folder and let you know when we get into it.	95897297	1474411500332	1474411500445	I	73
186240	2018174	I will add this to the folder and let you know when we get into it.	I will add this to the folder and let you know when we get into it.	95897309	1474411500488	1474411500627	 	32
186240	2018174	I will add this to the folder and let you know when we get into it.	I will add this to the folder and let you know when we get into it.	95897316	1474411500656	1474411500788	w	87
186240	2018174	I will add this to the folder and let you know when we get into it.	I will add this to the folder and let you know when we get into it.	95897327	1474411500739	1474411500852	i	73
186240	2018174	I will add this to the folder and let you know when we get into it.	I will add this to the folder and let you know when we get into it.	95897333	1474411500936	1474411501019	l	76
186240	2018174	I will add this to the folder and let you know when we get into it.	I will add this to the folder and let you know when we get into it.	95897384	1474411501099	1474411501201	l	76
186240	2018174	I will add this to the folder and let you know when we get into it.	I will add this to the folder and let you know when we get into it.	95897386	1474411501255	1474411501367	 	32
186240	2018174	I will add this to the folder and let you know when we get into it.	I will add this to the folder and let you know when we get into it.	95897388	1474411501427	1474411501596	a	65
186240	2018174	I will add this to the folder and let you know when we get into it.	I will add this to the folder and let you know when we get into it.	95897390	1474411501747	1474411501853	d	68
186240	2018174	I will add this to the folder and let you know when we get into it.	I will add this to the folder and let you know when we get into it.	95897392	1474411501935	1474411502073	d	68
186240	2018174	I will add this to the folder and let you know when we get into it.	I will add this to the folder and let you know when we get into it.	95897415	1474411502067	1474411502217	 	32
186240	2018174	I will add this to the folder and let you know when we get into it.	I will add this to the folder and let you know when we get into it.	95897419	1474411502192	1474411502374	t	84
186240	2018174	I will add this to the folder and let you know when we get into it.	I will add this to the folder and let you know when we get into it.	95897425	1474411502283	1474411502416	h	72
186240	2018174	I will add this to the folder and let you know when we get into it.	I will add this to the folder and let you know when we get into it.	95897429	1474411502368	1474411502489	i	73
186240	2018174	I will add this to the folder and let you know when we get into it.	I will add this to the folder and let you know when we get into it.	95897434	1474411502407	1474411502542	s	83
186240	2018174	I will add this to the folder and let you know when we get into it.	I will add this to the folder and let you know when we get into it.	95897438	1474411502550	1474411502651	 	32
186240	2018174	I will add this to the folder and let you know when we get into it.	I will add this to the folder and let you know when we get into it.	95897458	1474411502641	1474411502756	t	84
186240	2018174	I will add this to the folder and let you know when we get into it.	I will add this to the folder and let you know when we get into it.	95897459	1474411502723	1474411502839	o	79
186240	2018174	I will add this to the folder and let you know when we get into it.	I will add this to the folder and let you know when we get into it.	95897461	1474411502867	1474411502965	t	32
186240	2018174	I will add this to the folder and let you know when we get into it.	I will add this to the folder and let you know when we get into it.	95897463	1474411503090	1474411503203	t	84
186240	2018174	I will add this to the folder and let you know when we get into it.	I will add this to the folder and let you know when we get into it.	95897466	1474411503210	1474411503295	h	72
186240	2018174	I will add this to the folder and let you know when we get into it.	I will add this to the folder and let you know when we get into it.	95897584	1474411503812	1474411503855	BKSP	8
186240	2018174	I will add this to the folder and let you know when we get into it.	I will add this to the folder and let you know when we get into it.	95897590	1474411503904	1474411504014	BKSP	8
186240	2018174	I will add this to the folder and let you know when we get into it.	I will add this to the folder and let you know when we get into it.	95897592	1474411504063	1474411504149	BKSP	8
186240	2018174	I will add this to the folder and let you know when we get into it.	I will add this to the folder and let you know when we get into it.	95897598	1474411504665	1474411504809	t	84
186240	2018174	I will add this to the folder and let you know when we get into it.	I will add this to the folder and let you know when we get into it.	95897596	1474411504735	1474411504805	h	72
186240	2018174	I will add this to the folder and let you know when we get into it.	I will add this to the folder and let you know when we get into it.	95897599	1474411504818	1474411504937	e	69
186240	2018174	I will add this to the folder and let you know when we get into it.	I will add this to the folder and let you know when we get into it.	95897600	1474411504852	1474411504992	 	32
186240	2018174	I will add this to the folder and let you know when we get into it.	I will add this to the folder and let you know when we get into it.	95897665	1474411505087	1474411505336	t	84
186240	2018174	I will add this to the folder and let you know when we get into it.	I will add this to the folder and let you know when we get into it.	95897601	1474411505225	1474411505332	o	79
186240	2018174	I will add this to the folder and let you know when we get into it.	I will add this to the folder and let you know when we get into it.	95897668	1474411505576	1474411505665	BKSP	8
186240	2018174	I will add this to the folder and let you know when we get into it.	I will add this to the folder and let you know when we get into it.	95897673	1474411505711	1474411505802	BKSP	8
186240	2018174	I will add this to the folder and let you know when we get into it.	I will add this to the folder and let you know when we get into it.	95897677	1474411506010	1474411506178	f	70
186240	2018174	I will add this to the folder and let you know when we get into it.	I will add this to the folder and let you know when we get into it.	95897682	1474411506169	1474411506276	o	79
186240	2018174	I will add this to the folder and let you know when we get into it.	I will add this to the folder and let you know when we get into it.	95897685	1474411506393	1474411506521	l	76
186240	2018174	I will add this to the folder and let you know when we get into it.	I will add this to the folder and let you know when we get into it.	95897687	1474411506564	1474411506665	d	68
186240	2018174	I will add this to the folder and let you know when we get into it.	I will add this to the folder and let you know when we get into it.	95897689	1474411506770	1474411507021	e	69
186240	2018174	I will add this to the folder and let you know when we get into it.	I will add this to the folder and let you know when we get into it.	95897696	1474411506935	1474411507095	r	82
186240	2018174	I will add this to the folder and let you know when we get into it.	I will add this to the folder and let you know when we get into it.	95897700	1474411507076	1474411507223	 	32
186240	2018174	I will add this to the folder and let you know when we get into it.	I will add this to the folder and let you know when we get into it.	95897703	1474411507248	1474411507391	a	65
186240	2018174	I will add this to the folder and let you know when we get into it.	I will add this to the folder and let you know when we get into it.	95897708	1474411507370	1474411507453	n	78
186240	2018174	I will add this to the folder and let you know when we get into it.	I will add this to the folder and let you know when we get into it.	95897713	1474411507438	1474411507582	d	68
186240	2018174	I will add this to the folder and let you know when we get into it.	I will add this to the folder and let you know when we get into it.	95897761	1474411507526	1474411507648	 	32
186240	2018174	I will add this to the folder and let you know when we get into it.	I will add this to the folder and let you know when we get into it.	95897763	1474411507634	1474411507778	l	76
186240	2018174	I will add this to the folder and let you know when we get into it.	I will add this to the folder and let you know when we get into it.	95897766	1474411507720	1474411507909	e	69
186240	2018174	I will add this to the folder and let you know when we get into it.	I will add this to the folder and let you know when we get into it.	95897767	1474411507854	1474411507995	t	84
186240	2018174	I will add this to the folder and let you know when we get into it.	I will add this to the folder and let you know when we get into it.	95897769	1474411507968	1474411508093	 	32
186240	2018174	I will add this to the folder and let you know when we get into it.	I will add this to the folder and let you know when we get into it.	95897771	1474411508439	1474411508528	y	89
186240	2018174	I will add this to the folder and let you know when we get into it.	I will add this to the folder and let you know when we get into it.	95897788	1474411508535	1474411508718	o	79
186240	2018174	I will add this to the folder and let you know when we get into it.	I will add this to the folder and let you know when we get into it.	95897791	1474411508657	1474411508779	u	85
186240	2018174	I will add this to the folder and let you know when we get into it.	I will add this to the folder and let you know when we get into it.	95897796	1474411508770	1474411508893	 	32
186240	2018174	I will add this to the folder and let you know when we get into it.	I will add this to the folder and let you know when we get into it.	95897800	1474411508954	1474411509128	k	75
186240	2018174	I will add this to the folder and let you know when we get into it.	I will add this to the folder and let you know when we get into it.	95897817	1474411509084	1474411509226	n	78
186240	2018174	I will add this to the folder and let you know when we get into it.	I will add this to the folder and let you know when we get into it.	95897820	1474411509190	1474411509332	o	79
186240	2018174	I will add this to the folder and let you know when we get into it.	I will add this to the folder and let you know when we get into it.	95897824	1474411509325	1474411509460	w	87
186240	2018174	I will add this to the folder and let you know when we get into it.	I will add this to the folder and let you know when we get into it.	95897828	1474411509392	1474411509511	 	32
186240	2018174	I will add this to the folder and let you know when we get into it.	I will add this to the folder and let you know when we get into it.	95897833	1474411509542	1474411509677	w	87
186240	2018174	I will add this to the folder and let you know when we get into it.	I will add this to the folder and let you know when we get into it.	95897843	1474411509650	1474411509723	h	72
186240	2018174	I will add this to the folder and let you know when we get into it.	I will add this to the folder and let you know when we get into it.	95897847	1474411509757	1474411509895	e	69
186240	2018174	I will add this to the folder and let you know when we get into it.	I will add this to the folder and let you know when we get into it.	95897851	1474411509904	1474411509992	n	78
186240	2018174	I will add this to the folder and let you know when we get into it.	I will add this to the folder and let you know when we get into it.	95897855	1474411510041	1474411510118	 	32
186240	2018174	I will add this to the folder and let you know when we get into it.	I will add this to the folder and let you know when we get into it.	95897859	1474411510133	1474411510378	w	87
186240	2018174	I will add this to the folder and let you know when we get into it.	I will add this to the folder and let you know when we get into it.	95897880	1474411510253	1474411510497	e	69
186240	2018174	I will add this to the folder and let you know when we get into it.	I will add this to the folder and let you know when we get into it.	95897883	1474411510458	1474411510595	 	32
186240	2018174	I will add this to the folder and let you know when we get into it.	I will add this to the folder and let you know when we get into it.	95897891	1474411510752	1474411510847	g	71
186240	2018174	I will add this to the folder and let you know when we get into it.	I will add this to the folder and let you know when we get into it.	95897898	1474411510831	1474411511062	e	69
186240	2018174	I will add this to the folder and let you know when we get into it.	I will add this to the folder and let you know when we get into it.	95897935	1474411510966	1474411511101	t	84
186240	2018174	I will add this to the folder and let you know when we get into it.	I will add this to the folder and let you know when we get into it.	95897939	1474411511055	1474411511196	 	32
186240	2018174	I will add this to the folder and let you know when we get into it.	I will add this to the folder and let you know when we get into it.	95897941	1474411511269	1474411511370	n	73
186240	2018174	I will add this to the folder and let you know when we get into it.	I will add this to the folder and let you know when we get into it.	95897947	1474411511447	1474411511579	t	84
186240	2018174	I will add this to the folder and let you know when we get into it.	I will add this to the folder and let you know when we get into it.	95897951	1474411511569	1474411511721	o	79
186240	2018174	I will add this to the folder and let you know when we get into it.	I will add this to the folder and let you know when we get into it.	95898025	1474411511704	1474411511836	 	32
186240	2018174	I will add this to the folder and let you know when we get into it.	I will add this to the folder and let you know when we get into it.	95898027	1474411511864	1474411511983	t	84
186240	2018174	I will add this to the folder and let you know when we get into it.	I will add this to the folder and let you know when we get into it.	95898029	1474411512247	1474411512373	BKSP	8
186240	2018174	I will add this to the folder and let you know when we get into it.	I will add this to the folder and let you know when we get into it.	95898032	1474411512614	1474411512708	i	73
186240	2018174	I will add this to the folder and let you know when we get into it.	I will add this to the folder and let you know when we get into it.	95898037	1474411512733	1474411512890	t	84
186240	2018174	I will add this to the folder and let you know when we get into it.	I will add this to the folder and let you know when we get into it.	95898042	1474411512995	1474411513111	.	190
186240	2018192	Before I forget, there is one last change.	Before I forget, there is one last change.	95898212	1474411516331	1474411516548	SHIFT	16
186240	2018192	Before I forget, there is one last change.	Before I forget, there is one last change.	95898209	1474411516472	1474411516545	B	66
186240	2018192	Before I forget, there is one last change.	Before I forget, there is one last change.	95898215	1474411516627	1474411516770	e	69
186240	2018192	Before I forget, there is one last change.	Before I forget, there is one last change.	95898217	1474411516784	1474411516908	f	70
186240	2018192	Before I forget, there is one last change.	Before I forget, there is one last change.	95898219	1474411516911	1474411517041	o	79
186240	2018192	Before I forget, there is one last change.	Before I forget, there is one last change.	95898255	1474411517009	1474411517225	r	82
186240	2018192	Before I forget, there is one last change.	Before I forget, there is one last change.	95898259	1474411517155	1474411517355	e	69
186240	2018192	Before I forget, there is one last change.	Before I forget, there is one last change.	95898263	1474411517409	1474411517523	 	32
186240	2018192	Before I forget, there is one last change.	Before I forget, there is one last change.	95898270	1474411517606	1474411517887	SHIFT	16
186240	2018192	Before I forget, there is one last change.	Before I forget, there is one last change.	95898266	1474411517723	1474411517829	I	73
186240	2018192	Before I forget, there is one last change.	Before I forget, there is one last change.	95898276	1474411517909	1474411518111	 	32
186240	2018192	Before I forget, there is one last change.	Before I forget, there is one last change.	95898281	1474411518187	1474411518315	f	70
186240	2018192	Before I forget, there is one last change.	Before I forget, there is one last change.	95898323	1474411518308	1474411518435	o	79
186240	2018192	Before I forget, there is one last change.	Before I forget, there is one last change.	95898328	1474411518427	1474411518531	r	82
186240	2018192	Before I forget, there is one last change.	Before I forget, there is one last change.	95898334	1474411518627	1474411518776	g	71
186240	2018192	Before I forget, there is one last change.	Before I forget, there is one last change.	95898340	1474411518772	1474411518967	e	69
186240	2018192	Before I forget, there is one last change.	Before I forget, there is one last change.	95898342	1474411518885	1474411519047	t	84
186240	2018192	Before I forget, there is one last change.	Before I forget, there is one last change.	95898347	1474411519240	1474411519334	,	188
186240	2018192	Before I forget, there is one last change.	Before I forget, there is one last change.	95898388	1474411519374	1474411519488	 	32
186240	2018192	Before I forget, there is one last change.	Before I forget, there is one last change.	95898393	1474411519640	1474411519810	t	84
186240	2018192	Before I forget, there is one last change.	Before I forget, there is one last change.	95898397	1474411519817	1474411519945	h	72
186240	2018192	Before I forget, there is one last change.	Before I forget, there is one last change.	95898401	1474411520130	1474411520302	e	69
186240	2018192	Before I forget, there is one last change.	Before I forget, there is one last change.	95898489	1474411520283	1474411520418	r	82
186240	2018192	Before I forget, there is one last change.	Before I forget, there is one last change.	95898495	1474411520424	1474411520550	e	69
186240	2018192	Before I forget, there is one last change.	Before I forget, there is one last change.	95898500	1474411520525	1474411520663	 	32
186240	2018192	Before I forget, there is one last change.	Before I forget, there is one last change.	95898506	1474411520759	1474411520891	s	83
186240	2018192	Before I forget, there is one last change.	Before I forget, there is one last change.	95898511	1474411520842	1474411520949	 	32
186240	2018192	Before I forget, there is one last change.	Before I forget, there is one last change.	95898515	1474411521345	1474411521437	BKSP	8
186240	2018192	Before I forget, there is one last change.	Before I forget, there is one last change.	95898520	1474411521489	1474411521594	BKSP	8
186240	2018192	Before I forget, there is one last change.	Before I forget, there is one last change.	95898526	1474411521991	1474411522161	i	73
186240	2018192	Before I forget, there is one last change.	Before I forget, there is one last change.	95898530	1474411522115	1474411522241	s	83
186240	2018192	Before I forget, there is one last change.	Before I forget, there is one last change.	95898532	1474411522174	1474411522283	 	32
186240	2018192	Before I forget, there is one last change.	Before I forget, there is one last change.	95898534	1474411522357	1474411522485	o	79
186240	2018192	Before I forget, there is one last change.	Before I forget, there is one last change.	95898536	1474411522434	1474411522534	n	78
186240	2018192	Before I forget, there is one last change.	Before I forget, there is one last change.	95898540	1474411522553	1474411522666	e	69
186240	2018192	Before I forget, there is one last change.	Before I forget, there is one last change.	95898574	1474411522620	1474411522743	 	32
186240	2018192	Before I forget, there is one last change.	Before I forget, there is one last change.	95898580	1474411522792	1474411522933	l	76
186240	2018192	Before I forget, there is one last change.	Before I forget, there is one last change.	95898585	1474411522884	1474411523147	a	65
186240	2018192	Before I forget, there is one last change.	Before I forget, there is one last change.	95898588	1474411523049	1474411523251	s	83
186240	2018192	Before I forget, there is one last change.	Before I forget, there is one last change.	95898592	1474411523211	1474411523337	t	84
186240	2018192	Before I forget, there is one last change.	Before I forget, there is one last change.	95898635	1474411523292	1474411523419	 	32
186240	2018192	Before I forget, there is one last change.	Before I forget, there is one last change.	95898638	1474411523526	1474411523637	c	67
186240	2018192	Before I forget, there is one last change.	Before I forget, there is one last change.	95898640	1474411523579	1474411523646	h	72
186240	2018192	Before I forget, there is one last change.	Before I forget, there is one last change.	95898643	1474411523717	1474411523885	a	65
186240	2018192	Before I forget, there is one last change.	Before I forget, there is one last change.	95898648	1474411523813	1474411523894	n	78
186240	2018192	Before I forget, there is one last change.	Before I forget, there is one last change.	95898654	1474411523951	1474411524139	g	71
186240	2018192	Before I forget, there is one last change.	Before I forget, there is one last change.	95898674	1474411524066	1474411524222	e	69
186240	2018192	Before I forget, there is one last change.	Before I forget, there is one last change.	95898679	1474411524309	1474411524473	.	190
186240	2018199	There is a 90 percent chance he is going to win.	There is a 90 percent chance he is going to win.	95898851	1474411527038	1474411527257	SHIFT	16
186240	2018199	There is a 90 percent chance he is going to win.	There is a 90 percent chance he is going to win.	95898857	1474411527182	1474411527319	T	84
186240	2018199	There is a 90 percent chance he is going to win.	There is a 90 percent chance he is going to win.	95898862	1474411527312	1474411527386	h	72
186240	2018199	There is a 90 percent chance he is going to win.	There is a 90 percent chance he is going to win.	95898865	1474411527462	1474411527680	e	69
186240	2018199	There is a 90 percent chance he is going to win.	There is a 90 percent chance he is going to win.	95898869	1474411527650	1474411527803	r	82
186240	2018199	There is a 90 percent chance he is going to win.	There is a 90 percent chance he is going to win.	95898888	1474411527779	1474411527962	e	69
186240	2018199	There is a 90 percent chance he is going to win.	There is a 90 percent chance he is going to win.	95898891	1474411527879	1474411528017	 	32
186240	2018199	There is a 90 percent chance he is going to win.	There is a 90 percent chance he is going to win.	95898894	1474411528106	1474411528220	i	73
186240	2018199	There is a 90 percent chance he is going to win.	There is a 90 percent chance he is going to win.	95898897	1474411528204	1474411528322	s	83
186240	2018199	There is a 90 percent chance he is going to win.	There is a 90 percent chance he is going to win.	95898900	1474411528315	1474411528435	 	32
186240	2018199	There is a 90 percent chance he is going to win.	There is a 90 percent chance he is going to win.	95898902	1474411528453	1474411528600	a	65
186240	2018199	There is a 90 percent chance he is going to win.	There is a 90 percent chance he is going to win.	95898955	1474411528576	1474411528692	 	32
186240	2018199	There is a 90 percent chance he is going to win.	There is a 90 percent chance he is going to win.	95898957	1474411529436	1474411529569	9	57
186240	2018199	There is a 90 percent chance he is going to win.	There is a 90 percent chance he is going to win.	95898959	1474411529499	1474411529621	0	48
186240	2018199	There is a 90 percent chance he is going to win.	There is a 90 percent chance he is going to win.	95898962	1474411529764	1474411529899	 	32
186240	2018199	There is a 90 percent chance he is going to win.	There is a 90 percent chance he is going to win.	95898966	1474411530347	1474411530502	p	80
186240	2018199	There is a 90 percent chance he is going to win.	There is a 90 percent chance he is going to win.	95898989	1474411530416	1474411530591	e	69
186240	2018199	There is a 90 percent chance he is going to win.	There is a 90 percent chance he is going to win.	95898991	1474411530515	1474411530629	r	82
186240	2018199	There is a 90 percent chance he is going to win.	There is a 90 percent chance he is going to win.	95898992	1474411530766	1474411530907	c	67
186240	2018199	There is a 90 percent chance he is going to win.	There is a 90 percent chance he is going to win.	95898993	1474411530971	1474411531149	e	69
186240	2018199	There is a 90 percent chance he is going to win.	There is a 90 percent chance he is going to win.	95898994	1474411531097	1474411531183	n	78
186240	2018199	There is a 90 percent chance he is going to win.	There is a 90 percent chance he is going to win.	95898995	1474411531192	1474411531351	t	84
186240	2018199	There is a 90 percent chance he is going to win.	There is a 90 percent chance he is going to win.	95899011	1474411531306	1474411531406	 	32
186240	2018199	There is a 90 percent chance he is going to win.	There is a 90 percent chance he is going to win.	95899013	1474411531616	1474411531790	c	67
186240	2018199	There is a 90 percent chance he is going to win.	There is a 90 percent chance he is going to win.	95899016	1474411531776	1474411531845	h	72
186240	2018199	There is a 90 percent chance he is going to win.	There is a 90 percent chance he is going to win.	95899019	1474411531838	1474411531999	a	65
186240	2018199	There is a 90 percent chance he is going to win.	There is a 90 percent chance he is going to win.	95899022	1474411531971	1474411532056	n	78
186240	2018199	There is a 90 percent chance he is going to win.	There is a 90 percent chance he is going to win.	95899023	1474411532169	1474411532364	c	67
186240	2018199	There is a 90 percent chance he is going to win.	There is a 90 percent chance he is going to win.	95899038	1474411532426	1474411532590	e	69
186240	2018199	There is a 90 percent chance he is going to win.	There is a 90 percent chance he is going to win.	95899042	1474411532521	1474411532665	 	32
186240	2018199	There is a 90 percent chance he is going to win.	There is a 90 percent chance he is going to win.	95899046	1474411532711	1474411532797	h	72
186240	2018199	There is a 90 percent chance he is going to win.	There is a 90 percent chance he is going to win.	95899048	1474411532784	1474411532946	e	69
186240	2018199	There is a 90 percent chance he is going to win.	There is a 90 percent chance he is going to win.	95899073	1474411532898	1474411533012	 	32
186240	2018199	There is a 90 percent chance he is going to win.	There is a 90 percent chance he is going to win.	95899076	1474411533034	1474411533151	i	73
186240	2018199	There is a 90 percent chance he is going to win.	There is a 90 percent chance he is going to win.	95899078	1474411533138	1474411533286	s	83
186240	2018199	There is a 90 percent chance he is going to win.	There is a 90 percent chance he is going to win.	95899080	1474411533297	1474411533400	 	32
186240	2018199	There is a 90 percent chance he is going to win.	There is a 90 percent chance he is going to win.	95899081	1474411533628	1474411533787	g	71
186240	2018199	There is a 90 percent chance he is going to win.	There is a 90 percent chance he is going to win.	95899093	1474411533707	1474411533860	o	79
186240	2018199	There is a 90 percent chance he is going to win.	There is a 90 percent chance he is going to win.	95899096	1474411533768	1474411533946	i	73
186240	2018199	There is a 90 percent chance he is going to win.	There is a 90 percent chance he is going to win.	95899099	1474411533885	1474411534028	n	78
186240	2018199	There is a 90 percent chance he is going to win.	There is a 90 percent chance he is going to win.	95899101	1474411533998	1474411534097	g	71
186240	2018199	There is a 90 percent chance he is going to win.	There is a 90 percent chance he is going to win.	95899102	1474411534020	1474411534109	 	32
186240	2018199	There is a 90 percent chance he is going to win.	There is a 90 percent chance he is going to win.	95899103	1474411534204	1474411534329	t	84
186240	2018199	There is a 90 percent chance he is going to win.	There is a 90 percent chance he is going to win.	95899152	1474411534275	1474411534402	o	79
186240	2018199	There is a 90 percent chance he is going to win.	There is a 90 percent chance he is going to win.	95899154	1474411534394	1474411534516	 	32
186240	2018199	There is a 90 percent chance he is going to win.	There is a 90 percent chance he is going to win.	95899156	1474411534594	1474411534767	w	87
186240	2018199	There is a 90 percent chance he is going to win.	There is a 90 percent chance he is going to win.	95899158	1474411534719	1474411534898	i	73
186240	2018199	There is a 90 percent chance he is going to win.	There is a 90 percent chance he is going to win.	95899159	1474411534823	1474411534963	n	78
186240	2018199	There is a 90 percent chance he is going to win.	There is a 90 percent chance he is going to win.	95899160	1474411535308	1474411535393	.	190
186240	2018210	French actress Juliette Binoche declared the festival open.	French actress Juliette Binoche declared the festival open.	95899363	1474411538953	1474411539222	SHIFT	16
186240	2018210	French actress Juliette Binoche declared the festival open.	French actress Juliette Binoche declared the festival open.	95899365	1474411539071	1474411539226	F	70
186240	2018210	French actress Juliette Binoche declared the festival open.	French actress Juliette Binoche declared the festival open.	95899367	1474411539380	1474411539484	r	82
186240	2018210	French actress Juliette Binoche declared the festival open.	French actress Juliette Binoche declared the festival open.	95899369	1474411539524	1474411539644	e	69
186240	2018210	French actress Juliette Binoche declared the festival open.	French actress Juliette Binoche declared the festival open.	95899371	1474411539665	1474411539748	n	78
186240	2018210	French actress Juliette Binoche declared the festival open.	French actress Juliette Binoche declared the festival open.	95899373	1474411539800	1474411539922	c	67
186240	2018210	French actress Juliette Binoche declared the festival open.	French actress Juliette Binoche declared the festival open.	95899447	1474411539870	1474411539971	h	72
186240	2018210	French actress Juliette Binoche declared the festival open.	French actress Juliette Binoche declared the festival open.	95899452	1474411540008	1474411540112	 	32
186240	2018210	French actress Juliette Binoche declared the festival open.	French actress Juliette Binoche declared the festival open.	95899458	1474411540173	1474411540262	s	83
186240	2018210	French actress Juliette Binoche declared the festival open.	French actress Juliette Binoche declared the festival open.	95899463	1474411540554	1474411540679	BKSP	8
186240	2018210	French actress Juliette Binoche declared the festival open.	French actress Juliette Binoche declared the festival open.	95899468	1474411540722	1474411540838	BKSP	8
186240	2018210	French actress Juliette Binoche declared the festival open.	French actress Juliette Binoche declared the festival open.	95899474	1474411541172	1474411541304	 	32
186240	2018210	French actress Juliette Binoche declared the festival open.	French actress Juliette Binoche declared the festival open.	95899479	1474411541380	1474411541591	a	65
186240	2018210	French actress Juliette Binoche declared the festival open.	French actress Juliette Binoche declared the festival open.	95899530	1474411541568	1474411541711	c	67
186240	2018210	French actress Juliette Binoche declared the festival open.	French actress Juliette Binoche declared the festival open.	95899535	1474411541837	1474411541949	t	84
186240	2018210	French actress Juliette Binoche declared the festival open.	French actress Juliette Binoche declared the festival open.	95899542	1474411542062	1474411542191	r	82
186240	2018210	French actress Juliette Binoche declared the festival open.	French actress Juliette Binoche declared the festival open.	95899548	1474411542213	1474411542356	e	69
186240	2018210	French actress Juliette Binoche declared the festival open.	French actress Juliette Binoche declared the festival open.	95899552	1474411542581	1474411542719	s	83
186240	2018210	French actress Juliette Binoche declared the festival open.	French actress Juliette Binoche declared the festival open.	95899555	1474411542780	1474411542930	s	83
186240	2018210	French actress Juliette Binoche declared the festival open.	French actress Juliette Binoche declared the festival open.	95899649	1474411542902	1474411543064	 	32
186240	2018210	French actress Juliette Binoche declared the festival open.	French actress Juliette Binoche declared the festival open.	95899652	1474411543129	1474411543389	SHIFT	16
186240	2018210	French actress Juliette Binoche declared the festival open.	French actress Juliette Binoche declared the festival open.	95899650	1474411543282	1474411543364	J	74
186240	2018210	French actress Juliette Binoche declared the festival open.	French actress Juliette Binoche declared the festival open.	95899654	1474411543512	1474411543650	u	85
186240	2018210	French actress Juliette Binoche declared the festival open.	French actress Juliette Binoche declared the festival open.	95899656	1474411543705	1474411543794	l	76
186240	2018210	French actress Juliette Binoche declared the festival open.	French actress Juliette Binoche declared the festival open.	95899659	1474411544438	1474411544556	i	73
186240	2018210	French actress Juliette Binoche declared the festival open.	French actress Juliette Binoche declared the festival open.	95899663	1474411545019	1474411545184	e	69
186240	2018210	French actress Juliette Binoche declared the festival open.	French actress Juliette Binoche declared the festival open.	95899724	1474411545439	1474411545503	t	84
186240	2018210	French actress Juliette Binoche declared the festival open.	French actress Juliette Binoche declared the festival open.	95899727	1474411545586	1474411545680	t	84
186240	2018210	French actress Juliette Binoche declared the festival open.	French actress Juliette Binoche declared the festival open.	95899730	1474411545736	1474411545885	e	69
186240	2018210	French actress Juliette Binoche declared the festival open.	French actress Juliette Binoche declared the festival open.	95899734	1474411545904	1474411546045	 	32
186240	2018210	French actress Juliette Binoche declared the festival open.	French actress Juliette Binoche declared the festival open.	95899787	1474411546233	1474411546697	SHIFT	16
186240	2018210	French actress Juliette Binoche declared the festival open.	French actress Juliette Binoche declared the festival open.	95899739	1474411546434	1474411546550	B	66
186240	2018210	French actress Juliette Binoche declared the festival open.	French actress Juliette Binoche declared the festival open.	95899789	1474411546771	1474411546922	i	73
186240	2018210	French actress Juliette Binoche declared the festival open.	French actress Juliette Binoche declared the festival open.	95899791	1474411547258	1474411547401	n	78
186240	2018210	French actress Juliette Binoche declared the festival open.	French actress Juliette Binoche declared the festival open.	95899794	1474411547343	1474411547490	o	79
186240	2018210	French actress Juliette Binoche declared the festival open.	French actress Juliette Binoche declared the festival open.	95899797	1474411547487	1474411547650	c	67
186240	2018210	French actress Juliette Binoche declared the festival open.	French actress Juliette Binoche declared the festival open.	95899939	1474411547626	1474411547720	h	72
186240	2018210	French actress Juliette Binoche declared the festival open.	French actress Juliette Binoche declared the festival open.	95899942	1474411547751	1474411547922	e	69
186240	2018210	French actress Juliette Binoche declared the festival open.	French actress Juliette Binoche declared the festival open.	95899950	1474411547926	1474411548039	 	32
186240	2018210	French actress Juliette Binoche declared the festival open.	French actress Juliette Binoche declared the festival open.	95899959	1474411548275	1474411548388	d	68
186240	2018210	French actress Juliette Binoche declared the festival open.	French actress Juliette Binoche declared the festival open.	95899965	1474411550654	1474411550786	e	69
186240	2018210	French actress Juliette Binoche declared the festival open.	French actress Juliette Binoche declared the festival open.	95899968	1474411551065	1474411551232	c	67
186240	2018210	French actress Juliette Binoche declared the festival open.	French actress Juliette Binoche declared the festival open.	95899998	1474411551188	1474411551290	l	76
186240	2018210	French actress Juliette Binoche declared the festival open.	French actress Juliette Binoche declared the festival open.	95900000	1474411551330	1474411551492	a	65
186240	2018210	French actress Juliette Binoche declared the festival open.	French actress Juliette Binoche declared the festival open.	95900004	1474411551583	1474411551785	r	82
186240	2018210	French actress Juliette Binoche declared the festival open.	French actress Juliette Binoche declared the festival open.	95900005	1474411551675	1474411551813	e	69
186240	2018210	French actress Juliette Binoche declared the festival open.	French actress Juliette Binoche declared the festival open.	95900007	1474411551896	1474411552067	d	68
186240	2018210	French actress Juliette Binoche declared the festival open.	French actress Juliette Binoche declared the festival open.	95900010	1474411552089	1474411552232	 	32
186240	2018210	French actress Juliette Binoche declared the festival open.	French actress Juliette Binoche declared the festival open.	95900036	1474411552288	1474411552462	t	84
186240	2018210	French actress Juliette Binoche declared the festival open.	French actress Juliette Binoche declared the festival open.	95900039	1474411552404	1474411552487	h	72
186240	2018210	French actress Juliette Binoche declared the festival open.	French actress Juliette Binoche declared the festival open.	95900041	1474411552477	1474411552649	e	69
186240	2018210	French actress Juliette Binoche declared the festival open.	French actress Juliette Binoche declared the festival open.	95900045	1474411552621	1474411552753	 	32
186240	2018210	French actress Juliette Binoche declared the festival open.	French actress Juliette Binoche declared the festival open.	95900049	1474411552883	1474411553094	f	70
186240	2018210	French actress Juliette Binoche declared the festival open.	French actress Juliette Binoche declared the festival open.	95900087	1474411553045	1474411553238	e	69
186240	2018210	French actress Juliette Binoche declared the festival open.	French actress Juliette Binoche declared the festival open.	95900089	1474411553269	1474411553465	s	83
186240	2018210	French actress Juliette Binoche declared the festival open.	French actress Juliette Binoche declared the festival open.	95900093	1474411553767	1474411553901	t	84
186240	2018210	French actress Juliette Binoche declared the festival open.	French actress Juliette Binoche declared the festival open.	95900096	1474411553908	1474411554036	i	73
186240	2018210	French actress Juliette Binoche declared the festival open.	French actress Juliette Binoche declared the festival open.	95900099	1474411554150	1474411554317	v	86
186240	2018210	French actress Juliette Binoche declared the festival open.	French actress Juliette Binoche declared the festival open.	95900141	1474411554257	1474411554468	a	65
186240	2018210	French actress Juliette Binoche declared the festival open.	French actress Juliette Binoche declared the festival open.	95900143	1474411554459	1474411554576	l	76
186240	2018210	French actress Juliette Binoche declared the festival open.	French actress Juliette Binoche declared the festival open.	95900144	1474411554642	1474411554817	 	32
186240	2018210	French actress Juliette Binoche declared the festival open.	French actress Juliette Binoche declared the festival open.	95900145	1474411554938	1474411555158	o	79
186240	2018210	French actress Juliette Binoche declared the festival open.	French actress Juliette Binoche declared the festival open.	95900146	1474411555092	1474411555250	p	80
186240	2018210	French actress Juliette Binoche declared the festival open.	French actress Juliette Binoche declared the festival open.	95900200	1474411555228	1474411555406	e	69
186240	2018210	French actress Juliette Binoche declared the festival open.	French actress Juliette Binoche declared the festival open.	95900202	1474411555496	1474411555582	n	78
186240	2018210	French actress Juliette Binoche declared the festival open.	French actress Juliette Binoche declared the festival open.	95900204	1474411556846	1474411556934	.	190
186240	2018232	I will try and find out.	I will try and find out.	95900420	1474411559681	1474411559956	SHIFT	16
186240	2018232	I will try and find out.	I will try and find out.	95900416	1474411559825	1474411559925	I	73
186240	2018232	I will try and find out.	I will try and find out.	95900423	1474411560002	1474411560109	 	32
186240	2018232	I will try and find out.	I will try and find out.	95900428	1474411560201	1474411560351	w	87
186240	2018232	I will try and find out.	I will try and find out.	95900431	1474411560278	1474411560369	i	73
186240	2018232	I will try and find out.	I will try and find out.	95900433	1474411560437	1474411560535	l	76
186240	2018232	I will try and find out.	I will try and find out.	95900465	1474411560599	1474411560698	l	76
186240	2018232	I will try and find out.	I will try and find out.	95900468	1474411560800	1474411560929	 	32
186240	2018232	I will try and find out.	I will try and find out.	95900472	1474411560972	1474411561060	t	84
186240	2018232	I will try and find out.	I will try and find out.	95900476	1474411561147	1474411561266	r	82
186240	2018232	I will try and find out.	I will try and find out.	95900502	1474411561242	1474411561336	y	89
186240	2018232	I will try and find out.	I will try and find out.	95900503	1474411561347	1474411561459	 	32
186240	2018232	I will try and find out.	I will try and find out.	95900507	1474411561439	1474411561589	a	65
186240	2018232	I will try and find out.	I will try and find out.	95900508	1474411561564	1474411561661	n	78
186240	2018232	I will try and find out.	I will try and find out.	95900512	1474411561667	1474411561771	d	68
186240	2018232	I will try and find out.	I will try and find out.	95900591	1474411561732	1474411561829	 	32
186240	2018232	I will try and find out.	I will try and find out.	95900593	1474411561880	1474411562021	i	70
186240	2018232	I will try and find out.	I will try and find out.	95900595	1474411562005	1474411562142	n	78
186240	2018232	I will try and find out.	I will try and find out.	95900597	1474411562252	1474411562368	 	32
186240	2018232	I will try and find out.	I will try and find out.	95900599	1474411562654	1474411562769	BKSP	8
186240	2018232	I will try and find out.	I will try and find out.	95900603	1474411562948	1474411563072	d	68
186240	2018232	I will try and find out.	I will try and find out.	95900662	1474411563077	1474411563265	 	32
186240	2018232	I will try and find out.	I will try and find out.	95900665	1474411563320	1474411563504	o	79
186240	2018232	I will try and find out.	I will try and find out.	95900670	1474411563430	1474411563552	u	85
186240	2018232	I will try and find out.	I will try and find out.	95900676	1474411563621	1474411563791	t	84
186240	2018232	I will try and find out.	I will try and find out.	95900682	1474411564042	1474411564163	.	190
186240	2018239	Market analysts said that the ratio was rising.	Market analysts said that the ratio was rising.	95900911	1474411567216	1474411567440	SHIFT	16
186240	2018239	Market analysts said that the ratio was rising.	Market analysts said that the ratio was rising.	95900907	1474411567328	1474411567421	M	77
186240	2018239	Market analysts said that the ratio was rising.	Market analysts said that the ratio was rising.	95900914	1474411567565	1474411567724	a	65
186240	2018239	Market analysts said that the ratio was rising.	Market analysts said that the ratio was rising.	95900918	1474411567702	1474411567877	r	82
186240	2018239	Market analysts said that the ratio was rising.	Market analysts said that the ratio was rising.	95900922	1474411567828	1474411567926	k	75
186240	2018239	Market analysts said that the ratio was rising.	Market analysts said that the ratio was rising.	95900926	1474411567953	1474411568177	e	69
186240	2018239	Market analysts said that the ratio was rising.	Market analysts said that the ratio was rising.	95900983	1474411568132	1474411568272	t	84
186240	2018239	Market analysts said that the ratio was rising.	Market analysts said that the ratio was rising.	95900986	1474411568255	1474411568361	 	32
186240	2018239	Market analysts said that the ratio was rising.	Market analysts said that the ratio was rising.	95900990	1474411568386	1474411568556	a	65
186240	2018239	Market analysts said that the ratio was rising.	Market analysts said that the ratio was rising.	95900992	1474411568954	1474411569100	n	78
186240	2018239	Market analysts said that the ratio was rising.	Market analysts said that the ratio was rising.	95900994	1474411569106	1474411569315	a	65
186240	2018239	Market analysts said that the ratio was rising.	Market analysts said that the ratio was rising.	95900997	1474411569378	1474411569502	l	76
186240	2018239	Market analysts said that the ratio was rising.	Market analysts said that the ratio was rising.	95901055	1474411570206	1474411570344	y	89
186240	2018239	Market analysts said that the ratio was rising.	Market analysts said that the ratio was rising.	95901060	1474411570365	1474411570558	s	83
186240	2018239	Market analysts said that the ratio was rising.	Market analysts said that the ratio was rising.	95901066	1474411570622	1474411570797	t	84
186240	2018239	Market analysts said that the ratio was rising.	Market analysts said that the ratio was rising.	95901071	1474411570760	1474411570907	s	83
186240	2018239	Market analysts said that the ratio was rising.	Market analysts said that the ratio was rising.	95901074	1474411570928	1474411571051	 	32
186240	2018239	Market analysts said that the ratio was rising.	Market analysts said that the ratio was rising.	95901103	1474411571091	1474411571229	a	65
186240	2018239	Market analysts said that the ratio was rising.	Market analysts said that the ratio was rising.	95901108	1474411571453	1474411571594	BKSP	8
186240	2018239	Market analysts said that the ratio was rising.	Market analysts said that the ratio was rising.	95901112	1474411571590	1474411571755	s	83
186240	2018239	Market analysts said that the ratio was rising.	Market analysts said that the ratio was rising.	95901114	1474411571725	1474411571884	a	65
186240	2018239	Market analysts said that the ratio was rising.	Market analysts said that the ratio was rising.	95901118	1474411571873	1474411571977	i	73
186240	2018239	Market analysts said that the ratio was rising.	Market analysts said that the ratio was rising.	95901130	1474411571970	1474411572096	d	68
186240	2018239	Market analysts said that the ratio was rising.	Market analysts said that the ratio was rising.	95901134	1474411572059	1474411572154	 	32
186240	2018239	Market analysts said that the ratio was rising.	Market analysts said that the ratio was rising.	95901144	1474411572184	1474411572349	t	84
186240	2018239	Market analysts said that the ratio was rising.	Market analysts said that the ratio was rising.	95901139	1474411572261	1474411572340	h	72
186240	2018239	Market analysts said that the ratio was rising.	Market analysts said that the ratio was rising.	95901147	1474411572347	1474411572536	a	65
186240	2018239	Market analysts said that the ratio was rising.	Market analysts said that the ratio was rising.	95901166	1474411572469	1474411572653	t	84
186240	2018239	Market analysts said that the ratio was rising.	Market analysts said that the ratio was rising.	95901170	1474411572610	1474411572708	 	32
186240	2018239	Market analysts said that the ratio was rising.	Market analysts said that the ratio was rising.	95901177	1474411572699	1474411572870	t	84
186240	2018239	Market analysts said that the ratio was rising.	Market analysts said that the ratio was rising.	95901184	1474411572809	1474411572899	h	72
186240	2018239	Market analysts said that the ratio was rising.	Market analysts said that the ratio was rising.	95901190	1474411572883	1474411573036	e	69
186240	2018239	Market analysts said that the ratio was rising.	Market analysts said that the ratio was rising.	95901196	1474411573039	1474411573145	 	32
186240	2018239	Market analysts said that the ratio was rising.	Market analysts said that the ratio was rising.	95901249	1474411573137	1474411573287	r	82
186240	2018239	Market analysts said that the ratio was rising.	Market analysts said that the ratio was rising.	95901255	1474411573262	1474411573528	a	65
186240	2018239	Market analysts said that the ratio was rising.	Market analysts said that the ratio was rising.	95901261	1474411573730	1474411573880	t	84
186240	2018239	Market analysts said that the ratio was rising.	Market analysts said that the ratio was rising.	95901269	1474411573817	1474411573991	i	73
186240	2018239	Market analysts said that the ratio was rising.	Market analysts said that the ratio was rising.	95901278	1474411573949	1474411574104	o	79
186240	2018239	Market analysts said that the ratio was rising.	Market analysts said that the ratio was rising.	95901364	1474411574096	1474411574208	 	32
186240	2018239	Market analysts said that the ratio was rising.	Market analysts said that the ratio was rising.	95901368	1474411574933	1474411575091	w	87
186240	2018239	Market analysts said that the ratio was rising.	Market analysts said that the ratio was rising.	95901372	1474411575046	1474411575275	a	65
186240	2018239	Market analysts said that the ratio was rising.	Market analysts said that the ratio was rising.	95901377	1474411575206	1474411575354	 	83
186240	2018239	Market analysts said that the ratio was rising.	Market analysts said that the ratio was rising.	95901380	1474411575487	1474411575626	r	82
186240	2018239	Market analysts said that the ratio was rising.	Market analysts said that the ratio was rising.	95901405	1474411575572	1474411575676	i	73
186240	2018239	Market analysts said that the ratio was rising.	Market analysts said that the ratio was rising.	95901411	1474411575654	1474411575814	s	83
186240	2018239	Market analysts said that the ratio was rising.	Market analysts said that the ratio was rising.	95901416	1474411575809	1474411575939	i	73
186240	2018239	Market analysts said that the ratio was rising.	Market analysts said that the ratio was rising.	95901423	1474411575845	1474411575990	n	78
186240	2018239	Market analysts said that the ratio was rising.	Market analysts said that the ratio was rising.	95901429	1474411575986	1474411576107	g	71
186240	2018239	Market analysts said that the ratio was rising.	Market analysts said that the ratio was rising.	95901434	1474411576145	1474411576325	.	190
186240	2018260	Don't expect Sanders to play anytime soon.	Don't expect Sanders to play anytime soon.	95901677	1474411578724	1474411578941	SHIFT	16
186240	2018260	Don't expect Sanders to play anytime soon.	Don't expect Sanders to play anytime soon.	95901682	1474411578816	1474411578981	D	68
186240	2018260	Don't expect Sanders to play anytime soon.	Don't expect Sanders to play anytime soon.	95901689	1474411579167	1474411579317	o	79
186240	2018260	Don't expect Sanders to play anytime soon.	Don't expect Sanders to play anytime soon.	95901693	1474411579277	1474411579443	n	78
186240	2018260	Don't expect Sanders to play anytime soon.	Don't expect Sanders to play anytime soon.	95901695	1474411579443	1474411579611	'	222
186240	2018260	Don't expect Sanders to play anytime soon.	Don't expect Sanders to play anytime soon.	95901696	1474411579641	1474411579754	t	84
186240	2018260	Don't expect Sanders to play anytime soon.	Don't expect Sanders to play anytime soon.	95901899	1474411579749	1474411579889	 	32
186240	2018260	Don't expect Sanders to play anytime soon.	Don't expect Sanders to play anytime soon.	95901902	1474411579999	1474411580097	w	87
186240	2018260	Don't expect Sanders to play anytime soon.	Don't expect Sanders to play anytime soon.	95901908	1474411580434	1474411580646	x	88
186240	2018260	Don't expect Sanders to play anytime soon.	Don't expect Sanders to play anytime soon.	95901912	1474411581024	1474411581116	BKSP	8
186240	2018260	Don't expect Sanders to play anytime soon.	Don't expect Sanders to play anytime soon.	95901916	1474411581180	1474411581284	BKSP	8
186240	2018260	Don't expect Sanders to play anytime soon.	Don't expect Sanders to play anytime soon.	95901920	1474411582240	1474411582328	e	69
186240	2018260	Don't expect Sanders to play anytime soon.	Don't expect Sanders to play anytime soon.	95901923	1474411582530	1474411582664	x	88
186240	2018260	Don't expect Sanders to play anytime soon.	Don't expect Sanders to play anytime soon.	95901925	1474411582829	1474411582972	p	80
186240	2018260	Don't expect Sanders to play anytime soon.	Don't expect Sanders to play anytime soon.	95901995	1474411583048	1474411583164	e	69
186240	2018260	Don't expect Sanders to play anytime soon.	Don't expect Sanders to play anytime soon.	95901999	1474411583263	1474411583405	c	67
186240	2018260	Don't expect Sanders to play anytime soon.	Don't expect Sanders to play anytime soon.	95902004	1474411583481	1474411583613	t	84
186240	2018260	Don't expect Sanders to play anytime soon.	Don't expect Sanders to play anytime soon.	95902006	1474411583604	1474411583732	 	32
186240	2018260	Don't expect Sanders to play anytime soon.	Don't expect Sanders to play anytime soon.	95902051	1474411583859	1474411584208	SHIFT	16
186240	2018260	Don't expect Sanders to play anytime soon.	Don't expect Sanders to play anytime soon.	95902010	1474411584047	1474411584193	S	83
186240	2018260	Don't expect Sanders to play anytime soon.	Don't expect Sanders to play anytime soon.	95902053	1474411584355	1474411584514	a	65
186240	2018260	Don't expect Sanders to play anytime soon.	Don't expect Sanders to play anytime soon.	95902056	1474411584550	1474411584632	n	78
186240	2018260	Don't expect Sanders to play anytime soon.	Don't expect Sanders to play anytime soon.	95902058	1474411584675	1474411584832	d	68
186240	2018260	Don't expect Sanders to play anytime soon.	Don't expect Sanders to play anytime soon.	95902060	1474411585006	1474411585226	e	69
186240	2018260	Don't expect Sanders to play anytime soon.	Don't expect Sanders to play anytime soon.	95902092	1474411585137	1474411585339	r	82
186240	2018260	Don't expect Sanders to play anytime soon.	Don't expect Sanders to play anytime soon.	95902098	1474411585315	1474411585483	s	83
186240	2018260	Don't expect Sanders to play anytime soon.	Don't expect Sanders to play anytime soon.	95902103	1474411585513	1474411585616	 	32
186240	2018260	Don't expect Sanders to play anytime soon.	Don't expect Sanders to play anytime soon.	95902106	1474411585701	1474411585830	t	84
186240	2018260	Don't expect Sanders to play anytime soon.	Don't expect Sanders to play anytime soon.	95902111	1474411585796	1474411585931	o	79
186240	2018260	Don't expect Sanders to play anytime soon.	Don't expect Sanders to play anytime soon.	95902145	1474411585916	1474411586044	 	32
186240	2018260	Don't expect Sanders to play anytime soon.	Don't expect Sanders to play anytime soon.	95902151	1474411586063	1474411586256	p	80
186240	2018260	Don't expect Sanders to play anytime soon.	Don't expect Sanders to play anytime soon.	95902164	1474411586196	1474411586311	l	76
186240	2018260	Don't expect Sanders to play anytime soon.	Don't expect Sanders to play anytime soon.	95902172	1474411586381	1474411586531	a	65
186240	2018260	Don't expect Sanders to play anytime soon.	Don't expect Sanders to play anytime soon.	95902178	1474411586513	1474411586608	y	89
186240	2018260	Don't expect Sanders to play anytime soon.	Don't expect Sanders to play anytime soon.	95902183	1474411586637	1474411586743	 	32
186240	2018260	Don't expect Sanders to play anytime soon.	Don't expect Sanders to play anytime soon.	95902197	1474411586767	1474411586920	a	65
186240	2018260	Don't expect Sanders to play anytime soon.	Don't expect Sanders to play anytime soon.	95902199	1474411586868	1474411586954	n	78
186240	2018260	Don't expect Sanders to play anytime soon.	Don't expect Sanders to play anytime soon.	95902203	1474411587041	1474411587136	y	89
186240	2018260	Don't expect Sanders to play anytime soon.	Don't expect Sanders to play anytime soon.	95902206	1474411587179	1474411587307	t	84
186240	2018260	Don't expect Sanders to play anytime soon.	Don't expect Sanders to play anytime soon.	95902252	1474411587277	1474411587451	i	73
186240	2018260	Don't expect Sanders to play anytime soon.	Don't expect Sanders to play anytime soon.	95902256	1474411587463	1474411587643	m	77
186240	2018260	Don't expect Sanders to play anytime soon.	Don't expect Sanders to play anytime soon.	95902264	1474411587626	1474411587769	e	69
186240	2018260	Don't expect Sanders to play anytime soon.	Don't expect Sanders to play anytime soon.	95902269	1474411587761	1474411587867	 	32
186240	2018260	Don't expect Sanders to play anytime soon.	Don't expect Sanders to play anytime soon.	95902274	1474411587883	1474411588064	s	83
186240	2018260	Don't expect Sanders to play anytime soon.	Don't expect Sanders to play anytime soon.	95902392	1474411588007	1474411588079	o	79
186240	2018260	Don't expect Sanders to play anytime soon.	Don't expect Sanders to play anytime soon.	95902394	1474411588159	1474411588221	o	79
186240	2018260	Don't expect Sanders to play anytime soon.	Don't expect Sanders to play anytime soon.	95902399	1474411588276	1474411588378	n	78
186240	2018260	Don't expect Sanders to play anytime soon.	Don't expect Sanders to play anytime soon.	95902403	1474411588898	1474411588979	.	190
186240	2018260	Don't expect Sanders to play anytime soon.	Don't expect Sanders to play anytime soon.	95902408	1474411589067	1474411589163	'	222
186240	2018260	Don't expect Sanders to play anytime soon.	Don't expect Sanders to play anytime soon.	95902415	1474411589663	1474411589745	BKSP	8
186240	2018280	We're here to qualify in the second or third row.	We're here to qualify in the second or third row.	95902699	1474411592741	1474411593077	SHIFT	16
186240	2018280	We're here to qualify in the second or third row.	We're here to qualify in the second or third row.	95902695	1474411592909	1474411593072	W	87
186240	2018280	We're here to qualify in the second or third row.	We're here to qualify in the second or third row.	95902706	1474411593223	1474411593376	e	69
186240	2018280	We're here to qualify in the second or third row.	We're here to qualify in the second or third row.	95902710	1474411593896	1474411594073	'	222
186240	2018280	We're here to qualify in the second or third row.	We're here to qualify in the second or third row.	95902714	1474411594076	1474411594275	r	82
186240	2018280	We're here to qualify in the second or third row.	We're here to qualify in the second or third row.	95902747	1474411594207	1474411594378	e	69
186240	2018280	We're here to qualify in the second or third row.	We're here to qualify in the second or third row.	95902753	1474411594315	1474411594446	 	32
186240	2018280	We're here to qualify in the second or third row.	We're here to qualify in the second or third row.	95902758	1474411594626	1474411594721	h	72
186240	2018280	We're here to qualify in the second or third row.	We're here to qualify in the second or third row.	95902763	1474411594717	1474411594923	e	69
186240	2018280	We're here to qualify in the second or third row.	We're here to qualify in the second or third row.	95902766	1474411594849	1474411595042	r	82
186240	2018280	We're here to qualify in the second or third row.	We're here to qualify in the second or third row.	95902819	1474411595005	1474411595170	e	69
186240	2018280	We're here to qualify in the second or third row.	We're here to qualify in the second or third row.	95902825	1474411595088	1474411595274	 	32
186240	2018280	We're here to qualify in the second or third row.	We're here to qualify in the second or third row.	95902833	1474411595342	1474411595507	t	84
186240	2018280	We're here to qualify in the second or third row.	We're here to qualify in the second or third row.	95902842	1474411595461	1474411595611	o	79
186240	2018280	We're here to qualify in the second or third row.	We're here to qualify in the second or third row.	95902852	1474411595586	1474411595718	 	32
186240	2018280	We're here to qualify in the second or third row.	We're here to qualify in the second or third row.	95902861	1474411596094	1474411596315	q	81
186240	2018280	We're here to qualify in the second or third row.	We're here to qualify in the second or third row.	95902891	1474411596348	1474411596505	u	85
186240	2018280	We're here to qualify in the second or third row.	We're here to qualify in the second or third row.	95902899	1474411596649	1474411596844	a	65
186240	2018280	We're here to qualify in the second or third row.	We're here to qualify in the second or third row.	95902906	1474411596896	1474411597061	l	76
186240	2018280	We're here to qualify in the second or third row.	We're here to qualify in the second or third row.	95902909	1474411596986	1474411597165	i	73
186240	2018280	We're here to qualify in the second or third row.	We're here to qualify in the second or third row.	95902975	1474411597157	1474411597326	f	70
186240	2018280	We're here to qualify in the second or third row.	We're here to qualify in the second or third row.	95902977	1474411597343	1474411597438	y	89
186240	2018280	We're here to qualify in the second or third row.	We're here to qualify in the second or third row.	95902979	1474411597475	1474411597632	 	32
186240	2018280	We're here to qualify in the second or third row.	We're here to qualify in the second or third row.	95902982	1474411597840	1474411598007	i	73
186240	2018280	We're here to qualify in the second or third row.	We're here to qualify in the second or third row.	95902986	1474411597943	1474411598106	n	78
186240	2018280	We're here to qualify in the second or third row.	We're here to qualify in the second or third row.	95902991	1474411598124	1474411598215	 	32
186240	2018280	We're here to qualify in the second or third row.	We're here to qualify in the second or third row.	95903019	1474411598268	1474411598387	t	84
186240	2018280	We're here to qualify in the second or third row.	We're here to qualify in the second or third row.	95903021	1474411598391	1474411598494	h	72
186240	2018280	We're here to qualify in the second or third row.	We're here to qualify in the second or third row.	95903026	1474411598510	1474411598627	e	69
186240	2018280	We're here to qualify in the second or third row.	We're here to qualify in the second or third row.	95903029	1474411598550	1474411598706	 	32
186240	2018280	We're here to qualify in the second or third row.	We're here to qualify in the second or third row.	95903078	1474411598718	1474411598978	s	83
186240	2018280	We're here to qualify in the second or third row.	We're here to qualify in the second or third row.	95903032	1474411598874	1474411598941	e	69
186240	2018280	We're here to qualify in the second or third row.	We're here to qualify in the second or third row.	95903087	1474411599062	1474411599217	c	67
186240	2018280	We're here to qualify in the second or third row.	We're here to qualify in the second or third row.	95903093	1474411599210	1474411599374	o	79
186240	2018280	We're here to qualify in the second or third row.	We're here to qualify in the second or third row.	95903104	1474411599295	1474411599455	n	78
186240	2018280	We're here to qualify in the second or third row.	We're here to qualify in the second or third row.	95903110	1474411599444	1474411599595	d	68
186240	2018280	We're here to qualify in the second or third row.	We're here to qualify in the second or third row.	95903117	1474411599596	1474411599745	 	32
186240	2018280	We're here to qualify in the second or third row.	We're here to qualify in the second or third row.	95903137	1474411599863	1474411599989	o	79
186240	2018280	We're here to qualify in the second or third row.	We're here to qualify in the second or third row.	95903140	1474411599994	1474411600130	r	82
186240	2018280	We're here to qualify in the second or third row.	We're here to qualify in the second or third row.	95903145	1474411600066	1474411600212	 	32
186240	2018280	We're here to qualify in the second or third row.	We're here to qualify in the second or third row.	95903149	1474411600262	1474411600402	t	84
186240	2018280	We're here to qualify in the second or third row.	We're here to qualify in the second or third row.	95903279	1474411600330	1474411600458	h	72
186240	2018280	We're here to qualify in the second or third row.	We're here to qualify in the second or third row.	95903283	1474411600440	1474411600556	i	73
186240	2018280	We're here to qualify in the second or third row.	We're here to qualify in the second or third row.	95903288	1474411600641	1474411600806	r	82
186240	2018280	We're here to qualify in the second or third row.	We're here to qualify in the second or third row.	95903292	1474411601076	1474411601243	d	68
186240	2018280	We're here to qualify in the second or third row.	We're here to qualify in the second or third row.	95903296	1474411601307	1474411601442	 	32
186240	2018280	We're here to qualify in the second or third row.	We're here to qualify in the second or third row.	95903299	1474411602098	1474411602294	w	87
186240	2018280	We're here to qualify in the second or third row.	We're here to qualify in the second or third row.	95903415	1474411602492	1474411602618	BKSP	8
186240	2018280	We're here to qualify in the second or third row.	We're here to qualify in the second or third row.	95903419	1474411602763	1474411602913	r	82
186240	2018280	We're here to qualify in the second or third row.	We're here to qualify in the second or third row.	95903424	1474411602895	1474411603032	o	79
186240	2018280	We're here to qualify in the second or third row.	We're here to qualify in the second or third row.	95903429	1474411603116	1474411603278	w	87
186240	2018280	We're here to qualify in the second or third row.	We're here to qualify in the second or third row.	95903435	1474411603593	1474411603666	.	190
186240	2018303	Can we have them until we move?	Can we have them until we move?	95903799	1474411606904	1474411607121	SHIFT	16
186240	2018303	Can we have them until we move?	Can we have them until we move?	95903802	1474411607025	1474411607198	C	67
186240	2018303	Can we have them until we move?	Can we have them until we move?	95903804	1474411607161	1474411607310	a	65
186240	2018303	Can we have them until we move?	Can we have them until we move?	95903806	1474411607313	1474411607405	n	78
186240	2018303	Can we have them until we move?	Can we have them until we move?	95903810	1474411607484	1474411607604	 	32
186240	2018303	Can we have them until we move?	Can we have them until we move?	95903814	1474411607747	1474411607976	w	87
186240	2018303	Can we have them until we move?	Can we have them until we move?	95903836	1474411607882	1474411608043	e	69
186240	2018303	Can we have them until we move?	Can we have them until we move?	95903840	1474411608003	1474411608126	 	32
186240	2018303	Can we have them until we move?	Can we have them until we move?	95903844	1474411608187	1474411608254	h	72
186240	2018303	Can we have them until we move?	Can we have them until we move?	95903848	1474411608227	1474411608390	a	65
186240	2018303	Can we have them until we move?	Can we have them until we move?	95903857	1474411608417	1474411608561	v	86
186240	2018303	Can we have them until we move?	Can we have them until we move?	95903890	1474411608522	1474411608717	e	69
186240	2018303	Can we have them until we move?	Can we have them until we move?	95903886	1474411608567	1474411608712	 	32
186240	2018303	Can we have them until we move?	Can we have them until we move?	95903891	1474411608754	1474411608875	t	84
186240	2018303	Can we have them until we move?	Can we have them until we move?	95903895	1474411608864	1474411608919	h	72
186240	2018303	Can we have them until we move?	Can we have them until we move?	95903900	1474411608950	1474411609091	e	69
186240	2018303	Can we have them until we move?	Can we have them until we move?	95903944	1474411609067	1474411609174	m	77
186240	2018303	Can we have them until we move?	Can we have them until we move?	95903949	1474411609204	1474411609376	 	32
186240	2018303	Can we have them until we move?	Can we have them until we move?	95903953	1474411609356	1474411609449	u	85
186240	2018303	Can we have them until we move?	Can we have them until we move?	95903956	1474411609529	1474411609626	n	78
186240	2018303	Can we have them until we move?	Can we have them until we move?	95903960	1474411609621	1474411609735	t	84
186240	2018303	Can we have them until we move?	Can we have them until we move?	95903993	1474411609692	1474411609854	i	73
186240	2018303	Can we have them until we move?	Can we have them until we move?	95903998	1474411609826	1474411609977	l	76
186240	2018303	Can we have them until we move?	Can we have them until we move?	95904004	1474411610010	1474411610122	 	32
186240	2018303	Can we have them until we move?	Can we have them until we move?	95904009	1474411610161	1474411610382	w	87
186240	2018303	Can we have them until we move?	Can we have them until we move?	95904016	1474411610260	1474411610476	e	69
186240	2018303	Can we have them until we move?	Can we have them until we move?	95904059	1474411610415	1474411610541	 	32
186240	2018303	Can we have them until we move?	Can we have them until we move?	95904062	1474411610562	1474411610737	m	77
186240	2018303	Can we have them until we move?	Can we have them until we move?	95904068	1474411610662	1474411610829	o	79
186240	2018303	Can we have them until we move?	Can we have them until we move?	95904073	1474411610878	1474411611101	v	86
186240	2018303	Can we have them until we move?	Can we have them until we move?	95904077	1474411611029	1474411611205	e	69
186240	2018303	Can we have them until we move?	Can we have them until we move?	95904080	1474411611381	1474411611463	?	191
186240	2018318	I'll give him 10.	I'll five him 10.	95904338	1474411614298	1474411614453	I	73
186240	2018318	I'll give him 10.	I'll five him 10.	95904349	1474411614854	1474411614988	'	222
186240	2018318	I'll give him 10.	I'll five him 10.	95904352	1474411615077	1474411615182	l	76
186240	2018318	I'll give him 10.	I'll five him 10.	95904359	1474411615252	1474411615389	l	76
186240	2018318	I'll give him 10.	I'll five him 10.	95904415	1474411615382	1474411615508	 	32
186240	2018318	I'll give him 10.	I'll five him 10.	95904419	1474411615607	1474411615735	f	70
186240	2018318	I'll give him 10.	I'll five him 10.	95904422	1474411615720	1474411615849	i	73
186240	2018318	I'll give him 10.	I'll five him 10.	95904426	1474411616105	1474411616254	v	86
186240	2018318	I'll give him 10.	I'll five him 10.	95904431	1474411616236	1474411616385	e	69
186240	2018318	I'll give him 10.	I'll five him 10.	95904529	1474411616336	1474411616444	 	32
186240	2018318	I'll give him 10.	I'll five him 10.	95904532	1474411616499	1474411616637	h	72
186240	2018318	I'll give him 10.	I'll five him 10.	95904536	1474411616604	1474411616791	i	73
186240	2018318	I'll give him 10.	I'll five him 10.	95904540	1474411616755	1474411616925	m	77
186240	2018318	I'll give him 10.	I'll five him 10.	95904545	1474411616944	1474411617110	 	32
186240	2018318	I'll give him 10.	I'll five him 10.	95904550	1474411617628	1474411617765	1	49
186240	2018318	I'll give him 10.	I'll five him 10.	95904591	1474411617689	1474411617786	0	48
186240	2018318	I'll give him 10.	I'll five him 10.	95904597	1474411618062	1474411618170	.	190
186240	2018325	That would be great.	That would be great.	95904843	1474411620678	1474411620931	SHIFT	16
186240	2018325	That would be great.	That would be great.	95904847	1474411620837	1474411621029	T	84
186240	2018325	That would be great.	That would be great.	95904858	1474411621075	1474411621167	h	72
186240	2018325	That would be great.	That would be great.	95904866	1474411621170	1474411621346	a	65
186240	2018325	That would be great.	That would be great.	95904870	1474411621340	1474411621489	t	84
186240	2018325	That would be great.	That would be great.	95904934	1474411621437	1474411621553	 	32
186240	2018325	That would be great.	That would be great.	95904938	1474411621529	1474411621679	w	87
186240	2018325	That would be great.	That would be great.	95904941	1474411621611	1474411621774	o	79
186240	2018325	That would be great.	That would be great.	95904944	1474411621700	1474411621829	u	85
186240	2018325	That would be great.	That would be great.	95904950	1474411622190	1474411622334	l	76
186240	2018325	That would be great.	That would be great.	95904957	1474411622463	1474411622548	d	68
186240	2018325	That would be great.	That would be great.	95905089	1474411623145	1474411623267	 	32
186240	2018325	That would be great.	That would be great.	95905095	1474411623358	1474411623447	b	66
186240	2018325	That would be great.	That would be great.	95905103	1474411623456	1474411623594	e	69
186240	2018325	That would be great.	That would be great.	95905110	1474411623561	1474411623708	 	32
186240	2018325	That would be great.	That would be great.	95905116	1474411624246	1474411624349	g	71
186240	2018325	That would be great.	That would be great.	95905187	1474411624484	1474411624673	r	82
186240	2018325	That would be great.	That would be great.	95905190	1474411624597	1474411624817	e	69
186240	2018325	That would be great.	That would be great.	95905193	1474411624725	1474411624955	a	65
186240	2018325	That would be great.	That would be great.	95905196	1474411624924	1474411625111	t	84
186240	2018325	That would be great.	That would be great.	95905199	1474411625292	1474411625383	.	190
186240	2018335	I still believe a September 30 closing is unrealistic.	I still believe a September 30 closing in unrealistic.	95905601	1474411627704	1474411627970	SHIFT	16
186240	2018335	I still believe a September 30 closing is unrealistic.	I still believe a September 30 closing in unrealistic.	95905596	1474411627833	1474411627958	I	73
186240	2018335	I still believe a September 30 closing is unrealistic.	I still believe a September 30 closing in unrealistic.	95905603	1474411627964	1474411628082	 	32
186240	2018335	I still believe a September 30 closing is unrealistic.	I still believe a September 30 closing in unrealistic.	95905608	1474411628115	1474411628242	w	87
186240	2018335	I still believe a September 30 closing is unrealistic.	I still believe a September 30 closing in unrealistic.	95905613	1474411628850	1474411628979	s	83
186240	2018335	I still believe a September 30 closing is unrealistic.	I still believe a September 30 closing in unrealistic.	95905618	1474411628972	1474411629110	BKSP	8
186240	2018335	I still believe a September 30 closing is unrealistic.	I still believe a September 30 closing in unrealistic.	95905623	1474411629180	1474411629281	BKSP	8
186240	2018335	I still believe a September 30 closing is unrealistic.	I still believe a September 30 closing in unrealistic.	95905627	1474411629850	1474411630032	s	83
186240	2018335	I still believe a September 30 closing is unrealistic.	I still believe a September 30 closing in unrealistic.	95905646	1474411630045	1474411630179	t	84
186240	2018335	I still believe a September 30 closing is unrealistic.	I still believe a September 30 closing in unrealistic.	95905651	1474411630143	1474411630259	i	73
186240	2018335	I still believe a September 30 closing is unrealistic.	I still believe a September 30 closing in unrealistic.	95905658	1474411630314	1474411630409	l	76
186240	2018335	I still believe a September 30 closing is unrealistic.	I still believe a September 30 closing in unrealistic.	95905670	1474411630473	1474411630565	l	76
186240	2018335	I still believe a September 30 closing is unrealistic.	I still believe a September 30 closing in unrealistic.	95905678	1474411630583	1474411630641	 	32
186240	2018335	I still believe a September 30 closing is unrealistic.	I still believe a September 30 closing in unrealistic.	95905724	1474411630726	1474411630818	b	66
186240	2018335	I still believe a September 30 closing is unrealistic.	I still believe a September 30 closing in unrealistic.	95905729	1474411630809	1474411630936	e	69
186240	2018335	I still believe a September 30 closing is unrealistic.	I still believe a September 30 closing in unrealistic.	95905732	1474411630975	1474411631146	l	76
186240	2018335	I still believe a September 30 closing is unrealistic.	I still believe a September 30 closing in unrealistic.	95905735	1474411631080	1474411631220	i	73
186240	2018335	I still believe a September 30 closing is unrealistic.	I still believe a September 30 closing in unrealistic.	95905797	1474411631195	1474411631322	e	69
186240	2018335	I still believe a September 30 closing is unrealistic.	I still believe a September 30 closing in unrealistic.	95905802	1474411631403	1474411631553	v	86
186240	2018335	I still believe a September 30 closing is unrealistic.	I still believe a September 30 closing in unrealistic.	95905807	1474411631527	1474411631701	e	69
186240	2018335	I still believe a September 30 closing is unrealistic.	I still believe a September 30 closing in unrealistic.	95905811	1474411631665	1474411631800	 	32
186240	2018335	I still believe a September 30 closing is unrealistic.	I still believe a September 30 closing in unrealistic.	95905813	1474411632104	1474411632296	a	65
186240	2018335	I still believe a September 30 closing is unrealistic.	I still believe a September 30 closing in unrealistic.	95905925	1474411632250	1474411632376	 	32
186240	2018335	I still believe a September 30 closing is unrealistic.	I still believe a September 30 closing in unrealistic.	95905937	1474411632498	1474411632795	SHIFT	16
186240	2018335	I still believe a September 30 closing is unrealistic.	I still believe a September 30 closing in unrealistic.	95905930	1474411632639	1474411632782	S	83
186240	2018335	I still believe a September 30 closing is unrealistic.	I still believe a September 30 closing in unrealistic.	95905942	1474411632922	1474411633063	e	69
186240	2018335	I still believe a September 30 closing is unrealistic.	I still believe a September 30 closing in unrealistic.	95905946	1474411633075	1474411633241	p	80
186240	2018335	I still believe a September 30 closing is unrealistic.	I still believe a September 30 closing in unrealistic.	95905951	1474411634016	1474411634151	t	84
186240	2018335	I still believe a September 30 closing is unrealistic.	I still believe a September 30 closing in unrealistic.	95906008	1474411634117	1474411634273	e	69
186240	2018335	I still believe a September 30 closing is unrealistic.	I still believe a September 30 closing in unrealistic.	95906013	1474411634218	1474411634295	m	77
186240	2018335	I still believe a September 30 closing is unrealistic.	I still believe a September 30 closing in unrealistic.	95906015	1474411634394	1474411634474	b	66
186240	2018335	I still believe a September 30 closing is unrealistic.	I still believe a September 30 closing in unrealistic.	95906019	1474411634464	1474411634694	e	69
186240	2018335	I still believe a September 30 closing is unrealistic.	I still believe a September 30 closing in unrealistic.	95906022	1474411634603	1474411634776	r	82
186240	2018335	I still believe a September 30 closing is unrealistic.	I still believe a September 30 closing in unrealistic.	95906025	1474411634780	1474411634899	 	32
186240	2018335	I still believe a September 30 closing is unrealistic.	I still believe a September 30 closing in unrealistic.	95906232	1474411635664	1474411635778	3	51
186240	2018335	I still believe a September 30 closing is unrealistic.	I still believe a September 30 closing in unrealistic.	95906236	1474411636243	1474411636331	0	48
186240	2018335	I still believe a September 30 closing is unrealistic.	I still believe a September 30 closing in unrealistic.	95906240	1474411636461	1474411636556	n	78
186240	2018335	I still believe a September 30 closing is unrealistic.	I still believe a September 30 closing in unrealistic.	95906246	1474411636687	1474411636782	 	32
186240	2018335	I still believe a September 30 closing is unrealistic.	I still believe a September 30 closing in unrealistic.	95906253	1474411637223	1474411637337	BKSP	8
186240	2018335	I still believe a September 30 closing is unrealistic.	I still believe a September 30 closing in unrealistic.	95906257	1474411637479	1474411637638	BKSP	8
186240	2018335	I still believe a September 30 closing is unrealistic.	I still believe a September 30 closing in unrealistic.	95906263	1474411637827	1474411637947	 	32
186240	2018335	I still believe a September 30 closing is unrealistic.	I still believe a September 30 closing in unrealistic.	95906346	1474411638119	1474411638289	c	67
186240	2018335	I still believe a September 30 closing is unrealistic.	I still believe a September 30 closing in unrealistic.	95906349	1474411638216	1474411638356	l	76
186240	2018335	I still believe a September 30 closing is unrealistic.	I still believe a September 30 closing in unrealistic.	95906355	1474411638704	1474411638861	o	79
186240	2018335	I still believe a September 30 closing is unrealistic.	I still believe a September 30 closing in unrealistic.	95906362	1474411638900	1474411639050	s	83
186240	2018335	I still believe a September 30 closing is unrealistic.	I still believe a September 30 closing in unrealistic.	95906388	1474411639017	1474411639169	i	73
186240	2018335	I still believe a September 30 closing is unrealistic.	I still believe a September 30 closing in unrealistic.	95906391	1474411639118	1474411639231	n	78
186240	2018335	I still believe a September 30 closing is unrealistic.	I still believe a September 30 closing in unrealistic.	95906396	1474411639197	1474411639347	g	71
186240	2018335	I still believe a September 30 closing is unrealistic.	I still believe a September 30 closing in unrealistic.	95906401	1474411639301	1474411639405	 	32
186240	2018335	I still believe a September 30 closing is unrealistic.	I still believe a September 30 closing in unrealistic.	95906405	1474411639467	1474411639620	i	73
186240	2018335	I still believe a September 30 closing is unrealistic.	I still believe a September 30 closing in unrealistic.	95906503	1474411639572	1474411639762	n	78
186240	2018335	I still believe a September 30 closing is unrealistic.	I still believe a September 30 closing in unrealistic.	95906513	1474411639807	1474411640006	 	32
186240	2018335	I still believe a September 30 closing is unrealistic.	I still believe a September 30 closing in unrealistic.	95906518	1474411640095	1474411640187	u	85
186240	2018335	I still believe a September 30 closing is unrealistic.	I still believe a September 30 closing in unrealistic.	95906524	1474411640275	1474411640411	n	78
186240	2018335	I still believe a September 30 closing is unrealistic.	I still believe a September 30 closing in unrealistic.	95906530	1474411640681	1474411640918	r	82
186240	2018335	I still believe a September 30 closing is unrealistic.	I still believe a September 30 closing in unrealistic.	95906688	1474411640806	1474411640974	e	69
186240	2018335	I still believe a September 30 closing is unrealistic.	I still believe a September 30 closing in unrealistic.	95906692	1474411640904	1474411641109	a	65
186240	2018335	I still believe a September 30 closing is unrealistic.	I still believe a September 30 closing in unrealistic.	95906697	1474411641063	1474411641268	l	76
186240	2018335	I still believe a September 30 closing is unrealistic.	I still believe a September 30 closing in unrealistic.	95906701	1474411641195	1474411641375	i	73
186240	2018335	I still believe a September 30 closing is unrealistic.	I still believe a September 30 closing in unrealistic.	95906709	1474411641336	1474411641518	s	83
186240	2018335	I still believe a September 30 closing is unrealistic.	I still believe a September 30 closing in unrealistic.	95906713	1474411641935	1474411642115	t	84
186240	2018335	I still believe a September 30 closing is unrealistic.	I still believe a September 30 closing in unrealistic.	95906718	1474411642594	1474411642705	i	73
186240	2018335	I still believe a September 30 closing is unrealistic.	I still believe a September 30 closing in unrealistic.	95906785	1474411642715	1474411642858	c	67
186240	2018335	I still believe a September 30 closing is unrealistic.	I still believe a September 30 closing in unrealistic.	95906794	1474411643702	1474411643774	.	190
186240	2018369	What do you think?	What do you think?	95907163	1474411646816	1474411647038	SHIFT	16
186240	2018369	What do you think?	What do you think?	95907171	1474411646948	1474411647098	W	87
186240	2018369	What do you think?	What do you think?	95907176	1474411647081	1474411647176	h	72
186240	2018369	What do you think?	What do you think?	95907180	1474411647207	1474411647397	a	65
186240	2018369	What do you think?	What do you think?	95907183	1474411647313	1474411647483	t	84
186240	2018369	What do you think?	What do you think?	95907212	1474411647440	1474411647547	 	32
186240	2018369	What do you think?	What do you think?	95907215	1474411647553	1474411647731	d	68
186240	2018369	What do you think?	What do you think?	95907220	1474411647662	1474411647805	o	79
186240	2018369	What do you think?	What do you think?	95907227	1474411647790	1474411647956	 	32
186240	2018369	What do you think?	What do you think?	95907236	1474411647961	1474411648093	y	89
186240	2018369	What do you think?	What do you think?	95907252	1474411648067	1474411648246	o	79
186240	2018369	What do you think?	What do you think?	95907254	1474411648176	1474411648314	u	85
186240	2018369	What do you think?	What do you think?	95907259	1474411648253	1474411648369	 	32
186240	2018369	What do you think?	What do you think?	95907265	1474411648384	1474411648516	t	84
186240	2018369	What do you think?	What do you think?	95907270	1474411648464	1474411648602	h	72
186240	2018369	What do you think?	What do you think?	95907334	1474411648556	1474411648712	i	73
186240	2018369	What do you think?	What do you think?	95907343	1474411648676	1474411648865	n	78
186240	2018369	What do you think?	What do you think?	95907350	1474411648804	1474411648961	k	75
186240	2018369	What do you think?	What do you think?	95907361	1474411649231	1474411649313	?	191
