PARTICIPANT_ID	TEST_SECTION_ID	SENTENCE	USER_INPUT	KEYSTROKE_ID	PRESS_TIME	RELEASE_TIME	LETTER	KEYCODE
189022	2048950	Hours are listed in 24hr format central time.	Hours are listed in 24hr format central time.	97361322	1474449187676	1474449187770	CAPS_LOCK	20
189022	2048950	Hours are listed in 24hr format central time.	Hours are listed in 24hr format central time.	97361324	1474449187882	1474449187969	H	72
189022	2048950	Hours are listed in 24hr format central time.	Hours are listed in 24hr format central time.	97361325	1474449188058	1474449188146	CAPS_LOCK	20
189022	2048950	Hours are listed in 24hr format central time.	Hours are listed in 24hr format central time.	97361326	1474449188218	1474449188330	o	79
189022	2048950	Hours are listed in 24hr format central time.	Hours are listed in 24hr format central time.	97361327	1474449188274	1474449188353	u	85
189022	2048950	Hours are listed in 24hr format central time.	Hours are listed in 24hr format central time.	97361328	1474449188369	1474449188482	r	82
189022	2048950	Hours are listed in 24hr format central time.	Hours are listed in 24hr format central time.	97361333	1474449188441	1474449188514	s	83
189022	2048950	Hours are listed in 24hr format central time.	Hours are listed in 24hr format central time.	97361335	1474449188487	1474449188569	 	32
189022	2048950	Hours are listed in 24hr format central time.	Hours are listed in 24hr format central time.	97361336	1474449188586	1474449188674	a	65
189022	2048950	Hours are listed in 24hr format central time.	Hours are listed in 24hr format central time.	97361337	1474449188658	1474449188730	r	32
189022	2048950	Hours are listed in 24hr format central time.	Hours are listed in 24hr format central time.	97361388	1474449188762	1474449188859	e	69
189022	2048950	Hours are listed in 24hr format central time.	Hours are listed in 24hr format central time.	97361389	1474449189017	1474449189090	BKSP	8
189022	2048950	Hours are listed in 24hr format central time.	Hours are listed in 24hr format central time.	97361390	1474449189162	1474449189225	BKSP	8
189022	2048950	Hours are listed in 24hr format central time.	Hours are listed in 24hr format central time.	97361391	1474449189298	1474449189370	BKSP	8
189022	2048950	Hours are listed in 24hr format central time.	Hours are listed in 24hr format central time.	97361392	1474449189442	1474449189537	BKSP	8
189022	2048950	Hours are listed in 24hr format central time.	Hours are listed in 24hr format central time.	97361393	1474449189594	1474449189722	r	82
189022	2048950	Hours are listed in 24hr format central time.	Hours are listed in 24hr format central time.	97361394	1474449189866	1474449189962	BKSP	8
189022	2048950	Hours are listed in 24hr format central time.	Hours are listed in 24hr format central time.	97361395	1474449189993	1474449190114	a	65
189022	2048950	Hours are listed in 24hr format central time.	Hours are listed in 24hr format central time.	97361396	1474449190090	1474449190194	r	82
189022	2048950	Hours are listed in 24hr format central time.	Hours are listed in 24hr format central time.	97361405	1474449190155	1474449190249	 	69
189022	2048950	Hours are listed in 24hr format central time.	Hours are listed in 24hr format central time.	97361409	1474449190321	1474449190394	l	76
189022	2048950	Hours are listed in 24hr format central time.	Hours are listed in 24hr format central time.	97361412	1474449190450	1474449190537	i	73
189022	2048950	Hours are listed in 24hr format central time.	Hours are listed in 24hr format central time.	97361416	1474449190522	1474449190586	s	83
189022	2048950	Hours are listed in 24hr format central time.	Hours are listed in 24hr format central time.	97361420	1474449190570	1474449190666	t	84
189022	2048950	Hours are listed in 24hr format central time.	Hours are listed in 24hr format central time.	97361425	1474449190667	1474449190786	e	69
189022	2048950	Hours are listed in 24hr format central time.	Hours are listed in 24hr format central time.	97361440	1474449190762	1474449190874	d	68
189022	2048950	Hours are listed in 24hr format central time.	Hours are listed in 24hr format central time.	97361442	1474449190810	1474449190874	 	32
189022	2048950	Hours are listed in 24hr format central time.	Hours are listed in 24hr format central time.	97361444	1474449190914	1474449191001	i	73
189022	2048950	Hours are listed in 24hr format central time.	Hours are listed in 24hr format central time.	97361446	1474449190961	1474449191034	n	78
189022	2048950	Hours are listed in 24hr format central time.	Hours are listed in 24hr format central time.	97361450	1474449191098	1474449191209	 	32
189022	2048950	Hours are listed in 24hr format central time.	Hours are listed in 24hr format central time.	97361447	1474449191193	1474449191298	2	50
189022	2048950	Hours are listed in 24hr format central time.	Hours are listed in 24hr format central time.	97361449	1474449191258	1474449191379	4	52
189022	2048950	Hours are listed in 24hr format central time.	Hours are listed in 24hr format central time.	97361451	1474449191379	1474449191474	h	72
189022	2048950	Hours are listed in 24hr format central time.	Hours are listed in 24hr format central time.	97361454	1474449191498	1474449191578	r	82
189022	2048950	Hours are listed in 24hr format central time.	Hours are listed in 24hr format central time.	97361459	1474449191579	1474449191666	 	32
189022	2048950	Hours are listed in 24hr format central time.	Hours are listed in 24hr format central time.	97361462	1474449191697	1474449191778	c	67
189022	2048950	Hours are listed in 24hr format central time.	Hours are listed in 24hr format central time.	97361478	1474449191874	1474449191986	BKSP	8
189022	2048950	Hours are listed in 24hr format central time.	Hours are listed in 24hr format central time.	97361480	1474449191987	1474449192066	f	70
189022	2048950	Hours are listed in 24hr format central time.	Hours are listed in 24hr format central time.	97361482	1474449192067	1474449192146	o	79
189022	2048950	Hours are listed in 24hr format central time.	Hours are listed in 24hr format central time.	97361484	1474449192234	1474449192337	r	82
189022	2048950	Hours are listed in 24hr format central time.	Hours are listed in 24hr format central time.	97361485	1474449192393	1474449192465	m	77
189022	2048950	Hours are listed in 24hr format central time.	Hours are listed in 24hr format central time.	97361486	1474449192529	1474449192610	a	65
189022	2048950	Hours are listed in 24hr format central time.	Hours are listed in 24hr format central time.	97361508	1474449192634	1474449192706	n	78
189022	2048950	Hours are listed in 24hr format central time.	Hours are listed in 24hr format central time.	97361513	1474449192898	1474449192985	BKSP	8
189022	2048950	Hours are listed in 24hr format central time.	Hours are listed in 24hr format central time.	97361515	1474449193009	1474449193066	t	84
189022	2048950	Hours are listed in 24hr format central time.	Hours are listed in 24hr format central time.	97361516	1474449193066	1474449193178	 	32
189022	2048950	Hours are listed in 24hr format central time.	Hours are listed in 24hr format central time.	97361517	1474449193179	1474449193274	c	67
189022	2048950	Hours are listed in 24hr format central time.	Hours are listed in 24hr format central time.	97361518	1474449193274	1474449193370	e	69
189022	2048950	Hours are listed in 24hr format central time.	Hours are listed in 24hr format central time.	97361524	1474449193330	1474449193418	n	78
189022	2048950	Hours are listed in 24hr format central time.	Hours are listed in 24hr format central time.	97361525	1474449193419	1474449193474	t	84
189022	2048950	Hours are listed in 24hr format central time.	Hours are listed in 24hr format central time.	97361526	1474449193545	1474449193626	r	82
189022	2048950	Hours are listed in 24hr format central time.	Hours are listed in 24hr format central time.	97361527	1474449193609	1474449193730	a	65
189022	2048950	Hours are listed in 24hr format central time.	Hours are listed in 24hr format central time.	97361528	1474449193674	1474449193731	l	76
189022	2048950	Hours are listed in 24hr format central time.	Hours are listed in 24hr format central time.	97361529	1474449193753	1474449193850	 	32
189022	2048950	Hours are listed in 24hr format central time.	Hours are listed in 24hr format central time.	97361610	1474449193834	1474449193929	t	84
189022	2048950	Hours are listed in 24hr format central time.	Hours are listed in 24hr format central time.	97361613	1474449193906	1474449194002	i	73
189022	2048950	Hours are listed in 24hr format central time.	Hours are listed in 24hr format central time.	97361615	1474449193969	1474449194049	m	77
189022	2048950	Hours are listed in 24hr format central time.	Hours are listed in 24hr format central time.	97361618	1474449194025	1474449194146	e	69
189022	2048950	Hours are listed in 24hr format central time.	Hours are listed in 24hr format central time.	97361619	1474449194529	1474449194609	BKSP	8
189022	2048950	Hours are listed in 24hr format central time.	Hours are listed in 24hr format central time.	97361620	1474449195514	1474449195634	.	190
189022	2048950	Hours are listed in 24hr format central time.	Hours are listed in 24hr format central time.	97361621	1474449196266	1474449196362	BKSP	8
189022	2048950	Hours are listed in 24hr format central time.	Hours are listed in 24hr format central time.	97361622	1474449196394	1474449196498	e	69
189022	2048950	Hours are listed in 24hr format central time.	Hours are listed in 24hr format central time.	97361617	1474449196457	1474449196553	.	190
189022	2048959	He left the Jets  win over Miami in the second half on October.	He left the Jets win over Miami in the second half on October.	97361676	1474449197610	1474449197698	CAPS_LOCK	20
189022	2048959	He left the Jets  win over Miami in the second half on October.	He left the Jets win over Miami in the second half on October.	97361678	1474449197738	1474449197834	H	72
189022	2048959	He left the Jets  win over Miami in the second half on October.	He left the Jets win over Miami in the second half on October.	97361681	1474449197882	1474449197994	CAPS_LOCK	20
189022	2048959	He left the Jets  win over Miami in the second half on October.	He left the Jets win over Miami in the second half on October.	97361685	1474449197994	1474449198099	e	69
189022	2048959	He left the Jets  win over Miami in the second half on October.	He left the Jets win over Miami in the second half on October.	97361689	1474449198082	1474449198146	 	32
189022	2048959	He left the Jets  win over Miami in the second half on October.	He left the Jets win over Miami in the second half on October.	97361693	1474449198194	1474449198274	l	76
189022	2048959	He left the Jets  win over Miami in the second half on October.	He left the Jets win over Miami in the second half on October.	97361679	1474449198250	1474449198329	e	69
189022	2048959	He left the Jets  win over Miami in the second half on October.	He left the Jets win over Miami in the second half on October.	97361682	1474449198314	1474449198362	f	70
189022	2048959	He left the Jets  win over Miami in the second half on October.	He left the Jets win over Miami in the second half on October.	97361687	1474449198434	1474449198506	t	84
189022	2048959	He left the Jets  win over Miami in the second half on October.	He left the Jets win over Miami in the second half on October.	97361691	1474449198507	1474449198554	 	32
189022	2048959	He left the Jets  win over Miami in the second half on October.	He left the Jets win over Miami in the second half on October.	97361695	1474449198602	1474449198682	t	84
189022	2048959	He left the Jets  win over Miami in the second half on October.	He left the Jets win over Miami in the second half on October.	97361704	1474449198658	1474449198722	h	72
189022	2048959	He left the Jets  win over Miami in the second half on October.	He left the Jets win over Miami in the second half on October.	97361706	1474449198761	1474449198834	e	69
189022	2048959	He left the Jets  win over Miami in the second half on October.	He left the Jets win over Miami in the second half on October.	97361708	1474449198818	1474449198881	 	32
189022	2048959	He left the Jets  win over Miami in the second half on October.	He left the Jets win over Miami in the second half on October.	97361710	1474449198882	1474449198977	CAPS_LOCK	20
189022	2048959	He left the Jets  win over Miami in the second half on October.	He left the Jets win over Miami in the second half on October.	97361712	1474449198961	1474449199050	J	74
189022	2048959	He left the Jets  win over Miami in the second half on October.	He left the Jets win over Miami in the second half on October.	97361714	1474449199082	1474449199097	e	20
189022	2048959	He left the Jets  win over Miami in the second half on October.	He left the Jets win over Miami in the second half on October.	97361715	1474449199193	1474449199306	t	84
189022	2048959	He left the Jets  win over Miami in the second half on October.	He left the Jets win over Miami in the second half on October.	97361716	1474449199265	1474449199362	s	83
189022	2048959	He left the Jets  win over Miami in the second half on October.	He left the Jets win over Miami in the second half on October.	97361717	1474449199410	1474449199482	 	32
189022	2048959	He left the Jets  win over Miami in the second half on October.	He left the Jets win over Miami in the second half on October.	97361718	1474449199483	1474449199554	w	87
189022	2048959	He left the Jets  win over Miami in the second half on October.	He left the Jets win over Miami in the second half on October.	97361719	1474449199555	1474449199650	i	73
189022	2048959	He left the Jets  win over Miami in the second half on October.	He left the Jets win over Miami in the second half on October.	97361735	1474449199609	1474449199665	n	78
189022	2048959	He left the Jets  win over Miami in the second half on October.	He left the Jets win over Miami in the second half on October.	97361738	1474449199754	1474449199834	 	32
189022	2048959	He left the Jets  win over Miami in the second half on October.	He left the Jets win over Miami in the second half on October.	97361742	1474449199930	1474449200010	o	79
189022	2048959	He left the Jets  win over Miami in the second half on October.	He left the Jets win over Miami in the second half on October.	97361745	1474449200011	1474449200066	v	86
189022	2048959	He left the Jets  win over Miami in the second half on October.	He left the Jets win over Miami in the second half on October.	97361748	1474449200105	1474449200218	e	69
189022	2048959	He left the Jets  win over Miami in the second half on October.	He left the Jets win over Miami in the second half on October.	97361756	1474449200170	1474449200257	r	82
189022	2048959	He left the Jets  win over Miami in the second half on October.	He left the Jets win over Miami in the second half on October.	97361757	1474449200222	1474449200306	 	32
189022	2048959	He left the Jets  win over Miami in the second half on October.	He left the Jets win over Miami in the second half on October.	97361760	1474449200307	1474449200377	CAPS_LOCK	20
189022	2048959	He left the Jets  win over Miami in the second half on October.	He left the Jets win over Miami in the second half on October.	97361763	1474449200409	1474449200506	M	77
189022	2048959	He left the Jets  win over Miami in the second half on October.	He left the Jets win over Miami in the second half on October.	97361766	1474449200507	1474449200610	CAPS_LOCK	20
189022	2048959	He left the Jets  win over Miami in the second half on October.	He left the Jets win over Miami in the second half on October.	97361768	1474449200649	1474449200738	i	73
189022	2048959	He left the Jets  win over Miami in the second half on October.	He left the Jets win over Miami in the second half on October.	97361770	1474449200739	1474449200834	a	65
189022	2048959	He left the Jets  win over Miami in the second half on October.	He left the Jets win over Miami in the second half on October.	97361772	1474449200834	1474449200906	m	77
189022	2048959	He left the Jets  win over Miami in the second half on October.	He left the Jets win over Miami in the second half on October.	97361780	1474449200999	1474449201074	i	73
189022	2048959	He left the Jets  win over Miami in the second half on October.	He left the Jets win over Miami in the second half on October.	97361784	1474449201154	1474449201234	 	32
189022	2048959	He left the Jets  win over Miami in the second half on October.	He left the Jets win over Miami in the second half on October.	97361787	1474449201289	1474449201377	i	73
189022	2048959	He left the Jets  win over Miami in the second half on October.	He left the Jets win over Miami in the second half on October.	97361790	1474449201346	1474449201409	n	78
189022	2048959	He left the Jets  win over Miami in the second half on October.	He left the Jets win over Miami in the second half on October.	97361793	1474449201466	1474449201522	 	32
189022	2048959	He left the Jets  win over Miami in the second half on October.	He left the Jets win over Miami in the second half on October.	97361794	1474449201554	1474449201634	t	84
189022	2048959	He left the Jets  win over Miami in the second half on October.	He left the Jets win over Miami in the second half on October.	97361795	1474449201610	1474449201682	h	72
189022	2048959	He left the Jets  win over Miami in the second half on October.	He left the Jets win over Miami in the second half on October.	97361797	1474449201705	1474449201771	e	69
189022	2048959	He left the Jets  win over Miami in the second half on October.	He left the Jets win over Miami in the second half on October.	97361800	1474449201773	1474449201858	 	32
189022	2048959	He left the Jets  win over Miami in the second half on October.	He left the Jets win over Miami in the second half on October.	97361803	1474449201859	1474449201922	s	83
189022	2048959	He left the Jets  win over Miami in the second half on October.	He left the Jets win over Miami in the second half on October.	97361816	1474449201882	1474449201970	e	69
189022	2048959	He left the Jets  win over Miami in the second half on October.	He left the Jets win over Miami in the second half on October.	97361818	1474449202041	1474449202122	c	67
189022	2048959	He left the Jets  win over Miami in the second half on October.	He left the Jets win over Miami in the second half on October.	97361821	1474449202123	1474449202218	o	79
189022	2048959	He left the Jets  win over Miami in the second half on October.	He left the Jets win over Miami in the second half on October.	97361825	1474449202178	1474449202258	n	78
189022	2048959	He left the Jets  win over Miami in the second half on October.	He left the Jets win over Miami in the second half on October.	97361828	1474449202259	1474449202338	d	68
189022	2048959	He left the Jets  win over Miami in the second half on October.	He left the Jets win over Miami in the second half on October.	97361831	1474449202393	1474449202449	 	32
189022	2048959	He left the Jets  win over Miami in the second half on October.	He left the Jets win over Miami in the second half on October.	97361843	1474449202674	1474449202754	h	72
189022	2048959	He left the Jets  win over Miami in the second half on October.	He left the Jets win over Miami in the second half on October.	97361845	1474449202778	1474449202875	a	65
189022	2048959	He left the Jets  win over Miami in the second half on October.	He left the Jets win over Miami in the second half on October.	97361847	1474449202876	1474449202946	l	76
189022	2048959	He left the Jets  win over Miami in the second half on October.	He left the Jets win over Miami in the second half on October.	97361848	1474449202947	1474449203026	f	70
189022	2048959	He left the Jets  win over Miami in the second half on October.	He left the Jets win over Miami in the second half on October.	97361874	1474449202986	1474449203065	 	32
189022	2048959	He left the Jets  win over Miami in the second half on October.	He left the Jets win over Miami in the second half on October.	97361879	1474449203090	1474449203187	o	79
189022	2048959	He left the Jets  win over Miami in the second half on October.	He left the Jets win over Miami in the second half on October.	97361883	1474449203162	1474449203242	n	78
189022	2048959	He left the Jets  win over Miami in the second half on October.	He left the Jets win over Miami in the second half on October.	97361886	1474449203289	1474449203394	 	32
189022	2048959	He left the Jets  win over Miami in the second half on October.	He left the Jets win over Miami in the second half on October.	97361888	1474449203570	1474449203666	CAPS_LOCK	20
189022	2048959	He left the Jets  win over Miami in the second half on October.	He left the Jets win over Miami in the second half on October.	97361891	1474449203721	1474449203794	O	79
189022	2048959	He left the Jets  win over Miami in the second half on October.	He left the Jets win over Miami in the second half on October.	97361893	1474449203842	1474449203897	CAPS_LOCK	20
189022	2048959	He left the Jets  win over Miami in the second half on October.	He left the Jets win over Miami in the second half on October.	97361895	1474449204050	1474449204194	c	67
189022	2048959	He left the Jets  win over Miami in the second half on October.	He left the Jets win over Miami in the second half on October.	97361901	1474449204322	1474449204386	t	84
189022	2048959	He left the Jets  win over Miami in the second half on October.	He left the Jets win over Miami in the second half on October.	97361902	1474449204387	1474449204466	o	79
189022	2048959	He left the Jets  win over Miami in the second half on October.	He left the Jets win over Miami in the second half on October.	97361903	1474449204489	1474449204562	b	66
189022	2048959	He left the Jets  win over Miami in the second half on October.	He left the Jets win over Miami in the second half on October.	97361904	1474449204650	1474449204746	e	69
189022	2048959	He left the Jets  win over Miami in the second half on October.	He left the Jets win over Miami in the second half on October.	97361911	1474449204706	1474449204802	r	82
189022	2048959	He left the Jets  win over Miami in the second half on October.	He left the Jets win over Miami in the second half on October.	97361913	1474449204850	1474449204947	.	190
189022	2048967	Houston time at the Hyatt Regency.	Houston time at the Hyatt Regency.	97361964	1474449206058	1474449206169	CAPS_LOCK	20
189022	2048967	Houston time at the Hyatt Regency.	Houston time at the Hyatt Regency.	97361967	1474449206258	1474449206362	H	72
189022	2048967	Houston time at the Hyatt Regency.	Houston time at the Hyatt Regency.	97361969	1474449206363	1474449206450	CAPS_LOCK	20
189022	2048967	Houston time at the Hyatt Regency.	Houston time at the Hyatt Regency.	97361971	1474449206426	1474449206570	o	79
189022	2048967	Houston time at the Hyatt Regency.	Houston time at the Hyatt Regency.	97361973	1474449206505	1474449206602	u	85
189022	2048967	Houston time at the Hyatt Regency.	Houston time at the Hyatt Regency.	97361974	1474449206603	1474449206698	s	83
189022	2048967	Houston time at the Hyatt Regency.	Houston time at the Hyatt Regency.	97361975	1474449206657	1474449206746	t	84
189022	2048967	Houston time at the Hyatt Regency.	Houston time at the Hyatt Regency.	97361976	1474449206747	1474449206834	o	79
189022	2048967	Houston time at the Hyatt Regency.	Houston time at the Hyatt Regency.	97361977	1474449206794	1474449206857	n	78
189022	2048967	Houston time at the Hyatt Regency.	Houston time at the Hyatt Regency.	97361979	1474449206938	1474449207026	 	32
189022	2048967	Houston time at the Hyatt Regency.	Houston time at the Hyatt Regency.	97361982	1474449207050	1474449207138	t	84
189022	2048967	Houston time at the Hyatt Regency.	Houston time at the Hyatt Regency.	97361985	1474449207106	1474449207193	i	73
189022	2048967	Houston time at the Hyatt Regency.	Houston time at the Hyatt Regency.	97361986	1474449207161	1474449207226	m	77
189022	2048967	Houston time at the Hyatt Regency.	Houston time at the Hyatt Regency.	97361989	1474449207227	1474449207314	e	69
189022	2048967	Houston time at the Hyatt Regency.	Houston time at the Hyatt Regency.	97361991	1474449207315	1474449207378	 	32
189022	2048967	Houston time at the Hyatt Regency.	Houston time at the Hyatt Regency.	97361993	1474449207379	1474449207466	a	65
189022	2048967	Houston time at the Hyatt Regency.	Houston time at the Hyatt Regency.	97361999	1474449207450	1474449207506	t	84
189022	2048967	Houston time at the Hyatt Regency.	Houston time at the Hyatt Regency.	97362002	1474449207489	1474449207554	 	32
189022	2048967	Houston time at the Hyatt Regency.	Houston time at the Hyatt Regency.	97362005	1474449207586	1474449207658	t	84
189022	2048967	Houston time at the Hyatt Regency.	Houston time at the Hyatt Regency.	97362007	1474449207659	1474449207714	h	72
189022	2048967	Houston time at the Hyatt Regency.	Houston time at the Hyatt Regency.	97362008	1474449207737	1474449207818	e	69
189022	2048967	Houston time at the Hyatt Regency.	Houston time at the Hyatt Regency.	97362030	1474449207802	1474449207881	 	32
189022	2048967	Houston time at the Hyatt Regency.	Houston time at the Hyatt Regency.	97362032	1474449207898	1474449207978	CAPS_LOCK	20
189022	2048967	Houston time at the Hyatt Regency.	Houston time at the Hyatt Regency.	97362033	1474449207979	1474449208042	H	72
189022	2048967	Houston time at the Hyatt Regency.	Houston time at the Hyatt Regency.	97362034	1474449208082	1474449208145	CAPS_LOCK	20
189022	2048967	Houston time at the Hyatt Regency.	Houston time at the Hyatt Regency.	97362035	1474449208177	1474449208266	y	89
189022	2048967	Houston time at the Hyatt Regency.	Houston time at the Hyatt Regency.	97362036	1474449208281	1474449208386	a	65
189022	2048967	Houston time at the Hyatt Regency.	Houston time at the Hyatt Regency.	97362037	1474449208354	1474449208417	t	84
189022	2048967	Houston time at the Hyatt Regency.	Houston time at the Hyatt Regency.	97362038	1474449208506	1474449208562	t	84
189022	2048967	Houston time at the Hyatt Regency.	Houston time at the Hyatt Regency.	97362047	1474449208618	1474449208698	 	32
189022	2048967	Houston time at the Hyatt Regency.	Houston time at the Hyatt Regency.	97362049	1474449208721	1474449208818	CAPS_LOCK	20
189022	2048967	Houston time at the Hyatt Regency.	Houston time at the Hyatt Regency.	97362052	1474449208818	1474449208953	R	82
189022	2048967	Houston time at the Hyatt Regency.	Houston time at the Hyatt Regency.	97362055	1474449208938	1474449209042	CAPS_LOCK	20
189022	2048967	Houston time at the Hyatt Regency.	Houston time at the Hyatt Regency.	97362058	1474449209081	1474449209194	e	69
189022	2048967	Houston time at the Hyatt Regency.	Houston time at the Hyatt Regency.	97362060	1474449209178	1474449209314	g	71
189022	2048967	Houston time at the Hyatt Regency.	Houston time at the Hyatt Regency.	97362072	1474449209290	1474449209370	e	69
189022	2048967	Houston time at the Hyatt Regency.	Houston time at the Hyatt Regency.	97362075	1474449209371	1474449209450	n	78
189022	2048967	Houston time at the Hyatt Regency.	Houston time at the Hyatt Regency.	97362080	1474449209465	1474449209522	c	67
189022	2048967	Houston time at the Hyatt Regency.	Houston time at the Hyatt Regency.	97362083	1474449209626	1474449209698	y	89
189022	2048967	Houston time at the Hyatt Regency.	Houston time at the Hyatt Regency.	97362086	1474449209698	1474449209802	.	190
189022	2048971	I think Tim wants to move quickly.	I think Tim wants to move quickly.	97362140	1474449210970	1474449211066	CAPS_LOCK	20
189022	2048971	I think Tim wants to move quickly.	I think Tim wants to move quickly.	97362143	1474449211067	1474449211154	I	73
189022	2048971	I think Tim wants to move quickly.	I think Tim wants to move quickly.	97362147	1474449211155	1474449211218	CAPS_LOCK	20
189022	2048971	I think Tim wants to move quickly.	I think Tim wants to move quickly.	97362153	1474449211219	1474449211291	 	32
189022	2048971	I think Tim wants to move quickly.	I think Tim wants to move quickly.	97362158	1474449211292	1474449211402	t	84
189022	2048971	I think Tim wants to move quickly.	I think Tim wants to move quickly.	97362163	1474449211378	1474449211482	h	72
189022	2048971	I think Tim wants to move quickly.	I think Tim wants to move quickly.	97362181	1474449211458	1474449211537	i	73
189022	2048971	I think Tim wants to move quickly.	I think Tim wants to move quickly.	97362182	1474449211585	1474449211698	n	78
189022	2048971	I think Tim wants to move quickly.	I think Tim wants to move quickly.	97362183	1474449211674	1474449211746	k	75
189022	2048971	I think Tim wants to move quickly.	I think Tim wants to move quickly.	97362184	1474449211801	1474449211881	 	32
189022	2048971	I think Tim wants to move quickly.	I think Tim wants to move quickly.	97362186	1474449211865	1474449211962	CAPS_LOCK	20
189022	2048971	I think Tim wants to move quickly.	I think Tim wants to move quickly.	97362190	1474449211963	1474449212050	T	84
189022	2048971	I think Tim wants to move quickly.	I think Tim wants to move quickly.	97362194	1474449212051	1474449212130	CAPS_LOCK	20
189022	2048971	I think Tim wants to move quickly.	I think Tim wants to move quickly.	97362199	1474449212131	1474449212210	i	73
189022	2048971	I think Tim wants to move quickly.	I think Tim wants to move quickly.	97362206	1474449212212	1474449212274	m	77
189022	2048971	I think Tim wants to move quickly.	I think Tim wants to move quickly.	97362208	1474449212354	1474449212442	 	32
189022	2048971	I think Tim wants to move quickly.	I think Tim wants to move quickly.	97362210	1474449212443	1474449212554	w	87
189022	2048971	I think Tim wants to move quickly.	I think Tim wants to move quickly.	97362212	1474449212490	1474449212610	a	65
189022	2048971	I think Tim wants to move quickly.	I think Tim wants to move quickly.	97362218	1474449212569	1474449212666	n	78
189022	2048971	I think Tim wants to move quickly.	I think Tim wants to move quickly.	97362220	1474449212667	1474449212770	t	84
189022	2048971	I think Tim wants to move quickly.	I think Tim wants to move quickly.	97362221	1474449212729	1474449212807	s	83
189022	2048971	I think Tim wants to move quickly.	I think Tim wants to move quickly.	97362222	1474449212770	1474449212842	 	32
189022	2048971	I think Tim wants to move quickly.	I think Tim wants to move quickly.	97362223	1474449212865	1474449212938	t	84
189022	2048971	I think Tim wants to move quickly.	I think Tim wants to move quickly.	97362226	1474449212906	1474449212970	o	79
189022	2048971	I think Tim wants to move quickly.	I think Tim wants to move quickly.	97362230	1474449212993	1474449213050	 	32
189022	2048971	I think Tim wants to move quickly.	I think Tim wants to move quickly.	97362235	1474449213154	1474449213251	m	77
189022	2048971	I think Tim wants to move quickly.	I think Tim wants to move quickly.	97362240	1474449213226	1474449213314	o	79
189022	2048971	I think Tim wants to move quickly.	I think Tim wants to move quickly.	97362245	1474449213265	1474449213345	v	86
189022	2048971	I think Tim wants to move quickly.	I think Tim wants to move quickly.	97362260	1474449213329	1474449213417	e	69
189022	2048971	I think Tim wants to move quickly.	I think Tim wants to move quickly.	97362263	1474449213393	1474449213457	 	32
189022	2048971	I think Tim wants to move quickly.	I think Tim wants to move quickly.	97362265	1474449213481	1474449213578	q	81
189022	2048971	I think Tim wants to move quickly.	I think Tim wants to move quickly.	97362266	1474449213594	1474449213699	u	85
189022	2048971	I think Tim wants to move quickly.	I think Tim wants to move quickly.	97362267	1474449213650	1474449213730	i	73
189022	2048971	I think Tim wants to move quickly.	I think Tim wants to move quickly.	97362269	1474449213730	1474449213803	c	67
189022	2048971	I think Tim wants to move quickly.	I think Tim wants to move quickly.	97362276	1474449213806	1474449213890	k	75
189022	2048971	I think Tim wants to move quickly.	I think Tim wants to move quickly.	97362277	1474449213866	1474449213946	l	76
189022	2048971	I think Tim wants to move quickly.	I think Tim wants to move quickly.	97362278	1474449213947	1474449214050	y	89
189022	2048971	I think Tim wants to move quickly.	I think Tim wants to move quickly.	97362279	1474449214050	1474449214138	.	190
189022	2048974	Michael was great this AM.	Michael was great this AM	97362326	1474449215026	1474449215122	CAPS_LOCK	20
189022	2048974	Michael was great this AM.	Michael was great this AM	97362327	1474449215234	1474449215323	M	77
189022	2048974	Michael was great this AM.	Michael was great this AM	97362328	1474449215323	1474449215434	CAPS_LOCK	20
189022	2048974	Michael was great this AM.	Michael was great this AM	97362330	1474449215410	1474449215481	i	73
189022	2048974	Michael was great this AM.	Michael was great this AM	97362334	1474449215521	1474449215594	c	67
189022	2048974	Michael was great this AM.	Michael was great this AM	97362339	1474449215554	1474449215633	h	72
189022	2048974	Michael was great this AM.	Michael was great this AM	97362343	1474449215682	1474449215818	a	65
189022	2048974	Michael was great this AM.	Michael was great this AM	97362366	1474449215890	1474449215987	e	69
189022	2048974	Michael was great this AM.	Michael was great this AM	97362368	1474449216018	1474449216090	l	76
189022	2048974	Michael was great this AM.	Michael was great this AM	97362372	1474449216162	1474449216257	 	32
189022	2048974	Michael was great this AM.	Michael was great this AM	97362374	1474449216273	1474449216338	w	87
189022	2048974	Michael was great this AM.	Michael was great this AM	97362376	1474449216339	1474449216457	a	65
189022	2048974	Michael was great this AM.	Michael was great this AM	97362383	1474449216426	1474449216530	s	83
189022	2048974	Michael was great this AM.	Michael was great this AM	97362384	1474449216489	1474449216586	 	32
189022	2048974	Michael was great this AM.	Michael was great this AM	97362385	1474449216586	1474449216642	g	71
189022	2048974	Michael was great this AM.	Michael was great this AM	97362386	1474449216746	1474449216867	r	82
189022	2048974	Michael was great this AM.	Michael was great this AM	97362387	1474449216802	1474449216930	e	69
189022	2048974	Michael was great this AM.	Michael was great this AM	97362392	1474449216868	1474449216994	a	65
189022	2048974	Michael was great this AM.	Michael was great this AM	97362394	1474449216963	1474449217026	 	84
189022	2048974	Michael was great this AM.	Michael was great this AM	97362397	1474449217113	1474449217194	t	84
189022	2048974	Michael was great this AM.	Michael was great this AM	97362400	1474449217146	1474449217266	h	72
189022	2048974	Michael was great this AM.	Michael was great this AM	97362416	1474449217233	1474449217338	i	73
189022	2048974	Michael was great this AM.	Michael was great this AM	97362418	1474449217339	1474449217411	s	83
189022	2048974	Michael was great this AM.	Michael was great this AM	97362420	1474449217412	1474449217498	 	32
189022	2048974	Michael was great this AM.	Michael was great this AM	97362421	1474449217499	1474449217570	CAPS_LOCK	20
189022	2048974	Michael was great this AM.	Michael was great this AM	97362422	1474449217545	1474449217635	A	65
189022	2048974	Michael was great this AM.	Michael was great this AM	97362423	1474449217636	1474449217730	M	77
189022	2048977	We will be dining fashionably late.	We will be dining fashionably late.	97362454	1474449218610	1474449218737	CAPS_LOCK	20
189022	2048977	We will be dining fashionably late.	We will be dining fashionably late.	97362455	1474449218962	1474449219058	CAPS_LOCK	20
189022	2048977	We will be dining fashionably late.	We will be dining fashionably late.	97362456	1474449219059	1474449219130	W	87
189022	2048977	We will be dining fashionably late.	We will be dining fashionably late.	97362457	1474449219234	1474449219354	CAPS_LOCK	20
189022	2048977	We will be dining fashionably late.	We will be dining fashionably late.	97362459	1474449219355	1474449219442	e	69
189022	2048977	We will be dining fashionably late.	We will be dining fashionably late.	97362462	1474449219410	1474449219481	 	32
189022	2048977	We will be dining fashionably late.	We will be dining fashionably late.	97362465	1474449219529	1474449219596	w	87
189022	2048977	We will be dining fashionably late.	We will be dining fashionably late.	97362468	1474449219596	1474449219626	i	73
189022	2048977	We will be dining fashionably late.	We will be dining fashionably late.	97362474	1474449219754	1474449219834	l	76
189022	2048977	We will be dining fashionably late.	We will be dining fashionably late.	97362475	1474449219930	1474449220018	l	76
189022	2048977	We will be dining fashionably late.	We will be dining fashionably late.	97362477	1474449220049	1474449220122	 	32
189022	2048977	We will be dining fashionably late.	We will be dining fashionably late.	97362480	1474449220122	1474449220186	b	66
189022	2048977	We will be dining fashionably late.	We will be dining fashionably late.	97362484	1474449220186	1474449220258	e	69
189022	2048977	We will be dining fashionably late.	We will be dining fashionably late.	97362496	1474449220290	1474449220370	 	32
189022	2048977	We will be dining fashionably late.	We will be dining fashionably late.	97362501	1474449220371	1474449220450	d	68
189022	2048977	We will be dining fashionably late.	We will be dining fashionably late.	97362504	1474449220418	1474449220498	i	73
189022	2048977	We will be dining fashionably late.	We will be dining fashionably late.	97362509	1474449220499	1474449220546	n	78
189022	2048977	We will be dining fashionably late.	We will be dining fashionably late.	97362513	1474449220569	1474449220673	i	73
189022	2048977	We will be dining fashionably late.	We will be dining fashionably late.	97362518	1474449220633	1474449220721	n	78
189022	2048977	We will be dining fashionably late.	We will be dining fashionably late.	97362520	1474449220705	1474449220769	g	71
189022	2048977	We will be dining fashionably late.	We will be dining fashionably late.	97362522	1474449220785	1474449220890	 	32
189022	2048977	We will be dining fashionably late.	We will be dining fashionably late.	97362524	1474449220891	1474449220978	f	70
189022	2048977	We will be dining fashionably late.	We will be dining fashionably late.	97362526	1474449220954	1474449221082	a	65
189022	2048977	We will be dining fashionably late.	We will be dining fashionably late.	97362561	1474449221058	1474449221194	s	83
189022	2048977	We will be dining fashionably late.	We will be dining fashionably late.	97362565	1474449221162	1474449221267	h	72
189022	2048977	We will be dining fashionably late.	We will be dining fashionably late.	97362568	1474449221250	1474449221362	i	73
189022	2048977	We will be dining fashionably late.	We will be dining fashionably late.	97362571	1474449221498	1474449221578	BKSP	8
189022	2048977	We will be dining fashionably late.	We will be dining fashionably late.	97362574	1474449221986	1474449222058	i	73
189022	2048977	We will be dining fashionably late.	We will be dining fashionably late.	97362577	1474449222146	1474449222258	o	79
189022	2048977	We will be dining fashionably late.	We will be dining fashionably late.	97362579	1474449222218	1474449222314	n	78
189022	2048977	We will be dining fashionably late.	We will be dining fashionably late.	97362580	1474449222315	1474449222418	a	65
189022	2048977	We will be dining fashionably late.	We will be dining fashionably late.	97362581	1474449222419	1474449222498	b	66
189022	2048977	We will be dining fashionably late.	We will be dining fashionably late.	97362582	1474449222499	1474449222570	l	76
189022	2048977	We will be dining fashionably late.	We will be dining fashionably late.	97362583	1474449222609	1474449222705	y	89
189022	2048977	We will be dining fashionably late.	We will be dining fashionably late.	97362602	1474449222689	1474449222754	 	32
189022	2048977	We will be dining fashionably late.	We will be dining fashionably late.	97362606	1474449222834	1474449222906	l	76
189022	2048977	We will be dining fashionably late.	We will be dining fashionably late.	97362612	1474449222882	1474449222995	a	65
189022	2048977	We will be dining fashionably late.	We will be dining fashionably late.	97362613	1474449222937	1474449223050	t	84
189022	2048977	We will be dining fashionably late.	We will be dining fashionably late.	97362617	1474449222995	1474449223113	e	69
189022	2048977	We will be dining fashionably late.	We will be dining fashionably late.	97362611	1474449223051	1474449223154	.	190
189022	2048980	Your voice cheered me up.	Your voice cheered me up.	97362647	1474449223963	1474449224057	CAPS_LOCK	20
189022	2048980	Your voice cheered me up.	Your voice cheered me up.	97362649	1474449224241	1474449224362	Y	89
189022	2048980	Your voice cheered me up.	Your voice cheered me up.	97362653	1474449224410	1474449224498	CAPS_LOCK	20
189022	2048980	Your voice cheered me up.	Your voice cheered me up.	97362656	1474449224457	1474449224570	o	79
189022	2048980	Your voice cheered me up.	Your voice cheered me up.	97362658	1474449224521	1474449224578	u	85
189022	2048980	Your voice cheered me up.	Your voice cheered me up.	97362659	1474449224579	1474449224658	r	82
189022	2048980	Your voice cheered me up.	Your voice cheered me up.	97362660	1474449224697	1474449224770	 	32
189022	2048980	Your voice cheered me up.	Your voice cheered me up.	97362661	1474449224774	1474449224850	v	86
189022	2048980	Your voice cheered me up.	Your voice cheered me up.	97362663	1474449224881	1474449224971	o	79
189022	2048980	Your voice cheered me up.	Your voice cheered me up.	97362666	1474449224930	1474449225002	i	73
189022	2048980	Your voice cheered me up.	Your voice cheered me up.	97362668	1474449224971	1474449225050	c	67
189022	2048980	Your voice cheered me up.	Your voice cheered me up.	97362683	1474449225025	1474449225114	e	69
189022	2048980	Your voice cheered me up.	Your voice cheered me up.	97362686	1474449225115	1474449225178	 	32
189022	2048980	Your voice cheered me up.	Your voice cheered me up.	97362691	1474449225202	1474449225282	c	67
189022	2048980	Your voice cheered me up.	Your voice cheered me up.	97362695	1474449225283	1474449225354	h	72
189022	2048980	Your voice cheered me up.	Your voice cheered me up.	97362699	1474449225355	1474449225410	e	69
189022	2048980	Your voice cheered me up.	Your voice cheered me up.	97362704	1474449225514	1474449225562	e	69
189022	2048980	Your voice cheered me up.	Your voice cheered me up.	97362707	1474449225565	1474449225666	r	82
189022	2048980	Your voice cheered me up.	Your voice cheered me up.	97362709	1474449225667	1474449225722	e	69
189022	2048980	Your voice cheered me up.	Your voice cheered me up.	97362710	1474449225778	1474449225858	d	68
189022	2048980	Your voice cheered me up.	Your voice cheered me up.	97362712	1474449225818	1474449225881	 	32
189022	2048980	Your voice cheered me up.	Your voice cheered me up.	97362714	1474449225962	1474449226034	m	77
189022	2048980	Your voice cheered me up.	Your voice cheered me up.	97362715	1474449226038	1474449226082	e	69
189022	2048980	Your voice cheered me up.	Your voice cheered me up.	97362716	1474449226129	1474449226193	 	32
189022	2048980	Your voice cheered me up.	Your voice cheered me up.	97362717	1474449226178	1474449226298	u	85
189022	2048980	Your voice cheered me up.	Your voice cheered me up.	97362718	1474449226274	1474449226377	p	80
189022	2048980	Your voice cheered me up.	Your voice cheered me up.	97362720	1474449226393	1474449226498	.	190
189022	2048986	He said he would resist all the pressure of time deadlines.	He said he would resist all the pressure of time deadlines.	97362762	1474449227346	1474449227433	CAPS_LOCK	20
189022	2048986	He said he would resist all the pressure of time deadlines.	He said he would resist all the pressure of time deadlines.	97362764	1474449227546	1474449227641	H	72
189022	2048986	He said he would resist all the pressure of time deadlines.	He said he would resist all the pressure of time deadlines.	97362765	1474449227625	1474449227738	CAPS_LOCK	20
189022	2048986	He said he would resist all the pressure of time deadlines.	He said he would resist all the pressure of time deadlines.	97362766	1474449227739	1474449227810	e	69
189022	2048986	He said he would resist all the pressure of time deadlines.	He said he would resist all the pressure of time deadlines.	97362767	1474449227786	1474449227882	 	32
189022	2048986	He said he would resist all the pressure of time deadlines.	He said he would resist all the pressure of time deadlines.	97362768	1474449227938	1474449228074	s	83
189022	2048986	He said he would resist all the pressure of time deadlines.	He said he would resist all the pressure of time deadlines.	97362771	1474449228034	1474449228122	a	65
189022	2048986	He said he would resist all the pressure of time deadlines.	He said he would resist all the pressure of time deadlines.	97362773	1474449228078	1474449228162	i	73
189022	2048986	He said he would resist all the pressure of time deadlines.	He said he would resist all the pressure of time deadlines.	97362775	1474449228163	1474449228250	d	68
189022	2048986	He said he would resist all the pressure of time deadlines.	He said he would resist all the pressure of time deadlines.	97362777	1474449228210	1474449228273	 	32
189022	2048986	He said he would resist all the pressure of time deadlines.	He said he would resist all the pressure of time deadlines.	97362780	1474449228354	1474449228418	h	72
189022	2048986	He said he would resist all the pressure of time deadlines.	He said he would resist all the pressure of time deadlines.	97362784	1474449228394	1474449228466	e	69
189022	2048986	He said he would resist all the pressure of time deadlines.	He said he would resist all the pressure of time deadlines.	97362785	1474449228506	1474449228562	 	32
189022	2048986	He said he would resist all the pressure of time deadlines.	He said he would resist all the pressure of time deadlines.	97362786	1474449228538	1474449228617	w	87
189022	2048986	He said he would resist all the pressure of time deadlines.	He said he would resist all the pressure of time deadlines.	97362787	1474449228657	1474449228738	o	79
189022	2048986	He said he would resist all the pressure of time deadlines.	He said he would resist all the pressure of time deadlines.	97362789	1474449228706	1474449228761	u	85
189022	2048986	He said he would resist all the pressure of time deadlines.	He said he would resist all the pressure of time deadlines.	97362791	1474449228890	1474449228970	l	76
189022	2048986	He said he would resist all the pressure of time deadlines.	He said he would resist all the pressure of time deadlines.	97362797	1474449228985	1474449229042	d	68
189022	2048986	He said he would resist all the pressure of time deadlines.	He said he would resist all the pressure of time deadlines.	97362799	1474449229057	1474449229146	 	32
189022	2048986	He said he would resist all the pressure of time deadlines.	He said he would resist all the pressure of time deadlines.	97362802	1474449229146	1474449229282	r	82
189022	2048986	He said he would resist all the pressure of time deadlines.	He said he would resist all the pressure of time deadlines.	97362805	1474449229226	1474449229338	e	69
189022	2048986	He said he would resist all the pressure of time deadlines.	He said he would resist all the pressure of time deadlines.	97362813	1474449229283	1474449229378	s	83
189022	2048986	He said he would resist all the pressure of time deadlines.	He said he would resist all the pressure of time deadlines.	97362814	1474449229417	1474449229490	i	73
189022	2048986	He said he would resist all the pressure of time deadlines.	He said he would resist all the pressure of time deadlines.	97362815	1474449229491	1474449229570	s	83
189022	2048986	He said he would resist all the pressure of time deadlines.	He said he would resist all the pressure of time deadlines.	97362816	1474449229571	1474449229650	t	84
189022	2048986	He said he would resist all the pressure of time deadlines.	He said he would resist all the pressure of time deadlines.	97362818	1474449229617	1474449229690	 	32
189022	2048986	He said he would resist all the pressure of time deadlines.	He said he would resist all the pressure of time deadlines.	97362822	1474449229690	1474449229762	a	65
189022	2048986	He said he would resist all the pressure of time deadlines.	He said he would resist all the pressure of time deadlines.	97362840	1474449229794	1474449229834	l	76
189022	2048986	He said he would resist all the pressure of time deadlines.	He said he would resist all the pressure of time deadlines.	97362842	1474449229906	1474449229978	l	76
189022	2048986	He said he would resist all the pressure of time deadlines.	He said he would resist all the pressure of time deadlines.	97362846	1474449230129	1474449230226	 	32
189022	2048986	He said he would resist all the pressure of time deadlines.	He said he would resist all the pressure of time deadlines.	97362851	1474449230227	1474449230322	t	84
189022	2048986	He said he would resist all the pressure of time deadlines.	He said he would resist all the pressure of time deadlines.	97362859	1474449230282	1474449230346	h	72
189022	2048986	He said he would resist all the pressure of time deadlines.	He said he would resist all the pressure of time deadlines.	97362860	1474449230401	1474449230490	e	69
189022	2048986	He said he would resist all the pressure of time deadlines.	He said he would resist all the pressure of time deadlines.	97362861	1474449230450	1474449230506	 	32
189022	2048986	He said he would resist all the pressure of time deadlines.	He said he would resist all the pressure of time deadlines.	97362863	1474449230602	1474449230682	p	80
189022	2048986	He said he would resist all the pressure of time deadlines.	He said he would resist all the pressure of time deadlines.	97362866	1474449230666	1474449230778	r	82
189022	2048986	He said he would resist all the pressure of time deadlines.	He said he would resist all the pressure of time deadlines.	97362867	1474449230721	1474449230818	e	69
189022	2048986	He said he would resist all the pressure of time deadlines.	He said he would resist all the pressure of time deadlines.	97362871	1474449230782	1474449230849	s	83
189022	2048986	He said he would resist all the pressure of time deadlines.	He said he would resist all the pressure of time deadlines.	97362876	1474449230914	1474449230993	s	83
189022	2048986	He said he would resist all the pressure of time deadlines.	He said he would resist all the pressure of time deadlines.	97362881	1474449230962	1474449231042	u	85
189022	2048986	He said he would resist all the pressure of time deadlines.	He said he would resist all the pressure of time deadlines.	97362887	1474449231081	1474449231194	r	82
189022	2048986	He said he would resist all the pressure of time deadlines.	He said he would resist all the pressure of time deadlines.	97362893	1474449231154	1474449231234	e	69
189022	2048986	He said he would resist all the pressure of time deadlines.	He said he would resist all the pressure of time deadlines.	97362895	1474449231402	1474449231474	 	32
189022	2048986	He said he would resist all the pressure of time deadlines.	He said he would resist all the pressure of time deadlines.	97362897	1474449231513	1474449231594	o	79
189022	2048986	He said he would resist all the pressure of time deadlines.	He said he would resist all the pressure of time deadlines.	97362899	1474449231595	1474449231650	f	70
189022	2048986	He said he would resist all the pressure of time deadlines.	He said he would resist all the pressure of time deadlines.	97362902	1474449231681	1474449231738	 	32
189022	2048986	He said he would resist all the pressure of time deadlines.	He said he would resist all the pressure of time deadlines.	97362907	1474449231769	1474449231859	t	84
189022	2048986	He said he would resist all the pressure of time deadlines.	He said he would resist all the pressure of time deadlines.	97362909	1474449231862	1474449231946	i	73
189022	2048986	He said he would resist all the pressure of time deadlines.	He said he would resist all the pressure of time deadlines.	97362912	1474449231906	1474449231978	m	77
189022	2048986	He said he would resist all the pressure of time deadlines.	He said he would resist all the pressure of time deadlines.	97362915	1474449231979	1474449232042	e	69
189022	2048986	He said he would resist all the pressure of time deadlines.	He said he would resist all the pressure of time deadlines.	97362917	1474449232043	1474449232146	 	32
189022	2048986	He said he would resist all the pressure of time deadlines.	He said he would resist all the pressure of time deadlines.	97362918	1474449232147	1474449232250	d	68
189022	2048986	He said he would resist all the pressure of time deadlines.	He said he would resist all the pressure of time deadlines.	97362924	1474449232210	1474449232314	e	69
189022	2048986	He said he would resist all the pressure of time deadlines.	He said he would resist all the pressure of time deadlines.	97362927	1474449232289	1474449232377	a	65
189022	2048986	He said he would resist all the pressure of time deadlines.	He said he would resist all the pressure of time deadlines.	97362929	1474449232409	1474449232498	d	68
189022	2048986	He said he would resist all the pressure of time deadlines.	He said he would resist all the pressure of time deadlines.	97362932	1474449232499	1474449232546	l	76
189022	2048986	He said he would resist all the pressure of time deadlines.	He said he would resist all the pressure of time deadlines.	97362936	1474449232634	1474449232730	i	73
189022	2048986	He said he would resist all the pressure of time deadlines.	He said he would resist all the pressure of time deadlines.	97362935	1474449232698	1474449232770	n	78
189022	2048986	He said he would resist all the pressure of time deadlines.	He said he would resist all the pressure of time deadlines.	97362940	1474449232771	1474449232865	e	69
189022	2048986	He said he would resist all the pressure of time deadlines.	He said he would resist all the pressure of time deadlines.	97362943	1474449232810	1474449232922	s	83
189022	2048989	Between 0 and 4 are allowed.	Between 0 and 4 are allowed.	97362967	1474449233714	1474449233842	CAPS_LOCK	20
189022	2048989	Between 0 and 4 are allowed.	Between 0 and 4 are allowed.	97362968	1474449234162	1474449234250	B	66
189022	2048989	Between 0 and 4 are allowed.	Between 0 and 4 are allowed.	97362969	1474449234251	1474449234354	CAPS_LOCK	20
189022	2048989	Between 0 and 4 are allowed.	Between 0 and 4 are allowed.	97362970	1474449234355	1474449234475	e	69
189022	2048989	Between 0 and 4 are allowed.	Between 0 and 4 are allowed.	97362971	1474449234442	1474449234546	t	84
189022	2048989	Between 0 and 4 are allowed.	Between 0 and 4 are allowed.	97362973	1474449234658	1474449234762	w	87
189022	2048989	Between 0 and 4 are allowed.	Between 0 and 4 are allowed.	97362986	1474449234714	1474449234803	e	69
189022	2048989	Between 0 and 4 are allowed.	Between 0 and 4 are allowed.	97362988	1474449234874	1474449234970	e	69
189022	2048989	Between 0 and 4 are allowed.	Between 0 and 4 are allowed.	97362990	1474449235001	1474449235065	n	78
189022	2048989	Between 0 and 4 are allowed.	Between 0 and 4 are allowed.	97362992	1474449235138	1474449235194	 	32
189022	2048989	Between 0 and 4 are allowed.	Between 0 and 4 are allowed.	97362994	1474449235266	1474449235338	0	48
189022	2048989	Between 0 and 4 are allowed.	Between 0 and 4 are allowed.	97362996	1474449235434	1474449235513	 	32
189022	2048989	Between 0 and 4 are allowed.	Between 0 and 4 are allowed.	97362998	1474449235586	1474449235690	a	65
189022	2048989	Between 0 and 4 are allowed.	Between 0 and 4 are allowed.	97362999	1474449235705	1474449235778	n	78
189022	2048989	Between 0 and 4 are allowed.	Between 0 and 4 are allowed.	97363000	1474449235779	1474449235850	d	68
189022	2048989	Between 0 and 4 are allowed.	Between 0 and 4 are allowed.	97363001	1474449235881	1474449235962	 	32
189022	2048989	Between 0 and 4 are allowed.	Between 0 and 4 are allowed.	97363002	1474449235977	1474449236082	4	52
189022	2048989	Between 0 and 4 are allowed.	Between 0 and 4 are allowed.	97363003	1474449236086	1474449236170	 	32
189022	2048989	Between 0 and 4 are allowed.	Between 0 and 4 are allowed.	97363004	1474449236225	1474449236314	a	65
189022	2048989	Between 0 and 4 are allowed.	Between 0 and 4 are allowed.	97363008	1474449236315	1474449236418	r	82
189022	2048989	Between 0 and 4 are allowed.	Between 0 and 4 are allowed.	97363011	1474449236370	1474449236466	e	69
189022	2048989	Between 0 and 4 are allowed.	Between 0 and 4 are allowed.	97363021	1474449236433	1474449236498	 	32
189022	2048989	Between 0 and 4 are allowed.	Between 0 and 4 are allowed.	97363023	1474449236529	1474449236634	a	65
189022	2048989	Between 0 and 4 are allowed.	Between 0 and 4 are allowed.	97363025	1474449236635	1474449236690	l	76
189022	2048989	Between 0 and 4 are allowed.	Between 0 and 4 are allowed.	97363027	1474449236769	1474449236874	l	76
189022	2048989	Between 0 and 4 are allowed.	Between 0 and 4 are allowed.	97363031	1474449236834	1474449236938	o	79
189022	2048989	Between 0 and 4 are allowed.	Between 0 and 4 are allowed.	97363032	1474449236913	1474449236986	w	87
189022	2048989	Between 0 and 4 are allowed.	Between 0 and 4 are allowed.	97363034	1474449236940	1474449237058	e	69
189022	2048989	Between 0 and 4 are allowed.	Between 0 and 4 are allowed.	97363036	1474449237002	1474449237098	d	68
189022	2048992	I've never worked with her.	I've never worked with her.	97363062	1474449237994	1474449238081	CAPS_LOCK	20
189022	2048992	I've never worked with her.	I've never worked with her.	97363063	1474449238274	1474449238361	I	73
189022	2048992	I've never worked with her.	I've never worked with her.	97363064	1474449238401	1474449238489	CAPS_LOCK	20
189022	2048992	I've never worked with her.	I've never worked with her.	97363065	1474449238513	1474449238594	'	192
189022	2048992	I've never worked with her.	I've never worked with her.	97363066	1474449238617	1474449238706	v	86
189022	2048992	I've never worked with her.	I've never worked with her.	97363067	1474449238674	1474449238762	e	69
189022	2048992	I've never worked with her.	I've never worked with her.	97363077	1474449238737	1474449238793	 	32
189022	2048992	I've never worked with her.	I've never worked with her.	97363079	1474449238873	1474449238971	e	78
189022	2048992	I've never worked with her.	I've never worked with her.	97363081	1474449238973	1474449239010	v	86
189022	2048992	I've never worked with her.	I've never worked with her.	97363083	1474449239074	1474449239202	e	69
189022	2048992	I've never worked with her.	I've never worked with her.	97363089	1474449239138	1474449239206	r	82
189022	2048992	I've never worked with her.	I've never worked with her.	97363090	1474449239170	1474449239257	 	32
189022	2048992	I've never worked with her.	I've never worked with her.	97363091	1474449239313	1474449239394	w	87
189022	2048992	I've never worked with her.	I've never worked with her.	97363092	1474449239370	1474449239441	o	79
189022	2048992	I've never worked with her.	I've never worked with her.	97363093	1474449239666	1474449239730	k	75
189022	2048992	I've never worked with her.	I've never worked with her.	97363094	1474449239761	1474449239882	e	69
189022	2048992	I've never worked with her.	I've never worked with her.	97363111	1474449239842	1474449239955	d	68
189022	2048992	I've never worked with her.	I've never worked with her.	97363112	1474449239956	1474449240034	 	32
189022	2048992	I've never worked with her.	I've never worked with her.	97363113	1474449240321	1474449240378	BKSP	8
189022	2048992	I've never worked with her.	I've never worked with her.	97363114	1474449240458	1474449240538	BKSP	8
189022	2048992	I've never worked with her.	I've never worked with her.	97363116	1474449240610	1474449240682	BKSP	8
189022	2048992	I've never worked with her.	I've never worked with her.	97363118	1474449240754	1474449240858	BKSP	8
189022	2048992	I've never worked with her.	I've never worked with her.	97363120	1474449240889	1474449240994	r	82
189022	2048992	I've never worked with her.	I've never worked with her.	97363122	1474449240995	1474449241058	k	75
189022	2048992	I've never worked with her.	I've never worked with her.	97363125	1474449241059	1474449241162	e	69
189022	2048992	I've never worked with her.	I've never worked with her.	97363126	1474449241114	1474449241210	d	68
189022	2048992	I've never worked with her.	I've never worked with her.	97363130	1474449241164	1474449241242	 	32
189022	2048992	I've never worked with her.	I've never worked with her.	97363132	1474449241243	1474449241322	w	87
189022	2048992	I've never worked with her.	I've never worked with her.	97363134	1474449241323	1474449241386	i	73
189022	2048992	I've never worked with her.	I've never worked with her.	97363135	1474449241387	1474449241476	t	84
189022	2048992	I've never worked with her.	I've never worked with her.	97363136	1474449241476	1474449241530	h	72
189022	2048992	I've never worked with her.	I've never worked with her.	97363137	1474449241531	1474449241626	 	32
189022	2048992	I've never worked with her.	I've never worked with her.	97363139	1474449241626	1474449241706	h	72
189022	2048992	I've never worked with her.	I've never worked with her.	97363142	1474449241753	1474449241882	e	69
189022	2048992	I've never worked with her.	I've never worked with her.	97363145	1474449241826	1474449241961	r	82
189022	2048996	I haven't really done any studying for it.	I haven't really done any studying for it,.	97363178	1474449243242	1474449243339	CAPS_LOCK	20
189022	2048996	I haven't really done any studying for it.	I haven't really done any studying for it,.	97363180	1474449243340	1474449243394	I	73
189022	2048996	I haven't really done any studying for it.	I haven't really done any studying for it,.	97363182	1474449243417	1474449243505	CAPS_LOCK	20
189022	2048996	I haven't really done any studying for it.	I haven't really done any studying for it,.	97363184	1474449243449	1474449243521	 	32
189022	2048996	I haven't really done any studying for it.	I haven't really done any studying for it,.	97363186	1474449243617	1474449243705	h	72
189022	2048996	I haven't really done any studying for it.	I haven't really done any studying for it,.	97363207	1474449243682	1474449243754	s	65
189022	2048996	I haven't really done any studying for it.	I haven't really done any studying for it,.	97363209	1474449243756	1474449243874	v	86
189022	2048996	I haven't really done any studying for it.	I haven't really done any studying for it,.	97363211	1474449244089	1474449244162	BKSP	8
189022	2048996	I haven't really done any studying for it.	I haven't really done any studying for it,.	97363213	1474449244225	1474449244290	BKSP	8
189022	2048996	I haven't really done any studying for it.	I haven't really done any studying for it,.	97363215	1474449244442	1474449244547	v	86
189022	2048996	I haven't really done any studying for it.	I haven't really done any studying for it,.	97363217	1474449244482	1474449244618	e	69
189022	2048996	I haven't really done any studying for it.	I haven't really done any studying for it,.	97363219	1474449244548	1474449244619	n	78
189022	2048996	I haven't really done any studying for it.	I haven't really done any studying for it,.	97363222	1474449244737	1474449244858	'	192
189022	2048996	I haven't really done any studying for it.	I haven't really done any studying for it,.	97363216	1474449244862	1474449244922	t	84
189022	2048996	I haven't really done any studying for it.	I haven't really done any studying for it,.	97363218	1474449244977	1474449245042	 	32
189022	2048996	I haven't really done any studying for it.	I haven't really done any studying for it,.	97363221	1474449245043	1474449245145	r	82
189022	2048996	I haven't really done any studying for it.	I haven't really done any studying for it,.	97363241	1474449245074	1474449245194	e	69
189022	2048996	I haven't really done any studying for it.	I haven't really done any studying for it,.	97363244	1474449245122	1474449245258	a	65
189022	2048996	I haven't really done any studying for it.	I haven't really done any studying for it,.	97363248	1474449245195	1474449245259	l	76
189022	2048996	I haven't really done any studying for it.	I haven't really done any studying for it,.	97363253	1474449245337	1474449245419	l	76
189022	2048996	I haven't really done any studying for it.	I haven't really done any studying for it,.	97363255	1474449245419	1474449245506	y	89
189022	2048996	I haven't really done any studying for it.	I haven't really done any studying for it,.	97363257	1474449245507	1474449245570	 	32
189022	2048996	I haven't really done any studying for it.	I haven't really done any studying for it,.	97363258	1474449245609	1474449245689	d	68
189022	2048996	I haven't really done any studying for it.	I haven't really done any studying for it,.	97363259	1474449245673	1474449245762	o	79
189022	2048996	I haven't really done any studying for it.	I haven't really done any studying for it,.	97363260	1474449245721	1474449245777	n	78
189022	2048996	I haven't really done any studying for it.	I haven't really done any studying for it,.	97363261	1474449245809	1474449245881	e	69
189022	2048996	I haven't really done any studying for it.	I haven't really done any studying for it,.	97363262	1474449245866	1474449245922	 	32
189022	2048996	I haven't really done any studying for it.	I haven't really done any studying for it,.	97363263	1474449245969	1474449246074	a	65
189022	2048996	I haven't really done any studying for it.	I haven't really done any studying for it,.	97363293	1474449246026	1474449246125	n	78
189022	2048996	I haven't really done any studying for it.	I haven't really done any studying for it,.	97363294	1474449246106	1474449246178	y	89
189022	2048996	I haven't really done any studying for it.	I haven't really done any studying for it,.	97363295	1474449246209	1474449246298	t	84
189022	2048996	I haven't really done any studying for it.	I haven't really done any studying for it,.	97363296	1474449246442	1474449246538	 	32
189022	2048996	I haven't really done any studying for it.	I haven't really done any studying for it,.	97363297	1474449246601	1474449246666	BKSP	8
189022	2048996	I haven't really done any studying for it.	I haven't really done any studying for it,.	97363298	1474449246737	1474449246810	BKSP	8
189022	2048996	I haven't really done any studying for it.	I haven't really done any studying for it,.	97363299	1474449246938	1474449247018	 	32
189022	2048996	I haven't really done any studying for it.	I haven't really done any studying for it,.	97363301	1474449247057	1474449247138	s	83
189022	2048996	I haven't really done any studying for it.	I haven't really done any studying for it,.	97363319	1474449247142	1474449247186	t	84
189022	2048996	I haven't really done any studying for it.	I haven't really done any studying for it,.	97363322	1474449247209	1474449247314	u	85
189022	2048996	I haven't really done any studying for it.	I haven't really done any studying for it,.	97363324	1474449247401	1474449247466	d	68
189022	2048996	I haven't really done any studying for it.	I haven't really done any studying for it,.	97363326	1474449247602	1474449247698	y	89
189022	2048996	I haven't really done any studying for it.	I haven't really done any studying for it,.	97363328	1474449247699	1474449247778	i	73
189022	2048996	I haven't really done any studying for it.	I haven't really done any studying for it,.	97363333	1474449247729	1474449247810	n	78
189022	2048996	I haven't really done any studying for it.	I haven't really done any studying for it,.	97363334	1474449247811	1474449247882	g	71
189022	2048996	I haven't really done any studying for it.	I haven't really done any studying for it,.	97363335	1474449247883	1474449247961	 	32
189022	2048996	I haven't really done any studying for it.	I haven't really done any studying for it,.	97363336	1474449247977	1474449248074	f	70
189022	2048996	I haven't really done any studying for it.	I haven't really done any studying for it,.	97363337	1474449248042	1474449248106	o	79
189022	2048996	I haven't really done any studying for it.	I haven't really done any studying for it,.	97363338	1474449248162	1474449248273	r	82
189022	2048996	I haven't really done any studying for it.	I haven't really done any studying for it,.	97363344	1474449248250	1474449248330	 	32
189022	2048996	I haven't really done any studying for it.	I haven't really done any studying for it,.	97363347	1474449248331	1474449248410	i	73
189022	2048996	I haven't really done any studying for it.	I haven't really done any studying for it,.	97363349	1474449248410	1474449248498	t	84
189022	2048996	I haven't really done any studying for it.	I haven't really done any studying for it,.	97363351	1474449248499	1474449248595	.	188
189022	2049000	Is this cash coming into TW?	Is this cash coming into TW?	97363396	1474449249722	1474449249809	CAPS_LOCK	20
189022	2049000	Is this cash coming into TW?	Is this cash coming into TW?	97363400	1474449249873	1474449249938	I	73
189022	2049000	Is this cash coming into TW?	Is this cash coming into TW?	97363404	1474449249939	1474449250017	CAPS_LOCK	20
189022	2049000	Is this cash coming into TW?	Is this cash coming into TW?	97363408	1474449250089	1474449250170	s	83
189022	2049000	Is this cash coming into TW?	Is this cash coming into TW?	97363410	1474449250130	1474449250171	 	32
189022	2049000	Is this cash coming into TW?	Is this cash coming into TW?	97363411	1474449250329	1474449250434	t	84
189022	2049000	Is this cash coming into TW?	Is this cash coming into TW?	97363412	1474449250402	1474449250481	h	72
189022	2049000	Is this cash coming into TW?	Is this cash coming into TW?	97363413	1474449250438	1474449250522	i	73
189022	2049000	Is this cash coming into TW?	Is this cash coming into TW?	97363414	1474449250523	1474449250594	s	83
189022	2049000	Is this cash coming into TW?	Is this cash coming into TW?	97363415	1474449250595	1474449250682	 	32
189022	2049000	Is this cash coming into TW?	Is this cash coming into TW?	97363416	1474449250658	1474449250786	c	67
189022	2049000	Is this cash coming into TW?	Is this cash coming into TW?	97363430	1474449250697	1474449250809	a	65
189022	2049000	Is this cash coming into TW?	Is this cash coming into TW?	97363432	1474449250790	1474449250898	s	83
189022	2049000	Is this cash coming into TW?	Is this cash coming into TW?	97363434	1474449250857	1474449250921	h	72
189022	2049000	Is this cash coming into TW?	Is this cash coming into TW?	97363435	1474449250994	1474449251089	 	32
189022	2049000	Is this cash coming into TW?	Is this cash coming into TW?	97363436	1474449251074	1474449251162	c	67
189022	2049000	Is this cash coming into TW?	Is this cash coming into TW?	97363438	1474449251163	1474449251241	o	79
189022	2049000	Is this cash coming into TW?	Is this cash coming into TW?	97363444	1474449251218	1474449251273	m	77
189022	2049000	Is this cash coming into TW?	Is this cash coming into TW?	97363445	1474449251329	1474449251418	i	73
189022	2049000	Is this cash coming into TW?	Is this cash coming into TW?	97363446	1474449251386	1474449251457	n	78
189022	2049000	Is this cash coming into TW?	Is this cash coming into TW?	97363447	1474449251442	1474449251497	g	71
189022	2049000	Is this cash coming into TW?	Is this cash coming into TW?	97363449	1474449251513	1474449251602	 	32
189022	2049000	Is this cash coming into TW?	Is this cash coming into TW?	97363451	1474449251650	1474449251722	i	73
189022	2049000	Is this cash coming into TW?	Is this cash coming into TW?	97363468	1474449251698	1474449251778	n	78
189022	2049000	Is this cash coming into TW?	Is this cash coming into TW?	97363473	1474449251779	1474449251875	t	84
189022	2049000	Is this cash coming into TW?	Is this cash coming into TW?	97363475	1474449251876	1474449251946	o	79
189022	2049000	Is this cash coming into TW?	Is this cash coming into TW?	97363478	1474449251947	1474449252033	 	32
189022	2049000	Is this cash coming into TW?	Is this cash coming into TW?	97363480	1474449252010	1474449252100	CAPS_LOCK	20
189022	2049000	Is this cash coming into TW?	Is this cash coming into TW?	97363481	1474449252100	1474449252177	T	84
189022	2049000	Is this cash coming into TW?	Is this cash coming into TW?	97363482	1474449252154	1474449252257	W	87
189022	2049000	Is this cash coming into TW?	Is this cash coming into TW?	97363483	1474449252465	1474449252601	?	191
189022	2049003	Make sure they are current.	Make sure they are current.	97363531	1474449253649	1474449253731	M	77
189022	2049003	Make sure they are current.	Make sure they are current.	97363532	1474449253732	1474449253834	CAPS_LOCK	20
189022	2049003	Make sure they are current.	Make sure they are current.	97363533	1474449253835	1474449253938	a	65
189022	2049003	Make sure they are current.	Make sure they are current.	97363534	1474449253939	1474449254010	k	75
189022	2049003	Make sure they are current.	Make sure they are current.	97363535	1474449254041	1474449254114	e	69
189022	2049003	Make sure they are current.	Make sure they are current.	97363536	1474449254115	1474449254209	 	32
189022	2049003	Make sure they are current.	Make sure they are current.	97363549	1474449254193	1474449254258	s	83
189022	2049003	Make sure they are current.	Make sure they are current.	97363550	1474449254289	1474449254361	u	85
189022	2049003	Make sure they are current.	Make sure they are current.	97363552	1474449254457	1474449254553	r	82
189022	2049003	Make sure they are current.	Make sure they are current.	97363554	1474449254513	1474449254641	e	69
189022	2049003	Make sure they are current.	Make sure they are current.	97363557	1474449254601	1474449254665	 	32
189022	2049003	Make sure they are current.	Make sure they are current.	97363561	1474449254697	1474449254786	t	84
189022	2049003	Make sure they are current.	Make sure they are current.	97363569	1474449254790	1474449254826	h	72
189022	2049003	Make sure they are current.	Make sure they are current.	97363570	1474449254889	1474449254993	e	69
189022	2049003	Make sure they are current.	Make sure they are current.	97363572	1474449254953	1474449255057	y	89
189022	2049003	Make sure they are current.	Make sure they are current.	97363573	1474449255089	1474449255194	 	32
189022	2049003	Make sure they are current.	Make sure they are current.	97363577	1474449255138	1474449255226	a	65
189022	2049003	Make sure they are current.	Make sure they are current.	97363579	1474449255198	1474449255314	r	82
189022	2049003	Make sure they are current.	Make sure they are current.	97363581	1474449255257	1474449255354	e	69
189022	2049003	Make sure they are current.	Make sure they are current.	97363583	1474449255315	1474449255393	 	32
189022	2049003	Make sure they are current.	Make sure they are current.	97363585	1474449255433	1474449255506	c	67
189022	2049003	Make sure they are current.	Make sure they are current.	97363586	1474449255507	1474449255570	u	85
189022	2049003	Make sure they are current.	Make sure they are current.	97363591	1474449255609	1474449255657	r	82
189022	2049003	Make sure they are current.	Make sure they are current.	97363594	1474449255754	1474449255866	r	82
189022	2049003	Make sure they are current.	Make sure they are current.	97363597	1474449255841	1474449255922	e	69
189022	2049003	Make sure they are current.	Make sure they are current.	97363600	1474449255889	1474449255953	n	78
189022	2049003	Make sure they are current.	Make sure they are current.	97363602	1474449255985	1474449256091	t	84
189022	2049003	Make sure they are current.	Make sure they are current.	97363601	1474449256094	1474449256185	.	190
189022	2049006	If not can I call you?	If not can I call you?	97363673	1474449257658	1474449257745	CAPS_LOCK	20
189022	2049006	If not can I call you?	If not can I call you?	97363677	1474449257945	1474449258058	I	73
189022	2049006	If not can I call you?	If not can I call you?	97363682	1474449258082	1474449258178	CAPS_LOCK	20
189022	2049006	If not can I call you?	If not can I call you?	97363684	1474449258193	1474449258274	f	70
189022	2049006	If not can I call you?	If not can I call you?	97363687	1474449258250	1474449258297	 	32
189022	2049006	If not can I call you?	If not can I call you?	97363689	1474449258457	1474449258570	n	78
189022	2049006	If not can I call you?	If not can I call you?	97363691	1474449258530	1474449258609	o	79
189022	2049006	If not can I call you?	If not can I call you?	97363692	1474449258585	1474449258650	t	84
189022	2049006	If not can I call you?	If not can I call you?	97363694	1474449258681	1474449258745	 	32
189022	2049006	If not can I call you?	If not can I call you?	97363695	1474449258777	1474449258866	c	67
189022	2049006	If not can I call you?	If not can I call you?	97363697	1474449258809	1474449258938	a	65
189022	2049006	If not can I call you?	If not can I call you?	97363730	1474449258867	1474449258941	n	78
189022	2049006	If not can I call you?	If not can I call you?	97363734	1474449259026	1474449259122	 	32
189022	2049006	If not can I call you?	If not can I call you?	97363738	1474449259122	1474449259177	i	73
189022	2049006	If not can I call you?	If not can I call you?	97363742	1474449259370	1474449259458	BKSP	8
189022	2049006	If not can I call you?	If not can I call you?	97363747	1474449259459	1474449259538	CAPS_LOCK	20
189022	2049006	If not can I call you?	If not can I call you?	97363750	1474449259539	1474449259618	I	73
189022	2049006	If not can I call you?	If not can I call you?	97363755	1474449259619	1474449259698	CAPS_LOCK	20
189022	2049006	If not can I call you?	If not can I call you?	97363760	1474449259665	1474449259755	 	32
189022	2049006	If not can I call you?	If not can I call you?	97363763	1474449259755	1474449259842	c	67
189022	2049006	If not can I call you?	If not can I call you?	97363754	1474449259801	1474449259899	a	65
189022	2049006	If not can I call you?	If not can I call you?	97363757	1474449259900	1474449259938	l	76
189022	2049006	If not can I call you?	If not can I call you?	97363761	1474449260017	1474449260084	l	76
189022	2049006	If not can I call you?	If not can I call you?	97363764	1474449260084	1474449260178	 	32
189022	2049006	If not can I call you?	If not can I call you?	97363766	1474449260137	1474449260225	y	89
189022	2049006	If not can I call you?	If not can I call you?	97363773	1474449260193	1474449260290	o	79
189022	2049006	If not can I call you?	If not can I call you?	97363777	1474449260241	1474449260313	u	85
189022	2049006	If not can I call you?	If not can I call you?	97363784	1474449260457	1474449260570	?	191
189022	2049011	Also,  please look at Howell for Oct 2001.	Also, please look at Howell for Oct 2011.	97363846	1474449261802	1474449261913	CAPS_LOCK	20
189022	2049011	Also,  please look at Howell for Oct 2001.	Also, please look at Howell for Oct 2011.	97363850	1474449261977	1474449262154	A	65
189022	2049011	Also,  please look at Howell for Oct 2001.	Also, please look at Howell for Oct 2011.	97363854	1474449262138	1474449262242	CAPS_LOCK	20
189022	2049011	Also,  please look at Howell for Oct 2001.	Also, please look at Howell for Oct 2011.	97363858	1474449262243	1474449262314	l	76
189022	2049011	Also,  please look at Howell for Oct 2001.	Also, please look at Howell for Oct 2011.	97363861	1474449262337	1474449262410	a	65
189022	2049011	Also,  please look at Howell for Oct 2001.	Also, please look at Howell for Oct 2011.	97363865	1474449262698	1474449262794	BKSP	8
189022	2049011	Also,  please look at Howell for Oct 2001.	Also, please look at Howell for Oct 2011.	97363868	1474449262929	1474449263042	s	83
189022	2049011	Also,  please look at Howell for Oct 2001.	Also, please look at Howell for Oct 2011.	97363873	1474449263010	1474449263089	o	79
189022	2049011	Also,  please look at Howell for Oct 2001.	Also, please look at Howell for Oct 2011.	97363874	1474449263177	1474449263266	,	188
189022	2049011	Also,  please look at Howell for Oct 2001.	Also, please look at Howell for Oct 2011.	97363875	1474449263321	1474449263434	 	32
189022	2049011	Also,  please look at Howell for Oct 2001.	Also, please look at Howell for Oct 2011.	97363876	1474449263402	1474449263506	p	80
189022	2049011	Also,  please look at Howell for Oct 2001.	Also, please look at Howell for Oct 2011.	97363877	1474449263481	1474449263554	l	76
189022	2049011	Also,  please look at Howell for Oct 2001.	Also, please look at Howell for Oct 2011.	97363878	1474449263555	1474449263642	e	69
189022	2049011	Also,  please look at Howell for Oct 2001.	Also, please look at Howell for Oct 2011.	97363884	1474449263645	1474449263761	a	65
189022	2049011	Also,  please look at Howell for Oct 2001.	Also, please look at Howell for Oct 2011.	97363885	1474449263738	1474449263849	s	83
189022	2049011	Also,  please look at Howell for Oct 2001.	Also, please look at Howell for Oct 2011.	97363886	1474449263777	1474449263898	e	69
189022	2049011	Also,  please look at Howell for Oct 2001.	Also, please look at Howell for Oct 2011.	97363887	1474449263825	1474449263899	 	32
189022	2049011	Also,  please look at Howell for Oct 2001.	Also, please look at Howell for Oct 2011.	97363888	1474449263985	1474449264090	l	76
189022	2049011	Also,  please look at Howell for Oct 2001.	Also, please look at Howell for Oct 2011.	97363900	1474449264094	1474449264138	o	79
189022	2049011	Also,  please look at Howell for Oct 2001.	Also, please look at Howell for Oct 2011.	97363901	1474449264217	1474449264322	o	79
189022	2049011	Also,  please look at Howell for Oct 2001.	Also, please look at Howell for Oct 2011.	97363902	1474449264282	1474449264345	k	75
189022	2049011	Also,  please look at Howell for Oct 2001.	Also, please look at Howell for Oct 2011.	97363903	1474449264425	1474449264522	 	32
189022	2049011	Also,  please look at Howell for Oct 2001.	Also, please look at Howell for Oct 2011.	97363904	1474449264523	1474449264610	a	65
189022	2049011	Also,  please look at Howell for Oct 2001.	Also, please look at Howell for Oct 2011.	97363905	1474449264602	1474449264666	t	84
189022	2049011	Also,  please look at Howell for Oct 2001.	Also, please look at Howell for Oct 2011.	97363906	1474449264633	1474449264697	 	32
189022	2049011	Also,  please look at Howell for Oct 2001.	Also, please look at Howell for Oct 2011.	97363907	1474449264754	1474449264826	CAPS_LOCK	20
189022	2049011	Also,  please look at Howell for Oct 2001.	Also, please look at Howell for Oct 2011.	97363910	1474449264826	1474449264890	H	72
189022	2049011	Also,  please look at Howell for Oct 2001.	Also, please look at Howell for Oct 2011.	97363914	1474449264906	1474449264994	CAPS_LOCK	20
189022	2049011	Also,  please look at Howell for Oct 2001.	Also, please look at Howell for Oct 2011.	97363915	1474449265009	1474449265107	o	79
189022	2049011	Also,  please look at Howell for Oct 2001.	Also, please look at Howell for Oct 2011.	97363920	1474449265108	1474449265202	w	87
189022	2049011	Also,  please look at Howell for Oct 2001.	Also, please look at Howell for Oct 2011.	97363934	1474449265154	1474449265241	e	69
189022	2049011	Also,  please look at Howell for Oct 2001.	Also, please look at Howell for Oct 2011.	97363935	1474449265265	1474449265322	l	76
189022	2049011	Also,  please look at Howell for Oct 2001.	Also, please look at Howell for Oct 2011.	97363936	1474449265393	1474449265457	l	76
189022	2049011	Also,  please look at Howell for Oct 2001.	Also, please look at Howell for Oct 2011.	97363937	1474449265537	1474449265634	 	32
189022	2049011	Also,  please look at Howell for Oct 2001.	Also, please look at Howell for Oct 2011.	97363938	1474449265665	1474449265738	f	70
189022	2049011	Also,  please look at Howell for Oct 2001.	Also, please look at Howell for Oct 2011.	97363939	1474449265739	1474449265794	o	79
189022	2049011	Also,  please look at Howell for Oct 2001.	Also, please look at Howell for Oct 2011.	97363969	1474449265825	1474449265921	r	82
189022	2049011	Also,  please look at Howell for Oct 2001.	Also, please look at Howell for Oct 2011.	97363972	1474449265897	1474449265969	 	32
189022	2049011	Also,  please look at Howell for Oct 2001.	Also, please look at Howell for Oct 2011.	97363975	1474449266106	1474449266226	CAPS_LOCK	20
189022	2049011	Also,  please look at Howell for Oct 2001.	Also, please look at Howell for Oct 2011.	97363977	1474449266227	1474449266297	O	79
189022	2049011	Also,  please look at Howell for Oct 2001.	Also, please look at Howell for Oct 2011.	97363980	1474449266362	1474449266458	C	67
189022	2049011	Also,  please look at Howell for Oct 2001.	Also, please look at Howell for Oct 2011.	97363981	1474449266514	1474449266609	CAPS_LOCK	20
189022	2049011	Also,  please look at Howell for Oct 2001.	Also, please look at Howell for Oct 2011.	97363982	1474449266689	1474449266762	BKSP	8
189022	2049011	Also,  please look at Howell for Oct 2001.	Also, please look at Howell for Oct 2011.	97363983	1474449266785	1474449266842	c	67
189022	2049011	Also,  please look at Howell for Oct 2001.	Also, please look at Howell for Oct 2011.	97364000	1474449266945	1474449267010	t	84
189022	2049011	Also,  please look at Howell for Oct 2001.	Also, please look at Howell for Oct 2011.	97364002	1474449267011	1474449267074	 	32
189022	2049011	Also,  please look at Howell for Oct 2001.	Also, please look at Howell for Oct 2011.	97364004	1474449267329	1474449267426	2	50
189022	2049011	Also,  please look at Howell for Oct 2001.	Also, please look at Howell for Oct 2011.	97364006	1474449267449	1474449267553	0	48
189022	2049011	Also,  please look at Howell for Oct 2001.	Also, please look at Howell for Oct 2011.	97364008	1474449267657	1474449267713	1	49
189022	2049011	Also,  please look at Howell for Oct 2001.	Also, please look at Howell for Oct 2011.	97364013	1474449267809	1474449267865	1	49
189022	2049011	Also,  please look at Howell for Oct 2001.	Also, please look at Howell for Oct 2011.	97364015	1474449267937	1474449268026	.	190
