PARTICIPANT_ID	TEST_SECTION_ID	SENTENCE	USER_INPUT	KEYSTROKE_ID	PRESS_TIME	RELEASE_TIME	LETTER	KEYCODE
193098	2091243	The loans were allegedly made to players.	The loans were allegedly made to players.	99354512	1474485070410	1474485070626	SHIFT	16
193098	2091243	The loans were allegedly made to players.	The loans were allegedly made to players.	99354509	1474485070515	1474485070621	T	84
193098	2091243	The loans were allegedly made to players.	The loans were allegedly made to players.	99354514	1474485070688	1474485070790	h	72
193098	2091243	The loans were allegedly made to players.	The loans were allegedly made to players.	99354516	1474485070869	1474485071023	e	69
193098	2091243	The loans were allegedly made to players.	The loans were allegedly made to players.	99354522	1474485070946	1474485071119	 	32
193098	2091243	The loans were allegedly made to players.	The loans were allegedly made to players.	99354526	1474485071141	1474485071266	l	76
193098	2091243	The loans were allegedly made to players.	The loans were allegedly made to players.	99354549	1474485071311	1474485071428	o	79
193098	2091243	The loans were allegedly made to players.	The loans were allegedly made to players.	99354552	1474485071383	1474485071528	a	65
193098	2091243	The loans were allegedly made to players.	The loans were allegedly made to players.	99354557	1474485071557	1474485071672	n	78
193098	2091243	The loans were allegedly made to players.	The loans were allegedly made to players.	99354562	1474485071670	1474485071816	s	83
193098	2091243	The loans were allegedly made to players.	The loans were allegedly made to players.	99354581	1474485071776	1474485071932	 	32
193098	2091243	The loans were allegedly made to players.	The loans were allegedly made to players.	99354583	1474485071937	1474485072116	w	87
193098	2091243	The loans were allegedly made to players.	The loans were allegedly made to players.	99354588	1474485072051	1474485072211	e	69
193098	2091243	The loans were allegedly made to players.	The loans were allegedly made to players.	99354592	1474485072306	1474485072466	r	82
193098	2091243	The loans were allegedly made to players.	The loans were allegedly made to players.	99354598	1474485072380	1474485072535	e	69
193098	2091243	The loans were allegedly made to players.	The loans were allegedly made to players.	99354647	1474485072492	1474485072649	 	32
193098	2091243	The loans were allegedly made to players.	The loans were allegedly made to players.	99354652	1474485072667	1474485072805	a	65
193098	2091243	The loans were allegedly made to players.	The loans were allegedly made to players.	99354656	1474485073029	1474485073132	l	76
193098	2091243	The loans were allegedly made to players.	The loans were allegedly made to players.	99354659	1474485073164	1474485073286	l	76
193098	2091243	The loans were allegedly made to players.	The loans were allegedly made to players.	99354664	1474485073273	1474485073442	e	69
193098	2091243	The loans were allegedly made to players.	The loans were allegedly made to players.	99354728	1474485073388	1474485073523	g	71
193098	2091243	The loans were allegedly made to players.	The loans were allegedly made to players.	99354735	1474485073599	1474485073754	e	69
193098	2091243	The loans were allegedly made to players.	The loans were allegedly made to players.	99354742	1474485073841	1474485073981	d	68
193098	2091243	The loans were allegedly made to players.	The loans were allegedly made to players.	99354750	1474485074092	1474485074219	l	76
193098	2091243	The loans were allegedly made to players.	The loans were allegedly made to players.	99354757	1474485074289	1474485074485	y	89
193098	2091243	The loans were allegedly made to players.	The loans were allegedly made to players.	99354767	1474485074402	1474485074546	 	32
193098	2091243	The loans were allegedly made to players.	The loans were allegedly made to players.	99354771	1474485074505	1474485074618	m	77
193098	2091243	The loans were allegedly made to players.	The loans were allegedly made to players.	99354774	1474485074598	1474485074745	a	65
193098	2091243	The loans were allegedly made to players.	The loans were allegedly made to players.	99354777	1474485074730	1474485074836	d	68
193098	2091243	The loans were allegedly made to players.	The loans were allegedly made to players.	99354781	1474485074774	1474485074960	e	69
193098	2091243	The loans were allegedly made to players.	The loans were allegedly made to players.	99354809	1474485074890	1474485075074	 	32
193098	2091243	The loans were allegedly made to players.	The loans were allegedly made to players.	99354814	1474485075090	1474485075199	t	84
193098	2091243	The loans were allegedly made to players.	The loans were allegedly made to players.	99354819	1474485075200	1474485075315	o	79
193098	2091243	The loans were allegedly made to players.	The loans were allegedly made to players.	99354825	1474485075344	1474485075475	 	32
193098	2091243	The loans were allegedly made to players.	The loans were allegedly made to players.	99354833	1474485075529	1474485075696	p	80
193098	2091243	The loans were allegedly made to players.	The loans were allegedly made to players.	99354851	1474485075622	1474485075768	l	76
193098	2091243	The loans were allegedly made to players.	The loans were allegedly made to players.	99354853	1474485075710	1474485075847	a	65
193098	2091243	The loans were allegedly made to players.	The loans were allegedly made to players.	99354856	1474485075899	1474485076000	y	89
193098	2091243	The loans were allegedly made to players.	The loans were allegedly made to players.	99354863	1474485076043	1474485076169	e	69
193098	2091243	The loans were allegedly made to players.	The loans were allegedly made to players.	99354868	1474485076109	1474485076228	r	82
193098	2091243	The loans were allegedly made to players.	The loans were allegedly made to players.	99354876	1474485076286	1474485076387	s	83
193098	2091243	The loans were allegedly made to players.	The loans were allegedly made to players.	99354940	1474485076433	1474485076531	.	190
193098	2091256	I need to link them up to the Tagg deal.	I need to link them up to the Tagg deal.	99355068	1474485079861	1474485080233	SHIFT	16
193098	2091256	I need to link them up to the Tagg deal.	I need to link them up to the Tagg deal.	99355072	1474485080177	1474485080294	I	73
193098	2091256	I need to link them up to the Tagg deal.	I need to link them up to the Tagg deal.	99355077	1474485080294	1474485080421	 	32
193098	2091256	I need to link them up to the Tagg deal.	I need to link them up to the Tagg deal.	99355081	1474485080445	1474485080540	n	78
193098	2091256	I need to link them up to the Tagg deal.	I need to link them up to the Tagg deal.	99355084	1474485080538	1474485080651	e	69
193098	2091256	I need to link them up to the Tagg deal.	I need to link them up to the Tagg deal.	99355088	1474485080689	1474485080840	e	69
193098	2091256	I need to link them up to the Tagg deal.	I need to link them up to the Tagg deal.	99355095	1474485080766	1474485080942	d	68
193098	2091256	I need to link them up to the Tagg deal.	I need to link them up to the Tagg deal.	99355098	1474485080862	1474485081030	 	32
193098	2091256	I need to link them up to the Tagg deal.	I need to link them up to the Tagg deal.	99355100	1474485081027	1474485081143	t	84
193098	2091256	I need to link them up to the Tagg deal.	I need to link them up to the Tagg deal.	99355102	1474485081097	1474485081225	o	79
193098	2091256	I need to link them up to the Tagg deal.	I need to link them up to the Tagg deal.	99355105	1474485081203	1474485081343	 	32
193098	2091256	I need to link them up to the Tagg deal.	I need to link them up to the Tagg deal.	99355165	1474485081303	1474485081415	l	76
193098	2091256	I need to link them up to the Tagg deal.	I need to link them up to the Tagg deal.	99355169	1474485081447	1474485081547	i	73
193098	2091256	I need to link them up to the Tagg deal.	I need to link them up to the Tagg deal.	99355176	1474485081637	1474485081731	k	75
193098	2091256	I need to link them up to the Tagg deal.	I need to link them up to the Tagg deal.	99355178	1474485081702	1474485081861	n	78
193098	2091256	I need to link them up to the Tagg deal.	I need to link them up to the Tagg deal.	99355183	1474485081873	1474485082019	 	32
193098	2091256	I need to link them up to the Tagg deal.	I need to link them up to the Tagg deal.	99355186	1474485082193	1474485082293	BKSP	8
193098	2091256	I need to link them up to the Tagg deal.	I need to link them up to the Tagg deal.	99355189	1474485082347	1474485082569	BKSP	8
193098	2091256	I need to link them up to the Tagg deal.	I need to link them up to the Tagg deal.	99355191	1474485082616	1474485082750	n	78
193098	2091256	I need to link them up to the Tagg deal.	I need to link them up to the Tagg deal.	99355220	1474485082815	1474485082921	BKSP	8
193098	2091256	I need to link them up to the Tagg deal.	I need to link them up to the Tagg deal.	99355225	1474485082960	1474485083066	BKSP	8
193098	2091256	I need to link them up to the Tagg deal.	I need to link them up to the Tagg deal.	99355227	1474485083055	1474485083168	n	78
193098	2091256	I need to link them up to the Tagg deal.	I need to link them up to the Tagg deal.	99355231	1474485083149	1474485083257	k	75
193098	2091256	I need to link them up to the Tagg deal.	I need to link them up to the Tagg deal.	99355235	1474485083250	1474485083396	 	32
193098	2091256	I need to link them up to the Tagg deal.	I need to link them up to the Tagg deal.	99355240	1474485083427	1474485083547	t	84
193098	2091256	I need to link them up to the Tagg deal.	I need to link them up to the Tagg deal.	99355254	1474485083511	1474485083612	h	72
193098	2091256	I need to link them up to the Tagg deal.	I need to link them up to the Tagg deal.	99355257	1474485083610	1474485083725	e	69
193098	2091256	I need to link them up to the Tagg deal.	I need to link them up to the Tagg deal.	99355261	1474485083726	1474485083844	m	77
193098	2091256	I need to link them up to the Tagg deal.	I need to link them up to the Tagg deal.	99355266	1474485083900	1474485084034	 	32
193098	2091256	I need to link them up to the Tagg deal.	I need to link them up to the Tagg deal.	99355273	1474485084104	1474485084204	u	85
193098	2091256	I need to link them up to the Tagg deal.	I need to link them up to the Tagg deal.	99355281	1474485084278	1474485084384	p	80
193098	2091256	I need to link them up to the Tagg deal.	I need to link them up to the Tagg deal.	99355312	1474485084388	1474485084515	 	32
193098	2091256	I need to link them up to the Tagg deal.	I need to link them up to the Tagg deal.	99355316	1474485084535	1474485084662	t	84
193098	2091256	I need to link them up to the Tagg deal.	I need to link them up to the Tagg deal.	99355319	1474485084648	1474485084768	o	79
193098	2091256	I need to link them up to the Tagg deal.	I need to link them up to the Tagg deal.	99355323	1474485084752	1474485084884	 	32
193098	2091256	I need to link them up to the Tagg deal.	I need to link them up to the Tagg deal.	99355328	1474485084908	1474485085028	t	84
193098	2091256	I need to link them up to the Tagg deal.	I need to link them up to the Tagg deal.	99355370	1474485085016	1474485085139	h	72
193098	2091256	I need to link them up to the Tagg deal.	I need to link them up to the Tagg deal.	99355371	1474485085105	1474485085249	e	69
193098	2091256	I need to link them up to the Tagg deal.	I need to link them up to the Tagg deal.	99355373	1474485085204	1474485085341	 	32
193098	2091256	I need to link them up to the Tagg deal.	I need to link them up to the Tagg deal.	99355376	1474485085314	1474485085551	SHIFT	16
193098	2091256	I need to link them up to the Tagg deal.	I need to link them up to the Tagg deal.	99355381	1474485085447	1474485085558	T	84
193098	2091256	I need to link them up to the Tagg deal.	I need to link them up to the Tagg deal.	99355384	1474485085585	1474485085697	a	65
193098	2091256	I need to link them up to the Tagg deal.	I need to link them up to the Tagg deal.	99355390	1474485085740	1474485085831	g	71
193098	2091256	I need to link them up to the Tagg deal.	I need to link them up to the Tagg deal.	99355425	1474485085887	1474485086012	g	71
193098	2091256	I need to link them up to the Tagg deal.	I need to link them up to the Tagg deal.	99355429	1474485085999	1474485086122	 	32
193098	2091256	I need to link them up to the Tagg deal.	I need to link them up to the Tagg deal.	99355434	1474485086233	1474485086393	d	68
193098	2091256	I need to link them up to the Tagg deal.	I need to link them up to the Tagg deal.	99355440	1474485086332	1474485086483	e	69
193098	2091256	I need to link them up to the Tagg deal.	I need to link them up to the Tagg deal.	99355446	1474485086496	1474485086620	a	65
193098	2091256	I need to link them up to the Tagg deal.	I need to link them up to the Tagg deal.	99355463	1474485086626	1474485086749	l	76
193098	2091256	I need to link them up to the Tagg deal.	I need to link them up to the Tagg deal.	99355472	1474485086857	1474485086930	.	190
193098	2091270	You have a lot of holes in your plan.	You have a lot of holes in your plan	99355698	1474485089245	1474485089582	SHIFT	16
193098	2091270	You have a lot of holes in your plan.	You have a lot of holes in your plan	99355705	1474485089462	1474485089594	Y	89
193098	2091270	You have a lot of holes in your plan.	You have a lot of holes in your plan	99355714	1474485089663	1474485089764	o	79
193098	2091270	You have a lot of holes in your plan.	You have a lot of holes in your plan	99355720	1474485089755	1474485089927	u	85
193098	2091270	You have a lot of holes in your plan.	You have a lot of holes in your plan	99355726	1474485089838	1474485090030	 	32
193098	2091270	You have a lot of holes in your plan.	You have a lot of holes in your plan	99355732	1474485090107	1474485090231	h	72
193098	2091270	You have a lot of holes in your plan.	You have a lot of holes in your plan	99355756	1474485090205	1474485090340	a	65
193098	2091270	You have a lot of holes in your plan.	You have a lot of holes in your plan	99355763	1474485090308	1474485090426	v	86
193098	2091270	You have a lot of holes in your plan.	You have a lot of holes in your plan	99355770	1474485090383	1474485090556	e	69
193098	2091270	You have a lot of holes in your plan.	You have a lot of holes in your plan	99355777	1474485090546	1474485090695	 	32
193098	2091270	You have a lot of holes in your plan.	You have a lot of holes in your plan	99355784	1474485090647	1474485090814	a	65
193098	2091270	You have a lot of holes in your plan.	You have a lot of holes in your plan	99355824	1474485090766	1474485090910	 	32
193098	2091270	You have a lot of holes in your plan.	You have a lot of holes in your plan	99355828	1474485090990	1474485091096	l	76
193098	2091270	You have a lot of holes in your plan.	You have a lot of holes in your plan	99355833	1474485091132	1474485091248	o	79
193098	2091270	You have a lot of holes in your plan.	You have a lot of holes in your plan	99355843	1474485091246	1474485091450	t	84
193098	2091270	You have a lot of holes in your plan.	You have a lot of holes in your plan	99355849	1474485091324	1474485091527	 	32
193098	2091270	You have a lot of holes in your plan.	You have a lot of holes in your plan	99355852	1474485091551	1474485091676	o	79
193098	2091270	You have a lot of holes in your plan.	You have a lot of holes in your plan	99355882	1474485091649	1474485091815	f	70
193098	2091270	You have a lot of holes in your plan.	You have a lot of holes in your plan	99355888	1474485091729	1474485091889	 	32
193098	2091270	You have a lot of holes in your plan.	You have a lot of holes in your plan	99355895	1474485092030	1474485092133	h	72
193098	2091270	You have a lot of holes in your plan.	You have a lot of holes in your plan	99355900	1474485092121	1474485092222	o	79
193098	2091270	You have a lot of holes in your plan.	You have a lot of holes in your plan	99355906	1474485092288	1474485092395	l	76
193098	2091270	You have a lot of holes in your plan.	You have a lot of holes in your plan	99355942	1474485092337	1474485092485	e	69
193098	2091270	You have a lot of holes in your plan.	You have a lot of holes in your plan	99355946	1474485092387	1474485092534	s	83
193098	2091270	You have a lot of holes in your plan.	You have a lot of holes in your plan	99355955	1474485092492	1474485092662	 	32
193098	2091270	You have a lot of holes in your plan.	You have a lot of holes in your plan	99355959	1474485092805	1474485092976	i	73
193098	2091270	You have a lot of holes in your plan.	You have a lot of holes in your plan	99355966	1474485092902	1474485093033	n	78
193098	2091270	You have a lot of holes in your plan.	You have a lot of holes in your plan	99355970	1474485092980	1474485093126	 	32
193098	2091270	You have a lot of holes in your plan.	You have a lot of holes in your plan	99356002	1474485093116	1474485093233	o	79
193098	2091270	You have a lot of holes in your plan.	You have a lot of holes in your plan	99356005	1474485093386	1474485093505	BKSP	8
193098	2091270	You have a lot of holes in your plan.	You have a lot of holes in your plan	99356008	1474485093442	1474485093567	y	89
193098	2091270	You have a lot of holes in your plan.	You have a lot of holes in your plan	99356012	1474485093573	1474485093688	o	79
193098	2091270	You have a lot of holes in your plan.	You have a lot of holes in your plan	99356018	1474485093640	1474485093776	u	85
193098	2091270	You have a lot of holes in your plan.	You have a lot of holes in your plan	99356025	1474485093736	1474485093877	 	32
193098	2091270	You have a lot of holes in your plan.	You have a lot of holes in your plan	99356031	1474485094063	1474485094192	BKSP	8
193098	2091270	You have a lot of holes in your plan.	You have a lot of holes in your plan	99356056	1474485094165	1474485094311	r	82
193098	2091270	You have a lot of holes in your plan.	You have a lot of holes in your plan	99356059	1474485094226	1474485094384	 	32
193098	2091270	You have a lot of holes in your plan.	You have a lot of holes in your plan	99356063	1474485094433	1474485094610	p	80
193098	2091270	You have a lot of holes in your plan.	You have a lot of holes in your plan	99356064	1474485094535	1474485094658	l	76
193098	2091270	You have a lot of holes in your plan.	You have a lot of holes in your plan	99356065	1474485094645	1474485094756	a	65
193098	2091270	You have a lot of holes in your plan.	You have a lot of holes in your plan	99356067	1474485094776	1474485094862	n	78
193098	2091281	I do not want to repeat.	I do not want to repeat	99356204	1474485097463	1474485097822	SHIFT	16
193098	2091281	I do not want to repeat.	I do not want to repeat	99356199	1474485097705	1474485097815	I	73
193098	2091281	I do not want to repeat.	I do not want to repeat	99356208	1474485097894	1474485098023	 	32
193098	2091281	I do not want to repeat.	I do not want to repeat	99356213	1474485097978	1474485098143	d	68
193098	2091281	I do not want to repeat.	I do not want to repeat	99356284	1474485098054	1474485098233	o	79
193098	2091281	I do not want to repeat.	I do not want to repeat	99356289	1474485098140	1474485098265	n	78
193098	2091281	I do not want to repeat.	I do not want to repeat	99356296	1474485098508	1474485098653	BKSP	8
193098	2091281	I do not want to repeat.	I do not want to repeat	99356301	1474485098676	1474485098819	 	32
193098	2091281	I do not want to repeat.	I do not want to repeat	99356305	1474485099027	1474485099147	d	68
193098	2091281	I do not want to repeat.	I do not want to repeat	99356308	1474485099366	1474485099457	BKSP	8
193098	2091281	I do not want to repeat.	I do not want to repeat	99356310	1474485099550	1474485099662	n	78
193098	2091281	I do not want to repeat.	I do not want to repeat	99356311	1474485099642	1474485099767	o	79
193098	2091281	I do not want to repeat.	I do not want to repeat	99356326	1474485099764	1474485099931	t	84
193098	2091281	I do not want to repeat.	I do not want to repeat	99356334	1474485099848	1474485100010	 	32
193098	2091281	I do not want to repeat.	I do not want to repeat	99356342	1474485100024	1474485100183	w	87
193098	2091281	I do not want to repeat.	I do not want to repeat	99356348	1474485100123	1474485100254	a	65
193098	2091281	I do not want to repeat.	I do not want to repeat	99356354	1474485100276	1474485100382	n	78
193098	2091281	I do not want to repeat.	I do not want to repeat	99356372	1474485100335	1474485100468	t	84
193098	2091281	I do not want to repeat.	I do not want to repeat	99356375	1474485100479	1474485100603	 	32
193098	2091281	I do not want to repeat.	I do not want to repeat	99356380	1474485100565	1474485100676	t	84
193098	2091281	I do not want to repeat.	I do not want to repeat	99356385	1474485100680	1474485100793	o	79
193098	2091281	I do not want to repeat.	I do not want to repeat	99356388	1474485100786	1474485100951	 	32
193098	2091281	I do not want to repeat.	I do not want to repeat	99356391	1474485100985	1474485101125	r	82
193098	2091281	I do not want to repeat.	I do not want to repeat	99356440	1474485101039	1474485101166	e	69
193098	2091281	I do not want to repeat.	I do not want to repeat	99356458	1474485101190	1474485101389	p	80
193098	2091281	I do not want to repeat.	I do not want to repeat	99356448	1474485101258	1474485101367	o	79
193098	2091281	I do not want to repeat.	I do not want to repeat	99356463	1474485101643	1474485101777	BKSP	8
193098	2091281	I do not want to repeat.	I do not want to repeat	99356466	1474485101770	1474485101926	e	69
193098	2091281	I do not want to repeat.	I do not want to repeat	99356474	1474485101840	1474485101996	a	65
193098	2091281	I do not want to repeat.	I do not want to repeat	99356478	1474485102021	1474485102157	t	84
193098	2091291	Try this one now and let me know.	Tty this one now and let me know	99356651	1474485104217	1474485104321	t	84
193098	2091291	Try this one now and let me know.	Tty this one now and let me know	99356654	1474485104402	1474485104522	r	82
193098	2091291	Try this one now and let me know.	Tty this one now and let me know	99356657	1474485104673	1474485104773	BKSP	8
193098	2091291	Try this one now and let me know.	Tty this one now and let me know	99356659	1474485104811	1474485104924	BKSP	8
193098	2091291	Try this one now and let me know.	Tty this one now and let me know	99356661	1474485105076	1474485105293	SHIFT	16
193098	2091291	Try this one now and let me know.	Tty this one now and let me know	99356663	1474485105143	1474485105302	T	84
193098	2091291	Try this one now and let me know.	Tty this one now and let me know	99356665	1474485105268	1474485105342	R	82
193098	2091291	Try this one now and let me know.	Tty this one now and let me know	99356666	1474485105619	1474485105757	BKSP	8
193098	2091291	Try this one now and let me know.	Tty this one now and let me know	99356668	1474485105782	1474485105902	t	84
193098	2091291	Try this one now and let me know.	Tty this one now and let me know	99356701	1474485105967	1474485106083	y	89
193098	2091291	Try this one now and let me know.	Tty this one now and let me know	99356702	1474485106039	1474485106221	 	32
193098	2091291	Try this one now and let me know.	Tty this one now and let me know	99356705	1474485106222	1474485106354	t	84
193098	2091291	Try this one now and let me know.	Tty this one now and let me know	99356709	1474485106381	1474485106439	h	72
193098	2091291	Try this one now and let me know.	Tty this one now and let me know	99356711	1474485107039	1474485107188	i	73
193098	2091291	Try this one now and let me know.	Tty this one now and let me know	99356757	1474485107149	1474485107291	s	83
193098	2091291	Try this one now and let me know.	Tty this one now and let me know	99356759	1474485107212	1474485107360	 	32
193098	2091291	Try this one now and let me know.	Tty this one now and let me know	99356762	1474485107508	1474485107689	o	79
193098	2091291	Try this one now and let me know.	Tty this one now and let me know	99356765	1474485107633	1474485107763	n	78
193098	2091291	Try this one now and let me know.	Tty this one now and let me know	99356769	1474485107760	1474485107964	e	69
193098	2091291	Try this one now and let me know.	Tty this one now and let me know	99356806	1474485107831	1474485108033	 	32
193098	2091291	Try this one now and let me know.	Tty this one now and let me know	99356810	1474485108558	1474485108682	n	78
193098	2091291	Try this one now and let me know.	Tty this one now and let me know	99356813	1474485108721	1474485108863	o	79
193098	2091291	Try this one now and let me know.	Tty this one now and let me know	99356815	1474485108809	1474485108955	w	87
193098	2091291	Try this one now and let me know.	Tty this one now and let me know	99356817	1474485108860	1474485109026	 	32
193098	2091291	Try this one now and let me know.	Tty this one now and let me know	99356819	1474485109037	1474485109145	l	76
193098	2091291	Try this one now and let me know.	Tty this one now and let me know	99356833	1474485109279	1474485109415	BKSP	8
193098	2091291	Try this one now and let me know.	Tty this one now and let me know	99356837	1474485109408	1474485109530	a	65
193098	2091291	Try this one now and let me know.	Tty this one now and let me know	99356844	1474485109500	1474485109602	n	78
193098	2091291	Try this one now and let me know.	Tty this one now and let me know	99356851	1474485109593	1474485109737	d	68
193098	2091291	Try this one now and let me know.	Tty this one now and let me know	99356877	1474485109649	1474485109787	 	32
193098	2091291	Try this one now and let me know.	Tty this one now and let me know	99356881	1474485109723	1474485109840	l	76
193098	2091291	Try this one now and let me know.	Tty this one now and let me know	99356885	1474485109901	1474485110076	e	69
193098	2091291	Try this one now and let me know.	Tty this one now and let me know	99356893	1474485109989	1474485110143	t	84
193098	2091291	Try this one now and let me know.	Tty this one now and let me know	99356897	1474485110070	1474485110253	 	32
193098	2091291	Try this one now and let me know.	Tty this one now and let me know	99356902	1474485110197	1474485110323	m	77
193098	2091291	Try this one now and let me know.	Tty this one now and let me know	99356974	1474485110289	1474485110429	e	69
193098	2091291	Try this one now and let me know.	Tty this one now and let me know	99356975	1474485110341	1474485110497	 	32
193098	2091291	Try this one now and let me know.	Tty this one now and let me know	99356976	1474485110438	1474485110541	n	78
193098	2091291	Try this one now and let me know.	Tty this one now and let me know	99356977	1474485110587	1474485110711	o	79
193098	2091291	Try this one now and let me know.	Tty this one now and let me know	99356978	1474485111047	1474485111134	BKSP	8
193098	2091291	Try this one now and let me know.	Tty this one now and let me know	99356980	1474485111165	1474485111309	BKSP	8
193098	2091291	Try this one now and let me know.	Tty this one now and let me know	99356982	1474485111398	1474485111504	k	75
193098	2091291	Try this one now and let me know.	Tty this one now and let me know	99356987	1474485111543	1474485111653	n	78
193098	2091291	Try this one now and let me know.	Tty this one now and let me know	99356985	1474485111640	1474485111762	o	79
193098	2091304	Both leading candidates have promised to create jobs.	Both leading candidates have promsied to create jobs	99357197	1474485113931	1474485114249	SHIFT	16
193098	2091304	Both leading candidates have promised to create jobs.	Both leading candidates have promsied to create jobs	99357203	1474485114181	1474485114290	B	66
193098	2091304	Both leading candidates have promised to create jobs.	Both leading candidates have promsied to create jobs	99357210	1474485114336	1474485114435	o	79
193098	2091304	Both leading candidates have promised to create jobs.	Both leading candidates have promsied to create jobs	99357215	1474485114423	1474485114547	t	84
193098	2091304	Both leading candidates have promised to create jobs.	Both leading candidates have promsied to create jobs	99357220	1474485114518	1474485114626	h	72
193098	2091304	Both leading candidates have promised to create jobs.	Both leading candidates have promsied to create jobs	99357247	1474485114606	1474485114753	 	32
193098	2091304	Both leading candidates have promised to create jobs.	Both leading candidates have promsied to create jobs	99357249	1474485114920	1474485115031	l	76
193098	2091304	Both leading candidates have promised to create jobs.	Both leading candidates have promsied to create jobs	99357256	1474485115013	1474485115163	e	69
193098	2091304	Both leading candidates have promised to create jobs.	Both leading candidates have promsied to create jobs	99357261	1474485115087	1474485115241	a	65
193098	2091304	Both leading candidates have promised to create jobs.	Both leading candidates have promsied to create jobs	99357264	1474485115225	1474485115366	d	68
193098	2091304	Both leading candidates have promised to create jobs.	Both leading candidates have promsied to create jobs	99357285	1474485115315	1474485115465	i	73
193098	2091304	Both leading candidates have promised to create jobs.	Both leading candidates have promsied to create jobs	99357286	1474485115396	1474485115525	n	78
193098	2091304	Both leading candidates have promised to create jobs.	Both leading candidates have promsied to create jobs	99357288	1474485115474	1474485115607	g	71
193098	2091304	Both leading candidates have promised to create jobs.	Both leading candidates have promsied to create jobs	99357290	1474485115533	1474485115671	 	32
193098	2091304	Both leading candidates have promised to create jobs.	Both leading candidates have promsied to create jobs	99357294	1474485115731	1474485115855	c	67
193098	2091304	Both leading candidates have promised to create jobs.	Both leading candidates have promsied to create jobs	99357301	1474485115871	1474485115997	a	65
193098	2091304	Both leading candidates have promised to create jobs.	Both leading candidates have promsied to create jobs	99357334	1474485116009	1474485116139	n	78
193098	2091304	Both leading candidates have promised to create jobs.	Both leading candidates have promsied to create jobs	99357339	1474485116278	1474485116417	d	68
193098	2091304	Both leading candidates have promised to create jobs.	Both leading candidates have promsied to create jobs	99357342	1474485116393	1474485116531	i	73
193098	2091304	Both leading candidates have promised to create jobs.	Both leading candidates have promsied to create jobs	99357349	1474485116507	1474485116643	d	68
193098	2091304	Both leading candidates have promised to create jobs.	Both leading candidates have promsied to create jobs	99357352	1474485116883	1474485117019	a	65
193098	2091304	Both leading candidates have promised to create jobs.	Both leading candidates have promsied to create jobs	99357379	1474485117086	1474485117197	t	84
193098	2091304	Both leading candidates have promised to create jobs.	Both leading candidates have promsied to create jobs	99357382	1474485117310	1474485117425	e	69
193098	2091304	Both leading candidates have promised to create jobs.	Both leading candidates have promsied to create jobs	99357384	1474485117502	1474485117624	s	83
193098	2091304	Both leading candidates have promised to create jobs.	Both leading candidates have promsied to create jobs	99357388	1474485117583	1474485117738	 	32
193098	2091304	Both leading candidates have promised to create jobs.	Both leading candidates have promsied to create jobs	99357423	1474485117730	1474485117818	t	84
193098	2091304	Both leading candidates have promised to create jobs.	Both leading candidates have promsied to create jobs	99357427	1474485118058	1474485118187	BKSP	8
193098	2091304	Both leading candidates have promised to create jobs.	Both leading candidates have promsied to create jobs	99357433	1474485118225	1474485118310	h	72
193098	2091304	Both leading candidates have promised to create jobs.	Both leading candidates have promsied to create jobs	99357439	1474485118393	1474485118526	a	65
193098	2091304	Both leading candidates have promised to create jobs.	Both leading candidates have promsied to create jobs	99357444	1474485118560	1474485118726	v	86
193098	2091304	Both leading candidates have promised to create jobs.	Both leading candidates have promsied to create jobs	99357446	1474485118641	1474485118794	e	69
193098	2091304	Both leading candidates have promised to create jobs.	Both leading candidates have promsied to create jobs	99357477	1474485118737	1474485118886	 	32
193098	2091304	Both leading candidates have promised to create jobs.	Both leading candidates have promsied to create jobs	99357480	1474485118844	1474485118973	p	80
193098	2091304	Both leading candidates have promised to create jobs.	Both leading candidates have promsied to create jobs	99357482	1474485118957	1474485119076	r	82
193098	2091304	Both leading candidates have promised to create jobs.	Both leading candidates have promsied to create jobs	99357484	1474485119175	1474485119320	m	77
193098	2091304	Both leading candidates have promised to create jobs.	Both leading candidates have promsied to create jobs	99357486	1474485119594	1474485119660	BKSP	8
193098	2091304	Both leading candidates have promised to create jobs.	Both leading candidates have promsied to create jobs	99357487	1474485119932	1474485120098	o	79
193098	2091304	Both leading candidates have promised to create jobs.	Both leading candidates have promsied to create jobs	99357564	1474485120019	1474485120179	m	77
193098	2091304	Both leading candidates have promised to create jobs.	Both leading candidates have promsied to create jobs	99357571	1474485120208	1474485120318	s	83
193098	2091304	Both leading candidates have promised to create jobs.	Both leading candidates have promsied to create jobs	99357579	1474485120267	1474485120377	i	73
193098	2091304	Both leading candidates have promised to create jobs.	Both leading candidates have promsied to create jobs	99357586	1474485120970	1474485121081	e	69
193098	2091304	Both leading candidates have promised to create jobs.	Both leading candidates have promsied to create jobs	99357591	1474485121155	1474485121289	d	68
193098	2091304	Both leading candidates have promised to create jobs.	Both leading candidates have promsied to create jobs	99357619	1474485121259	1474485121424	 	32
193098	2091304	Both leading candidates have promised to create jobs.	Both leading candidates have promsied to create jobs	99357624	1474485121435	1474485121551	t	84
193098	2091304	Both leading candidates have promised to create jobs.	Both leading candidates have promsied to create jobs	99357627	1474485121481	1474485121611	o	79
193098	2091304	Both leading candidates have promised to create jobs.	Both leading candidates have promsied to create jobs	99357634	1474485121604	1474485121736	 	32
193098	2091304	Both leading candidates have promised to create jobs.	Both leading candidates have promsied to create jobs	99357639	1474485121759	1474485121883	c	67
193098	2091304	Both leading candidates have promised to create jobs.	Both leading candidates have promsied to create jobs	99357644	1474485121954	1474485122090	r	82
193098	2091304	Both leading candidates have promised to create jobs.	Both leading candidates have promsied to create jobs	99357698	1474485122012	1474485122131	e	69
193098	2091304	Both leading candidates have promised to create jobs.	Both leading candidates have promsied to create jobs	99357700	1474485122149	1474485122322	a	65
193098	2091304	Both leading candidates have promised to create jobs.	Both leading candidates have promsied to create jobs	99357703	1474485122291	1474485122471	t	84
193098	2091304	Both leading candidates have promised to create jobs.	Both leading candidates have promsied to create jobs	99357709	1474485122379	1474485122548	e	69
193098	2091304	Both leading candidates have promised to create jobs.	Both leading candidates have promsied to create jobs	99357712	1474485122472	1474485122665	 	32
193098	2091304	Both leading candidates have promised to create jobs.	Both leading candidates have promsied to create jobs	99357718	1474485122914	1474485123021	j	74
193098	2091304	Both leading candidates have promised to create jobs.	Both leading candidates have promsied to create jobs	99357728	1474485123037	1474485123174	o	79
193098	2091304	Both leading candidates have promised to create jobs.	Both leading candidates have promsied to create jobs	99357733	1474485123121	1474485123249	b	66
193098	2091321	Michael was great this AM.	Michaelws great this AM	99358101	1474485123331	1474485128199	s	83
193098	2091321	Michael was great this AM.	Michaelws great this AM	99358032	1474485125935	1474485126363	SHIFT	16
193098	2091321	Michael was great this AM.	Michaelws great this AM	99358035	1474485126264	1474485126416	M	77
193098	2091321	Michael was great this AM.	Michaelws great this AM	99358039	1474485126532	1474485126643	i	73
193098	2091321	Michael was great this AM.	Michaelws great this AM	99358044	1474485126648	1474485126778	c	67
193098	2091321	Michael was great this AM.	Michaelws great this AM	99358046	1474485126747	1474485126873	h	72
193098	2091321	Michael was great this AM.	Michaelws great this AM	99358048	1474485127240	1474485127381	a	65
193098	2091321	Michael was great this AM.	Michaelws great this AM	99358075	1474485127431	1474485127568	e	69
193098	2091321	Michael was great this AM.	Michaelws great this AM	99358081	1474485127570	1474485127710	l	76
193098	2091321	Michael was great this AM.	Michaelws great this AM	99358087	1474485127657	1474485127810	 	32
193098	2091321	Michael was great this AM.	Michaelws great this AM	99358099	1474485127906	1474485128094	a	65
193098	2091321	Michael was great this AM.	Michaelws great this AM	99358116	1474485128104	1474485128284	 	32
193098	2091321	Michael was great this AM.	Michaelws great this AM	99358122	1474485128401	1474485128507	g	71
193098	2091321	Michael was great this AM.	Michaelws great this AM	99358129	1474485128597	1474485128753	r	82
193098	2091321	Michael was great this AM.	Michaelws great this AM	99358137	1474485128649	1474485128791	e	69
193098	2091321	Michael was great this AM.	Michaelws great this AM	99358143	1474485128804	1474485128965	a	65
193098	2091321	Michael was great this AM.	Michaelws great this AM	99358148	1474485128978	1474485129175	t	84
193098	2091321	Michael was great this AM.	Michaelws great this AM	99358180	1474485129116	1474485129253	 	32
193098	2091321	Michael was great this AM.	Michaelws great this AM	99358183	1474485129499	1474485129579	t	84
193098	2091321	Michael was great this AM.	Michaelws great this AM	99358185	1474485129554	1474485129662	h	72
193098	2091321	Michael was great this AM.	Michaelws great this AM	99358189	1474485129916	1474485130056	i	73
193098	2091321	Michael was great this AM.	Michaelws great this AM	99358193	1474485130033	1474485130162	s	83
193098	2091321	Michael was great this AM.	Michaelws great this AM	99358213	1474485130097	1474485130260	 	32
193098	2091321	Michael was great this AM.	Michaelws great this AM	99358220	1474485130282	1474485130667	SHIFT	16
193098	2091321	Michael was great this AM.	Michaelws great this AM	99358216	1474485130361	1474485130464	A	65
193098	2091321	Michael was great this AM.	Michaelws great this AM	99358217	1474485130521	1474485130649	M	77
193098	2091333	I told you silly.	I told you silly.	99358755	1474485139054	1474485139639	SHIFT	16
193098	2091333	I told you silly.	I told you silly.	99358758	1474485139326	1474485139650	I	73
193098	2091333	I told you silly.	I told you silly.	99358767	1474485139732	1474485139885	 	32
193098	2091333	I told you silly.	I told you silly.	99358773	1474485139944	1474485140061	t	84
193098	2091333	I told you silly.	I told you silly.	99358779	1474485140022	1474485140135	o	79
193098	2091333	I told you silly.	I told you silly.	99358786	1474485140206	1474485140323	l	76
193098	2091333	I told you silly.	I told you silly.	99358819	1474485140317	1474485140476	d	68
193098	2091333	I told you silly.	I told you silly.	99358824	1474485140409	1474485140568	 	32
193098	2091333	I told you silly.	I told you silly.	99358829	1474485140641	1474485140738	t	84
193098	2091333	I told you silly.	I told you silly.	99358833	1474485140730	1474485140866	o	79
193098	2091333	I told you silly.	I told you silly.	99358835	1474485140981	1474485141130	BKSP	8
193098	2091333	I told you silly.	I told you silly.	99358836	1474485141078	1474485141213	y	89
193098	2091333	I told you silly.	I told you silly.	99358884	1474485141193	1474485141315	o	79
193098	2091333	I told you silly.	I told you silly.	99358887	1474485141254	1474485141384	u	85
193098	2091333	I told you silly.	I told you silly.	99358891	1474485141406	1474485141519	BKSP	8
193098	2091333	I told you silly.	I told you silly.	99358895	1474485141572	1474485141663	BKSP	8
193098	2091333	I told you silly.	I told you silly.	99358900	1474485141720	1474485141805	BKSP	8
193098	2091333	I told you silly.	I told you silly.	99358903	1474485141857	1474485141952	BKSP	8
193098	2091333	I told you silly.	I told you silly.	99358907	1474485142009	1474485142155	y	89
193098	2091333	I told you silly.	I told you silly.	99358911	1474485142103	1474485142225	o	79
193098	2091333	I told you silly.	I told you silly.	99358915	1474485142209	1474485142359	u	85
193098	2091333	I told you silly.	I told you silly.	99359018	1474485142288	1474485142433	n	32
193098	2091333	I told you silly.	I told you silly.	99359024	1474485142529	1474485142665	s	83
193098	2091333	I told you silly.	I told you silly.	99359030	1474485142651	1474485142747	u	85
193098	2091333	I told you silly.	I told you silly.	99359034	1474485142871	1474485142978	BKSP	8
193098	2091333	I told you silly.	I told you silly.	99359039	1474485143057	1474485143149	BKSP	8
193098	2091333	I told you silly.	I told you silly.	99359042	1474485143246	1474485143356	BKSP	8
193098	2091333	I told you silly.	I told you silly.	99359044	1474485143612	1474485143740	s	83
193098	2091333	I told you silly.	I told you silly.	99359046	1474485143726	1474485143822	i	73
193098	2091333	I told you silly.	I told you silly.	99359049	1474485144043	1474485144167	l	76
193098	2091333	I told you silly.	I told you silly.	99359059	1474485144200	1474485144303	l	76
193098	2091333	I told you silly.	I told you silly.	99359062	1474485144382	1474485144505	y	89
193098	2091333	I told you silly.	I told you silly.	99359069	1474485144520	1474485144641	.	190
193098	2091345	Add a Star Trek convention and sports memorabilia show to the mix.	Add a Star Trek convention and sports memorabilia show to the mix.	99360142	1474485163180	1474485163459	SHIFT	16
193098	2091345	Add a Star Trek convention and sports memorabilia show to the mix.	Add a Star Trek convention and sports memorabilia show to the mix.	99360146	1474485163373	1474485163503	A	65
193098	2091345	Add a Star Trek convention and sports memorabilia show to the mix.	Add a Star Trek convention and sports memorabilia show to the mix.	99360150	1474485163551	1474485163669	d	68
193098	2091345	Add a Star Trek convention and sports memorabilia show to the mix.	Add a Star Trek convention and sports memorabilia show to the mix.	99360153	1474485163697	1474485163873	d	68
193098	2091345	Add a Star Trek convention and sports memorabilia show to the mix.	Add a Star Trek convention and sports memorabilia show to the mix.	99360155	1474485163812	1474485163980	 	32
193098	2091345	Add a Star Trek convention and sports memorabilia show to the mix.	Add a Star Trek convention and sports memorabilia show to the mix.	99360237	1474485163898	1474485164043	a	65
193098	2091345	Add a Star Trek convention and sports memorabilia show to the mix.	Add a Star Trek convention and sports memorabilia show to the mix.	99360238	1474485164033	1474485164182	 	32
193098	2091345	Add a Star Trek convention and sports memorabilia show to the mix.	Add a Star Trek convention and sports memorabilia show to the mix.	99360239	1474485164189	1474485164336	s	83
193098	2091345	Add a Star Trek convention and sports memorabilia show to the mix.	Add a Star Trek convention and sports memorabilia show to the mix.	99360240	1474485164467	1474485164569	t	84
193098	2091345	Add a Star Trek convention and sports memorabilia show to the mix.	Add a Star Trek convention and sports memorabilia show to the mix.	99360243	1474485164648	1474485164763	BKSP	8
193098	2091345	Add a Star Trek convention and sports memorabilia show to the mix.	Add a Star Trek convention and sports memorabilia show to the mix.	99360248	1474485164798	1474485164897	BKSP	8
193098	2091345	Add a Star Trek convention and sports memorabilia show to the mix.	Add a Star Trek convention and sports memorabilia show to the mix.	99360258	1474485165062	1474485165252	SHIFT	16
193098	2091345	Add a Star Trek convention and sports memorabilia show to the mix.	Add a Star Trek convention and sports memorabilia show to the mix.	99360252	1474485165153	1474485165245	S	83
193098	2091345	Add a Star Trek convention and sports memorabilia show to the mix.	Add a Star Trek convention and sports memorabilia show to the mix.	99360262	1474485165379	1474485165489	t	84
193098	2091345	Add a Star Trek convention and sports memorabilia show to the mix.	Add a Star Trek convention and sports memorabilia show to the mix.	99360333	1474485165557	1474485165697	a	65
193098	2091345	Add a Star Trek convention and sports memorabilia show to the mix.	Add a Star Trek convention and sports memorabilia show to the mix.	99360336	1474485165631	1474485165795	r	82
193098	2091345	Add a Star Trek convention and sports memorabilia show to the mix.	Add a Star Trek convention and sports memorabilia show to the mix.	99360337	1474485165744	1474485165918	 	32
193098	2091345	Add a Star Trek convention and sports memorabilia show to the mix.	Add a Star Trek convention and sports memorabilia show to the mix.	99360341	1474485165916	1474485166427	SHIFT	16
193098	2091345	Add a Star Trek convention and sports memorabilia show to the mix.	Add a Star Trek convention and sports memorabilia show to the mix.	99360339	1474485166275	1474485166370	T	84
193098	2091345	Add a Star Trek convention and sports memorabilia show to the mix.	Add a Star Trek convention and sports memorabilia show to the mix.	99360342	1474485166579	1474485166741	r	82
193098	2091345	Add a Star Trek convention and sports memorabilia show to the mix.	Add a Star Trek convention and sports memorabilia show to the mix.	99360361	1474485166669	1474485166800	e	69
193098	2091345	Add a Star Trek convention and sports memorabilia show to the mix.	Add a Star Trek convention and sports memorabilia show to the mix.	99360364	1474485166828	1474485166951	k	75
193098	2091345	Add a Star Trek convention and sports memorabilia show to the mix.	Add a Star Trek convention and sports memorabilia show to the mix.	99360370	1474485166924	1474485167066	 	32
193098	2091345	Add a Star Trek convention and sports memorabilia show to the mix.	Add a Star Trek convention and sports memorabilia show to the mix.	99360373	1474485167140	1474485167265	c	67
193098	2091345	Add a Star Trek convention and sports memorabilia show to the mix.	Add a Star Trek convention and sports memorabilia show to the mix.	99360377	1474485167224	1474485167391	o	79
193098	2091345	Add a Star Trek convention and sports memorabilia show to the mix.	Add a Star Trek convention and sports memorabilia show to the mix.	99360447	1474485167321	1474485167457	n	78
193098	2091345	Add a Star Trek convention and sports memorabilia show to the mix.	Add a Star Trek convention and sports memorabilia show to the mix.	99360451	1474485167763	1474485167884	v	86
193098	2091345	Add a Star Trek convention and sports memorabilia show to the mix.	Add a Star Trek convention and sports memorabilia show to the mix.	99360456	1474485167933	1474485168070	e	69
193098	2091345	Add a Star Trek convention and sports memorabilia show to the mix.	Add a Star Trek convention and sports memorabilia show to the mix.	99360460	1474485168047	1474485168180	n	78
193098	2091345	Add a Star Trek convention and sports memorabilia show to the mix.	Add a Star Trek convention and sports memorabilia show to the mix.	99360463	1474485168149	1474485168253	t	84
193098	2091345	Add a Star Trek convention and sports memorabilia show to the mix.	Add a Star Trek convention and sports memorabilia show to the mix.	99360466	1474485168295	1474485168435	i	73
193098	2091345	Add a Star Trek convention and sports memorabilia show to the mix.	Add a Star Trek convention and sports memorabilia show to the mix.	99360498	1474485168381	1474485168503	o	79
193098	2091345	Add a Star Trek convention and sports memorabilia show to the mix.	Add a Star Trek convention and sports memorabilia show to the mix.	99360499	1474485168583	1474485168713	n	78
193098	2091345	Add a Star Trek convention and sports memorabilia show to the mix.	Add a Star Trek convention and sports memorabilia show to the mix.	99360501	1474485168749	1474485168891	 	32
193098	2091345	Add a Star Trek convention and sports memorabilia show to the mix.	Add a Star Trek convention and sports memorabilia show to the mix.	99360503	1474485168883	1474485169020	a	65
193098	2091345	Add a Star Trek convention and sports memorabilia show to the mix.	Add a Star Trek convention and sports memorabilia show to the mix.	99360504	1474485169039	1474485169167	n	78
193098	2091345	Add a Star Trek convention and sports memorabilia show to the mix.	Add a Star Trek convention and sports memorabilia show to the mix.	99360541	1474485169117	1474485169347	d	68
193098	2091345	Add a Star Trek convention and sports memorabilia show to the mix.	Add a Star Trek convention and sports memorabilia show to the mix.	99360545	1474485169275	1474485169440	 	32
193098	2091345	Add a Star Trek convention and sports memorabilia show to the mix.	Add a Star Trek convention and sports memorabilia show to the mix.	99360554	1474485169561	1474485169671	s	83
193098	2091345	Add a Star Trek convention and sports memorabilia show to the mix.	Add a Star Trek convention and sports memorabilia show to the mix.	99360556	1474485169689	1474485169829	p	80
193098	2091345	Add a Star Trek convention and sports memorabilia show to the mix.	Add a Star Trek convention and sports memorabilia show to the mix.	99360561	1474485169755	1474485169894	o	79
193098	2091345	Add a Star Trek convention and sports memorabilia show to the mix.	Add a Star Trek convention and sports memorabilia show to the mix.	99360604	1474485169892	1474485170062	r	82
193098	2091345	Add a Star Trek convention and sports memorabilia show to the mix.	Add a Star Trek convention and sports memorabilia show to the mix.	99360609	1474485169992	1474485170127	t	84
193098	2091345	Add a Star Trek convention and sports memorabilia show to the mix.	Add a Star Trek convention and sports memorabilia show to the mix.	99360613	1474485170184	1474485170315	s	83
193098	2091345	Add a Star Trek convention and sports memorabilia show to the mix.	Add a Star Trek convention and sports memorabilia show to the mix.	99360618	1474485170323	1474485170498	 	32
193098	2091345	Add a Star Trek convention and sports memorabilia show to the mix.	Add a Star Trek convention and sports memorabilia show to the mix.	99360620	1474485170518	1474485170658	m	77
193098	2091345	Add a Star Trek convention and sports memorabilia show to the mix.	Add a Star Trek convention and sports memorabilia show to the mix.	99360625	1474485170674	1474485170804	e	69
193098	2091345	Add a Star Trek convention and sports memorabilia show to the mix.	Add a Star Trek convention and sports memorabilia show to the mix.	99360718	1474485170834	1474485170962	m	77
193098	2091345	Add a Star Trek convention and sports memorabilia show to the mix.	Add a Star Trek convention and sports memorabilia show to the mix.	99360723	1474485171278	1474485171418	o	79
193098	2091345	Add a Star Trek convention and sports memorabilia show to the mix.	Add a Star Trek convention and sports memorabilia show to the mix.	99360727	1474485171567	1474485171692	r	82
193098	2091345	Add a Star Trek convention and sports memorabilia show to the mix.	Add a Star Trek convention and sports memorabilia show to the mix.	99360729	1474485171746	1474485171872	a	65
193098	2091345	Add a Star Trek convention and sports memorabilia show to the mix.	Add a Star Trek convention and sports memorabilia show to the mix.	99360731	1474485172120	1474485172211	b	66
193098	2091345	Add a Star Trek convention and sports memorabilia show to the mix.	Add a Star Trek convention and sports memorabilia show to the mix.	99360756	1474485172260	1474485172355	i	73
193098	2091345	Add a Star Trek convention and sports memorabilia show to the mix.	Add a Star Trek convention and sports memorabilia show to the mix.	99360760	1474485172448	1474485172520	l	76
193098	2091345	Add a Star Trek convention and sports memorabilia show to the mix.	Add a Star Trek convention and sports memorabilia show to the mix.	99360764	1474485172608	1474485172715	i	73
193098	2091345	Add a Star Trek convention and sports memorabilia show to the mix.	Add a Star Trek convention and sports memorabilia show to the mix.	99360767	1474485172712	1474485172861	a	65
193098	2091345	Add a Star Trek convention and sports memorabilia show to the mix.	Add a Star Trek convention and sports memorabilia show to the mix.	99360805	1474485172803	1474485172965	 	32
193098	2091345	Add a Star Trek convention and sports memorabilia show to the mix.	Add a Star Trek convention and sports memorabilia show to the mix.	99360809	1474485173028	1474485173148	s	83
193098	2091345	Add a Star Trek convention and sports memorabilia show to the mix.	Add a Star Trek convention and sports memorabilia show to the mix.	99360819	1474485173105	1474485173211	h	72
193098	2091345	Add a Star Trek convention and sports memorabilia show to the mix.	Add a Star Trek convention and sports memorabilia show to the mix.	99360828	1474485173283	1474485173408	o	79
193098	2091345	Add a Star Trek convention and sports memorabilia show to the mix.	Add a Star Trek convention and sports memorabilia show to the mix.	99360834	1474485173419	1474485173593	w	87
193098	2091345	Add a Star Trek convention and sports memorabilia show to the mix.	Add a Star Trek convention and sports memorabilia show to the mix.	99360873	1474485173473	1474485173629	 	32
193098	2091345	Add a Star Trek convention and sports memorabilia show to the mix.	Add a Star Trek convention and sports memorabilia show to the mix.	99360879	1474485173718	1474485173837	t	84
193098	2091345	Add a Star Trek convention and sports memorabilia show to the mix.	Add a Star Trek convention and sports memorabilia show to the mix.	99360883	1474485173808	1474485173942	o	79
193098	2091345	Add a Star Trek convention and sports memorabilia show to the mix.	Add a Star Trek convention and sports memorabilia show to the mix.	99360891	1474485174086	1474485174236	 	32
193098	2091345	Add a Star Trek convention and sports memorabilia show to the mix.	Add a Star Trek convention and sports memorabilia show to the mix.	99360897	1474485174247	1474485174362	t	84
193098	2091345	Add a Star Trek convention and sports memorabilia show to the mix.	Add a Star Trek convention and sports memorabilia show to the mix.	99360930	1474485174324	1474485174459	h	72
193098	2091345	Add a Star Trek convention and sports memorabilia show to the mix.	Add a Star Trek convention and sports memorabilia show to the mix.	99360936	1474485174420	1474485174542	e	69
193098	2091345	Add a Star Trek convention and sports memorabilia show to the mix.	Add a Star Trek convention and sports memorabilia show to the mix.	99360943	1474485174481	1474485174617	 	32
193098	2091345	Add a Star Trek convention and sports memorabilia show to the mix.	Add a Star Trek convention and sports memorabilia show to the mix.	99360949	1474485174557	1474485174722	m	77
193098	2091345	Add a Star Trek convention and sports memorabilia show to the mix.	Add a Star Trek convention and sports memorabilia show to the mix.	99360953	1474485174643	1474485174787	i	73
193098	2091345	Add a Star Trek convention and sports memorabilia show to the mix.	Add a Star Trek convention and sports memorabilia show to the mix.	99360961	1474485174781	1474485174911	x	88
193098	2091345	Add a Star Trek convention and sports memorabilia show to the mix.	Add a Star Trek convention and sports memorabilia show to the mix.	99360963	1474485175007	1474485175124	.	190
193098	2091389	Neither player is going to be a clear-cut starter this week.	Neither player is going to be a clear-cut starter this week.	99361218	1474485177545	1474485177940	SHIFT	16
193098	2091389	Neither player is going to be a clear-cut starter this week.	Neither player is going to be a clear-cut starter this week.	99361214	1474485177835	1474485177922	N	78
193098	2091389	Neither player is going to be a clear-cut starter this week.	Neither player is going to be a clear-cut starter this week.	99361222	1474485178020	1474485178158	e	69
193098	2091389	Neither player is going to be a clear-cut starter this week.	Neither player is going to be a clear-cut starter this week.	99361225	1474485178119	1474485178236	i	73
193098	2091389	Neither player is going to be a clear-cut starter this week.	Neither player is going to be a clear-cut starter this week.	99361228	1474485178222	1474485178329	t	84
193098	2091389	Neither player is going to be a clear-cut starter this week.	Neither player is going to be a clear-cut starter this week.	99361239	1474485178319	1474485178419	h	72
193098	2091389	Neither player is going to be a clear-cut starter this week.	Neither player is going to be a clear-cut starter this week.	99361241	1474485178392	1474485178531	e	69
193098	2091389	Neither player is going to be a clear-cut starter this week.	Neither player is going to be a clear-cut starter this week.	99361245	1474485178436	1474485178591	r	82
193098	2091389	Neither player is going to be a clear-cut starter this week.	Neither player is going to be a clear-cut starter this week.	99361249	1474485178519	1474485178692	 	32
193098	2091389	Neither player is going to be a clear-cut starter this week.	Neither player is going to be a clear-cut starter this week.	99361254	1474485178637	1474485178779	p	80
193098	2091389	Neither player is going to be a clear-cut starter this week.	Neither player is going to be a clear-cut starter this week.	99361271	1474485178698	1474485178831	l	76
193098	2091389	Neither player is going to be a clear-cut starter this week.	Neither player is going to be a clear-cut starter this week.	99361273	1474485178761	1474485178891	a	65
193098	2091389	Neither player is going to be a clear-cut starter this week.	Neither player is going to be a clear-cut starter this week.	99361276	1474485179036	1474485179166	y	89
193098	2091389	Neither player is going to be a clear-cut starter this week.	Neither player is going to be a clear-cut starter this week.	99361284	1474485179158	1474485179286	e	69
193098	2091389	Neither player is going to be a clear-cut starter this week.	Neither player is going to be a clear-cut starter this week.	99361291	1474485179218	1474485179374	r	82
193098	2091389	Neither player is going to be a clear-cut starter this week.	Neither player is going to be a clear-cut starter this week.	99361300	1474485179341	1474485179476	 	32
193098	2091389	Neither player is going to be a clear-cut starter this week.	Neither player is going to be a clear-cut starter this week.	99361350	1474485179417	1474485179570	i	73
193098	2091389	Neither player is going to be a clear-cut starter this week.	Neither player is going to be a clear-cut starter this week.	99361352	1474485179579	1474485179723	s	83
193098	2091389	Neither player is going to be a clear-cut starter this week.	Neither player is going to be a clear-cut starter this week.	99361355	1474485179656	1474485179816	 	32
193098	2091389	Neither player is going to be a clear-cut starter this week.	Neither player is going to be a clear-cut starter this week.	99361358	1474485179908	1474485180065	o	79
193098	2091389	Neither player is going to be a clear-cut starter this week.	Neither player is going to be a clear-cut starter this week.	99361365	1474485180216	1474485180349	BKSP	8
193098	2091389	Neither player is going to be a clear-cut starter this week.	Neither player is going to be a clear-cut starter this week.	99361372	1474485180355	1474485180448	g	71
193098	2091389	Neither player is going to be a clear-cut starter this week.	Neither player is going to be a clear-cut starter this week.	99361414	1474485180412	1474485180528	o	79
193098	2091389	Neither player is going to be a clear-cut starter this week.	Neither player is going to be a clear-cut starter this week.	99361419	1474485180563	1474485180657	i	73
193098	2091389	Neither player is going to be a clear-cut starter this week.	Neither player is going to be a clear-cut starter this week.	99361424	1474485180732	1474485180852	n	78
193098	2091389	Neither player is going to be a clear-cut starter this week.	Neither player is going to be a clear-cut starter this week.	99361429	1474485180820	1474485180948	g	71
193098	2091389	Neither player is going to be a clear-cut starter this week.	Neither player is going to be a clear-cut starter this week.	99361434	1474485180897	1474485181032	 	32
193098	2091389	Neither player is going to be a clear-cut starter this week.	Neither player is going to be a clear-cut starter this week.	99361438	1474485181037	1474485181172	t	84
193098	2091389	Neither player is going to be a clear-cut starter this week.	Neither player is going to be a clear-cut starter this week.	99361468	1474485181131	1474485181261	o	79
193098	2091389	Neither player is going to be a clear-cut starter this week.	Neither player is going to be a clear-cut starter this week.	99361472	1474485181239	1474485181403	 	32
193098	2091389	Neither player is going to be a clear-cut starter this week.	Neither player is going to be a clear-cut starter this week.	99361476	1474485181377	1474485181481	b	66
193098	2091389	Neither player is going to be a clear-cut starter this week.	Neither player is going to be a clear-cut starter this week.	99361482	1474485181495	1474485181654	e	69
193098	2091389	Neither player is going to be a clear-cut starter this week.	Neither player is going to be a clear-cut starter this week.	99361487	1474485181591	1474485181743	 	32
193098	2091389	Neither player is going to be a clear-cut starter this week.	Neither player is going to be a clear-cut starter this week.	99361515	1474485181695	1474485181842	a	65
193098	2091389	Neither player is going to be a clear-cut starter this week.	Neither player is going to be a clear-cut starter this week.	99361518	1474485181796	1474485181964	 	32
193098	2091389	Neither player is going to be a clear-cut starter this week.	Neither player is going to be a clear-cut starter this week.	99361522	1474485182099	1474485182233	c	67
193098	2091389	Neither player is going to be a clear-cut starter this week.	Neither player is going to be a clear-cut starter this week.	99361527	1474485182219	1474485182342	l	76
193098	2091389	Neither player is going to be a clear-cut starter this week.	Neither player is going to be a clear-cut starter this week.	99361532	1474485182339	1474485182490	e	69
193098	2091389	Neither player is going to be a clear-cut starter this week.	Neither player is going to be a clear-cut starter this week.	99361624	1474485182411	1474485182555	a	65
193098	2091389	Neither player is going to be a clear-cut starter this week.	Neither player is going to be a clear-cut starter this week.	99361629	1474485182579	1474485182722	r	82
193098	2091389	Neither player is going to be a clear-cut starter this week.	Neither player is going to be a clear-cut starter this week.	99361633	1474485182967	1474485183173	-	189
193098	2091389	Neither player is going to be a clear-cut starter this week.	Neither player is going to be a clear-cut starter this week.	99361637	1474485183279	1474485183349	v	86
193098	2091389	Neither player is going to be a clear-cut starter this week.	Neither player is going to be a clear-cut starter this week.	99361642	1474485183768	1474485183904	BKSP	8
193098	2091389	Neither player is going to be a clear-cut starter this week.	Neither player is going to be a clear-cut starter this week.	99361648	1474485183884	1474485184018	c	67
193098	2091389	Neither player is going to be a clear-cut starter this week.	Neither player is going to be a clear-cut starter this week.	99361736	1474485183992	1474485184105	u	85
193098	2091389	Neither player is going to be a clear-cut starter this week.	Neither player is going to be a clear-cut starter this week.	99361739	1474485184114	1474485184276	t	84
193098	2091389	Neither player is going to be a clear-cut starter this week.	Neither player is going to be a clear-cut starter this week.	99361742	1474485184190	1474485184344	 	32
193098	2091389	Neither player is going to be a clear-cut starter this week.	Neither player is going to be a clear-cut starter this week.	99361746	1474485184720	1474485184845	s	83
193098	2091389	Neither player is going to be a clear-cut starter this week.	Neither player is going to be a clear-cut starter this week.	99361754	1474485184912	1474485185052	t	84
193098	2091389	Neither player is going to be a clear-cut starter this week.	Neither player is going to be a clear-cut starter this week.	99361769	1474485185113	1474485185256	a	65
193098	2091389	Neither player is going to be a clear-cut starter this week.	Neither player is going to be a clear-cut starter this week.	99361825	1474485185203	1474485185320	r	82
193098	2091389	Neither player is going to be a clear-cut starter this week.	Neither player is going to be a clear-cut starter this week.	99361830	1474485185397	1474485185483	t	84
193098	2091389	Neither player is going to be a clear-cut starter this week.	Neither player is going to be a clear-cut starter this week.	99361841	1474485185537	1474485185708	e	69
193098	2091389	Neither player is going to be a clear-cut starter this week.	Neither player is going to be a clear-cut starter this week.	99361848	1474485185618	1474485185760	r	82
193098	2091389	Neither player is going to be a clear-cut starter this week.	Neither player is going to be a clear-cut starter this week.	99361853	1474485185665	1474485185864	 	32
193098	2091389	Neither player is going to be a clear-cut starter this week.	Neither player is going to be a clear-cut starter this week.	99361887	1474485185833	1474485185938	t	84
193098	2091389	Neither player is going to be a clear-cut starter this week.	Neither player is going to be a clear-cut starter this week.	99361891	1474485185902	1474485185995	h	72
193098	2091389	Neither player is going to be a clear-cut starter this week.	Neither player is going to be a clear-cut starter this week.	99361898	1474485186024	1474485186170	i	73
193098	2091389	Neither player is going to be a clear-cut starter this week.	Neither player is going to be a clear-cut starter this week.	99361904	1474485186137	1474485186259	s	83
193098	2091389	Neither player is going to be a clear-cut starter this week.	Neither player is going to be a clear-cut starter this week.	99361911	1474485186188	1474485186335	 	32
193098	2091389	Neither player is going to be a clear-cut starter this week.	Neither player is going to be a clear-cut starter this week.	99361917	1474485186367	1474485186510	w	87
193098	2091389	Neither player is going to be a clear-cut starter this week.	Neither player is going to be a clear-cut starter this week.	99361939	1474485186464	1474485186592	e	69
193098	2091389	Neither player is going to be a clear-cut starter this week.	Neither player is going to be a clear-cut starter this week.	99361942	1474485186645	1474485186771	e	69
193098	2091389	Neither player is going to be a clear-cut starter this week.	Neither player is going to be a clear-cut starter this week.	99361945	1474485186740	1474485186876	k	75
193098	2091389	Neither player is going to be a clear-cut starter this week.	Neither player is going to be a clear-cut starter this week.	99361950	1474485186951	1474485187083	.	190
193098	2091407	He is listed as probable for Monday's game against Tennessee.	He is listed as probable for Monday's game against s	99362214	1474485189375	1474485189631	SHIFT	16
193098	2091407	He is listed as probable for Monday's game against Tennessee.	He is listed as probable for Monday's game against s	99362216	1474485189570	1474485189676	H	72
193098	2091407	He is listed as probable for Monday's game against Tennessee.	He is listed as probable for Monday's game against s	99362219	1474485189739	1474485189901	e	69
193098	2091407	He is listed as probable for Monday's game against Tennessee.	He is listed as probable for Monday's game against s	99362223	1474485189818	1474485189996	 	32
193098	2091407	He is listed as probable for Monday's game against Tennessee.	He is listed as probable for Monday's game against s	99362226	1474485189947	1474485190107	i	73
193098	2091407	He is listed as probable for Monday's game against Tennessee.	He is listed as probable for Monday's game against s	99362300	1474485190071	1474485190208	s	83
193098	2091407	He is listed as probable for Monday's game against Tennessee.	He is listed as probable for Monday's game against s	99362302	1474485190156	1474485190331	 	32
193098	2091407	He is listed as probable for Monday's game against Tennessee.	He is listed as probable for Monday's game against s	99362306	1474485190625	1474485190732	l	76
193098	2091407	He is listed as probable for Monday's game against Tennessee.	He is listed as probable for Monday's game against s	99362310	1474485190793	1474485190890	i	73
193098	2091407	He is listed as probable for Monday's game against Tennessee.	He is listed as probable for Monday's game against s	99362312	1474485190860	1474485191014	s	83
193098	2091407	He is listed as probable for Monday's game against Tennessee.	He is listed as probable for Monday's game against s	99362316	1474485191081	1474485191190	t	84
193098	2091407	He is listed as probable for Monday's game against Tennessee.	He is listed as probable for Monday's game against s	99362361	1474485191613	1474485191747	e	69
193098	2091407	He is listed as probable for Monday's game against Tennessee.	He is listed as probable for Monday's game against s	99362364	1474485191674	1474485191870	d	68
193098	2091407	He is listed as probable for Monday's game against Tennessee.	He is listed as probable for Monday's game against s	99362367	1474485191815	1474485191991	 	32
193098	2091407	He is listed as probable for Monday's game against Tennessee.	He is listed as probable for Monday's game against s	99362371	1474485192063	1474485192246	a	65
193098	2091407	He is listed as probable for Monday's game against Tennessee.	He is listed as probable for Monday's game against s	99362415	1474485192178	1474485192353	s	83
193098	2091407	He is listed as probable for Monday's game against Tennessee.	He is listed as probable for Monday's game against s	99362419	1474485192302	1474485192467	 	32
193098	2091407	He is listed as probable for Monday's game against Tennessee.	He is listed as probable for Monday's game against s	99362421	1474485192451	1474485192586	p	80
193098	2091407	He is listed as probable for Monday's game against Tennessee.	He is listed as probable for Monday's game against s	99362424	1474485192575	1474485192710	r	82
193098	2091407	He is listed as probable for Monday's game against Tennessee.	He is listed as probable for Monday's game against s	99362429	1474485192728	1474485192819	o	79
193098	2091407	He is listed as probable for Monday's game against Tennessee.	He is listed as probable for Monday's game against s	99362433	1474485192914	1474485193015	b	66
193098	2091407	He is listed as probable for Monday's game against Tennessee.	He is listed as probable for Monday's game against s	99362470	1474485193183	1474485193284	a	65
193098	2091407	He is listed as probable for Monday's game against Tennessee.	He is listed as probable for Monday's game against s	99362479	1474485193421	1474485193545	b	66
193098	2091407	He is listed as probable for Monday's game against Tennessee.	He is listed as probable for Monday's game against s	99362487	1474485193594	1474485193730	l	76
193098	2091407	He is listed as probable for Monday's game against Tennessee.	He is listed as probable for Monday's game against s	99362499	1474485193681	1474485193849	e	69
193098	2091407	He is listed as probable for Monday's game against Tennessee.	He is listed as probable for Monday's game against s	99362508	1474485193777	1474485193926	 	32
193098	2091407	He is listed as probable for Monday's game against Tennessee.	He is listed as probable for Monday's game against s	99362512	1474485193958	1474485194084	f	70
193098	2091407	He is listed as probable for Monday's game against Tennessee.	He is listed as probable for Monday's game against s	99362525	1474485194062	1474485194172	o	79
193098	2091407	He is listed as probable for Monday's game against Tennessee.	He is listed as probable for Monday's game against s	99362530	1474485194141	1474485194276	r	82
193098	2091407	He is listed as probable for Monday's game against Tennessee.	He is listed as probable for Monday's game against s	99362536	1474485194199	1474485194341	 	32
193098	2091407	He is listed as probable for Monday's game against Tennessee.	He is listed as probable for Monday's game against s	99362622	1474485194323	1474485194447	m	77
193098	2091407	He is listed as probable for Monday's game against Tennessee.	He is listed as probable for Monday's game against s	99362627	1474485194628	1474485194733	BKSP	8
193098	2091407	He is listed as probable for Monday's game against Tennessee.	He is listed as probable for Monday's game against s	99362638	1474485194828	1474485195004	SHIFT	16
193098	2091407	He is listed as probable for Monday's game against Tennessee.	He is listed as probable for Monday's game against s	99362632	1474485194894	1474485194978	M	77
193098	2091407	He is listed as probable for Monday's game against Tennessee.	He is listed as probable for Monday's game against s	99362643	1474485195123	1474485195270	o	79
193098	2091407	He is listed as probable for Monday's game against Tennessee.	He is listed as probable for Monday's game against s	99362651	1474485195209	1474485195334	n	78
193098	2091407	He is listed as probable for Monday's game against Tennessee.	He is listed as probable for Monday's game against s	99362663	1474485195360	1474485195511	d	68
193098	2091407	He is listed as probable for Monday's game against Tennessee.	He is listed as probable for Monday's game against s	99362754	1474485195437	1474485195565	a	65
193098	2091407	He is listed as probable for Monday's game against Tennessee.	He is listed as probable for Monday's game against s	99362760	1474485195869	1474485195959	s	83
193098	2091407	He is listed as probable for Monday's game against Tennessee.	He is listed as probable for Monday's game against s	99362768	1474485196256	1474485196377	BKSP	8
193098	2091407	He is listed as probable for Monday's game against Tennessee.	He is listed as probable for Monday's game against s	99362775	1474485196374	1474485196473	y	89
193098	2091407	He is listed as probable for Monday's game against Tennessee.	He is listed as probable for Monday's game against s	99362782	1474485196667	1474485196761	'	222
193098	2091407	He is listed as probable for Monday's game against Tennessee.	He is listed as probable for Monday's game against s	99362788	1474485196734	1474485196883	s	83
193098	2091407	He is listed as probable for Monday's game against Tennessee.	He is listed as probable for Monday's game against s	99362835	1474485196852	1474485197023	 	32
193098	2091407	He is listed as probable for Monday's game against Tennessee.	He is listed as probable for Monday's game against s	99362840	1474485197395	1474485197496	g	71
193098	2091407	He is listed as probable for Monday's game against Tennessee.	He is listed as probable for Monday's game against s	99362845	1474485197540	1474485197672	a	65
193098	2091407	He is listed as probable for Monday's game against Tennessee.	He is listed as probable for Monday's game against s	99362849	1474485197654	1474485197761	m	77
193098	2091407	He is listed as probable for Monday's game against Tennessee.	He is listed as probable for Monday's game against s	99362855	1474485197740	1474485197905	e	69
193098	2091407	He is listed as probable for Monday's game against Tennessee.	He is listed as probable for Monday's game against s	99362905	1474485197837	1474485198011	 	32
193098	2091407	He is listed as probable for Monday's game against Tennessee.	He is listed as probable for Monday's game against s	99362909	1474485197992	1474485198121	a	65
193098	2091407	He is listed as probable for Monday's game against Tennessee.	He is listed as probable for Monday's game against s	99362915	1474485198186	1474485198293	g	71
193098	2091407	He is listed as probable for Monday's game against Tennessee.	He is listed as probable for Monday's game against s	99362920	1474485198340	1474485198457	a	65
193098	2091407	He is listed as probable for Monday's game against Tennessee.	He is listed as probable for Monday's game against s	99362927	1474485198433	1474485198608	i	73
193098	2091407	He is listed as probable for Monday's game against Tennessee.	He is listed as probable for Monday's game against s	99362988	1474485198545	1474485198685	n	78
193098	2091407	He is listed as probable for Monday's game against Tennessee.	He is listed as probable for Monday's game against s	99362993	1474485198631	1474485198753	s	83
193098	2091407	He is listed as probable for Monday's game against Tennessee.	He is listed as probable for Monday's game against s	99362998	1474485198798	1474485198918	t	84
193098	2091407	He is listed as probable for Monday's game against Tennessee.	He is listed as probable for Monday's game against s	99363001	1474485198919	1474485199037	 	32
193098	2091407	He is listed as probable for Monday's game against Tennessee.	He is listed as probable for Monday's game against s	99363007	1474485199110	1474485199191	s	83
193098	2091431	I don't want to even see it in kilometers.	I don't want to even see it in kilometers.	99363292	1474485202191	1474485203256	SHIFT	16
193098	2091431	I don't want to even see it in kilometers.	I don't want to even see it in kilometers.	99363294	1474485203137	1474485203269	I	73
193098	2091431	I don't want to even see it in kilometers.	I don't want to even see it in kilometers.	99363296	1474485203264	1474485203368	 	32
193098	2091431	I don't want to even see it in kilometers.	I don't want to even see it in kilometers.	99363299	1474485203409	1474485203545	d	68
193098	2091431	I don't want to even see it in kilometers.	I don't want to even see it in kilometers.	99363378	1474485203479	1474485203611	o	79
193098	2091431	I don't want to even see it in kilometers.	I don't want to even see it in kilometers.	99363382	1474485203532	1474485203640	n	78
193098	2091431	I don't want to even see it in kilometers.	I don't want to even see it in kilometers.	99363390	1474485203668	1474485203785	t	84
193098	2091431	I don't want to even see it in kilometers.	I don't want to even see it in kilometers.	99363397	1474485203977	1474485204106	BKSP	8
193098	2091431	I don't want to even see it in kilometers.	I don't want to even see it in kilometers.	99363402	1474485204143	1474485204255	'	222
193098	2091431	I don't want to even see it in kilometers.	I don't want to even see it in kilometers.	99363411	1474485204285	1474485204450	t	84
193098	2091431	I don't want to even see it in kilometers.	I don't want to even see it in kilometers.	99363419	1474485204430	1474485204596	 	32
193098	2091431	I don't want to even see it in kilometers.	I don't want to even see it in kilometers.	99363422	1474485204614	1474485204765	w	87
193098	2091431	I don't want to even see it in kilometers.	I don't want to even see it in kilometers.	99363521	1474485204714	1474485204853	a	65
193098	2091431	I don't want to even see it in kilometers.	I don't want to even see it in kilometers.	99363525	1474485204889	1474485204988	n	84
193098	2091431	I don't want to even see it in kilometers.	I don't want to even see it in kilometers.	99363528	1474485205119	1474485205246	 	32
193098	2091431	I don't want to even see it in kilometers.	I don't want to even see it in kilometers.	99363530	1474485205212	1474485205357	t	84
193098	2091431	I don't want to even see it in kilometers.	I don't want to even see it in kilometers.	99363534	1474485205465	1474485205567	BKSP	8
193098	2091431	I don't want to even see it in kilometers.	I don't want to even see it in kilometers.	99363538	1474485205614	1474485205704	BKSP	8
193098	2091431	I don't want to even see it in kilometers.	I don't want to even see it in kilometers.	99363542	1474485205754	1474485205834	BKSP	8
193098	2091431	I don't want to even see it in kilometers.	I don't want to even see it in kilometers.	99363546	1474485205869	1474485205985	BKSP	8
193098	2091431	I don't want to even see it in kilometers.	I don't want to even see it in kilometers.	99363550	1474485206003	1474485206168	b	66
193098	2091431	I don't want to even see it in kilometers.	I don't want to even see it in kilometers.	99363691	1474485206066	1474485206215	t	84
193098	2091431	I don't want to even see it in kilometers.	I don't want to even see it in kilometers.	99363694	1474485206267	1474485206409	 	32
193098	2091431	I don't want to even see it in kilometers.	I don't want to even see it in kilometers.	99363700	1474485206450	1474485206540	BKSP	8
193098	2091431	I don't want to even see it in kilometers.	I don't want to even see it in kilometers.	99363704	1474485206592	1474485206689	BKSP	8
193098	2091431	I don't want to even see it in kilometers.	I don't want to even see it in kilometers.	99363711	1474485206750	1474485206836	BKSP	8
193098	2091431	I don't want to even see it in kilometers.	I don't want to even see it in kilometers.	99363718	1474485206833	1474485207039	b	66
193098	2091431	I don't want to even see it in kilometers.	I don't want to even see it in kilometers.	99363728	1474485206960	1474485207105	t	84
193098	2091431	I don't want to even see it in kilometers.	I don't want to even see it in kilometers.	99363738	1474485207301	1474485207389	BKSP	8
193098	2091431	I don't want to even see it in kilometers.	I don't want to even see it in kilometers.	99363746	1474485207445	1474485207579	BKSP	8
193098	2091431	I don't want to even see it in kilometers.	I don't want to even see it in kilometers.	99363753	1474485207834	1474485207881	BKSP	8
193098	2091431	I don't want to even see it in kilometers.	I don't want to even see it in kilometers.	99363759	1474485208359	1474485208501	a	65
193098	2091431	I don't want to even see it in kilometers.	I don't want to even see it in kilometers.	99363762	1474485208510	1474485208625	n	78
193098	2091431	I don't want to even see it in kilometers.	I don't want to even see it in kilometers.	99363763	1474485208622	1474485208782	t	84
193098	2091431	I don't want to even see it in kilometers.	I don't want to even see it in kilometers.	99363768	1474485208692	1474485208864	 	32
193098	2091431	I don't want to even see it in kilometers.	I don't want to even see it in kilometers.	99363771	1474485208859	1474485208976	t	84
193098	2091431	I don't want to even see it in kilometers.	I don't want to even see it in kilometers.	99363774	1474485208925	1474485209064	o	79
193098	2091431	I don't want to even see it in kilometers.	I don't want to even see it in kilometers.	99363777	1474485208997	1474485209161	 	32
193098	2091431	I don't want to even see it in kilometers.	I don't want to even see it in kilometers.	99363780	1474485209197	1474485209334	e	69
193098	2091431	I don't want to even see it in kilometers.	I don't want to even see it in kilometers.	99363812	1474485209347	1474485209464	v	86
193098	2091431	I don't want to even see it in kilometers.	I don't want to even see it in kilometers.	99363816	1474485209476	1474485209626	e	69
193098	2091431	I don't want to even see it in kilometers.	I don't want to even see it in kilometers.	99363820	1474485209590	1474485209718	n	78
193098	2091431	I don't want to even see it in kilometers.	I don't want to even see it in kilometers.	99363824	1474485209725	1474485209866	 	32
193098	2091431	I don't want to even see it in kilometers.	I don't want to even see it in kilometers.	99363829	1474485210019	1474485210175	s	83
193098	2091431	I don't want to even see it in kilometers.	I don't want to even see it in kilometers.	99363878	1474485210124	1474485210254	e	69
193098	2091431	I don't want to even see it in kilometers.	I don't want to even see it in kilometers.	99363883	1474485210289	1474485210450	e	69
193098	2091431	I don't want to even see it in kilometers.	I don't want to even see it in kilometers.	99363892	1474485210386	1474485210575	 	32
193098	2091431	I don't want to even see it in kilometers.	I don't want to even see it in kilometers.	99363897	1474485210552	1474485210703	i	73
193098	2091431	I don't want to even see it in kilometers.	I don't want to even see it in kilometers.	99363901	1474485210898	1474485211027	t	84
193098	2091431	I don't want to even see it in kilometers.	I don't want to even see it in kilometers.	99363957	1474485210999	1474485211153	 	32
193098	2091431	I don't want to even see it in kilometers.	I don't want to even see it in kilometers.	99363961	1474485211128	1474485211290	i	73
193098	2091431	I don't want to even see it in kilometers.	I don't want to even see it in kilometers.	99363966	1474485211222	1474485211364	n	78
193098	2091431	I don't want to even see it in kilometers.	I don't want to even see it in kilometers.	99363973	1474485211268	1474485211423	 	32
193098	2091431	I don't want to even see it in kilometers.	I don't want to even see it in kilometers.	99363978	1474485211809	1474485211901	k	75
193098	2091431	I don't want to even see it in kilometers.	I don't want to even see it in kilometers.	99363984	1474485211944	1474485212048	i	73
193098	2091431	I don't want to even see it in kilometers.	I don't want to even see it in kilometers.	99364050	1474485212168	1474485212247	l	76
193098	2091431	I don't want to even see it in kilometers.	I don't want to even see it in kilometers.	99364056	1474485212394	1474485212535	m	77
193098	2091431	I don't want to even see it in kilometers.	I don't want to even see it in kilometers.	99364059	1474485212473	1474485212608	o	79
193098	2091431	I don't want to even see it in kilometers.	I don't want to even see it in kilometers.	99364063	1474485212699	1474485212799	BKSP	8
193098	2091431	I don't want to even see it in kilometers.	I don't want to even see it in kilometers.	99364065	1474485212838	1474485212958	BKSP	8
193098	2091431	I don't want to even see it in kilometers.	I don't want to even see it in kilometers.	99364070	1474485213062	1474485213208	o	79
193098	2091431	I don't want to even see it in kilometers.	I don't want to even see it in kilometers.	99364111	1474485213134	1474485213285	m	77
193098	2091431	I don't want to even see it in kilometers.	I don't want to even see it in kilometers.	99364117	1474485213383	1474485213560	e	69
193098	2091431	I don't want to even see it in kilometers.	I don't want to even see it in kilometers.	99364124	1474485213513	1474485213669	t	84
193098	2091431	I don't want to even see it in kilometers.	I don't want to even see it in kilometers.	99364130	1474485213664	1474485213837	e	69
193098	2091431	I don't want to even see it in kilometers.	I don't want to even see it in kilometers.	99364137	1474485213749	1474485213887	r	82
193098	2091431	I don't want to even see it in kilometers.	I don't want to even see it in kilometers.	99364141	1474485213955	1474485214088	s	83
193098	2091431	I don't want to even see it in kilometers.	I don't want to even see it in kilometers.	99364159	1474485214157	1474485214285	.	190
193098	2091456	The group is making a pilgrimage to the Catholic shrine of Fatima.	The group is making a pilgrimage to the Catholic shrine of Fatima.	99364987	1474485221025	1474485221282	CTRL	17
193098	2091456	The group is making a pilgrimage to the Catholic shrine of Fatima.	The group is making a pilgrimage to the Catholic shrine of Fatima.	99364993	1474485221703	1474485222419	CTRL	17
193098	2091456	The group is making a pilgrimage to the Catholic shrine of Fatima.	The group is making a pilgrimage to the Catholic shrine of Fatima.	99365000	1474485223227	1474485223862	CTRL	17
193098	2091456	The group is making a pilgrimage to the Catholic shrine of Fatima.	The group is making a pilgrimage to the Catholic shrine of Fatima.	99365002	1474485224281	1474485224821	ALT	18
193098	2091456	The group is making a pilgrimage to the Catholic shrine of Fatima.	The group is making a pilgrimage to the Catholic shrine of Fatima.	99365005	1474485224981	1474485225411	CTRL	17
193098	2091456	The group is making a pilgrimage to the Catholic shrine of Fatima.	The group is making a pilgrimage to the Catholic shrine of Fatima.	99365011	1474485226997	1474485227331	SHIFT	16
193098	2091456	The group is making a pilgrimage to the Catholic shrine of Fatima.	The group is making a pilgrimage to the Catholic shrine of Fatima.	99365008	1474485227189	1474485227314	T	84
193098	2091456	The group is making a pilgrimage to the Catholic shrine of Fatima.	The group is making a pilgrimage to the Catholic shrine of Fatima.	99365014	1474485227419	1474485227523	h	72
193098	2091456	The group is making a pilgrimage to the Catholic shrine of Fatima.	The group is making a pilgrimage to the Catholic shrine of Fatima.	99365020	1474485227629	1474485227763	e	69
193098	2091456	The group is making a pilgrimage to the Catholic shrine of Fatima.	The group is making a pilgrimage to the Catholic shrine of Fatima.	99365025	1474485227692	1474485227857	 	32
193098	2091456	The group is making a pilgrimage to the Catholic shrine of Fatima.	The group is making a pilgrimage to the Catholic shrine of Fatima.	99365029	1474485227921	1474485228027	g	71
193098	2091456	The group is making a pilgrimage to the Catholic shrine of Fatima.	The group is making a pilgrimage to the Catholic shrine of Fatima.	99365030	1474485228110	1474485228243	r	82
193098	2091456	The group is making a pilgrimage to the Catholic shrine of Fatima.	The group is making a pilgrimage to the Catholic shrine of Fatima.	99365033	1474485228244	1474485228397	o	79
193098	2091456	The group is making a pilgrimage to the Catholic shrine of Fatima.	The group is making a pilgrimage to the Catholic shrine of Fatima.	99365036	1474485228324	1474485228431	u	85
193098	2091456	The group is making a pilgrimage to the Catholic shrine of Fatima.	The group is making a pilgrimage to the Catholic shrine of Fatima.	99365039	1474485228494	1474485228634	p	80
193098	2091456	The group is making a pilgrimage to the Catholic shrine of Fatima.	The group is making a pilgrimage to the Catholic shrine of Fatima.	99365063	1474485228615	1474485228751	 	32
193098	2091456	The group is making a pilgrimage to the Catholic shrine of Fatima.	The group is making a pilgrimage to the Catholic shrine of Fatima.	99365067	1474485228742	1474485228878	i	73
193098	2091456	The group is making a pilgrimage to the Catholic shrine of Fatima.	The group is making a pilgrimage to the Catholic shrine of Fatima.	99365073	1474485228837	1474485228972	s	83
193098	2091456	The group is making a pilgrimage to the Catholic shrine of Fatima.	The group is making a pilgrimage to the Catholic shrine of Fatima.	99365079	1474485228895	1474485229036	 	32
193098	2091456	The group is making a pilgrimage to the Catholic shrine of Fatima.	The group is making a pilgrimage to the Catholic shrine of Fatima.	99365087	1474485229054	1474485229173	m	77
193098	2091456	The group is making a pilgrimage to the Catholic shrine of Fatima.	The group is making a pilgrimage to the Catholic shrine of Fatima.	99365121	1474485229162	1474485229290	a	65
193098	2091456	The group is making a pilgrimage to the Catholic shrine of Fatima.	The group is making a pilgrimage to the Catholic shrine of Fatima.	99365124	1474485229257	1474485229356	k	75
193098	2091456	The group is making a pilgrimage to the Catholic shrine of Fatima.	The group is making a pilgrimage to the Catholic shrine of Fatima.	99365127	1474485229423	1474485229573	i	73
193098	2091456	The group is making a pilgrimage to the Catholic shrine of Fatima.	The group is making a pilgrimage to the Catholic shrine of Fatima.	99365131	1474485229509	1474485229636	n	78
193098	2091456	The group is making a pilgrimage to the Catholic shrine of Fatima.	The group is making a pilgrimage to the Catholic shrine of Fatima.	99365135	1474485229615	1474485229771	g	71
193098	2091456	The group is making a pilgrimage to the Catholic shrine of Fatima.	The group is making a pilgrimage to the Catholic shrine of Fatima.	99365172	1474485229710	1474485229854	 	32
193098	2091456	The group is making a pilgrimage to the Catholic shrine of Fatima.	The group is making a pilgrimage to the Catholic shrine of Fatima.	99365177	1474485229825	1474485229976	a	65
193098	2091456	The group is making a pilgrimage to the Catholic shrine of Fatima.	The group is making a pilgrimage to the Catholic shrine of Fatima.	99365182	1474485229942	1474485230094	 	32
193098	2091456	The group is making a pilgrimage to the Catholic shrine of Fatima.	The group is making a pilgrimage to the Catholic shrine of Fatima.	99365188	1474485230098	1474485230220	p	80
193098	2091456	The group is making a pilgrimage to the Catholic shrine of Fatima.	The group is making a pilgrimage to the Catholic shrine of Fatima.	99365193	1474485230381	1474485230485	i	73
193098	2091456	The group is making a pilgrimage to the Catholic shrine of Fatima.	The group is making a pilgrimage to the Catholic shrine of Fatima.	99365198	1474485230596	1474485230709	l	76
193098	2091456	The group is making a pilgrimage to the Catholic shrine of Fatima.	The group is making a pilgrimage to the Catholic shrine of Fatima.	99365237	1474485231074	1474485231156	g	71
193098	2091456	The group is making a pilgrimage to the Catholic shrine of Fatima.	The group is making a pilgrimage to the Catholic shrine of Fatima.	99365240	1474485231260	1474485231373	r	82
193098	2091456	The group is making a pilgrimage to the Catholic shrine of Fatima.	The group is making a pilgrimage to the Catholic shrine of Fatima.	99365244	1474485231439	1474485231587	i	73
193098	2091456	The group is making a pilgrimage to the Catholic shrine of Fatima.	The group is making a pilgrimage to the Catholic shrine of Fatima.	99365249	1474485231515	1474485231658	m	77
193098	2091456	The group is making a pilgrimage to the Catholic shrine of Fatima.	The group is making a pilgrimage to the Catholic shrine of Fatima.	99365291	1474485231642	1474485231768	a	65
193098	2091456	The group is making a pilgrimage to the Catholic shrine of Fatima.	The group is making a pilgrimage to the Catholic shrine of Fatima.	99365295	1474485231809	1474485231990	g	71
193098	2091456	The group is making a pilgrimage to the Catholic shrine of Fatima.	The group is making a pilgrimage to the Catholic shrine of Fatima.	99365303	1474485231910	1474485232070	e	69
193098	2091456	The group is making a pilgrimage to the Catholic shrine of Fatima.	The group is making a pilgrimage to the Catholic shrine of Fatima.	99365311	1474485232031	1474485232187	 	32
193098	2091456	The group is making a pilgrimage to the Catholic shrine of Fatima.	The group is making a pilgrimage to the Catholic shrine of Fatima.	99365318	1474485232255	1474485232398	t	84
193098	2091456	The group is making a pilgrimage to the Catholic shrine of Fatima.	The group is making a pilgrimage to the Catholic shrine of Fatima.	99365322	1474485232477	1474485232603	 	32
193098	2091456	The group is making a pilgrimage to the Catholic shrine of Fatima.	The group is making a pilgrimage to the Catholic shrine of Fatima.	99365388	1474485232805	1474485232918	BKSP	8
193098	2091456	The group is making a pilgrimage to the Catholic shrine of Fatima.	The group is making a pilgrimage to the Catholic shrine of Fatima.	99365390	1474485232950	1474485233079	BKSP	8
193098	2091456	The group is making a pilgrimage to the Catholic shrine of Fatima.	The group is making a pilgrimage to the Catholic shrine of Fatima.	99365392	1474485233376	1474485233506	t	84
193098	2091456	The group is making a pilgrimage to the Catholic shrine of Fatima.	The group is making a pilgrimage to the Catholic shrine of Fatima.	99365395	1474485233470	1474485233599	o	79
193098	2091456	The group is making a pilgrimage to the Catholic shrine of Fatima.	The group is making a pilgrimage to the Catholic shrine of Fatima.	99365400	1474485233579	1474485233726	 	32
193098	2091456	The group is making a pilgrimage to the Catholic shrine of Fatima.	The group is making a pilgrimage to the Catholic shrine of Fatima.	99365404	1474485233742	1474485233855	t	84
193098	2091456	The group is making a pilgrimage to the Catholic shrine of Fatima.	The group is making a pilgrimage to the Catholic shrine of Fatima.	99365469	1474485233827	1474485233945	h	72
193098	2091456	The group is making a pilgrimage to the Catholic shrine of Fatima.	The group is making a pilgrimage to the Catholic shrine of Fatima.	99365476	1474485233924	1474485234053	e	69
193098	2091456	The group is making a pilgrimage to the Catholic shrine of Fatima.	The group is making a pilgrimage to the Catholic shrine of Fatima.	99365481	1474485233989	1474485234116	 	32
193098	2091456	The group is making a pilgrimage to the Catholic shrine of Fatima.	The group is making a pilgrimage to the Catholic shrine of Fatima.	99365487	1474485234193	1474485234388	SHIFT	16
193098	2091456	The group is making a pilgrimage to the Catholic shrine of Fatima.	The group is making a pilgrimage to the Catholic shrine of Fatima.	99365490	1474485234279	1474485234399	C	67
193098	2091456	The group is making a pilgrimage to the Catholic shrine of Fatima.	The group is making a pilgrimage to the Catholic shrine of Fatima.	99365493	1474485234447	1474485234574	a	65
193098	2091456	The group is making a pilgrimage to the Catholic shrine of Fatima.	The group is making a pilgrimage to the Catholic shrine of Fatima.	99365499	1474485234692	1474485234787	t	84
193098	2091456	The group is making a pilgrimage to the Catholic shrine of Fatima.	The group is making a pilgrimage to the Catholic shrine of Fatima.	99365521	1474485234876	1474485234950	h	72
193098	2091456	The group is making a pilgrimage to the Catholic shrine of Fatima.	The group is making a pilgrimage to the Catholic shrine of Fatima.	99365528	1474485234990	1474485235087	o	79
193098	2091456	The group is making a pilgrimage to the Catholic shrine of Fatima.	The group is making a pilgrimage to the Catholic shrine of Fatima.	99365537	1474485235158	1474485235257	l	76
193098	2091456	The group is making a pilgrimage to the Catholic shrine of Fatima.	The group is making a pilgrimage to the Catholic shrine of Fatima.	99365544	1474485235332	1474485235426	i	73
193098	2091456	The group is making a pilgrimage to the Catholic shrine of Fatima.	The group is making a pilgrimage to the Catholic shrine of Fatima.	99365567	1474485235411	1474485235560	c	67
193098	2091456	The group is making a pilgrimage to the Catholic shrine of Fatima.	The group is making a pilgrimage to the Catholic shrine of Fatima.	99365572	1474485235483	1474485235636	 	32
193098	2091456	The group is making a pilgrimage to the Catholic shrine of Fatima.	The group is making a pilgrimage to the Catholic shrine of Fatima.	99365577	1474485235670	1474485235805	s	83
193098	2091456	The group is making a pilgrimage to the Catholic shrine of Fatima.	The group is making a pilgrimage to the Catholic shrine of Fatima.	99365582	1474485235796	1474485235894	h	72
193098	2091456	The group is making a pilgrimage to the Catholic shrine of Fatima.	The group is making a pilgrimage to the Catholic shrine of Fatima.	99365593	1474485235984	1474485236103	r	82
193098	2091456	The group is making a pilgrimage to the Catholic shrine of Fatima.	The group is making a pilgrimage to the Catholic shrine of Fatima.	99365599	1474485236104	1474485236238	i	73
193098	2091456	The group is making a pilgrimage to the Catholic shrine of Fatima.	The group is making a pilgrimage to the Catholic shrine of Fatima.	99365616	1474485236176	1474485236321	n	78
193098	2091456	The group is making a pilgrimage to the Catholic shrine of Fatima.	The group is making a pilgrimage to the Catholic shrine of Fatima.	99365620	1474485236292	1474485236467	e	69
193098	2091456	The group is making a pilgrimage to the Catholic shrine of Fatima.	The group is making a pilgrimage to the Catholic shrine of Fatima.	99365623	1474485236372	1474485236555	 	32
193098	2091456	The group is making a pilgrimage to the Catholic shrine of Fatima.	The group is making a pilgrimage to the Catholic shrine of Fatima.	99365626	1474485236532	1474485236657	o	79
193098	2091456	The group is making a pilgrimage to the Catholic shrine of Fatima.	The group is making a pilgrimage to the Catholic shrine of Fatima.	99365629	1474485236636	1474485236772	f	70
193098	2091456	The group is making a pilgrimage to the Catholic shrine of Fatima.	The group is making a pilgrimage to the Catholic shrine of Fatima.	99365656	1474485236693	1474485236842	 	32
193098	2091456	The group is making a pilgrimage to the Catholic shrine of Fatima.	The group is making a pilgrimage to the Catholic shrine of Fatima.	99365661	1474485236942	1474485237330	SHIFT	16
193098	2091456	The group is making a pilgrimage to the Catholic shrine of Fatima.	The group is making a pilgrimage to the Catholic shrine of Fatima.	99365665	1474485237222	1474485237331	F	70
193098	2091456	The group is making a pilgrimage to the Catholic shrine of Fatima.	The group is making a pilgrimage to the Catholic shrine of Fatima.	99365666	1474485237470	1474485237611	a	65
193098	2091456	The group is making a pilgrimage to the Catholic shrine of Fatima.	The group is making a pilgrimage to the Catholic shrine of Fatima.	99365668	1474485237678	1474485237773	t	84
193098	2091456	The group is making a pilgrimage to the Catholic shrine of Fatima.	The group is making a pilgrimage to the Catholic shrine of Fatima.	99365671	1474485237811	1474485237969	i	73
193098	2091456	The group is making a pilgrimage to the Catholic shrine of Fatima.	The group is making a pilgrimage to the Catholic shrine of Fatima.	99365686	1474485237890	1474485238039	m	77
193098	2091456	The group is making a pilgrimage to the Catholic shrine of Fatima.	The group is making a pilgrimage to the Catholic shrine of Fatima.	99365689	1474485237998	1474485238106	a	65
193098	2091456	The group is making a pilgrimage to the Catholic shrine of Fatima.	The group is making a pilgrimage to the Catholic shrine of Fatima.	99365695	1474485238172	1474485238308	.	190
193098	2091490	We're not aware of any possible changes at Stanford Stadium.	We're not aware of any possible changes at Stanford Stadium.	99365981	1474485241203	1474485241512	SHIFT	16
193098	2091490	We're not aware of any possible changes at Stanford Stadium.	We're not aware of any possible changes at Stanford Stadium.	99365973	1474485241367	1474485241503	W	87
193098	2091490	We're not aware of any possible changes at Stanford Stadium.	We're not aware of any possible changes at Stanford Stadium.	99365990	1474485241610	1474485241734	e	69
193098	2091490	We're not aware of any possible changes at Stanford Stadium.	We're not aware of any possible changes at Stanford Stadium.	99366000	1474485241787	1474485241905	'	222
193098	2091490	We're not aware of any possible changes at Stanford Stadium.	We're not aware of any possible changes at Stanford Stadium.	99366005	1474485242172	1474485242332	r	82
193098	2091490	We're not aware of any possible changes at Stanford Stadium.	We're not aware of any possible changes at Stanford Stadium.	99366056	1474485242258	1474485242375	e	69
193098	2091490	We're not aware of any possible changes at Stanford Stadium.	We're not aware of any possible changes at Stanford Stadium.	99366061	1474485242328	1474485242490	 	32
193098	2091490	We're not aware of any possible changes at Stanford Stadium.	We're not aware of any possible changes at Stanford Stadium.	99366070	1474485242534	1474485242647	n	78
193098	2091490	We're not aware of any possible changes at Stanford Stadium.	We're not aware of any possible changes at Stanford Stadium.	99366077	1474485242703	1474485242811	o	79
193098	2091490	We're not aware of any possible changes at Stanford Stadium.	We're not aware of any possible changes at Stanford Stadium.	99366082	1474485242790	1474485242926	t	84
193098	2091490	We're not aware of any possible changes at Stanford Stadium.	We're not aware of any possible changes at Stanford Stadium.	99366089	1474485242844	1474485242994	 	32
193098	2091490	We're not aware of any possible changes at Stanford Stadium.	We're not aware of any possible changes at Stanford Stadium.	99366094	1474485243021	1474485243152	a	65
193098	2091490	We're not aware of any possible changes at Stanford Stadium.	We're not aware of any possible changes at Stanford Stadium.	99366121	1474485243179	1474485243365	w	87
193098	2091490	We're not aware of any possible changes at Stanford Stadium.	We're not aware of any possible changes at Stanford Stadium.	99366126	1474485243302	1474485243463	a	65
193098	2091490	We're not aware of any possible changes at Stanford Stadium.	We're not aware of any possible changes at Stanford Stadium.	99366129	1474485243540	1474485243657	t	84
193098	2091490	We're not aware of any possible changes at Stanford Stadium.	We're not aware of any possible changes at Stanford Stadium.	99366135	1474485243867	1474485244031	BKSP	8
193098	2091490	We're not aware of any possible changes at Stanford Stadium.	We're not aware of any possible changes at Stanford Stadium.	99366143	1474485243983	1474485244127	r	82
193098	2091490	We're not aware of any possible changes at Stanford Stadium.	We're not aware of any possible changes at Stanford Stadium.	99366172	1474485244051	1474485244215	e	69
193098	2091490	We're not aware of any possible changes at Stanford Stadium.	We're not aware of any possible changes at Stanford Stadium.	99366177	1474485244218	1474485244401	 	32
193098	2091490	We're not aware of any possible changes at Stanford Stadium.	We're not aware of any possible changes at Stanford Stadium.	99366184	1474485244383	1474485244534	o	79
193098	2091490	We're not aware of any possible changes at Stanford Stadium.	We're not aware of any possible changes at Stanford Stadium.	99366191	1474485244491	1474485244627	f	70
193098	2091490	We're not aware of any possible changes at Stanford Stadium.	We're not aware of any possible changes at Stanford Stadium.	99366198	1474485244552	1474485244701	 	32
193098	2091490	We're not aware of any possible changes at Stanford Stadium.	We're not aware of any possible changes at Stanford Stadium.	99366202	1474485244719	1474485244847	a	65
193098	2091490	We're not aware of any possible changes at Stanford Stadium.	We're not aware of any possible changes at Stanford Stadium.	99366210	1474485244814	1474485244938	n	78
193098	2091490	We're not aware of any possible changes at Stanford Stadium.	We're not aware of any possible changes at Stanford Stadium.	99366212	1474485244946	1474485245114	y	89
193098	2091490	We're not aware of any possible changes at Stanford Stadium.	We're not aware of any possible changes at Stanford Stadium.	99366214	1474485245062	1474485245228	 	32
193098	2091490	We're not aware of any possible changes at Stanford Stadium.	We're not aware of any possible changes at Stanford Stadium.	99366217	1474485245402	1474485245535	p	80
193098	2091490	We're not aware of any possible changes at Stanford Stadium.	We're not aware of any possible changes at Stanford Stadium.	99366223	1474485245514	1474485245676	o	79
193098	2091490	We're not aware of any possible changes at Stanford Stadium.	We're not aware of any possible changes at Stanford Stadium.	99366269	1474485245657	1474485245779	s	83
193098	2091490	We're not aware of any possible changes at Stanford Stadium.	We're not aware of any possible changes at Stanford Stadium.	99366272	1474485245979	1474485246103	s	83
193098	2091490	We're not aware of any possible changes at Stanford Stadium.	We're not aware of any possible changes at Stanford Stadium.	99366275	1474485246132	1474485246256	i	73
193098	2091490	We're not aware of any possible changes at Stanford Stadium.	We're not aware of any possible changes at Stanford Stadium.	99366280	1474485246279	1474485246369	b	66
193098	2091490	We're not aware of any possible changes at Stanford Stadium.	We're not aware of any possible changes at Stanford Stadium.	99366283	1474485246594	1474485246735	l	76
193098	2091490	We're not aware of any possible changes at Stanford Stadium.	We're not aware of any possible changes at Stanford Stadium.	99366338	1474485246723	1474485246879	e	69
193098	2091490	We're not aware of any possible changes at Stanford Stadium.	We're not aware of any possible changes at Stanford Stadium.	99366339	1474485246835	1474485247006	 	32
193098	2091490	We're not aware of any possible changes at Stanford Stadium.	We're not aware of any possible changes at Stanford Stadium.	99366342	1474485247261	1474485247381	c	67
193098	2091490	We're not aware of any possible changes at Stanford Stadium.	We're not aware of any possible changes at Stanford Stadium.	99366345	1474485247352	1474485247487	h	72
193098	2091490	We're not aware of any possible changes at Stanford Stadium.	We're not aware of any possible changes at Stanford Stadium.	99366348	1474485247431	1474485247546	a	65
193098	2091490	We're not aware of any possible changes at Stanford Stadium.	We're not aware of any possible changes at Stanford Stadium.	99366350	1474485247572	1474485247670	n	78
193098	2091490	We're not aware of any possible changes at Stanford Stadium.	We're not aware of any possible changes at Stanford Stadium.	99366393	1474485247641	1474485247782	g	71
193098	2091490	We're not aware of any possible changes at Stanford Stadium.	We're not aware of any possible changes at Stanford Stadium.	99366398	1474485247719	1474485247866	e	69
193098	2091490	We're not aware of any possible changes at Stanford Stadium.	We're not aware of any possible changes at Stanford Stadium.	99366400	1474485247952	1474485248089	s	83
193098	2091490	We're not aware of any possible changes at Stanford Stadium.	We're not aware of any possible changes at Stanford Stadium.	99366403	1474485248112	1474485248266	 	32
193098	2091490	We're not aware of any possible changes at Stanford Stadium.	We're not aware of any possible changes at Stanford Stadium.	99366407	1474485248295	1474485248426	a	65
193098	2091490	We're not aware of any possible changes at Stanford Stadium.	We're not aware of any possible changes at Stanford Stadium.	99366412	1474485248468	1474485248622	t	84
193098	2091490	We're not aware of any possible changes at Stanford Stadium.	We're not aware of any possible changes at Stanford Stadium.	99366457	1474485248588	1474485248734	 	32
193098	2091490	We're not aware of any possible changes at Stanford Stadium.	We're not aware of any possible changes at Stanford Stadium.	99366466	1474485248727	1474485248997	SHIFT	16
193098	2091490	We're not aware of any possible changes at Stanford Stadium.	We're not aware of any possible changes at Stanford Stadium.	99366460	1474485248830	1474485248962	S	83
193098	2091490	We're not aware of any possible changes at Stanford Stadium.	We're not aware of any possible changes at Stanford Stadium.	99366473	1474485249102	1474485249201	t	84
193098	2091490	We're not aware of any possible changes at Stanford Stadium.	We're not aware of any possible changes at Stanford Stadium.	99366478	1474485249248	1474485249375	a	65
193098	2091490	We're not aware of any possible changes at Stanford Stadium.	We're not aware of any possible changes at Stanford Stadium.	99366483	1474485249352	1474485249459	n	78
193098	2091490	We're not aware of any possible changes at Stanford Stadium.	We're not aware of any possible changes at Stanford Stadium.	99366490	1474485249917	1474485250010	f	70
193098	2091490	We're not aware of any possible changes at Stanford Stadium.	We're not aware of any possible changes at Stanford Stadium.	99366538	1474485250007	1474485250107	o	79
193098	2091490	We're not aware of any possible changes at Stanford Stadium.	We're not aware of any possible changes at Stanford Stadium.	99366541	1474485250122	1474485250197	r	82
193098	2091490	We're not aware of any possible changes at Stanford Stadium.	We're not aware of any possible changes at Stanford Stadium.	99366545	1474485250291	1474485250434	d	68
193098	2091490	We're not aware of any possible changes at Stanford Stadium.	We're not aware of any possible changes at Stanford Stadium.	99366549	1474485250368	1474485250537	 	32
193098	2091490	We're not aware of any possible changes at Stanford Stadium.	We're not aware of any possible changes at Stanford Stadium.	99366556	1474485250560	1474485250790	SHIFT	16
193098	2091490	We're not aware of any possible changes at Stanford Stadium.	We're not aware of any possible changes at Stanford Stadium.	99366553	1474485250651	1474485250757	S	83
193098	2091490	We're not aware of any possible changes at Stanford Stadium.	We're not aware of any possible changes at Stanford Stadium.	99366559	1474485250827	1474485250928	t	84
193098	2091490	We're not aware of any possible changes at Stanford Stadium.	We're not aware of any possible changes at Stanford Stadium.	99366587	1474485251012	1474485251172	a	65
193098	2091490	We're not aware of any possible changes at Stanford Stadium.	We're not aware of any possible changes at Stanford Stadium.	99366591	1474485251129	1474485251263	d	68
193098	2091490	We're not aware of any possible changes at Stanford Stadium.	We're not aware of any possible changes at Stanford Stadium.	99366594	1474485251273	1474485251390	i	73
193098	2091490	We're not aware of any possible changes at Stanford Stadium.	We're not aware of any possible changes at Stanford Stadium.	99366600	1474485251415	1474485251518	u	85
193098	2091490	We're not aware of any possible changes at Stanford Stadium.	We're not aware of any possible changes at Stanford Stadium.	99366603	1474485251623	1474485251698	m	77
193098	2091490	We're not aware of any possible changes at Stanford Stadium.	We're not aware of any possible changes at Stanford Stadium.	99366614	1474485251891	1474485252050	.	190
193098	2091510	Get with Mary for format.	Get with Mary for format.	99366907	1474485254349	1474485254607	SHIFT	16
193098	2091510	Get with Mary for format.	Get with Mary for format.	99366903	1474485254502	1474485254559	G	71
193098	2091510	Get with Mary for format.	Get with Mary for format.	99366916	1474485254699	1474485254833	e	69
193098	2091510	Get with Mary for format.	Get with Mary for format.	99366921	1474485254778	1474485254938	t	84
193098	2091510	Get with Mary for format.	Get with Mary for format.	99366928	1474485254905	1474485255069	 	32
193098	2091510	Get with Mary for format.	Get with Mary for format.	99366932	1474485255245	1474485255379	w	87
193098	2091510	Get with Mary for format.	Get with Mary for format.	99366980	1474485255386	1474485255489	i	73
193098	2091510	Get with Mary for format.	Get with Mary for format.	99366982	1474485255494	1474485255620	t	84
193098	2091510	Get with Mary for format.	Get with Mary for format.	99366985	1474485255611	1474485255701	h	72
193098	2091510	Get with Mary for format.	Get with Mary for format.	99366989	1474485255681	1474485255828	 	32
193098	2091510	Get with Mary for format.	Get with Mary for format.	99367145	1474485255869	1474485256165	SHIFT	16
193098	2091510	Get with Mary for format.	Get with Mary for format.	99366994	1474485256036	1474485256150	<	188
193098	2091510	Get with Mary for format.	Get with Mary for format.	99367151	1474485256487	1474485256570	BKSP	8
193098	2091510	Get with Mary for format.	Get with Mary for format.	99367158	1474485256749	1474485257051	SHIFT	16
193098	2091510	Get with Mary for format.	Get with Mary for format.	99367163	1474485256931	1474485257056	M	77
193098	2091510	Get with Mary for format.	Get with Mary for format.	99367171	1474485257104	1474485257254	a	65
193098	2091510	Get with Mary for format.	Get with Mary for format.	99367175	1474485257184	1474485257342	r	82
193098	2091510	Get with Mary for format.	Get with Mary for format.	99367177	1474485257708	1474485257845	y	89
193098	2091510	Get with Mary for format.	Get with Mary for format.	99367180	1474485258075	1474485258219	 	32
193098	2091510	Get with Mary for format.	Get with Mary for format.	99367185	1474485258283	1474485258420	f	70
193098	2091510	Get with Mary for format.	Get with Mary for format.	99367187	1474485258372	1474485258484	o	79
193098	2091510	Get with Mary for format.	Get with Mary for format.	99367189	1474485258448	1474485258596	r	82
193098	2091510	Get with Mary for format.	Get with Mary for format.	99367194	1474485258504	1474485258646	 	32
193098	2091510	Get with Mary for format.	Get with Mary for format.	99367255	1474485258605	1474485258736	m	77
193098	2091510	Get with Mary for format.	Get with Mary for format.	99367262	1474485258704	1474485258860	a	65
193098	2091510	Get with Mary for format.	Get with Mary for format.	99367269	1474485258851	1474485258907	t	84
193098	2091510	Get with Mary for format.	Get with Mary for format.	99367276	1474485259034	1474485259147	BKSP	8
193098	2091510	Get with Mary for format.	Get with Mary for format.	99367283	1474485259188	1474485259272	BKSP	8
193098	2091510	Get with Mary for format.	Get with Mary for format.	99367290	1474485259317	1474485259408	BKSP	8
193098	2091510	Get with Mary for format.	Get with Mary for format.	99367293	1474485259602	1474485259738	f	70
193098	2091510	Get with Mary for format.	Get with Mary for format.	99367294	1474485259706	1474485259815	o	79
193098	2091510	Get with Mary for format.	Get with Mary for format.	99367295	1474485259818	1474485259939	r	82
193098	2091510	Get with Mary for format.	Get with Mary for format.	99367328	1474485260007	1474485260149	m	77
193098	2091510	Get with Mary for format.	Get with Mary for format.	99367332	1474485260161	1474485260303	a	65
193098	2091510	Get with Mary for format.	Get with Mary for format.	99367337	1474485260266	1474485260411	t	84
193098	2091510	Get with Mary for format.	Get with Mary for format.	99367341	1474485260735	1474485260821	.	190
