PARTICIPANT_ID	TEST_SECTION_ID	SENTENCE	USER_INPUT	KEYSTROKE_ID	PRESS_TIME	RELEASE_TIME	LETTER	KEYCODE
196819	2133270	He made his mark by campaigning against hospital fraud.	He made his mark by campaigning against hospital fraud	101344996	1474530978909	1474530979128	SHIFT	16
196819	2133270	He made his mark by campaigning against hospital fraud.	He made his mark by campaigning against hospital fraud	101344999	1474530979053	1474530979129	H	72
196819	2133270	He made his mark by campaigning against hospital fraud.	He made his mark by campaigning against hospital fraud	101345003	1474530979296	1474530979408	e	69
196819	2133270	He made his mark by campaigning against hospital fraud.	He made his mark by campaigning against hospital fraud	101345008	1474530979432	1474530979552	 	32
196819	2133270	He made his mark by campaigning against hospital fraud.	He made his mark by campaigning against hospital fraud	101345015	1474530979664	1474530979745	m	77
196819	2133270	He made his mark by campaigning against hospital fraud.	He made his mark by campaigning against hospital fraud	101345022	1474530979776	1474530979880	a	65
196819	2133270	He made his mark by campaigning against hospital fraud.	He made his mark by campaigning against hospital fraud	101345075	1474530980120	1474530980208	d	68
196819	2133270	He made his mark by campaigning against hospital fraud.	He made his mark by campaigning against hospital fraud	101345076	1474530980336	1474530980416	e	69
196819	2133270	He made his mark by campaigning against hospital fraud.	He made his mark by campaigning against hospital fraud	101345078	1474530980552	1474530980632	 	32
196819	2133270	He made his mark by campaigning against hospital fraud.	He made his mark by campaigning against hospital fraud	101345079	1474530981464	1474530981560	h	72
196819	2133270	He made his mark by campaigning against hospital fraud.	He made his mark by campaigning against hospital fraud	101345104	1474530981504	1474530981648	i	73
196819	2133270	He made his mark by campaigning against hospital fraud.	He made his mark by campaigning against hospital fraud	101345107	1474530981672	1474530981776	s	83
196819	2133270	He made his mark by campaigning against hospital fraud.	He made his mark by campaigning against hospital fraud	101345110	1474530981792	1474530981888	 	32
196819	2133270	He made his mark by campaigning against hospital fraud.	He made his mark by campaigning against hospital fraud	101345113	1474530982104	1474530982232	m	77
196819	2133270	He made his mark by campaigning against hospital fraud.	He made his mark by campaigning against hospital fraud	101345116	1474530982250	1474530982344	a	65
196819	2133270	He made his mark by campaigning against hospital fraud.	He made his mark by campaigning against hospital fraud	101345117	1474530982896	1474530982992	r	82
196819	2133270	He made his mark by campaigning against hospital fraud.	He made his mark by campaigning against hospital fraud	101345139	1474530983024	1474530983128	k	75
196819	2133270	He made his mark by campaigning against hospital fraud.	He made his mark by campaigning against hospital fraud	101345140	1474530983096	1474530983200	 	32
196819	2133270	He made his mark by campaigning against hospital fraud.	He made his mark by campaigning against hospital fraud	101345142	1474530983688	1474530983880	b	66
196819	2133270	He made his mark by campaigning against hospital fraud.	He made his mark by campaigning against hospital fraud	101345144	1474530983848	1474530984000	y	89
196819	2133270	He made his mark by campaigning against hospital fraud.	He made his mark by campaigning against hospital fraud	101345148	1474530984056	1474530984168	 	32
196819	2133270	He made his mark by campaigning against hospital fraud.	He made his mark by campaigning against hospital fraud	101345211	1474530984256	1474530984360	SHIFT	16
196819	2133270	He made his mark by campaigning against hospital fraud.	He made his mark by campaigning against hospital fraud	101345213	1474530984744	1474530984816	c	67
196819	2133270	He made his mark by campaigning against hospital fraud.	He made his mark by campaigning against hospital fraud	101345214	1474530985192	1474530985320	a	65
196819	2133270	He made his mark by campaigning against hospital fraud.	He made his mark by campaigning against hospital fraud	101345216	1474530985456	1474530985624	m	77
196819	2133270	He made his mark by campaigning against hospital fraud.	He made his mark by campaigning against hospital fraud	101345217	1474530985624	1474530985712	p	80
196819	2133270	He made his mark by campaigning against hospital fraud.	He made his mark by campaigning against hospital fraud	101345220	1474530985984	1474530986112	a	65
196819	2133270	He made his mark by campaigning against hospital fraud.	He made his mark by campaigning against hospital fraud	101345313	1474530986114	1474530986224	i	73
196819	2133270	He made his mark by campaigning against hospital fraud.	He made his mark by campaigning against hospital fraud	101345315	1474530986696	1474530986792	g	71
196819	2133270	He made his mark by campaigning against hospital fraud.	He made his mark by campaigning against hospital fraud	101345316	1474530987168	1474530987256	n	78
196819	2133270	He made his mark by campaigning against hospital fraud.	He made his mark by campaigning against hospital fraud	101345317	1474530988112	1474530988176	i	73
196819	2133270	He made his mark by campaigning against hospital fraud.	He made his mark by campaigning against hospital fraud	101345319	1474530988344	1474530988432	n	78
196819	2133270	He made his mark by campaigning against hospital fraud.	He made his mark by campaigning against hospital fraud	101345362	1474530988599	1474530988688	g	71
196819	2133270	He made his mark by campaigning against hospital fraud.	He made his mark by campaigning against hospital fraud	101345365	1474530988664	1474530988752	 	32
196819	2133270	He made his mark by campaigning against hospital fraud.	He made his mark by campaigning against hospital fraud	101345370	1474530988848	1474530988968	a	65
196819	2133270	He made his mark by campaigning against hospital fraud.	He made his mark by campaigning against hospital fraud	101345373	1474530989192	1474530989279	g	71
196819	2133270	He made his mark by campaigning against hospital fraud.	He made his mark by campaigning against hospital fraud	101345375	1474530989375	1474530989480	a	65
196819	2133270	He made his mark by campaigning against hospital fraud.	He made his mark by campaigning against hospital fraud	101345400	1474530989544	1474530989648	i	73
196819	2133270	He made his mark by campaigning against hospital fraud.	He made his mark by campaigning against hospital fraud	101345405	1474530989824	1474530989904	n	78
196819	2133270	He made his mark by campaigning against hospital fraud.	He made his mark by campaigning against hospital fraud	101345409	1474530990279	1474530990424	s	83
196819	2133270	He made his mark by campaigning against hospital fraud.	He made his mark by campaigning against hospital fraud	101345413	1474530990424	1474530990583	t	84
196819	2133270	He made his mark by campaigning against hospital fraud.	He made his mark by campaigning against hospital fraud	101345416	1474530990630	1474530990671	 	32
196819	2133270	He made his mark by campaigning against hospital fraud.	He made his mark by campaigning against hospital fraud	101345478	1474530991448	1474530991584	h	72
196819	2133270	He made his mark by campaigning against hospital fraud.	He made his mark by campaigning against hospital fraud	101345480	1474530991544	1474530991671	o	79
196819	2133270	He made his mark by campaigning against hospital fraud.	He made his mark by campaigning against hospital fraud	101345482	1474530992303	1474530992416	s	83
196819	2133270	He made his mark by campaigning against hospital fraud.	He made his mark by campaigning against hospital fraud	101345484	1474530992904	1474530992991	p	80
196819	2133270	He made his mark by campaigning against hospital fraud.	He made his mark by campaigning against hospital fraud	101345486	1474530993183	1474530993249	i	73
196819	2133270	He made his mark by campaigning against hospital fraud.	He made his mark by campaigning against hospital fraud	101345546	1474530993480	1474530993535	t	84
196819	2133270	He made his mark by campaigning against hospital fraud.	He made his mark by campaigning against hospital fraud	101345548	1474530993760	1474530993903	a	65
196819	2133270	He made his mark by campaigning against hospital fraud.	He made his mark by campaigning against hospital fraud	101345550	1474530993919	1474530994079	l	76
196819	2133270	He made his mark by campaigning against hospital fraud.	He made his mark by campaigning against hospital fraud	101345553	1474530994063	1474530994167	 	32
196819	2133270	He made his mark by campaigning against hospital fraud.	He made his mark by campaigning against hospital fraud	101345556	1474530994711	1474530994800	f	70
196819	2133270	He made his mark by campaigning against hospital fraud.	He made his mark by campaigning against hospital fraud	101345609	1474530994935	1474530995015	r	82
196819	2133270	He made his mark by campaigning against hospital fraud.	He made his mark by campaigning against hospital fraud	101345613	1474530995255	1474530995335	a	65
196819	2133270	He made his mark by campaigning against hospital fraud.	He made his mark by campaigning against hospital fraud	101345615	1474530995463	1474530995543	u	85
196819	2133270	He made his mark by campaigning against hospital fraud.	He made his mark by campaigning against hospital fraud	101345618	1474530995703	1474530995799	d	68
196819	2133284	We don't want to look bad to Dyn.	We don't want to look bad to Dyn.	101345716	1474530998063	1474530998759	SHIFT	16
196819	2133284	We don't want to look bad to Dyn.	We don't want to look bad to Dyn.	101345719	1474530998647	1474530998759	W	87
196819	2133284	We don't want to look bad to Dyn.	We don't want to look bad to Dyn.	101345724	1474530998935	1474530999023	e	69
196819	2133284	We don't want to look bad to Dyn.	We don't want to look bad to Dyn.	101345728	1474530999103	1474530999207	 	32
196819	2133284	We don't want to look bad to Dyn.	We don't want to look bad to Dyn.	101345733	1474530999399	1474530999487	d	68
196819	2133284	We don't want to look bad to Dyn.	We don't want to look bad to Dyn.	101345738	1474530999631	1474530999743	p	80
196819	2133284	We don't want to look bad to Dyn.	We don't want to look bad to Dyn.	101345812	1474531000015	1474531000127	BKSP	8
196819	2133284	We don't want to look bad to Dyn.	We don't want to look bad to Dyn.	101345814	1474531000303	1474531000399	o	79
196819	2133284	We don't want to look bad to Dyn.	We don't want to look bad to Dyn.	101345817	1474531000703	1474531000775	n	78
196819	2133284	We don't want to look bad to Dyn.	We don't want to look bad to Dyn.	101345820	1474531001367	1474531001431	'	192
196819	2133284	We don't want to look bad to Dyn.	We don't want to look bad to Dyn.	101345823	1474531001815	1474531001865	t	84
196819	2133284	We don't want to look bad to Dyn.	We don't want to look bad to Dyn.	101345825	1474531001927	1474531002024	t	84
196819	2133284	We don't want to look bad to Dyn.	We don't want to look bad to Dyn.	101345884	1474531001999	1474531002063	 	32
196819	2133284	We don't want to look bad to Dyn.	We don't want to look bad to Dyn.	101345886	1474531002575	1474531002664	BKSP	8
196819	2133284	We don't want to look bad to Dyn.	We don't want to look bad to Dyn.	101345889	1474531002719	1474531002791	BKSP	8
196819	2133284	We don't want to look bad to Dyn.	We don't want to look bad to Dyn.	101345892	1474531003047	1474531003126	 	32
196819	2133284	We don't want to look bad to Dyn.	We don't want to look bad to Dyn.	101345894	1474531003511	1474531003599	w	87
196819	2133284	We don't want to look bad to Dyn.	We don't want to look bad to Dyn.	101345896	1474531003743	1474531003863	a	65
196819	2133284	We don't want to look bad to Dyn.	We don't want to look bad to Dyn.	101345898	1474531003863	1474531003967	n	78
196819	2133284	We don't want to look bad to Dyn.	We don't want to look bad to Dyn.	101345900	1474531004119	1474531004231	t	84
196819	2133284	We don't want to look bad to Dyn.	We don't want to look bad to Dyn.	101345979	1474531004191	1474531004295	 	32
196819	2133284	We don't want to look bad to Dyn.	We don't want to look bad to Dyn.	101345982	1474531004463	1474531004543	t	84
196819	2133284	We don't want to look bad to Dyn.	We don't want to look bad to Dyn.	101345985	1474531005199	1474531005302	o	79
196819	2133284	We don't want to look bad to Dyn.	We don't want to look bad to Dyn.	101345988	1474531005264	1474531005382	 	32
196819	2133284	We don't want to look bad to Dyn.	We don't want to look bad to Dyn.	101345989	1474531006487	1474531006614	l	76
196819	2133284	We don't want to look bad to Dyn.	We don't want to look bad to Dyn.	101345990	1474531006782	1474531006857	o	79
196819	2133284	We don't want to look bad to Dyn.	We don't want to look bad to Dyn.	101346011	1474531006918	1474531006966	o	79
196819	2133284	We don't want to look bad to Dyn.	We don't want to look bad to Dyn.	101346012	1474531007119	1474531007207	k	75
196819	2133284	We don't want to look bad to Dyn.	We don't want to look bad to Dyn.	101346013	1474531007334	1474531007415	 	32
196819	2133284	We don't want to look bad to Dyn.	We don't want to look bad to Dyn.	101346015	1474531007758	1474531007830	b	66
196819	2133284	We don't want to look bad to Dyn.	We don't want to look bad to Dyn.	101346017	1474531007878	1474531007991	a	65
196819	2133284	We don't want to look bad to Dyn.	We don't want to look bad to Dyn.	101346047	1474531008166	1474531008279	d	68
196819	2133284	We don't want to look bad to Dyn.	We don't want to look bad to Dyn.	101346048	1474531008310	1474531008414	 	32
196819	2133284	We don't want to look bad to Dyn.	We don't want to look bad to Dyn.	101346049	1474531008614	1474531008726	t	84
196819	2133284	We don't want to look bad to Dyn.	We don't want to look bad to Dyn.	101346050	1474531008774	1474531008846	o	79
196819	2133284	We don't want to look bad to Dyn.	We don't want to look bad to Dyn.	101346174	1474531008816	1474531008918	 	32
196819	2133284	We don't want to look bad to Dyn.	We don't want to look bad to Dyn.	101346176	1474531009358	1474531010423	SHIFT	16
196819	2133284	We don't want to look bad to Dyn.	We don't want to look bad to Dyn.	101346179	1474531010337	1474531010423	D	68
196819	2133284	We don't want to look bad to Dyn.	We don't want to look bad to Dyn.	101346182	1474531010766	1474531010846	y	89
196819	2133284	We don't want to look bad to Dyn.	We don't want to look bad to Dyn.	101346186	1474531011014	1474531011086	n	78
196819	2133284	We don't want to look bad to Dyn.	We don't want to look bad to Dyn.	101346191	1474531011526	1474531011574	,	188
196819	2133284	We don't want to look bad to Dyn.	We don't want to look bad to Dyn.	101346197	1474531012046	1474531012134	BKSP	8
196819	2133284	We don't want to look bad to Dyn.	We don't want to look bad to Dyn.	101346202	1474531012726	1474531012798	.	190
196819	2133293	England star Paul Gascoigne was one of the recipients of the loans.	England star Paul Gascoigne was one of the recipients o the loans.	101346304	1474531014198	1474531014606	SHIFT	16
196819	2133293	England star Paul Gascoigne was one of the recipients of the loans.	England star Paul Gascoigne was one of the recipients o the loans.	101346307	1474531014486	1474531014614	E	69
196819	2133293	England star Paul Gascoigne was one of the recipients of the loans.	England star Paul Gascoigne was one of the recipients o the loans.	101346310	1474531014686	1474531014774	n	78
196819	2133293	England star Paul Gascoigne was one of the recipients of the loans.	England star Paul Gascoigne was one of the recipients o the loans.	101346316	1474531014958	1474531015038	g	71
196819	2133293	England star Paul Gascoigne was one of the recipients of the loans.	England star Paul Gascoigne was one of the recipients o the loans.	101346319	1474531015294	1474531015366	l	76
196819	2133293	England star Paul Gascoigne was one of the recipients of the loans.	England star Paul Gascoigne was one of the recipients o the loans.	101346321	1474531015430	1474531015550	a	65
196819	2133293	England star Paul Gascoigne was one of the recipients of the loans.	England star Paul Gascoigne was one of the recipients o the loans.	101346376	1474531015599	1474531015686	n	78
196819	2133293	England star Paul Gascoigne was one of the recipients of the loans.	England star Paul Gascoigne was one of the recipients o the loans.	101346377	1474531015750	1474531015870	d	68
196819	2133293	England star Paul Gascoigne was one of the recipients of the loans.	England star Paul Gascoigne was one of the recipients o the loans.	101346379	1474531015926	1474531016006	 	32
196819	2133293	England star Paul Gascoigne was one of the recipients of the loans.	England star Paul Gascoigne was one of the recipients o the loans.	101346381	1474531016742	1474531016854	s	83
196819	2133293	England star Paul Gascoigne was one of the recipients of the loans.	England star Paul Gascoigne was one of the recipients o the loans.	101346382	1474531017454	1474531017550	t	84
196819	2133293	England star Paul Gascoigne was one of the recipients of the loans.	England star Paul Gascoigne was one of the recipients o the loans.	101346413	1474531017645	1474531017766	a	65
196819	2133293	England star Paul Gascoigne was one of the recipients of the loans.	England star Paul Gascoigne was one of the recipients o the loans.	101346415	1474531017766	1474531017870	r	82
196819	2133293	England star Paul Gascoigne was one of the recipients of the loans.	England star Paul Gascoigne was one of the recipients o the loans.	101346417	1474531017870	1474531017942	 	32
196819	2133293	England star Paul Gascoigne was one of the recipients of the loans.	England star Paul Gascoigne was one of the recipients o the loans.	101346419	1474531018134	1474531018518	SHIFT	16
196819	2133293	England star Paul Gascoigne was one of the recipients of the loans.	England star Paul Gascoigne was one of the recipients o the loans.	101346421	1474531018446	1474531018518	P	80
196819	2133293	England star Paul Gascoigne was one of the recipients of the loans.	England star Paul Gascoigne was one of the recipients o the loans.	101346424	1474531018725	1474531018862	a	65
196819	2133293	England star Paul Gascoigne was one of the recipients of the loans.	England star Paul Gascoigne was one of the recipients o the loans.	101346442	1474531018941	1474531019072	u	85
196819	2133293	England star Paul Gascoigne was one of the recipients of the loans.	England star Paul Gascoigne was one of the recipients o the loans.	101346446	1474531019046	1474531019158	l	76
196819	2133293	England star Paul Gascoigne was one of the recipients of the loans.	England star Paul Gascoigne was one of the recipients o the loans.	101346449	1474531019262	1474531019357	 	32
196819	2133293	England star Paul Gascoigne was one of the recipients of the loans.	England star Paul Gascoigne was one of the recipients o the loans.	101346457	1474531019470	1474531019822	SHIFT	16
196819	2133293	England star Paul Gascoigne was one of the recipients of the loans.	England star Paul Gascoigne was one of the recipients o the loans.	101346452	1474531019726	1474531019798	G	71
196819	2133293	England star Paul Gascoigne was one of the recipients of the loans.	England star Paul Gascoigne was one of the recipients o the loans.	101346461	1474531019966	1474531020070	a	65
196819	2133293	England star Paul Gascoigne was one of the recipients of the loans.	England star Paul Gascoigne was one of the recipients o the loans.	101346528	1474531020293	1474531020390	s	83
196819	2133293	England star Paul Gascoigne was one of the recipients of the loans.	England star Paul Gascoigne was one of the recipients o the loans.	101346531	1474531021373	1474531021453	c	67
196819	2133293	England star Paul Gascoigne was one of the recipients of the loans.	England star Paul Gascoigne was one of the recipients o the loans.	101346533	1474531021630	1474531021742	o	79
196819	2133293	England star Paul Gascoigne was one of the recipients of the loans.	England star Paul Gascoigne was one of the recipients o the loans.	101346536	1474531021862	1474531021942	i	73
196819	2133293	England star Paul Gascoigne was one of the recipients of the loans.	England star Paul Gascoigne was one of the recipients o the loans.	101346539	1474531022518	1474531022589	g	71
196819	2133293	England star Paul Gascoigne was one of the recipients of the loans.	England star Paul Gascoigne was one of the recipients o the loans.	101346595	1474531022949	1474531023046	n	78
196819	2133293	England star Paul Gascoigne was one of the recipients of the loans.	England star Paul Gascoigne was one of the recipients o the loans.	101346597	1474531023645	1474531023725	e	69
196819	2133293	England star Paul Gascoigne was one of the recipients of the loans.	England star Paul Gascoigne was one of the recipients o the loans.	101346600	1474531023813	1474531023909	 	32
196819	2133293	England star Paul Gascoigne was one of the recipients of the loans.	England star Paul Gascoigne was one of the recipients o the loans.	101346603	1474531023981	1474531024053	w	87
196819	2133293	England star Paul Gascoigne was one of the recipients of the loans.	England star Paul Gascoigne was one of the recipients o the loans.	101346606	1474531024181	1474531024261	a	65
196819	2133293	England star Paul Gascoigne was one of the recipients of the loans.	England star Paul Gascoigne was one of the recipients o the loans.	101346637	1474531024357	1474531024437	s	83
196819	2133293	England star Paul Gascoigne was one of the recipients of the loans.	England star Paul Gascoigne was one of the recipients o the loans.	101346641	1474531024469	1474531024573	 	32
196819	2133293	England star Paul Gascoigne was one of the recipients of the loans.	England star Paul Gascoigne was one of the recipients o the loans.	101346645	1474531024717	1474531024829	o	79
196819	2133293	England star Paul Gascoigne was one of the recipients of the loans.	England star Paul Gascoigne was one of the recipients o the loans.	101346646	1474531024965	1474531025029	n	78
196819	2133293	England star Paul Gascoigne was one of the recipients of the loans.	England star Paul Gascoigne was one of the recipients o the loans.	101346647	1474531025085	1474531025181	e	69
196819	2133293	England star Paul Gascoigne was one of the recipients of the loans.	England star Paul Gascoigne was one of the recipients o the loans.	101346661	1474531025213	1474531025293	 	32
196819	2133293	England star Paul Gascoigne was one of the recipients of the loans.	England star Paul Gascoigne was one of the recipients o the loans.	101346663	1474531025461	1474531025565	o	79
196819	2133293	England star Paul Gascoigne was one of the recipients of the loans.	England star Paul Gascoigne was one of the recipients o the loans.	101346665	1474531026125	1474531026229	f	70
196819	2133293	England star Paul Gascoigne was one of the recipients of the loans.	England star Paul Gascoigne was one of the recipients o the loans.	101346666	1474531026197	1474531026293	 	32
196819	2133293	England star Paul Gascoigne was one of the recipients of the loans.	England star Paul Gascoigne was one of the recipients o the loans.	101346667	1474531026389	1474531026512	t	84
196819	2133293	England star Paul Gascoigne was one of the recipients of the loans.	England star Paul Gascoigne was one of the recipients o the loans.	101346707	1474531026480	1474531026581	h	72
196819	2133293	England star Paul Gascoigne was one of the recipients of the loans.	England star Paul Gascoigne was one of the recipients o the loans.	101346709	1474531026549	1474531026677	e	69
196819	2133293	England star Paul Gascoigne was one of the recipients of the loans.	England star Paul Gascoigne was one of the recipients o the loans.	101346712	1474531026677	1474531026765	 	32
196819	2133293	England star Paul Gascoigne was one of the recipients of the loans.	England star Paul Gascoigne was one of the recipients o the loans.	101346713	1474531027309	1474531027389	r	82
196819	2133293	England star Paul Gascoigne was one of the recipients of the loans.	England star Paul Gascoigne was one of the recipients o the loans.	101346715	1474531027517	1474531027597	e	69
196819	2133293	England star Paul Gascoigne was one of the recipients of the loans.	England star Paul Gascoigne was one of the recipients o the loans.	101346716	1474531028181	1474531028277	c	67
196819	2133293	England star Paul Gascoigne was one of the recipients of the loans.	England star Paul Gascoigne was one of the recipients o the loans.	101346749	1474531028517	1474531028637	i	73
196819	2133293	England star Paul Gascoigne was one of the recipients of the loans.	England star Paul Gascoigne was one of the recipients o the loans.	101346751	1474531028613	1474531028741	p	80
196819	2133293	England star Paul Gascoigne was one of the recipients of the loans.	England star Paul Gascoigne was one of the recipients o the loans.	101346753	1474531029117	1474531029189	i	73
196819	2133293	England star Paul Gascoigne was one of the recipients of the loans.	England star Paul Gascoigne was one of the recipients o the loans.	101346755	1474531029317	1474531029429	e	69
196819	2133293	England star Paul Gascoigne was one of the recipients of the loans.	England star Paul Gascoigne was one of the recipients o the loans.	101346757	1474531029493	1474531029581	n	78
196819	2133293	England star Paul Gascoigne was one of the recipients of the loans.	England star Paul Gascoigne was one of the recipients o the loans.	101346806	1474531029861	1474531029957	t	84
196819	2133293	England star Paul Gascoigne was one of the recipients of the loans.	England star Paul Gascoigne was one of the recipients o the loans.	101346807	1474531030205	1474531030301	s	83
196819	2133293	England star Paul Gascoigne was one of the recipients of the loans.	England star Paul Gascoigne was one of the recipients o the loans.	101346808	1474531030485	1474531030557	 	32
196819	2133293	England star Paul Gascoigne was one of the recipients of the loans.	England star Paul Gascoigne was one of the recipients o the loans.	101346810	1474531031149	1474531031221	o	79
196819	2133293	England star Paul Gascoigne was one of the recipients of the loans.	England star Paul Gascoigne was one of the recipients o the loans.	101346811	1474531031669	1474531031797	 	32
196819	2133293	England star Paul Gascoigne was one of the recipients of the loans.	England star Paul Gascoigne was one of the recipients o the loans.	101346836	1474531031917	1474531032037	t	84
196819	2133293	England star Paul Gascoigne was one of the recipients of the loans.	England star Paul Gascoigne was one of the recipients o the loans.	101346838	1474531031997	1474531032133	h	72
196819	2133293	England star Paul Gascoigne was one of the recipients of the loans.	England star Paul Gascoigne was one of the recipients o the loans.	101346840	1474531032133	1474531032245	e	69
196819	2133293	England star Paul Gascoigne was one of the recipients of the loans.	England star Paul Gascoigne was one of the recipients o the loans.	101346842	1474531032245	1474531032325	 	32
196819	2133293	England star Paul Gascoigne was one of the recipients of the loans.	England star Paul Gascoigne was one of the recipients o the loans.	101346844	1474531032941	1474531033021	l	76
196819	2133293	England star Paul Gascoigne was one of the recipients of the loans.	England star Paul Gascoigne was one of the recipients o the loans.	101346931	1474531033317	1474531033405	e	69
196819	2133293	England star Paul Gascoigne was one of the recipients of the loans.	England star Paul Gascoigne was one of the recipients o the loans.	101346932	1474531034213	1474531034261	n	78
196819	2133293	England star Paul Gascoigne was one of the recipients of the loans.	England star Paul Gascoigne was one of the recipients o the loans.	101346933	1474531034485	1474531034564	s	83
196819	2133293	England star Paul Gascoigne was one of the recipients of the loans.	England star Paul Gascoigne was one of the recipients o the loans.	101346934	1474531035157	1474531035213	BKSP	8
196819	2133293	England star Paul Gascoigne was one of the recipients of the loans.	England star Paul Gascoigne was one of the recipients o the loans.	101346935	1474531035317	1474531035357	BKSP	8
196819	2133293	England star Paul Gascoigne was one of the recipients of the loans.	England star Paul Gascoigne was one of the recipients o the loans.	101346936	1474531035893	1474531035964	BKSP	8
196819	2133293	England star Paul Gascoigne was one of the recipients of the loans.	England star Paul Gascoigne was one of the recipients o the loans.	101346937	1474531036709	1474531036797	o	79
196819	2133293	England star Paul Gascoigne was one of the recipients of the loans.	England star Paul Gascoigne was one of the recipients o the loans.	101346938	1474531036941	1474531037037	a	65
196819	2133293	England star Paul Gascoigne was one of the recipients of the loans.	England star Paul Gascoigne was one of the recipients o the loans.	101346972	1474531037077	1474531037173	n	78
196819	2133293	England star Paul Gascoigne was one of the recipients of the loans.	England star Paul Gascoigne was one of the recipients o the loans.	101346974	1474531037309	1474531037373	d	68
196819	2133293	England star Paul Gascoigne was one of the recipients of the loans.	England star Paul Gascoigne was one of the recipients o the loans.	101346980	1474531037724	1474531037828	BKSP	8
196819	2133293	England star Paul Gascoigne was one of the recipients of the loans.	England star Paul Gascoigne was one of the recipients o the loans.	101346984	1474531037829	1474531037933	s	83
196819	2133293	England star Paul Gascoigne was one of the recipients of the loans.	England star Paul Gascoigne was one of the recipients o the loans.	101346988	1474531038973	1474531039028	.	190
196819	2133309	I think these will be just fine.	I think these will be just fine.	101347041	1474531041012	1474531041268	SHIFT	16
196819	2133309	I think these will be just fine.	I think these will be just fine.	101347045	1474531041180	1474531041268	I	73
196819	2133309	I think these will be just fine.	I think these will be just fine.	101347049	1474531041228	1474531041348	 	32
196819	2133309	I think these will be just fine.	I think these will be just fine.	101347053	1474531041644	1474531041780	t	84
196819	2133309	I think these will be just fine.	I think these will be just fine.	101347057	1474531041716	1474531041876	h	72
196819	2133309	I think these will be just fine.	I think these will be just fine.	101347061	1474531042076	1474531042164	o	79
196819	2133309	I think these will be just fine.	I think these will be just fine.	101347101	1474531042823	1474531042908	BKSP	8
196819	2133309	I think these will be just fine.	I think these will be just fine.	101347104	1474531043132	1474531043220	i	73
196819	2133309	I think these will be just fine.	I think these will be just fine.	101347108	1474531043476	1474531043596	n	78
196819	2133309	I think these will be just fine.	I think these will be just fine.	101347110	1474531043572	1474531043700	k	75
196819	2133309	I think these will be just fine.	I think these will be just fine.	101347111	1474531043724	1474531043804	 	32
196819	2133309	I think these will be just fine.	I think these will be just fine.	101347112	1474531043996	1474531044132	t	84
196819	2133309	I think these will be just fine.	I think these will be just fine.	101347131	1474531044068	1474531044212	h	72
196819	2133309	I think these will be just fine.	I think these will be just fine.	101347132	1474531044212	1474531044316	e	69
196819	2133309	I think these will be just fine.	I think these will be just fine.	101347133	1474531044444	1474531044508	s	83
196819	2133309	I think these will be just fine.	I think these will be just fine.	101347134	1474531044596	1474531044692	e	69
196819	2133309	I think these will be just fine.	I think these will be just fine.	101347135	1474531044764	1474531044868	 	32
196819	2133309	I think these will be just fine.	I think these will be just fine.	101347136	1474531045148	1474531045276	w	87
196819	2133309	I think these will be just fine.	I think these will be just fine.	101347140	1474531045404	1474531045460	i	73
196819	2133309	I think these will be just fine.	I think these will be just fine.	101347143	1474531045612	1474531045668	l	76
196819	2133309	I think these will be just fine.	I think these will be just fine.	101347147	1474531045756	1474531045812	l	76
196819	2133309	I think these will be just fine.	I think these will be just fine.	101347149	1474531045932	1474531046012	 	32
196819	2133309	I think these will be just fine.	I think these will be just fine.	101347151	1474531046324	1474531046388	b	66
196819	2133309	I think these will be just fine.	I think these will be just fine.	101347162	1474531046420	1474531046532	e	69
196819	2133309	I think these will be just fine.	I think these will be just fine.	101347163	1474531046533	1474531046612	 	32
196819	2133309	I think these will be just fine.	I think these will be just fine.	101347165	1474531046979	1474531047052	j	74
196819	2133309	I think these will be just fine.	I think these will be just fine.	101347170	1474531047172	1474531047244	u	85
196819	2133309	I think these will be just fine.	I think these will be just fine.	101347173	1474531047452	1474531047572	s	83
196819	2133309	I think these will be just fine.	I think these will be just fine.	101347205	1474531047556	1474531047684	t	84
196819	2133309	I think these will be just fine.	I think these will be just fine.	101347207	1474531047644	1474531047748	 	32
196819	2133309	I think these will be just fine.	I think these will be just fine.	101347209	1474531048460	1474531048548	f	70
196819	2133309	I think these will be just fine.	I think these will be just fine.	101347211	1474531048604	1474531048692	i	73
196819	2133309	I think these will be just fine.	I think these will be just fine.	101347212	1474531048868	1474531048940	b	66
196819	2133309	I think these will be just fine.	I think these will be just fine.	101347213	1474531049236	1474531049308	BKSP	8
196819	2133309	I think these will be just fine.	I think these will be just fine.	101347215	1474531049460	1474531049515	n	78
196819	2133309	I think these will be just fine.	I think these will be just fine.	101347259	1474531049492	1474531049588	e	69
196819	2133309	I think these will be just fine.	I think these will be just fine.	101347261	1474531050324	1474531050388	.	190
196819	2133309	I think these will be just fine.	I think these will be just fine.	101347263	1474531050588	1474531050643	#	222
196819	2133309	I think these will be just fine.	I think these will be just fine.	101347264	1474531051340	1474531051404	BKSP	8
196819	2133315	I have received your messages and will respond accordingly.	I have recieved your messages and will respond accordingly.	101347312	1474531053075	1474531053300	SHIFT	16
196819	2133315	I have received your messages and will respond accordingly.	I have recieved your messages and will respond accordingly.	101347315	1474531053203	1474531053301	I	73
196819	2133315	I have received your messages and will respond accordingly.	I have recieved your messages and will respond accordingly.	101347318	1474531053259	1474531053371	 	32
196819	2133315	I have received your messages and will respond accordingly.	I have recieved your messages and will respond accordingly.	101347324	1474531053595	1474531053675	h	72
196819	2133315	I have received your messages and will respond accordingly.	I have recieved your messages and will respond accordingly.	101347328	1474531053731	1474531053859	a	65
196819	2133315	I have received your messages and will respond accordingly.	I have recieved your messages and will respond accordingly.	101347333	1474531053860	1474531053931	v	86
196819	2133315	I have received your messages and will respond accordingly.	I have recieved your messages and will respond accordingly.	101347344	1474531054043	1474531054147	e	69
196819	2133315	I have received your messages and will respond accordingly.	I have recieved your messages and will respond accordingly.	101347345	1474531054115	1474531054219	 	32
196819	2133315	I have received your messages and will respond accordingly.	I have recieved your messages and will respond accordingly.	101347346	1474531054411	1474531054491	r	82
196819	2133315	I have received your messages and will respond accordingly.	I have recieved your messages and will respond accordingly.	101347348	1474531054627	1474531054699	e	69
196819	2133315	I have received your messages and will respond accordingly.	I have recieved your messages and will respond accordingly.	101347350	1474531055075	1474531055163	c	67
196819	2133315	I have received your messages and will respond accordingly.	I have recieved your messages and will respond accordingly.	101347366	1474531055243	1474531055331	i	73
196819	2133315	I have received your messages and will respond accordingly.	I have recieved your messages and will respond accordingly.	101347367	1474531055387	1474531055491	e	69
196819	2133315	I have received your messages and will respond accordingly.	I have recieved your messages and will respond accordingly.	101347368	1474531056187	1474531056259	v	86
196819	2133315	I have received your messages and will respond accordingly.	I have recieved your messages and will respond accordingly.	101347369	1474531056315	1474531056395	e	69
196819	2133315	I have received your messages and will respond accordingly.	I have recieved your messages and will respond accordingly.	101347370	1474531056499	1474531056563	d	68
196819	2133315	I have received your messages and will respond accordingly.	I have recieved your messages and will respond accordingly.	101347392	1474531056651	1474531056739	 	32
196819	2133315	I have received your messages and will respond accordingly.	I have recieved your messages and will respond accordingly.	101347394	1474531057507	1474531057603	y	89
196819	2133315	I have received your messages and will respond accordingly.	I have recieved your messages and will respond accordingly.	101347396	1474531057571	1474531057731	o	79
196819	2133315	I have received your messages and will respond accordingly.	I have recieved your messages and will respond accordingly.	101347399	1474531057731	1474531057827	u	85
196819	2133315	I have received your messages and will respond accordingly.	I have recieved your messages and will respond accordingly.	101347401	1474531057875	1474531057995	e	69
196819	2133315	I have received your messages and will respond accordingly.	I have recieved your messages and will respond accordingly.	101347441	1474531058043	1474531058131	 	32
196819	2133315	I have received your messages and will respond accordingly.	I have recieved your messages and will respond accordingly.	101347442	1474531058467	1474531058531	BKSP	8
196819	2133315	I have received your messages and will respond accordingly.	I have recieved your messages and will respond accordingly.	101347444	1474531058619	1474531058678	BKSP	8
196819	2133315	I have received your messages and will respond accordingly.	I have recieved your messages and will respond accordingly.	101347446	1474531058747	1474531058795	BKSP	8
196819	2133315	I have received your messages and will respond accordingly.	I have recieved your messages and will respond accordingly.	101347448	1474531060765	1474531060811	u	85
196819	2133315	I have received your messages and will respond accordingly.	I have recieved your messages and will respond accordingly.	101347450	1474531061179	1474531061283	r	82
196819	2133315	I have received your messages and will respond accordingly.	I have recieved your messages and will respond accordingly.	101347452	1474531061355	1474531061450	 	32
196819	2133315	I have received your messages and will respond accordingly.	I have recieved your messages and will respond accordingly.	101347454	1474531061827	1474531061899	m	77
196819	2133315	I have received your messages and will respond accordingly.	I have recieved your messages and will respond accordingly.	101347468	1474531062115	1474531062195	e	69
196819	2133315	I have received your messages and will respond accordingly.	I have recieved your messages and will respond accordingly.	101347469	1474531062387	1474531062451	s	83
196819	2133315	I have received your messages and will respond accordingly.	I have recieved your messages and will respond accordingly.	101347470	1474531062539	1474531062603	s	83
196819	2133315	I have received your messages and will respond accordingly.	I have recieved your messages and will respond accordingly.	101347471	1474531062755	1474531062843	a	65
196819	2133315	I have received your messages and will respond accordingly.	I have recieved your messages and will respond accordingly.	101347472	1474531062891	1474531062971	g	71
196819	2133315	I have received your messages and will respond accordingly.	I have recieved your messages and will respond accordingly.	101347496	1474531063043	1474531063123	e	69
196819	2133315	I have received your messages and will respond accordingly.	I have recieved your messages and will respond accordingly.	101347497	1474531063251	1474531063323	s	83
196819	2133315	I have received your messages and will respond accordingly.	I have recieved your messages and will respond accordingly.	101347498	1474531063443	1474531063515	 	32
196819	2133315	I have received your messages and will respond accordingly.	I have recieved your messages and will respond accordingly.	101347499	1474531063731	1474531063842	a	65
196819	2133315	I have received your messages and will respond accordingly.	I have recieved your messages and will respond accordingly.	101347500	1474531063979	1474531064091	n	78
196819	2133315	I have received your messages and will respond accordingly.	I have recieved your messages and will respond accordingly.	101347506	1474531064179	1474531064282	d	68
196819	2133315	I have received your messages and will respond accordingly.	I have recieved your messages and will respond accordingly.	101347507	1474531064307	1474531064402	 	32
196819	2133315	I have received your messages and will respond accordingly.	I have recieved your messages and will respond accordingly.	101347508	1474531064747	1474531064843	w	87
196819	2133315	I have received your messages and will respond accordingly.	I have recieved your messages and will respond accordingly.	101347509	1474531064987	1474531065067	i	73
196819	2133315	I have received your messages and will respond accordingly.	I have recieved your messages and will respond accordingly.	101347510	1474531065210	1474531065266	l	76
196819	2133315	I have received your messages and will respond accordingly.	I have recieved your messages and will respond accordingly.	101347527	1474531065362	1474531065386	l	76
196819	2133315	I have received your messages and will respond accordingly.	I have recieved your messages and will respond accordingly.	101347528	1474531065651	1474531065747	 	32
196819	2133315	I have received your messages and will respond accordingly.	I have recieved your messages and will respond accordingly.	101347529	1474531066075	1474531066138	r	82
196819	2133315	I have received your messages and will respond accordingly.	I have recieved your messages and will respond accordingly.	101347530	1474531066283	1474531066363	e	69
196819	2133315	I have received your messages and will respond accordingly.	I have recieved your messages and will respond accordingly.	101347531	1474531066634	1474531066730	s	83
196819	2133315	I have received your messages and will respond accordingly.	I have recieved your messages and will respond accordingly.	101347554	1474531067035	1474531067146	p	80
196819	2133315	I have received your messages and will respond accordingly.	I have recieved your messages and will respond accordingly.	101347557	1474531067203	1474531067290	o	79
196819	2133315	I have received your messages and will respond accordingly.	I have recieved your messages and will respond accordingly.	101347560	1474531068202	1474531068282	n	78
196819	2133315	I have received your messages and will respond accordingly.	I have recieved your messages and will respond accordingly.	101347563	1474531068610	1474531068706	d	68
196819	2133315	I have received your messages and will respond accordingly.	I have recieved your messages and will respond accordingly.	101347588	1474531068683	1474531068770	 	32
196819	2133315	I have received your messages and will respond accordingly.	I have recieved your messages and will respond accordingly.	101347590	1474531068866	1474531068962	a	65
196819	2133315	I have received your messages and will respond accordingly.	I have recieved your messages and will respond accordingly.	101347592	1474531069010	1474531069074	c	67
196819	2133315	I have received your messages and will respond accordingly.	I have recieved your messages and will respond accordingly.	101347594	1474531069170	1474531069244	c	67
196819	2133315	I have received your messages and will respond accordingly.	I have recieved your messages and will respond accordingly.	101347596	1474531069882	1474531069946	o	79
196819	2133315	I have received your messages and will respond accordingly.	I have recieved your messages and will respond accordingly.	101347598	1474531070386	1474531070466	r	82
196819	2133315	I have received your messages and will respond accordingly.	I have recieved your messages and will respond accordingly.	101347609	1474531070682	1474531070802	d	68
196819	2133315	I have received your messages and will respond accordingly.	I have recieved your messages and will respond accordingly.	101347611	1474531070930	1474531071026	i	73
196819	2133315	I have received your messages and will respond accordingly.	I have recieved your messages and will respond accordingly.	101347613	1474531071194	1474531071298	n	78
196819	2133315	I have received your messages and will respond accordingly.	I have recieved your messages and will respond accordingly.	101347615	1474531071418	1474531071482	g	71
196819	2133315	I have received your messages and will respond accordingly.	I have recieved your messages and will respond accordingly.	101347616	1474531071722	1474531071818	l	76
196819	2133315	I have received your messages and will respond accordingly.	I have recieved your messages and will respond accordingly.	101347645	1474531072122	1474531072234	y	89
196819	2133315	I have received your messages and will respond accordingly.	I have recieved your messages and will respond accordingly.	101347646	1474531072802	1474531072882	.	190
196819	2133322	However, he's no better than waiver wire fodder in Fantasy Football.	However, he's no better than waiver wire fodder in Fantasy Football.	101347762	1474531075946	1474531076145	SHIFT	16
196819	2133322	However, he's no better than waiver wire fodder in Fantasy Football.	However, he's no better than waiver wire fodder in Fantasy Football.	101347763	1474531076178	1474531076322	h	72
196819	2133322	However, he's no better than waiver wire fodder in Fantasy Football.	However, he's no better than waiver wire fodder in Fantasy Football.	101347764	1474531076282	1474531076402	o	79
196819	2133322	However, he's no better than waiver wire fodder in Fantasy Football.	However, he's no better than waiver wire fodder in Fantasy Football.	101347765	1474531076881	1474531076978	w	87
196819	2133322	However, he's no better than waiver wire fodder in Fantasy Football.	However, he's no better than waiver wire fodder in Fantasy Football.	101347766	1474531077345	1474531077442	e	69
196819	2133322	However, he's no better than waiver wire fodder in Fantasy Football.	However, he's no better than waiver wire fodder in Fantasy Football.	101347767	1474531079674	1474531079730	v	86
196819	2133322	However, he's no better than waiver wire fodder in Fantasy Football.	However, he's no better than waiver wire fodder in Fantasy Football.	101347885	1474531079802	1474531079906	e	69
196819	2133322	However, he's no better than waiver wire fodder in Fantasy Football.	However, he's no better than waiver wire fodder in Fantasy Football.	101347886	1474531080058	1474531080145	r	82
196819	2133322	However, he's no better than waiver wire fodder in Fantasy Football.	However, he's no better than waiver wire fodder in Fantasy Football.	101347887	1474531080825	1474531080986	ARW_LEFT	37
196819	2133322	However, he's no better than waiver wire fodder in Fantasy Football.	However, he's no better than waiver wire fodder in Fantasy Football.	101347888	1474531081258	1474531081810	ARW_LEFT	37
196819	2133322	However, he's no better than waiver wire fodder in Fantasy Football.	However, he's no better than waiver wire fodder in Fantasy Football.	101347889	1474531082082	1474531082209	ARW_LEFT	37
196819	2133322	However, he's no better than waiver wire fodder in Fantasy Football.	However, he's no better than waiver wire fodder in Fantasy Football.	101347890	1474531082393	1474531082505	ARW_LEFT	37
196819	2133322	However, he's no better than waiver wire fodder in Fantasy Football.	However, he's no better than waiver wire fodder in Fantasy Football.	101347891	1474531083194	1474531083249	BKSP	8
196819	2133322	However, he's no better than waiver wire fodder in Fantasy Football.	However, he's no better than waiver wire fodder in Fantasy Football.	101347892	1474531084569	1474531084769	SHIFT	16
196819	2133322	However, he's no better than waiver wire fodder in Fantasy Football.	However, he's no better than waiver wire fodder in Fantasy Football.	101347894	1474531084689	1474531084769	H	72
196819	2133322	However, he's no better than waiver wire fodder in Fantasy Football.	However, he's no better than waiver wire fodder in Fantasy Football.	101347897	1474531085561	1474531086385	ARW_RIGHT	39
196819	2133322	However, he's no better than waiver wire fodder in Fantasy Football.	However, he's no better than waiver wire fodder in Fantasy Football.	101347901	1474531087161	1474531087281	,	188
196819	2133322	However, he's no better than waiver wire fodder in Fantasy Football.	However, he's no better than waiver wire fodder in Fantasy Football.	101347905	1474531087281	1474531087361	 	32
196819	2133322	However, he's no better than waiver wire fodder in Fantasy Football.	However, he's no better than waiver wire fodder in Fantasy Football.	101347923	1474531087593	1474531087665	h	72
196819	2133322	However, he's no better than waiver wire fodder in Fantasy Football.	However, he's no better than waiver wire fodder in Fantasy Football.	101347924	1474531087873	1474531087969	e	69
196819	2133322	However, he's no better than waiver wire fodder in Fantasy Football.	However, he's no better than waiver wire fodder in Fantasy Football.	101347925	1474531088625	1474531088697	'	192
196819	2133322	However, he's no better than waiver wire fodder in Fantasy Football.	However, he's no better than waiver wire fodder in Fantasy Football.	101347926	1474531088865	1474531088977	s	83
196819	2133322	However, he's no better than waiver wire fodder in Fantasy Football.	However, he's no better than waiver wire fodder in Fantasy Football.	101347927	1474531089041	1474531089129	 	32
196819	2133322	However, he's no better than waiver wire fodder in Fantasy Football.	However, he's no better than waiver wire fodder in Fantasy Football.	101347965	1474531089457	1474531089585	n	78
196819	2133322	However, he's no better than waiver wire fodder in Fantasy Football.	However, he's no better than waiver wire fodder in Fantasy Football.	101347966	1474531089553	1474531089657	o	79
196819	2133322	However, he's no better than waiver wire fodder in Fantasy Football.	However, he's no better than waiver wire fodder in Fantasy Football.	101347967	1474531089873	1474531089945	 	32
196819	2133322	However, he's no better than waiver wire fodder in Fantasy Football.	However, he's no better than waiver wire fodder in Fantasy Football.	101347969	1474531090249	1474531090337	b	66
196819	2133322	However, he's no better than waiver wire fodder in Fantasy Football.	However, he's no better than waiver wire fodder in Fantasy Football.	101347972	1474531090417	1474531090545	e	69
196819	2133322	However, he's no better than waiver wire fodder in Fantasy Football.	However, he's no better than waiver wire fodder in Fantasy Football.	101347983	1474531090561	1474531090617	t	84
196819	2133322	However, he's no better than waiver wire fodder in Fantasy Football.	However, he's no better than waiver wire fodder in Fantasy Football.	101347984	1474531090689	1474531090754	t	84
196819	2133322	However, he's no better than waiver wire fodder in Fantasy Football.	However, he's no better than waiver wire fodder in Fantasy Football.	101347985	1474531090729	1474531090841	e	69
196819	2133322	However, he's no better than waiver wire fodder in Fantasy Football.	However, he's no better than waiver wire fodder in Fantasy Football.	101347986	1474531090944	1474531091025	r	82
196819	2133322	However, he's no better than waiver wire fodder in Fantasy Football.	However, he's no better than waiver wire fodder in Fantasy Football.	101347987	1474531091088	1474531091201	 	32
196819	2133322	However, he's no better than waiver wire fodder in Fantasy Football.	However, he's no better than waiver wire fodder in Fantasy Football.	101348004	1474531091384	1474531091537	t	84
196819	2133322	However, he's no better than waiver wire fodder in Fantasy Football.	However, he's no better than waiver wire fodder in Fantasy Football.	101348006	1474531091489	1474531091640	h	72
196819	2133322	However, he's no better than waiver wire fodder in Fantasy Football.	However, he's no better than waiver wire fodder in Fantasy Football.	101348009	1474531091641	1474531091768	a	65
196819	2133322	However, he's no better than waiver wire fodder in Fantasy Football.	However, he's no better than waiver wire fodder in Fantasy Football.	101348012	1474531091769	1474531091905	t	84
196819	2133322	However, he's no better than waiver wire fodder in Fantasy Football.	However, he's no better than waiver wire fodder in Fantasy Football.	101348061	1474531091849	1474531091961	 	32
196819	2133322	However, he's no better than waiver wire fodder in Fantasy Football.	However, he's no better than waiver wire fodder in Fantasy Football.	101348064	1474531092896	1474531092985	BKSP	8
196819	2133322	However, he's no better than waiver wire fodder in Fantasy Football.	However, he's no better than waiver wire fodder in Fantasy Football.	101348067	1474531093019	1474531093113	BKSP	8
196819	2133322	However, he's no better than waiver wire fodder in Fantasy Football.	However, he's no better than waiver wire fodder in Fantasy Football.	101348070	1474531093721	1474531093849	n	78
196819	2133322	However, he's no better than waiver wire fodder in Fantasy Football.	However, he's no better than waiver wire fodder in Fantasy Football.	101348072	1474531093849	1474531093912	 	32
196819	2133322	However, he's no better than waiver wire fodder in Fantasy Football.	However, he's no better than waiver wire fodder in Fantasy Football.	101348074	1474531094017	1474531094097	w	87
196819	2133322	However, he's no better than waiver wire fodder in Fantasy Football.	However, he's no better than waiver wire fodder in Fantasy Football.	101348076	1474531094232	1474531094329	a	65
196819	2133322	However, he's no better than waiver wire fodder in Fantasy Football.	However, he's no better than waiver wire fodder in Fantasy Football.	101348078	1474531094361	1474531094464	i	73
196819	2133322	However, he's no better than waiver wire fodder in Fantasy Football.	However, he's no better than waiver wire fodder in Fantasy Football.	101348124	1474531094808	1474531094985	v	86
196819	2133322	However, he's no better than waiver wire fodder in Fantasy Football.	However, he's no better than waiver wire fodder in Fantasy Football.	101348128	1474531095112	1474531095208	e	69
196819	2133322	However, he's no better than waiver wire fodder in Fantasy Football.	However, he's no better than waiver wire fodder in Fantasy Football.	101348131	1474531095353	1474531095432	r	82
196819	2133322	However, he's no better than waiver wire fodder in Fantasy Football.	However, he's no better than waiver wire fodder in Fantasy Football.	101348133	1474531095577	1474531095673	 	32
196819	2133322	However, he's no better than waiver wire fodder in Fantasy Football.	However, he's no better than waiver wire fodder in Fantasy Football.	101348136	1474531096489	1474531096616	w	87
196819	2133322	However, he's no better than waiver wire fodder in Fantasy Football.	However, he's no better than waiver wire fodder in Fantasy Football.	101348170	1474531096601	1474531096681	i	73
196819	2133322	However, he's no better than waiver wire fodder in Fantasy Football.	However, he's no better than waiver wire fodder in Fantasy Football.	101348173	1474531096888	1474531096952	r	82
196819	2133322	However, he's no better than waiver wire fodder in Fantasy Football.	However, he's no better than waiver wire fodder in Fantasy Football.	101348175	1474531097097	1474531097185	e	69
196819	2133322	However, he's no better than waiver wire fodder in Fantasy Football.	However, he's no better than waiver wire fodder in Fantasy Football.	101348177	1474531097281	1474531097377	 	32
196819	2133322	However, he's no better than waiver wire fodder in Fantasy Football.	However, he's no better than waiver wire fodder in Fantasy Football.	101348180	1474531097976	1474531098064	f	70
196819	2133322	However, he's no better than waiver wire fodder in Fantasy Football.	However, he's no better than waiver wire fodder in Fantasy Football.	101348182	1474531098192	1474531098272	o	79
196819	2133322	However, he's no better than waiver wire fodder in Fantasy Football.	However, he's no better than waiver wire fodder in Fantasy Football.	101348195	1474531098424	1474531098496	d	68
196819	2133322	However, he's no better than waiver wire fodder in Fantasy Football.	However, he's no better than waiver wire fodder in Fantasy Football.	101348197	1474531098568	1474531098640	d	68
196819	2133322	However, he's no better than waiver wire fodder in Fantasy Football.	However, he's no better than waiver wire fodder in Fantasy Football.	101348198	1474531098760	1474531098848	e	69
196819	2133322	However, he's no better than waiver wire fodder in Fantasy Football.	However, he's no better than waiver wire fodder in Fantasy Football.	101348199	1474531098952	1474531099032	r	82
196819	2133322	However, he's no better than waiver wire fodder in Fantasy Football.	However, he's no better than waiver wire fodder in Fantasy Football.	101348200	1474531099120	1474531099240	 	32
196819	2133322	However, he's no better than waiver wire fodder in Fantasy Football.	However, he's no better than waiver wire fodder in Fantasy Football.	101348242	1474531099488	1474531099584	o	79
196819	2133322	However, he's no better than waiver wire fodder in Fantasy Football.	However, he's no better than waiver wire fodder in Fantasy Football.	101348245	1474531099856	1474531099928	BKSP	8
196819	2133322	However, he's no better than waiver wire fodder in Fantasy Football.	However, he's no better than waiver wire fodder in Fantasy Football.	101348248	1474531100112	1474531100256	i	73
196819	2133322	However, he's no better than waiver wire fodder in Fantasy Football.	However, he's no better than waiver wire fodder in Fantasy Football.	101348250	1474531100576	1474531100664	n	78
196819	2133322	However, he's no better than waiver wire fodder in Fantasy Football.	However, he's no better than waiver wire fodder in Fantasy Football.	101348252	1474531100768	1474531100856	 	32
196819	2133322	However, he's no better than waiver wire fodder in Fantasy Football.	However, he's no better than waiver wire fodder in Fantasy Football.	101348278	1474531101080	1474531101552	SHIFT	16
196819	2133322	However, he's no better than waiver wire fodder in Fantasy Football.	However, he's no better than waiver wire fodder in Fantasy Football.	101348254	1474531101464	1474531101536	F	70
196819	2133322	However, he's no better than waiver wire fodder in Fantasy Football.	However, he's no better than waiver wire fodder in Fantasy Football.	101348279	1474531102208	1474531102296	a	65
196819	2133322	However, he's no better than waiver wire fodder in Fantasy Football.	However, he's no better than waiver wire fodder in Fantasy Football.	101348280	1474531102344	1474531102432	n	78
196819	2133322	However, he's no better than waiver wire fodder in Fantasy Football.	However, he's no better than waiver wire fodder in Fantasy Football.	101348281	1474531102632	1474531102704	t	84
196819	2133322	However, he's no better than waiver wire fodder in Fantasy Football.	However, he's no better than waiver wire fodder in Fantasy Football.	101348282	1474531102864	1474531102984	a	65
196819	2133322	However, he's no better than waiver wire fodder in Fantasy Football.	However, he's no better than waiver wire fodder in Fantasy Football.	101348283	1474531103152	1474531103264	s	83
196819	2133322	However, he's no better than waiver wire fodder in Fantasy Football.	However, he's no better than waiver wire fodder in Fantasy Football.	101348330	1474531103376	1474531103528	y	89
196819	2133322	However, he's no better than waiver wire fodder in Fantasy Football.	However, he's no better than waiver wire fodder in Fantasy Football.	101348332	1474531104168	1474531104248	 	32
196819	2133322	However, he's no better than waiver wire fodder in Fantasy Football.	However, he's no better than waiver wire fodder in Fantasy Football.	101348336	1474531104624	1474531104944	SHIFT	16
196819	2133322	However, he's no better than waiver wire fodder in Fantasy Football.	However, he's no better than waiver wire fodder in Fantasy Football.	101348334	1474531104848	1474531104928	F	70
196819	2133322	However, he's no better than waiver wire fodder in Fantasy Football.	However, he's no better than waiver wire fodder in Fantasy Football.	101348338	1474531105344	1474531105416	o	79
196819	2133322	However, he's no better than waiver wire fodder in Fantasy Football.	However, he's no better than waiver wire fodder in Fantasy Football.	101348340	1474531105544	1474531105616	o	79
196819	2133322	However, he's no better than waiver wire fodder in Fantasy Football.	However, he's no better than waiver wire fodder in Fantasy Football.	101348356	1474531105864	1474531105952	t	84
196819	2133322	However, he's no better than waiver wire fodder in Fantasy Football.	However, he's no better than waiver wire fodder in Fantasy Football.	101348358	1474531106264	1474531106327	b	66
196819	2133322	However, he's no better than waiver wire fodder in Fantasy Football.	However, he's no better than waiver wire fodder in Fantasy Football.	101348361	1474531106392	1474531106520	a	65
196819	2133322	However, he's no better than waiver wire fodder in Fantasy Football.	However, he's no better than waiver wire fodder in Fantasy Football.	101348366	1474531106656	1474531106711	l	76
196819	2133322	However, he's no better than waiver wire fodder in Fantasy Football.	However, he's no better than waiver wire fodder in Fantasy Football.	101348371	1474531106776	1474531106888	l	76
196819	2133322	However, he's no better than waiver wire fodder in Fantasy Football.	However, he's no better than waiver wire fodder in Fantasy Football.	101348382	1474531107488	1474531107551	.	190
196819	2133337	Rio de Janeiro police freed him after a massive manhunt.	Rio de Janeiro police freed him after a massive manhunt.	101348434	1474531109072	1474531109504	SHIFT	16
196819	2133337	Rio de Janeiro police freed him after a massive manhunt.	Rio de Janeiro police freed him after a massive manhunt.	101348436	1474531109416	1474531109504	R	82
196819	2133337	Rio de Janeiro police freed him after a massive manhunt.	Rio de Janeiro police freed him after a massive manhunt.	101348438	1474531110192	1474531110336	i	73
196819	2133337	Rio de Janeiro police freed him after a massive manhunt.	Rio de Janeiro police freed him after a massive manhunt.	101348440	1474531110280	1474531110408	o	79
196819	2133337	Rio de Janeiro police freed him after a massive manhunt.	Rio de Janeiro police freed him after a massive manhunt.	101348442	1474531110480	1474531110568	 	32
196819	2133337	Rio de Janeiro police freed him after a massive manhunt.	Rio de Janeiro police freed him after a massive manhunt.	101348444	1474531111128	1474531111208	d	68
196819	2133337	Rio de Janeiro police freed him after a massive manhunt.	Rio de Janeiro police freed him after a massive manhunt.	101348472	1474531111320	1474531111400	e	69
196819	2133337	Rio de Janeiro police freed him after a massive manhunt.	Rio de Janeiro police freed him after a massive manhunt.	101348473	1474531111448	1474531111527	 	32
196819	2133337	Rio de Janeiro police freed him after a massive manhunt.	Rio de Janeiro police freed him after a massive manhunt.	101348474	1474531111752	1474531111983	SHIFT	16
196819	2133337	Rio de Janeiro police freed him after a massive manhunt.	Rio de Janeiro police freed him after a massive manhunt.	101348475	1474531111895	1474531111984	J	74
196819	2133337	Rio de Janeiro police freed him after a massive manhunt.	Rio de Janeiro police freed him after a massive manhunt.	101348476	1474531112087	1474531112200	a	65
196819	2133337	Rio de Janeiro police freed him after a massive manhunt.	Rio de Janeiro police freed him after a massive manhunt.	101348477	1474531112863	1474531112935	n	78
196819	2133337	Rio de Janeiro police freed him after a massive manhunt.	Rio de Janeiro police freed him after a massive manhunt.	101348537	1474531113575	1474531113712	e	69
196819	2133337	Rio de Janeiro police freed him after a massive manhunt.	Rio de Janeiro police freed him after a massive manhunt.	101348538	1474531114119	1474531114207	i	73
196819	2133337	Rio de Janeiro police freed him after a massive manhunt.	Rio de Janeiro police freed him after a massive manhunt.	101348539	1474531114399	1474531114511	r	82
196819	2133337	Rio de Janeiro police freed him after a massive manhunt.	Rio de Janeiro police freed him after a massive manhunt.	101348540	1474531114631	1474531114783	o	79
196819	2133337	Rio de Janeiro police freed him after a massive manhunt.	Rio de Janeiro police freed him after a massive manhunt.	101348541	1474531115239	1474531115343	 	32
196819	2133337	Rio de Janeiro police freed him after a massive manhunt.	Rio de Janeiro police freed him after a massive manhunt.	101348558	1474531115831	1474531115959	p	80
196819	2133337	Rio de Janeiro police freed him after a massive manhunt.	Rio de Janeiro police freed him after a massive manhunt.	101348559	1474531115903	1474531116023	o	79
196819	2133337	Rio de Janeiro police freed him after a massive manhunt.	Rio de Janeiro police freed him after a massive manhunt.	101348560	1474531116127	1474531116215	l	76
196819	2133337	Rio de Janeiro police freed him after a massive manhunt.	Rio de Janeiro police freed him after a massive manhunt.	101348561	1474531116304	1474531116379	i	73
196819	2133337	Rio de Janeiro police freed him after a massive manhunt.	Rio de Janeiro police freed him after a massive manhunt.	101348562	1474531116655	1474531116719	c	67
196819	2133337	Rio de Janeiro police freed him after a massive manhunt.	Rio de Janeiro police freed him after a massive manhunt.	101348605	1474531116775	1474531116879	e	69
196819	2133337	Rio de Janeiro police freed him after a massive manhunt.	Rio de Janeiro police freed him after a massive manhunt.	101348606	1474531117215	1474531117335	 	32
196819	2133337	Rio de Janeiro police freed him after a massive manhunt.	Rio de Janeiro police freed him after a massive manhunt.	101348607	1474531117847	1474531117927	f	70
196819	2133337	Rio de Janeiro police freed him after a massive manhunt.	Rio de Janeiro police freed him after a massive manhunt.	101348608	1474531118055	1474531118143	r	82
196819	2133337	Rio de Janeiro police freed him after a massive manhunt.	Rio de Janeiro police freed him after a massive manhunt.	101348609	1474531118144	1474531118215	e	69
196819	2133337	Rio de Janeiro police freed him after a massive manhunt.	Rio de Janeiro police freed him after a massive manhunt.	101348631	1474531118327	1474531118399	e	69
196819	2133337	Rio de Janeiro police freed him after a massive manhunt.	Rio de Janeiro police freed him after a massive manhunt.	101348633	1474531118703	1474531118823	d	68
196819	2133337	Rio de Janeiro police freed him after a massive manhunt.	Rio de Janeiro police freed him after a massive manhunt.	101348635	1474531118919	1474531119031	 	32
196819	2133337	Rio de Janeiro police freed him after a massive manhunt.	Rio de Janeiro police freed him after a massive manhunt.	101348637	1474531119327	1474531119487	h	72
196819	2133337	Rio de Janeiro police freed him after a massive manhunt.	Rio de Janeiro police freed him after a massive manhunt.	101348663	1474531119447	1474531119575	i	73
196819	2133337	Rio de Janeiro police freed him after a massive manhunt.	Rio de Janeiro police freed him after a massive manhunt.	101348664	1474531119783	1474531119927	m	77
196819	2133337	Rio de Janeiro police freed him after a massive manhunt.	Rio de Janeiro police freed him after a massive manhunt.	101348665	1474531119911	1474531120007	 	32
196819	2133337	Rio de Janeiro police freed him after a massive manhunt.	Rio de Janeiro police freed him after a massive manhunt.	101348667	1474531120191	1474531120287	a	65
196819	2133337	Rio de Janeiro police freed him after a massive manhunt.	Rio de Janeiro police freed him after a massive manhunt.	101348669	1474531121015	1474531121111	f	70
196819	2133337	Rio de Janeiro police freed him after a massive manhunt.	Rio de Janeiro police freed him after a massive manhunt.	101348671	1474531121327	1474531121422	t	84
196819	2133337	Rio de Janeiro police freed him after a massive manhunt.	Rio de Janeiro police freed him after a massive manhunt.	101348687	1474531121463	1474531121558	e	69
196819	2133337	Rio de Janeiro police freed him after a massive manhunt.	Rio de Janeiro police freed him after a massive manhunt.	101348688	1474531121663	1474531121735	r	82
196819	2133337	Rio de Janeiro police freed him after a massive manhunt.	Rio de Janeiro police freed him after a massive manhunt.	101348689	1474531121815	1474531121910	 	32
196819	2133337	Rio de Janeiro police freed him after a massive manhunt.	Rio de Janeiro police freed him after a massive manhunt.	101348691	1474531121951	1474531122086	a	65
196819	2133337	Rio de Janeiro police freed him after a massive manhunt.	Rio de Janeiro police freed him after a massive manhunt.	101348694	1474531122087	1474531122166	 	32
196819	2133337	Rio de Janeiro police freed him after a massive manhunt.	Rio de Janeiro police freed him after a massive manhunt.	101348724	1474531122550	1474531122646	m	77
196819	2133337	Rio de Janeiro police freed him after a massive manhunt.	Rio de Janeiro police freed him after a massive manhunt.	101348726	1474531122959	1474531123095	a	65
196819	2133337	Rio de Janeiro police freed him after a massive manhunt.	Rio de Janeiro police freed him after a massive manhunt.	101348728	1474531123318	1474531123390	s	83
196819	2133337	Rio de Janeiro police freed him after a massive manhunt.	Rio de Janeiro police freed him after a massive manhunt.	101348729	1474531123471	1474531123534	s	83
196819	2133337	Rio de Janeiro police freed him after a massive manhunt.	Rio de Janeiro police freed him after a massive manhunt.	101348730	1474531123654	1474531123710	i	73
196819	2133337	Rio de Janeiro police freed him after a massive manhunt.	Rio de Janeiro police freed him after a massive manhunt.	101348779	1474531124086	1474531124159	v	86
196819	2133337	Rio de Janeiro police freed him after a massive manhunt.	Rio de Janeiro police freed him after a massive manhunt.	101348781	1474531124191	1474531124278	e	69
196819	2133337	Rio de Janeiro police freed him after a massive manhunt.	Rio de Janeiro police freed him after a massive manhunt.	101348784	1474531124559	1474531124679	 	32
196819	2133337	Rio de Janeiro police freed him after a massive manhunt.	Rio de Janeiro police freed him after a massive manhunt.	101348786	1474531125375	1474531125455	m	77
196819	2133337	Rio de Janeiro police freed him after a massive manhunt.	Rio de Janeiro police freed him after a massive manhunt.	101348788	1474531125622	1474531125759	a	65
196819	2133337	Rio de Janeiro police freed him after a massive manhunt.	Rio de Janeiro police freed him after a massive manhunt.	101348805	1474531125799	1474531125871	n	78
196819	2133337	Rio de Janeiro police freed him after a massive manhunt.	Rio de Janeiro police freed him after a massive manhunt.	101348806	1474531126071	1474531126238	h	72
196819	2133337	Rio de Janeiro police freed him after a massive manhunt.	Rio de Janeiro police freed him after a massive manhunt.	101348807	1474531126439	1474531126535	u	85
196819	2133337	Rio de Janeiro police freed him after a massive manhunt.	Rio de Janeiro police freed him after a massive manhunt.	101348808	1474531126695	1474531126767	n	78
196819	2133337	Rio de Janeiro police freed him after a massive manhunt.	Rio de Janeiro police freed him after a massive manhunt.	101348809	1474531126967	1474531127055	t	84
196819	2133337	Rio de Janeiro police freed him after a massive manhunt.	Rio de Janeiro police freed him after a massive manhunt.	101348830	1474531128078	1474531128159	.	190
196819	2133344	Steve Gilbert is working on this.	Steve Gilbert is working on this,	101348899	1474531130166	1474531130663	SHIFT	16
196819	2133344	Steve Gilbert is working on this.	Steve Gilbert is working on this,	101348900	1474531130566	1474531130710	S	83
196819	2133344	Steve Gilbert is working on this.	Steve Gilbert is working on this,	101348901	1474531130711	1474531130790	t	84
196819	2133344	Steve Gilbert is working on this.	Steve Gilbert is working on this,	101348902	1474531130878	1474531130974	e	69
196819	2133344	Steve Gilbert is working on this.	Steve Gilbert is working on this,	101348903	1474531131222	1474531131302	v	86
196819	2133344	Steve Gilbert is working on this.	Steve Gilbert is working on this,	101348904	1474531131334	1474531131422	e	69
196819	2133344	Steve Gilbert is working on this.	Steve Gilbert is working on this,	101348931	1474531131550	1474531131638	 	32
196819	2133344	Steve Gilbert is working on this.	Steve Gilbert is working on this,	101348933	1474531132214	1474531132494	SHIFT	16
196819	2133344	Steve Gilbert is working on this.	Steve Gilbert is working on this,	101348934	1474531132430	1474531132518	G	71
196819	2133344	Steve Gilbert is working on this.	Steve Gilbert is working on this,	101348935	1474531133206	1474531133286	i	73
196819	2133344	Steve Gilbert is working on this.	Steve Gilbert is working on this,	101348936	1474531133478	1474531133550	l	76
196819	2133344	Steve Gilbert is working on this.	Steve Gilbert is working on this,	101348937	1474531133950	1474531134030	b	66
196819	2133344	Steve Gilbert is working on this.	Steve Gilbert is working on this,	101348966	1474531134166	1474531134294	e	69
196819	2133344	Steve Gilbert is working on this.	Steve Gilbert is working on this,	101348967	1474531134526	1474531134726	r	82
196819	2133344	Steve Gilbert is working on this.	Steve Gilbert is working on this,	101348968	1474531134662	1474531134814	t	84
196819	2133344	Steve Gilbert is working on this.	Steve Gilbert is working on this,	101348969	1474531134982	1474531135054	 	32
196819	2133344	Steve Gilbert is working on this.	Steve Gilbert is working on this,	101348970	1474531135462	1474531135583	i	73
196819	2133344	Steve Gilbert is working on this.	Steve Gilbert is working on this,	101348999	1474531135614	1474531135758	s	83
196819	2133344	Steve Gilbert is working on this.	Steve Gilbert is working on this,	101349002	1474531135742	1474531135822	 	32
196819	2133344	Steve Gilbert is working on this.	Steve Gilbert is working on this,	101349005	1474531136030	1474531136150	w	87
196819	2133344	Steve Gilbert is working on this.	Steve Gilbert is working on this,	101349007	1474531136285	1474531136382	o	79
196819	2133344	Steve Gilbert is working on this.	Steve Gilbert is working on this,	101349009	1474531136837	1474531136917	r	82
196819	2133344	Steve Gilbert is working on this.	Steve Gilbert is working on this,	101349028	1474531137117	1474531137206	k	75
196819	2133344	Steve Gilbert is working on this.	Steve Gilbert is working on this,	101349031	1474531137294	1474531137373	i	73
196819	2133344	Steve Gilbert is working on this.	Steve Gilbert is working on this,	101349034	1474531137542	1474531137605	n	78
196819	2133344	Steve Gilbert is working on this.	Steve Gilbert is working on this,	101349037	1474531137845	1474531137949	g	71
196819	2133344	Steve Gilbert is working on this.	Steve Gilbert is working on this,	101349082	1474531137926	1474531137981	 	32
196819	2133344	Steve Gilbert is working on this.	Steve Gilbert is working on this,	101349083	1474531138549	1474531138662	o	79
196819	2133344	Steve Gilbert is working on this.	Steve Gilbert is working on this,	101349085	1474531139245	1474531139357	n	78
196819	2133344	Steve Gilbert is working on this.	Steve Gilbert is working on this,	101349086	1474531139309	1474531139421	 	32
196819	2133344	Steve Gilbert is working on this.	Steve Gilbert is working on this,	101349087	1474531139685	1474531139837	t	84
196819	2133344	Steve Gilbert is working on this.	Steve Gilbert is working on this,	101349088	1474531139838	1474531139933	h	72
196819	2133344	Steve Gilbert is working on this.	Steve Gilbert is working on this,	101349114	1474531140069	1474531140181	i	73
196819	2133344	Steve Gilbert is working on this.	Steve Gilbert is working on this,	101349115	1474531140205	1474531140317	s	83
196819	2133344	Steve Gilbert is working on this.	Steve Gilbert is working on this,	101349116	1474531140990	1474531141061	,	188
196819	2133349	Are you in a good mood?	Are you in a good mood?	101349177	1474531142909	1474531143149	SHIFT	16
196819	2133349	Are you in a good mood?	Are you in a good mood?	101349179	1474531143053	1474531143229	A	65
196819	2133349	Are you in a good mood?	Are you in a good mood?	101349181	1474531143557	1474531143621	r	82
196819	2133349	Are you in a good mood?	Are you in a good mood?	101349184	1474531143757	1474531143829	e	69
196819	2133349	Are you in a good mood?	Are you in a good mood?	101349187	1474531143957	1474531144037	 	32
196819	2133349	Are you in a good mood?	Are you in a good mood?	101349190	1474531144293	1474531144421	y	89
196819	2133349	Are you in a good mood?	Are you in a good mood?	101349206	1474531144381	1474531144573	o	79
196819	2133349	Are you in a good mood?	Are you in a good mood?	101349208	1474531144533	1474531144653	u	85
196819	2133349	Are you in a good mood?	Are you in a good mood?	101349210	1474531144621	1474531144725	 	32
196819	2133349	Are you in a good mood?	Are you in a good mood?	101349212	1474531145261	1474531145341	i	73
196819	2133349	Are you in a good mood?	Are you in a good mood?	101349214	1474531145597	1474531145757	n	78
196819	2133349	Are you in a good mood?	Are you in a good mood?	101349250	1474531145725	1474531145821	 	32
196819	2133349	Are you in a good mood?	Are you in a good mood?	101349253	1474531145973	1474531146125	a	65
196819	2133349	Are you in a good mood?	Are you in a good mood?	101349256	1474531146253	1474531146346	 	32
196819	2133349	Are you in a good mood?	Are you in a good mood?	101349260	1474531146949	1474531147086	g	71
196819	2133349	Are you in a good mood?	Are you in a good mood?	101349264	1474531147045	1474531147189	o	79
196819	2133349	Are you in a good mood?	Are you in a good mood?	101349268	1474531147301	1474531147381	d	68
196819	2133349	Are you in a good mood?	Are you in a good mood?	101349310	1474531147429	1474531147525	d	68
196819	2133349	Are you in a good mood?	Are you in a good mood?	101349312	1474531147941	1474531148013	BKSP	8
196819	2133349	Are you in a good mood?	Are you in a good mood?	101349314	1474531148077	1474531148157	BKSP	8
196819	2133349	Are you in a good mood?	Are you in a good mood?	101349316	1474531148429	1474531148501	o	79
196819	2133349	Are you in a good mood?	Are you in a good mood?	101349318	1474531148533	1474531148661	d	68
196819	2133349	Are you in a good mood?	Are you in a good mood?	101349320	1474531148685	1474531148789	 	32
196819	2133349	Are you in a good mood?	Are you in a good mood?	101349322	1474531149101	1474531149277	m	77
196819	2133349	Are you in a good mood?	Are you in a good mood?	101349414	1474531149221	1474531149341	o	79
196819	2133349	Are you in a good mood?	Are you in a good mood?	101349415	1474531149437	1474531149517	o	79
196819	2133349	Are you in a good mood?	Are you in a good mood?	101349417	1474531149893	1474531150045	d	68
196819	2133349	Are you in a good mood?	Are you in a good mood?	101349418	1474531150573	1474531153316	SHIFT	16
196819	2133349	Are you in a good mood?	Are you in a good mood?	101349420	1474531153269	1474531153340	?	191
196819	2133356	Let me know if I can help.	Let me know if I can help.	101349452	1474531155268	1474531155524	SHIFT	16
196819	2133356	Let me know if I can help.	Let me know if I can help.	101349450	1474531155412	1474531155500	L	76
196819	2133356	Let me know if I can help.	Let me know if I can help.	101349456	1474531155700	1474531155804	e	69
196819	2133356	Let me know if I can help.	Let me know if I can help.	101349458	1474531155940	1474531156028	t	84
196819	2133356	Let me know if I can help.	Let me know if I can help.	101349460	1474531155988	1474531156100	 	32
196819	2133356	Let me know if I can help.	Let me know if I can help.	101349462	1474531156270	1474531156397	m	77
196819	2133356	Let me know if I can help.	Let me know if I can help.	101349484	1474531156399	1474531156501	e	69
196819	2133356	Let me know if I can help.	Let me know if I can help.	101349486	1474531156588	1474531156605	 	32
196819	2133356	Let me know if I can help.	Let me know if I can help.	101349487	1474531157660	1474531157788	k	75
196819	2133356	Let me know if I can help.	Let me know if I can help.	101349488	1474531157740	1474531157908	n	78
196819	2133356	Let me know if I can help.	Let me know if I can help.	101349489	1474531157964	1474531158100	o	79
196819	2133356	Let me know if I can help.	Let me know if I can help.	101349522	1474531158124	1474531158244	w	87
196819	2133356	Let me know if I can help.	Let me know if I can help.	101349526	1474531158284	1474531158380	 	32
196819	2133356	Let me know if I can help.	Let me know if I can help.	101349533	1474531158772	1474531158868	i	73
196819	2133356	Let me know if I can help.	Let me know if I can help.	101349538	1474531159236	1474531159353	f	70
196819	2133356	Let me know if I can help.	Let me know if I can help.	101349580	1474531159316	1474531159412	 	32
196819	2133356	Let me know if I can help.	Let me know if I can help.	101349581	1474531159660	1474531159932	SHIFT	16
196819	2133356	Let me know if I can help.	Let me know if I can help.	101349582	1474531159828	1474531159964	I	73
196819	2133356	Let me know if I can help.	Let me know if I can help.	101349584	1474531159908	1474531160020	 	32
196819	2133356	Let me know if I can help.	Let me know if I can help.	101349586	1474531160732	1474531160828	c	67
196819	2133356	Let me know if I can help.	Let me know if I can help.	101349588	1474531161004	1474531161156	a	65
196819	2133356	Let me know if I can help.	Let me know if I can help.	101349590	1474531161188	1474531161268	n	78
196819	2133356	Let me know if I can help.	Let me know if I can help.	101349644	1474531161236	1474531161348	 	32
196819	2133356	Let me know if I can help.	Let me know if I can help.	101349645	1474531161748	1474531161820	h	72
196819	2133356	Let me know if I can help.	Let me know if I can help.	101349646	1474531161932	1474531162060	e	69
196819	2133356	Let me know if I can help.	Let me know if I can help.	101349647	1474531162124	1474531162236	l	76
196819	2133356	Let me know if I can help.	Let me know if I can help.	101349648	1474531162356	1474531162436	o	79
196819	2133356	Let me know if I can help.	Let me know if I can help.	101349649	1474531163108	1474531163204	BKSP	8
196819	2133356	Let me know if I can help.	Let me know if I can help.	101349650	1474531163500	1474531163556	p	80
196819	2133356	Let me know if I can help.	Let me know if I can help.	101349659	1474531163756	1474531163804	.	190
196819	2133360	Did you ever hear anything?.	Did you ever hear anything?	101349709	1474531165444	1474531166396	SHIFT	16
196819	2133360	Did you ever hear anything?.	Did you ever hear anything?	101349712	1474531166300	1474531166420	D	68
196819	2133360	Did you ever hear anything?.	Did you ever hear anything?	101349715	1474531166484	1474531166571	i	73
196819	2133360	Did you ever hear anything?.	Did you ever hear anything?	101349718	1474531166604	1474531166700	d	68
196819	2133360	Did you ever hear anything?.	Did you ever hear anything?	101349721	1474531166740	1474531166852	 	32
196819	2133360	Did you ever hear anything?.	Did you ever hear anything?	101349723	1474531167163	1474531167404	y	89
196819	2133360	Did you ever hear anything?.	Did you ever hear anything?	101349745	1474531167405	1474531167555	o	79
196819	2133360	Did you ever hear anything?.	Did you ever hear anything?	101349749	1474531167556	1474531167660	u	85
196819	2133360	Did you ever hear anything?.	Did you ever hear anything?	101349752	1474531168028	1474531168139	 	32
196819	2133360	Did you ever hear anything?.	Did you ever hear anything?	101349754	1474531168571	1474531168691	e	69
196819	2133360	Did you ever hear anything?.	Did you ever hear anything?	101349756	1474531168731	1474531168827	v	86
196819	2133360	Did you ever hear anything?.	Did you ever hear anything?	101349764	1474531168897	1474531168971	e	69
196819	2133360	Did you ever hear anything?.	Did you ever hear anything?	101349766	1474531169099	1474531169190	r	82
196819	2133360	Did you ever hear anything?.	Did you ever hear anything?	101349767	1474531169243	1474531169347	 	32
196819	2133360	Did you ever hear anything?.	Did you ever hear anything?	101349768	1474531169676	1474531169755	h	72
196819	2133360	Did you ever hear anything?.	Did you ever hear anything?	101349769	1474531169811	1474531169883	e	69
196819	2133360	Did you ever hear anything?.	Did you ever hear anything?	101349791	1474531170083	1474531170211	a	65
196819	2133360	Did you ever hear anything?.	Did you ever hear anything?	101349792	1474531170235	1474531170300	r	82
196819	2133360	Did you ever hear anything?.	Did you ever hear anything?	101349793	1474531170275	1474531170381	 	32
196819	2133360	Did you ever hear anything?.	Did you ever hear anything?	101349794	1474531170547	1474531170643	a	65
196819	2133360	Did you ever hear anything?.	Did you ever hear anything?	101349795	1474531170875	1474531170955	n	78
196819	2133360	Did you ever hear anything?.	Did you ever hear anything?	101349824	1474531171155	1474531171243	y	89
196819	2133360	Did you ever hear anything?.	Did you ever hear anything?	101349825	1474531171372	1474531171451	t	84
196819	2133360	Did you ever hear anything?.	Did you ever hear anything?	101349826	1474531171604	1474531171691	h	72
196819	2133360	Did you ever hear anything?.	Did you ever hear anything?	101349827	1474531171852	1474531171947	i	73
196819	2133360	Did you ever hear anything?.	Did you ever hear anything?	101349828	1474531172172	1474531172251	n	78
196819	2133360	Did you ever hear anything?.	Did you ever hear anything?	101349847	1474531172444	1474531172515	g	71
196819	2133360	Did you ever hear anything?.	Did you ever hear anything?	101349849	1474531173019	1474531173195	SHIFT	16
196819	2133360	Did you ever hear anything?.	Did you ever hear anything?	101349851	1474531173123	1474531173243	?	191
196819	2133366	Geez, I sound pathetic.	Geez, I sound pathetic.	101349930	1474531175043	1474531175403	SHIFT	16
196819	2133366	Geez, I sound pathetic.	Geez, I sound pathetic.	101349931	1474531175283	1474531175404	G	71
196819	2133366	Geez, I sound pathetic.	Geez, I sound pathetic.	101349932	1474531175731	1474531175803	e	69
196819	2133366	Geez, I sound pathetic.	Geez, I sound pathetic.	101349933	1474531175891	1474531175971	e	69
196819	2133366	Geez, I sound pathetic.	Geez, I sound pathetic.	101349934	1474531176211	1474531176307	z	90
196819	2133366	Geez, I sound pathetic.	Geez, I sound pathetic.	101349935	1474531176635	1474531176771	,	188
196819	2133366	Geez, I sound pathetic.	Geez, I sound pathetic.	101349970	1474531176723	1474531176835	 	32
196819	2133366	Geez, I sound pathetic.	Geez, I sound pathetic.	101349971	1474531177011	1474531177267	SHIFT	16
196819	2133366	Geez, I sound pathetic.	Geez, I sound pathetic.	101349972	1474531177179	1474531177267	I	73
196819	2133366	Geez, I sound pathetic.	Geez, I sound pathetic.	101349973	1474531177219	1474531177339	 	32
196819	2133366	Geez, I sound pathetic.	Geez, I sound pathetic.	101349974	1474531177699	1474531177811	s	83
196819	2133366	Geez, I sound pathetic.	Geez, I sound pathetic.	101349975	1474531177971	1474531178179	o	79
196819	2133366	Geez, I sound pathetic.	Geez, I sound pathetic.	101349990	1474531178115	1474531178243	u	85
196819	2133366	Geez, I sound pathetic.	Geez, I sound pathetic.	101349991	1474531178371	1474531178451	n	78
196819	2133366	Geez, I sound pathetic.	Geez, I sound pathetic.	101349992	1474531178739	1474531178851	d	68
196819	2133366	Geez, I sound pathetic.	Geez, I sound pathetic.	101349994	1474531178803	1474531178907	 	32
196819	2133366	Geez, I sound pathetic.	Geez, I sound pathetic.	101349996	1474531179267	1474531179347	p	80
196819	2133366	Geez, I sound pathetic.	Geez, I sound pathetic.	101349998	1474531179435	1474531179547	a	65
196819	2133366	Geez, I sound pathetic.	Geez, I sound pathetic.	101350027	1474531179915	1474531180035	t	84
196819	2133366	Geez, I sound pathetic.	Geez, I sound pathetic.	101350028	1474531179995	1474531180123	h	72
196819	2133366	Geez, I sound pathetic.	Geez, I sound pathetic.	101350029	1474531180203	1474531180315	e	69
196819	2133366	Geez, I sound pathetic.	Geez, I sound pathetic.	101350030	1474531181123	1474531181219	t	84
196819	2133366	Geez, I sound pathetic.	Geez, I sound pathetic.	101350031	1474531181219	1474531181299	i	73
196819	2133366	Geez, I sound pathetic.	Geez, I sound pathetic.	101350072	1474531181603	1474531181683	c	67
196819	2133366	Geez, I sound pathetic.	Geez, I sound pathetic.	101350074	1474531183059	1474531183147	.	190
196819	2133370	We can discuss options early next week.	We can discuss options early next week.#	101350126	1474531185234	1474531185538	SHIFT	16
196819	2133370	We can discuss options early next week.	We can discuss options early next week.#	101350127	1474531185450	1474531185586	W	87
196819	2133370	We can discuss options early next week.	We can discuss options early next week.#	101350128	1474531185714	1474531185810	e	69
196819	2133370	We can discuss options early next week.	We can discuss options early next week.#	101350129	1474531185874	1474531185978	 	32
196819	2133370	We can discuss options early next week.	We can discuss options early next week.#	101350130	1474531186338	1474531186442	c	67
196819	2133370	We can discuss options early next week.	We can discuss options early next week.#	101350132	1474531186578	1474531186730	a	65
196819	2133370	We can discuss options early next week.	We can discuss options early next week.#	101350141	1474531186703	1474531186818	n	78
196819	2133370	We can discuss options early next week.	We can discuss options early next week.#	101350144	1474531186778	1474531186890	 	32
196819	2133370	We can discuss options early next week.	We can discuss options early next week.#	101350147	1474531187058	1474531187146	d	68
196819	2133370	We can discuss options early next week.	We can discuss options early next week.#	101350150	1474531187250	1474531187338	i	73
196819	2133370	We can discuss options early next week.	We can discuss options early next week.#	101350153	1474531187458	1474531187570	s	83
196819	2133370	We can discuss options early next week.	We can discuss options early next week.#	101350155	1474531187763	1474531187874	c	67
196819	2133370	We can discuss options early next week.	We can discuss options early next week.#	101350167	1474531188018	1474531188090	u	85
196819	2133370	We can discuss options early next week.	We can discuss options early next week.#	101350168	1474531188226	1474531188290	s	83
196819	2133370	We can discuss options early next week.	We can discuss options early next week.#	101350169	1474531188402	1474531188466	s	83
196819	2133370	We can discuss options early next week.	We can discuss options early next week.#	101350170	1474531188586	1474531188714	 	32
196819	2133370	We can discuss options early next week.	We can discuss options early next week.#	101350171	1474531189570	1474531189738	o	79
196819	2133370	We can discuss options early next week.	We can discuss options early next week.#	101350200	1474531189666	1474531189802	p	80
196819	2133370	We can discuss options early next week.	We can discuss options early next week.#	101350203	1474531190026	1474531190106	t	84
196819	2133370	We can discuss options early next week.	We can discuss options early next week.#	101350208	1474531190402	1474531190570	i	73
196819	2133370	We can discuss options early next week.	We can discuss options early next week.#	101350211	1474531190506	1474531190650	o	79
196819	2133370	We can discuss options early next week.	We can discuss options early next week.#	101350213	1474531190802	1474531190954	n	78
196819	2133370	We can discuss options early next week.	We can discuss options early next week.#	101350243	1474531190946	1474531191082	s	83
196819	2133370	We can discuss options early next week.	We can discuss options early next week.#	101350244	1474531191418	1474531191506	 	32
196819	2133370	We can discuss options early next week.	We can discuss options early next week.#	101350245	1474531191954	1474531192042	e	69
196819	2133370	We can discuss options early next week.	We can discuss options early next week.#	101350246	1474531192283	1474531192410	a	65
196819	2133370	We can discuss options early next week.	We can discuss options early next week.#	101350248	1474531192378	1474531192474	r	82
196819	2133370	We can discuss options early next week.	We can discuss options early next week.#	101350250	1474531192778	1474531192866	l	76
196819	2133370	We can discuss options early next week.	We can discuss options early next week.#	101350274	1474531193074	1474531193186	y	89
196819	2133370	We can discuss options early next week.	We can discuss options early next week.#	101350277	1474531193170	1474531193258	 	32
196819	2133370	We can discuss options early next week.	We can discuss options early next week.#	101350279	1474531193530	1474531193610	n	78
196819	2133370	We can discuss options early next week.	We can discuss options early next week.#	101350280	1474531193698	1474531193802	e	69
196819	2133370	We can discuss options early next week.	We can discuss options early next week.#	101350282	1474531193930	1474531194010	s	83
196819	2133370	We can discuss options early next week.	We can discuss options early next week.#	101350321	1474531194298	1474531194394	BKSP	8
196819	2133370	We can discuss options early next week.	We can discuss options early next week.#	101350322	1474531194418	1474531194524	x	88
196819	2133370	We can discuss options early next week.	We can discuss options early next week.#	101350323	1474531194578	1474531194730	t	84
196819	2133370	We can discuss options early next week.	We can discuss options early next week.#	101350324	1474531194666	1474531194794	 	32
196819	2133370	We can discuss options early next week.	We can discuss options early next week.#	101350325	1474531195226	1474531195322	w	87
196819	2133370	We can discuss options early next week.	We can discuss options early next week.#	101350326	1474531195434	1474531195634	e	69
196819	2133370	We can discuss options early next week.	We can discuss options early next week.#	101350380	1474531195706	1474531195770	k	75
196819	2133370	We can discuss options early next week.	We can discuss options early next week.#	101350382	1474531196498	1474531196554	.	190
196819	2133370	We can discuss options early next week.	We can discuss options early next week.#	101350383	1474531197130	1474531197178	BKSP	8
196819	2133370	We can discuss options early next week.	We can discuss options early next week.#	101350384	1474531197266	1474531197314	BKSP	8
196819	2133370	We can discuss options early next week.	We can discuss options early next week.#	101350386	1474531197930	1474531198074	e	69
196819	2133370	We can discuss options early next week.	We can discuss options early next week.#	101350389	1474531198721	1474531198793	k	75
196819	2133370	We can discuss options early next week.	We can discuss options early next week.#	101350392	1474531199106	1474531199161	.	190
196819	2133377	I just want to make sure we're both on the same schedule.	I just want to make sure we're both on the sa,m eschedule.	101350438	1474531201201	1474531201489	SHIFT	16
196819	2133377	I just want to make sure we're both on the same schedule.	I just want to make sure we're both on the sa,m eschedule.	101350440	1474531201369	1474531201490	I	73
196819	2133377	I just want to make sure we're both on the same schedule.	I just want to make sure we're both on the sa,m eschedule.	101350442	1474531201433	1474531201553	 	32
196819	2133377	I just want to make sure we're both on the same schedule.	I just want to make sure we're both on the sa,m eschedule.	101350444	1474531201737	1474531201825	j	74
196819	2133377	I just want to make sure we're both on the same schedule.	I just want to make sure we're both on the sa,m eschedule.	101350447	1474531201913	1474531202009	u	85
196819	2133377	I just want to make sure we're both on the same schedule.	I just want to make sure we're both on the sa,m eschedule.	101350449	1474531202033	1474531202217	s	83
196819	2133377	I just want to make sure we're both on the same schedule.	I just want to make sure we're both on the sa,m eschedule.	101350464	1474531202219	1474531202393	t	84
196819	2133377	I just want to make sure we're both on the same schedule.	I just want to make sure we're both on the sa,m eschedule.	101350466	1474531202313	1474531202425	 	32
196819	2133377	I just want to make sure we're both on the same schedule.	I just want to make sure we're both on the sa,m eschedule.	101350467	1474531202977	1474531203058	w	87
196819	2133377	I just want to make sure we're both on the same schedule.	I just want to make sure we're both on the sa,m eschedule.	101350469	1474531203209	1474531203353	a	65
196819	2133377	I just want to make sure we're both on the same schedule.	I just want to make sure we're both on the sa,m eschedule.	101350488	1474531203329	1474531203449	b	66
196819	2133377	I just want to make sure we're both on the same schedule.	I just want to make sure we're both on the sa,m eschedule.	101350490	1474531203905	1474531203977	BKSP	8
196819	2133377	I just want to make sure we're both on the same schedule.	I just want to make sure we're both on the sa,m eschedule.	101350493	1474531204425	1474531204513	n	78
196819	2133377	I just want to make sure we're both on the same schedule.	I just want to make sure we're both on the sa,m eschedule.	101350496	1474531204738	1474531204846	t	84
196819	2133377	I just want to make sure we're both on the same schedule.	I just want to make sure we're both on the sa,m eschedule.	101350498	1474531204778	1474531204873	 	32
196819	2133377	I just want to make sure we're both on the same schedule.	I just want to make sure we're both on the sa,m eschedule.	101350500	1474531205145	1474531205321	t	84
196819	2133377	I just want to make sure we're both on the same schedule.	I just want to make sure we're both on the sa,m eschedule.	101350513	1474531205241	1474531205409	o	79
196819	2133377	I just want to make sure we're both on the same schedule.	I just want to make sure we're both on the sa,m eschedule.	101350515	1474531205337	1474531205433	 	32
196819	2133377	I just want to make sure we're both on the same schedule.	I just want to make sure we're both on the sa,m eschedule.	101350518	1474531206185	1474531206353	m	77
196819	2133377	I just want to make sure we're both on the same schedule.	I just want to make sure we're both on the sa,m eschedule.	101350521	1474531206313	1474531206417	 	32
196819	2133377	I just want to make sure we're both on the same schedule.	I just want to make sure we're both on the sa,m eschedule.	101350525	1474531206354	1474531206449	e	69
196819	2133377	I just want to make sure we're both on the same schedule.	I just want to make sure we're both on the sa,m eschedule.	101350529	1474531206737	1474531206841	=	187
196819	2133377	I just want to make sure we're both on the same schedule.	I just want to make sure we're both on the sa,m eschedule.	101350567	1474531207273	1474531207329	BKSP	8
196819	2133377	I just want to make sure we're both on the same schedule.	I just want to make sure we're both on the sa,m eschedule.	101350568	1474531207425	1474531207481	BKSP	8
196819	2133377	I just want to make sure we're both on the same schedule.	I just want to make sure we're both on the sa,m eschedule.	101350570	1474531207553	1474531207625	BKSP	8
196819	2133377	I just want to make sure we're both on the same schedule.	I just want to make sure we're both on the sa,m eschedule.	101350572	1474531207977	1474531208145	a	65
196819	2133377	I just want to make sure we're both on the same schedule.	I just want to make sure we're both on the sa,m eschedule.	101350574	1474531208281	1474531208441	k	75
196819	2133377	I just want to make sure we're both on the same schedule.	I just want to make sure we're both on the sa,m eschedule.	101350576	1474531208441	1474531208521	 	32
196819	2133377	I just want to make sure we're both on the same schedule.	I just want to make sure we're both on the sa,m eschedule.	101350578	1474531209065	1474531209153	BKSP	8
196819	2133377	I just want to make sure we're both on the same schedule.	I just want to make sure we're both on the sa,m eschedule.	101350579	1474531209185	1474531209297	e	69
196819	2133377	I just want to make sure we're both on the same schedule.	I just want to make sure we're both on the sa,m eschedule.	101350580	1474531209329	1474531209425	 	32
196819	2133377	I just want to make sure we're both on the same schedule.	I just want to make sure we're both on the sa,m eschedule.	101350596	1474531209721	1474531209857	s	83
196819	2133377	I just want to make sure we're both on the same schedule.	I just want to make sure we're both on the sa,m eschedule.	101350597	1474531209953	1474531210041	u	85
196819	2133377	I just want to make sure we're both on the same schedule.	I just want to make sure we're both on the sa,m eschedule.	101350599	1474531210137	1474531210185	r	82
196819	2133377	I just want to make sure we're both on the same schedule.	I just want to make sure we're both on the sa,m eschedule.	101350600	1474531210313	1474531210393	e	69
196819	2133377	I just want to make sure we're both on the same schedule.	I just want to make sure we're both on the sa,m eschedule.	101350601	1474531210481	1474531210585	 	32
196819	2133377	I just want to make sure we're both on the same schedule.	I just want to make sure we're both on the sa,m eschedule.	101350662	1474531211473	1474531211577	w	87
196819	2133377	I just want to make sure we're both on the same schedule.	I just want to make sure we're both on the sa,m eschedule.	101350665	1474531211729	1474531211849	e	69
196819	2133377	I just want to make sure we're both on the same schedule.	I just want to make sure we're both on the sa,m eschedule.	101350670	1474531212377	1474531212449	'	192
196819	2133377	I just want to make sure we're both on the same schedule.	I just want to make sure we're both on the sa,m eschedule.	101350674	1474531212585	1474531212697	e	69
196819	2133377	I just want to make sure we're both on the same schedule.	I just want to make sure we're both on the sa,m eschedule.	101350678	1474531212937	1474531213025	BKSP	8
196819	2133377	I just want to make sure we're both on the same schedule.	I just want to make sure we're both on the sa,m eschedule.	101350680	1474531213145	1474531213225	r	82
196819	2133377	I just want to make sure we're both on the same schedule.	I just want to make sure we're both on the sa,m eschedule.	101350701	1474531213329	1474531213417	e	69
196819	2133377	I just want to make sure we're both on the same schedule.	I just want to make sure we're both on the sa,m eschedule.	101350703	1474531213489	1474531213585	 	32
196819	2133377	I just want to make sure we're both on the same schedule.	I just want to make sure we're both on the sa,m eschedule.	101350705	1474531214296	1474531214416	b	66
196819	2133377	I just want to make sure we're both on the same schedule.	I just want to make sure we're both on the sa,m eschedule.	101350707	1474531214368	1474531214528	o	79
196819	2133377	I just want to make sure we're both on the same schedule.	I just want to make sure we're both on the sa,m eschedule.	101350709	1474531214665	1474531214857	t	84
196819	2133377	I just want to make sure we're both on the same schedule.	I just want to make sure we're both on the sa,m eschedule.	101350729	1474531214808	1474531214984	h	72
196819	2133377	I just want to make sure we're both on the same schedule.	I just want to make sure we're both on the sa,m eschedule.	101350730	1474531215064	1474531215160	 	32
196819	2133377	I just want to make sure we're both on the same schedule.	I just want to make sure we're both on the sa,m eschedule.	101350731	1474531215616	1474531215784	o	79
196819	2133377	I just want to make sure we're both on the same schedule.	I just want to make sure we're both on the sa,m eschedule.	101350732	1474531215760	1474531215888	j	74
196819	2133377	I just want to make sure we're both on the same schedule.	I just want to make sure we're both on the sa,m eschedule.	101350733	1474531215888	1474531216024	 	32
196819	2133377	I just want to make sure we're both on the same schedule.	I just want to make sure we're both on the sa,m eschedule.	101350734	1474531216656	1474531216720	=	187
196819	2133377	I just want to make sure we're both on the same schedule.	I just want to make sure we're both on the sa,m eschedule.	101350772	1474531216800	1474531216913	=	187
196819	2133377	I just want to make sure we're both on the same schedule.	I just want to make sure we're both on the sa,m eschedule.	101350773	1474531217048	1474531217136	BKSP	8
196819	2133377	I just want to make sure we're both on the same schedule.	I just want to make sure we're both on the sa,m eschedule.	101350774	1474531217200	1474531217271	BKSP	8
196819	2133377	I just want to make sure we're both on the same schedule.	I just want to make sure we're both on the sa,m eschedule.	101350775	1474531217328	1474531217400	BKSP	8
196819	2133377	I just want to make sure we're both on the same schedule.	I just want to make sure we're both on the sa,m eschedule.	101350776	1474531217463	1474531217544	BKSP	8
196819	2133377	I just want to make sure we're both on the same schedule.	I just want to make sure we're both on the sa,m eschedule.	101350777	1474531217977	1474531218088	n	78
196819	2133377	I just want to make sure we're both on the same schedule.	I just want to make sure we're both on the sa,m eschedule.	101350778	1474531218432	1474531218568	t	84
196819	2133377	I just want to make sure we're both on the same schedule.	I just want to make sure we're both on the sa,m eschedule.	101350779	1474531218512	1474531218688	h	72
196819	2133377	I just want to make sure we're both on the same schedule.	I just want to make sure we're both on the sa,m eschedule.	101350780	1474531218736	1474531218808	 	32
196819	2133377	I just want to make sure we're both on the same schedule.	I just want to make sure we're both on the sa,m eschedule.	101350805	1474531219000	1474531219064	=	187
196819	2133377	I just want to make sure we're both on the same schedule.	I just want to make sure we're both on the sa,m eschedule.	101350803	1474531219016	1474531219048	BKSP	8
196819	2133377	I just want to make sure we're both on the same schedule.	I just want to make sure we're both on the sa,m eschedule.	101350807	1474531219280	1474531219305	BKSP	8
196819	2133377	I just want to make sure we're both on the same schedule.	I just want to make sure we're both on the sa,m eschedule.	101350809	1474531219376	1474531219448	BKSP	8
196819	2133377	I just want to make sure we're both on the same schedule.	I just want to make sure we're both on the sa,m eschedule.	101350811	1474531219520	1474531219592	BKSP	8
196819	2133377	I just want to make sure we're both on the same schedule.	I just want to make sure we're both on the sa,m eschedule.	101350813	1474531219880	1474531219992	 	32
196819	2133377	I just want to make sure we're both on the same schedule.	I just want to make sure we're both on the sa,m eschedule.	101350814	1474531220240	1474531220392	t	84
196819	2133377	I just want to make sure we're both on the same schedule.	I just want to make sure we're both on the sa,m eschedule.	101350815	1474531220320	1474531220472	h	72
196819	2133377	I just want to make sure we're both on the same schedule.	I just want to make sure we're both on the sa,m eschedule.	101350816	1474531220472	1474531220600	e	69
196819	2133377	I just want to make sure we're both on the same schedule.	I just want to make sure we're both on the sa,m eschedule.	101350825	1474531220602	1474531220704	 	32
196819	2133377	I just want to make sure we're both on the same schedule.	I just want to make sure we're both on the sa,m eschedule.	101350827	1474531220816	1474531220904	s	83
196819	2133377	I just want to make sure we're both on the same schedule.	I just want to make sure we're both on the sa,m eschedule.	101350829	1474531221032	1474531221152	a	65
196819	2133377	I just want to make sure we're both on the same schedule.	I just want to make sure we're both on the sa,m eschedule.	101350832	1474531221208	1474531221296	m	188
196819	2133377	I just want to make sure we're both on the same schedule.	I just want to make sure we're both on the sa,m eschedule.	101350869	1474531221297	1474531221400	 	32
196819	2133377	I just want to make sure we're both on the same schedule.	I just want to make sure we're both on the sa,m eschedule.	101350870	1474531221328	1474531221432	e	69
196819	2133377	I just want to make sure we're both on the same schedule.	I just want to make sure we're both on the sa,m eschedule.	101350871	1474531221640	1474531221744	s	83
196819	2133377	I just want to make sure we're both on the same schedule.	I just want to make sure we're both on the sa,m eschedule.	101350872	1474531222504	1474531222592	c	67
196819	2133377	I just want to make sure we're both on the same schedule.	I just want to make sure we're both on the sa,m eschedule.	101350873	1474531223336	1474531223400	h	72
196819	2133377	I just want to make sure we're both on the same schedule.	I just want to make sure we're both on the sa,m eschedule.	101350900	1474531223664	1474531223760	e	69
196819	2133377	I just want to make sure we're both on the same schedule.	I just want to make sure we're both on the sa,m eschedule.	101350902	1474531223968	1474531224072	d	68
196819	2133377	I just want to make sure we're both on the same schedule.	I just want to make sure we're both on the sa,m eschedule.	101350903	1474531224288	1474531224368	u	85
196819	2133377	I just want to make sure we're both on the same schedule.	I just want to make sure we're both on the sa,m eschedule.	101350904	1474531224536	1474531224616	l	76
196819	2133377	I just want to make sure we're both on the same schedule.	I just want to make sure we're both on the sa,m eschedule.	101350905	1474531224688	1474531224792	e	69
196819	2133377	I just want to make sure we're both on the same schedule.	I just want to make sure we're both on the sa,m eschedule.	101350928	1474531225488	1474531225544	.	190
196819	2133392	Sheila please talk to Avashe.	Ahelia please talk to Avashe.	101351011	1474531227448	1474531227728	SHIFT	16
196819	2133392	Sheila please talk to Avashe.	Ahelia please talk to Avashe.	101351012	1474531227656	1474531227792	A	65
196819	2133392	Sheila please talk to Avashe.	Ahelia please talk to Avashe.	101351013	1474531228280	1474531228367	h	72
196819	2133392	Sheila please talk to Avashe.	Ahelia please talk to Avashe.	101351014	1474531228576	1474531228696	e	69
196819	2133392	Sheila please talk to Avashe.	Ahelia please talk to Avashe.	101351016	1474531228767	1474531228880	l	76
196819	2133392	Sheila please talk to Avashe.	Ahelia please talk to Avashe.	101351020	1474531229015	1474531229088	i	73
196819	2133392	Sheila please talk to Avashe.	Ahelia please talk to Avashe.	101351072	1474531229136	1474531229247	a	65
196819	2133392	Sheila please talk to Avashe.	Ahelia please talk to Avashe.	101351074	1474531229327	1474531229415	 	32
196819	2133392	Sheila please talk to Avashe.	Ahelia please talk to Avashe.	101351076	1474531230815	1474531230903	p	80
196819	2133392	Sheila please talk to Avashe.	Ahelia please talk to Avashe.	101351078	1474531231039	1474531231135	l	76
196819	2133392	Sheila please talk to Avashe.	Ahelia please talk to Avashe.	101351081	1474531231207	1474531231303	e	69
196819	2133392	Sheila please talk to Avashe.	Ahelia please talk to Avashe.	101351118	1474531231431	1474531231543	a	65
196819	2133392	Sheila please talk to Avashe.	Ahelia please talk to Avashe.	101351120	1474531231647	1474531231727	s	83
196819	2133392	Sheila please talk to Avashe.	Ahelia please talk to Avashe.	101351122	1474531231799	1474531231903	e	69
196819	2133392	Sheila please talk to Avashe.	Ahelia please talk to Avashe.	101351125	1474531231983	1474531232095	 	32
196819	2133392	Sheila please talk to Avashe.	Ahelia please talk to Avashe.	101351128	1474531232775	1474531232847	t	84
196819	2133392	Sheila please talk to Avashe.	Ahelia please talk to Avashe.	101351180	1474531233087	1474531233223	a	65
196819	2133392	Sheila please talk to Avashe.	Ahelia please talk to Avashe.	101351181	1474531233351	1474531233447	l	76
196819	2133392	Sheila please talk to Avashe.	Ahelia please talk to Avashe.	101351182	1474531233583	1474531233671	k	75
196819	2133392	Sheila please talk to Avashe.	Ahelia please talk to Avashe.	101351183	1474531233807	1474531233903	 	32
196819	2133392	Sheila please talk to Avashe.	Ahelia please talk to Avashe.	101351184	1474531234519	1474531234687	t	84
196819	2133392	Sheila please talk to Avashe.	Ahelia please talk to Avashe.	101351213	1474531234735	1474531234847	o	79
196819	2133392	Sheila please talk to Avashe.	Ahelia please talk to Avashe.	101351215	1474531234807	1474531234927	 	32
196819	2133392	Sheila please talk to Avashe.	Ahelia please talk to Avashe.	101351217	1474531235183	1474531235471	SHIFT	16
196819	2133392	Sheila please talk to Avashe.	Ahelia please talk to Avashe.	101351219	1474531235391	1474531235527	A	65
196819	2133392	Sheila please talk to Avashe.	Ahelia please talk to Avashe.	101351221	1474531235711	1474531235799	v	86
196819	2133392	Sheila please talk to Avashe.	Ahelia please talk to Avashe.	101351222	1474531235895	1474531236007	a	65
196819	2133392	Sheila please talk to Avashe.	Ahelia please talk to Avashe.	101351240	1474531236199	1474531236295	s	83
196819	2133392	Sheila please talk to Avashe.	Ahelia please talk to Avashe.	101351242	1474531236367	1474531236455	h	72
196819	2133392	Sheila please talk to Avashe.	Ahelia please talk to Avashe.	101351245	1474531236543	1474531236639	a	65
196819	2133392	Sheila please talk to Avashe.	Ahelia please talk to Avashe.	101351248	1474531236759	1474531236839	v	86
196819	2133392	Sheila please talk to Avashe.	Ahelia please talk to Avashe.	101351251	1474531236911	1474531237031	e	69
196819	2133392	Sheila please talk to Avashe.	Ahelia please talk to Avashe.	101351373	1474531238375	1474531238463	BKSP	8
196819	2133392	Sheila please talk to Avashe.	Ahelia please talk to Avashe.	101351374	1474531238551	1474531238631	BKSP	8
196819	2133392	Sheila please talk to Avashe.	Ahelia please talk to Avashe.	101351375	1474531238711	1474531238791	BKSP	8
196819	2133392	Sheila please talk to Avashe.	Ahelia please talk to Avashe.	101351376	1474531240063	1474531240175	e	69
196819	2133392	Sheila please talk to Avashe.	Ahelia please talk to Avashe.	101351377	1474531240423	1474531240511	.	190
196819	2133392	Sheila please talk to Avashe.	Ahelia please talk to Avashe.	101351379	1474531241503	1474531241551	BKSP	8
