PARTICIPANT_ID	TEST_SECTION_ID	SENTENCE	USER_INPUT	KEYSTROKE_ID	PRESS_TIME	RELEASE_TIME	LETTER	KEYCODE
199430	2161223	Since yall are so slow to think, here are a few ideas.	Since yall are so slow to think, hera are a few ideas. 	102677652	1474560867432	1474560867588	SHIFT	16
199430	2161223	Since yall are so slow to think, here are a few ideas.	Since yall are so slow to think, hera are a few ideas. 	102677654	1474560867510	1474560867674	S	83
199430	2161223	Since yall are so slow to think, here are a few ideas.	Since yall are so slow to think, hera are a few ideas. 	102677656	1474560867635	1474560867768	i	73
199430	2161223	Since yall are so slow to think, here are a few ideas.	Since yall are so slow to think, hera are a few ideas. 	102677657	1474560867752	1474560867876	n	78
199430	2161223	Since yall are so slow to think, here are a few ideas.	Since yall are so slow to think, hera are a few ideas. 	102677689	1474560867790	1474560867891	c	67
199430	2161223	Since yall are so slow to think, here are a few ideas.	Since yall are so slow to think, hera are a few ideas. 	102677691	1474560867840	1474560868008	e	69
199430	2161223	Since yall are so slow to think, here are a few ideas.	Since yall are so slow to think, hera are a few ideas. 	102677696	1474560867969	1474560868106	 	32
199430	2161223	Since yall are so slow to think, here are a few ideas.	Since yall are so slow to think, hera are a few ideas. 	102677699	1474560868055	1474560868169	y	89
199430	2161223	Since yall are so slow to think, here are a few ideas.	Since yall are so slow to think, hera are a few ideas. 	102677706	1474560868184	1474560868303	a	65
199430	2161223	Since yall are so slow to think, here are a few ideas.	Since yall are so slow to think, hera are a few ideas. 	102677712	1474560868336	1474560868406	l	76
199430	2161223	Since yall are so slow to think, here are a few ideas.	Since yall are so slow to think, hera are a few ideas. 	102677717	1474560868468	1474560868614	l	76
199430	2161223	Since yall are so slow to think, here are a few ideas.	Since yall are so slow to think, hera are a few ideas. 	102677736	1474560868573	1474560868672	 	32
199430	2161223	Since yall are so slow to think, here are a few ideas.	Since yall are so slow to think, hera are a few ideas. 	102677741	1474560868688	1474560868834	a	65
199430	2161223	Since yall are so slow to think, here are a few ideas.	Since yall are so slow to think, hera are a few ideas. 	102677749	1474560868850	1474560868968	r	82
199430	2161223	Since yall are so slow to think, here are a few ideas.	Since yall are so slow to think, hera are a few ideas. 	102677757	1474560868953	1474560869069	e	69
199430	2161223	Since yall are so slow to think, here are a few ideas.	Since yall are so slow to think, hera are a few ideas. 	102677769	1474560869053	1474560869171	 	32
199430	2161223	Since yall are so slow to think, here are a few ideas.	Since yall are so slow to think, hera are a few ideas. 	102677833	1474560869156	1474560869258	s	83
199430	2161223	Since yall are so slow to think, here are a few ideas.	Since yall are so slow to think, hera are a few ideas. 	102677837	1474560869243	1474560869324	o	79
199430	2161223	Since yall are so slow to think, here are a few ideas.	Since yall are so slow to think, hera are a few ideas. 	102677843	1474560869339	1474560869453	 	32
199430	2161223	Since yall are so slow to think, here are a few ideas.	Since yall are so slow to think, hera are a few ideas. 	102677847	1474560869595	1474560869756	s	83
199430	2161223	Since yall are so slow to think, here are a few ideas.	Since yall are so slow to think, hera are a few ideas. 	102677853	1474560869703	1474560869803	l	76
199430	2161223	Since yall are so slow to think, here are a few ideas.	Since yall are so slow to think, hera are a few ideas. 	102677859	1474560869866	1474560869987	o	79
199430	2161223	Since yall are so slow to think, here are a few ideas.	Since yall are so slow to think, hera are a few ideas. 	102677865	1474560870002	1474560870119	w	87
199430	2161223	Since yall are so slow to think, here are a few ideas.	Since yall are so slow to think, hera are a few ideas. 	102677870	1474560870103	1474560870204	 	32
199430	2161223	Since yall are so slow to think, here are a few ideas.	Since yall are so slow to think, hera are a few ideas. 	102677877	1474560870189	1474560870308	t	84
199430	2161223	Since yall are so slow to think, here are a few ideas.	Since yall are so slow to think, hera are a few ideas. 	102677884	1474560870255	1474560870404	o	79
199430	2161223	Since yall are so slow to think, here are a few ideas.	Since yall are so slow to think, hera are a few ideas. 	102677901	1474560870356	1474560870521	 	32
199430	2161223	Since yall are so slow to think, here are a few ideas.	Since yall are so slow to think, hera are a few ideas. 	102677905	1474560870424	1474560870540	t	84
199430	2161223	Since yall are so slow to think, here are a few ideas.	Since yall are so slow to think, hera are a few ideas. 	102677907	1474560870505	1474560870623	h	72
199430	2161223	Since yall are so slow to think, here are a few ideas.	Since yall are so slow to think, hera are a few ideas. 	102677910	1474560870573	1474560870717	i	73
199430	2161223	Since yall are so slow to think, here are a few ideas.	Since yall are so slow to think, hera are a few ideas. 	102677914	1474560870701	1474560870875	n	78
199430	2161223	Since yall are so slow to think, here are a few ideas.	Since yall are so slow to think, hera are a few ideas. 	102677970	1474560870819	1474560870971	k	75
199430	2161223	Since yall are so slow to think, here are a few ideas.	Since yall are so slow to think, hera are a few ideas. 	102677975	1474560871034	1474560871204	,	188
199430	2161223	Since yall are so slow to think, here are a few ideas.	Since yall are so slow to think, hera are a few ideas. 	102677981	1474560871157	1474560871255	 	32
199430	2161223	Since yall are so slow to think, here are a few ideas.	Since yall are so slow to think, hera are a few ideas. 	102677989	1474560871317	1474560871452	h	72
199430	2161223	Since yall are so slow to think, here are a few ideas.	Since yall are so slow to think, hera are a few ideas. 	102677994	1474560871436	1474560871553	e	69
199430	2161223	Since yall are so slow to think, here are a few ideas.	Since yall are so slow to think, hera are a few ideas. 	102677998	1474560871615	1474560871721	r	82
199430	2161223	Since yall are so slow to think, here are a few ideas.	Since yall are so slow to think, hera are a few ideas. 	102678027	1474560871705	1474560871819	a	65
199430	2161223	Since yall are so slow to think, here are a few ideas.	Since yall are so slow to think, hera are a few ideas. 	102678035	1474560871866	1474560871971	 	32
199430	2161223	Since yall are so slow to think, here are a few ideas.	Since yall are so slow to think, hera are a few ideas. 	102678043	1474560872002	1474560872167	a	65
199430	2161223	Since yall are so slow to think, here are a few ideas.	Since yall are so slow to think, hera are a few ideas. 	102678046	1474560872198	1474560872274	r	82
199430	2161223	Since yall are so slow to think, here are a few ideas.	Since yall are so slow to think, hera are a few ideas. 	102678050	1474560872236	1474560872368	e	69
199430	2161223	Since yall are so slow to think, here are a few ideas.	Since yall are so slow to think, hera are a few ideas. 	102678120	1474560872352	1474560872460	 	32
199430	2161223	Since yall are so slow to think, here are a few ideas.	Since yall are so slow to think, hera are a few ideas. 	102678126	1474560872424	1474560872595	a	65
199430	2161223	Since yall are so slow to think, here are a few ideas.	Since yall are so slow to think, hera are a few ideas. 	102678132	1474560872552	1474560872655	 	32
199430	2161223	Since yall are so slow to think, here are a few ideas.	Since yall are so slow to think, hera are a few ideas. 	102678141	1474560873236	1474560873369	f	70
199430	2161223	Since yall are so slow to think, here are a few ideas.	Since yall are so slow to think, hera are a few ideas. 	102678147	1474560873463	1474560873602	e	69
199430	2161223	Since yall are so slow to think, here are a few ideas.	Since yall are so slow to think, hera are a few ideas. 	102678153	1474560873789	1474560873904	w	87
199430	2161223	Since yall are so slow to think, here are a few ideas.	Since yall are so slow to think, hera are a few ideas. 	102678189	1474560873967	1474560874072	 	32
199430	2161223	Since yall are so slow to think, here are a few ideas.	Since yall are so slow to think, hera are a few ideas. 	102678192	1474560874119	1474560874283	i	73
199430	2161223	Since yall are so slow to think, here are a few ideas.	Since yall are so slow to think, hera are a few ideas. 	102678195	1474560874268	1474560874387	d	68
199430	2161223	Since yall are so slow to think, here are a few ideas.	Since yall are so slow to think, hera are a few ideas. 	102678200	1474560874418	1474560874537	e	69
199430	2161223	Since yall are so slow to think, here are a few ideas.	Since yall are so slow to think, hera are a few ideas. 	102678206	1474560874568	1474560874708	a	65
199430	2161223	Since yall are so slow to think, here are a few ideas.	Since yall are so slow to think, hera are a few ideas. 	102678219	1474560874655	1474560874818	s	83
199430	2161223	Since yall are so slow to think, here are a few ideas.	Since yall are so slow to think, hera are a few ideas. 	102678224	1474560874849	1474560874988	.	190
199430	2161234	Both leading candidates have promised to create jobs.	Both leading candidates have promised to create jobs,. 	102678412	1474560874938	1474560877886	 	32
199430	2161234	Both leading candidates have promised to create jobs.	Both leading candidates have promised to create jobs,. 	102678390	1474560877224	1474560877423	SHIFT	16
199430	2161234	Both leading candidates have promised to create jobs.	Both leading candidates have promised to create jobs,. 	102678394	1474560877349	1474560877454	B	66
199430	2161234	Both leading candidates have promised to create jobs.	Both leading candidates have promised to create jobs,. 	102678400	1474560877501	1474560877608	o	79
199430	2161234	Both leading candidates have promised to create jobs.	Both leading candidates have promised to create jobs,. 	102678405	1474560877573	1474560877686	t	84
199430	2161234	Both leading candidates have promised to create jobs.	Both leading candidates have promised to create jobs,. 	102678409	1474560877655	1474560877788	h	72
199430	2161234	Both leading candidates have promised to create jobs.	Both leading candidates have promised to create jobs,. 	102678423	1474560877855	1474560877975	l	76
199430	2161234	Both leading candidates have promised to create jobs.	Both leading candidates have promised to create jobs,. 	102678430	1474560877941	1474560878037	e	69
199430	2161234	Both leading candidates have promised to create jobs.	Both leading candidates have promised to create jobs,. 	102678439	1474560878068	1474560878187	a	65
199430	2161234	Both leading candidates have promised to create jobs.	Both leading candidates have promised to create jobs,. 	102678449	1474560878171	1474560878287	d	68
199430	2161234	Both leading candidates have promised to create jobs.	Both leading candidates have promised to create jobs,. 	102678457	1474560878302	1474560878442	i	73
199430	2161234	Both leading candidates have promised to create jobs.	Both leading candidates have promised to create jobs,. 	102678468	1474560878391	1474560878514	n	78
199430	2161234	Both leading candidates have promised to create jobs.	Both leading candidates have promised to create jobs,. 	102678471	1474560878475	1474560878545	g	71
199430	2161234	Both leading candidates have promised to create jobs.	Both leading candidates have promised to create jobs,. 	102678476	1474560878561	1474560878691	 	32
199430	2161234	Both leading candidates have promised to create jobs.	Both leading candidates have promised to create jobs,. 	102678478	1474560878624	1474560878737	c	67
199430	2161234	Both leading candidates have promised to create jobs.	Both leading candidates have promised to create jobs,. 	102678481	1474560878753	1474560878886	a	65
199430	2161234	Both leading candidates have promised to create jobs.	Both leading candidates have promised to create jobs,. 	102678496	1474560878870	1474560878992	n	78
199430	2161234	Both leading candidates have promised to create jobs.	Both leading candidates have promised to create jobs,. 	102678498	1474560878946	1474560879070	d	68
199430	2161234	Both leading candidates have promised to create jobs.	Both leading candidates have promised to create jobs,. 	102678500	1474560879054	1474560879169	i	73
199430	2161234	Both leading candidates have promised to create jobs.	Both leading candidates have promised to create jobs,. 	102678502	1474560879154	1474560879270	d	68
199430	2161234	Both leading candidates have promised to create jobs.	Both leading candidates have promised to create jobs,. 	102678503	1474560879254	1474560879401	a	65
199430	2161234	Both leading candidates have promised to create jobs.	Both leading candidates have promised to create jobs,. 	102678506	1474560879416	1474560879525	t	84
199430	2161234	Both leading candidates have promised to create jobs.	Both leading candidates have promised to create jobs,. 	102678549	1474560879490	1474560879606	e	69
199430	2161234	Both leading candidates have promised to create jobs.	Both leading candidates have promised to create jobs,. 	102678556	1474560879669	1474560879818	s	83
199430	2161234	Both leading candidates have promised to create jobs.	Both leading candidates have promised to create jobs,. 	102678560	1474560879802	1474560879923	 	32
199430	2161234	Both leading candidates have promised to create jobs.	Both leading candidates have promised to create jobs,. 	102678568	1474560879858	1474560879975	h	72
199430	2161234	Both leading candidates have promised to create jobs.	Both leading candidates have promised to create jobs,. 	102678574	1474560879939	1474560880037	a	65
199430	2161234	Both leading candidates have promised to create jobs.	Both leading candidates have promised to create jobs,. 	102678579	1474560880053	1474560880139	v	86
199430	2161234	Both leading candidates have promised to create jobs.	Both leading candidates have promised to create jobs,. 	102678613	1474560880092	1474560880210	e	69
199430	2161234	Both leading candidates have promised to create jobs.	Both leading candidates have promised to create jobs,. 	102678618	1474560880160	1474560880272	 	32
199430	2161234	Both leading candidates have promised to create jobs.	Both leading candidates have promised to create jobs,. 	102678622	1474560880257	1474560880389	p	80
199430	2161234	Both leading candidates have promised to create jobs.	Both leading candidates have promised to create jobs,. 	102678627	1474560880356	1474560880472	r	82
199430	2161234	Both leading candidates have promised to create jobs.	Both leading candidates have promised to create jobs,. 	102678631	1474560880456	1474560880556	o	79
199430	2161234	Both leading candidates have promised to create jobs.	Both leading candidates have promised to create jobs,. 	102678634	1474560880619	1474560880755	m	77
199430	2161234	Both leading candidates have promised to create jobs.	Both leading candidates have promised to create jobs,. 	102678668	1474560880705	1474560880825	i	73
199430	2161234	Both leading candidates have promised to create jobs.	Both leading candidates have promised to create jobs,. 	102678671	1474560880774	1474560880889	s	83
199430	2161234	Both leading candidates have promised to create jobs.	Both leading candidates have promised to create jobs,. 	102678675	1474560880920	1474560880974	e	69
199430	2161234	Both leading candidates have promised to create jobs.	Both leading candidates have promised to create jobs,. 	102678679	1474560881068	1474560881171	d	68
199430	2161234	Both leading candidates have promised to create jobs.	Both leading candidates have promised to create jobs,. 	102678681	1474560881126	1474560881237	 	32
199430	2161234	Both leading candidates have promised to create jobs.	Both leading candidates have promised to create jobs,. 	102678686	1474560881269	1474560881342	t	84
199430	2161234	Both leading candidates have promised to create jobs.	Both leading candidates have promised to create jobs,. 	102678724	1474560881308	1474560881425	o	79
199430	2161234	Both leading candidates have promised to create jobs.	Both leading candidates have promised to create jobs,. 	102678728	1474560881375	1474560881491	 	32
199430	2161234	Both leading candidates have promised to create jobs.	Both leading candidates have promised to create jobs,. 	102678733	1474560881441	1474560881539	c	67
199430	2161234	Both leading candidates have promised to create jobs.	Both leading candidates have promised to create jobs,. 	102678739	1474560881634	1474560881758	r	82
199430	2161234	Both leading candidates have promised to create jobs.	Both leading candidates have promised to create jobs,. 	102678743	1474560881723	1474560881858	e	69
199430	2161234	Both leading candidates have promised to create jobs.	Both leading candidates have promised to create jobs,. 	102678745	1474560881874	1474560881987	a	65
199430	2161234	Both leading candidates have promised to create jobs.	Both leading candidates have promised to create jobs,. 	102678762	1474560881971	1474560882072	t	84
199430	2161234	Both leading candidates have promised to create jobs.	Both leading candidates have promised to create jobs,. 	102678768	1474560882057	1474560882170	e	69
199430	2161234	Both leading candidates have promised to create jobs.	Both leading candidates have promised to create jobs,. 	102678774	1474560882154	1474560882276	 	32
199430	2161234	Both leading candidates have promised to create jobs.	Both leading candidates have promised to create jobs,. 	102678779	1474560882224	1474560882369	j	74
199430	2161234	Both leading candidates have promised to create jobs.	Both leading candidates have promised to create jobs,. 	102678785	1474560882354	1474560882457	o	79
199430	2161234	Both leading candidates have promised to create jobs.	Both leading candidates have promised to create jobs,. 	102678795	1474560882503	1474560882606	b	66
199430	2161234	Both leading candidates have promised to create jobs.	Both leading candidates have promised to create jobs,. 	102678792	1474560882638	1474560882779	s	83
199430	2161234	Both leading candidates have promised to create jobs.	Both leading candidates have promised to create jobs,. 	102678796	1474560882755	1474560882843	,	188
199430	2161234	Both leading candidates have promised to create jobs.	Both leading candidates have promised to create jobs,. 	102678799	1474560882809	1474560882875	.	190
199430	2161248	Thanks for sending this.	Thanks for sendhin this. 	102678981	1474560882859	1474560885808	 	32
199430	2161248	Thanks for sending this.	Thanks for sendhin this. 	102678926	1474560884876	1474560885141	SHIFT	16
199430	2161248	Thanks for sending this.	Thanks for sendhin this. 	102678928	1474560885082	1474560885188	T	84
199430	2161248	Thanks for sending this.	Thanks for sendhin this. 	102678930	1474560885219	1474560885322	h	72
199430	2161248	Thanks for sending this.	Thanks for sendhin this. 	102678933	1474560885306	1474560885451	a	65
199430	2161248	Thanks for sending this.	Thanks for sendhin this. 	102678937	1474560885405	1474560885526	n	78
199430	2161248	Thanks for sending this.	Thanks for sendhin this. 	102678972	1474560885490	1474560885574	k	75
199430	2161248	Thanks for sending this.	Thanks for sendhin this. 	102678976	1474560885559	1474560885687	s	83
199430	2161248	Thanks for sending this.	Thanks for sendhin this. 	102678985	1474560885756	1474560885870	f	70
199430	2161248	Thanks for sending this.	Thanks for sendhin this. 	102678992	1474560885839	1474560885971	o	79
199430	2161248	Thanks for sending this.	Thanks for sendhin this. 	102678996	1474560885956	1474560886072	r	82
199430	2161248	Thanks for sending this.	Thanks for sendhin this. 	102679001	1474560886088	1474560886159	 	32
199430	2161248	Thanks for sending this.	Thanks for sendhin this. 	102679037	1474560886126	1474560886223	s	83
199430	2161248	Thanks for sending this.	Thanks for sendhin this. 	102679040	1474560886270	1474560886375	e	69
199430	2161248	Thanks for sending this.	Thanks for sendhin this. 	102679043	1474560886286	1474560886441	n	78
199430	2161248	Thanks for sending this.	Thanks for sendhin this. 	102679046	1474560886488	1474560886606	d	68
199430	2161248	Thanks for sending this.	Thanks for sendhin this. 	102679049	1474560886890	1474560887035	h	72
199430	2161248	Thanks for sending this.	Thanks for sendhin this. 	102679086	1474560887004	1474560887170	i	73
199430	2161248	Thanks for sending this.	Thanks for sendhin this. 	102679094	1474560887127	1474560887285	n	78
199430	2161248	Thanks for sending this.	Thanks for sendhin this. 	102679101	1474560887395	1474560887477	 	32
199430	2161248	Thanks for sending this.	Thanks for sendhin this. 	102679120	1474560887508	1474560887610	t	84
199430	2161248	Thanks for sending this.	Thanks for sendhin this. 	102679130	1474560887559	1474560887688	h	72
199430	2161248	Thanks for sending this.	Thanks for sendhin this. 	102679146	1474560887672	1474560887808	i	73
199430	2161248	Thanks for sending this.	Thanks for sendhin this. 	102679150	1474560887792	1474560887939	s	83
199430	2161258	Just in case we haven't invited any of them.	Just in case we hanve"t invited any of them.	102679336	1474560888008	1474560890583	 	32
199430	2161258	Just in case we haven't invited any of them.	Just in case we hanve"t invited any of them.	102679323	1474560889845	1474560890083	SHIFT	16
199430	2161258	Just in case we haven't invited any of them.	Just in case we hanve"t invited any of them.	102679324	1474560889986	1474560890114	J	74
199430	2161258	Just in case we haven't invited any of them.	Just in case we hanve"t invited any of them.	102679327	1474560890145	1474560890265	u	85
199430	2161258	Just in case we haven't invited any of them.	Just in case we hanve"t invited any of them.	102679330	1474560890250	1474560890381	s	83
199430	2161258	Just in case we haven't invited any of them.	Just in case we hanve"t invited any of them.	102679333	1474560890396	1474560890536	t	84
199430	2161258	Just in case we haven't invited any of them.	Just in case we hanve"t invited any of them.	102679351	1474560890583	1474560890702	i	73
199430	2161258	Just in case we haven't invited any of them.	Just in case we hanve"t invited any of them.	102679352	1474560890650	1474560890755	n	78
199430	2161258	Just in case we haven't invited any of them.	Just in case we hanve"t invited any of them.	102679355	1474560890719	1474560890847	 	32
199430	2161258	Just in case we haven't invited any of them.	Just in case we hanve"t invited any of them.	102679356	1474560890802	1474560890915	c	67
199430	2161258	Just in case we haven't invited any of them.	Just in case we hanve"t invited any of them.	102679358	1474560890900	1474560891051	a	65
199430	2161258	Just in case we haven't invited any of them.	Just in case we hanve"t invited any of them.	102679388	1474560890998	1474560891115	s	83
199430	2161258	Just in case we haven't invited any of them.	Just in case we hanve"t invited any of them.	102679390	1474560891131	1474560891261	e	69
199430	2161258	Just in case we haven't invited any of them.	Just in case we hanve"t invited any of them.	102679395	1474560891245	1474560891369	 	32
199430	2161258	Just in case we haven't invited any of them.	Just in case we hanve"t invited any of them.	102679399	1474560891332	1474560891486	w	87
199430	2161258	Just in case we haven't invited any of them.	Just in case we hanve"t invited any of them.	102679404	1474560891470	1474560891603	e	69
199430	2161258	Just in case we haven't invited any of them.	Just in case we hanve"t invited any of them.	102679447	1474560891587	1474560891683	 	32
199430	2161258	Just in case we haven't invited any of them.	Just in case we hanve"t invited any of them.	102679452	1474560891714	1474560891869	h	72
199430	2161258	Just in case we haven't invited any of them.	Just in case we hanve"t invited any of them.	102679456	1474560891815	1474560891947	a	65
199430	2161258	Just in case we haven't invited any of them.	Just in case we hanve"t invited any of them.	102679468	1474560891962	1474560892137	n	78
199430	2161258	Just in case we haven't invited any of them.	Just in case we hanve"t invited any of them.	102679548	1474560892018	1474560892153	v	86
199430	2161258	Just in case we haven't invited any of them.	Just in case we hanve"t invited any of them.	102679549	1474560892085	1474560892200	e	69
199430	2161258	Just in case we haven't invited any of them.	Just in case we hanve"t invited any of them.	102679551	1474560892263	1474560892468	SHIFT	16
199430	2161258	Just in case we haven't invited any of them.	Just in case we hanve"t invited any of them.	102679554	1474560892388	1474560892500	"	222
199430	2161258	Just in case we haven't invited any of them.	Just in case we hanve"t invited any of them.	102679558	1474560892562	1474560892682	t	84
199430	2161258	Just in case we haven't invited any of them.	Just in case we hanve"t invited any of them.	102679565	1474560892713	1474560892832	 	32
199430	2161258	Just in case we haven't invited any of them.	Just in case we hanve"t invited any of them.	102679572	1474560893051	1474560893103	h	72
199430	2161258	Just in case we haven't invited any of them.	Just in case we hanve"t invited any of them.	102679581	1474560893291	1474560893368	BKSP	8
199430	2161258	Just in case we haven't invited any of them.	Just in case we hanve"t invited any of them.	102679589	1474560893758	1474560893882	i	73
199430	2161258	Just in case we haven't invited any of them.	Just in case we hanve"t invited any of them.	102679620	1474560893850	1474560893981	n	78
199430	2161258	Just in case we haven't invited any of them.	Just in case we hanve"t invited any of them.	102679624	1474560894152	1474560894286	v	86
199430	2161258	Just in case we haven't invited any of them.	Just in case we hanve"t invited any of them.	102679630	1474560894250	1474560894382	i	73
199430	2161258	Just in case we haven't invited any of them.	Just in case we hanve"t invited any of them.	102679634	1474560894445	1474560894549	t	84
199430	2161258	Just in case we haven't invited any of them.	Just in case we hanve"t invited any of them.	102679638	1474560894564	1474560894697	e	69
199430	2161258	Just in case we haven't invited any of them.	Just in case we hanve"t invited any of them.	102679641	1474560894744	1474560894834	d	68
199430	2161258	Just in case we haven't invited any of them.	Just in case we hanve"t invited any of them.	102679643	1474560894849	1474560894934	 	32
199430	2161258	Just in case we haven't invited any of them.	Just in case we hanve"t invited any of them.	102679644	1474560894950	1474560895069	a	65
199430	2161258	Just in case we haven't invited any of them.	Just in case we hanve"t invited any of them.	102679645	1474560895020	1474560895152	n	78
199430	2161258	Just in case we haven't invited any of them.	Just in case we hanve"t invited any of them.	102679646	1474560895100	1474560895199	y	89
199430	2161258	Just in case we haven't invited any of them.	Just in case we hanve"t invited any of them.	102679648	1474560895214	1474560895318	 	32
199430	2161258	Just in case we haven't invited any of them.	Just in case we hanve"t invited any of them.	102679668	1474560895333	1474560895434	o	79
199430	2161258	Just in case we haven't invited any of them.	Just in case we hanve"t invited any of them.	102679672	1474560895418	1474560895516	f	70
199430	2161258	Just in case we haven't invited any of them.	Just in case we hanve"t invited any of them.	102679680	1474560895531	1474560895619	 	32
199430	2161258	Just in case we haven't invited any of them.	Just in case we hanve"t invited any of them.	102679687	1474560895581	1474560895720	t	84
199430	2161258	Just in case we haven't invited any of them.	Just in case we hanve"t invited any of them.	102679710	1474560895683	1474560895806	h	72
199430	2161258	Just in case we haven't invited any of them.	Just in case we hanve"t invited any of them.	102679714	1474560895784	1474560895908	e	69
199430	2161258	Just in case we haven't invited any of them.	Just in case we hanve"t invited any of them.	102679717	1474560895883	1474560895997	m	77
199430	2161271	Juppe met with the president at the Oval office.	Juppe met with the president at the Oval office. 	102679932	1474560898009	1474560898219	SHIFT	16
199430	2161271	Juppe met with the president at the Oval office.	Juppe met with the president at the Oval office. 	102679934	1474560898152	1474560898281	J	74
199430	2161271	Juppe met with the president at the Oval office.	Juppe met with the president at the Oval office. 	102679939	1474560898297	1474560898415	u	85
199430	2161271	Juppe met with the president at the Oval office.	Juppe met with the president at the Oval office. 	102679947	1474560898509	1474560898600	p	80
199430	2161271	Juppe met with the president at the Oval office.	Juppe met with the president at the Oval office. 	102679951	1474560898647	1474560898782	p	80
199430	2161271	Juppe met with the president at the Oval office.	Juppe met with the president at the Oval office. 	102679959	1474560898813	1474560898935	e	69
199430	2161271	Juppe met with the president at the Oval office.	Juppe met with the president at the Oval office. 	102680012	1474560898901	1474560899002	 	32
199430	2161271	Juppe met with the president at the Oval office.	Juppe met with the president at the Oval office. 	102680020	1474560899062	1474560899203	m	77
199430	2161271	Juppe met with the president at the Oval office.	Juppe met with the president at the Oval office. 	102680029	1474560899150	1474560899265	e	69
199430	2161271	Juppe met with the president at the Oval office.	Juppe met with the president at the Oval office. 	102680036	1474560899359	1474560899465	t	84
199430	2161271	Juppe met with the president at the Oval office.	Juppe met with the president at the Oval office. 	102680041	1474560899481	1474560899584	 	32
199430	2161271	Juppe met with the president at the Oval office.	Juppe met with the president at the Oval office. 	102680045	1474560899630	1474560899753	w	87
199430	2161271	Juppe met with the president at the Oval office.	Juppe met with the president at the Oval office. 	102680085	1474560899702	1474560899817	i	73
199430	2161271	Juppe met with the president at the Oval office.	Juppe met with the president at the Oval office. 	102680089	1474560899802	1474560899901	t	84
199430	2161271	Juppe met with the president at the Oval office.	Juppe met with the president at the Oval office. 	102680093	1474560899885	1474560899998	h	72
199430	2161271	Juppe met with the president at the Oval office.	Juppe met with the president at the Oval office. 	102680095	1474560899983	1474560900084	 	32
199430	2161271	Juppe met with the president at the Oval office.	Juppe met with the president at the Oval office. 	102680098	1474560900427	1474560900537	t	84
199430	2161271	Juppe met with the president at the Oval office.	Juppe met with the president at the Oval office. 	102680121	1474560900501	1474560900617	h	72
199430	2161271	Juppe met with the president at the Oval office.	Juppe met with the president at the Oval office. 	102680125	1474560900602	1474560900701	e	69
199430	2161271	Juppe met with the president at the Oval office.	Juppe met with the president at the Oval office. 	102680132	1474560900685	1474560900814	 	32
199430	2161271	Juppe met with the president at the Oval office.	Juppe met with the president at the Oval office. 	102680136	1474560900783	1474560900918	p	80
199430	2161271	Juppe met with the president at the Oval office.	Juppe met with the president at the Oval office. 	102680141	1474560900853	1474560900998	r	82
199430	2161271	Juppe met with the president at the Oval office.	Juppe met with the president at the Oval office. 	102680187	1474560900950	1474560901075	e	69
199430	2161271	Juppe met with the president at the Oval office.	Juppe met with the president at the Oval office. 	102680194	1474560901153	1474560901311	s	83
199430	2161271	Juppe met with the president at the Oval office.	Juppe met with the president at the Oval office. 	102680202	1474560901296	1474560901415	i	73
199430	2161271	Juppe met with the president at the Oval office.	Juppe met with the president at the Oval office. 	102680210	1474560901510	1474560901623	d	68
199430	2161271	Juppe met with the president at the Oval office.	Juppe met with the president at the Oval office. 	102680223	1474560901686	1474560901814	e	69
199430	2161271	Juppe met with the president at the Oval office.	Juppe met with the president at the Oval office. 	102680241	1474560901768	1474560901891	n	78
199430	2161271	Juppe met with the president at the Oval office.	Juppe met with the president at the Oval office. 	102680244	1474560901875	1474560901983	t	84
199430	2161271	Juppe met with the president at the Oval office.	Juppe met with the president at the Oval office. 	102680249	1474560901967	1474560902083	 	32
199430	2161271	Juppe met with the president at the Oval office.	Juppe met with the president at the Oval office. 	102680254	1474560902067	1474560902214	a	65
199430	2161271	Juppe met with the president at the Oval office.	Juppe met with the president at the Oval office. 	102680258	1474560902198	1474560902316	t	84
199430	2161271	Juppe met with the president at the Oval office.	Juppe met with the president at the Oval office. 	102680279	1474560902300	1474560902424	 	32
199430	2161271	Juppe met with the president at the Oval office.	Juppe met with the president at the Oval office. 	102680283	1474560902385	1474560902518	t	84
199430	2161271	Juppe met with the president at the Oval office.	Juppe met with the president at the Oval office. 	102680287	1474560902470	1474560902587	h	72
199430	2161271	Juppe met with the president at the Oval office.	Juppe met with the president at the Oval office. 	102680290	1474560902536	1474560902665	e	69
199430	2161271	Juppe met with the president at the Oval office.	Juppe met with the president at the Oval office. 	102680293	1474560902649	1474560902736	 	32
199430	2161271	Juppe met with the president at the Oval office.	Juppe met with the president at the Oval office. 	102680295	1474560902702	1474560902884	SHIFT	16
199430	2161271	Juppe met with the president at the Oval office.	Juppe met with the president at the Oval office. 	102680370	1474560902783	1474560902900	O	79
199430	2161271	Juppe met with the president at the Oval office.	Juppe met with the president at the Oval office. 	102680376	1474560902981	1474560903099	v	86
199430	2161271	Juppe met with the president at the Oval office.	Juppe met with the president at the Oval office. 	102680383	1474560903193	1474560903335	a	65
199430	2161271	Juppe met with the president at the Oval office.	Juppe met with the president at the Oval office. 	102680387	1474560903320	1474560903486	l	76
199430	2161271	Juppe met with the president at the Oval office.	Juppe met with the president at the Oval office. 	102680392	1474560903433	1474560903551	 	32
199430	2161271	Juppe met with the president at the Oval office.	Juppe met with the president at the Oval office. 	102680397	1474560903676	1474560903783	o	79
199430	2161271	Juppe met with the president at the Oval office.	Juppe met with the president at the Oval office. 	102680496	1474560903816	1474560903919	d	68
199430	2161271	Juppe met with the president at the Oval office.	Juppe met with the president at the Oval office. 	102680494	1474560903847	1474560903904	f	70
199430	2161271	Juppe met with the president at the Oval office.	Juppe met with the president at the Oval office. 	102680499	1474560903997	1474560904084	d	68
199430	2161271	Juppe met with the president at the Oval office.	Juppe met with the president at the Oval office. 	102680501	1474560904460	1474560904521	BKSP	8
199430	2161271	Juppe met with the president at the Oval office.	Juppe met with the president at the Oval office. 	102680503	1474560904599	1474560904684	BKSP	8
199430	2161271	Juppe met with the president at the Oval office.	Juppe met with the president at the Oval office. 	102680506	1474560904746	1474560904866	BKSP	8
199430	2161271	Juppe met with the president at the Oval office.	Juppe met with the president at the Oval office. 	102680509	1474560904881	1474560904998	f	70
199430	2161271	Juppe met with the president at the Oval office.	Juppe met with the president at the Oval office. 	102680514	1474560905077	1474560905157	f	70
199430	2161271	Juppe met with the president at the Oval office.	Juppe met with the president at the Oval office. 	102680559	1474560905173	1474560905302	i	73
199430	2161271	Juppe met with the president at the Oval office.	Juppe met with the president at the Oval office. 	102680570	1474560905252	1474560905355	c	67
199430	2161271	Juppe met with the president at the Oval office.	Juppe met with the president at the Oval office. 	102680575	1474560905318	1474560905446	e	69
199430	2161288	Tried reaching you earlier.	Tried reseaching you earlier. 	102680915	1474560905455	1474560908418	 	32
199430	2161288	Tried reaching you earlier.	Tried reseaching you earlier. 	102680833	1474560907511	1474560907755	SHIFT	16
199430	2161288	Tried reaching you earlier.	Tried reseaching you earlier. 	102680838	1474560907701	1474560907802	T	84
199430	2161288	Tried reaching you earlier.	Tried reseaching you earlier. 	102680843	1474560907895	1474560908000	r	82
199430	2161288	Tried reaching you earlier.	Tried reseaching you earlier. 	102680849	1474560907984	1474560908104	i	73
199430	2161288	Tried reaching you earlier.	Tried reseaching you earlier. 	102680859	1474560908068	1474560908167	e	69
199430	2161288	Tried reaching you earlier.	Tried reseaching you earlier. 	102680869	1474560908229	1474560908338	d	68
199430	2161288	Tried reaching you earlier.	Tried reseaching you earlier. 	102680920	1474560908402	1474560908534	r	82
199430	2161288	Tried reaching you earlier.	Tried reseaching you earlier. 	102680922	1474560908485	1474560908570	e	69
199430	2161288	Tried reaching you earlier.	Tried reseaching you earlier. 	102680927	1474560908617	1474560908766	s	83
199430	2161288	Tried reaching you earlier.	Tried reseaching you earlier. 	102680932	1474560908781	1474560908900	e	69
199430	2161288	Tried reaching you earlier.	Tried reseaching you earlier. 	102680936	1474560908931	1474560909049	a	65
199430	2161288	Tried reaching you earlier.	Tried reseaching you earlier. 	102680965	1474560909082	1474560909231	c	67
199430	2161288	Tried reaching you earlier.	Tried reseaching you earlier. 	102680969	1474560909293	1474560909431	h	72
199430	2161288	Tried reaching you earlier.	Tried reseaching you earlier. 	102680977	1474560909447	1474560909587	i	73
199430	2161288	Tried reaching you earlier.	Tried reseaching you earlier. 	102680981	1474560909535	1474560909672	n	78
199430	2161288	Tried reaching you earlier.	Tried reseaching you earlier. 	102681019	1474560909633	1474560909752	g	71
199430	2161288	Tried reaching you earlier.	Tried reseaching you earlier. 	102681023	1474560909767	1474560909932	 	32
199430	2161288	Tried reaching you earlier.	Tried reseaching you earlier. 	102681026	1474560909916	1474560909970	y	89
199430	2161288	Tried reaching you earlier.	Tried reseaching you earlier. 	102681031	1474560909986	1474560910139	o	79
199430	2161288	Tried reaching you earlier.	Tried reseaching you earlier. 	102681032	1474560910071	1474560910186	u	85
199430	2161288	Tried reaching you earlier.	Tried reseaching you earlier. 	102681034	1474560910218	1474560910334	 	32
199430	2161288	Tried reaching you earlier.	Tried reseaching you earlier. 	102681057	1474560910318	1474560910434	e	69
199430	2161288	Tried reaching you earlier.	Tried reseaching you earlier. 	102681065	1474560910449	1474560910615	a	65
199430	2161288	Tried reaching you earlier.	Tried reseaching you earlier. 	102681076	1474560910599	1474560910738	r	82
199430	2161288	Tried reaching you earlier.	Tried reseaching you earlier. 	102681085	1474560910701	1474560910816	l	76
199430	2161288	Tried reaching you earlier.	Tried reseaching you earlier. 	102681094	1474560910847	1474560910952	i	73
199430	2161288	Tried reaching you earlier.	Tried reseaching you earlier. 	102681105	1474560910886	1474560911000	e	69
199430	2161288	Tried reaching you earlier.	Tried reseaching you earlier. 	102681107	1474560911063	1474560911190	.	82
199430	2161298	It would be wise to keep him inactive until he is effective in a game.	It would be wise to keep him inactive until he is effective in a hame. 	102681297	1474560911155	1474560913653	 	32
199430	2161298	It would be wise to keep him inactive until he is effective in a game.	It would be wise to keep him inactive until he is effective in a hame. 	102681267	1474560913185	1474560913355	SHIFT	16
199430	2161298	It would be wise to keep him inactive until he is effective in a game.	It would be wise to keep him inactive until he is effective in a hame. 	102681279	1474560913310	1474560913386	I	73
199430	2161298	It would be wise to keep him inactive until he is effective in a game.	It would be wise to keep him inactive until he is effective in a hame. 	102681289	1474560913402	1474560913547	t	84
199430	2161298	It would be wise to keep him inactive until he is effective in a game.	It would be wise to keep him inactive until he is effective in a hame. 	102681304	1474560913621	1474560913750	w	87
199430	2161298	It would be wise to keep him inactive until he is effective in a game.	It would be wise to keep him inactive until he is effective in a hame. 	102681310	1474560913686	1474560913821	o	79
199430	2161298	It would be wise to keep him inactive until he is effective in a game.	It would be wise to keep him inactive until he is effective in a hame. 	102681319	1474560913771	1474560913868	u	85
199430	2161298	It would be wise to keep him inactive until he is effective in a game.	It would be wise to keep him inactive until he is effective in a hame. 	102681323	1474560913915	1474560914005	l	76
199430	2161298	It would be wise to keep him inactive until he is effective in a game.	It would be wise to keep him inactive until he is effective in a hame. 	102681328	1474560913966	1474560914099	d	68
199430	2161298	It would be wise to keep him inactive until he is effective in a game.	It would be wise to keep him inactive until he is effective in a hame. 	102681331	1474560914083	1474560914200	 	32
199430	2161298	It would be wise to keep him inactive until he is effective in a game.	It would be wise to keep him inactive until he is effective in a hame. 	102681338	1474560914184	1474560914285	b	66
199430	2161298	It would be wise to keep him inactive until he is effective in a game.	It would be wise to keep him inactive until he is effective in a hame. 	102681383	1474560914269	1474560914389	e	69
199430	2161298	It would be wise to keep him inactive until he is effective in a game.	It would be wise to keep him inactive until he is effective in a hame. 	102681388	1474560914352	1474560914485	 	32
199430	2161298	It would be wise to keep him inactive until he is effective in a game.	It would be wise to keep him inactive until he is effective in a hame. 	102681394	1474560914469	1474560914530	w	87
199430	2161298	It would be wise to keep him inactive until he is effective in a game.	It would be wise to keep him inactive until he is effective in a hame. 	102681400	1474560914765	1474560914884	i	73
199430	2161298	It would be wise to keep him inactive until he is effective in a game.	It would be wise to keep him inactive until he is effective in a hame. 	102681403	1474560914900	1474560915017	s	83
199430	2161298	It would be wise to keep him inactive until he is effective in a game.	It would be wise to keep him inactive until he is effective in a hame. 	102681408	1474560915048	1474560915166	e	69
199430	2161298	It would be wise to keep him inactive until he is effective in a game.	It would be wise to keep him inactive until he is effective in a hame. 	102681436	1474560915182	1474560915285	 	32
199430	2161298	It would be wise to keep him inactive until he is effective in a game.	It would be wise to keep him inactive until he is effective in a hame. 	102681441	1474560915300	1474560915402	t	84
199430	2161298	It would be wise to keep him inactive until he is effective in a game.	It would be wise to keep him inactive until he is effective in a hame. 	102681445	1474560915387	1474560915517	o	79
199430	2161298	It would be wise to keep him inactive until he is effective in a game.	It would be wise to keep him inactive until he is effective in a hame. 	102681450	1474560915469	1474560915600	 	32
199430	2161298	It would be wise to keep him inactive until he is effective in a game.	It would be wise to keep him inactive until he is effective in a hame. 	102681492	1474560915585	1474560915732	k	75
199430	2161298	It would be wise to keep him inactive until he is effective in a game.	It would be wise to keep him inactive until he is effective in a hame. 	102681498	1474560915717	1474560915803	e	69
199430	2161298	It would be wise to keep him inactive until he is effective in a game.	It would be wise to keep him inactive until he is effective in a hame. 	102681504	1474560915881	1474560915988	e	69
199430	2161298	It would be wise to keep him inactive until he is effective in a game.	It would be wise to keep him inactive until he is effective in a hame. 	102681509	1474560915922	1474560916050	p	80
199430	2161298	It would be wise to keep him inactive until he is effective in a game.	It would be wise to keep him inactive until he is effective in a hame. 	102681516	1474560916019	1474560916155	 	32
199430	2161298	It would be wise to keep him inactive until he is effective in a game.	It would be wise to keep him inactive until he is effective in a hame. 	102681560	1474560916104	1474560916219	h	72
199430	2161298	It would be wise to keep him inactive until he is effective in a game.	It would be wise to keep him inactive until he is effective in a hame. 	102681565	1474560916203	1474560916355	i	73
199430	2161298	It would be wise to keep him inactive until he is effective in a game.	It would be wise to keep him inactive until he is effective in a hame. 	102681570	1474560916301	1474560916446	m	77
199430	2161298	It would be wise to keep him inactive until he is effective in a game.	It would be wise to keep him inactive until he is effective in a hame. 	102681573	1474560916402	1474560916527	 	32
199430	2161298	It would be wise to keep him inactive until he is effective in a game.	It would be wise to keep him inactive until he is effective in a hame. 	102681577	1474560916605	1474560916734	i	73
199430	2161298	It would be wise to keep him inactive until he is effective in a game.	It would be wise to keep him inactive until he is effective in a hame. 	102681603	1474560916718	1474560916833	n	78
199430	2161298	It would be wise to keep him inactive until he is effective in a game.	It would be wise to keep him inactive until he is effective in a hame. 	102681610	1474560916849	1474560916969	a	65
199430	2161298	It would be wise to keep him inactive until he is effective in a game.	It would be wise to keep him inactive until he is effective in a hame. 	102681616	1474560916953	1474560917052	c	67
199430	2161298	It would be wise to keep him inactive until he is effective in a game.	It would be wise to keep him inactive until he is effective in a hame. 	102681621	1474560917130	1474560917236	t	84
199430	2161298	It would be wise to keep him inactive until he is effective in a game.	It would be wise to keep him inactive until he is effective in a hame. 	102681628	1474560917220	1474560917334	i	73
199430	2161298	It would be wise to keep him inactive until he is effective in a game.	It would be wise to keep him inactive until he is effective in a hame. 	102681645	1474560917318	1474560917420	v	86
199430	2161298	It would be wise to keep him inactive until he is effective in a game.	It would be wise to keep him inactive until he is effective in a hame. 	102681653	1474560917372	1474560917516	e	69
199430	2161298	It would be wise to keep him inactive until he is effective in a game.	It would be wise to keep him inactive until he is effective in a hame. 	102681662	1474560917500	1474560917617	 	32
199430	2161298	It would be wise to keep him inactive until he is effective in a game.	It would be wise to keep him inactive until he is effective in a hame. 	102681671	1474560917601	1474560917717	u	85
199430	2161298	It would be wise to keep him inactive until he is effective in a game.	It would be wise to keep him inactive until he is effective in a hame. 	102681679	1474560917702	1474560917819	n	78
199430	2161298	It would be wise to keep him inactive until he is effective in a game.	It would be wise to keep him inactive until he is effective in a hame. 	102681713	1474560917804	1474560917922	t	84
199430	2161298	It would be wise to keep him inactive until he is effective in a game.	It would be wise to keep him inactive until he is effective in a hame. 	102681715	1474560917873	1474560918000	i	73
199430	2161298	It would be wise to keep him inactive until he is effective in a game.	It would be wise to keep him inactive until he is effective in a hame. 	102681718	1474560918063	1474560918189	l	76
199430	2161298	It would be wise to keep him inactive until he is effective in a game.	It would be wise to keep him inactive until he is effective in a hame. 	102681721	1474560918137	1474560918289	 	32
199430	2161298	It would be wise to keep him inactive until he is effective in a game.	It would be wise to keep him inactive until he is effective in a hame. 	102681725	1474560918220	1474560918336	h	72
199430	2161298	It would be wise to keep him inactive until he is effective in a game.	It would be wise to keep him inactive until he is effective in a hame. 	102681731	1474560918367	1474560918481	e	69
199430	2161298	It would be wise to keep him inactive until he is effective in a game.	It would be wise to keep him inactive until he is effective in a hame. 	102681757	1474560918465	1474560918586	 	32
199430	2161298	It would be wise to keep him inactive until he is effective in a game.	It would be wise to keep him inactive until he is effective in a hame. 	102681760	1474560918571	1474560918689	i	73
199430	2161298	It would be wise to keep him inactive until he is effective in a game.	It would be wise to keep him inactive until he is effective in a hame. 	102681765	1474560918654	1474560918783	s	83
199430	2161298	It would be wise to keep him inactive until he is effective in a game.	It would be wise to keep him inactive until he is effective in a hame. 	102681769	1474560918767	1474560918869	 	32
199430	2161298	It would be wise to keep him inactive until he is effective in a game.	It would be wise to keep him inactive until he is effective in a hame. 	102681774	1474560918885	1474560918986	e	69
199430	2161298	It would be wise to keep him inactive until he is effective in a game.	It would be wise to keep him inactive until he is effective in a hame. 	102681775	1474560919064	1474560919142	f	70
199430	2161298	It would be wise to keep him inactive until he is effective in a game.	It would be wise to keep him inactive until he is effective in a hame. 	102681836	1474560919207	1474560919318	f	70
199430	2161298	It would be wise to keep him inactive until he is effective in a game.	It would be wise to keep him inactive until he is effective in a hame. 	102681840	1474560919491	1474560919632	e	69
199430	2161298	It would be wise to keep him inactive until he is effective in a game.	It would be wise to keep him inactive until he is effective in a hame. 	102681848	1474560919695	1474560919833	c	67
199430	2161298	It would be wise to keep him inactive until he is effective in a game.	It would be wise to keep him inactive until he is effective in a hame. 	102681855	1474560919942	1474560920068	t	84
199430	2161298	It would be wise to keep him inactive until he is effective in a game.	It would be wise to keep him inactive until he is effective in a hame. 	102681862	1474560920084	1474560920190	i	73
199430	2161298	It would be wise to keep him inactive until he is effective in a game.	It would be wise to keep him inactive until he is effective in a hame. 	102681877	1474560920138	1474560920270	v	86
199430	2161298	It would be wise to keep him inactive until he is effective in a game.	It would be wise to keep him inactive until he is effective in a hame. 	102681886	1474560920222	1474560920335	e	69
199430	2161298	It would be wise to keep him inactive until he is effective in a game.	It would be wise to keep him inactive until he is effective in a hame. 	102681893	1474560920320	1474560920454	 	32
199430	2161298	It would be wise to keep him inactive until he is effective in a game.	It would be wise to keep him inactive until he is effective in a hame. 	102681902	1474560920419	1474560920573	i	73
199430	2161298	It would be wise to keep him inactive until he is effective in a game.	It would be wise to keep him inactive until he is effective in a hame. 	102681915	1474560920521	1474560920654	n	78
199430	2161298	It would be wise to keep him inactive until he is effective in a game.	It would be wise to keep him inactive until he is effective in a hame. 	102681968	1474560920619	1474560920768	 	32
199430	2161298	It would be wise to keep him inactive until he is effective in a game.	It would be wise to keep him inactive until he is effective in a hame. 	102681973	1474560920752	1474560920884	a	65
199430	2161298	It would be wise to keep him inactive until he is effective in a game.	It would be wise to keep him inactive until he is effective in a hame. 	102681982	1474560920869	1474560920970	 	32
199430	2161298	It would be wise to keep him inactive until he is effective in a game.	It would be wise to keep him inactive until he is effective in a hame. 	102681991	1474560921157	1474560921285	h	72
199430	2161298	It would be wise to keep him inactive until he is effective in a game.	It would be wise to keep him inactive until he is effective in a hame. 	102682000	1474560921332	1474560921450	a	65
199430	2161298	It would be wise to keep him inactive until he is effective in a game.	It would be wise to keep him inactive until he is effective in a hame. 	102682089	1474560921435	1474560921567	m	77
199430	2161298	It would be wise to keep him inactive until he is effective in a game.	It would be wise to keep him inactive until he is effective in a hame. 	102682092	1474560921551	1474560921653	e	69
199430	2161298	It would be wise to keep him inactive until he is effective in a game.	It would be wise to keep him inactive until he is effective in a hame. 	102682096	1474560921637	1474560921752	.	190
199430	2161298	It would be wise to keep him inactive until he is effective in a game.	It would be wise to keep him inactive until he is effective in a hame. 	102682104	1474560921736	1474560921852	 	32
199430	2161322	I think I played three different courses.	I think I played three differenc touesses. 	102682292	1474560924573	1474560924769	SHIFT	16
199430	2161322	I think I played three different courses.	I think I played three differenc touesses. 	102682300	1474560924667	1474560924785	I	73
199430	2161322	I think I played three different courses.	I think I played three differenc touesses. 	102682306	1474560924800	1474560924889	 	32
199430	2161322	I think I played three different courses.	I think I played three differenc touesses. 	102682315	1474560924873	1474560925005	t	84
199430	2161322	I think I played three different courses.	I think I played three differenc touesses. 	102682323	1474560924955	1474560925052	h	72
199430	2161322	I think I played three different courses.	I think I played three differenc touesses. 	102682375	1474560925037	1474560925151	i	73
199430	2161322	I think I played three different courses.	I think I played three differenc touesses. 	102682380	1474560925135	1474560925252	n	78
199430	2161322	I think I played three different courses.	I think I played three differenc touesses. 	102682386	1474560925236	1474560925356	k	75
199430	2161322	I think I played three different courses.	I think I played three differenc touesses. 	102682388	1474560925305	1474560925434	 	32
199430	2161322	I think I played three different courses.	I think I played three differenc touesses. 	102682392	1474560925484	1474560925687	SHIFT	16
199430	2161322	I think I played three different courses.	I think I played three differenc touesses. 	102682406	1474560925593	1474560925717	I	73
199430	2161322	I think I played three different courses.	I think I played three differenc touesses. 	102682412	1474560925671	1474560925786	 	32
199430	2161322	I think I played three different courses.	I think I played three differenc touesses. 	102682418	1474560925801	1474560925956	p	80
199430	2161322	I think I played three different courses.	I think I played three differenc touesses. 	102682426	1474560925887	1474560926038	l	76
199430	2161322	I think I played three different courses.	I think I played three differenc touesses. 	102682437	1474560925987	1474560926135	a	65
199430	2161322	I think I played three different courses.	I think I played three differenc touesses. 	102682448	1474560926150	1474560926269	y	89
199430	2161322	I think I played three different courses.	I think I played three differenc touesses. 	102682503	1474560926254	1474560926354	e	69
199430	2161322	I think I played three different courses.	I think I played three differenc touesses. 	102682512	1474560926416	1474560926539	d	68
199430	2161322	I think I played three different courses.	I think I played three differenc touesses. 	102682518	1474560926503	1474560926602	 	32
199430	2161322	I think I played three different courses.	I think I played three differenc touesses. 	102682523	1474560926617	1474560926739	t	84
199430	2161322	I think I played three different courses.	I think I played three differenc touesses. 	102682529	1474560926672	1474560926801	h	72
199430	2161322	I think I played three different courses.	I think I played three differenc touesses. 	102682534	1474560926848	1474560926986	r	82
199430	2161322	I think I played three different courses.	I think I played three differenc touesses. 	102682552	1474560927001	1474560927104	e	69
199430	2161322	I think I played three different courses.	I think I played three differenc touesses. 	102682555	1474560927182	1474560927301	e	69
199430	2161322	I think I played three different courses.	I think I played three differenc touesses. 	102682560	1474560927254	1474560927431	 	32
199430	2161322	I think I played three different courses.	I think I played three differenc touesses. 	102682561	1474560927478	1474560927601	d	68
199430	2161322	I think I played three different courses.	I think I played three differenc touesses. 	102682594	1474560927570	1474560927722	i	73
199430	2161322	I think I played three different courses.	I think I played three differenc touesses. 	102682595	1474560927706	1474560927802	f	70
199430	2161322	I think I played three different courses.	I think I played three differenc touesses. 	102682596	1474560927864	1474560927970	f	70
199430	2161322	I think I played three different courses.	I think I played three differenc touesses. 	102682597	1474560927954	1474560928086	e	69
199430	2161322	I think I played three different courses.	I think I played three differenc touesses. 	102682598	1474560928071	1474560928171	r	82
199430	2161322	I think I played three different courses.	I think I played three differenc touesses. 	102682654	1474560928156	1474560928306	e	69
199430	2161322	I think I played three different courses.	I think I played three differenc touesses. 	102682658	1474560928290	1474560928422	n	78
199430	2161322	I think I played three different courses.	I think I played three differenc touesses. 	102682669	1474560928355	1474560928484	c	67
199430	2161322	I think I played three different courses.	I think I played three differenc touesses. 	102682677	1474560928673	1474560928771	 	32
199430	2161322	I think I played three different courses.	I think I played three differenc touesses. 	102682686	1474560928990	1474560929125	t	84
199430	2161322	I think I played three different courses.	I think I played three differenc touesses. 	102682801	1474560929071	1474560929207	o	79
199430	2161322	I think I played three different courses.	I think I played three differenc touesses. 	102682808	1474560929156	1474560929301	u	85
199430	2161322	I think I played three different courses.	I think I played three differenc touesses. 	102682816	1474560929410	1474560929569	e	69
199430	2161322	I think I played three different courses.	I think I played three differenc touesses. 	102682825	1474560929648	1474560929815	s	83
199430	2161322	I think I played three different courses.	I think I played three differenc touesses. 	102682834	1474560930302	1474560930350	s	83
199430	2161322	I think I played three different courses.	I think I played three differenc touesses. 	102682839	1474560930450	1474560930553	e	69
199430	2161322	I think I played three different courses.	I think I played three differenc touesses. 	102682847	1474560930568	1474560930702	s	83
199430	2161322	I think I played three different courses.	I think I played three differenc touesses. 	102682855	1474560930669	1474560930782	.	190
199430	2161334	Can we have them until we move?	Can we have them until we move?	102683143	1474560930741	1474560933291	 	32
199430	2161334	Can we have them until we move?	Can we have them until we move?	102683097	1474560932710	1474560932906	SHIFT	16
199430	2161334	Can we have them until we move?	Can we have them until we move?	102683106	1474560932837	1474560932937	C	67
199430	2161334	Can we have them until we move?	Can we have them until we move?	102683120	1474560932984	1474560933123	a	65
199430	2161334	Can we have them until we move?	Can we have them until we move?	102683131	1474560933071	1474560933190	n	78
199430	2161334	Can we have them until we move?	Can we have them until we move?	102683154	1474560933222	1474560933374	w	87
199430	2161334	Can we have them until we move?	Can we have them until we move?	102683162	1474560933338	1474560933469	e	69
199430	2161334	Can we have them until we move?	Can we have them until we move?	102683167	1474560933454	1474560933591	 	32
199430	2161334	Can we have them until we move?	Can we have them until we move?	102683172	1474560933553	1474560933678	h	72
199430	2161334	Can we have them until we move?	Can we have them until we move?	102683178	1474560933637	1474560933758	a	65
199430	2161334	Can we have them until we move?	Can we have them until we move?	102683183	1474560933722	1474560933854	v	86
199430	2161334	Can we have them until we move?	Can we have them until we move?	102683205	1474560933807	1474560933921	e	69
199430	2161334	Can we have them until we move?	Can we have them until we move?	102683212	1474560933906	1474560934021	 	32
199430	2161334	Can we have them until we move?	Can we have them until we move?	102683218	1474560934037	1474560934140	t	84
199430	2161334	Can we have them until we move?	Can we have them until we move?	102683226	1474560934090	1474560934222	h	72
199430	2161334	Can we have them until we move?	Can we have them until we move?	102683231	1474560934187	1474560934318	e	69
199430	2161334	Can we have them until we move?	Can we have them until we move?	102683242	1474560934272	1474560934395	m	77
199430	2161334	Can we have them until we move?	Can we have them until we move?	102683246	1474560934379	1474560934490	 	32
199430	2161334	Can we have them until we move?	Can we have them until we move?	102683254	1474560934424	1474560934552	u	85
199430	2161334	Can we have them until we move?	Can we have them until we move?	102683259	1474560934568	1474560934701	n	78
199430	2161334	Can we have them until we move?	Can we have them until we move?	102683263	1474560934732	1474560934857	t	84
199430	2161334	Can we have them until we move?	Can we have them until we move?	102683300	1474560934821	1474560934936	i	73
199430	2161334	Can we have them until we move?	Can we have them until we move?	102683307	1474560934999	1474560935119	l	76
199430	2161334	Can we have them until we move?	Can we have them until we move?	102683316	1474560935150	1474560935238	 	32
199430	2161334	Can we have them until we move?	Can we have them until we move?	102683327	1474560935223	1474560935390	w	87
199430	2161334	Can we have them until we move?	Can we have them until we move?	102683331	1474560935352	1474560935471	e	69
199430	2161334	Can we have them until we move?	Can we have them until we move?	102683365	1474560935438	1474560935574	 	32
199430	2161334	Can we have them until we move?	Can we have them until we move?	102683373	1474560935522	1474560935667	m	77
199430	2161334	Can we have them until we move?	Can we have them until we move?	102683381	1474560935652	1474560935774	o	79
199430	2161334	Can we have them until we move?	Can we have them until we move?	102683390	1474560935722	1474560935841	v	86
199430	2161334	Can we have them until we move?	Can we have them until we move?	102683397	1474560935791	1474560935903	e	69
199430	2161334	Can we have them until we move?	Can we have them until we move?	102683402	1474560936013	1474560936109	?	191
199430	2161350	ITT owns the Sheraton hotel chain.	ITT own the Shreaton hotel chain. 	102683676	1474560938072	1474560938218	I	73
199430	2161350	ITT owns the Sheraton hotel chain.	ITT own the Shreaton hotel chain. 	102683682	1474560938327	1474560938439	I	73
199430	2161350	ITT owns the Sheraton hotel chain.	ITT own the Shreaton hotel chain. 	102683689	1474560938861	1474560938924	BKSP	8
199430	2161350	ITT owns the Sheraton hotel chain.	ITT own the Shreaton hotel chain. 	102683697	1474560938940	1474560939101	T	84
199430	2161350	ITT owns the Sheraton hotel chain.	ITT own the Shreaton hotel chain. 	102683706	1474560939413	1474560939521	T	84
199430	2161350	ITT owns the Sheraton hotel chain.	ITT own the Shreaton hotel chain. 	102683741	1474560939631	1474560939737	 	32
199430	2161350	ITT owns the Sheraton hotel chain.	ITT own the Shreaton hotel chain. 	102683751	1474560939784	1474560939918	o	79
199430	2161350	ITT owns the Sheraton hotel chain.	ITT own the Shreaton hotel chain. 	102683757	1474560939887	1474560940035	w	87
199430	2161350	ITT owns the Sheraton hotel chain.	ITT own the Shreaton hotel chain. 	102683765	1474560940051	1474560940122	n	78
199430	2161350	ITT owns the Sheraton hotel chain.	ITT own the Shreaton hotel chain. 	102683774	1474560940216	1474560940307	 	32
199430	2161350	ITT owns the Sheraton hotel chain.	ITT own the Shreaton hotel chain. 	102683825	1474560940291	1474560940419	t	84
199430	2161350	ITT owns the Sheraton hotel chain.	ITT own the Shreaton hotel chain. 	102683830	1474560940404	1474560940525	h	72
199430	2161350	ITT owns the Sheraton hotel chain.	ITT own the Shreaton hotel chain. 	102683837	1474560940488	1474560940572	e	69
199430	2161350	ITT owns the Sheraton hotel chain.	ITT own the Shreaton hotel chain. 	102683851	1474560940603	1474560940690	 	32
199430	2161350	ITT owns the Sheraton hotel chain.	ITT own the Shreaton hotel chain. 	102683863	1474560940622	1474560940963	SHIFT	16
199430	2161350	ITT owns the Sheraton hotel chain.	ITT own the Shreaton hotel chain. 	102683875	1474560940877	1474560941041	S	83
199430	2161350	ITT owns the Sheraton hotel chain.	ITT own the Shreaton hotel chain. 	102683882	1474560941057	1474560941139	h	72
199430	2161350	ITT owns the Sheraton hotel chain.	ITT own the Shreaton hotel chain. 	102684016	1474560941124	1474560941194	r	82
199430	2161350	ITT owns the Sheraton hotel chain.	ITT own the Shreaton hotel chain. 	102684022	1474560942088	1474560942220	e	69
199430	2161350	ITT owns the Sheraton hotel chain.	ITT own the Shreaton hotel chain. 	102684032	1474560942267	1474560942403	a	65
199430	2161350	ITT owns the Sheraton hotel chain.	ITT own the Shreaton hotel chain. 	102684040	1474560942434	1474560942553	t	84
199430	2161350	ITT owns the Sheraton hotel chain.	ITT own the Shreaton hotel chain. 	102684046	1474560942616	1474560942720	o	79
199430	2161350	ITT owns the Sheraton hotel chain.	ITT own the Shreaton hotel chain. 	102684055	1474560942752	1474560942854	n	78
199430	2161350	ITT owns the Sheraton hotel chain.	ITT own the Shreaton hotel chain. 	102684107	1474560942839	1474560942940	 	32
199430	2161350	ITT owns the Sheraton hotel chain.	ITT own the Shreaton hotel chain. 	102684110	1474560942909	1474560943086	SHIFT	16
199430	2161350	ITT owns the Sheraton hotel chain.	ITT own the Shreaton hotel chain. 	102684116	1474560943019	1474560943123	H	72
199430	2161350	ITT owns the Sheraton hotel chain.	ITT own the Shreaton hotel chain. 	102684124	1474560943419	1474560943490	BKSP	8
199430	2161350	ITT owns the Sheraton hotel chain.	ITT own the Shreaton hotel chain. 	102684130	1474560943553	1474560943657	h	72
199430	2161350	ITT owns the Sheraton hotel chain.	ITT own the Shreaton hotel chain. 	102684140	1474560943672	1474560943806	o	79
199430	2161350	ITT owns the Sheraton hotel chain.	ITT own the Shreaton hotel chain. 	102684149	1474560943772	1474560943858	t	84
199430	2161350	ITT owns the Sheraton hotel chain.	ITT own the Shreaton hotel chain. 	102684205	1474560943842	1474560943992	e	69
199430	2161350	ITT owns the Sheraton hotel chain.	ITT own the Shreaton hotel chain. 	102684211	1474560943977	1474560944110	l	76
199430	2161350	ITT owns the Sheraton hotel chain.	ITT own the Shreaton hotel chain. 	102684214	1474560944073	1474560944188	 	32
199430	2161350	ITT owns the Sheraton hotel chain.	ITT own the Shreaton hotel chain. 	102684220	1474560944157	1474560944283	SHIFT	16
199430	2161350	ITT owns the Sheraton hotel chain.	ITT own the Shreaton hotel chain. 	102684224	1474560944423	1474560944554	c	67
199430	2161350	ITT owns the Sheraton hotel chain.	ITT own the Shreaton hotel chain. 	102684229	1474560944538	1474560944686	h	72
199430	2161350	ITT owns the Sheraton hotel chain.	ITT own the Shreaton hotel chain. 	102684278	1474560944639	1474560944805	a	65
199430	2161350	ITT owns the Sheraton hotel chain.	ITT own the Shreaton hotel chain. 	102684281	1474560944714	1474560944868	i	73
199430	2161350	ITT owns the Sheraton hotel chain.	ITT own the Shreaton hotel chain. 	102684286	1474560944852	1474560944939	n	78
199430	2161350	ITT owns the Sheraton hotel chain.	ITT own the Shreaton hotel chain. 	102684291	1474560945001	1474560945090	.	190
199430	2161371	I left a message.	I left a message. 	102684595	1474560945074	1474560948041	 	32
199430	2161371	I left a message.	I left a message. 	102684578	1474560947699	1474560947921	SHIFT	16
199430	2161371	I left a message.	I left a message. 	102684589	1474560947812	1474560947937	I	73
199430	2161371	I left a message.	I left a message. 	102684603	1474560948087	1474560948211	l	76
199430	2161371	I left a message.	I left a message. 	102684608	1474560948170	1474560948271	e	69
199430	2161371	I left a message.	I left a message. 	102684611	1474560948349	1474560948469	f	70
199430	2161371	I left a message.	I left a message. 	102684612	1474560948531	1474560948682	t	84
199430	2161371	I left a message.	I left a message. 	102684620	1474560948667	1474560948755	 	32
199430	2161371	I left a message.	I left a message. 	102684625	1474560948740	1474560948908	a	65
199430	2161371	I left a message.	I left a message. 	102684635	1474560948853	1474560948989	 	32
199430	2161371	I left a message.	I left a message. 	102684649	1474560948955	1474560949055	m	77
199430	2161371	I left a message.	I left a message. 	102684661	1474560949039	1474560949121	e	69
199430	2161371	I left a message.	I left a message. 	102684675	1474560949199	1474560949287	s	83
199430	2161371	I left a message.	I left a message. 	102684707	1474560949335	1474560949439	s	83
199430	2161371	I left a message.	I left a message. 	102684711	1474560949470	1474560949586	a	65
199430	2161371	I left a message.	I left a message. 	102684715	1474560949602	1474560949706	g	71
199430	2161371	I left a message.	I left a message. 	102684721	1474560949652	1474560949769	e	69
199430	2161382	I'm on a conference call.	I'm on a conference call. 	102685031	1474560949871	1474560952757	 	32
199430	2161382	I'm on a conference call.	I'm on a conference call. 	102685006	1474560951900	1474560952184	SHIFT	16
199430	2161382	I'm on a conference call.	I'm on a conference call. 	102685000	1474560952025	1474560952137	I	73
199430	2161382	I'm on a conference call.	I'm on a conference call. 	102685010	1474560952293	1474560952388	'	222
199430	2161382	I'm on a conference call.	I'm on a conference call. 	102685019	1474560952529	1474560952652	m	77
199430	2161382	I'm on a conference call.	I'm on a conference call. 	102685041	1474560952819	1474560952921	o	79
199430	2161382	I'm on a conference call.	I'm on a conference call. 	102685050	1474560952937	1474560953068	n	78
199430	2161382	I'm on a conference call.	I'm on a conference call. 	102685067	1474560953024	1474560953128	 	32
199430	2161382	I'm on a conference call.	I'm on a conference call. 	102685072	1474560953143	1474560953308	a	65
199430	2161382	I'm on a conference call.	I'm on a conference call. 	102685077	1474560953270	1474560953370	 	32
199430	2161382	I'm on a conference call.	I'm on a conference call. 	102685087	1474560953386	1474560953524	c	67
199430	2161382	I'm on a conference call.	I'm on a conference call. 	102685094	1474560953488	1474560953572	o	79
199430	2161382	I'm on a conference call.	I'm on a conference call. 	102685102	1474560953591	1474560953704	n	78
199430	2161382	I'm on a conference call.	I'm on a conference call. 	102685171	1474560953957	1474560954102	f	70
199430	2161382	I'm on a conference call.	I'm on a conference call. 	102685176	1474560954133	1474560954268	e	69
199430	2161382	I'm on a conference call.	I'm on a conference call. 	102685180	1474560954283	1474560954404	r	82
199430	2161382	I'm on a conference call.	I'm on a conference call. 	102685187	1474560954388	1474560954534	e	69
199430	2161382	I'm on a conference call.	I'm on a conference call. 	102685256	1474560954534	1474560954638	n	78
199430	2161382	I'm on a conference call.	I'm on a conference call. 	102685260	1474560954622	1474560954756	c	67
199430	2161382	I'm on a conference call.	I'm on a conference call. 	102685268	1474560954690	1474560954836	e	69
199430	2161382	I'm on a conference call.	I'm on a conference call. 	102685275	1474560954803	1474560954905	 	32
199430	2161382	I'm on a conference call.	I'm on a conference call. 	102685282	1474560954951	1474560955037	c	67
199430	2161382	I'm on a conference call.	I'm on a conference call. 	102685290	1474560955069	1474560955191	a	65
199430	2161382	I'm on a conference call.	I'm on a conference call. 	102685307	1474560955155	1474560955256	l	76
199430	2161382	I'm on a conference call.	I'm on a conference call. 	102685317	1474560955287	1474560955389	l	76
199430	2161389	He was playing only his third event on the European Tour.	He was playing only his thierd event of the European Tour. 	102685577	1474560955490	1474560957902	 	32
199430	2161389	He was playing only his third event on the European Tour.	He was playing only his thierd event of the European Tour. 	102685573	1474560957428	1474560957639	SHIFT	16
199430	2161389	He was playing only his third event on the European Tour.	He was playing only his thierd event of the European Tour. 	102685574	1474560957572	1474560957670	H	72
199430	2161389	He was playing only his third event on the European Tour.	He was playing only his thierd event of the European Tour. 	102685575	1474560957686	1474560957808	e	69
199430	2161389	He was playing only his third event on the European Tour.	He was playing only his thierd event of the European Tour. 	102685581	1474560957886	1474560957987	w	87
199430	2161389	He was playing only his third event on the European Tour.	He was playing only his thierd event of the European Tour. 	102685587	1474560958034	1474560958158	a	65
199430	2161389	He was playing only his third event on the European Tour.	He was playing only his thierd event of the European Tour. 	102685645	1474560958092	1474560958259	s	83
199430	2161389	He was playing only his third event on the European Tour.	He was playing only his thierd event of the European Tour. 	102685647	1474560958141	1474560958283	 	32
199430	2161389	He was playing only his third event on the European Tour.	He was playing only his thierd event of the European Tour. 	102685655	1474560958241	1474560958391	p	80
199430	2161389	He was playing only his third event on the European Tour.	He was playing only his thierd event of the European Tour. 	102685663	1474560958339	1474560958453	l	76
199430	2161389	He was playing only his third event on the European Tour.	He was playing only his thierd event of the European Tour. 	102685671	1474560958438	1474560958584	a	65
199430	2161389	He was playing only his third event on the European Tour.	He was playing only his thierd event of the European Tour. 	102685679	1474560958600	1474560958720	y	89
199430	2161389	He was playing only his third event on the European Tour.	He was playing only his thierd event of the European Tour. 	102685687	1474560958782	1474560958932	i	73
199430	2161389	He was playing only his third event on the European Tour.	He was playing only his thierd event of the European Tour. 	102685722	1474560958856	1474560959012	n	78
199430	2161389	He was playing only his third event on the European Tour.	He was playing only his thierd event of the European Tour. 	102685727	1474560958981	1474560959091	g	71
199430	2161389	He was playing only his third event on the European Tour.	He was playing only his thierd event of the European Tour. 	102685733	1474560959056	1474560959159	 	32
199430	2161389	He was playing only his third event on the European Tour.	He was playing only his thierd event of the European Tour. 	102685739	1474560959125	1474560959269	o	79
199430	2161389	He was playing only his third event on the European Tour.	He was playing only his thierd event of the European Tour. 	102685746	1474560959253	1474560959369	n	78
199430	2161389	He was playing only his third event on the European Tour.	He was playing only his thierd event of the European Tour. 	102685753	1474560959385	1474560959472	l	76
199430	2161389	He was playing only his third event on the European Tour.	He was playing only his thierd event of the European Tour. 	102685777	1474560959504	1474560959609	y	89
199430	2161389	He was playing only his third event on the European Tour.	He was playing only his thierd event of the European Tour. 	102685786	1474560959624	1474560959691	 	32
199430	2161389	He was playing only his third event on the European Tour.	He was playing only his thierd event of the European Tour. 	102685797	1474560959722	1474560959841	h	72
199430	2161389	He was playing only his third event on the European Tour.	He was playing only his thierd event of the European Tour. 	102685803	1474560959790	1474560959888	i	73
199430	2161389	He was playing only his third event on the European Tour.	He was playing only his thierd event of the European Tour. 	102685810	1474560959919	1474560960037	s	83
199430	2161389	He was playing only his third event on the European Tour.	He was playing only his thierd event of the European Tour. 	102685833	1474560960021	1474560960122	 	32
199430	2161389	He was playing only his third event on the European Tour.	He was playing only his thierd event of the European Tour. 	102685839	1474560960138	1474560960242	t	84
199430	2161389	He was playing only his third event on the European Tour.	He was playing only his thierd event of the European Tour. 	102685848	1474560960199	1474560960342	h	72
199430	2161389	He was playing only his third event on the European Tour.	He was playing only his thierd event of the European Tour. 	102685856	1474560960305	1474560960442	i	73
199430	2161389	He was playing only his third event on the European Tour.	He was playing only his thierd event of the European Tour. 	102685865	1474560960404	1474560960583	e	69
199430	2161389	He was playing only his third event on the European Tour.	He was playing only his thierd event of the European Tour. 	102685901	1474560960551	1474560960703	r	82
199430	2161389	He was playing only his third event on the European Tour.	He was playing only his thierd event of the European Tour. 	102685906	1474560960782	1474560960903	d	68
199430	2161389	He was playing only his third event on the European Tour.	He was playing only his thierd event of the European Tour. 	102685913	1474560960872	1474560961004	 	32
199430	2161389	He was playing only his third event on the European Tour.	He was playing only his thierd event of the European Tour. 	102685921	1474560961020	1474560961122	e	69
199430	2161389	He was playing only his third event on the European Tour.	He was playing only his thierd event of the European Tour. 	102685927	1474560961200	1474560961316	v	86
199430	2161389	He was playing only his third event on the European Tour.	He was playing only his thierd event of the European Tour. 	102685977	1474560961253	1474560961401	e	69
199430	2161389	He was playing only his third event on the European Tour.	He was playing only his thierd event of the European Tour. 	102685980	1474560961432	1474560961526	n	78
199430	2161389	He was playing only his third event on the European Tour.	He was playing only his thierd event of the European Tour. 	102685984	1474560961491	1474560961635	t	84
199430	2161389	He was playing only his third event on the European Tour.	He was playing only his thierd event of the European Tour. 	102685989	1474560961604	1474560961739	 	32
199430	2161389	He was playing only his third event on the European Tour.	He was playing only his thierd event of the European Tour. 	102685994	1474560961706	1474560961805	o	79
199430	2161389	He was playing only his third event on the European Tour.	He was playing only his thierd event of the European Tour. 	102686002	1474560961961	1474560962074	f	70
199430	2161389	He was playing only his third event on the European Tour.	He was playing only his thierd event of the European Tour. 	102686062	1474560962108	1474560962221	 	32
199430	2161389	He was playing only his third event on the European Tour.	He was playing only his thierd event of the European Tour. 	102686067	1474560962206	1474560962321	t	84
199430	2161389	He was playing only his third event on the European Tour.	He was playing only his thierd event of the European Tour. 	102686073	1474560962711	1474560962838	h	72
199430	2161389	He was playing only his third event on the European Tour.	He was playing only his thierd event of the European Tour. 	102686076	1474560962854	1474560962955	e	69
199430	2161389	He was playing only his third event on the European Tour.	He was playing only his thierd event of the European Tour. 	102686083	1474560962970	1474560963089	 	32
199430	2161389	He was playing only his third event on the European Tour.	He was playing only his thierd event of the European Tour. 	102686177	1474560963058	1474560963297	SHIFT	16
199430	2161389	He was playing only his third event on the European Tour.	He was playing only his thierd event of the European Tour. 	102686187	1474560963232	1474560963359	E	69
199430	2161389	He was playing only his third event on the European Tour.	He was playing only his thierd event of the European Tour. 	102686195	1474560963422	1474560963554	u	85
199430	2161389	He was playing only his third event on the European Tour.	He was playing only his thierd event of the European Tour. 	102686203	1474560963648	1474560963770	r	82
199430	2161389	He was playing only his third event on the European Tour.	He was playing only his thierd event of the European Tour. 	102686207	1474560964144	1474560964255	o	79
199430	2161389	He was playing only his third event on the European Tour.	He was playing only his thierd event of the European Tour. 	102686214	1474560964348	1474560964487	p	80
199430	2161389	He was playing only his third event on the European Tour.	He was playing only his thierd event of the European Tour. 	102686244	1474560964472	1474560964591	e	69
199430	2161389	He was playing only his third event on the European Tour.	He was playing only his thierd event of the European Tour. 	102686247	1474560964638	1474560964788	a	65
199430	2161389	He was playing only his third event on the European Tour.	He was playing only his thierd event of the European Tour. 	102686251	1474560964739	1474560964856	n	78
199430	2161389	He was playing only his third event on the European Tour.	He was playing only his thierd event of the European Tour. 	102686252	1474560964840	1474560964972	 	32
199430	2161389	He was playing only his third event on the European Tour.	He was playing only his thierd event of the European Tour. 	102686257	1474560964891	1474560965058	SHIFT	16
199430	2161389	He was playing only his third event on the European Tour.	He was playing only his thierd event of the European Tour. 	102686265	1474560965003	1474560965158	T	84
199430	2161389	He was playing only his third event on the European Tour.	He was playing only his thierd event of the European Tour. 	102686330	1474560965120	1474560965289	o	79
199430	2161389	He was playing only his third event on the European Tour.	He was playing only his thierd event of the European Tour. 	102686334	1474560965192	1474560965309	u	85
199430	2161389	He was playing only his third event on the European Tour.	He was playing only his thierd event of the European Tour. 	102686339	1474560965273	1474560965403	r	82
199430	2161417	I'll catch up with you tomorrow.	I'll catch up with you tomorrow. 	102686657	1474560965490	1474560969086	 	32
199430	2161417	I'll catch up with you tomorrow.	I'll catch up with you tomorrow. 	102686627	1474560968052	1474560968275	SHIFT	16
199430	2161417	I'll catch up with you tomorrow.	I'll catch up with you tomorrow. 	102686634	1474560968195	1474560968290	I	73
199430	2161417	I'll catch up with you tomorrow.	I'll catch up with you tomorrow. 	102686640	1474560968399	1474560968489	'	222
199430	2161417	I'll catch up with you tomorrow.	I'll catch up with you tomorrow. 	102686644	1474560968677	1474560968757	l	76
199430	2161417	I'll catch up with you tomorrow.	I'll catch up with you tomorrow. 	102686652	1474560968835	1474560968908	l	76
199430	2161417	I'll catch up with you tomorrow.	I'll catch up with you tomorrow. 	102686667	1474560969102	1474560969191	c	67
199430	2161417	I'll catch up with you tomorrow.	I'll catch up with you tomorrow. 	102686718	1474560969207	1474560969337	a	65
199430	2161417	I'll catch up with you tomorrow.	I'll catch up with you tomorrow. 	102686725	1474560969415	1474560969539	t	84
199430	2161417	I'll catch up with you tomorrow.	I'll catch up with you tomorrow. 	102686732	1474560969664	1474560969772	c	67
199430	2161417	I'll catch up with you tomorrow.	I'll catch up with you tomorrow. 	102686736	1474560969787	1474560969858	h	72
199430	2161417	I'll catch up with you tomorrow.	I'll catch up with you tomorrow. 	102686742	1474560969874	1474560969957	 	32
199430	2161417	I'll catch up with you tomorrow.	I'll catch up with you tomorrow. 	102686771	1474560969990	1474560970122	u	85
199430	2161417	I'll catch up with you tomorrow.	I'll catch up with you tomorrow. 	102686775	1474560970168	1474560970309	p	80
199430	2161417	I'll catch up with you tomorrow.	I'll catch up with you tomorrow. 	102686783	1474560970273	1474560970387	 	32
199430	2161417	I'll catch up with you tomorrow.	I'll catch up with you tomorrow. 	102686791	1474560970372	1474560970509	w	87
199430	2161417	I'll catch up with you tomorrow.	I'll catch up with you tomorrow. 	102686882	1474560970473	1474560970579	i	73
199430	2161417	I'll catch up with you tomorrow.	I'll catch up with you tomorrow. 	102686887	1474560970543	1474560970671	t	84
199430	2161417	I'll catch up with you tomorrow.	I'll catch up with you tomorrow. 	102686892	1474560970702	1474560970791	 	32
199430	2161417	I'll catch up with you tomorrow.	I'll catch up with you tomorrow. 	102686898	1474560971090	1474560971158	BKSP	8
199430	2161417	I'll catch up with you tomorrow.	I'll catch up with you tomorrow. 	102686903	1474560971251	1474560971355	h	72
199430	2161417	I'll catch up with you tomorrow.	I'll catch up with you tomorrow. 	102686910	1474560971386	1474560971509	 	32
199430	2161417	I'll catch up with you tomorrow.	I'll catch up with you tomorrow. 	102686916	1474560971459	1474560971574	y	89
199430	2161417	I'll catch up with you tomorrow.	I'll catch up with you tomorrow. 	102686925	1474560971589	1474560971756	o	79
199430	2161417	I'll catch up with you tomorrow.	I'll catch up with you tomorrow. 	102686940	1474560971675	1474560971777	u	85
199430	2161417	I'll catch up with you tomorrow.	I'll catch up with you tomorrow. 	102686950	1474560971740	1474560971844	 	32
199430	2161417	I'll catch up with you tomorrow.	I'll catch up with you tomorrow. 	102686959	1474560971808	1474560971938	t	84
199430	2161417	I'll catch up with you tomorrow.	I'll catch up with you tomorrow. 	102686988	1474560971922	1474560971991	o	79
199430	2161417	I'll catch up with you tomorrow.	I'll catch up with you tomorrow. 	102686995	1474560972006	1474560972140	m	77
199430	2161417	I'll catch up with you tomorrow.	I'll catch up with you tomorrow. 	102686999	1474560972158	1474560972278	o	79
199430	2161417	I'll catch up with you tomorrow.	I'll catch up with you tomorrow. 	102687002	1474560972210	1474560972293	r	82
199430	2161417	I'll catch up with you tomorrow.	I'll catch up with you tomorrow. 	102687004	1474560972371	1474560972475	r	82
199430	2161417	I'll catch up with you tomorrow.	I'll catch up with you tomorrow. 	102687005	1474560972425	1474560972528	o	79
199430	2161417	I'll catch up with you tomorrow.	I'll catch up with you tomorrow. 	102687009	1474560972544	1474560972626	w	87
199430	2161429	I was a bit rusty but I didn't want to miss the elections back home.	I was a bit rusty but i didn't want to miss the elctions back home.	102687208	1474560972673	1474560974972	 	32
199430	2161429	I was a bit rusty but I didn't want to miss the elections back home.	I was a bit rusty but i didn't want to miss the elctions back home.	102687198	1474560974616	1474560974824	SHIFT	16
199430	2161429	I was a bit rusty but I didn't want to miss the elections back home.	I was a bit rusty but i didn't want to miss the elctions back home.	102687203	1474560974744	1474560974887	I	73
199430	2161429	I was a bit rusty but I didn't want to miss the elections back home.	I was a bit rusty but i didn't want to miss the elctions back home.	102687216	1474560974926	1474560975023	w	87
199430	2161429	I was a bit rusty but I didn't want to miss the elections back home.	I was a bit rusty but i didn't want to miss the elctions back home.	102687225	1474560975070	1474560975208	a	65
199430	2161429	I was a bit rusty but I didn't want to miss the elections back home.	I was a bit rusty but i didn't want to miss the elctions back home.	102687233	1474560975126	1474560975276	s	83
199430	2161429	I was a bit rusty but I didn't want to miss the elections back home.	I was a bit rusty but i didn't want to miss the elctions back home.	102687278	1474560975224	1474560975372	 	32
199430	2161429	I was a bit rusty but I didn't want to miss the elections back home.	I was a bit rusty but i didn't want to miss the elctions back home.	102687284	1474560975356	1474560975487	a	65
199430	2161429	I was a bit rusty but I didn't want to miss the elections back home.	I was a bit rusty but i didn't want to miss the elctions back home.	102687292	1474560975471	1474560975573	 	32
199430	2161429	I was a bit rusty but I didn't want to miss the elections back home.	I was a bit rusty but i didn't want to miss the elctions back home.	102687299	1474560975542	1474560975672	b	66
199430	2161429	I was a bit rusty but I didn't want to miss the elections back home.	I was a bit rusty but i didn't want to miss the elctions back home.	102687304	1474560975704	1474560975839	i	73
199430	2161429	I was a bit rusty but I didn't want to miss the elections back home.	I was a bit rusty but i didn't want to miss the elctions back home.	102687355	1474560975808	1474560975955	t	84
199430	2161429	I was a bit rusty but I didn't want to miss the elections back home.	I was a bit rusty but i didn't want to miss the elctions back home.	102687358	1474560975940	1474560976039	 	32
199430	2161429	I was a bit rusty but I didn't want to miss the elections back home.	I was a bit rusty but i didn't want to miss the elctions back home.	102687365	1474560976149	1474560976292	r	82
199430	2161429	I was a bit rusty but I didn't want to miss the elections back home.	I was a bit rusty but i didn't want to miss the elctions back home.	102687374	1474560976256	1474560976388	u	85
199430	2161429	I was a bit rusty but I didn't want to miss the elections back home.	I was a bit rusty but i didn't want to miss the elctions back home.	102687381	1474560976403	1474560976506	s	83
199430	2161429	I was a bit rusty but I didn't want to miss the elections back home.	I was a bit rusty but i didn't want to miss the elctions back home.	102687389	1474560976568	1474560976660	t	84
199430	2161429	I was a bit rusty but I didn't want to miss the elections back home.	I was a bit rusty but i didn't want to miss the elctions back home.	102687434	1474560976626	1474560976725	y	89
199430	2161429	I was a bit rusty but I didn't want to miss the elections back home.	I was a bit rusty but i didn't want to miss the elctions back home.	102687438	1474560976756	1474560976892	 	32
199430	2161429	I was a bit rusty but I didn't want to miss the elections back home.	I was a bit rusty but i didn't want to miss the elctions back home.	102687445	1474560976824	1474560976973	b	66
199430	2161429	I was a bit rusty but I didn't want to miss the elections back home.	I was a bit rusty but i didn't want to miss the elctions back home.	102687451	1474560976988	1474560977090	u	85
199430	2161429	I was a bit rusty but I didn't want to miss the elections back home.	I was a bit rusty but i didn't want to miss the elctions back home.	102687456	1474560977106	1474560977224	t	84
199430	2161429	I was a bit rusty but I didn't want to miss the elections back home.	I was a bit rusty but i didn't want to miss the elctions back home.	102687461	1474560977271	1474560977358	 	32
199430	2161429	I was a bit rusty but I didn't want to miss the elections back home.	I was a bit rusty but i didn't want to miss the elctions back home.	102687593	1474560977433	1474560977586	i	73
199430	2161429	I was a bit rusty but I didn't want to miss the elections back home.	I was a bit rusty but i didn't want to miss the elctions back home.	102687598	1474560977601	1474560977723	 	32
199430	2161429	I was a bit rusty but I didn't want to miss the elections back home.	I was a bit rusty but i didn't want to miss the elctions back home.	102687602	1474560977617	1474560978066	SHIFT	16
199430	2161429	I was a bit rusty but I didn't want to miss the elections back home.	I was a bit rusty but i didn't want to miss the elctions back home.	102687606	1474560978051	1474560978125	D	68
199430	2161429	I was a bit rusty but I didn't want to miss the elections back home.	I was a bit rusty but i didn't want to miss the elctions back home.	102687611	1474560978484	1474560978543	i	73
199430	2161429	I was a bit rusty but I didn't want to miss the elections back home.	I was a bit rusty but i didn't want to miss the elctions back home.	102687616	1474560978715	1474560978776	BKSP	8
199430	2161429	I was a bit rusty but I didn't want to miss the elections back home.	I was a bit rusty but i didn't want to miss the elctions back home.	102687622	1474560978838	1474560978957	BKSP	8
199430	2161429	I was a bit rusty but I didn't want to miss the elections back home.	I was a bit rusty but i didn't want to miss the elctions back home.	102687628	1474560978972	1474560979060	d	68
199430	2161429	I was a bit rusty but I didn't want to miss the elections back home.	I was a bit rusty but i didn't want to miss the elctions back home.	102687649	1474560979027	1474560979127	i	73
199430	2161429	I was a bit rusty but I didn't want to miss the elections back home.	I was a bit rusty but i didn't want to miss the elctions back home.	102687652	1474560979143	1474560979259	d	68
199430	2161429	I was a bit rusty but I didn't want to miss the elections back home.	I was a bit rusty but i didn't want to miss the elctions back home.	102687657	1474560979193	1474560979306	n	78
199430	2161429	I was a bit rusty but I didn't want to miss the elections back home.	I was a bit rusty but i didn't want to miss the elctions back home.	102687663	1474560979462	1474560979511	'	222
199430	2161429	I was a bit rusty but I didn't want to miss the elections back home.	I was a bit rusty but i didn't want to miss the elctions back home.	102687669	1474560979558	1474560979688	t	84
199430	2161429	I was a bit rusty but I didn't want to miss the elections back home.	I was a bit rusty but i didn't want to miss the elctions back home.	102687676	1474560979844	1474560979925	 	32
199430	2161429	I was a bit rusty but I didn't want to miss the elections back home.	I was a bit rusty but i didn't want to miss the elctions back home.	102687715	1474560979973	1474560980089	w	87
199430	2161429	I was a bit rusty but I didn't want to miss the elections back home.	I was a bit rusty but i didn't want to miss the elctions back home.	102687722	1474560980136	1474560980276	a	65
199430	2161429	I was a bit rusty but I didn't want to miss the elections back home.	I was a bit rusty but i didn't want to miss the elctions back home.	102687729	1474560980225	1474560980341	n	78
199430	2161429	I was a bit rusty but I didn't want to miss the elections back home.	I was a bit rusty but i didn't want to miss the elctions back home.	102687738	1474560980356	1474560980472	t	84
199430	2161429	I was a bit rusty but I didn't want to miss the elections back home.	I was a bit rusty but i didn't want to miss the elctions back home.	102687761	1474560980457	1474560980529	 	32
199430	2161429	I was a bit rusty but I didn't want to miss the elections back home.	I was a bit rusty but i didn't want to miss the elctions back home.	102687765	1474560980560	1474560980676	t	84
199430	2161429	I was a bit rusty but I didn't want to miss the elections back home.	I was a bit rusty but i didn't want to miss the elctions back home.	102687770	1474560980609	1474560980724	o	79
199430	2161429	I was a bit rusty but I didn't want to miss the elections back home.	I was a bit rusty but i didn't want to miss the elctions back home.	102687777	1474560980692	1474560980820	 	32
199430	2161429	I was a bit rusty but I didn't want to miss the elections back home.	I was a bit rusty but i didn't want to miss the elctions back home.	102687782	1474560980776	1474560980890	m	77
199430	2161429	I was a bit rusty but I didn't want to miss the elections back home.	I was a bit rusty but i didn't want to miss the elctions back home.	102687796	1474560980874	1474560980976	i	73
199430	2161429	I was a bit rusty but I didn't want to miss the elections back home.	I was a bit rusty but i didn't want to miss the elctions back home.	102687799	1474560980960	1474560981044	s	83
199430	2161429	I was a bit rusty but I didn't want to miss the elections back home.	I was a bit rusty but i didn't want to miss the elctions back home.	102687805	1474560981122	1474560981207	s	83
199430	2161429	I was a bit rusty but I didn't want to miss the elections back home.	I was a bit rusty but i didn't want to miss the elctions back home.	102687811	1474560981192	1474560981295	 	32
199430	2161429	I was a bit rusty but I didn't want to miss the elections back home.	I was a bit rusty but i didn't want to miss the elctions back home.	102687816	1474560981261	1474560981373	t	84
199430	2161429	I was a bit rusty but I didn't want to miss the elections back home.	I was a bit rusty but i didn't want to miss the elctions back home.	102687854	1474560981357	1474560981457	h	72
199430	2161429	I was a bit rusty but I didn't want to miss the elections back home.	I was a bit rusty but i didn't want to miss the elctions back home.	102687859	1474560981442	1474560981555	e	69
199430	2161429	I was a bit rusty but I didn't want to miss the elections back home.	I was a bit rusty but i didn't want to miss the elctions back home.	102687867	1474560981539	1474560981625	 	32
199430	2161429	I was a bit rusty but I didn't want to miss the elections back home.	I was a bit rusty but i didn't want to miss the elctions back home.	102687873	1474560981641	1474560981744	e	69
199430	2161429	I was a bit rusty but I didn't want to miss the elections back home.	I was a bit rusty but i didn't want to miss the elctions back home.	102687877	1474560981693	1474560981822	l	76
199430	2161429	I was a bit rusty but I didn't want to miss the elections back home.	I was a bit rusty but i didn't want to miss the elctions back home.	102687884	1474560981838	1474560981941	c	67
199430	2161429	I was a bit rusty but I didn't want to miss the elections back home.	I was a bit rusty but i didn't want to miss the elctions back home.	102687964	1474560982004	1474560982107	t	84
199430	2161429	I was a bit rusty but I didn't want to miss the elections back home.	I was a bit rusty but i didn't want to miss the elctions back home.	102687970	1474560982481	1474560982661	i	73
199430	2161429	I was a bit rusty but I didn't want to miss the elections back home.	I was a bit rusty but i didn't want to miss the elctions back home.	102687978	1474560982621	1474560982786	o	79
199430	2161429	I was a bit rusty but I didn't want to miss the elections back home.	I was a bit rusty but i didn't want to miss the elctions back home.	102687984	1474560982864	1474560983005	n	78
199430	2161429	I was a bit rusty but I didn't want to miss the elections back home.	I was a bit rusty but i didn't want to miss the elctions back home.	102687989	1474560983177	1474560983306	s	83
199430	2161429	I was a bit rusty but I didn't want to miss the elections back home.	I was a bit rusty but i didn't want to miss the elctions back home.	102688016	1474560983338	1474560983444	 	32
199430	2161429	I was a bit rusty but I didn't want to miss the elections back home.	I was a bit rusty but i didn't want to miss the elctions back home.	102688020	1474560983569	1474560983692	b	66
199430	2161429	I was a bit rusty but I didn't want to miss the elections back home.	I was a bit rusty but i didn't want to miss the elctions back home.	102688027	1474560983658	1474560983805	a	65
199430	2161429	I was a bit rusty but I didn't want to miss the elections back home.	I was a bit rusty but i didn't want to miss the elctions back home.	102688034	1474560983790	1474560983929	c	67
199430	2161429	I was a bit rusty but I didn't want to miss the elections back home.	I was a bit rusty but i didn't want to miss the elctions back home.	102688061	1474560983875	1474560983995	k	75
199430	2161429	I was a bit rusty but I didn't want to miss the elections back home.	I was a bit rusty but i didn't want to miss the elctions back home.	102688064	1474560983944	1474560984075	 	32
199430	2161429	I was a bit rusty but I didn't want to miss the elections back home.	I was a bit rusty but i didn't want to miss the elctions back home.	102688070	1474560984042	1474560984160	h	72
199430	2161429	I was a bit rusty but I didn't want to miss the elections back home.	I was a bit rusty but i didn't want to miss the elctions back home.	102688073	1474560984191	1474560984290	o	79
199430	2161429	I was a bit rusty but I didn't want to miss the elections back home.	I was a bit rusty but i didn't want to miss the elctions back home.	102688081	1474560984275	1474560984421	m	77
199430	2161429	I was a bit rusty but I didn't want to miss the elections back home.	I was a bit rusty but i didn't want to miss the elctions back home.	102688076	1474560984389	1474560984511	e	69
