PARTICIPANT_ID	TEST_SECTION_ID	SENTENCE	USER_INPUT	KEYSTROKE_ID	PRESS_TIME	RELEASE_TIME	LETTER	KEYCODE
202890	2199385	I'll presume it is dead until I hear otherwise.	I'll presume it is dead until I hear otherwise.	104476353	1474591998098	1474591998240	CAPS_LOCK	20
202890	2199385	I'll presume it is dead until I hear otherwise.	I'll presume it is dead until I hear otherwise.	104476357	1474591998272	1474591998384	I	73
202890	2199385	I'll presume it is dead until I hear otherwise.	I'll presume it is dead until I hear otherwise.	104476358	1474591998368	1474591998480	CAPS_LOCK	20
202890	2199385	I'll presume it is dead until I hear otherwise.	I'll presume it is dead until I hear otherwise.	104476362	1474591998768	1474591998880	'	222
202890	2199385	I'll presume it is dead until I hear otherwise.	I'll presume it is dead until I hear otherwise.	104476366	1474591999088	1474591999184	l	76
202890	2199385	I'll presume it is dead until I hear otherwise.	I'll presume it is dead until I hear otherwise.	104476370	1474591999248	1474591999344	l	76
202890	2199385	I'll presume it is dead until I hear otherwise.	I'll presume it is dead until I hear otherwise.	104476373	1474591999392	1474591999520	 	32
202890	2199385	I'll presume it is dead until I hear otherwise.	I'll presume it is dead until I hear otherwise.	104476385	1474591999568	1474591999697	p	80
202890	2199385	I'll presume it is dead until I hear otherwise.	I'll presume it is dead until I hear otherwise.	104476386	1474591999698	1474591999808	r	82
202890	2199385	I'll presume it is dead until I hear otherwise.	I'll presume it is dead until I hear otherwise.	104476387	1474591999792	1474591999888	e	69
202890	2199385	I'll presume it is dead until I hear otherwise.	I'll presume it is dead until I hear otherwise.	104476388	1474592000144	1474592000256	s	83
202890	2199385	I'll presume it is dead until I hear otherwise.	I'll presume it is dead until I hear otherwise.	104476389	1474592000336	1474592000465	u	85
202890	2199385	I'll presume it is dead until I hear otherwise.	I'll presume it is dead until I hear otherwise.	104476403	1474592000512	1474592000640	m	77
202890	2199385	I'll presume it is dead until I hear otherwise.	I'll presume it is dead until I hear otherwise.	104476404	1474592000656	1474592000768	e	69
202890	2199385	I'll presume it is dead until I hear otherwise.	I'll presume it is dead until I hear otherwise.	104476405	1474592000800	1474592000912	 	32
202890	2199385	I'll presume it is dead until I hear otherwise.	I'll presume it is dead until I hear otherwise.	104476406	1474592000992	1474592001104	i	73
202890	2199385	I'll presume it is dead until I hear otherwise.	I'll presume it is dead until I hear otherwise.	104476435	1474592001072	1474592001184	t	84
202890	2199385	I'll presume it is dead until I hear otherwise.	I'll presume it is dead until I hear otherwise.	104476436	1474592001280	1474592001376	 	32
202890	2199385	I'll presume it is dead until I hear otherwise.	I'll presume it is dead until I hear otherwise.	104476437	1474592001472	1474592001600	i	73
202890	2199385	I'll presume it is dead until I hear otherwise.	I'll presume it is dead until I hear otherwise.	104476438	1474592001584	1474592001680	s	83
202890	2199385	I'll presume it is dead until I hear otherwise.	I'll presume it is dead until I hear otherwise.	104476440	1474592001712	1474592001792	 	32
202890	2199385	I'll presume it is dead until I hear otherwise.	I'll presume it is dead until I hear otherwise.	104476443	1474592002064	1474592002192	d	68
202890	2199385	I'll presume it is dead until I hear otherwise.	I'll presume it is dead until I hear otherwise.	104476468	1474592002144	1474592002288	e	69
202890	2199385	I'll presume it is dead until I hear otherwise.	I'll presume it is dead until I hear otherwise.	104476470	1474592002256	1474592002368	a	65
202890	2199385	I'll presume it is dead until I hear otherwise.	I'll presume it is dead until I hear otherwise.	104476472	1474592002336	1474592002448	d	68
202890	2199385	I'll presume it is dead until I hear otherwise.	I'll presume it is dead until I hear otherwise.	104476474	1474592002496	1474592002592	 	32
202890	2199385	I'll presume it is dead until I hear otherwise.	I'll presume it is dead until I hear otherwise.	104476476	1474592002688	1474592002864	u	85
202890	2199385	I'll presume it is dead until I hear otherwise.	I'll presume it is dead until I hear otherwise.	104476513	1474592002848	1474592002992	n	78
202890	2199385	I'll presume it is dead until I hear otherwise.	I'll presume it is dead until I hear otherwise.	104476514	1474592002993	1474592003121	t	84
202890	2199385	I'll presume it is dead until I hear otherwise.	I'll presume it is dead until I hear otherwise.	104476515	1474592003122	1474592003232	i	73
202890	2199385	I'll presume it is dead until I hear otherwise.	I'll presume it is dead until I hear otherwise.	104476517	1474592003376	1474592003520	l	76
202890	2199385	I'll presume it is dead until I hear otherwise.	I'll presume it is dead until I hear otherwise.	104476521	1474592003536	1474592003632	 	32
202890	2199385	I'll presume it is dead until I hear otherwise.	I'll presume it is dead until I hear otherwise.	104476525	1474592003664	1474592003762	i	73
202890	2199385	I'll presume it is dead until I hear otherwise.	I'll presume it is dead until I hear otherwise.	104476602	1474592003968	1474592004048	BKSP	8
202890	2199385	I'll presume it is dead until I hear otherwise.	I'll presume it is dead until I hear otherwise.	104476606	1474592004049	1474592004176	CAPS_LOCK	20
202890	2199385	I'll presume it is dead until I hear otherwise.	I'll presume it is dead until I hear otherwise.	104476609	1474592004192	1474592004288	I	73
202890	2199385	I'll presume it is dead until I hear otherwise.	I'll presume it is dead until I hear otherwise.	104476611	1474592004320	1474592004416	CAPS_LOCK	20
202890	2199385	I'll presume it is dead until I hear otherwise.	I'll presume it is dead until I hear otherwise.	104476612	1474592004418	1474592004528	 	32
202890	2199385	I'll presume it is dead until I hear otherwise.	I'll presume it is dead until I hear otherwise.	104476613	1474592004592	1474592004672	 	32
202890	2199385	I'll presume it is dead until I hear otherwise.	I'll presume it is dead until I hear otherwise.	104476614	1474592004880	1474592004928	h	72
202890	2199385	I'll presume it is dead until I hear otherwise.	I'll presume it is dead until I hear otherwise.	104476616	1474592004896	1474592004976	CAPS_LOCK	20
202890	2199385	I'll presume it is dead until I hear otherwise.	I'll presume it is dead until I hear otherwise.	104476618	1474592005328	1474592005392	BKSP	8
202890	2199385	I'll presume it is dead until I hear otherwise.	I'll presume it is dead until I hear otherwise.	104476621	1474592005456	1474592005504	BKSP	8
202890	2199385	I'll presume it is dead until I hear otherwise.	I'll presume it is dead until I hear otherwise.	104476624	1474592005664	1474592005792	H	72
202890	2199385	I'll presume it is dead until I hear otherwise.	I'll presume it is dead until I hear otherwise.	104476670	1474592005760	1474592005856	E	69
202890	2199385	I'll presume it is dead until I hear otherwise.	I'll presume it is dead until I hear otherwise.	104476673	1474592005904	1474592006032	A	65
202890	2199385	I'll presume it is dead until I hear otherwise.	I'll presume it is dead until I hear otherwise.	104476676	1474592006048	1474592006160	R	82
202890	2199385	I'll presume it is dead until I hear otherwise.	I'll presume it is dead until I hear otherwise.	104476681	1474592006368	1474592006400	BKSP	8
202890	2199385	I'll presume it is dead until I hear otherwise.	I'll presume it is dead until I hear otherwise.	104476688	1474592006480	1474592006528	BKSP	8
202890	2199385	I'll presume it is dead until I hear otherwise.	I'll presume it is dead until I hear otherwise.	104476695	1474592006592	1474592006656	BKSP	8
202890	2199385	I'll presume it is dead until I hear otherwise.	I'll presume it is dead until I hear otherwise.	104476699	1474592006720	1474592006848	CAPS_LOCK	20
202890	2199385	I'll presume it is dead until I hear otherwise.	I'll presume it is dead until I hear otherwise.	104476702	1474592007056	1474592007120	BKSP	8
202890	2199385	I'll presume it is dead until I hear otherwise.	I'll presume it is dead until I hear otherwise.	104476704	1474592007282	1474592007394	h	72
202890	2199385	I'll presume it is dead until I hear otherwise.	I'll presume it is dead until I hear otherwise.	104476707	1474592007376	1474592007472	e	69
202890	2199385	I'll presume it is dead until I hear otherwise.	I'll presume it is dead until I hear otherwise.	104476709	1474592007473	1474592007568	a	65
202890	2199385	I'll presume it is dead until I hear otherwise.	I'll presume it is dead until I hear otherwise.	104476734	1474592007574	1474592007696	r	82
202890	2199385	I'll presume it is dead until I hear otherwise.	I'll presume it is dead until I hear otherwise.	104476738	1474592007697	1474592007808	 	32
202890	2199385	I'll presume it is dead until I hear otherwise.	I'll presume it is dead until I hear otherwise.	104476742	1474592008016	1474592008096	i	73
202890	2199385	I'll presume it is dead until I hear otherwise.	I'll presume it is dead until I hear otherwise.	104476745	1474592008288	1474592008368	BKSP	8
202890	2199385	I'll presume it is dead until I hear otherwise.	I'll presume it is dead until I hear otherwise.	104476748	1474592008496	1474592008624	o	79
202890	2199385	I'll presume it is dead until I hear otherwise.	I'll presume it is dead until I hear otherwise.	104476752	1474592008626	1474592008735	t	84
202890	2199385	I'll presume it is dead until I hear otherwise.	I'll presume it is dead until I hear otherwise.	104476768	1474592008768	1474592008880	h	72
202890	2199385	I'll presume it is dead until I hear otherwise.	I'll presume it is dead until I hear otherwise.	104476770	1474592008848	1474592008933	e	69
202890	2199385	I'll presume it is dead until I hear otherwise.	I'll presume it is dead until I hear otherwise.	104476775	1474592008912	1474592008991	r	82
202890	2199385	I'll presume it is dead until I hear otherwise.	I'll presume it is dead until I hear otherwise.	104476778	1474592009088	1474592009184	w	87
202890	2199385	I'll presume it is dead until I hear otherwise.	I'll presume it is dead until I hear otherwise.	104476785	1474592009200	1474592009312	i	73
202890	2199385	I'll presume it is dead until I hear otherwise.	I'll presume it is dead until I hear otherwise.	104476813	1474592009344	1474592009424	s	83
202890	2199385	I'll presume it is dead until I hear otherwise.	I'll presume it is dead until I hear otherwise.	104476817	1474592009504	1474592009567	e	69
202890	2199385	I'll presume it is dead until I hear otherwise.	I'll presume it is dead until I hear otherwise.	104476822	1474592009664	1474592009791	.	190
202890	2199399	The senate would require them to create a US subsidiary.	The senate would require them to create a US subsidiary.	104476957	1474592012672	1474592012783	CAPS_LOCK	20
202890	2199399	The senate would require them to create a US subsidiary.	The senate would require them to create a US subsidiary.	104476958	1474592012864	1474592012959	T	84
202890	2199399	The senate would require them to create a US subsidiary.	The senate would require them to create a US subsidiary.	104476959	1474592012944	1474592013071	CAPS_LOCK	20
202890	2199399	The senate would require them to create a US subsidiary.	The senate would require them to create a US subsidiary.	104476960	1474592013055	1474592013168	h	72
202890	2199399	The senate would require them to create a US subsidiary.	The senate would require them to create a US subsidiary.	104476962	1474592013169	1474592013247	e	69
202890	2199399	The senate would require them to create a US subsidiary.	The senate would require them to create a US subsidiary.	104476964	1474592013296	1474592013407	 	32
202890	2199399	The senate would require them to create a US subsidiary.	The senate would require them to create a US subsidiary.	104476989	1474592013376	1474592013455	s	83
202890	2199399	The senate would require them to create a US subsidiary.	The senate would require them to create a US subsidiary.	104476991	1474592013520	1474592013599	e	69
202890	2199399	The senate would require them to create a US subsidiary.	The senate would require them to create a US subsidiary.	104476993	1474592013616	1474592013743	n	78
202890	2199399	The senate would require them to create a US subsidiary.	The senate would require them to create a US subsidiary.	104476994	1474592013712	1474592013807	a	65
202890	2199399	The senate would require them to create a US subsidiary.	The senate would require them to create a US subsidiary.	104476996	1474592013889	1474592013990	t	84
202890	2199399	The senate would require them to create a US subsidiary.	The senate would require them to create a US subsidiary.	104476999	1474592014016	1474592014112	e	69
202890	2199399	The senate would require them to create a US subsidiary.	The senate would require them to create a US subsidiary.	104477027	1474592014117	1474592014224	 	32
202890	2199399	The senate would require them to create a US subsidiary.	The senate would require them to create a US subsidiary.	104477029	1474592014225	1474592014303	w	87
202890	2199399	The senate would require them to create a US subsidiary.	The senate would require them to create a US subsidiary.	104477031	1474592014320	1474592014447	o	79
202890	2199399	The senate would require them to create a US subsidiary.	The senate would require them to create a US subsidiary.	104477033	1474592014512	1474592014623	u	85
202890	2199399	The senate would require them to create a US subsidiary.	The senate would require them to create a US subsidiary.	104477036	1474592014688	1474592014816	l	76
202890	2199399	The senate would require them to create a US subsidiary.	The senate would require them to create a US subsidiary.	104477048	1474592014821	1474592014911	d	68
202890	2199399	The senate would require them to create a US subsidiary.	The senate would require them to create a US subsidiary.	104477050	1474592014927	1474592015024	 	32
202890	2199399	The senate would require them to create a US subsidiary.	The senate would require them to create a US subsidiary.	104477052	1474592015025	1474592015137	r	82
202890	2199399	The senate would require them to create a US subsidiary.	The senate would require them to create a US subsidiary.	104477055	1474592015120	1474592015215	e	69
202890	2199399	The senate would require them to create a US subsidiary.	The senate would require them to create a US subsidiary.	104477058	1474592015360	1474592015472	q	81
202890	2199399	The senate would require them to create a US subsidiary.	The senate would require them to create a US subsidiary.	104477078	1474592015488	1474592015632	u	85
202890	2199399	The senate would require them to create a US subsidiary.	The senate would require them to create a US subsidiary.	104477083	1474592015633	1474592015759	i	73
202890	2199399	The senate would require them to create a US subsidiary.	The senate would require them to create a US subsidiary.	104477088	1474592015920	1474592016079	r	82
202890	2199399	The senate would require them to create a US subsidiary.	The senate would require them to create a US subsidiary.	104477093	1474592016015	1474592016207	e	69
202890	2199399	The senate would require them to create a US subsidiary.	The senate would require them to create a US subsidiary.	104477097	1474592016223	1474592016319	 	32
202890	2199399	The senate would require them to create a US subsidiary.	The senate would require them to create a US subsidiary.	104477112	1474592016384	1474592016464	t	84
202890	2199399	The senate would require them to create a US subsidiary.	The senate would require them to create a US subsidiary.	104477114	1474592016465	1474592016575	h	72
202890	2199399	The senate would require them to create a US subsidiary.	The senate would require them to create a US subsidiary.	104477116	1474592016640	1474592016703	a	65
202890	2199399	The senate would require them to create a US subsidiary.	The senate would require them to create a US subsidiary.	104477118	1474592016928	1474592017008	BKSP	8
202890	2199399	The senate would require them to create a US subsidiary.	The senate would require them to create a US subsidiary.	104477120	1474592017010	1474592017087	e	69
202890	2199399	The senate would require them to create a US subsidiary.	The senate would require them to create a US subsidiary.	104477121	1474592017136	1474592017231	m	77
202890	2199399	The senate would require them to create a US subsidiary.	The senate would require them to create a US subsidiary.	104477129	1474592017264	1474592017359	 	32
202890	2199399	The senate would require them to create a US subsidiary.	The senate would require them to create a US subsidiary.	104477130	1474592017423	1474592017520	t	84
202890	2199399	The senate would require them to create a US subsidiary.	The senate would require them to create a US subsidiary.	104477131	1474592017521	1474592017632	o	79
202890	2199399	The senate would require them to create a US subsidiary.	The senate would require them to create a US subsidiary.	104477134	1474592017633	1474592017695	 	32
202890	2199399	The senate would require them to create a US subsidiary.	The senate would require them to create a US subsidiary.	104477138	1474592017775	1474592017871	c	67
202890	2199399	The senate would require them to create a US subsidiary.	The senate would require them to create a US subsidiary.	104477161	1474592017903	1474592017999	r	82
202890	2199399	The senate would require them to create a US subsidiary.	The senate would require them to create a US subsidiary.	104477163	1474592018095	1474592018255	e	69
202890	2199399	The senate would require them to create a US subsidiary.	The senate would require them to create a US subsidiary.	104477164	1474592018224	1474592018335	a	65
202890	2199399	The senate would require them to create a US subsidiary.	The senate would require them to create a US subsidiary.	104477165	1474592018383	1474592018463	t	84
202890	2199399	The senate would require them to create a US subsidiary.	The senate would require them to create a US subsidiary.	104477166	1474592018495	1474592018591	e	69
202890	2199399	The senate would require them to create a US subsidiary.	The senate would require them to create a US subsidiary.	104477187	1474592018623	1474592018720	 	32
202890	2199399	The senate would require them to create a US subsidiary.	The senate would require them to create a US subsidiary.	104477189	1474592018735	1474592018847	a	65
202890	2199399	The senate would require them to create a US subsidiary.	The senate would require them to create a US subsidiary.	104477191	1474592018879	1474592018991	 	32
202890	2199399	The senate would require them to create a US subsidiary.	The senate would require them to create a US subsidiary.	104477193	1474592019023	1474592019151	CAPS_LOCK	20
202890	2199399	The senate would require them to create a US subsidiary.	The senate would require them to create a US subsidiary.	104477196	1474592019184	1474592019312	U	85
202890	2199399	The senate would require them to create a US subsidiary.	The senate would require them to create a US subsidiary.	104477202	1474592019313	1474592019423	S	83
202890	2199399	The senate would require them to create a US subsidiary.	The senate would require them to create a US subsidiary.	104477252	1474592019471	1474592019567	 	32
202890	2199399	The senate would require them to create a US subsidiary.	The senate would require them to create a US subsidiary.	104477256	1474592019791	1474592019903	CAPS_LOCK	20
202890	2199399	The senate would require them to create a US subsidiary.	The senate would require them to create a US subsidiary.	104477262	1474592019984	1474592020047	s	83
202890	2199399	The senate would require them to create a US subsidiary.	The senate would require them to create a US subsidiary.	104477267	1474592020144	1474592020256	u	85
202890	2199399	The senate would require them to create a US subsidiary.	The senate would require them to create a US subsidiary.	104477270	1474592020257	1474592020367	b	66
202890	2199399	The senate would require them to create a US subsidiary.	The senate would require them to create a US subsidiary.	104477274	1474592020479	1474592020608	s	83
202890	2199399	The senate would require them to create a US subsidiary.	The senate would require them to create a US subsidiary.	104477333	1474592020613	1474592020735	i	73
202890	2199399	The senate would require them to create a US subsidiary.	The senate would require them to create a US subsidiary.	104477335	1474592020863	1474592020975	d	68
202890	2199399	The senate would require them to create a US subsidiary.	The senate would require them to create a US subsidiary.	104477337	1474592021471	1474592021583	i	73
202890	2199399	The senate would require them to create a US subsidiary.	The senate would require them to create a US subsidiary.	104477339	1474592021711	1474592021759	BKSP	8
202890	2199399	The senate would require them to create a US subsidiary.	The senate would require them to create a US subsidiary.	104477342	1474592021823	1474592021871	BKSP	8
202890	2199399	The senate would require them to create a US subsidiary.	The senate would require them to create a US subsidiary.	104477345	1474592022031	1474592022095	i	73
202890	2199399	The senate would require them to create a US subsidiary.	The senate would require them to create a US subsidiary.	104477349	1474592022351	1474592022431	BKSP	8
202890	2199399	The senate would require them to create a US subsidiary.	The senate would require them to create a US subsidiary.	104477352	1474592022463	1474592022575	d	68
202890	2199399	The senate would require them to create a US subsidiary.	The senate would require them to create a US subsidiary.	104477386	1474592022671	1474592022783	i	73
202890	2199399	The senate would require them to create a US subsidiary.	The senate would require them to create a US subsidiary.	104477388	1474592022831	1474592022959	a	65
202890	2199399	The senate would require them to create a US subsidiary.	The senate would require them to create a US subsidiary.	104477390	1474592023119	1474592023215	r	82
202890	2199399	The senate would require them to create a US subsidiary.	The senate would require them to create a US subsidiary.	104477422	1474592023520	1474592023599	u	89
202890	2199399	The senate would require them to create a US subsidiary.	The senate would require them to create a US subsidiary.	104477427	1474592023903	1474592023983	BKSP	8
202890	2199399	The senate would require them to create a US subsidiary.	The senate would require them to create a US subsidiary.	104477430	1474592024223	1474592024303	.	190
202890	2199412	Get with Mary for format.	Get with Mary for format.	104477614	1474592028063	1474592028191	CAPS_LOCK	20
202890	2199412	Get with Mary for format.	Get with Mary for format.	104477617	1474592028239	1474592028335	G	71
202890	2199412	Get with Mary for format.	Get with Mary for format.	104477621	1474592028351	1474592028511	CAPS_LOCK	20
202890	2199412	Get with Mary for format.	Get with Mary for format.	104477623	1474592028463	1474592028591	e	69
202890	2199412	Get with Mary for format.	Get with Mary for format.	104477625	1474592028639	1474592028735	t	84
202890	2199412	Get with Mary for format.	Get with Mary for format.	104477626	1474592028751	1474592028847	 	32
202890	2199412	Get with Mary for format.	Get with Mary for format.	104477627	1474592028848	1474592028928	w	87
202890	2199412	Get with Mary for format.	Get with Mary for format.	104477636	1474592028959	1474592029071	i	73
202890	2199412	Get with Mary for format.	Get with Mary for format.	104477640	1474592029055	1474592029135	t	84
202890	2199412	Get with Mary for format.	Get with Mary for format.	104477646	1474592029167	1474592029296	h	72
202890	2199412	Get with Mary for format.	Get with Mary for format.	104477652	1474592029297	1474592029375	 	32
202890	2199412	Get with Mary for format.	Get with Mary for format.	104477657	1474592029471	1474592029600	CAPS_LOCK	20
202890	2199412	Get with Mary for format.	Get with Mary for format.	104477662	1474592029601	1474592029711	M	77
202890	2199412	Get with Mary for format.	Get with Mary for format.	104477678	1474592029679	1474592029807	CAPS_LOCK	20
202890	2199412	Get with Mary for format.	Get with Mary for format.	104477681	1474592029823	1474592029919	a	65
202890	2199412	Get with Mary for format.	Get with Mary for format.	104477683	1474592029983	1474592030079	r	82
202890	2199412	Get with Mary for format.	Get with Mary for format.	104477685	1474592030207	1474592030287	y	89
202890	2199412	Get with Mary for format.	Get with Mary for format.	104477687	1474592030319	1474592030431	 	32
202890	2199412	Get with Mary for format.	Get with Mary for format.	104477701	1474592030415	1474592030511	f	70
202890	2199412	Get with Mary for format.	Get with Mary for format.	104477704	1474592030559	1474592030655	o	79
202890	2199412	Get with Mary for format.	Get with Mary for format.	104477706	1474592030607	1474592030687	r	82
202890	2199412	Get with Mary for format.	Get with Mary for format.	104477709	1474592030735	1474592030831	 	32
202890	2199412	Get with Mary for format.	Get with Mary for format.	104477712	1474592030833	1474592030911	f	70
202890	2199412	Get with Mary for format.	Get with Mary for format.	104477716	1474592030959	1474592031071	o	79
202890	2199412	Get with Mary for format.	Get with Mary for format.	104477728	1474592031039	1474592031135	r	82
202890	2199412	Get with Mary for format.	Get with Mary for format.	104477729	1474592031167	1474592031263	m	77
202890	2199412	Get with Mary for format.	Get with Mary for format.	104477730	1474592031279	1474592031375	a	65
202890	2199412	Get with Mary for format.	Get with Mary for format.	104477731	1474592031439	1474592031535	t	84
202890	2199412	Get with Mary for format.	Get with Mary for format.	104477732	1474592031615	1474592031759	.	190
202890	2199418	The move is also against our law.	The move is also against our llaw	104477892	1474592034463	1474592034559	CAPS_LOCK	20
202890	2199418	The move is also against our law.	The move is also against our llaw	104477899	1474592034607	1474592034719	T	84
202890	2199418	The move is also against our law.	The move is also against our llaw	104477904	1474592034720	1474592034831	CAPS_LOCK	20
202890	2199418	The move is also against our law.	The move is also against our llaw	104477910	1474592034815	1474592034927	h	72
202890	2199418	The move is also against our law.	The move is also against our llaw	104477917	1474592034928	1474592035006	e	69
202890	2199418	The move is also against our law.	The move is also against our llaw	104477921	1474592035071	1474592035151	 	32
202890	2199418	The move is also against our law.	The move is also against our llaw	104477927	1474592035231	1474592035295	m	77
202890	2199418	The move is also against our law.	The move is also against our llaw	104477968	1474592035327	1474592035439	o	79
202890	2199418	The move is also against our law.	The move is also against our llaw	104477970	1474592035407	1474592035503	v	86
202890	2199418	The move is also against our law.	The move is also against our llaw	104477971	1474592035567	1474592035663	i	73
202890	2199418	The move is also against our law.	The move is also against our llaw	104477972	1474592035855	1474592035935	BKSP	8
202890	2199418	The move is also against our law.	The move is also against our llaw	104477973	1474592035903	1474592036015	e	69
202890	2199418	The move is also against our law.	The move is also against our llaw	104477974	1474592036079	1474592036159	 	32
202890	2199418	The move is also against our law.	The move is also against our llaw	104477998	1474592036223	1474592036335	i	73
202890	2199418	The move is also against our law.	The move is also against our llaw	104478001	1474592036336	1474592036415	s	83
202890	2199418	The move is also against our law.	The move is also against our llaw	104478004	1474592036447	1474592036511	 	32
202890	2199418	The move is also against our law.	The move is also against our llaw	104478006	1474592036575	1474592036687	a	65
202890	2199418	The move is also against our law.	The move is also against our llaw	104478009	1474592036688	1474592036799	l	76
202890	2199418	The move is also against our law.	The move is also against our llaw	104478041	1474592036831	1474592036846	w	87
202890	2199418	The move is also against our law.	The move is also against our llaw	104478042	1474592037055	1474592037135	BKSP	8
202890	2199418	The move is also against our law.	The move is also against our llaw	104478044	1474592037151	1474592037231	s	83
202890	2199418	The move is also against our law.	The move is also against our llaw	104478050	1474592037263	1474592037375	o	79
202890	2199418	The move is also against our law.	The move is also against our llaw	104478055	1474592037391	1474592037503	 	32
202890	2199418	The move is also against our law.	The move is also against our llaw	104478059	1474592037583	1474592037679	a	65
202890	2199418	The move is also against our law.	The move is also against our llaw	104478090	1474592037759	1474592037839	g	71
202890	2199418	The move is also against our law.	The move is also against our llaw	104478091	1474592037887	1474592037999	a	65
202890	2199418	The move is also against our law.	The move is also against our llaw	104478093	1474592038031	1474592038159	i	73
202890	2199418	The move is also against our law.	The move is also against our llaw	104478095	1474592038111	1474592038223	n	78
202890	2199418	The move is also against our law.	The move is also against our llaw	104478098	1474592038415	1474592038495	s	83
202890	2199418	The move is also against our law.	The move is also against our llaw	104478129	1474592038575	1474592038655	t	84
202890	2199418	The move is also against our law.	The move is also against our llaw	104478131	1474592038703	1474592038815	 	32
202890	2199418	The move is also against our law.	The move is also against our llaw	104478136	1474592038991	1474592039103	o	79
202890	2199418	The move is also against our law.	The move is also against our llaw	104478142	1474592039167	1474592039311	u	85
202890	2199418	The move is also against our law.	The move is also against our llaw	104478204	1474592039263	1474592039375	r	82
202890	2199418	The move is also against our law.	The move is also against our llaw	104478205	1474592039439	1474592039535	 	32
202890	2199418	The move is also against our law.	The move is also against our llaw	104478207	1474592039583	1474592039679	l	76
202890	2199418	The move is also against our law.	The move is also against our llaw	104478209	1474592039919	1474592040031	a	65
202890	2199418	The move is also against our law.	The move is also against our llaw	104478214	1474592040047	1474592040095	BKSP	8
202890	2199418	The move is also against our law.	The move is also against our llaw	104478218	1474592040191	1474592040271	w	87
202890	2199418	The move is also against our law.	The move is also against our llaw	104478224	1474592040511	1474592040575	BKSP	8
202890	2199418	The move is also against our law.	The move is also against our llaw	104478227	1474592040751	1474592040831	l	76
202890	2199418	The move is also against our law.	The move is also against our llaw	104478217	1474592040799	1474592040927	a	65
202890	2199418	The move is also against our law.	The move is also against our llaw	104478222	1474592040895	1474592040991	w	87
202890	2199426	They spent about two hours at Larnaca airport.	They spent about two hours at Larnaca airport.	104478434	1474592046543	1474592046670	CAPS_LOCK	20
202890	2199426	They spent about two hours at Larnaca airport.	They spent about two hours at Larnaca airport.	104478438	1474592046703	1474592046815	T	84
202890	2199426	They spent about two hours at Larnaca airport.	They spent about two hours at Larnaca airport.	104478441	1474592046911	1474592047055	CAPS_LOCK	20
202890	2199426	They spent about two hours at Larnaca airport.	They spent about two hours at Larnaca airport.	104478444	1474592047056	1474592047183	h	72
202890	2199426	They spent about two hours at Larnaca airport.	They spent about two hours at Larnaca airport.	104478447	1474592047184	1474592047262	e	69
202890	2199426	They spent about two hours at Larnaca airport.	They spent about two hours at Larnaca airport.	104478451	1474592047343	1474592047455	y	89
202890	2199426	They spent about two hours at Larnaca airport.	They spent about two hours at Larnaca airport.	104478456	1474592047456	1474592047567	 	32
202890	2199426	They spent about two hours at Larnaca airport.	They spent about two hours at Larnaca airport.	104478473	1474592047572	1474592047630	s	83
202890	2199426	They spent about two hours at Larnaca airport.	They spent about two hours at Larnaca airport.	104478477	1474592047775	1474592047887	p	80
202890	2199426	They spent about two hours at Larnaca airport.	They spent about two hours at Larnaca airport.	104478479	1474592047871	1474592047950	e	69
202890	2199426	They spent about two hours at Larnaca airport.	They spent about two hours at Larnaca airport.	104478482	1474592048015	1474592048127	n	78
202890	2199426	They spent about two hours at Larnaca airport.	They spent about two hours at Larnaca airport.	104478484	1474592048128	1474592048222	t	84
202890	2199426	They spent about two hours at Larnaca airport.	They spent about two hours at Larnaca airport.	104478497	1474592048255	1474592048367	 	32
202890	2199426	They spent about two hours at Larnaca airport.	They spent about two hours at Larnaca airport.	104478501	1474592048368	1474592048415	a	65
202890	2199426	They spent about two hours at Larnaca airport.	They spent about two hours at Larnaca airport.	104478506	1474592048495	1474592048575	b	66
202890	2199426	They spent about two hours at Larnaca airport.	They spent about two hours at Larnaca airport.	104478511	1474592048576	1474592048687	o	79
202890	2199426	They spent about two hours at Larnaca airport.	They spent about two hours at Larnaca airport.	104478512	1474592048688	1474592048799	u	85
202890	2199426	They spent about two hours at Larnaca airport.	They spent about two hours at Larnaca airport.	104478549	1474592048767	1474592048862	t	84
202890	2199426	They spent about two hours at Larnaca airport.	They spent about two hours at Larnaca airport.	104478552	1474592048926	1474592048990	 	32
202890	2199426	They spent about two hours at Larnaca airport.	They spent about two hours at Larnaca airport.	104478554	1474592049039	1474592049118	t	84
202890	2199426	They spent about two hours at Larnaca airport.	They spent about two hours at Larnaca airport.	104478556	1474592049134	1474592049182	h	72
202890	2199426	They spent about two hours at Larnaca airport.	They spent about two hours at Larnaca airport.	104478558	1474592049391	1474592049471	BKSP	8
202890	2199426	They spent about two hours at Larnaca airport.	They spent about two hours at Larnaca airport.	104478559	1474592049486	1474592049566	w	87
202890	2199426	They spent about two hours at Larnaca airport.	They spent about two hours at Larnaca airport.	104478560	1474592049647	1474592049758	o	79
202890	2199426	They spent about two hours at Larnaca airport.	They spent about two hours at Larnaca airport.	104478580	1474592049887	1474592049983	 	32
202890	2199426	They spent about two hours at Larnaca airport.	They spent about two hours at Larnaca airport.	104478582	1474592050335	1474592050446	h	72
202890	2199426	They spent about two hours at Larnaca airport.	They spent about two hours at Larnaca airport.	104478584	1474592050479	1474592050574	o	79
202890	2199426	They spent about two hours at Larnaca airport.	They spent about two hours at Larnaca airport.	104478585	1474592050606	1474592050736	u	85
202890	2199426	They spent about two hours at Larnaca airport.	They spent about two hours at Larnaca airport.	104478609	1474592050718	1474592050814	r	82
202890	2199426	They spent about two hours at Larnaca airport.	They spent about two hours at Larnaca airport.	104478612	1474592050911	1474592051023	s	83
202890	2199426	They spent about two hours at Larnaca airport.	They spent about two hours at Larnaca airport.	104478615	1474592051103	1474592051230	 	32
202890	2199426	They spent about two hours at Larnaca airport.	They spent about two hours at Larnaca airport.	104478618	1474592051295	1474592051390	a	65
202890	2199426	They spent about two hours at Larnaca airport.	They spent about two hours at Larnaca airport.	104478622	1474592051455	1474592051534	t	84
202890	2199426	They spent about two hours at Larnaca airport.	They spent about two hours at Larnaca airport.	104478624	1474592051567	1474592051662	 	32
202890	2199426	They spent about two hours at Larnaca airport.	They spent about two hours at Larnaca airport.	104478639	1474592051790	1474592051903	CAPS_LOCK	20
202890	2199426	They spent about two hours at Larnaca airport.	They spent about two hours at Larnaca airport.	104478641	1474592051904	1474592052030	L	76
202890	2199426	They spent about two hours at Larnaca airport.	They spent about two hours at Larnaca airport.	104478643	1474592051998	1474592052110	CAPS_LOCK	20
202890	2199426	They spent about two hours at Larnaca airport.	They spent about two hours at Larnaca airport.	104478645	1474592052158	1474592052238	a	65
202890	2199426	They spent about two hours at Larnaca airport.	They spent about two hours at Larnaca airport.	104478648	1474592052302	1474592052414	r	82
202890	2199426	They spent about two hours at Larnaca airport.	They spent about two hours at Larnaca airport.	104478651	1474592052430	1474592052542	n	78
202890	2199426	They spent about two hours at Larnaca airport.	They spent about two hours at Larnaca airport.	104478668	1474592052526	1474592052622	a	65
202890	2199426	They spent about two hours at Larnaca airport.	They spent about two hours at Larnaca airport.	104478670	1474592052718	1474592052798	c	67
202890	2199426	They spent about two hours at Larnaca airport.	They spent about two hours at Larnaca airport.	104478674	1474592052863	1474592052974	a	65
202890	2199426	They spent about two hours at Larnaca airport.	They spent about two hours at Larnaca airport.	104478676	1474592053022	1474592053150	 	32
202890	2199426	They spent about two hours at Larnaca airport.	They spent about two hours at Larnaca airport.	104478680	1474592053231	1474592053358	a	65
202890	2199426	They spent about two hours at Larnaca airport.	They spent about two hours at Larnaca airport.	104478683	1474592053455	1474592053598	i	73
202890	2199426	They spent about two hours at Larnaca airport.	They spent about two hours at Larnaca airport.	104478715	1474592053567	1474592053662	r	82
202890	2199426	They spent about two hours at Larnaca airport.	They spent about two hours at Larnaca airport.	104478717	1474592053854	1474592053966	p	80
202890	2199426	They spent about two hours at Larnaca airport.	They spent about two hours at Larnaca airport.	104478720	1474592054110	1474592054238	o	79
202890	2199426	They spent about two hours at Larnaca airport.	They spent about two hours at Larnaca airport.	104478725	1474592054254	1474592054334	r	82
202890	2199426	They spent about two hours at Larnaca airport.	They spent about two hours at Larnaca airport.	104478728	1474592054398	1474592054494	t	84
202890	2199426	They spent about two hours at Larnaca airport.	They spent about two hours at Larnaca airport.	104478731	1474592054558	1474592054703	.	190
202890	2199435	Sorry it took so long.	Sorry it took so long.	104478799	1474592057038	1474592057182	CAPS_LOCK	20
202890	2199435	Sorry it took so long.	Sorry it took so long.	104478803	1474592057231	1474592057343	S	83
202890	2199435	Sorry it took so long.	Sorry it took so long.	104478808	1474592057344	1474592057470	CAPS_LOCK	20
202890	2199435	Sorry it took so long.	Sorry it took so long.	104478813	1474592057438	1474592057566	o	79
202890	2199435	Sorry it took so long.	Sorry it took so long.	104478818	1474592057567	1474592057614	r	82
202890	2199435	Sorry it took so long.	Sorry it took so long.	104478824	1474592057694	1474592057742	r	82
202890	2199435	Sorry it took so long.	Sorry it took so long.	104478827	1474592057902	1474592057999	y	89
202890	2199435	Sorry it took so long.	Sorry it took so long.	104478834	1474592058004	1474592058078	 	32
202890	2199435	Sorry it took so long.	Sorry it took so long.	104478835	1474592058142	1474592058254	i	73
202890	2199435	Sorry it took so long.	Sorry it took so long.	104478836	1474592058222	1474592058302	t	84
202890	2199435	Sorry it took so long.	Sorry it took so long.	104478837	1474592058334	1474592058430	 	32
202890	2199435	Sorry it took so long.	Sorry it took so long.	104478838	1474592058462	1474592058558	t	84
202890	2199435	Sorry it took so long.	Sorry it took so long.	104478854	1474592058563	1474592058638	o	79
202890	2199435	Sorry it took so long.	Sorry it took so long.	104478856	1474592058734	1474592058814	o	79
202890	2199435	Sorry it took so long.	Sorry it took so long.	104478858	1474592058878	1474592058975	k	75
202890	2199435	Sorry it took so long.	Sorry it took so long.	104478859	1474592058976	1474592059103	 	32
202890	2199435	Sorry it took so long.	Sorry it took so long.	104478861	1474592059104	1474592059214	s	83
202890	2199435	Sorry it took so long.	Sorry it took so long.	104478870	1474592059220	1474592059326	o	79
202890	2199435	Sorry it took so long.	Sorry it took so long.	104478871	1474592059328	1474592059406	 	32
202890	2199435	Sorry it took so long.	Sorry it took so long.	104478872	1474592059470	1474592059566	l	76
202890	2199435	Sorry it took so long.	Sorry it took so long.	104478873	1474592059598	1474592059742	o	79
202890	2199435	Sorry it took so long.	Sorry it took so long.	104478874	1474592059758	1474592059839	n	78
202890	2199435	Sorry it took so long.	Sorry it took so long.	104478880	1474592059807	1474592059902	g	71
202890	2199435	Sorry it took so long.	Sorry it took so long.	104478882	1474592059966	1474592060127	.	190
202890	2199441	I have the option of starting Jim Miller or picking up Chris Weinke.	I have the option of starting Jim Miller or picking up Chris Weinke	104479023	1474592063118	1474592063280	CAPS_LOCK	20
202890	2199441	I have the option of starting Jim Miller or picking up Chris Weinke.	I have the option of starting Jim Miller or picking up Chris Weinke	104479029	1474592063282	1474592063390	I	73
202890	2199441	I have the option of starting Jim Miller or picking up Chris Weinke.	I have the option of starting Jim Miller or picking up Chris Weinke	104479034	1474592063391	1474592063486	CAPS_LOCK	20
202890	2199441	I have the option of starting Jim Miller or picking up Chris Weinke.	I have the option of starting Jim Miller or picking up Chris Weinke	104479040	1474592063502	1474592063598	 	32
202890	2199441	I have the option of starting Jim Miller or picking up Chris Weinke.	I have the option of starting Jim Miller or picking up Chris Weinke	104479048	1474592063758	1474592063902	h	72
202890	2199441	I have the option of starting Jim Miller or picking up Chris Weinke.	I have the option of starting Jim Miller or picking up Chris Weinke	104479054	1474592063838	1474592063950	a	65
202890	2199441	I have the option of starting Jim Miller or picking up Chris Weinke.	I have the option of starting Jim Miller or picking up Chris Weinke	104479059	1474592064046	1474592064078	v	86
202890	2199441	I have the option of starting Jim Miller or picking up Chris Weinke.	I have the option of starting Jim Miller or picking up Chris Weinke	104479071	1474592064083	1474592064174	e	69
202890	2199441	I have the option of starting Jim Miller or picking up Chris Weinke.	I have the option of starting Jim Miller or picking up Chris Weinke	104479074	1474592064238	1474592064350	 	32
202890	2199441	I have the option of starting Jim Miller or picking up Chris Weinke.	I have the option of starting Jim Miller or picking up Chris Weinke	104479078	1474592064382	1474592064446	t	84
202890	2199441	I have the option of starting Jim Miller or picking up Chris Weinke.	I have the option of starting Jim Miller or picking up Chris Weinke	104479080	1474592064494	1474592064606	h	72
202890	2199441	I have the option of starting Jim Miller or picking up Chris Weinke.	I have the option of starting Jim Miller or picking up Chris Weinke	104479103	1474592064574	1474592064654	e	69
202890	2199441	I have the option of starting Jim Miller or picking up Chris Weinke.	I have the option of starting Jim Miller or picking up Chris Weinke	104479105	1474592064686	1474592064782	 	32
202890	2199441	I have the option of starting Jim Miller or picking up Chris Weinke.	I have the option of starting Jim Miller or picking up Chris Weinke	104479106	1474592064878	1474592065023	o	79
202890	2199441	I have the option of starting Jim Miller or picking up Chris Weinke.	I have the option of starting Jim Miller or picking up Chris Weinke	104479108	1474592065024	1474592065134	p	80
202890	2199441	I have the option of starting Jim Miller or picking up Chris Weinke.	I have the option of starting Jim Miller or picking up Chris Weinke	104479111	1474592065166	1474592065278	t	84
202890	2199441	I have the option of starting Jim Miller or picking up Chris Weinke.	I have the option of starting Jim Miller or picking up Chris Weinke	104479113	1474592065454	1474592065582	i	73
202890	2199441	I have the option of starting Jim Miller or picking up Chris Weinke.	I have the option of starting Jim Miller or picking up Chris Weinke	104479122	1474592065587	1474592065711	o	79
202890	2199441	I have the option of starting Jim Miller or picking up Chris Weinke.	I have the option of starting Jim Miller or picking up Chris Weinke	104479126	1474592065712	1474592065823	n	78
202890	2199441	I have the option of starting Jim Miller or picking up Chris Weinke.	I have the option of starting Jim Miller or picking up Chris Weinke	104479129	1474592065824	1474592065918	 	32
202890	2199441	I have the option of starting Jim Miller or picking up Chris Weinke.	I have the option of starting Jim Miller or picking up Chris Weinke	104479131	1474592065966	1474592066094	o	79
202890	2199441	I have the option of starting Jim Miller or picking up Chris Weinke.	I have the option of starting Jim Miller or picking up Chris Weinke	104479136	1474592066062	1474592066158	f	70
202890	2199441	I have the option of starting Jim Miller or picking up Chris Weinke.	I have the option of starting Jim Miller or picking up Chris Weinke	104479138	1474592066174	1474592066270	 	32
202890	2199441	I have the option of starting Jim Miller or picking up Chris Weinke.	I have the option of starting Jim Miller or picking up Chris Weinke	104479140	1474592066254	1474592066350	s	83
202890	2199441	I have the option of starting Jim Miller or picking up Chris Weinke.	I have the option of starting Jim Miller or picking up Chris Weinke	104479141	1474592066446	1474592066542	t	84
202890	2199441	I have the option of starting Jim Miller or picking up Chris Weinke.	I have the option of starting Jim Miller or picking up Chris Weinke	104479143	1474592066574	1474592066686	a	65
202890	2199441	I have the option of starting Jim Miller or picking up Chris Weinke.	I have the option of starting Jim Miller or picking up Chris Weinke	104479157	1474592066654	1474592066766	r	82
202890	2199441	I have the option of starting Jim Miller or picking up Chris Weinke.	I have the option of starting Jim Miller or picking up Chris Weinke	104479158	1474592066862	1474592066926	t	84
202890	2199441	I have the option of starting Jim Miller or picking up Chris Weinke.	I have the option of starting Jim Miller or picking up Chris Weinke	104479159	1474592066974	1474592067102	i	73
202890	2199441	I have the option of starting Jim Miller or picking up Chris Weinke.	I have the option of starting Jim Miller or picking up Chris Weinke	104479160	1474592067070	1474592067182	n	78
202890	2199441	I have the option of starting Jim Miller or picking up Chris Weinke.	I have the option of starting Jim Miller or picking up Chris Weinke	104479161	1474592067150	1474592067246	g	71
202890	2199441	I have the option of starting Jim Miller or picking up Chris Weinke.	I have the option of starting Jim Miller or picking up Chris Weinke	104479163	1474592067280	1474592067374	 	32
202890	2199441	I have the option of starting Jim Miller or picking up Chris Weinke.	I have the option of starting Jim Miller or picking up Chris Weinke	104479208	1474592067358	1474592067486	CAPS_LOCK	20
202890	2199441	I have the option of starting Jim Miller or picking up Chris Weinke.	I have the option of starting Jim Miller or picking up Chris Weinke	104479210	1474592067518	1474592067630	J	74
202890	2199441	I have the option of starting Jim Miller or picking up Chris Weinke.	I have the option of starting Jim Miller or picking up Chris Weinke	104479216	1474592067646	1474592067758	CAPS_LOCK	20
202890	2199441	I have the option of starting Jim Miller or picking up Chris Weinke.	I have the option of starting Jim Miller or picking up Chris Weinke	104479221	1474592067790	1474592067902	i	73
202890	2199441	I have the option of starting Jim Miller or picking up Chris Weinke.	I have the option of starting Jim Miller or picking up Chris Weinke	104479225	1474592068094	1474592068206	 	32
202890	2199441	I have the option of starting Jim Miller or picking up Chris Weinke.	I have the option of starting Jim Miller or picking up Chris Weinke	104479230	1474592068446	1474592068526	BKSP	8
202890	2199441	I have the option of starting Jim Miller or picking up Chris Weinke.	I have the option of starting Jim Miller or picking up Chris Weinke	104479234	1474592068670	1474592068750	m	77
202890	2199441	I have the option of starting Jim Miller or picking up Chris Weinke.	I have the option of starting Jim Miller or picking up Chris Weinke	104479238	1474592068814	1474592068942	 	32
202890	2199441	I have the option of starting Jim Miller or picking up Chris Weinke.	I have the option of starting Jim Miller or picking up Chris Weinke	104479287	1474592068910	1474592069054	CAPS_LOCK	20
202890	2199441	I have the option of starting Jim Miller or picking up Chris Weinke.	I have the option of starting Jim Miller or picking up Chris Weinke	104479289	1474592069070	1474592069198	M	77
202890	2199441	I have the option of starting Jim Miller or picking up Chris Weinke.	I have the option of starting Jim Miller or picking up Chris Weinke	104479291	1474592069246	1474592069342	I	73
202890	2199441	I have the option of starting Jim Miller or picking up Chris Weinke.	I have the option of starting Jim Miller or picking up Chris Weinke	104479293	1474592069294	1474592069422	CAPS_LOCK	20
202890	2199441	I have the option of starting Jim Miller or picking up Chris Weinke.	I have the option of starting Jim Miller or picking up Chris Weinke	104479294	1474592069726	1474592069790	BKSP	8
202890	2199441	I have the option of starting Jim Miller or picking up Chris Weinke.	I have the option of starting Jim Miller or picking up Chris Weinke	104479295	1474592069918	1474592069998	i	73
202890	2199441	I have the option of starting Jim Miller or picking up Chris Weinke.	I have the option of starting Jim Miller or picking up Chris Weinke	104479297	1474592070110	1474592070158	l	76
202890	2199441	I have the option of starting Jim Miller or picking up Chris Weinke.	I have the option of starting Jim Miller or picking up Chris Weinke	104479300	1474592070222	1474592070302	l	76
202890	2199441	I have the option of starting Jim Miller or picking up Chris Weinke.	I have the option of starting Jim Miller or picking up Chris Weinke	104479305	1474592070366	1474592070483	e	69
202890	2199441	I have the option of starting Jim Miller or picking up Chris Weinke.	I have the option of starting Jim Miller or picking up Chris Weinke	104479307	1474592070462	1474592070558	r	82
202890	2199441	I have the option of starting Jim Miller or picking up Chris Weinke.	I have the option of starting Jim Miller or picking up Chris Weinke	104479311	1474592070590	1474592070670	 	32
202890	2199441	I have the option of starting Jim Miller or picking up Chris Weinke.	I have the option of starting Jim Miller or picking up Chris Weinke	104479314	1474592070766	1474592070865	o	79
202890	2199441	I have the option of starting Jim Miller or picking up Chris Weinke.	I have the option of starting Jim Miller or picking up Chris Weinke	104479348	1474592070846	1474592070910	f	70
202890	2199441	I have the option of starting Jim Miller or picking up Chris Weinke.	I have the option of starting Jim Miller or picking up Chris Weinke	104479351	1474592071102	1474592071182	BKSP	8
202890	2199441	I have the option of starting Jim Miller or picking up Chris Weinke.	I have the option of starting Jim Miller or picking up Chris Weinke	104479354	1474592071198	1474592071310	r	82
202890	2199441	I have the option of starting Jim Miller or picking up Chris Weinke.	I have the option of starting Jim Miller or picking up Chris Weinke	104479361	1474592071358	1474592071422	 	32
202890	2199441	I have the option of starting Jim Miller or picking up Chris Weinke.	I have the option of starting Jim Miller or picking up Chris Weinke	104479365	1474592071550	1474592071646	p	80
202890	2199441	I have the option of starting Jim Miller or picking up Chris Weinke.	I have the option of starting Jim Miller or picking up Chris Weinke	104479370	1474592071758	1474592071888	i	73
202890	2199441	I have the option of starting Jim Miller or picking up Chris Weinke.	I have the option of starting Jim Miller or picking up Chris Weinke	104479375	1474592071889	1474592072005	c	67
202890	2199441	I have the option of starting Jim Miller or picking up Chris Weinke.	I have the option of starting Jim Miller or picking up Chris Weinke	104479385	1474592072011	1474592072094	k	75
202890	2199441	I have the option of starting Jim Miller or picking up Chris Weinke.	I have the option of starting Jim Miller or picking up Chris Weinke	104479387	1474592072142	1474592072286	i	73
202890	2199441	I have the option of starting Jim Miller or picking up Chris Weinke.	I have the option of starting Jim Miller or picking up Chris Weinke	104479389	1474592072254	1474592072350	n	78
202890	2199441	I have the option of starting Jim Miller or picking up Chris Weinke.	I have the option of starting Jim Miller or picking up Chris Weinke	104479392	1474592072318	1474592072414	g	71
202890	2199441	I have the option of starting Jim Miller or picking up Chris Weinke.	I have the option of starting Jim Miller or picking up Chris Weinke	104479396	1474592072430	1474592072526	 	32
202890	2199441	I have the option of starting Jim Miller or picking up Chris Weinke.	I have the option of starting Jim Miller or picking up Chris Weinke	104479420	1474592072638	1474592072734	u	85
202890	2199441	I have the option of starting Jim Miller or picking up Chris Weinke.	I have the option of starting Jim Miller or picking up Chris Weinke	104479421	1474592072814	1474592072974	p	80
202890	2199441	I have the option of starting Jim Miller or picking up Chris Weinke.	I have the option of starting Jim Miller or picking up Chris Weinke	104479422	1474592072975	1474592073054	 	32
202890	2199441	I have the option of starting Jim Miller or picking up Chris Weinke.	I have the option of starting Jim Miller or picking up Chris Weinke	104479423	1474592073214	1474592073374	CAPS_LOCK	20
202890	2199441	I have the option of starting Jim Miller or picking up Chris Weinke.	I have the option of starting Jim Miller or picking up Chris Weinke	104479424	1474592073375	1474592073486	C	67
202890	2199441	I have the option of starting Jim Miller or picking up Chris Weinke.	I have the option of starting Jim Miller or picking up Chris Weinke	104479426	1474592073487	1474592073599	CAPS_LOCK	20
202890	2199441	I have the option of starting Jim Miller or picking up Chris Weinke.	I have the option of starting Jim Miller or picking up Chris Weinke	104479431	1474592073600	1474592073710	h	72
202890	2199441	I have the option of starting Jim Miller or picking up Chris Weinke.	I have the option of starting Jim Miller or picking up Chris Weinke	104479471	1474592073678	1474592073774	i	73
202890	2199441	I have the option of starting Jim Miller or picking up Chris Weinke.	I have the option of starting Jim Miller or picking up Chris Weinke	104479472	1474592073758	1474592073838	r	82
202890	2199441	I have the option of starting Jim Miller or picking up Chris Weinke.	I have the option of starting Jim Miller or picking up Chris Weinke	104479473	1474592073950	1474592073998	BKSP	8
202890	2199441	I have the option of starting Jim Miller or picking up Chris Weinke.	I have the option of starting Jim Miller or picking up Chris Weinke	104479476	1474592074062	1474592074142	BKSP	8
202890	2199441	I have the option of starting Jim Miller or picking up Chris Weinke.	I have the option of starting Jim Miller or picking up Chris Weinke	104479481	1474592074143	1474592074238	r	82
202890	2199441	I have the option of starting Jim Miller or picking up Chris Weinke.	I have the option of starting Jim Miller or picking up Chris Weinke	104479485	1474592074286	1474592074414	i	73
202890	2199441	I have the option of starting Jim Miller or picking up Chris Weinke.	I have the option of starting Jim Miller or picking up Chris Weinke	104479490	1474592074382	1474592074494	s	83
202890	2199441	I have the option of starting Jim Miller or picking up Chris Weinke.	I have the option of starting Jim Miller or picking up Chris Weinke	104479495	1474592074574	1474592074670	 	32
202890	2199441	I have the option of starting Jim Miller or picking up Chris Weinke.	I have the option of starting Jim Miller or picking up Chris Weinke	104479523	1474592074702	1474592074862	CAPS_LOCK	20
202890	2199441	I have the option of starting Jim Miller or picking up Chris Weinke.	I have the option of starting Jim Miller or picking up Chris Weinke	104479524	1474592074878	1474592074974	W	87
202890	2199441	I have the option of starting Jim Miller or picking up Chris Weinke.	I have the option of starting Jim Miller or picking up Chris Weinke	104479525	1474592075006	1474592075118	CAPS_LOCK	20
202890	2199441	I have the option of starting Jim Miller or picking up Chris Weinke.	I have the option of starting Jim Miller or picking up Chris Weinke	104479526	1474592075119	1474592075214	e	69
202890	2199441	I have the option of starting Jim Miller or picking up Chris Weinke.	I have the option of starting Jim Miller or picking up Chris Weinke	104479528	1474592075230	1474592075374	i	73
202890	2199441	I have the option of starting Jim Miller or picking up Chris Weinke.	I have the option of starting Jim Miller or picking up Chris Weinke	104479531	1474592075422	1474592075534	n	78
202890	2199441	I have the option of starting Jim Miller or picking up Chris Weinke.	I have the option of starting Jim Miller or picking up Chris Weinke	104479535	1474592075598	1474592075726	k	75
202890	2199441	I have the option of starting Jim Miller or picking up Chris Weinke.	I have the option of starting Jim Miller or picking up Chris Weinke	104479549	1474592076062	1474592076158	e	69
202890	2199453	I have a touch of food poisoning this morning but I may be in later.	I have a touch of food poisoning this morning but I may be in later	104479662	1474592077246	1474592077278	x	88
202890	2199453	I have a touch of food poisoning this morning but I may be in later.	I have a touch of food poisoning this morning but I may be in later	104479667	1474592078510	1474592078589	BKSP	8
202890	2199453	I have a touch of food poisoning this morning but I may be in later.	I have a touch of food poisoning this morning but I may be in later	104479672	1474592078734	1474592078910	CAPS_LOCK	20
202890	2199453	I have a touch of food poisoning this morning but I may be in later.	I have a touch of food poisoning this morning but I may be in later	104479676	1474592078912	1474592079038	I	73
202890	2199453	I have a touch of food poisoning this morning but I may be in later.	I have a touch of food poisoning this morning but I may be in later	104479679	1474592079039	1474592079166	CAPS_LOCK	20
202890	2199453	I have a touch of food poisoning this morning but I may be in later.	I have a touch of food poisoning this morning but I may be in later	104479682	1474592079198	1474592079326	 	32
202890	2199453	I have a touch of food poisoning this morning but I may be in later.	I have a touch of food poisoning this morning but I may be in later	104479686	1474592079358	1474592079486	h	72
202890	2199453	I have a touch of food poisoning this morning but I may be in later.	I have a touch of food poisoning this morning but I may be in later	104479694	1474592079438	1474592079533	a	65
202890	2199453	I have a touch of food poisoning this morning but I may be in later.	I have a touch of food poisoning this morning but I may be in later	104479696	1474592079598	1474592079694	v	86
202890	2199453	I have a touch of food poisoning this morning but I may be in later.	I have a touch of food poisoning this morning but I may be in later	104479700	1474592079662	1474592079774	e	69
202890	2199453	I have a touch of food poisoning this morning but I may be in later.	I have a touch of food poisoning this morning but I may be in later	104479704	1474592079822	1474592079918	 	32
202890	2199453	I have a touch of food poisoning this morning but I may be in later.	I have a touch of food poisoning this morning but I may be in later	104479707	1474592079919	1474592079982	a	65
202890	2199453	I have a touch of food poisoning this morning but I may be in later.	I have a touch of food poisoning this morning but I may be in later	104479710	1474592080030	1474592080125	 	32
202890	2199453	I have a touch of food poisoning this morning but I may be in later.	I have a touch of food poisoning this morning but I may be in later	104479738	1474592080350	1474592080462	t	84
202890	2199453	I have a touch of food poisoning this morning but I may be in later.	I have a touch of food poisoning this morning but I may be in later	104479740	1474592080463	1474592080526	o	79
202890	2199453	I have a touch of food poisoning this morning but I may be in later.	I have a touch of food poisoning this morning but I may be in later	104479742	1474592080558	1474592080686	u	85
202890	2199453	I have a touch of food poisoning this morning but I may be in later.	I have a touch of food poisoning this morning but I may be in later	104479745	1474592080814	1474592080894	c	67
202890	2199453	I have a touch of food poisoning this morning but I may be in later.	I have a touch of food poisoning this morning but I may be in later	104479751	1474592080926	1474592081054	h	72
202890	2199453	I have a touch of food poisoning this morning but I may be in later.	I have a touch of food poisoning this morning but I may be in later	104479770	1474592081059	1474592081166	 	32
202890	2199453	I have a touch of food poisoning this morning but I may be in later.	I have a touch of food poisoning this morning but I may be in later	104479772	1474592081214	1474592081325	o	79
202890	2199453	I have a touch of food poisoning this morning but I may be in later.	I have a touch of food poisoning this morning but I may be in later	104479774	1474592081294	1474592081389	f	70
202890	2199453	I have a touch of food poisoning this morning but I may be in later.	I have a touch of food poisoning this morning but I may be in later	104479775	1474592081438	1474592081502	 	32
202890	2199453	I have a touch of food poisoning this morning but I may be in later.	I have a touch of food poisoning this morning but I may be in later	104479777	1474592081518	1474592081597	f	70
202890	2199453	I have a touch of food poisoning this morning but I may be in later.	I have a touch of food poisoning this morning but I may be in later	104479804	1474592081646	1474592081725	o	79
202890	2199453	I have a touch of food poisoning this morning but I may be in later.	I have a touch of food poisoning this morning but I may be in later	104479805	1474592081822	1474592081918	o	79
202890	2199453	I have a touch of food poisoning this morning but I may be in later.	I have a touch of food poisoning this morning but I may be in later	104479806	1474592081934	1474592082029	d	68
202890	2199453	I have a touch of food poisoning this morning but I may be in later.	I have a touch of food poisoning this morning but I may be in later	104479807	1474592082094	1474592082173	 	32
202890	2199453	I have a touch of food poisoning this morning but I may be in later.	I have a touch of food poisoning this morning but I may be in later	104479809	1474592082302	1474592082398	CAPS_LOCK	20
202890	2199453	I have a touch of food poisoning this morning but I may be in later.	I have a touch of food poisoning this morning but I may be in later	104479811	1474592082542	1474592082653	CAPS_LOCK	20
202890	2199453	I have a touch of food poisoning this morning but I may be in later.	I have a touch of food poisoning this morning but I may be in later	104479816	1474592082702	1474592082797	p	80
202890	2199453	I have a touch of food poisoning this morning but I may be in later.	I have a touch of food poisoning this morning but I may be in later	104479858	1474592082894	1474592082973	o	79
202890	2199453	I have a touch of food poisoning this morning but I may be in later.	I have a touch of food poisoning this morning but I may be in later	104479860	1474592083102	1474592083214	i	73
202890	2199453	I have a touch of food poisoning this morning but I may be in later.	I have a touch of food poisoning this morning but I may be in later	104479862	1474592083390	1474592083453	o	79
202890	2199453	I have a touch of food poisoning this morning but I may be in later.	I have a touch of food poisoning this morning but I may be in later	104479864	1474592083662	1474592083741	BKSP	8
202890	2199453	I have a touch of food poisoning this morning but I may be in later.	I have a touch of food poisoning this morning but I may be in later	104479867	1474592083789	1474592083869	s	83
202890	2199453	I have a touch of food poisoning this morning but I may be in later.	I have a touch of food poisoning this morning but I may be in later	104479869	1474592084094	1474592084189	o	79
202890	2199453	I have a touch of food poisoning this morning but I may be in later.	I have a touch of food poisoning this morning but I may be in later	104479891	1474592084302	1474592084429	n	78
202890	2199453	I have a touch of food poisoning this morning but I may be in later.	I have a touch of food poisoning this morning but I may be in later	104479896	1474592084702	1474592084766	n	78
202890	2199453	I have a touch of food poisoning this morning but I may be in later.	I have a touch of food poisoning this morning but I may be in later	104479899	1474592085022	1474592085101	BKSP	8
202890	2199453	I have a touch of food poisoning this morning but I may be in later.	I have a touch of food poisoning this morning but I may be in later	104479905	1474592085230	1474592085341	i	73
202890	2199453	I have a touch of food poisoning this morning but I may be in later.	I have a touch of food poisoning this morning but I may be in later	104479911	1474592085309	1474592085421	n	78
202890	2199453	I have a touch of food poisoning this morning but I may be in later.	I have a touch of food poisoning this morning but I may be in later	104479925	1474592085389	1474592085517	g	71
202890	2199453	I have a touch of food poisoning this morning but I may be in later.	I have a touch of food poisoning this morning but I may be in later	104479926	1474592085549	1474592085629	 	32
202890	2199453	I have a touch of food poisoning this morning but I may be in later.	I have a touch of food poisoning this morning but I may be in later	104479929	1474592085710	1474592085806	t	84
202890	2199453	I have a touch of food poisoning this morning but I may be in later.	I have a touch of food poisoning this morning but I may be in later	104479933	1474592085807	1474592085902	h	72
202890	2199453	I have a touch of food poisoning this morning but I may be in later.	I have a touch of food poisoning this morning but I may be in later	104479937	1474592085903	1474592086014	i	73
202890	2199453	I have a touch of food poisoning this morning but I may be in later.	I have a touch of food poisoning this morning but I may be in later	104479951	1474592085966	1474592086061	s	83
202890	2199453	I have a touch of food poisoning this morning but I may be in later.	I have a touch of food poisoning this morning but I may be in later	104479954	1474592086078	1474592086157	 	32
202890	2199453	I have a touch of food poisoning this morning but I may be in later.	I have a touch of food poisoning this morning but I may be in later	104479958	1474592086254	1474592086365	m	77
202890	2199453	I have a touch of food poisoning this morning but I may be in later.	I have a touch of food poisoning this morning but I may be in later	104479961	1474592086382	1474592086509	o	79
202890	2199453	I have a touch of food poisoning this morning but I may be in later.	I have a touch of food poisoning this morning but I may be in later	104479964	1474592086462	1474592086573	r	82
202890	2199453	I have a touch of food poisoning this morning but I may be in later.	I have a touch of food poisoning this morning but I may be in later	104479967	1474592086670	1474592086814	n	78
202890	2199453	I have a touch of food poisoning this morning but I may be in later.	I have a touch of food poisoning this morning but I may be in later	104479986	1474592086846	1474592086989	i	73
202890	2199453	I have a touch of food poisoning this morning but I may be in later.	I have a touch of food poisoning this morning but I may be in later	104479987	1474592086958	1474592087053	n	78
202890	2199453	I have a touch of food poisoning this morning but I may be in later.	I have a touch of food poisoning this morning but I may be in later	104479988	1474592087021	1474592087117	g	71
202890	2199453	I have a touch of food poisoning this morning but I may be in later.	I have a touch of food poisoning this morning but I may be in later	104479989	1474592087502	1474592087581	 	32
202890	2199453	I have a touch of food poisoning this morning but I may be in later.	I have a touch of food poisoning this morning but I may be in later	104479990	1474592087758	1474592087853	b	66
202890	2199453	I have a touch of food poisoning this morning but I may be in later.	I have a touch of food poisoning this morning but I may be in later	104480007	1474592087869	1474592087997	u	85
202890	2199453	I have a touch of food poisoning this morning but I may be in later.	I have a touch of food poisoning this morning but I may be in later	104480009	1474592087981	1474592088061	t	84
202890	2199453	I have a touch of food poisoning this morning but I may be in later.	I have a touch of food poisoning this morning but I may be in later	104480011	1474592088077	1474592088157	 	32
202890	2199453	I have a touch of food poisoning this morning but I may be in later.	I have a touch of food poisoning this morning but I may be in later	104480013	1474592088253	1474592088350	i	73
202890	2199453	I have a touch of food poisoning this morning but I may be in later.	I have a touch of food poisoning this morning but I may be in later	104480014	1474592088351	1474592088477	 	32
202890	2199453	I have a touch of food poisoning this morning but I may be in later.	I have a touch of food poisoning this morning but I may be in later	104480044	1474592088509	1474592088557	CAPS_LOCK	20
202890	2199453	I have a touch of food poisoning this morning but I may be in later.	I have a touch of food poisoning this morning but I may be in later	104480045	1474592088638	1474592088685	BKSP	8
202890	2199453	I have a touch of food poisoning this morning but I may be in later.	I have a touch of food poisoning this morning but I may be in later	104480046	1474592088766	1474592088829	BKSP	8
202890	2199453	I have a touch of food poisoning this morning but I may be in later.	I have a touch of food poisoning this morning but I may be in later	104480047	1474592089102	1474592089197	I	73
202890	2199453	I have a touch of food poisoning this morning but I may be in later.	I have a touch of food poisoning this morning but I may be in later	104480049	1474592089213	1474592089357	 	32
202890	2199453	I have a touch of food poisoning this morning but I may be in later.	I have a touch of food poisoning this morning but I may be in later	104480054	1474592089341	1474592089485	CAPS_LOCK	20
202890	2199453	I have a touch of food poisoning this morning but I may be in later.	I have a touch of food poisoning this morning but I may be in later	104480057	1474592089582	1474592089678	m	77
202890	2199453	I have a touch of food poisoning this morning but I may be in later.	I have a touch of food poisoning this morning but I may be in later	104480063	1474592089679	1474592089789	a	65
202890	2199453	I have a touch of food poisoning this morning but I may be in later.	I have a touch of food poisoning this morning but I may be in later	104480067	1474592089869	1474592089981	y	89
202890	2199453	I have a touch of food poisoning this morning but I may be in later.	I have a touch of food poisoning this morning but I may be in later	104480072	1474592090020	1474592090125	 	32
202890	2199453	I have a touch of food poisoning this morning but I may be in later.	I have a touch of food poisoning this morning but I may be in later	104480073	1474592090093	1474592090157	b	66
202890	2199453	I have a touch of food poisoning this morning but I may be in later.	I have a touch of food poisoning this morning but I may be in later	104480074	1474592090205	1474592090269	e	69
202890	2199453	I have a touch of food poisoning this morning but I may be in later.	I have a touch of food poisoning this morning but I may be in later	104480075	1474592090317	1474592090397	 	32
202890	2199453	I have a touch of food poisoning this morning but I may be in later.	I have a touch of food poisoning this morning but I may be in later	104480077	1474592090557	1474592090685	i	73
202890	2199453	I have a touch of food poisoning this morning but I may be in later.	I have a touch of food poisoning this morning but I may be in later	104480101	1474592090637	1474592090766	n	78
202890	2199453	I have a touch of food poisoning this morning but I may be in later.	I have a touch of food poisoning this morning but I may be in later	104480104	1474592090767	1474592090877	 	32
202890	2199453	I have a touch of food poisoning this morning but I may be in later.	I have a touch of food poisoning this morning but I may be in later	104480107	1474592090957	1474592091085	l	76
202890	2199453	I have a touch of food poisoning this morning but I may be in later.	I have a touch of food poisoning this morning but I may be in later	104480109	1474592091021	1474592091117	a	65
202890	2199453	I have a touch of food poisoning this morning but I may be in later.	I have a touch of food poisoning this morning but I may be in later	104480111	1474592091213	1474592091261	t	84
202890	2199453	I have a touch of food poisoning this morning but I may be in later.	I have a touch of food poisoning this morning but I may be in later	104480114	1474592091277	1474592091405	e	69
202890	2199453	I have a touch of food poisoning this morning but I may be in later.	I have a touch of food poisoning this morning but I may be in later	104480113	1474592091373	1474592091485	r	82
202890	2199467	What will happen to this project?	What will happen to this [project?	104480219	1474592094014	1474592094158	CAPS_LOCK	20
202890	2199467	What will happen to this project?	What will happen to this [project?	104480222	1474592094159	1474592094269	W	87
202890	2199467	What will happen to this project?	What will happen to this [project?	104480225	1474592094270	1474592094413	CAPS_LOCK	20
202890	2199467	What will happen to this project?	What will happen to this [project?	104480227	1474592094415	1474592094525	h	72
202890	2199467	What will happen to this project?	What will happen to this [project?	104480229	1474592094493	1474592094557	a	65
202890	2199467	What will happen to this project?	What will happen to this [project?	104480230	1474592094669	1474592094749	t	84
202890	2199467	What will happen to this project?	What will happen to this [project?	104480248	1474592094733	1474592094845	 	32
202890	2199467	What will happen to this project?	What will happen to this [project?	104480250	1474592094893	1474592094974	w	87
202890	2199467	What will happen to this project?	What will happen to this [project?	104480252	1474592094975	1474592095085	i	73
202890	2199467	What will happen to this project?	What will happen to this [project?	104480254	1474592095181	1474592095245	l	76
202890	2199467	What will happen to this project?	What will happen to this [project?	104480256	1474592095309	1474592095389	l	76
202890	2199467	What will happen to this project?	What will happen to this [project?	104480259	1474592095421	1474592095517	 	32
202890	2199467	What will happen to this project?	What will happen to this [project?	104480277	1474592095629	1474592095725	h	72
202890	2199467	What will happen to this project?	What will happen to this [project?	104480279	1474592095741	1474592095837	a	65
202890	2199467	What will happen to this project?	What will happen to this [project?	104480283	1474592095869	1474592095933	p	80
202890	2199467	What will happen to this project?	What will happen to this [project?	104480285	1474592095997	1474592096077	p	80
202890	2199467	What will happen to this project?	What will happen to this [project?	104480288	1474592096093	1474592096205	e	69
202890	2199467	What will happen to this project?	What will happen to this [project?	104480302	1474592096221	1474592096333	n	78
202890	2199467	What will happen to this project?	What will happen to this [project?	104480305	1474592096397	1474592096542	 	32
202890	2199467	What will happen to this project?	What will happen to this [project?	104480307	1474592096543	1474592096653	t	84
202890	2199467	What will happen to this project?	What will happen to this [project?	104480311	1474592096621	1474592096733	o	79
202890	2199467	What will happen to this project?	What will happen to this [project?	104480315	1474592096749	1474592096909	 	32
202890	2199467	What will happen to this project?	What will happen to this [project?	104480330	1474592096877	1474592097007	t	84
202890	2199467	What will happen to this project?	What will happen to this [project?	104480332	1474592096989	1474592097101	h	72
202890	2199467	What will happen to this project?	What will happen to this [project?	104480334	1474592097085	1474592097213	i	73
202890	2199467	What will happen to this project?	What will happen to this [project?	104480337	1474592097181	1474592097293	s	83
202890	2199467	What will happen to this project?	What will happen to this [project?	104480340	1474592097309	1474592097405	 	32
202890	2199467	What will happen to this project?	What will happen to this [project?	104480345	1474592097534	1474592097549	p	219
202890	2199467	What will happen to this project?	What will happen to this [project?	104480365	1474592097613	1474592097709	r	82
202890	2199467	What will happen to this project?	What will happen to this [project?	104480367	1474592097789	1474592097901	o	79
202890	2199467	What will happen to this project?	What will happen to this [project?	104480369	1474592097997	1474592098109	j	74
202890	2199467	What will happen to this project?	What will happen to this [project?	104480372	1474592098077	1474592098157	e	69
202890	2199467	What will happen to this project?	What will happen to this [project?	104480375	1474592098237	1474592098317	c	67
202890	2199467	What will happen to this project?	What will happen to this [project?	104480414	1474592098429	1474592098509	t	84
202890	2199467	What will happen to this project?	What will happen to this [project?	104480416	1474592099069	1474592099309	SHIFT	16
202890	2199467	What will happen to this project?	What will happen to this [project?	104480420	1474592099213	1474592099325	?	191
202890	2199471	Would you mind taking the lead on this?	Would you mind taking the lead on this?	104480548	1474592102317	1474592102493	CAPS_LOCK	20
202890	2199471	Would you mind taking the lead on this?	Would you mind taking the lead on this?	104480553	1474592102541	1474592102669	W	87
202890	2199471	Would you mind taking the lead on this?	Would you mind taking the lead on this?	104480556	1474592102653	1474592102813	CAPS_LOCK	20
202890	2199471	Would you mind taking the lead on this?	Would you mind taking the lead on this?	104480558	1474592102733	1474592102862	o	79
202890	2199471	Would you mind taking the lead on this?	Would you mind taking the lead on this?	104480561	1474592102863	1474592102989	u	85
202890	2199471	Would you mind taking the lead on this?	Would you mind taking the lead on this?	104480564	1474592103101	1474592103213	l	76
202890	2199471	Would you mind taking the lead on this?	Would you mind taking the lead on this?	104480573	1474592103181	1474592103277	d	68
202890	2199471	Would you mind taking the lead on this?	Would you mind taking the lead on this?	104480574	1474592103325	1474592103437	 	32
202890	2199471	Would you mind taking the lead on this?	Would you mind taking the lead on this?	104480575	1474592103501	1474592103597	y	89
202890	2199471	Would you mind taking the lead on this?	Would you mind taking the lead on this?	104480576	1474592103565	1474592103693	o	79
202890	2199471	Would you mind taking the lead on this?	Would you mind taking the lead on this?	104480577	1474592103709	1474592103805	u	85
202890	2199471	Would you mind taking the lead on this?	Would you mind taking the lead on this?	104480579	1474592103837	1474592103949	 	32
202890	2199471	Would you mind taking the lead on this?	Would you mind taking the lead on this?	104480603	1474592104157	1474592104269	m	77
202890	2199471	Would you mind taking the lead on this?	Would you mind taking the lead on this?	104480605	1474592104285	1474592104413	i	73
202890	2199471	Would you mind taking the lead on this?	Would you mind taking the lead on this?	104480608	1474592104365	1474592104493	n	78
202890	2199471	Would you mind taking the lead on this?	Would you mind taking the lead on this?	104480611	1474592104653	1474592104797	d	68
202890	2199471	Would you mind taking the lead on this?	Would you mind taking the lead on this?	104480615	1474592104798	1474592104893	 	32
202890	2199471	Would you mind taking the lead on this?	Would you mind taking the lead on this?	104480640	1474592104941	1474592105005	t	84
202890	2199471	Would you mind taking the lead on this?	Would you mind taking the lead on this?	104480645	1474592105086	1474592105197	a	65
202890	2199471	Would you mind taking the lead on this?	Would you mind taking the lead on this?	104480649	1474592105198	1474592105293	k	75
202890	2199471	Would you mind taking the lead on this?	Would you mind taking the lead on this?	104480655	1474592105405	1474592105517	i	73
202890	2199471	Would you mind taking the lead on this?	Would you mind taking the lead on this?	104480670	1474592105485	1474592105597	n	78
202890	2199471	Would you mind taking the lead on this?	Would you mind taking the lead on this?	104480671	1474592105565	1474592105645	g	71
202890	2199471	Would you mind taking the lead on this?	Would you mind taking the lead on this?	104480672	1474592105693	1474592105773	 	32
202890	2199471	Would you mind taking the lead on this?	Would you mind taking the lead on this?	104480673	1474592105805	1474592105885	t	84
202890	2199471	Would you mind taking the lead on this?	Would you mind taking the lead on this?	104480674	1474592105886	1474592105982	h	72
202890	2199471	Would you mind taking the lead on this?	Would you mind taking the lead on this?	104480675	1474592105983	1474592106093	e	69
202890	2199471	Would you mind taking the lead on this?	Would you mind taking the lead on this?	104480685	1474592106099	1474592106189	 	32
202890	2199471	Would you mind taking the lead on this?	Would you mind taking the lead on this?	104480687	1474592106253	1474592106397	l	76
202890	2199471	Would you mind taking the lead on this?	Would you mind taking the lead on this?	104480691	1474592106333	1474592106477	e	69
202890	2199471	Would you mind taking the lead on this?	Would you mind taking the lead on this?	104480694	1474592106413	1474592106557	a	65
202890	2199471	Would you mind taking the lead on this?	Would you mind taking the lead on this?	104480723	1474592106541	1474592106653	d	68
202890	2199471	Would you mind taking the lead on this?	Would you mind taking the lead on this?	104480726	1474592106685	1474592106797	 	32
202890	2199471	Would you mind taking the lead on this?	Would you mind taking the lead on this?	104480730	1474592106878	1474592107021	o	79
202890	2199471	Would you mind taking the lead on this?	Would you mind taking the lead on this?	104480735	1474592106980	1474592107101	n	78
202890	2199471	Would you mind taking the lead on this?	Would you mind taking the lead on this?	104480741	1474592107102	1474592107229	 	32
202890	2199471	Would you mind taking the lead on this?	Would you mind taking the lead on this?	104480771	1474592107197	1474592107293	t	84
202890	2199471	Would you mind taking the lead on this?	Would you mind taking the lead on this?	104480773	1474592107325	1474592107437	h	72
202890	2199471	Would you mind taking the lead on this?	Would you mind taking the lead on this?	104480776	1474592107405	1474592107517	i	73
202890	2199471	Would you mind taking the lead on this?	Would you mind taking the lead on this?	104480782	1474592107469	1474592107565	s	83
202890	2199481	Referring to his meeting in Washington with US President Bill Clinton.	Referring to his meeting in Washington with US President Bill Clinton.	104481440	1474592107661	1474592123660	SHIFT	16
202890	2199481	Referring to his meeting in Washington with US President Bill Clinton.	Referring to his meeting in Washington with US President Bill Clinton.	104480868	1474592110109	1474592110268	CAPS_LOCK	20
202890	2199481	Referring to his meeting in Washington with US President Bill Clinton.	Referring to his meeting in Washington with US President Bill Clinton.	104480871	1474592110285	1474592110413	R	82
202890	2199481	Referring to his meeting in Washington with US President Bill Clinton.	Referring to his meeting in Washington with US President Bill Clinton.	104480875	1474592110397	1474592110557	CAPS_LOCK	20
202890	2199481	Referring to his meeting in Washington with US President Bill Clinton.	Referring to his meeting in Washington with US President Bill Clinton.	104480877	1474592110558	1474592110685	e	69
202890	2199481	Referring to his meeting in Washington with US President Bill Clinton.	Referring to his meeting in Washington with US President Bill Clinton.	104480879	1474592110797	1474592110893	f	70
202890	2199481	Referring to his meeting in Washington with US President Bill Clinton.	Referring to his meeting in Washington with US President Bill Clinton.	104480882	1474592110941	1474592111021	e	69
202890	2199481	Referring to his meeting in Washington with US President Bill Clinton.	Referring to his meeting in Washington with US President Bill Clinton.	104480885	1474592111117	1474592111181	r	82
202890	2199481	Referring to his meeting in Washington with US President Bill Clinton.	Referring to his meeting in Washington with US President Bill Clinton.	104480905	1474592111261	1474592111309	r	82
202890	2199481	Referring to his meeting in Washington with US President Bill Clinton.	Referring to his meeting in Washington with US President Bill Clinton.	104480907	1474592111437	1474592111565	i	73
202890	2199481	Referring to his meeting in Washington with US President Bill Clinton.	Referring to his meeting in Washington with US President Bill Clinton.	104480911	1474592111501	1474592111645	n	78
202890	2199481	Referring to his meeting in Washington with US President Bill Clinton.	Referring to his meeting in Washington with US President Bill Clinton.	104480912	1474592111597	1474592111693	g	71
202890	2199481	Referring to his meeting in Washington with US President Bill Clinton.	Referring to his meeting in Washington with US President Bill Clinton.	104480914	1474592111741	1474592111837	 	32
202890	2199481	Referring to his meeting in Washington with US President Bill Clinton.	Referring to his meeting in Washington with US President Bill Clinton.	104480960	1474592111885	1474592111965	t	84
202890	2199481	Referring to his meeting in Washington with US President Bill Clinton.	Referring to his meeting in Washington with US President Bill Clinton.	104480962	1474592112126	1474592112189	o	80
202890	2199481	Referring to his meeting in Washington with US President Bill Clinton.	Referring to his meeting in Washington with US President Bill Clinton.	104480963	1474592112237	1474592112301	 	32
202890	2199481	Referring to his meeting in Washington with US President Bill Clinton.	Referring to his meeting in Washington with US President Bill Clinton.	104480964	1474592112573	1474592112621	BKSP	8
202890	2199481	Referring to his meeting in Washington with US President Bill Clinton.	Referring to his meeting in Washington with US President Bill Clinton.	104480965	1474592112701	1474592112749	BKSP	8
202890	2199481	Referring to his meeting in Washington with US President Bill Clinton.	Referring to his meeting in Washington with US President Bill Clinton.	104480966	1474592112813	1474592112893	BKSP	8
202890	2199481	Referring to his meeting in Washington with US President Bill Clinton.	Referring to his meeting in Washington with US President Bill Clinton.	104480967	1474592113021	1474592113133	o	79
202890	2199481	Referring to his meeting in Washington with US President Bill Clinton.	Referring to his meeting in Washington with US President Bill Clinton.	104480977	1474592113149	1474592113245	 	32
202890	2199481	Referring to his meeting in Washington with US President Bill Clinton.	Referring to his meeting in Washington with US President Bill Clinton.	104480981	1474592113277	1474592113389	h	72
202890	2199481	Referring to his meeting in Washington with US President Bill Clinton.	Referring to his meeting in Washington with US President Bill Clinton.	104480984	1474592113390	1474592113500	i	73
202890	2199481	Referring to his meeting in Washington with US President Bill Clinton.	Referring to his meeting in Washington with US President Bill Clinton.	104480986	1474592113469	1474592113581	s	83
202890	2199481	Referring to his meeting in Washington with US President Bill Clinton.	Referring to his meeting in Washington with US President Bill Clinton.	104480989	1474592113583	1474592113660	 	32
202890	2199481	Referring to his meeting in Washington with US President Bill Clinton.	Referring to his meeting in Washington with US President Bill Clinton.	104481013	1474592113773	1474592113869	m	77
202890	2199481	Referring to his meeting in Washington with US President Bill Clinton.	Referring to his meeting in Washington with US President Bill Clinton.	104481015	1474592113870	1474592113917	e	69
202890	2199481	Referring to his meeting in Washington with US President Bill Clinton.	Referring to his meeting in Washington with US President Bill Clinton.	104481017	1474592113997	1474592114060	e	69
202890	2199481	Referring to his meeting in Washington with US President Bill Clinton.	Referring to his meeting in Washington with US President Bill Clinton.	104481019	1474592114141	1474592114253	t	84
202890	2199481	Referring to his meeting in Washington with US President Bill Clinton.	Referring to his meeting in Washington with US President Bill Clinton.	104481021	1474592114254	1474592114364	i	73
202890	2199481	Referring to his meeting in Washington with US President Bill Clinton.	Referring to his meeting in Washington with US President Bill Clinton.	104481042	1474592114317	1474592114429	n	78
202890	2199481	Referring to his meeting in Washington with US President Bill Clinton.	Referring to his meeting in Washington with US President Bill Clinton.	104481046	1474592114430	1474592114508	g	71
202890	2199481	Referring to his meeting in Washington with US President Bill Clinton.	Referring to his meeting in Washington with US President Bill Clinton.	104481050	1474592114541	1474592114621	 	32
202890	2199481	Referring to his meeting in Washington with US President Bill Clinton.	Referring to his meeting in Washington with US President Bill Clinton.	104481054	1474592114717	1474592114829	i	73
202890	2199481	Referring to his meeting in Washington with US President Bill Clinton.	Referring to his meeting in Washington with US President Bill Clinton.	104481058	1474592114781	1474592114909	n	78
202890	2199481	Referring to his meeting in Washington with US President Bill Clinton.	Referring to his meeting in Washington with US President Bill Clinton.	104481061	1474592114925	1474592115021	 	32
202890	2199481	Referring to his meeting in Washington with US President Bill Clinton.	Referring to his meeting in Washington with US President Bill Clinton.	104481094	1474592115085	1474592115229	CAPS_LOCK	20
202890	2199481	Referring to his meeting in Washington with US President Bill Clinton.	Referring to his meeting in Washington with US President Bill Clinton.	104481097	1474592115197	1474592115308	W	87
202890	2199481	Referring to his meeting in Washington with US President Bill Clinton.	Referring to his meeting in Washington with US President Bill Clinton.	104481099	1474592115293	1474592115420	CAPS_LOCK	20
202890	2199481	Referring to his meeting in Washington with US President Bill Clinton.	Referring to his meeting in Washington with US President Bill Clinton.	104481102	1474592115469	1474592115597	a	65
202890	2199481	Referring to his meeting in Washington with US President Bill Clinton.	Referring to his meeting in Washington with US President Bill Clinton.	104481106	1474592115789	1474592115916	s	83
202890	2199481	Referring to his meeting in Washington with US President Bill Clinton.	Referring to his meeting in Washington with US President Bill Clinton.	104481110	1474592115997	1474592116140	h	72
202890	2199481	Referring to his meeting in Washington with US President Bill Clinton.	Referring to his meeting in Washington with US President Bill Clinton.	104481125	1474592116125	1474592116284	i	73
202890	2199481	Referring to his meeting in Washington with US President Bill Clinton.	Referring to his meeting in Washington with US President Bill Clinton.	104481127	1474592116237	1474592116380	n	78
202890	2199481	Referring to his meeting in Washington with US President Bill Clinton.	Referring to his meeting in Washington with US President Bill Clinton.	104481129	1474592116317	1474592116428	g	71
202890	2199481	Referring to his meeting in Washington with US President Bill Clinton.	Referring to his meeting in Washington with US President Bill Clinton.	104481133	1474592116573	1474592116668	t	84
202890	2199481	Referring to his meeting in Washington with US President Bill Clinton.	Referring to his meeting in Washington with US President Bill Clinton.	104481136	1474592116653	1474592116797	o	79
202890	2199481	Referring to his meeting in Washington with US President Bill Clinton.	Referring to his meeting in Washington with US President Bill Clinton.	104481190	1474592116781	1474592116892	p	80
202890	2199481	Referring to his meeting in Washington with US President Bill Clinton.	Referring to his meeting in Washington with US President Bill Clinton.	104481192	1474592117117	1474592117181	BKSP	8
202890	2199481	Referring to his meeting in Washington with US President Bill Clinton.	Referring to his meeting in Washington with US President Bill Clinton.	104481194	1474592117293	1474592117405	n	78
202890	2199481	Referring to his meeting in Washington with US President Bill Clinton.	Referring to his meeting in Washington with US President Bill Clinton.	104481196	1474592117453	1474592117565	 	32
202890	2199481	Referring to his meeting in Washington with US President Bill Clinton.	Referring to his meeting in Washington with US President Bill Clinton.	104481198	1474592117597	1474592117757	w	87
202890	2199481	Referring to his meeting in Washington with US President Bill Clinton.	Referring to his meeting in Washington with US President Bill Clinton.	104481200	1474592117758	1474592117885	i	73
202890	2199481	Referring to his meeting in Washington with US President Bill Clinton.	Referring to his meeting in Washington with US President Bill Clinton.	104481203	1474592117901	1474592117996	t	84
202890	2199481	Referring to his meeting in Washington with US President Bill Clinton.	Referring to his meeting in Washington with US President Bill Clinton.	104481235	1474592117981	1474592118109	h	72
202890	2199481	Referring to his meeting in Washington with US President Bill Clinton.	Referring to his meeting in Washington with US President Bill Clinton.	104481236	1474592118110	1474592118221	 	32
202890	2199481	Referring to his meeting in Washington with US President Bill Clinton.	Referring to his meeting in Washington with US President Bill Clinton.	104481237	1474592118222	1474592118349	CAPS_LOCK	20
202890	2199481	Referring to his meeting in Washington with US President Bill Clinton.	Referring to his meeting in Washington with US President Bill Clinton.	104481238	1474592118350	1474592118463	U	85
202890	2199481	Referring to his meeting in Washington with US President Bill Clinton.	Referring to his meeting in Washington with US President Bill Clinton.	104481240	1474592118429	1474592118508	S	83
202890	2199481	Referring to his meeting in Washington with US President Bill Clinton.	Referring to his meeting in Washington with US President Bill Clinton.	104481242	1474592118653	1474592118748	 	32
202890	2199481	Referring to his meeting in Washington with US President Bill Clinton.	Referring to his meeting in Washington with US President Bill Clinton.	104481244	1474592118893	1474592119020	P	80
202890	2199481	Referring to his meeting in Washington with US President Bill Clinton.	Referring to his meeting in Washington with US President Bill Clinton.	104481270	1474592119085	1474592119196	CAPS_LOCK	20
202890	2199481	Referring to his meeting in Washington with US President Bill Clinton.	Referring to his meeting in Washington with US President Bill Clinton.	104481272	1474592119245	1474592119356	r	82
202890	2199481	Referring to his meeting in Washington with US President Bill Clinton.	Referring to his meeting in Washington with US President Bill Clinton.	104481275	1474592119405	1474592119500	e	69
202890	2199481	Referring to his meeting in Washington with US President Bill Clinton.	Referring to his meeting in Washington with US President Bill Clinton.	104481279	1474592119597	1474592119677	s	83
202890	2199481	Referring to his meeting in Washington with US President Bill Clinton.	Referring to his meeting in Washington with US President Bill Clinton.	104481281	1474592119708	1474592119852	i	73
202890	2199481	Referring to his meeting in Washington with US President Bill Clinton.	Referring to his meeting in Washington with US President Bill Clinton.	104481318	1474592119821	1474592119900	n	78
202890	2199481	Referring to his meeting in Washington with US President Bill Clinton.	Referring to his meeting in Washington with US President Bill Clinton.	104481321	1474592120093	1474592120173	BKSP	8
202890	2199481	Referring to his meeting in Washington with US President Bill Clinton.	Referring to his meeting in Washington with US President Bill Clinton.	104481323	1474592120174	1474592120284	d	68
202890	2199481	Referring to his meeting in Washington with US President Bill Clinton.	Referring to his meeting in Washington with US President Bill Clinton.	104481325	1474592120237	1474592120349	e	69
202890	2199481	Referring to his meeting in Washington with US President Bill Clinton.	Referring to his meeting in Washington with US President Bill Clinton.	104481330	1474592120350	1474592120444	n	78
202890	2199481	Referring to his meeting in Washington with US President Bill Clinton.	Referring to his meeting in Washington with US President Bill Clinton.	104481332	1474592120493	1474592120572	t	84
202890	2199481	Referring to his meeting in Washington with US President Bill Clinton.	Referring to his meeting in Washington with US President Bill Clinton.	104481336	1474592120653	1474592120780	 	32
202890	2199481	Referring to his meeting in Washington with US President Bill Clinton.	Referring to his meeting in Washington with US President Bill Clinton.	104481366	1474592120877	1474592121036	CAPS_LOCK	20
202890	2199481	Referring to his meeting in Washington with US President Bill Clinton.	Referring to his meeting in Washington with US President Bill Clinton.	104481367	1474592121197	1474592121276	B	66
202890	2199481	Referring to his meeting in Washington with US President Bill Clinton.	Referring to his meeting in Washington with US President Bill Clinton.	104481369	1474592121340	1474592121468	CAPS_LOCK	20
202890	2199481	Referring to his meeting in Washington with US President Bill Clinton.	Referring to his meeting in Washington with US President Bill Clinton.	104481371	1474592121421	1474592121500	i	73
202890	2199481	Referring to his meeting in Washington with US President Bill Clinton.	Referring to his meeting in Washington with US President Bill Clinton.	104481375	1474592121597	1474592121660	l	76
202890	2199481	Referring to his meeting in Washington with US President Bill Clinton.	Referring to his meeting in Washington with US President Bill Clinton.	104481379	1474592121724	1474592121790	l	76
202890	2199481	Referring to his meeting in Washington with US President Bill Clinton.	Referring to his meeting in Washington with US President Bill Clinton.	104481408	1474592121773	1474592121916	 	32
202890	2199481	Referring to his meeting in Washington with US President Bill Clinton.	Referring to his meeting in Washington with US President Bill Clinton.	104481412	1474592121900	1474592122076	CAPS_LOCK	20
202890	2199481	Referring to his meeting in Washington with US President Bill Clinton.	Referring to his meeting in Washington with US President Bill Clinton.	104481415	1474592122157	1474592122284	C	67
202890	2199481	Referring to his meeting in Washington with US President Bill Clinton.	Referring to his meeting in Washington with US President Bill Clinton.	104481418	1474592122428	1474592122540	CAPS_LOCK	20
202890	2199481	Referring to his meeting in Washington with US President Bill Clinton.	Referring to his meeting in Washington with US President Bill Clinton.	104481422	1474592122556	1474592122700	l	76
202890	2199481	Referring to his meeting in Washington with US President Bill Clinton.	Referring to his meeting in Washington with US President Bill Clinton.	104481424	1474592122765	1474592122925	i	73
202890	2199481	Referring to his meeting in Washington with US President Bill Clinton.	Referring to his meeting in Washington with US President Bill Clinton.	104481426	1474592122892	1474592123036	n	78
202890	2199481	Referring to his meeting in Washington with US President Bill Clinton.	Referring to his meeting in Washington with US President Bill Clinton.	104481428	1474592123117	1474592123228	t	84
202890	2199481	Referring to his meeting in Washington with US President Bill Clinton.	Referring to his meeting in Washington with US President Bill Clinton.	104481436	1474592123277	1474592123388	o	79
202890	2199481	Referring to his meeting in Washington with US President Bill Clinton.	Referring to his meeting in Washington with US President Bill Clinton.	104481438	1474592123373	1474592123468	n	78
202890	2199481	Referring to his meeting in Washington with US President Bill Clinton.	Referring to his meeting in Washington with US President Bill Clinton.	104481443	1474592123805	1474592123916	.	190
202890	2199495	Thanks for your help in quickly setting this up.	Thanks for your help in quickly setting this up.	104481563	1474592126508	1474592126668	CAPS_LOCK	20
202890	2199495	Thanks for your help in quickly setting this up.	Thanks for your help in quickly setting this up.	104481567	1474592126700	1474592126828	T	84
202890	2199495	Thanks for your help in quickly setting this up.	Thanks for your help in quickly setting this up.	104481569	1474592126812	1474592126925	CAPS_LOCK	20
202890	2199495	Thanks for your help in quickly setting this up.	Thanks for your help in quickly setting this up.	104481572	1474592126926	1474592127021	h	72
202890	2199495	Thanks for your help in quickly setting this up.	Thanks for your help in quickly setting this up.	104481575	1474592127022	1474592127148	a	65
202890	2199495	Thanks for your help in quickly setting this up.	Thanks for your help in quickly setting this up.	104481577	1474592127132	1474592127229	n	78
202890	2199495	Thanks for your help in quickly setting this up.	Thanks for your help in quickly setting this up.	104481579	1474592127230	1474592127372	k	75
202890	2199495	Thanks for your help in quickly setting this up.	Thanks for your help in quickly setting this up.	104481591	1474592127340	1474592127436	s	83
202890	2199495	Thanks for your help in quickly setting this up.	Thanks for your help in quickly setting this up.	104481595	1474592127532	1474592127661	 	32
202890	2199495	Thanks for your help in quickly setting this up.	Thanks for your help in quickly setting this up.	104481599	1474592127662	1474592127756	f	70
202890	2199495	Thanks for your help in quickly setting this up.	Thanks for your help in quickly setting this up.	104481602	1474592127788	1474592127916	o	79
202890	2199495	Thanks for your help in quickly setting this up.	Thanks for your help in quickly setting this up.	104481607	1474592127900	1474592127996	r	82
202890	2199495	Thanks for your help in quickly setting this up.	Thanks for your help in quickly setting this up.	104481611	1474592128012	1474592128108	 	32
202890	2199495	Thanks for your help in quickly setting this up.	Thanks for your help in quickly setting this up.	104481628	1474592128220	1474592128317	y	89
202890	2199495	Thanks for your help in quickly setting this up.	Thanks for your help in quickly setting this up.	104481629	1474592128318	1474592128444	o	79
202890	2199495	Thanks for your help in quickly setting this up.	Thanks for your help in quickly setting this up.	104481631	1474592128445	1474592128508	u	85
202890	2199495	Thanks for your help in quickly setting this up.	Thanks for your help in quickly setting this up.	104481635	1474592128636	1474592128732	r	82
202890	2199495	Thanks for your help in quickly setting this up.	Thanks for your help in quickly setting this up.	104481638	1474592128796	1474592128892	 	32
202890	2199495	Thanks for your help in quickly setting this up.	Thanks for your help in quickly setting this up.	104481663	1474592129020	1474592129132	h	72
202890	2199495	Thanks for your help in quickly setting this up.	Thanks for your help in quickly setting this up.	104481666	1474592129068	1474592129164	e	69
202890	2199495	Thanks for your help in quickly setting this up.	Thanks for your help in quickly setting this up.	104481671	1474592129292	1474592129404	l	76
202890	2199495	Thanks for your help in quickly setting this up.	Thanks for your help in quickly setting this up.	104481674	1474592129420	1474592129548	p	80
202890	2199495	Thanks for your help in quickly setting this up.	Thanks for your help in quickly setting this up.	104481676	1474592129564	1474592129644	 	32
202890	2199495	Thanks for your help in quickly setting this up.	Thanks for your help in quickly setting this up.	104481685	1474592129708	1474592129837	i	73
202890	2199495	Thanks for your help in quickly setting this up.	Thanks for your help in quickly setting this up.	104481687	1474592129820	1474592129933	n	78
202890	2199495	Thanks for your help in quickly setting this up.	Thanks for your help in quickly setting this up.	104481690	1474592129934	1474592130028	 	32
202890	2199495	Thanks for your help in quickly setting this up.	Thanks for your help in quickly setting this up.	104481693	1474592130092	1474592130188	q	81
202890	2199495	Thanks for your help in quickly setting this up.	Thanks for your help in quickly setting this up.	104481731	1474592130156	1474592130306	u	85
202890	2199495	Thanks for your help in quickly setting this up.	Thanks for your help in quickly setting this up.	104481732	1474592130284	1474592130412	i	73
202890	2199495	Thanks for your help in quickly setting this up.	Thanks for your help in quickly setting this up.	104481734	1474592130492	1474592130588	c	67
202890	2199495	Thanks for your help in quickly setting this up.	Thanks for your help in quickly setting this up.	104481735	1474592130556	1474592130700	k	75
202890	2199495	Thanks for your help in quickly setting this up.	Thanks for your help in quickly setting this up.	104481736	1474592131116	1474592131228	l	76
202890	2199495	Thanks for your help in quickly setting this up.	Thanks for your help in quickly setting this up.	104481737	1474592131452	1474592131580	y	89
202890	2199495	Thanks for your help in quickly setting this up.	Thanks for your help in quickly setting this up.	104481752	1474592131644	1474592131760	 	32
202890	2199495	Thanks for your help in quickly setting this up.	Thanks for your help in quickly setting this up.	104481756	1474592131740	1474592131820	s	83
202890	2199495	Thanks for your help in quickly setting this up.	Thanks for your help in quickly setting this up.	104481758	1474592131900	1474592131980	e	69
202890	2199495	Thanks for your help in quickly setting this up.	Thanks for your help in quickly setting this up.	104481761	1474592132060	1474592132124	t	84
202890	2199495	Thanks for your help in quickly setting this up.	Thanks for your help in quickly setting this up.	104481764	1474592132172	1474592132252	t	84
202890	2199495	Thanks for your help in quickly setting this up.	Thanks for your help in quickly setting this up.	104481773	1474592132268	1474592132397	i	73
202890	2199495	Thanks for your help in quickly setting this up.	Thanks for your help in quickly setting this up.	104481774	1474592132348	1474592132460	n	78
202890	2199495	Thanks for your help in quickly setting this up.	Thanks for your help in quickly setting this up.	104481775	1474592132398	1474592132477	g	71
202890	2199495	Thanks for your help in quickly setting this up.	Thanks for your help in quickly setting this up.	104481777	1474592132556	1474592132620	 	32
202890	2199495	Thanks for your help in quickly setting this up.	Thanks for your help in quickly setting this up.	104481779	1474592132622	1474592132716	t	84
202890	2199495	Thanks for your help in quickly setting this up.	Thanks for your help in quickly setting this up.	104481823	1474592132748	1474592132860	h	72
202890	2199495	Thanks for your help in quickly setting this up.	Thanks for your help in quickly setting this up.	104481824	1474592132862	1474592132972	i	73
202890	2199495	Thanks for your help in quickly setting this up.	Thanks for your help in quickly setting this up.	104481825	1474592132924	1474592133036	s	83
202890	2199495	Thanks for your help in quickly setting this up.	Thanks for your help in quickly setting this up.	104481827	1474592133196	1474592133292	 	32
202890	2199495	Thanks for your help in quickly setting this up.	Thanks for your help in quickly setting this up.	104481828	1474592133516	1474592133628	u	85
202890	2199495	Thanks for your help in quickly setting this up.	Thanks for your help in quickly setting this up.	104481830	1474592133692	1474592133804	p	80
202890	2199495	Thanks for your help in quickly setting this up.	Thanks for your help in quickly setting this up.	104481831	1474592133948	1474592134108	.	190
202890	2199501	Weinke could have a big game.	Weinke could have a big game.	104482021	1474592138348	1474592138493	CAPS_LOCK	20
202890	2199501	Weinke could have a big game.	Weinke could have a big game.	104482024	1474592138494	1474592138636	W	87
202890	2199501	Weinke could have a big game.	Weinke could have a big game.	104482028	1474592138637	1474592138751	CAPS_LOCK	20
202890	2199501	Weinke could have a big game.	Weinke could have a big game.	104482032	1474592138732	1474592138845	e	69
202890	2199501	Weinke could have a big game.	Weinke could have a big game.	104482035	1474592138846	1474592138972	i	73
202890	2199501	Weinke could have a big game.	Weinke could have a big game.	104482037	1474592138940	1474592139100	n	78
202890	2199501	Weinke could have a big game.	Weinke could have a big game.	104482039	1474592139116	1474592139244	k	75
202890	2199501	Weinke could have a big game.	Weinke could have a big game.	104482062	1474592139276	1474592139388	e	69
202890	2199501	Weinke could have a big game.	Weinke could have a big game.	104482066	1474592139660	1474592139804	 	32
202890	2199501	Weinke could have a big game.	Weinke could have a big game.	104482070	1474592140012	1474592140092	c	67
202890	2199501	Weinke could have a big game.	Weinke could have a big game.	104482075	1474592140124	1474592140268	o	79
202890	2199501	Weinke could have a big game.	Weinke could have a big game.	104482076	1474592140269	1474592140364	u	85
202890	2199501	Weinke could have a big game.	Weinke could have a big game.	104482086	1474592140444	1474592140588	l	76
202890	2199501	Weinke could have a big game.	Weinke could have a big game.	104482087	1474592140589	1474592140716	d	68
202890	2199501	Weinke could have a big game.	Weinke could have a big game.	104482088	1474592140717	1474592140812	 	32
202890	2199501	Weinke could have a big game.	Weinke could have a big game.	104482090	1474592140892	1474592141004	h	72
202890	2199501	Weinke could have a big game.	Weinke could have a big game.	104482097	1474592140940	1474592141068	a	65
202890	2199501	Weinke could have a big game.	Weinke could have a big game.	104482098	1474592141132	1474592141260	v	86
202890	2199501	Weinke could have a big game.	Weinke could have a big game.	104482099	1474592141196	1474592141292	e	69
202890	2199501	Weinke could have a big game.	Weinke could have a big game.	104482100	1474592141308	1474592141404	 	32
202890	2199501	Weinke could have a big game.	Weinke could have a big game.	104482101	1474592141452	1474592141548	a	65
202890	2199501	Weinke could have a big game.	Weinke could have a big game.	104482102	1474592141564	1474592141676	 	32
202890	2199501	Weinke could have a big game.	Weinke could have a big game.	104482117	1474592141756	1474592141836	b	66
202890	2199501	Weinke could have a big game.	Weinke could have a big game.	104482119	1474592141884	1474592142013	i	73
202890	2199501	Weinke could have a big game.	Weinke could have a big game.	104482120	1474592141996	1474592142092	g	71
202890	2199501	Weinke could have a big game.	Weinke could have a big game.	104482122	1474592142140	1474592142252	 	32
202890	2199501	Weinke could have a big game.	Weinke could have a big game.	104482136	1474592142236	1474592142316	g	71
202890	2199501	Weinke could have a big game.	Weinke could have a big game.	104482137	1474592142348	1474592142467	a	65
202890	2199501	Weinke could have a big game.	Weinke could have a big game.	104482138	1474592142444	1474592142540	m	77
202890	2199501	Weinke could have a big game.	Weinke could have a big game.	104482139	1474592142541	1474592142620	e	69
202890	2199501	Weinke could have a big game.	Weinke could have a big game.	104482140	1474592142668	1474592142796	.	190
202890	2199508	Then there's the Palm?	Then there's the Palm?	104482245	1474592146220	1474592146412	CAPS_LOCK	20
202890	2199508	Then there's the Palm?	Then there's the Palm?	104482246	1474592146476	1474592146588	T	84
202890	2199508	Then there's the Palm?	Then there's the Palm?	104482247	1474592146572	1474592146700	CAPS_LOCK	20
202890	2199508	Then there's the Palm?	Then there's the Palm?	104482248	1474592146684	1474592146796	h	72
202890	2199508	Then there's the Palm?	Then there's the Palm?	104482249	1474592146797	1474592146876	e	69
202890	2199508	Then there's the Palm?	Then there's the Palm?	104482251	1474592146908	1474592147004	n	78
202890	2199508	Then there's the Palm?	Then there's the Palm?	104482253	1474592147020	1474592147164	 	32
202890	2199508	Then there's the Palm?	Then there's the Palm?	104482277	1474592147132	1474592147196	CAPS_LOCK	20
202890	2199508	Then there's the Palm?	Then there's the Palm?	104482279	1474592147276	1474592147436	T	84
202890	2199508	Then there's the Palm?	Then there's the Palm?	104482281	1474592147548	1474592147660	CAPS_LOCK	20
202890	2199508	Then there's the Palm?	Then there's the Palm?	104482283	1474592147692	1474592147772	BKSP	8
202890	2199508	Then there's the Palm?	Then there's the Palm?	104482288	1474592147820	1474592147916	t	84
202890	2199508	Then there's the Palm?	Then there's the Palm?	104482291	1474592147917	1474592148044	h	72
202890	2199508	Then there's the Palm?	Then there's the Palm?	104482295	1474592148012	1474592148108	e	69
202890	2199508	Then there's the Palm?	Then there's the Palm?	104482342	1474592148092	1474592148188	r	82
202890	2199508	Then there's the Palm?	Then there's the Palm?	104482343	1474592148189	1474592148284	e	69
202890	2199508	Then there's the Palm?	Then there's the Palm?	104482344	1474592148412	1474592148508	s	83
202890	2199508	Then there's the Palm?	Then there's the Palm?	104482345	1474592148780	1474592148860	BKSP	8
202890	2199508	Then there's the Palm?	Then there's the Palm?	104482346	1474592148956	1474592149068	'	222
202890	2199508	Then there's the Palm?	Then there's the Palm?	104482347	1474592149036	1474592149115	s	83
202890	2199508	Then there's the Palm?	Then there's the Palm?	104482348	1474592149244	1474592149340	 	32
202890	2199508	Then there's the Palm?	Then there's the Palm?	104482360	1474592149404	1474592149452	b	66
202890	2199508	Then there's the Palm?	Then there's the Palm?	104482362	1474592149628	1474592149724	BKSP	8
202890	2199508	Then there's the Palm?	Then there's the Palm?	104482364	1474592149740	1474592149820	t	84
202890	2199508	Then there's the Palm?	Then there's the Palm?	104482368	1474592149852	1474592149996	h	72
202890	2199508	Then there's the Palm?	Then there's the Palm?	104482372	1474592149948	1474592150044	e	69
202890	2199508	Then there's the Palm?	Then there's the Palm?	104482374	1474592150124	1474592150220	 	32
202890	2199508	Then there's the Palm?	Then there's the Palm?	104482401	1474592150364	1474592150478	CAPS_LOCK	20
202890	2199508	Then there's the Palm?	Then there's the Palm?	104482403	1474592150479	1474592150492	P	219
202890	2199508	Then there's the Palm?	Then there's the Palm?	104482405	1474592150572	1474592150667	CAPS_LOCK	20
202890	2199508	Then there's the Palm?	Then there's the Palm?	104482408	1474592150764	1474592150908	a	65
202890	2199508	Then there's the Palm?	Then there's the Palm?	104482412	1474592151180	1474592151244	BKSP	8
202890	2199508	Then there's the Palm?	Then there's the Palm?	104482415	1474592151323	1474592151372	BKSP	8
202890	2199508	Then there's the Palm?	Then there's the Palm?	104482418	1474592151436	1474592151499	BKSP	8
202890	2199508	Then there's the Palm?	Then there's the Palm?	104482420	1474592151548	1474592151612	BKSP	8
202890	2199508	Then there's the Palm?	Then there's the Palm?	104482424	1474592151613	1474592151739	CAPS_LOCK	20
202890	2199508	Then there's the Palm?	Then there's the Palm?	104482427	1474592152044	1474592152172	 	32
202890	2199508	Then there's the Palm?	Then there's the Palm?	104482429	1474592152220	1474592152332	P	80
202890	2199508	Then there's the Palm?	Then there's the Palm?	104482464	1474592152363	1474592152508	CAPS_LOCK	20
202890	2199508	Then there's the Palm?	Then there's the Palm?	104482465	1474592152556	1474592152651	a	65
202890	2199508	Then there's the Palm?	Then there's the Palm?	104482466	1474592152748	1474592152795	r	82
202890	2199508	Then there's the Palm?	Then there's the Palm?	104482467	1474592152988	1474592153084	BKSP	8
202890	2199508	Then there's the Palm?	Then there's the Palm?	104482469	1474592153148	1474592153228	l	76
202890	2199508	Then there's the Palm?	Then there's the Palm?	104482471	1474592153324	1474592153419	m	77
202890	2199508	Then there's the Palm?	Then there's the Palm?	104482473	1474592153532	1474592153644	.	190
202890	2199508	Then there's the Palm?	Then there's the Palm?	104482483	1474592153916	1474592154011	BKSP	8
202890	2199508	Then there's the Palm?	Then there's the Palm?	104482485	1474592153995	1474592154155	SHIFT	16
202890	2199514	Last week we reported third quarter earnings.	Last week we reported third quarter earnings.	104482592	1474592157052	1474592157228	CAPS_LOCK	20
202890	2199514	Last week we reported third quarter earnings.	Last week we reported third quarter earnings.	104482593	1474592157196	1474592157356	L	76
202890	2199514	Last week we reported third quarter earnings.	Last week we reported third quarter earnings.	104482594	1474592157357	1474592157467	CAPS_LOCK	20
202890	2199514	Last week we reported third quarter earnings.	Last week we reported third quarter earnings.	104482595	1474592157532	1474592157644	a	65
202890	2199514	Last week we reported third quarter earnings.	Last week we reported third quarter earnings.	104482596	1474592157645	1474592157739	s	83
202890	2199514	Last week we reported third quarter earnings.	Last week we reported third quarter earnings.	104482597	1474592157851	1474592157947	t	84
202890	2199514	Last week we reported third quarter earnings.	Last week we reported third quarter earnings.	104482599	1474592158012	1474592158123	 	32
202890	2199514	Last week we reported third quarter earnings.	Last week we reported third quarter earnings.	104482619	1474592158108	1474592158203	w	87
202890	2199514	Last week we reported third quarter earnings.	Last week we reported third quarter earnings.	104482622	1474592158187	1474592158283	e	69
202890	2199514	Last week we reported third quarter earnings.	Last week we reported third quarter earnings.	104482625	1474592158395	1474592158491	e	69
202890	2199514	Last week we reported third quarter earnings.	Last week we reported third quarter earnings.	104482627	1474592158555	1474592158683	k	75
202890	2199514	Last week we reported third quarter earnings.	Last week we reported third quarter earnings.	104482628	1474592158699	1474592158843	 	32
202890	2199514	Last week we reported third quarter earnings.	Last week we reported third quarter earnings.	104482639	1474592158811	1474592158939	w	87
202890	2199514	Last week we reported third quarter earnings.	Last week we reported third quarter earnings.	104482640	1474592158907	1474592159003	e	69
202890	2199514	Last week we reported third quarter earnings.	Last week we reported third quarter earnings.	104482641	1474592159035	1474592159131	 	32
202890	2199514	Last week we reported third quarter earnings.	Last week we reported third quarter earnings.	104482642	1474592159211	1474592159323	r	82
202890	2199514	Last week we reported third quarter earnings.	Last week we reported third quarter earnings.	104482643	1474592159371	1474592159467	e	69
202890	2199514	Last week we reported third quarter earnings.	Last week we reported third quarter earnings.	104482644	1474592159548	1474592159659	p	80
202890	2199514	Last week we reported third quarter earnings.	Last week we reported third quarter earnings.	104482672	1474592159756	1474592159915	o	79
202890	2199514	Last week we reported third quarter earnings.	Last week we reported third quarter earnings.	104482677	1474592159867	1474592159963	r	82
202890	2199514	Last week we reported third quarter earnings.	Last week we reported third quarter earnings.	104482682	1474592160107	1474592160187	t	84
202890	2199514	Last week we reported third quarter earnings.	Last week we reported third quarter earnings.	104482687	1474592160380	1474592160459	a	65
202890	2199514	Last week we reported third quarter earnings.	Last week we reported third quarter earnings.	104482692	1474592160700	1474592160795	BKSP	8
202890	2199514	Last week we reported third quarter earnings.	Last week we reported third quarter earnings.	104482708	1474592160747	1474592160862	e	69
202890	2199514	Last week we reported third quarter earnings.	Last week we reported third quarter earnings.	104482711	1474592160843	1474592160955	d	68
202890	2199514	Last week we reported third quarter earnings.	Last week we reported third quarter earnings.	104482716	1474592161020	1474592161163	 	32
202890	2199514	Last week we reported third quarter earnings.	Last week we reported third quarter earnings.	104482720	1474592161276	1474592161387	t	84
202890	2199514	Last week we reported third quarter earnings.	Last week we reported third quarter earnings.	104482724	1474592161500	1474592161611	h	72
202890	2199514	Last week we reported third quarter earnings.	Last week we reported third quarter earnings.	104482727	1474592161755	1474592161899	i	73
202890	2199514	Last week we reported third quarter earnings.	Last week we reported third quarter earnings.	104482759	1474592161835	1474592161947	r	82
202890	2199514	Last week we reported third quarter earnings.	Last week we reported third quarter earnings.	104482762	1474592162059	1474592162171	d	68
202890	2199514	Last week we reported third quarter earnings.	Last week we reported third quarter earnings.	104482765	1474592162235	1474592162363	 	32
202890	2199514	Last week we reported third quarter earnings.	Last week we reported third quarter earnings.	104482768	1474592162604	1474592162747	q	81
202890	2199514	Last week we reported third quarter earnings.	Last week we reported third quarter earnings.	104482771	1474592162715	1474592162859	u	85
202890	2199514	Last week we reported third quarter earnings.	Last week we reported third quarter earnings.	104482774	1474592162891	1474592162987	a	65
202890	2199514	Last week we reported third quarter earnings.	Last week we reported third quarter earnings.	104482787	1474592163051	1474592163147	r	82
202890	2199514	Last week we reported third quarter earnings.	Last week we reported third quarter earnings.	104482791	1474592163260	1474592163339	t	84
202890	2199514	Last week we reported third quarter earnings.	Last week we reported third quarter earnings.	104482796	1474592163403	1474592163531	e	69
202890	2199514	Last week we reported third quarter earnings.	Last week we reported third quarter earnings.	104482801	1474592163499	1474592163595	r	82
202890	2199514	Last week we reported third quarter earnings.	Last week we reported third quarter earnings.	104482804	1474592163659	1474592163787	 	32
202890	2199514	Last week we reported third quarter earnings.	Last week we reported third quarter earnings.	104482818	1474592163883	1474592163963	e	69
202890	2199514	Last week we reported third quarter earnings.	Last week we reported third quarter earnings.	104482820	1474592164075	1474592164187	a	65
202890	2199514	Last week we reported third quarter earnings.	Last week we reported third quarter earnings.	104482821	1474592164235	1474592164331	r	82
202890	2199514	Last week we reported third quarter earnings.	Last week we reported third quarter earnings.	104482824	1474592164395	1474592164491	n	78
202890	2199514	Last week we reported third quarter earnings.	Last week we reported third quarter earnings.	104482825	1474592164523	1474592164667	i	73
202890	2199514	Last week we reported third quarter earnings.	Last week we reported third quarter earnings.	104482842	1474592164603	1474592164739	n	78
202890	2199514	Last week we reported third quarter earnings.	Last week we reported third quarter earnings.	104482844	1474592164683	1474592164763	g	71
202890	2199514	Last week we reported third quarter earnings.	Last week we reported third quarter earnings.	104482846	1474592164843	1474592164956	s	83
202890	2199514	Last week we reported third quarter earnings.	Last week we reported third quarter earnings.	104482848	1474592164957	1474592165083	.	190
