PARTICIPANT_ID	TEST_SECTION_ID	SENTENCE	USER_INPUT	KEYSTROKE_ID	PRESS_TIME	RELEASE_TIME	LETTER	KEYCODE
204404	2217050	They have capacity now.	They have capacity now.	105323370	1474615488793	1474615489293	SHIFT	16
204404	2217050	They have capacity now.	They have capacity now.	105323365	1474615489123	1474615489263	T	84
204404	2217050	They have capacity now.	They have capacity now.	105323374	1474615489293	1474615489360	h	72
204404	2217050	They have capacity now.	They have capacity now.	105323379	1474615489360	1474615489467	e	69
204404	2217050	They have capacity now.	They have capacity now.	105323382	1474615489523	1474615489636	 	32
204404	2217050	They have capacity now.	They have capacity now.	105323385	1474615490123	1474615490206	BKSP	8
204404	2217050	They have capacity now.	They have capacity now.	105323386	1474615490810	1474615490876	u	85
204404	2217050	They have capacity now.	They have capacity now.	105323504	1474615491257	1474615491330	BKSP	8
204404	2217050	They have capacity now.	They have capacity now.	105323505	1474615492786	1474615492853	y	89
204404	2217050	They have capacity now.	They have capacity now.	105323506	1474615492943	1474615493073	 	32
204404	2217050	They have capacity now.	They have capacity now.	105323507	1474615493473	1474615493526	h	72
204404	2217050	They have capacity now.	They have capacity now.	105323508	1474615493556	1474615493710	a	65
204404	2217050	They have capacity now.	They have capacity now.	105323509	1474615493790	1474615493923	v	86
204404	2217050	They have capacity now.	They have capacity now.	105323589	1474615493984	1474615494083	e	69
204404	2217050	They have capacity now.	They have capacity now.	105323592	1474615494083	1474615494203	 	32
204404	2217050	They have capacity now.	They have capacity now.	105323596	1474615494613	1474615494786	c	67
204404	2217050	They have capacity now.	They have capacity now.	105323602	1474615494856	1474615495000	a	65
204404	2217050	They have capacity now.	They have capacity now.	105323605	1474615495443	1474615495563	p	80
204404	2217050	They have capacity now.	They have capacity now.	105323667	1474615495779	1474615495906	a	65
204404	2217050	They have capacity now.	They have capacity now.	105323668	1474615496216	1474615496326	c	67
204404	2217050	They have capacity now.	They have capacity now.	105323669	1474615496426	1474615496476	i	73
204404	2217050	They have capacity now.	They have capacity now.	105323670	1474615496746	1474615496863	t	84
204404	2217050	They have capacity now.	They have capacity now.	105323671	1474615496963	1474615497030	y	89
204404	2217050	They have capacity now.	They have capacity now.	105323743	1474615497352	1474615497450	 	32
204404	2217050	They have capacity now.	They have capacity now.	105323746	1474615497750	1474615497870	n	78
204404	2217050	They have capacity now.	They have capacity now.	105323748	1474615497960	1474615498030	o	79
204404	2217050	They have capacity now.	They have capacity now.	105323752	1474615498090	1474615498203	w	87
204404	2217050	They have capacity now.	They have capacity now.	105323756	1474615498766	1474615498826	.	190
204404	2217069	Davis was listed as questionable on the weekly injury report.	Davis was listed as questionable on the weekly injury report.	105327266	1474615502626	1474615503673	SHIFT	16
204404	2217069	Davis was listed as questionable on the weekly injury report.	Davis was listed as questionable on the weekly injury report.	105327263	1474615503486	1474615503633	D	68
204404	2217069	Davis was listed as questionable on the weekly injury report.	Davis was listed as questionable on the weekly injury report.	105327271	1474615504086	1474615504253	a	65
204404	2217069	Davis was listed as questionable on the weekly injury report.	Davis was listed as questionable on the weekly injury report.	105327275	1474615504353	1474615504540	v	86
204404	2217069	Davis was listed as questionable on the weekly injury report.	Davis was listed as questionable on the weekly injury report.	105327279	1474615504570	1474615504656	i	73
204404	2217069	Davis was listed as questionable on the weekly injury report.	Davis was listed as questionable on the weekly injury report.	105327285	1474615504756	1474615504890	s	83
204404	2217069	Davis was listed as questionable on the weekly injury report.	Davis was listed as questionable on the weekly injury report.	105326671	1474615504931	1474615505056	 	32
204404	2217069	Davis was listed as questionable on the weekly injury report.	Davis was listed as questionable on the weekly injury report.	105326675	1474615505386	1474615505513	w	87
204404	2217069	Davis was listed as questionable on the weekly injury report.	Davis was listed as questionable on the weekly injury report.	105326680	1474615505513	1474615505720	a	65
204404	2217069	Davis was listed as questionable on the weekly injury report.	Davis was listed as questionable on the weekly injury report.	105326687	1474615505646	1474615505795	s	83
204404	2217069	Davis was listed as questionable on the weekly injury report.	Davis was listed as questionable on the weekly injury report.	105327440	1474615505770	1474615505898	 	32
204404	2217069	Davis was listed as questionable on the weekly injury report.	Davis was listed as questionable on the weekly injury report.	105327444	1474615506019	1474615506076	l	76
204404	2217069	Davis was listed as questionable on the weekly injury report.	Davis was listed as questionable on the weekly injury report.	105327450	1474615506136	1474615506203	l	76
204404	2217069	Davis was listed as questionable on the weekly injury report.	Davis was listed as questionable on the weekly injury report.	105327453	1474615506233	1474615506303	i	73
204404	2217069	Davis was listed as questionable on the weekly injury report.	Davis was listed as questionable on the weekly injury report.	105327455	1474615506976	1474615507036	BKSP	8
204404	2217069	Davis was listed as questionable on the weekly injury report.	Davis was listed as questionable on the weekly injury report.	105327459	1474615507116	1474615507186	BKSP	8
204404	2217069	Davis was listed as questionable on the weekly injury report.	Davis was listed as questionable on the weekly injury report.	105327462	1474615507626	1474615507676	i	73
204404	2217069	Davis was listed as questionable on the weekly injury report.	Davis was listed as questionable on the weekly injury report.	105327467	1474615507736	1474615507883	s	83
204404	2217069	Davis was listed as questionable on the weekly injury report.	Davis was listed as questionable on the weekly injury report.	105325904	1474615508085	1474615508203	t	84
204404	2217069	Davis was listed as questionable on the weekly injury report.	Davis was listed as questionable on the weekly injury report.	105325908	1474615508283	1474615508423	e	69
204404	2217069	Davis was listed as questionable on the weekly injury report.	Davis was listed as questionable on the weekly injury report.	105325914	1474615508583	1474615508695	d	68
204404	2217069	Davis was listed as questionable on the weekly injury report.	Davis was listed as questionable on the weekly injury report.	105325919	1474615508715	1474615508826	 	32
204404	2217069	Davis was listed as questionable on the weekly injury report.	Davis was listed as questionable on the weekly injury report.	105325923	1474615509170	1474615509307	a	65
204404	2217069	Davis was listed as questionable on the weekly injury report.	Davis was listed as questionable on the weekly injury report.	105326050	1474615509379	1474615509514	s	83
204404	2217069	Davis was listed as questionable on the weekly injury report.	Davis was listed as questionable on the weekly injury report.	105326056	1474615509594	1474615509720	 	32
204404	2217069	Davis was listed as questionable on the weekly injury report.	Davis was listed as questionable on the weekly injury report.	105326060	1474615510514	1474615510626	q	81
204404	2217069	Davis was listed as questionable on the weekly injury report.	Davis was listed as questionable on the weekly injury report.	105326064	1474615510866	1474615510946	u	85
204404	2217069	Davis was listed as questionable on the weekly injury report.	Davis was listed as questionable on the weekly injury report.	105326067	1474615511237	1474615511373	e	69
204404	2217069	Davis was listed as questionable on the weekly injury report.	Davis was listed as questionable on the weekly injury report.	105326128	1474615511475	1474615511616	s	83
204404	2217069	Davis was listed as questionable on the weekly injury report.	Davis was listed as questionable on the weekly injury report.	105326133	1474615511626	1474615511733	t	84
204404	2217069	Davis was listed as questionable on the weekly injury report.	Davis was listed as questionable on the weekly injury report.	105326140	1474615511953	1474615512050	i	73
204404	2217069	Davis was listed as questionable on the weekly injury report.	Davis was listed as questionable on the weekly injury report.	105326144	1474615512130	1474615512203	n	78
204404	2217069	Davis was listed as questionable on the weekly injury report.	Davis was listed as questionable on the weekly injury report.	105326154	1474615512273	1474615512376	o	79
204404	2217069	Davis was listed as questionable on the weekly injury report.	Davis was listed as questionable on the weekly injury report.	105325973	1474615512448	1474615512530	n	78
204404	2217069	Davis was listed as questionable on the weekly injury report.	Davis was listed as questionable on the weekly injury report.	105325976	1474615512620	1474615512722	g	71
204404	2217069	Davis was listed as questionable on the weekly injury report.	Davis was listed as questionable on the weekly injury report.	105325982	1474615513042	1474615513130	BKSP	8
204404	2217069	Davis was listed as questionable on the weekly injury report.	Davis was listed as questionable on the weekly injury report.	105325987	1474615514730	1474615514773	BKSP	8
204404	2217069	Davis was listed as questionable on the weekly injury report.	Davis was listed as questionable on the weekly injury report.	105325994	1474615514873	1474615514916	BKSP	8
204404	2217069	Davis was listed as questionable on the weekly injury report.	Davis was listed as questionable on the weekly injury report.	105325997	1474615515096	1474615515160	BKSP	8
204404	2217069	Davis was listed as questionable on the weekly injury report.	Davis was listed as questionable on the weekly injury report.	105326000	1474615515697	1474615515780	o	79
204404	2217069	Davis was listed as questionable on the weekly injury report.	Davis was listed as questionable on the weekly injury report.	105326002	1474615515910	1474615515957	n	78
204404	2217069	Davis was listed as questionable on the weekly injury report.	Davis was listed as questionable on the weekly injury report.	105326004	1474615516473	1474615516607	 	32
204404	2217069	Davis was listed as questionable on the weekly injury report.	Davis was listed as questionable on the weekly injury report.	105326057	1474615516899	1474615516970	BKSP	8
204404	2217069	Davis was listed as questionable on the weekly injury report.	Davis was listed as questionable on the weekly injury report.	105326061	1474615517358	1474615517550	a	65
204404	2217069	Davis was listed as questionable on the weekly injury report.	Davis was listed as questionable on the weekly injury report.	105326063	1474615517950	1474615518000	b	66
204404	2217069	Davis was listed as questionable on the weekly injury report.	Davis was listed as questionable on the weekly injury report.	105326069	1474615518200	1474615518260	e	69
204404	2217069	Davis was listed as questionable on the weekly injury report.	Davis was listed as questionable on the weekly injury report.	105326071	1474615518564	1474615518617	BKSP	8
204404	2217069	Davis was listed as questionable on the weekly injury report.	Davis was listed as questionable on the weekly injury report.	105326073	1474615518867	1474615518907	l	76
204404	2217069	Davis was listed as questionable on the weekly injury report.	Davis was listed as questionable on the weekly injury report.	105326080	1474615519017	1474615519127	e	69
204404	2217069	Davis was listed as questionable on the weekly injury report.	Davis was listed as questionable on the weekly injury report.	105326132	1474615519640	1474615519793	 	32
204404	2217069	Davis was listed as questionable on the weekly injury report.	Davis was listed as questionable on the weekly injury report.	105326137	1474615520033	1474615520123	o	79
204404	2217069	Davis was listed as questionable on the weekly injury report.	Davis was listed as questionable on the weekly injury report.	105326141	1474615520173	1474615520237	n	78
204404	2217069	Davis was listed as questionable on the weekly injury report.	Davis was listed as questionable on the weekly injury report.	105326150	1474615520337	1474615520453	 	32
204404	2217069	Davis was listed as questionable on the weekly injury report.	Davis was listed as questionable on the weekly injury report.	105326157	1474615520633	1474615520764	t	84
204404	2217069	Davis was listed as questionable on the weekly injury report.	Davis was listed as questionable on the weekly injury report.	105326145	1474615520764	1474615520847	h	72
204404	2217069	Davis was listed as questionable on the weekly injury report.	Davis was listed as questionable on the weekly injury report.	105326151	1474615520847	1474615520930	e	69
204404	2217069	Davis was listed as questionable on the weekly injury report.	Davis was listed as questionable on the weekly injury report.	105326159	1474615520930	1474615521027	 	32
204404	2217069	Davis was listed as questionable on the weekly injury report.	Davis was listed as questionable on the weekly injury report.	105326163	1474615521297	1474615521420	w	87
204404	2217069	Davis was listed as questionable on the weekly injury report.	Davis was listed as questionable on the weekly injury report.	105326171	1474615521690	1474615521810	e	69
204404	2217069	Davis was listed as questionable on the weekly injury report.	Davis was listed as questionable on the weekly injury report.	105326195	1474615522202	1474615522240	l	76
204404	2217069	Davis was listed as questionable on the weekly injury report.	Davis was listed as questionable on the weekly injury report.	105326197	1474615522690	1474615522750	BKSP	8
204404	2217069	Davis was listed as questionable on the weekly injury report.	Davis was listed as questionable on the weekly injury report.	105326201	1474615522840	1474615522943	e	69
204404	2217069	Davis was listed as questionable on the weekly injury report.	Davis was listed as questionable on the weekly injury report.	105326206	1474615523345	1474615523423	k	75
204404	2217069	Davis was listed as questionable on the weekly injury report.	Davis was listed as questionable on the weekly injury report.	105326210	1474615523553	1474615523770	l	76
204404	2217069	Davis was listed as questionable on the weekly injury report.	Davis was listed as questionable on the weekly injury report.	105326214	1474615523830	1474615523893	y	89
204404	2217069	Davis was listed as questionable on the weekly injury report.	Davis was listed as questionable on the weekly injury report.	105326196	1474615524025	1474615524163	 	32
204404	2217069	Davis was listed as questionable on the weekly injury report.	Davis was listed as questionable on the weekly injury report.	105326199	1474615524415	1474615524487	i	73
204404	2217069	Davis was listed as questionable on the weekly injury report.	Davis was listed as questionable on the weekly injury report.	105326200	1474615524517	1474615524597	n	78
204404	2217069	Davis was listed as questionable on the weekly injury report.	Davis was listed as questionable on the weekly injury report.	105326203	1474615524867	1474615524937	g	71
204404	2217069	Davis was listed as questionable on the weekly injury report.	Davis was listed as questionable on the weekly injury report.	105326205	1474615525017	1474615525057	h	72
204404	2217069	Davis was listed as questionable on the weekly injury report.	Davis was listed as questionable on the weekly injury report.	105326204	1474615525319	1474615525377	BKSP	8
204404	2217069	Davis was listed as questionable on the weekly injury report.	Davis was listed as questionable on the weekly injury report.	105326208	1474615525459	1474615525537	BKSP	8
204404	2217069	Davis was listed as questionable on the weekly injury report.	Davis was listed as questionable on the weekly injury report.	105326215	1474615526070	1474615526137	h	72
204404	2217069	Davis was listed as questionable on the weekly injury report.	Davis was listed as questionable on the weekly injury report.	105326222	1474615526547	1474615526710	r	82
204404	2217069	Davis was listed as questionable on the weekly injury report.	Davis was listed as questionable on the weekly injury report.	105326228	1474615526800	1474615526882	u	85
204404	2217069	Davis was listed as questionable on the weekly injury report.	Davis was listed as questionable on the weekly injury report.	105326234	1474615528160	1474615528210	BKSP	8
204404	2217069	Davis was listed as questionable on the weekly injury report.	Davis was listed as questionable on the weekly injury report.	105326242	1474615528300	1474615528370	BKSP	8
204404	2217069	Davis was listed as questionable on the weekly injury report.	Davis was listed as questionable on the weekly injury report.	105326248	1474615528790	1474615528843	u	85
204404	2217069	Davis was listed as questionable on the weekly injury report.	Davis was listed as questionable on the weekly injury report.	105326252	1474615528903	1474615529070	r	82
204404	2217069	Davis was listed as questionable on the weekly injury report.	Davis was listed as questionable on the weekly injury report.	105326267	1474615529613	1474615529657	BKSP	8
204404	2217069	Davis was listed as questionable on the weekly injury report.	Davis was listed as questionable on the weekly injury report.	105326271	1474615529777	1474615529843	BKSP	8
204404	2217069	Davis was listed as questionable on the weekly injury report.	Davis was listed as questionable on the weekly injury report.	105326275	1474615529983	1474615530033	BKSP	8
204404	2217069	Davis was listed as questionable on the weekly injury report.	Davis was listed as questionable on the weekly injury report.	105326278	1474615530587	1474615530643	h	72
204404	2217069	Davis was listed as questionable on the weekly injury report.	Davis was listed as questionable on the weekly injury report.	105326284	1474615531353	1474615531410	BKSP	8
204404	2217069	Davis was listed as questionable on the weekly injury report.	Davis was listed as questionable on the weekly injury report.	105326287	1474615531560	1474615531610	j	74
204404	2217069	Davis was listed as questionable on the weekly injury report.	Davis was listed as questionable on the weekly injury report.	105326290	1474615532360	1474615532430	u	85
204404	2217069	Davis was listed as questionable on the weekly injury report.	Davis was listed as questionable on the weekly injury report.	105326294	1474615532670	1474615532817	r	82
204404	2217069	Davis was listed as questionable on the weekly injury report.	Davis was listed as questionable on the weekly injury report.	105326299	1474615533147	1474615533220	y	89
204404	2217069	Davis was listed as questionable on the weekly injury report.	Davis was listed as questionable on the weekly injury report.	105326281	1474615533342	1474615533473	 	32
204404	2217069	Davis was listed as questionable on the weekly injury report.	Davis was listed as questionable on the weekly injury report.	105326285	1474615533703	1474615533906	r	82
204404	2217069	Davis was listed as questionable on the weekly injury report.	Davis was listed as questionable on the weekly injury report.	105326288	1474615533880	1474615534073	e	69
204404	2217069	Davis was listed as questionable on the weekly injury report.	Davis was listed as questionable on the weekly injury report.	105326292	1474615534627	1474615534723	p	80
204404	2217069	Davis was listed as questionable on the weekly injury report.	Davis was listed as questionable on the weekly injury report.	105326296	1474615535257	1474615535330	o	79
204404	2217069	Davis was listed as questionable on the weekly injury report.	Davis was listed as questionable on the weekly injury report.	105326302	1474615535482	1474615535603	r	82
204404	2217069	Davis was listed as questionable on the weekly injury report.	Davis was listed as questionable on the weekly injury report.	105326309	1474615535753	1474615535860	t	84
204404	2217069	Davis was listed as questionable on the weekly injury report.	Davis was listed as questionable on the weekly injury report.	105326316	1474615536020	1474615536103	.	190
204404	2217121	The qualifying continues on the west side of town.	The qualifying continues on the west side of town.	105326522	1474615549067	1474615549637	SHIFT	16
204404	2217121	The qualifying continues on the west side of town.	The qualifying continues on the west side of town.	105326517	1474615549460	1474615549607	T	84
204404	2217121	The qualifying continues on the west side of town.	The qualifying continues on the west side of town.	105326531	1474615549637	1474615549684	h	72
204404	2217121	The qualifying continues on the west side of town.	The qualifying continues on the west side of town.	105326540	1474615549734	1474615549874	e	69
204404	2217121	The qualifying continues on the west side of town.	The qualifying continues on the west side of town.	105326546	1474615550014	1474615550147	 	32
204404	2217121	The qualifying continues on the west side of town.	The qualifying continues on the west side of town.	105326554	1474615550610	1474615550730	q	65
204404	2217121	The qualifying continues on the west side of town.	The qualifying continues on the west side of town.	105326663	1474615551210	1474615551277	BKSP	8
204404	2217121	The qualifying continues on the west side of town.	The qualifying continues on the west side of town.	105326665	1474615551347	1474615551410	BKSP	8
204404	2217121	The qualifying continues on the west side of town.	The qualifying continues on the west side of town.	105326668	1474615551430	1474615551564	q	81
204404	2217121	The qualifying continues on the west side of town.	The qualifying continues on the west side of town.	105326670	1474615551934	1474615551994	u	85
204404	2217121	The qualifying continues on the west side of town.	The qualifying continues on the west side of town.	105326676	1474615552414	1474615552537	a	65
204404	2217121	The qualifying continues on the west side of town.	The qualifying continues on the west side of town.	105326682	1474615552787	1474615552854	l	76
204404	2217121	The qualifying continues on the west side of town.	The qualifying continues on the west side of town.	105326686	1474615552934	1474615552994	i	73
204404	2217121	The qualifying continues on the west side of town.	The qualifying continues on the west side of town.	105326770	1474615553215	1474615553317	g	71
204404	2217121	The qualifying continues on the west side of town.	The qualifying continues on the west side of town.	105326775	1474615554020	1474615554057	y	89
204404	2217121	The qualifying continues on the west side of town.	The qualifying continues on the west side of town.	105326777	1474615554467	1474615554537	i	73
204404	2217121	The qualifying continues on the west side of town.	The qualifying continues on the west side of town.	105326781	1474615554607	1474615554670	n	78
204404	2217121	The qualifying continues on the west side of town.	The qualifying continues on the west side of town.	105326786	1474615554770	1474615554897	g	71
204404	2217121	The qualifying continues on the west side of town.	The qualifying continues on the west side of town.	105327060	1474615555181	1474615555354	 	32
204404	2217121	The qualifying continues on the west side of town.	The qualifying continues on the west side of town.	105327062	1474615555847	1474615555906	BKSP	8
204404	2217121	The qualifying continues on the west side of town.	The qualifying continues on the west side of town.	105327066	1474615556076	1474615556114	BKSP	8
204404	2217121	The qualifying continues on the west side of town.	The qualifying continues on the west side of town.	105327072	1474615556194	1474615556254	BKSP	8
204404	2217121	The qualifying continues on the west side of town.	The qualifying continues on the west side of town.	105327076	1474615556324	1474615556367	BKSP	8
204404	2217121	The qualifying continues on the west side of town.	The qualifying continues on the west side of town.	105327083	1474615556417	1474615556457	BKSP	8
204404	2217121	The qualifying continues on the west side of town.	The qualifying continues on the west side of town.	105327088	1474615556537	1474615556604	BKSP	8
204404	2217121	The qualifying continues on the west side of town.	The qualifying continues on the west side of town.	105327097	1474615556754	1474615556810	BKSP	8
204404	2217121	The qualifying continues on the west side of town.	The qualifying continues on the west side of town.	105327106	1474615559670	1474615559777	g	71
204404	2217121	The qualifying continues on the west side of town.	The qualifying continues on the west side of town.	105327112	1474615560430	1474615560494	BKSP	8
204404	2217121	The qualifying continues on the west side of town.	The qualifying continues on the west side of town.	105327117	1474615560544	1474615560634	f	70
204404	2217121	The qualifying continues on the west side of town.	The qualifying continues on the west side of town.	105327121	1474615561434	1474615561504	y	89
204404	2217121	The qualifying continues on the west side of town.	The qualifying continues on the west side of town.	105327125	1474615561664	1474615561757	i	73
204404	2217121	The qualifying continues on the west side of town.	The qualifying continues on the west side of town.	105327262	1474615561849	1474615561920	n	78
204404	2217121	The qualifying continues on the west side of town.	The qualifying continues on the west side of town.	105327265	1474615562010	1474615562107	g	71
204404	2217121	The qualifying continues on the west side of town.	The qualifying continues on the west side of town.	105327269	1474615562147	1474615562287	 	32
204404	2217121	The qualifying continues on the west side of town.	The qualifying continues on the west side of town.	105327273	1474615562964	1474615563027	BKSP	8
204404	2217121	The qualifying continues on the west side of town.	The qualifying continues on the west side of town.	105327278	1474615563297	1474615563380	BKSP	8
204404	2217121	The qualifying continues on the west side of town.	The qualifying continues on the west side of town.	105327282	1474615563420	1474615563477	BKSP	8
204404	2217121	The qualifying continues on the west side of town.	The qualifying continues on the west side of town.	105327287	1474615563557	1474615563610	BKSP	8
204404	2217121	The qualifying continues on the west side of town.	The qualifying continues on the west side of town.	105327290	1474615563700	1474615563730	BKSP	8
204404	2217121	The qualifying continues on the west side of town.	The qualifying continues on the west side of town.	105327293	1474615563820	1474615563857	BKSP	8
204404	2217121	The qualifying continues on the west side of town.	The qualifying continues on the west side of town.	105327299	1474615564790	1474615564854	i	73
204404	2217121	The qualifying continues on the west side of town.	The qualifying continues on the west side of town.	105327303	1474615565314	1474615565400	g	71
204404	2217121	The qualifying continues on the west side of town.	The qualifying continues on the west side of town.	105327369	1474615565722	1474615565777	y	89
204404	2217121	The qualifying continues on the west side of town.	The qualifying continues on the west side of town.	105327371	1474615566087	1474615566164	i	73
204404	2217121	The qualifying continues on the west side of town.	The qualifying continues on the west side of town.	105327375	1474615566194	1474615566260	n	78
204404	2217121	The qualifying continues on the west side of town.	The qualifying continues on the west side of town.	105327380	1474615566330	1474615566444	g	71
204404	2217121	The qualifying continues on the west side of town.	The qualifying continues on the west side of town.	105327387	1474615566947	1474615567137	 	32
204404	2217121	The qualifying continues on the west side of town.	The qualifying continues on the west side of town.	105327652	1474615567984	1474615568034	BKSP	8
204404	2217121	The qualifying continues on the west side of town.	The qualifying continues on the west side of town.	105327653	1474615568144	1474615568194	BKSP	8
204404	2217121	The qualifying continues on the west side of town.	The qualifying continues on the west side of town.	105327654	1474615568364	1474615568417	BKSP	8
204404	2217121	The qualifying continues on the west side of town.	The qualifying continues on the west side of town.	105327655	1474615568497	1474615568554	BKSP	8
204404	2217121	The qualifying continues on the west side of town.	The qualifying continues on the west side of town.	105327657	1474615568634	1474615568774	BKSP	8
204404	2217121	The qualifying continues on the west side of town.	The qualifying continues on the west side of town.	105327661	1474615568864	1474615568927	BKSP	8
204404	2217121	The qualifying continues on the west side of town.	The qualifying continues on the west side of town.	105327665	1474615569007	1474615569070	BKSP	8
204404	2217121	The qualifying continues on the west side of town.	The qualifying continues on the west side of town.	105327669	1474615569420	1474615569497	BKSP	8
204404	2217121	The qualifying continues on the west side of town.	The qualifying continues on the west side of town.	105327676	1474615571950	1474615572020	l	76
204404	2217121	The qualifying continues on the west side of town.	The qualifying continues on the west side of town.	105327680	1474615572130	1474615572177	i	73
204404	2217121	The qualifying continues on the west side of town.	The qualifying continues on the west side of town.	105327684	1474615572457	1474615572597	g	71
204404	2217121	The qualifying continues on the west side of town.	The qualifying continues on the west side of town.	105327686	1474615572797	1474615572890	y	89
204404	2217121	The qualifying continues on the west side of town.	The qualifying continues on the west side of town.	105327687	1474615573310	1474615573371	i	73
204404	2217121	The qualifying continues on the west side of town.	The qualifying continues on the west side of town.	105327833	1474615573413	1474615573487	n	78
204404	2217121	The qualifying continues on the west side of town.	The qualifying continues on the west side of town.	105327835	1474615573567	1474615573687	g	71
204404	2217121	The qualifying continues on the west side of town.	The qualifying continues on the west side of town.	105327836	1474615573767	1474615573937	 	32
204404	2217121	The qualifying continues on the west side of town.	The qualifying continues on the west side of town.	105327839	1474615575114	1474615575207	BKSP	8
204404	2217121	The qualifying continues on the west side of town.	The qualifying continues on the west side of town.	105327843	1474615575327	1474615575397	BKSP	8
204404	2217121	The qualifying continues on the west side of town.	The qualifying continues on the west side of town.	105327847	1474615575517	1474615575587	BKSP	8
204404	2217121	The qualifying continues on the west side of town.	The qualifying continues on the west side of town.	105327850	1474615575697	1474615575770	BKSP	8
204404	2217121	The qualifying continues on the west side of town.	The qualifying continues on the west side of town.	105327852	1474615575900	1474615576635	BKSP	8
204404	2217121	The qualifying continues on the west side of town.	The qualifying continues on the west side of town.	105327856	1474615577761	1474615577887	e	69
204404	2217121	The qualifying continues on the west side of town.	The qualifying continues on the west side of town.	105327859	1474615577967	1474615578067	 	32
204404	2217121	The qualifying continues on the west side of town.	The qualifying continues on the west side of town.	105327947	1474615578621	1474615578797	q	81
204404	2217121	The qualifying continues on the west side of town.	The qualifying continues on the west side of town.	105327951	1474615578956	1474615579031	u	85
204404	2217121	The qualifying continues on the west side of town.	The qualifying continues on the west side of town.	105327956	1474615579911	1474615580061	a	65
204404	2217121	The qualifying continues on the west side of town.	The qualifying continues on the west side of town.	105327961	1474615580451	1474615580577	l	76
204404	2217121	The qualifying continues on the west side of town.	The qualifying continues on the west side of town.	105327965	1474615580697	1474615580744	i	73
204404	2217121	The qualifying continues on the west side of town.	The qualifying continues on the west side of town.	105328103	1474615581404	1474615581522	g	71
204404	2217121	The qualifying continues on the west side of town.	The qualifying continues on the west side of town.	105328107	1474615582537	1474615582594	BKSP	8
204404	2217121	The qualifying continues on the west side of town.	The qualifying continues on the west side of town.	105328112	1474615582784	1474615582884	f	70
204404	2217121	The qualifying continues on the west side of town.	The qualifying continues on the west side of town.	105328116	1474615583284	1474615583334	y	89
204404	2217121	The qualifying continues on the west side of town.	The qualifying continues on the west side of town.	105328121	1474615583877	1474615583954	i	73
204404	2217121	The qualifying continues on the west side of town.	The qualifying continues on the west side of town.	105328124	1474615584044	1474615584121	n	78
204404	2217121	The qualifying continues on the west side of town.	The qualifying continues on the west side of town.	105328231	1474615584273	1474615584377	g	71
204404	2217121	The qualifying continues on the west side of town.	The qualifying continues on the west side of town.	105328235	1474615584807	1474615584947	 	32
204404	2217121	The qualifying continues on the west side of town.	The qualifying continues on the west side of town.	105328240	1474615585834	1474615585994	c	67
204404	2217121	The qualifying continues on the west side of town.	The qualifying continues on the west side of town.	105328244	1474615586094	1474615586174	o	79
204404	2217121	The qualifying continues on the west side of town.	The qualifying continues on the west side of town.	105328248	1474615586394	1474615586434	n	78
204404	2217121	The qualifying continues on the west side of town.	The qualifying continues on the west side of town.	105328297	1474615586676	1474615586784	t	84
204404	2217121	The qualifying continues on the west side of town.	The qualifying continues on the west side of town.	105328304	1474615586914	1474615586987	i	73
204404	2217121	The qualifying continues on the west side of town.	The qualifying continues on the west side of town.	105328307	1474615587057	1474615587137	n	78
204404	2217121	The qualifying continues on the west side of town.	The qualifying continues on the west side of town.	105328310	1474615587257	1474615587317	g	71
204404	2217121	The qualifying continues on the west side of town.	The qualifying continues on the west side of town.	105328316	1474615587437	1474615587498	u	85
204404	2217121	The qualifying continues on the west side of town.	The qualifying continues on the west side of town.	105328550	1474615587790	1474615587844	BKSP	8
204404	2217121	The qualifying continues on the west side of town.	The qualifying continues on the west side of town.	105328553	1474615587934	1474615588004	BKSP	8
204404	2217121	The qualifying continues on the west side of town.	The qualifying continues on the west side of town.	105328554	1474615588034	1474615588074	BKSP	8
204404	2217121	The qualifying continues on the west side of town.	The qualifying continues on the west side of town.	105328555	1474615589076	1474615589154	u	85
204404	2217121	The qualifying continues on the west side of town.	The qualifying continues on the west side of town.	105328556	1474615590041	1474615590121	BKSP	8
204404	2217121	The qualifying continues on the west side of town.	The qualifying continues on the west side of town.	105328557	1474615590551	1474615590591	BKSP	8
204404	2217121	The qualifying continues on the west side of town.	The qualifying continues on the west side of town.	105328558	1474615591657	1474615591737	i	73
204404	2217121	The qualifying continues on the west side of town.	The qualifying continues on the west side of town.	105328560	1474615591817	1474615591867	n	78
204404	2217121	The qualifying continues on the west side of town.	The qualifying continues on the west side of town.	105328564	1474615592327	1474615592397	u	85
204404	2217121	The qualifying continues on the west side of town.	The qualifying continues on the west side of town.	105328568	1474615592647	1474615592761	s	83
204404	2217121	The qualifying continues on the west side of town.	The qualifying continues on the west side of town.	105328659	1474615592873	1474615593007	e	69
204404	2217121	The qualifying continues on the west side of town.	The qualifying continues on the west side of town.	105328662	1474615593377	1474615593424	BKSP	8
204404	2217121	The qualifying continues on the west side of town.	The qualifying continues on the west side of town.	105328663	1474615593954	1474615594021	BKSP	8
204404	2217121	The qualifying continues on the west side of town.	The qualifying continues on the west side of town.	105328665	1474615594161	1474615594281	e	69
204404	2217121	The qualifying continues on the west side of town.	The qualifying continues on the west side of town.	105328668	1474615594401	1474615594511	s	83
204404	2217121	The qualifying continues on the west side of town.	The qualifying continues on the west side of town.	105328672	1474615594551	1474615594681	 	32
204404	2217121	The qualifying continues on the west side of town.	The qualifying continues on the west side of town.	105328677	1474615595114	1474615595161	o	79
204404	2217121	The qualifying continues on the west side of town.	The qualifying continues on the west side of town.	105328696	1474615595202	1474615595271	n	78
204404	2217121	The qualifying continues on the west side of town.	The qualifying continues on the west side of town.	105328697	1474615595401	1474615595501	 	32
204404	2217121	The qualifying continues on the west side of town.	The qualifying continues on the west side of town.	105328700	1474615595591	1474615595698	t	84
204404	2217121	The qualifying continues on the west side of town.	The qualifying continues on the west side of town.	105328702	1474615595718	1474615595777	h	72
204404	2217121	The qualifying continues on the west side of town.	The qualifying continues on the west side of town.	105328705	1474615595817	1474615595867	e	69
204404	2217121	The qualifying continues on the west side of town.	The qualifying continues on the west side of town.	105328782	1474615595899	1474615596031	 	32
204404	2217121	The qualifying continues on the west side of town.	The qualifying continues on the west side of town.	105328786	1474615596372	1474615596477	w	87
204404	2217121	The qualifying continues on the west side of town.	The qualifying continues on the west side of town.	105328787	1474615596807	1474615596953	e	69
204404	2217121	The qualifying continues on the west side of town.	The qualifying continues on the west side of town.	105328789	1474615597063	1474615597237	s	83
204404	2217121	The qualifying continues on the west side of town.	The qualifying continues on the west side of town.	105328791	1474615597277	1474615597364	 	32
204404	2217121	The qualifying continues on the west side of town.	The qualifying continues on the west side of town.	105328883	1474615597364	1474615597467	t	84
204404	2217121	The qualifying continues on the west side of town.	The qualifying continues on the west side of town.	105328884	1474615598061	1474615598117	BKSP	8
204404	2217121	The qualifying continues on the west side of town.	The qualifying continues on the west side of town.	105328885	1474615598197	1474615598281	BKSP	8
204404	2217121	The qualifying continues on the west side of town.	The qualifying continues on the west side of town.	105328886	1474615598421	1474615598547	t	84
204404	2217121	The qualifying continues on the west side of town.	The qualifying continues on the west side of town.	105328887	1474615598647	1474615598741	 	32
204404	2217121	The qualifying continues on the west side of town.	The qualifying continues on the west side of town.	105328889	1474615599367	1474615599457	s	83
204404	2217121	The qualifying continues on the west side of town.	The qualifying continues on the west side of town.	105328891	1474615599557	1474615599601	i	73
204404	2217121	The qualifying continues on the west side of town.	The qualifying continues on the west side of town.	105328970	1474615600171	1474615600277	d	68
204404	2217121	The qualifying continues on the west side of town.	The qualifying continues on the west side of town.	105328976	1474615600387	1474615600474	e	69
204404	2217121	The qualifying continues on the west side of town.	The qualifying continues on the west side of town.	105328980	1474615600484	1474615600624	 	32
204404	2217121	The qualifying continues on the west side of town.	The qualifying continues on the west side of town.	105328985	1474615600725	1474615600787	o	79
204404	2217121	The qualifying continues on the west side of town.	The qualifying continues on the west side of town.	105328991	1474615600857	1474615600967	f	70
204404	2217121	The qualifying continues on the west side of town.	The qualifying continues on the west side of town.	105329043	1474615600967	1474615601067	 	32
204404	2217121	The qualifying continues on the west side of town.	The qualifying continues on the west side of town.	105329044	1474615601177	1474615601274	t	84
204404	2217121	The qualifying continues on the west side of town.	The qualifying continues on the west side of town.	105329051	1474615601674	1474615601737	o	79
204404	2217121	The qualifying continues on the west side of town.	The qualifying continues on the west side of town.	105329053	1474615601877	1474615602024	w	87
204404	2217121	The qualifying continues on the west side of town.	The qualifying continues on the west side of town.	105329055	1474615602064	1474615602137	n	78
204404	2217121	The qualifying continues on the west side of town.	The qualifying continues on the west side of town.	105329129	1474615602529	1474615602580	"	16
204404	2217121	The qualifying continues on the west side of town.	The qualifying continues on the west side of town.	105329132	1474615603017	1474615603067	BKSP	8
204404	2217121	The qualifying continues on the west side of town.	The qualifying continues on the west side of town.	105329136	1474615603297	1474615603354	.	190
204404	2217178	Your fax was busy for a while.	Your fax was busy for a while.	105329371	1474615607024	1474615607531	SHIFT	16
204404	2217178	Your fax was busy for a while.	Your fax was busy for a while.	105329370	1474615607401	1474615607471	Y	89
204404	2217178	Your fax was busy for a while.	Your fax was busy for a while.	105329372	1474615607771	1474615607927	o	79
204404	2217178	Your fax was busy for a while.	Your fax was busy for a while.	105329373	1474615607957	1474615608001	u	85
204404	2217178	Your fax was busy for a while.	Your fax was busy for a while.	105329374	1474615608121	1474615608247	t	84
204404	2217178	Your fax was busy for a while.	Your fax was busy for a while.	105329375	1474615608307	1474615608447	 	32
204404	2217178	Your fax was busy for a while.	Your fax was busy for a while.	105329534	1474615609024	1474615609075	BKSP	8
204404	2217178	Your fax was busy for a while.	Your fax was busy for a while.	105329539	1474615609155	1474615609202	BKSP	8
204404	2217178	Your fax was busy for a while.	Your fax was busy for a while.	105329542	1474615609232	1474615609295	BKSP	8
204404	2217178	Your fax was busy for a while.	Your fax was busy for a while.	105329545	1474615609406	1474615609512	r	82
204404	2217178	Your fax was busy for a while.	Your fax was busy for a while.	105329547	1474615609842	1474615609912	BKSP	8
204404	2217178	Your fax was busy for a while.	Your fax was busy for a while.	105329553	1474615610372	1474615610458	u	85
204404	2217178	Your fax was busy for a while.	Your fax was busy for a while.	105329559	1474615610618	1474615610698	t	84
204404	2217178	Your fax was busy for a while.	Your fax was busy for a while.	105329570	1474615611068	1474615611138	BKSP	8
204404	2217178	Your fax was busy for a while.	Your fax was busy for a while.	105329575	1474615611208	1474615611292	r	82
204404	2217178	Your fax was busy for a while.	Your fax was busy for a while.	105329684	1474615611282	1474615611422	 	32
204404	2217178	Your fax was busy for a while.	Your fax was busy for a while.	105329686	1474615611898	1474615612034	f	70
204404	2217178	Your fax was busy for a while.	Your fax was busy for a while.	105329689	1474615612005	1474615612162	a	65
204404	2217178	Your fax was busy for a while.	Your fax was busy for a while.	105329692	1474615612785	1474615612945	c	67
204404	2217178	Your fax was busy for a while.	Your fax was busy for a while.	105329694	1474615613379	1474615613455	BKSP	8
204404	2217178	Your fax was busy for a while.	Your fax was busy for a while.	105329812	1474615613495	1474615613624	s	88
204404	2217178	Your fax was busy for a while.	Your fax was busy for a while.	105329815	1474615613654	1474615613779	 	32
204404	2217178	Your fax was busy for a while.	Your fax was busy for a while.	105329818	1474615614265	1474615614308	BKSP	8
204404	2217178	Your fax was busy for a while.	Your fax was busy for a while.	105329819	1474615614388	1474615614465	BKSP	8
204404	2217178	Your fax was busy for a while.	Your fax was busy for a while.	105329821	1474615614587	1474615614725	 	32
204404	2217178	Your fax was busy for a while.	Your fax was busy for a while.	105329822	1474615615145	1474615615282	w	87
204404	2217178	Your fax was busy for a while.	Your fax was busy for a while.	105329825	1474615615312	1474615615475	a	65
204404	2217178	Your fax was busy for a while.	Your fax was busy for a while.	105329895	1474615615432	1474615615607	s	83
204404	2217178	Your fax was busy for a while.	Your fax was busy for a while.	105329898	1474615615607	1474615615738	 	32
204404	2217178	Your fax was busy for a while.	Your fax was busy for a while.	105329904	1474615616118	1474615616179	b	66
204404	2217178	Your fax was busy for a while.	Your fax was busy for a while.	105329913	1474615616299	1474615616402	u	85
204404	2217178	Your fax was busy for a while.	Your fax was busy for a while.	105329920	1474615616905	1474615617042	s	83
204404	2217178	Your fax was busy for a while.	Your fax was busy for a while.	105329927	1474615617142	1474615617215	y	89
204404	2217178	Your fax was busy for a while.	Your fax was busy for a while.	105329957	1474615617317	1474615617439	 	32
204404	2217178	Your fax was busy for a while.	Your fax was busy for a while.	105329958	1474615617709	1474615617822	f	70
204404	2217178	Your fax was busy for a while.	Your fax was busy for a while.	105329960	1474615617822	1474615617889	o	79
204404	2217178	Your fax was busy for a while.	Your fax was busy for a while.	105329965	1474615617969	1474615618089	r	82
204404	2217178	Your fax was busy for a while.	Your fax was busy for a while.	105329969	1474615618189	1474615618345	 	32
204404	2217178	Your fax was busy for a while.	Your fax was busy for a while.	105330100	1474615618616	1474615618729	a	65
204404	2217178	Your fax was busy for a while.	Your fax was busy for a while.	105330105	1474615618759	1474615618852	 	32
204404	2217178	Your fax was busy for a while.	Your fax was busy for a while.	105330110	1474615619562	1474615619689	w	87
204404	2217178	Your fax was busy for a while.	Your fax was busy for a while.	105330120	1474615619869	1474615619929	i	73
204404	2217178	Your fax was busy for a while.	Your fax was busy for a while.	105330127	1474615620442	1474615620505	BKSP	8
204404	2217178	Your fax was busy for a while.	Your fax was busy for a while.	105330132	1474615621169	1474615621249	h	72
204404	2217178	Your fax was busy for a while.	Your fax was busy for a while.	105330222	1474615621331	1474615621385	i	73
204404	2217178	Your fax was busy for a while.	Your fax was busy for a while.	105330224	1474615621575	1474615621639	l	76
204404	2217178	Your fax was busy for a while.	Your fax was busy for a while.	105330227	1474615622189	1474615622355	w	87
204404	2217178	Your fax was busy for a while.	Your fax was busy for a while.	105330231	1474615622425	1474615622515	,	188
204404	2217178	Your fax was busy for a while.	Your fax was busy for a while.	105330234	1474615622885	1474615622935	BKSP	8
204404	2217178	Your fax was busy for a while.	Your fax was busy for a while.	105330236	1474615623115	1474615623209	e	69
204404	2217178	Your fax was busy for a while.	Your fax was busy for a while.	105330306	1474615623491	1474615623535	BKSP	8
204404	2217178	Your fax was busy for a while.	Your fax was busy for a while.	105330308	1474615623665	1474615623752	BKSP	8
204404	2217178	Your fax was busy for a while.	Your fax was busy for a while.	105330314	1474615623812	1474615623939	e	69
204404	2217178	Your fax was busy for a while.	Your fax was busy for a while.	105330316	1474615624009	1474615624082	,	188
204404	2217178	Your fax was busy for a while.	Your fax was busy for a while.	105330319	1474615624585	1474615624645	BKSP	8
204404	2217178	Your fax was busy for a while.	Your fax was busy for a while.	105330321	1474615624825	1474615624874	.	190
204404	2217203	Mansell has not forgotten what the ovals have meant to him, however.	Man sell has not forgotten what the ovals have meant to him, however.	105330610	1474615628715	1474615629562	SHIFT	16
204404	2217203	Mansell has not forgotten what the ovals have meant to him, however.	Man sell has not forgotten what the ovals have meant to him, however.	105330606	1474615629399	1474615629472	M	77
204404	2217203	Mansell has not forgotten what the ovals have meant to him, however.	Man sell has not forgotten what the ovals have meant to him, however.	105330615	1474615629762	1474615629959	a	65
204404	2217203	Mansell has not forgotten what the ovals have meant to him, however.	Man sell has not forgotten what the ovals have meant to him, however.	105330619	1474615630602	1474615630672	n	78
204404	2217203	Mansell has not forgotten what the ovals have meant to him, however.	Man sell has not forgotten what the ovals have meant to him, however.	105330623	1474615630962	1474615631052	s	83
204404	2217203	Mansell has not forgotten what the ovals have meant to him, however.	Man sell has not forgotten what the ovals have meant to him, however.	105330625	1474615631152	1474615631242	e	69
204404	2217203	Mansell has not forgotten what the ovals have meant to him, however.	Man sell has not forgotten what the ovals have meant to him, however.	105330722	1474615631776	1474615631850	l	76
204404	2217203	Mansell has not forgotten what the ovals have meant to him, however.	Man sell has not forgotten what the ovals have meant to him, however.	105330724	1474615631940	1474615632026	l	76
204404	2217203	Mansell has not forgotten what the ovals have meant to him, however.	Man sell has not forgotten what the ovals have meant to him, however.	105330731	1474615633393	1474615633553	 	32
204404	2217203	Mansell has not forgotten what the ovals have meant to him, however.	Man sell has not forgotten what the ovals have meant to him, however.	105330736	1474615633923	1474615633990	h	72
204404	2217203	Mansell has not forgotten what the ovals have meant to him, however.	Man sell has not forgotten what the ovals have meant to him, however.	105330743	1474615634060	1474615634243	a	65
204404	2217203	Mansell has not forgotten what the ovals have meant to him, however.	Man sell has not forgotten what the ovals have meant to him, however.	105331029	1474615634253	1474615634343	 	32
204404	2217203	Mansell has not forgotten what the ovals have meant to him, however.	Man sell has not forgotten what the ovals have meant to him, however.	105331030	1474615634310	1474615634483	s	83
204404	2217203	Mansell has not forgotten what the ovals have meant to him, however.	Man sell has not forgotten what the ovals have meant to him, however.	105331032	1474615634824	1474615634875	BKSP	8
204404	2217203	Mansell has not forgotten what the ovals have meant to him, however.	Man sell has not forgotten what the ovals have meant to him, however.	105331033	1474615634956	1474615635083	BKSP	8
204404	2217203	Mansell has not forgotten what the ovals have meant to him, however.	Man sell has not forgotten what the ovals have meant to him, however.	105331036	1474615635173	1474615635230	BKSP	8
204404	2217203	Mansell has not forgotten what the ovals have meant to him, however.	Man sell has not forgotten what the ovals have meant to him, however.	105331041	1474615635300	1474615635339	BKSP	8
204404	2217203	Mansell has not forgotten what the ovals have meant to him, however.	Man sell has not forgotten what the ovals have meant to him, however.	105331046	1474615635422	1474615635460	BKSP	8
204404	2217203	Mansell has not forgotten what the ovals have meant to him, however.	Man sell has not forgotten what the ovals have meant to him, however.	105331050	1474615635560	1474615635603	BKSP	8
204404	2217203	Mansell has not forgotten what the ovals have meant to him, however.	Man sell has not forgotten what the ovals have meant to him, however.	105331059	1474615636403	1474615636483	BKSP	8
204404	2217203	Mansell has not forgotten what the ovals have meant to him, however.	Man sell has not forgotten what the ovals have meant to him, however.	105331062	1474615637266	1474615637323	BKSP	8
204404	2217203	Mansell has not forgotten what the ovals have meant to him, however.	Man sell has not forgotten what the ovals have meant to him, however.	105331065	1474615639630	1474615639766	e	69
204404	2217203	Mansell has not forgotten what the ovals have meant to him, however.	Man sell has not forgotten what the ovals have meant to him, however.	105331069	1474615639946	1474615640003	l	76
204404	2217203	Mansell has not forgotten what the ovals have meant to him, however.	Man sell has not forgotten what the ovals have meant to him, however.	105331072	1474615640073	1474615640140	l	76
204404	2217203	Mansell has not forgotten what the ovals have meant to him, however.	Man sell has not forgotten what the ovals have meant to him, however.	105331240	1474615640202	1474615640330	 	32
204404	2217203	Mansell has not forgotten what the ovals have meant to him, however.	Man sell has not forgotten what the ovals have meant to him, however.	105331243	1474615641320	1474615641370	BKSP	8
204404	2217203	Mansell has not forgotten what the ovals have meant to him, however.	Man sell has not forgotten what the ovals have meant to him, however.	105331246	1474615641500	1474615641563	BKSP	8
204404	2217203	Mansell has not forgotten what the ovals have meant to him, however.	Man sell has not forgotten what the ovals have meant to him, however.	105331248	1474615641683	1474615641780	BKSP	8
204404	2217203	Mansell has not forgotten what the ovals have meant to him, however.	Man sell has not forgotten what the ovals have meant to him, however.	105331251	1474615641860	1474615641933	BKSP	8
204404	2217203	Mansell has not forgotten what the ovals have meant to him, however.	Man sell has not forgotten what the ovals have meant to him, however.	105331256	1474615642003	1474615642283	BKSP	8
204404	2217203	Mansell has not forgotten what the ovals have meant to him, however.	Man sell has not forgotten what the ovals have meant to him, however.	105331259	1474615642363	1474615642480	BKSP	8
204404	2217203	Mansell has not forgotten what the ovals have meant to him, however.	Man sell has not forgotten what the ovals have meant to him, however.	105331269	1474615642480	1474615644063	SHIFT	16
204404	2217203	Mansell has not forgotten what the ovals have meant to him, however.	Man sell has not forgotten what the ovals have meant to him, however.	105331262	1474615642570	1474615642660	BKSP	8
204404	2217203	Mansell has not forgotten what the ovals have meant to him, however.	Man sell has not forgotten what the ovals have meant to him, however.	105331264	1474615642760	1474615642823	BKSP	8
204404	2217203	Mansell has not forgotten what the ovals have meant to him, however.	Man sell has not forgotten what the ovals have meant to him, however.	105331266	1474615643003	1474615643303	A	65
204404	2217203	Mansell has not forgotten what the ovals have meant to him, however.	Man sell has not forgotten what the ovals have meant to him, however.	105331267	1474615643563	1474615643623	BKSP	8
204404	2217203	Mansell has not forgotten what the ovals have meant to him, however.	Man sell has not forgotten what the ovals have meant to him, however.	105331268	1474615643803	1474615643883	M	77
204404	2217203	Mansell has not forgotten what the ovals have meant to him, however.	Man sell has not forgotten what the ovals have meant to him, however.	105331270	1474615644566	1474615644730	a	65
204404	2217203	Mansell has not forgotten what the ovals have meant to him, however.	Man sell has not forgotten what the ovals have meant to him, however.	105331271	1474615644780	1474615644856	n	78
204404	2217203	Mansell has not forgotten what the ovals have meant to him, however.	Man sell has not forgotten what the ovals have meant to him, however.	105331335	1474615645650	1474615645763	s	83
204404	2217203	Mansell has not forgotten what the ovals have meant to him, however.	Man sell has not forgotten what the ovals have meant to him, however.	105331338	1474615645843	1474615645933	e	69
204404	2217203	Mansell has not forgotten what the ovals have meant to him, however.	Man sell has not forgotten what the ovals have meant to him, however.	105331340	1474615646033	1474615646106	e	69
204404	2217203	Mansell has not forgotten what the ovals have meant to him, however.	Man sell has not forgotten what the ovals have meant to him, however.	105331344	1474615646456	1474615646533	BKSP	8
204404	2217203	Mansell has not forgotten what the ovals have meant to him, however.	Man sell has not forgotten what the ovals have meant to him, however.	105331349	1474615646743	1474615646816	l	76
204404	2217203	Mansell has not forgotten what the ovals have meant to him, however.	Man sell has not forgotten what the ovals have meant to him, however.	105331354	1474615646906	1474615647003	l	76
204404	2217203	Mansell has not forgotten what the ovals have meant to him, however.	Man sell has not forgotten what the ovals have meant to him, however.	105331575	1474615647105	1474615647230	 	32
204404	2217203	Mansell has not forgotten what the ovals have meant to him, however.	Man sell has not forgotten what the ovals have meant to him, however.	105331577	1474615647847	1474615647913	BKSP	8
204404	2217203	Mansell has not forgotten what the ovals have meant to him, however.	Man sell has not forgotten what the ovals have meant to him, however.	105331580	1474615648023	1474615648090	BKSP	8
204404	2217203	Mansell has not forgotten what the ovals have meant to him, however.	Man sell has not forgotten what the ovals have meant to him, however.	105331584	1474615648180	1474615648237	BKSP	8
204404	2217203	Mansell has not forgotten what the ovals have meant to him, however.	Man sell has not forgotten what the ovals have meant to him, however.	105331589	1474615648567	1474615648630	BKSP	8
204404	2217203	Mansell has not forgotten what the ovals have meant to him, however.	Man sell has not forgotten what the ovals have meant to him, however.	105331595	1474615648730	1474615648800	BKSP	8
204404	2217203	Mansell has not forgotten what the ovals have meant to him, however.	Man sell has not forgotten what the ovals have meant to him, however.	105331599	1474615648910	1474615649163	BKSP	8
204404	2217203	Mansell has not forgotten what the ovals have meant to him, however.	Man sell has not forgotten what the ovals have meant to him, however.	105331602	1474615649263	1474615649353	BKSP	8
204404	2217203	Mansell has not forgotten what the ovals have meant to him, however.	Man sell has not forgotten what the ovals have meant to him, however.	105331604	1474615649433	1474615649537	BKSP	8
204404	2217203	Mansell has not forgotten what the ovals have meant to him, however.	Man sell has not forgotten what the ovals have meant to him, however.	105331610	1474615650170	1474615650947	SHIFT	16
204404	2217203	Mansell has not forgotten what the ovals have meant to him, however.	Man sell has not forgotten what the ovals have meant to him, however.	105331607	1474615650490	1474615650557	M	77
204404	2217203	Mansell has not forgotten what the ovals have meant to him, however.	Man sell has not forgotten what the ovals have meant to him, however.	105331613	1474615651603	1474615651763	a	65
204404	2217203	Mansell has not forgotten what the ovals have meant to him, however.	Man sell has not forgotten what the ovals have meant to him, however.	105331616	1474615652487	1474615652587	n	78
204404	2217203	Mansell has not forgotten what the ovals have meant to him, however.	Man sell has not forgotten what the ovals have meant to him, however.	105331619	1474615653170	1474615653280	s	83
204404	2217203	Mansell has not forgotten what the ovals have meant to him, however.	Man sell has not forgotten what the ovals have meant to him, however.	105331667	1474615653392	1474615653467	e	69
204404	2217203	Mansell has not forgotten what the ovals have meant to him, however.	Man sell has not forgotten what the ovals have meant to him, however.	105331668	1474615653557	1474615653643	e	69
204404	2217203	Mansell has not forgotten what the ovals have meant to him, however.	Man sell has not forgotten what the ovals have meant to him, however.	105331669	1474615653723	1474615653820	l	76
204404	2217203	Mansell has not forgotten what the ovals have meant to him, however.	Man sell has not forgotten what the ovals have meant to him, however.	105331671	1474615654210	1474615654280	BKSP	8
204404	2217203	Mansell has not forgotten what the ovals have meant to him, however.	Man sell has not forgotten what the ovals have meant to him, however.	105331673	1474615654370	1474615654450	BKSP	8
204404	2217203	Mansell has not forgotten what the ovals have meant to him, however.	Man sell has not forgotten what the ovals have meant to him, however.	105331675	1474615654812	1474615654890	l	76
204404	2217203	Mansell has not forgotten what the ovals have meant to him, however.	Man sell has not forgotten what the ovals have meant to him, however.	105331677	1474615655021	1474615655080	l	76
204404	2217203	Mansell has not forgotten what the ovals have meant to him, however.	Man sell has not forgotten what the ovals have meant to him, however.	105331987	1474615655362	1474615655490	 	32
204404	2217203	Mansell has not forgotten what the ovals have meant to him, however.	Man sell has not forgotten what the ovals have meant to him, however.	105331990	1474615656027	1474615656070	BKSP	8
204404	2217203	Mansell has not forgotten what the ovals have meant to him, however.	Man sell has not forgotten what the ovals have meant to him, however.	105331995	1474615656180	1474615656247	BKSP	8
204404	2217203	Mansell has not forgotten what the ovals have meant to him, however.	Man sell has not forgotten what the ovals have meant to him, however.	105331998	1474615656397	1474615656483	BKSP	8
204404	2217203	Mansell has not forgotten what the ovals have meant to him, however.	Man sell has not forgotten what the ovals have meant to him, however.	105332003	1474615656583	1474615656647	BKSP	8
204404	2217203	Mansell has not forgotten what the ovals have meant to him, however.	Man sell has not forgotten what the ovals have meant to him, however.	105332008	1474615656748	1474615656793	BKSP	8
204404	2217203	Mansell has not forgotten what the ovals have meant to him, however.	Man sell has not forgotten what the ovals have meant to him, however.	105332012	1474615656903	1474615656931	BKSP	8
204404	2217203	Mansell has not forgotten what the ovals have meant to him, however.	Man sell has not forgotten what the ovals have meant to him, however.	105332016	1474615657093	1474615657177	BKSP	8
204404	2217203	Mansell has not forgotten what the ovals have meant to him, however.	Man sell has not forgotten what the ovals have meant to him, however.	105332023	1474615657451	1474615657633	BKSP	8
204404	2217203	Mansell has not forgotten what the ovals have meant to him, however.	Man sell has not forgotten what the ovals have meant to him, however.	105332035	1474615658910	1474615661500	SHIFT	16
204404	2217203	Mansell has not forgotten what the ovals have meant to him, however.	Man sell has not forgotten what the ovals have meant to him, however.	105332026	1474615659680	1474615659850	A	65
204404	2217203	Mansell has not forgotten what the ovals have meant to him, however.	Man sell has not forgotten what the ovals have meant to him, however.	105332029	1474615660210	1474615660280	BKSP	8
204404	2217203	Mansell has not forgotten what the ovals have meant to him, however.	Man sell has not forgotten what the ovals have meant to him, however.	105332033	1474615660730	1474615660797	M	77
204404	2217203	Mansell has not forgotten what the ovals have meant to him, however.	Man sell has not forgotten what the ovals have meant to him, however.	105332038	1474615661750	1474615661953	a	65
204404	2217203	Mansell has not forgotten what the ovals have meant to him, however.	Man sell has not forgotten what the ovals have meant to him, however.	105332041	1474615662457	1474615662583	n	78
204404	2217203	Mansell has not forgotten what the ovals have meant to him, however.	Man sell has not forgotten what the ovals have meant to him, however.	105332085	1474615662955	1474615663083	 	32
204404	2217203	Mansell has not forgotten what the ovals have meant to him, however.	Man sell has not forgotten what the ovals have meant to him, however.	105332087	1474615663593	1474615663697	s	83
204404	2217203	Mansell has not forgotten what the ovals have meant to him, however.	Man sell has not forgotten what the ovals have meant to him, however.	105332089	1474615663807	1474615663933	e	69
204404	2217203	Mansell has not forgotten what the ovals have meant to him, however.	Man sell has not forgotten what the ovals have meant to him, however.	105332091	1474615664093	1474615664158	l	76
204404	2217203	Mansell has not forgotten what the ovals have meant to him, however.	Man sell has not forgotten what the ovals have meant to him, however.	105332095	1474615664248	1474615664327	l	76
204404	2217203	Mansell has not forgotten what the ovals have meant to him, however.	Man sell has not forgotten what the ovals have meant to him, however.	105332148	1474615664389	1474615664537	 	32
204404	2217203	Mansell has not forgotten what the ovals have meant to him, however.	Man sell has not forgotten what the ovals have meant to him, however.	105332154	1474615665250	1474615665323	h	72
204404	2217203	Mansell has not forgotten what the ovals have meant to him, however.	Man sell has not forgotten what the ovals have meant to him, however.	105332161	1474615665373	1474615665530	a	65
204404	2217203	Mansell has not forgotten what the ovals have meant to him, however.	Man sell has not forgotten what the ovals have meant to him, however.	105332166	1474615665590	1474615665751	s	83
204404	2217203	Mansell has not forgotten what the ovals have meant to him, however.	Man sell has not forgotten what the ovals have meant to him, however.	105332170	1474615665781	1474615665927	 	32
204404	2217203	Mansell has not forgotten what the ovals have meant to him, however.	Man sell has not forgotten what the ovals have meant to him, however.	105332197	1474615666259	1474615666353	n	78
204404	2217203	Mansell has not forgotten what the ovals have meant to him, however.	Man sell has not forgotten what the ovals have meant to him, however.	105332199	1474615666393	1474615666487	o	79
204404	2217203	Mansell has not forgotten what the ovals have meant to him, however.	Man sell has not forgotten what the ovals have meant to him, however.	105332203	1474615666717	1474615666810	r	84
204404	2217203	Mansell has not forgotten what the ovals have meant to him, however.	Man sell has not forgotten what the ovals have meant to him, however.	105332206	1474615666890	1474615667043	 	32
204404	2217203	Mansell has not forgotten what the ovals have meant to him, however.	Man sell has not forgotten what the ovals have meant to him, however.	105332345	1474615667627	1474615667670	BKSP	8
204404	2217203	Mansell has not forgotten what the ovals have meant to him, however.	Man sell has not forgotten what the ovals have meant to him, however.	105332349	1474615667770	1474615667820	BKSP	8
204404	2217203	Mansell has not forgotten what the ovals have meant to him, however.	Man sell has not forgotten what the ovals have meant to him, however.	105332354	1474615667930	1474615667997	BKSP	8
204404	2217203	Mansell has not forgotten what the ovals have meant to him, however.	Man sell has not forgotten what the ovals have meant to him, however.	105332358	1474615668570	1474615668650	t	84
204404	2217203	Mansell has not forgotten what the ovals have meant to him, however.	Man sell has not forgotten what the ovals have meant to him, however.	105332366	1474615669010	1474615669172	 	32
204404	2217203	Mansell has not forgotten what the ovals have meant to him, however.	Man sell has not forgotten what the ovals have meant to him, however.	105332370	1474615669576	1474615669679	f	70
204404	2217203	Mansell has not forgotten what the ovals have meant to him, however.	Man sell has not forgotten what the ovals have meant to him, however.	105332375	1474615669759	1474615669812	o	79
204404	2217203	Mansell has not forgotten what the ovals have meant to him, however.	Man sell has not forgotten what the ovals have meant to him, however.	105332381	1474615669882	1474615670040	r	82
204404	2217203	Mansell has not forgotten what the ovals have meant to him, however.	Man sell has not forgotten what the ovals have meant to him, however.	105332457	1474615670469	1474615670579	g	71
204404	2217203	Mansell has not forgotten what the ovals have meant to him, however.	Man sell has not forgotten what the ovals have meant to him, however.	105332460	1474615670959	1474615671042	o	79
204404	2217203	Mansell has not forgotten what the ovals have meant to him, however.	Man sell has not forgotten what the ovals have meant to him, however.	105332465	1474615671192	1474615671306	t	84
204404	2217203	Mansell has not forgotten what the ovals have meant to him, however.	Man sell has not forgotten what the ovals have meant to him, however.	105332467	1474615671678	1474615671799	t	84
204404	2217203	Mansell has not forgotten what the ovals have meant to him, however.	Man sell has not forgotten what the ovals have meant to him, however.	105332469	1474615671939	1474615672026	e	69
204404	2217203	Mansell has not forgotten what the ovals have meant to him, however.	Man sell has not forgotten what the ovals have meant to him, however.	105332536	1474615672297	1474615672356	n	78
204404	2217203	Mansell has not forgotten what the ovals have meant to him, however.	Man sell has not forgotten what the ovals have meant to him, however.	105332539	1474615672506	1474615672622	 	32
204404	2217203	Mansell has not forgotten what the ovals have meant to him, however.	Man sell has not forgotten what the ovals have meant to him, however.	105332544	1474615672912	1474615673052	w	87
204404	2217203	Mansell has not forgotten what the ovals have meant to him, however.	Man sell has not forgotten what the ovals have meant to him, however.	105332547	1474615673113	1474615673302	a	65
204404	2217203	Mansell has not forgotten what the ovals have meant to him, however.	Man sell has not forgotten what the ovals have meant to him, however.	105332549	1474615673572	1474615673649	BKSP	8
204404	2217203	Mansell has not forgotten what the ovals have meant to him, however.	Man sell has not forgotten what the ovals have meant to him, however.	105332553	1474615673829	1474615673906	h	72
204404	2217203	Mansell has not forgotten what the ovals have meant to him, however.	Man sell has not forgotten what the ovals have meant to him, however.	105332605	1474615674057	1474615674226	a	65
204404	2217203	Mansell has not forgotten what the ovals have meant to him, however.	Man sell has not forgotten what the ovals have meant to him, however.	105332609	1474615674192	1474615674316	t	84
204404	2217203	Mansell has not forgotten what the ovals have meant to him, however.	Man sell has not forgotten what the ovals have meant to him, however.	105332612	1474615674376	1474615674509	 	32
204404	2217203	Mansell has not forgotten what the ovals have meant to him, however.	Man sell has not forgotten what the ovals have meant to him, however.	105332615	1474615674946	1474615675036	t	84
204404	2217203	Mansell has not forgotten what the ovals have meant to him, however.	Man sell has not forgotten what the ovals have meant to him, however.	105332618	1474615675056	1474615675122	h	72
204404	2217203	Mansell has not forgotten what the ovals have meant to him, however.	Man sell has not forgotten what the ovals have meant to him, however.	105332655	1474615675154	1474615675212	e	69
204404	2217203	Mansell has not forgotten what the ovals have meant to him, however.	Man sell has not forgotten what the ovals have meant to him, however.	105332659	1474615675232	1474615675346	 	32
204404	2217203	Mansell has not forgotten what the ovals have meant to him, however.	Man sell has not forgotten what the ovals have meant to him, however.	105332663	1474615675730	1474615675849	o	79
204404	2217203	Mansell has not forgotten what the ovals have meant to him, however.	Man sell has not forgotten what the ovals have meant to him, however.	105332668	1474615675889	1474615675926	u	85
204404	2217203	Mansell has not forgotten what the ovals have meant to him, however.	Man sell has not forgotten what the ovals have meant to him, however.	105332674	1474615676346	1474615676396	BKSP	8
204404	2217203	Mansell has not forgotten what the ovals have meant to him, however.	Man sell has not forgotten what the ovals have meant to him, however.	105332681	1474615676426	1474615676576	v	86
204404	2217203	Mansell has not forgotten what the ovals have meant to him, however.	Man sell has not forgotten what the ovals have meant to him, however.	105332745	1474615676958	1474615677072	a	65
204404	2217203	Mansell has not forgotten what the ovals have meant to him, however.	Man sell has not forgotten what the ovals have meant to him, however.	105332746	1474615677072	1474615677129	l	76
204404	2217203	Mansell has not forgotten what the ovals have meant to him, however.	Man sell has not forgotten what the ovals have meant to him, however.	105332747	1474615677329	1474615677476	s	83
204404	2217203	Mansell has not forgotten what the ovals have meant to him, however.	Man sell has not forgotten what the ovals have meant to him, however.	105332749	1474615677516	1474615677649	 	32
204404	2217203	Mansell has not forgotten what the ovals have meant to him, however.	Man sell has not forgotten what the ovals have meant to him, however.	105332752	1474615678019	1474615678089	h	72
204404	2217203	Mansell has not forgotten what the ovals have meant to him, however.	Man sell has not forgotten what the ovals have meant to him, however.	105332790	1474615678161	1474615678272	a	65
204404	2217203	Mansell has not forgotten what the ovals have meant to him, however.	Man sell has not forgotten what the ovals have meant to him, however.	105332792	1474615678452	1474615678600	v	86
204404	2217203	Mansell has not forgotten what the ovals have meant to him, however.	Man sell has not forgotten what the ovals have meant to him, however.	105332796	1474615678680	1474615678796	e	69
204404	2217203	Mansell has not forgotten what the ovals have meant to him, however.	Man sell has not forgotten what the ovals have meant to him, however.	105332800	1474615678826	1474615678956	 	32
204404	2217203	Mansell has not forgotten what the ovals have meant to him, however.	Man sell has not forgotten what the ovals have meant to him, however.	105332804	1474615679542	1474615679626	m	77
204404	2217203	Mansell has not forgotten what the ovals have meant to him, however.	Man sell has not forgotten what the ovals have meant to him, however.	105332856	1474615679708	1474615679833	e	69
204404	2217203	Mansell has not forgotten what the ovals have meant to him, however.	Man sell has not forgotten what the ovals have meant to him, however.	105332861	1474615679873	1474615680029	a	65
204404	2217203	Mansell has not forgotten what the ovals have meant to him, however.	Man sell has not forgotten what the ovals have meant to him, however.	105332865	1474615680209	1474615680272	n	78
204404	2217203	Mansell has not forgotten what the ovals have meant to him, however.	Man sell has not forgotten what the ovals have meant to him, however.	105332866	1474615680702	1474615680780	t	84
204404	2217203	Mansell has not forgotten what the ovals have meant to him, however.	Man sell has not forgotten what the ovals have meant to him, however.	105332867	1474615680900	1474615681042	 	32
204404	2217203	Mansell has not forgotten what the ovals have meant to him, however.	Man sell has not forgotten what the ovals have meant to him, however.	105332903	1474615681284	1474615681386	t	84
204404	2217203	Mansell has not forgotten what the ovals have meant to him, however.	Man sell has not forgotten what the ovals have meant to him, however.	105332905	1474615681386	1474615681466	o	79
204404	2217203	Mansell has not forgotten what the ovals have meant to him, however.	Man sell has not forgotten what the ovals have meant to him, however.	105332909	1474615681526	1474615681649	 	32
204404	2217203	Mansell has not forgotten what the ovals have meant to him, however.	Man sell has not forgotten what the ovals have meant to him, however.	105332911	1474615681819	1474615681889	h	72
204404	2217203	Mansell has not forgotten what the ovals have meant to him, however.	Man sell has not forgotten what the ovals have meant to him, however.	105332913	1474615681961	1474615682013	i	73
204404	2217203	Mansell has not forgotten what the ovals have meant to him, however.	Man sell has not forgotten what the ovals have meant to him, however.	105332966	1474615682125	1474615682199	m	77
204404	2217203	Mansell has not forgotten what the ovals have meant to him, however.	Man sell has not forgotten what the ovals have meant to him, however.	105332969	1474615682679	1474615682736	,	188
204404	2217203	Mansell has not forgotten what the ovals have meant to him, however.	Man sell has not forgotten what the ovals have meant to him, however.	105332973	1474615682976	1474615683109	 	32
204404	2217203	Mansell has not forgotten what the ovals have meant to him, however.	Man sell has not forgotten what the ovals have meant to him, however.	105332979	1474615683603	1474615683673	h	72
204404	2217203	Mansell has not forgotten what the ovals have meant to him, however.	Man sell has not forgotten what the ovals have meant to him, however.	105332984	1474615683793	1474615683873	o	79
204404	2217203	Mansell has not forgotten what the ovals have meant to him, however.	Man sell has not forgotten what the ovals have meant to him, however.	105333092	1474615684224	1474615684359	w	87
204404	2217203	Mansell has not forgotten what the ovals have meant to him, however.	Man sell has not forgotten what the ovals have meant to him, however.	105333095	1474615684489	1474615684626	e	69
204404	2217203	Mansell has not forgotten what the ovals have meant to him, however.	Man sell has not forgotten what the ovals have meant to him, however.	105333096	1474615684816	1474615684969	r	82
204404	2217203	Mansell has not forgotten what the ovals have meant to him, however.	Man sell has not forgotten what the ovals have meant to him, however.	105333100	1474615685696	1474615685756	BKSP	8
204404	2217203	Mansell has not forgotten what the ovals have meant to him, however.	Man sell has not forgotten what the ovals have meant to him, however.	105333103	1474615685786	1474615685946	v	86
204404	2217203	Mansell has not forgotten what the ovals have meant to him, however.	Man sell has not forgotten what the ovals have meant to him, however.	105333105	1474615686016	1474615686257	e	69
204404	2217203	Mansell has not forgotten what the ovals have meant to him, however.	Man sell has not forgotten what the ovals have meant to him, however.	105333141	1474615686209	1474615686370	r	82
204404	2217203	Mansell has not forgotten what the ovals have meant to him, however.	Man sell has not forgotten what the ovals have meant to him, however.	105333148	1474615686660	1474615686733	.	190
204404	2217255	It will all be public someday.	It will all be public someday.	105333331	1474615690423	1474615690686	SHIFT	16
204404	2217255	It will all be public someday.	It will all be public someday.	105333329	1474615690543	1474615690616	I	73
204404	2217255	It will all be public someday.	It will all be public someday.	105333333	1474615690896	1474615691013	t	84
204404	2217255	It will all be public someday.	It will all be public someday.	105333334	1474615691233	1474615691396	 	32
204404	2217255	It will all be public someday.	It will all be public someday.	105333335	1474615691649	1474615691776	w	87
204404	2217255	It will all be public someday.	It will all be public someday.	105333336	1474615691826	1474615691889	i	73
204404	2217255	It will all be public someday.	It will all be public someday.	105333388	1474615692050	1474615692113	l	76
204404	2217255	It will all be public someday.	It will all be public someday.	105333391	1474615692193	1474615692283	l	76
204404	2217255	It will all be public someday.	It will all be public someday.	105333393	1474615692363	1474615692489	 	32
204404	2217255	It will all be public someday.	It will all be public someday.	105333394	1474615692649	1474615692776	a	65
204404	2217255	It will all be public someday.	It will all be public someday.	105333395	1474615692826	1474615692869	k	75
204404	2217255	It will all be public someday.	It will all be public someday.	105333442	1474615693271	1474615693329	BKSP	8
204404	2217255	It will all be public someday.	It will all be public someday.	105333444	1474615693539	1474615693616	l	76
204404	2217255	It will all be public someday.	It will all be public someday.	105333446	1474615693706	1474615693783	l	76
204404	2217255	It will all be public someday.	It will all be public someday.	105333449	1474615693833	1474615693969	 	32
204404	2217255	It will all be public someday.	It will all be public someday.	105333452	1474615694139	1474615694196	b	66
204404	2217255	It will all be public someday.	It will all be public someday.	105333454	1474615694346	1474615694463	e	69
204404	2217255	It will all be public someday.	It will all be public someday.	105333524	1474615694535	1474615694656	 	32
204404	2217255	It will all be public someday.	It will all be public someday.	105333527	1474615694956	1474615695093	p	80
204404	2217255	It will all be public someday.	It will all be public someday.	105333531	1474615695143	1474615695196	u	85
204404	2217255	It will all be public someday.	It will all be public someday.	105333535	1474615695336	1474615695456	t	84
204404	2217255	It will all be public someday.	It will all be public someday.	105333540	1474615695856	1474615695913	BKSP	8
204404	2217255	It will all be public someday.	It will all be public someday.	105333544	1474615696123	1474615696179	b	66
204404	2217255	It will all be public someday.	It will all be public someday.	105333640	1474615696733	1474615696826	l	76
204404	2217255	It will all be public someday.	It will all be public someday.	105333643	1474615697026	1474615697059	o	79
204404	2217255	It will all be public someday.	It will all be public someday.	105333644	1474615697459	1474615697533	BKSP	8
204404	2217255	It will all be public someday.	It will all be public someday.	105333648	1474615697743	1474615697776	i	73
204404	2217255	It will all be public someday.	It will all be public someday.	105333652	1474615697916	1474615698089	c	67
204404	2217255	It will all be public someday.	It will all be public someday.	105333654	1474615698159	1474615698303	 	32
204404	2217255	It will all be public someday.	It will all be public someday.	105333722	1474615698665	1474615698769	s	83
204404	2217255	It will all be public someday.	It will all be public someday.	105333725	1474615698839	1474615698906	o	79
204404	2217255	It will all be public someday.	It will all be public someday.	105333728	1474615698996	1474615699073	m	77
204404	2217255	It will all be public someday.	It will all be public someday.	105333731	1474615699133	1474615699246	e	69
204404	2217255	It will all be public someday.	It will all be public someday.	105333735	1474615699849	1474615699983	d	68
204404	2217255	It will all be public someday.	It will all be public someday.	105333756	1474615700105	1474615700273	a	65
204404	2217255	It will all be public someday.	It will all be public someday.	105333757	1474615700343	1474615700416	y	89
204404	2217255	It will all be public someday.	It will all be public someday.	105333758	1474615700701	1474615700763	,	188
204404	2217255	It will all be public someday.	It will all be public someday.	105333759	1474615701273	1474615701329	BKSP	8
204404	2217255	It will all be public someday.	It will all be public someday.	105333760	1474615701539	1474615701596	.	190
204404	2217271	We controlled the race from the start and I'm satisfied.	We controlled the race from the start and I'm satisfied.	105334047	1474615705499	1474615706196	SHIFT	16
204404	2217271	We controlled the race from the start and I'm satisfied.	We controlled the race from the start and I'm satisfied.	105334051	1474615706043	1474615706216	W	87
204404	2217271	We controlled the race from the start and I'm satisfied.	We controlled the race from the start and I'm satisfied.	105334053	1474615707086	1474615707206	e	69
204404	2217271	We controlled the race from the start and I'm satisfied.	We controlled the race from the start and I'm satisfied.	105334055	1474615707396	1474615707543	 	32
204404	2217271	We controlled the race from the start and I'm satisfied.	We controlled the race from the start and I'm satisfied.	105334057	1474615708259	1474615708393	c	67
204404	2217271	We controlled the race from the start and I'm satisfied.	We controlled the race from the start and I'm satisfied.	105334059	1474615708533	1474615708596	o	79
204404	2217271	We controlled the race from the start and I'm satisfied.	We controlled the race from the start and I'm satisfied.	105334142	1474615709766	1474615709829	n	78
204404	2217271	We controlled the race from the start and I'm satisfied.	We controlled the race from the start and I'm satisfied.	105334145	1474615709969	1474615710089	t	84
204404	2217271	We controlled the race from the start and I'm satisfied.	We controlled the race from the start and I'm satisfied.	105334148	1474615710399	1474615710453	o	79
204404	2217271	We controlled the race from the start and I'm satisfied.	We controlled the race from the start and I'm satisfied.	105334151	1474615711009	1474615711057	l	76
204404	2217271	We controlled the race from the start and I'm satisfied.	We controlled the race from the start and I'm satisfied.	105334155	1474615711139	1474615711196	l	76
204404	2217271	We controlled the race from the start and I'm satisfied.	We controlled the race from the start and I'm satisfied.	105334211	1474615711999	1474615712073	e	69
204404	2217271	We controlled the race from the start and I'm satisfied.	We controlled the race from the start and I'm satisfied.	105334213	1474615712183	1474615712278	d	68
204404	2217271	We controlled the race from the start and I'm satisfied.	We controlled the race from the start and I'm satisfied.	105334214	1474615712288	1474615712403	 	32
204404	2217271	We controlled the race from the start and I'm satisfied.	We controlled the race from the start and I'm satisfied.	105334215	1474615712483	1474615712586	t	84
204404	2217271	We controlled the race from the start and I'm satisfied.	We controlled the race from the start and I'm satisfied.	105334217	1474615712646	1474615712696	h	72
204404	2217271	We controlled the race from the start and I'm satisfied.	We controlled the race from the start and I'm satisfied.	105334269	1474615712788	1474615712856	e	69
204404	2217271	We controlled the race from the start and I'm satisfied.	We controlled the race from the start and I'm satisfied.	105334271	1474615712876	1474615712996	 	32
204404	2217271	We controlled the race from the start and I'm satisfied.	We controlled the race from the start and I'm satisfied.	105334274	1474615713407	1474615713583	r	82
204404	2217271	We controlled the race from the start and I'm satisfied.	We controlled the race from the start and I'm satisfied.	105334277	1474615713583	1474615713736	e	69
204404	2217271	We controlled the race from the start and I'm satisfied.	We controlled the race from the start and I'm satisfied.	105334281	1474615713766	1474615713940	a	65
204404	2217271	We controlled the race from the start and I'm satisfied.	We controlled the race from the start and I'm satisfied.	105334599	1474615714329	1474615714529	c	67
204404	2217271	We controlled the race from the start and I'm satisfied.	We controlled the race from the start and I'm satisfied.	105334602	1474615714659	1474615714810	 	32
204404	2217271	We controlled the race from the start and I'm satisfied.	We controlled the race from the start and I'm satisfied.	105334606	1474615715663	1474615715713	BKSP	8
204404	2217271	We controlled the race from the start and I'm satisfied.	We controlled the race from the start and I'm satisfied.	105334612	1474615715843	1474615715916	BKSP	8
204404	2217271	We controlled the race from the start and I'm satisfied.	We controlled the race from the start and I'm satisfied.	105334618	1474615716016	1474615716060	BKSP	8
204404	2217271	We controlled the race from the start and I'm satisfied.	We controlled the race from the start and I'm satisfied.	105334624	1474615716390	1474615716456	BKSP	8
204404	2217271	We controlled the race from the start and I'm satisfied.	We controlled the race from the start and I'm satisfied.	105334628	1474615716556	1474615716629	BKSP	8
204404	2217271	We controlled the race from the start and I'm satisfied.	We controlled the race from the start and I'm satisfied.	105334631	1474615716908	1474615716973	BKSP	8
204404	2217271	We controlled the race from the start and I'm satisfied.	We controlled the race from the start and I'm satisfied.	105334634	1474615717073	1474615717097	BKSP	8
204404	2217271	We controlled the race from the start and I'm satisfied.	We controlled the race from the start and I'm satisfied.	105334637	1474615717189	1474615717256	BKSP	8
204404	2217271	We controlled the race from the start and I'm satisfied.	We controlled the race from the start and I'm satisfied.	105334639	1474615717356	1474615717440	BKSP	8
204404	2217271	We controlled the race from the start and I'm satisfied.	We controlled the race from the start and I'm satisfied.	105334641	1474615717520	1474615717600	BKSP	8
204404	2217271	We controlled the race from the start and I'm satisfied.	We controlled the race from the start and I'm satisfied.	105334642	1474615717700	1474615717753	BKSP	8
204404	2217271	We controlled the race from the start and I'm satisfied.	We controlled the race from the start and I'm satisfied.	105334645	1474615718870	1474615718930	BKSP	8
204404	2217271	We controlled the race from the start and I'm satisfied.	We controlled the race from the start and I'm satisfied.	105334650	1474615719060	1474615719133	BKSP	8
204404	2217271	We controlled the race from the start and I'm satisfied.	We controlled the race from the start and I'm satisfied.	105334654	1474615719213	1474615719293	BKSP	8
204404	2217271	We controlled the race from the start and I'm satisfied.	We controlled the race from the start and I'm satisfied.	105334658	1474615719393	1474615719473	BKSP	8
204404	2217271	We controlled the race from the start and I'm satisfied.	We controlled the race from the start and I'm satisfied.	105334662	1474615719593	1474615719713	r	82
204404	2217271	We controlled the race from the start and I'm satisfied.	We controlled the race from the start and I'm satisfied.	105334666	1474615720170	1474615720230	o	79
204404	2217271	We controlled the race from the start and I'm satisfied.	We controlled the race from the start and I'm satisfied.	105334669	1474615720590	1474615720656	l	76
204404	2217271	We controlled the race from the start and I'm satisfied.	We controlled the race from the start and I'm satisfied.	105334659	1474615720737	1474615720816	l	76
204404	2217271	We controlled the race from the start and I'm satisfied.	We controlled the race from the start and I'm satisfied.	105334661	1474615720936	1474615721016	e	69
204404	2217271	We controlled the race from the start and I'm satisfied.	We controlled the race from the start and I'm satisfied.	105334664	1474615721136	1474615721256	d	68
204404	2217271	We controlled the race from the start and I'm satisfied.	We controlled the race from the start and I'm satisfied.	105334667	1474615721286	1474615721406	 	32
204404	2217271	We controlled the race from the start and I'm satisfied.	We controlled the race from the start and I'm satisfied.	105334670	1474615721516	1474615721630	t	84
204404	2217271	We controlled the race from the start and I'm satisfied.	We controlled the race from the start and I'm satisfied.	105334697	1474615721652	1474615721713	h	72
204404	2217271	We controlled the race from the start and I'm satisfied.	We controlled the race from the start and I'm satisfied.	105334699	1474615721763	1474615721820	e	69
204404	2217271	We controlled the race from the start and I'm satisfied.	We controlled the race from the start and I'm satisfied.	105334701	1474615721850	1474615721983	 	32
204404	2217271	We controlled the race from the start and I'm satisfied.	We controlled the race from the start and I'm satisfied.	105334704	1474615722313	1474615722513	r	82
204404	2217271	We controlled the race from the start and I'm satisfied.	We controlled the race from the start and I'm satisfied.	105334708	1474615722513	1474615722720	a	65
204404	2217271	We controlled the race from the start and I'm satisfied.	We controlled the race from the start and I'm satisfied.	105334740	1474615722972	1474615723110	c	67
204404	2217271	We controlled the race from the start and I'm satisfied.	We controlled the race from the start and I'm satisfied.	105334743	1474615723543	1474615723636	e	69
204404	2217271	We controlled the race from the start and I'm satisfied.	We controlled the race from the start and I'm satisfied.	105334748	1474615723676	1474615723790	 	32
204404	2217271	We controlled the race from the start and I'm satisfied.	We controlled the race from the start and I'm satisfied.	105334752	1474615724040	1474615724166	f	70
204404	2217271	We controlled the race from the start and I'm satisfied.	We controlled the race from the start and I'm satisfied.	105334757	1474615724176	1474615724236	o	79
204404	2217271	We controlled the race from the start and I'm satisfied.	We controlled the race from the start and I'm satisfied.	105334794	1474615724368	1474615724450	r	82
204404	2217271	We controlled the race from the start and I'm satisfied.	We controlled the race from the start and I'm satisfied.	105334797	1474615724673	1474615724720	BKSP	8
204404	2217271	We controlled the race from the start and I'm satisfied.	We controlled the race from the start and I'm satisfied.	105334798	1474615724800	1474615724873	BKSP	8
204404	2217271	We controlled the race from the start and I'm satisfied.	We controlled the race from the start and I'm satisfied.	105334800	1474615724973	1474615725060	r	82
204404	2217271	We controlled the race from the start and I'm satisfied.	We controlled the race from the start and I'm satisfied.	105334802	1474615725160	1474615725223	o	79
204404	2217271	We controlled the race from the start and I'm satisfied.	We controlled the race from the start and I'm satisfied.	105334804	1474615725373	1474615725440	k	75
204404	2217271	We controlled the race from the start and I'm satisfied.	We controlled the race from the start and I'm satisfied.	105334806	1474615725852	1474615725921	=	187
204404	2217271	We controlled the race from the start and I'm satisfied.	We controlled the race from the start and I'm satisfied.	105334876	1474615726083	1474615726166	m	77
204404	2217271	We controlled the race from the start and I'm satisfied.	We controlled the race from the start and I'm satisfied.	105334878	1474615726526	1474615726576	BKSP	8
204404	2217271	We controlled the race from the start and I'm satisfied.	We controlled the race from the start and I'm satisfied.	105334881	1474615726686	1474615726756	BKSP	8
204404	2217271	We controlled the race from the start and I'm satisfied.	We controlled the race from the start and I'm satisfied.	105334883	1474615726876	1474615726960	BKSP	8
204404	2217271	We controlled the race from the start and I'm satisfied.	We controlled the race from the start and I'm satisfied.	105334885	1474615727159	1474615727213	m	77
204404	2217271	We controlled the race from the start and I'm satisfied.	We controlled the race from the start and I'm satisfied.	105334887	1474615727557	1474615727703	 	32
204404	2217271	We controlled the race from the start and I'm satisfied.	We controlled the race from the start and I'm satisfied.	105334893	1474615727993	1474615728056	t	84
204404	2217271	We controlled the race from the start and I'm satisfied.	We controlled the race from the start and I'm satisfied.	105334899	1474615728056	1474615728113	h	72
204404	2217271	We controlled the race from the start and I'm satisfied.	We controlled the race from the start and I'm satisfied.	105334952	1474615728154	1474615728233	e	69
204404	2217271	We controlled the race from the start and I'm satisfied.	We controlled the race from the start and I'm satisfied.	105334956	1474615728233	1474615728330	 	32
204404	2217271	We controlled the race from the start and I'm satisfied.	We controlled the race from the start and I'm satisfied.	105334958	1474615728660	1474615728813	a	65
204404	2217271	We controlled the race from the start and I'm satisfied.	We controlled the race from the start and I'm satisfied.	105334959	1474615729193	1474615729263	BKSP	8
204404	2217271	We controlled the race from the start and I'm satisfied.	We controlled the race from the start and I'm satisfied.	105334960	1474615729293	1474615729413	s	83
204404	2217271	We controlled the race from the start and I'm satisfied.	We controlled the race from the start and I'm satisfied.	105334961	1474615729453	1474615729583	t	84
204404	2217271	We controlled the race from the start and I'm satisfied.	We controlled the race from the start and I'm satisfied.	105335034	1474615729905	1474615730073	a	65
204404	2217271	We controlled the race from the start and I'm satisfied.	We controlled the race from the start and I'm satisfied.	105335036	1474615730073	1474615730240	r	82
204404	2217271	We controlled the race from the start and I'm satisfied.	We controlled the race from the start and I'm satisfied.	105335039	1474615730440	1474615730566	t	84
204404	2217271	We controlled the race from the start and I'm satisfied.	We controlled the race from the start and I'm satisfied.	105335042	1474615730776	1474615730932	 	32
204404	2217271	We controlled the race from the start and I'm satisfied.	We controlled the race from the start and I'm satisfied.	105335045	1474615731232	1474615731306	a	65
204404	2217271	We controlled the race from the start and I'm satisfied.	We controlled the race from the start and I'm satisfied.	105335133	1474615731306	1474615731363	n	78
204404	2217271	We controlled the race from the start and I'm satisfied.	We controlled the race from the start and I'm satisfied.	105335138	1474615731853	1474615732003	d	68
204404	2217271	We controlled the race from the start and I'm satisfied.	We controlled the race from the start and I'm satisfied.	105335144	1474615732003	1474615732133	 	32
204404	2217271	We controlled the race from the start and I'm satisfied.	We controlled the race from the start and I'm satisfied.	105335268	1474615732544	1474615733727	SHIFT	16
204404	2217271	We controlled the race from the start and I'm satisfied.	We controlled the race from the start and I'm satisfied.	105335148	1474615732736	1474615732796	O	79
204404	2217271	We controlled the race from the start and I'm satisfied.	We controlled the race from the start and I'm satisfied.	105335151	1474615733216	1474615733273	BKSP	8
204404	2217271	We controlled the race from the start and I'm satisfied.	We controlled the race from the start and I'm satisfied.	105335152	1474615733533	1474615733616	I	73
204404	2217271	We controlled the race from the start and I'm satisfied.	We controlled the race from the start and I'm satisfied.	105335272	1474615734876	1474615734990	'	222
204404	2217271	We controlled the race from the start and I'm satisfied.	We controlled the race from the start and I'm satisfied.	105335277	1474615735560	1474615735640	m	77
204404	2217271	We controlled the race from the start and I'm satisfied.	We controlled the race from the start and I'm satisfied.	105335282	1474615735880	1474615736020	 	32
204404	2217271	We controlled the race from the start and I'm satisfied.	We controlled the race from the start and I'm satisfied.	105335287	1474615736370	1474615736520	s	83
204404	2217271	We controlled the race from the start and I'm satisfied.	We controlled the race from the start and I'm satisfied.	105335290	1474615736730	1474615736876	a	65
204404	2217271	We controlled the race from the start and I'm satisfied.	We controlled the race from the start and I'm satisfied.	105335383	1474615737148	1474615737263	t	84
204404	2217271	We controlled the race from the start and I'm satisfied.	We controlled the race from the start and I'm satisfied.	105335387	1474615737393	1474615737473	i	73
204404	2217271	We controlled the race from the start and I'm satisfied.	We controlled the race from the start and I'm satisfied.	105335391	1474615737723	1474615737890	s	83
204404	2217271	We controlled the race from the start and I'm satisfied.	We controlled the race from the start and I'm satisfied.	105335396	1474615738503	1474615738603	f	70
204404	2217271	We controlled the race from the start and I'm satisfied.	We controlled the race from the start and I'm satisfied.	105335397	1474615739346	1474615739413	i	73
204404	2217271	We controlled the race from the start and I'm satisfied.	We controlled the race from the start and I'm satisfied.	105335425	1474615739555	1474615739643	e	69
204404	2217271	We controlled the race from the start and I'm satisfied.	We controlled the race from the start and I'm satisfied.	105335427	1474615739763	1474615739930	d	68
204404	2217271	We controlled the race from the start and I'm satisfied.	We controlled the race from the start and I'm satisfied.	105335429	1474615740150	1474615740223	.	190
204404	2217300	A definitive basic law will be drawn up within a year.	A definitive basic law will be drawn up within a year.	105335673	1474615743153	1474615744570	SHIFT	16
204404	2217300	A definitive basic law will be drawn up within a year.	A definitive basic law will be drawn up within a year.	105335677	1474615744700	1474615745230	SHIFT	16
204404	2217300	A definitive basic law will be drawn up within a year.	A definitive basic law will be drawn up within a year.	105335676	1474615745016	1474615745220	A	65
204404	2217300	A definitive basic law will be drawn up within a year.	A definitive basic law will be drawn up within a year.	105335680	1474615745623	1474615745730	 	32
204404	2217300	A definitive basic law will be drawn up within a year.	A definitive basic law will be drawn up within a year.	105335684	1474615746050	1474615746123	d	68
204404	2217300	A definitive basic law will be drawn up within a year.	A definitive basic law will be drawn up within a year.	105335687	1474615746213	1474615746313	e	69
204404	2217300	A definitive basic law will be drawn up within a year.	A definitive basic law will be drawn up within a year.	105335690	1474615746953	1474615747023	f	70
204404	2217300	A definitive basic law will be drawn up within a year.	A definitive basic law will be drawn up within a year.	105335732	1474615747055	1474615747113	i	73
204404	2217300	A definitive basic law will be drawn up within a year.	A definitive basic law will be drawn up within a year.	105335734	1474615747233	1474615747306	n	78
204404	2217300	A definitive basic law will be drawn up within a year.	A definitive basic law will be drawn up within a year.	105335738	1474615747736	1474615747816	i	73
204404	2217300	A definitive basic law will be drawn up within a year.	A definitive basic law will be drawn up within a year.	105335740	1474615747926	1474615747960	g	71
204404	2217300	A definitive basic law will be drawn up within a year.	A definitive basic law will be drawn up within a year.	105335743	1474615748379	1474615748457	BKSP	8
204404	2217300	A definitive basic law will be drawn up within a year.	A definitive basic law will be drawn up within a year.	105335745	1474615748497	1474615748593	t	84
204404	2217300	A definitive basic law will be drawn up within a year.	A definitive basic law will be drawn up within a year.	105335791	1474615749296	1474615749363	i	73
204404	2217300	A definitive basic law will be drawn up within a year.	A definitive basic law will be drawn up within a year.	105335795	1474615749423	1474615749540	v	86
204404	2217300	A definitive basic law will be drawn up within a year.	A definitive basic law will be drawn up within a year.	105335799	1474615749620	1474615749730	e	69
204404	2217300	A definitive basic law will be drawn up within a year.	A definitive basic law will be drawn up within a year.	105335802	1474615749800	1474615749957	 	32
204404	2217300	A definitive basic law will be drawn up within a year.	A definitive basic law will be drawn up within a year.	105335804	1474615750337	1474615750385	a	65
204404	2217300	A definitive basic law will be drawn up within a year.	A definitive basic law will be drawn up within a year.	105335853	1474615750738	1474615750817	BKSP	8
204404	2217300	A definitive basic law will be drawn up within a year.	A definitive basic law will be drawn up within a year.	105335855	1474615751029	1474615751080	b	66
204404	2217300	A definitive basic law will be drawn up within a year.	A definitive basic law will be drawn up within a year.	105335860	1474615751250	1474615751383	a	65
204404	2217300	A definitive basic law will be drawn up within a year.	A definitive basic law will be drawn up within a year.	105335863	1474615751493	1474615751617	s	83
204404	2217300	A definitive basic law will be drawn up within a year.	A definitive basic law will be drawn up within a year.	105335870	1474615751957	1474615752023	i	73
204404	2217300	A definitive basic law will be drawn up within a year.	A definitive basic law will be drawn up within a year.	105335875	1474615752073	1474615752160	c	67
204404	2217300	A definitive basic law will be drawn up within a year.	A definitive basic law will be drawn up within a year.	105335958	1474615752272	1474615752430	e	32
204404	2217300	A definitive basic law will be drawn up within a year.	A definitive basic law will be drawn up within a year.	105335960	1474615752820	1474615752890	l	76
204404	2217300	A definitive basic law will be drawn up within a year.	A definitive basic law will be drawn up within a year.	105335964	1474615753160	1474615753203	BKSP	8
204404	2217300	A definitive basic law will be drawn up within a year.	A definitive basic law will be drawn up within a year.	105335967	1474615753293	1474615753359	BKSP	8
204404	2217300	A definitive basic law will be drawn up within a year.	A definitive basic law will be drawn up within a year.	105335970	1474615753829	1474615753897	l	76
204404	2217300	A definitive basic law will be drawn up within a year.	A definitive basic law will be drawn up within a year.	105335972	1474615754177	1474615754320	a	65
204404	2217300	A definitive basic law will be drawn up within a year.	A definitive basic law will be drawn up within a year.	105336026	1474615754602	1474615754763	w	87
204404	2217300	A definitive basic law will be drawn up within a year.	A definitive basic law will be drawn up within a year.	105336028	1474615754813	1474615754953	 	32
204404	2217300	A definitive basic law will be drawn up within a year.	A definitive basic law will be drawn up within a year.	105336030	1474615755353	1474615755480	w	87
204404	2217300	A definitive basic law will be drawn up within a year.	A definitive basic law will be drawn up within a year.	105336033	1474615756017	1474615756063	i	73
204404	2217300	A definitive basic law will be drawn up within a year.	A definitive basic law will be drawn up within a year.	105336036	1474615756173	1474615756240	l	76
204404	2217300	A definitive basic law will be drawn up within a year.	A definitive basic law will be drawn up within a year.	105336093	1474615756272	1474615756400	l	76
204404	2217300	A definitive basic law will be drawn up within a year.	A definitive basic law will be drawn up within a year.	105336096	1474615756893	1474615757027	 	32
204404	2217300	A definitive basic law will be drawn up within a year.	A definitive basic law will be drawn up within a year.	105336102	1474615757409	1474615757473	b	66
204404	2217300	A definitive basic law will be drawn up within a year.	A definitive basic law will be drawn up within a year.	105336108	1474615757553	1474615757633	e	69
204404	2217300	A definitive basic law will be drawn up within a year.	A definitive basic law will be drawn up within a year.	105336114	1474615757713	1474615757833	 	32
204404	2217300	A definitive basic law will be drawn up within a year.	A definitive basic law will be drawn up within a year.	105336178	1474615758457	1474615758593	d	68
204404	2217300	A definitive basic law will be drawn up within a year.	A definitive basic law will be drawn up within a year.	105336180	1474615758663	1474615758703	a	65
204404	2217300	A definitive basic law will be drawn up within a year.	A definitive basic law will be drawn up within a year.	105336182	1474615759123	1474615759190	BKSP	8
204404	2217300	A definitive basic law will be drawn up within a year.	A definitive basic law will be drawn up within a year.	105336186	1474615759240	1474615759357	r	82
204404	2217300	A definitive basic law will be drawn up within a year.	A definitive basic law will be drawn up within a year.	105336190	1474615759447	1474615759557	a	65
204404	2217300	A definitive basic law will be drawn up within a year.	A definitive basic law will be drawn up within a year.	105336192	1474615759937	1474615760047	w	87
204404	2217300	A definitive basic law will be drawn up within a year.	A definitive basic law will be drawn up within a year.	105336218	1474615760069	1474615760150	n	78
204404	2217300	A definitive basic law will be drawn up within a year.	A definitive basic law will be drawn up within a year.	105336222	1474615760240	1474615760417	 	32
204404	2217300	A definitive basic law will be drawn up within a year.	A definitive basic law will be drawn up within a year.	105336226	1474615760907	1474615761013	u	85
204404	2217300	A definitive basic law will be drawn up within a year.	A definitive basic law will be drawn up within a year.	105336230	1474615761243	1474615761377	p	80
204404	2217300	A definitive basic law will be drawn up within a year.	A definitive basic law will be drawn up within a year.	105336236	1474615761513	1474615761670	 	32
204404	2217300	A definitive basic law will be drawn up within a year.	A definitive basic law will be drawn up within a year.	105336288	1474615762113	1474615762233	e	69
204404	2217300	A definitive basic law will be drawn up within a year.	A definitive basic law will be drawn up within a year.	105336289	1474615762633	1474615762690	i	73
204404	2217300	A definitive basic law will be drawn up within a year.	A definitive basic law will be drawn up within a year.	105336290	1474615762900	1474615762973	t	84
204404	2217300	A definitive basic law will be drawn up within a year.	A definitive basic law will be drawn up within a year.	105336291	1474615763063	1474615763143	h	72
204404	2217300	A definitive basic law will be drawn up within a year.	A definitive basic law will be drawn up within a year.	105336292	1474615763293	1474615763377	n	78
204404	2217300	A definitive basic law will be drawn up within a year.	A definitive basic law will be drawn up within a year.	105336402	1474615763468	1474615763580	g	71
204404	2217300	A definitive basic law will be drawn up within a year.	A definitive basic law will be drawn up within a year.	105336404	1474615764163	1474615764220	BKSP	8
204404	2217300	A definitive basic law will be drawn up within a year.	A definitive basic law will be drawn up within a year.	105336407	1474615764320	1474615764370	BKSP	8
204404	2217300	A definitive basic law will be drawn up within a year.	A definitive basic law will be drawn up within a year.	105336410	1474615764680	1474615764730	BKSP	8
204404	2217300	A definitive basic law will be drawn up within a year.	A definitive basic law will be drawn up within a year.	105336413	1474615764810	1474615764913	BKSP	8
204404	2217300	A definitive basic law will be drawn up within a year.	A definitive basic law will be drawn up within a year.	105336416	1474615765343	1474615765427	BKSP	8
204404	2217300	A definitive basic law will be drawn up within a year.	A definitive basic law will be drawn up within a year.	105336419	1474615765537	1474615765617	BKSP	8
204404	2217300	A definitive basic law will be drawn up within a year.	A definitive basic law will be drawn up within a year.	105336422	1474615765687	1474615765847	w	87
204404	2217300	A definitive basic law will be drawn up within a year.	A definitive basic law will be drawn up within a year.	105336426	1474615766167	1474615766241	i	73
204404	2217300	A definitive basic law will be drawn up within a year.	A definitive basic law will be drawn up within a year.	105336430	1474615766507	1474615766623	t	84
204404	2217300	A definitive basic law will be drawn up within a year.	A definitive basic law will be drawn up within a year.	105336436	1474615766683	1474615766747	h	72
204404	2217300	A definitive basic law will be drawn up within a year.	A definitive basic law will be drawn up within a year.	105336484	1474615766829	1474615766890	i	73
204404	2217300	A definitive basic law will be drawn up within a year.	A definitive basic law will be drawn up within a year.	105336485	1474615766960	1474615767010	n	78
204404	2217300	A definitive basic law will be drawn up within a year.	A definitive basic law will be drawn up within a year.	105336486	1474615767120	1474615767210	g	71
204404	2217300	A definitive basic law will be drawn up within a year.	A definitive basic law will be drawn up within a year.	105336488	1474615767823	1474615767900	BKSP	8
204404	2217300	A definitive basic law will be drawn up within a year.	A definitive basic law will be drawn up within a year.	105336490	1474615768010	1474615768143	 	32
204404	2217300	A definitive basic law will be drawn up within a year.	A definitive basic law will be drawn up within a year.	105336492	1474615768443	1474615768553	a	65
204404	2217300	A definitive basic law will be drawn up within a year.	A definitive basic law will be drawn up within a year.	105336608	1474615768497	1474615768635	 	32
204404	2217300	A definitive basic law will be drawn up within a year.	A definitive basic law will be drawn up within a year.	105336610	1474615768815	1474615768943	r	82
204404	2217300	A definitive basic law will be drawn up within a year.	A definitive basic law will be drawn up within a year.	105336612	1474615769433	1474615769610	e	69
204404	2217300	A definitive basic law will be drawn up within a year.	A definitive basic law will be drawn up within a year.	105336615	1474615769680	1474615769810	a	65
204404	2217300	A definitive basic law will be drawn up within a year.	A definitive basic law will be drawn up within a year.	105336619	1474615770110	1474615770143	y	89
204404	2217300	A definitive basic law will be drawn up within a year.	A definitive basic law will be drawn up within a year.	105336625	1474615770513	1474615770563	BKSP	8
204404	2217300	A definitive basic law will be drawn up within a year.	A definitive basic law will be drawn up within a year.	105336632	1474615770643	1474615770707	BKSP	8
204404	2217300	A definitive basic law will be drawn up within a year.	A definitive basic law will be drawn up within a year.	105336636	1474615770857	1474615770943	BKSP	8
204404	2217300	A definitive basic law will be drawn up within a year.	A definitive basic law will be drawn up within a year.	105336639	1474615771133	1474615771227	BKSP	8
204404	2217300	A definitive basic law will be drawn up within a year.	A definitive basic law will be drawn up within a year.	105336647	1474615771750	1474615771792	y	89
204404	2217300	A definitive basic law will be drawn up within a year.	A definitive basic law will be drawn up within a year.	105336686	1474615772115	1474615772300	e	69
204404	2217300	A definitive basic law will be drawn up within a year.	A definitive basic law will be drawn up within a year.	105336688	1474615772360	1474615772513	a	65
204404	2217300	A definitive basic law will be drawn up within a year.	A definitive basic law will be drawn up within a year.	105336692	1474615772533	1474615772617	r	82
204404	2217300	A definitive basic law will be drawn up within a year.	A definitive basic law will be drawn up within a year.	105336694	1474615772887	1474615772987	.	190
204404	2217324	Appointing Jeff as CFO is one important step in that process.	Appointing Jeff as CFO is one important step in that process.	105337738	1474615800848	1474615801461	SHIFT	16
204404	2217324	Appointing Jeff as CFO is one important step in that process.	Appointing Jeff as CFO is one important step in that process.	105337740	1474615801268	1474615801471	A	65
204404	2217324	Appointing Jeff as CFO is one important step in that process.	Appointing Jeff as CFO is one important step in that process.	105337744	1474615802501	1474615802585	p	80
204404	2217324	Appointing Jeff as CFO is one important step in that process.	Appointing Jeff as CFO is one important step in that process.	105337748	1474615802625	1474615802881	p	80
204404	2217324	Appointing Jeff as CFO is one important step in that process.	Appointing Jeff as CFO is one important step in that process.	105337753	1474615803395	1474615803478	o	79
204404	2217324	Appointing Jeff as CFO is one important step in that process.	Appointing Jeff as CFO is one important step in that process.	105337755	1474615803528	1474615803608	n	78
204404	2217324	Appointing Jeff as CFO is one important step in that process.	Appointing Jeff as CFO is one important step in that process.	105337817	1474615803890	1474615804025	i	73
204404	2217324	Appointing Jeff as CFO is one important step in that process.	Appointing Jeff as CFO is one important step in that process.	105337818	1474615804761	1474615804825	BKSP	8
204404	2217324	Appointing Jeff as CFO is one important step in that process.	Appointing Jeff as CFO is one important step in that process.	105337819	1474615804935	1474615805028	BKSP	8
204404	2217324	Appointing Jeff as CFO is one important step in that process.	Appointing Jeff as CFO is one important step in that process.	105337821	1474615805521	1474615805591	i	73
204404	2217324	Appointing Jeff as CFO is one important step in that process.	Appointing Jeff as CFO is one important step in that process.	105337825	1474615805641	1474615805708	n	78
204404	2217324	Appointing Jeff as CFO is one important step in that process.	Appointing Jeff as CFO is one important step in that process.	105337828	1474615806078	1474615806211	t	84
204404	2217324	Appointing Jeff as CFO is one important step in that process.	Appointing Jeff as CFO is one important step in that process.	105337832	1474615806241	1474615806298	h	72
204404	2217324	Appointing Jeff as CFO is one important step in that process.	Appointing Jeff as CFO is one important step in that process.	105337931	1474615806360	1474615806445	i	73
204404	2217324	Appointing Jeff as CFO is one important step in that process.	Appointing Jeff as CFO is one important step in that process.	105337934	1474615806485	1474615806568	n	78
204404	2217324	Appointing Jeff as CFO is one important step in that process.	Appointing Jeff as CFO is one important step in that process.	105337937	1474615806648	1474615806758	g	71
204404	2217324	Appointing Jeff as CFO is one important step in that process.	Appointing Jeff as CFO is one important step in that process.	105337944	1474615807138	1474615807295	 	32
204404	2217324	Appointing Jeff as CFO is one important step in that process.	Appointing Jeff as CFO is one important step in that process.	105337946	1474615808111	1474615808175	BKSP	8
204404	2217324	Appointing Jeff as CFO is one important step in that process.	Appointing Jeff as CFO is one important step in that process.	105337952	1474615808245	1474615808308	BKSP	8
204404	2217324	Appointing Jeff as CFO is one important step in that process.	Appointing Jeff as CFO is one important step in that process.	105337958	1474615808448	1474615808489	BKSP	8
204404	2217324	Appointing Jeff as CFO is one important step in that process.	Appointing Jeff as CFO is one important step in that process.	105337961	1474615808655	1474615808745	BKSP	8
204404	2217324	Appointing Jeff as CFO is one important step in that process.	Appointing Jeff as CFO is one important step in that process.	105337964	1474615808825	1474615808921	BKSP	8
204404	2217324	Appointing Jeff as CFO is one important step in that process.	Appointing Jeff as CFO is one important step in that process.	105337967	1474615809441	1474615809528	i	73
204404	2217324	Appointing Jeff as CFO is one important step in that process.	Appointing Jeff as CFO is one important step in that process.	105338015	1474615809580	1474615809621	n	78
204404	2217324	Appointing Jeff as CFO is one important step in that process.	Appointing Jeff as CFO is one important step in that process.	105338017	1474615809821	1474615809931	g	71
204404	2217324	Appointing Jeff as CFO is one important step in that process.	Appointing Jeff as CFO is one important step in that process.	105338020	1474615810061	1474615810205	 	32
204404	2217324	Appointing Jeff as CFO is one important step in that process.	Appointing Jeff as CFO is one important step in that process.	105338022	1474615810745	1474615810805	h	72
204404	2217324	Appointing Jeff as CFO is one important step in that process.	Appointing Jeff as CFO is one important step in that process.	105338026	1474615811105	1474615811175	BKSP	8
204404	2217324	Appointing Jeff as CFO is one important step in that process.	Appointing Jeff as CFO is one important step in that process.	105338138	1474615811255	1474615811465	SHIFT	16
204404	2217324	Appointing Jeff as CFO is one important step in that process.	Appointing Jeff as CFO is one important step in that process.	105338031	1474615811365	1474615811401	H	72
204404	2217324	Appointing Jeff as CFO is one important step in that process.	Appointing Jeff as CFO is one important step in that process.	105338139	1474615811995	1474615812058	BKSP	8
204404	2217324	Appointing Jeff as CFO is one important step in that process.	Appointing Jeff as CFO is one important step in that process.	105338141	1474615812078	1474615812401	SHIFT	16
204404	2217324	Appointing Jeff as CFO is one important step in that process.	Appointing Jeff as CFO is one important step in that process.	105338140	1474615812218	1474615812281	J	74
204404	2217324	Appointing Jeff as CFO is one important step in that process.	Appointing Jeff as CFO is one important step in that process.	105338142	1474615812671	1474615812821	e	69
204404	2217324	Appointing Jeff as CFO is one important step in that process.	Appointing Jeff as CFO is one important step in that process.	105338143	1474615813305	1474615813395	f	70
204404	2217324	Appointing Jeff as CFO is one important step in that process.	Appointing Jeff as CFO is one important step in that process.	105338144	1474615813465	1474615813581	f	70
204404	2217324	Appointing Jeff as CFO is one important step in that process.	Appointing Jeff as CFO is one important step in that process.	105338145	1474615813651	1474615813855	 	32
204404	2217324	Appointing Jeff as CFO is one important step in that process.	Appointing Jeff as CFO is one important step in that process.	105338231	1474615814027	1474615814161	a	65
204404	2217324	Appointing Jeff as CFO is one important step in that process.	Appointing Jeff as CFO is one important step in that process.	105338233	1474615814191	1474615814298	s	83
204404	2217324	Appointing Jeff as CFO is one important step in that process.	Appointing Jeff as CFO is one important step in that process.	105338236	1474615814318	1474615814441	 	32
204404	2217324	Appointing Jeff as CFO is one important step in that process.	Appointing Jeff as CFO is one important step in that process.	105338238	1474615814841	1474615815345	SHIFT	16
204404	2217324	Appointing Jeff as CFO is one important step in that process.	Appointing Jeff as CFO is one important step in that process.	105338240	1474615815145	1474615815345	C	67
204404	2217324	Appointing Jeff as CFO is one important step in that process.	Appointing Jeff as CFO is one important step in that process.	105338328	1474615815952	1474615816673	SHIFT	16
204404	2217324	Appointing Jeff as CFO is one important step in that process.	Appointing Jeff as CFO is one important step in that process.	105338242	1474615816472	1474615816632	F	70
204404	2217324	Appointing Jeff as CFO is one important step in that process.	Appointing Jeff as CFO is one important step in that process.	105338332	1474615816833	1474615816901	o	79
204404	2217324	Appointing Jeff as CFO is one important step in that process.	Appointing Jeff as CFO is one important step in that process.	105338335	1474615817021	1474615817158	 	32
204404	2217324	Appointing Jeff as CFO is one important step in that process.	Appointing Jeff as CFO is one important step in that process.	105338337	1474615817568	1474615817632	BKSP	8
204404	2217324	Appointing Jeff as CFO is one important step in that process.	Appointing Jeff as CFO is one important step in that process.	105338338	1474615817702	1474615817765	BKSP	8
204404	2217324	Appointing Jeff as CFO is one important step in that process.	Appointing Jeff as CFO is one important step in that process.	105338341	1474615817835	1474615818362	SHIFT	16
204404	2217324	Appointing Jeff as CFO is one important step in that process.	Appointing Jeff as CFO is one important step in that process.	105338339	1474615818167	1474615818332	O	79
204404	2217324	Appointing Jeff as CFO is one important step in that process.	Appointing Jeff as CFO is one important step in that process.	105338343	1474615818432	1474615818552	 	32
204404	2217324	Appointing Jeff as CFO is one important step in that process.	Appointing Jeff as CFO is one important step in that process.	105338347	1474615818882	1474615818958	i	73
204404	2217324	Appointing Jeff as CFO is one important step in that process.	Appointing Jeff as CFO is one important step in that process.	105338364	1474615818999	1474615819128	s	83
204404	2217324	Appointing Jeff as CFO is one important step in that process.	Appointing Jeff as CFO is one important step in that process.	105338365	1474615819128	1474615819232	 	32
204404	2217324	Appointing Jeff as CFO is one important step in that process.	Appointing Jeff as CFO is one important step in that process.	105338367	1474615819612	1474615819689	o	79
204404	2217324	Appointing Jeff as CFO is one important step in that process.	Appointing Jeff as CFO is one important step in that process.	105338370	1474615819722	1474615819792	n	78
204404	2217324	Appointing Jeff as CFO is one important step in that process.	Appointing Jeff as CFO is one important step in that process.	105338374	1474615819852	1474615819945	e	69
204404	2217324	Appointing Jeff as CFO is one important step in that process.	Appointing Jeff as CFO is one important step in that process.	105338455	1474615819976	1474615820112	 	32
204404	2217324	Appointing Jeff as CFO is one important step in that process.	Appointing Jeff as CFO is one important step in that process.	105338459	1474615820472	1474615820562	i	73
204404	2217324	Appointing Jeff as CFO is one important step in that process.	Appointing Jeff as CFO is one important step in that process.	105338464	1474615820652	1474615820715	n	78
204404	2217324	Appointing Jeff as CFO is one important step in that process.	Appointing Jeff as CFO is one important step in that process.	105338467	1474615821136	1474615821188	BKSP	8
204404	2217324	Appointing Jeff as CFO is one important step in that process.	Appointing Jeff as CFO is one important step in that process.	105338471	1474615821368	1474615821432	m	77
204404	2217324	Appointing Jeff as CFO is one important step in that process.	Appointing Jeff as CFO is one important step in that process.	105338476	1474615822025	1474615822142	p	80
204404	2217324	Appointing Jeff as CFO is one important step in that process.	Appointing Jeff as CFO is one important step in that process.	105338603	1474615822415	1474615822616	a	65
204404	2217324	Appointing Jeff as CFO is one important step in that process.	Appointing Jeff as CFO is one important step in that process.	105338605	1474615822856	1474615822925	BKSP	8
204404	2217324	Appointing Jeff as CFO is one important step in that process.	Appointing Jeff as CFO is one important step in that process.	105338609	1474615823025	1474615823112	r	82
204404	2217324	Appointing Jeff as CFO is one important step in that process.	Appointing Jeff as CFO is one important step in that process.	105338613	1474615823595	1474615823679	BKSP	8
204404	2217324	Appointing Jeff as CFO is one important step in that process.	Appointing Jeff as CFO is one important step in that process.	105338615	1474615825095	1474615825168	o	79
204404	2217324	Appointing Jeff as CFO is one important step in that process.	Appointing Jeff as CFO is one important step in that process.	105338616	1474615825308	1474615825465	r	82
204404	2217324	Appointing Jeff as CFO is one important step in that process.	Appointing Jeff as CFO is one important step in that process.	105338617	1474615825805	1474615825965	t	84
204404	2217324	Appointing Jeff as CFO is one important step in that process.	Appointing Jeff as CFO is one important step in that process.	105338731	1474615826942	1474615827108	a	65
204404	2217324	Appointing Jeff as CFO is one important step in that process.	Appointing Jeff as CFO is one important step in that process.	105338734	1474615827108	1474615827155	n	78
204404	2217324	Appointing Jeff as CFO is one important step in that process.	Appointing Jeff as CFO is one important step in that process.	105338737	1474615828008	1474615828115	t	84
204404	2217324	Appointing Jeff as CFO is one important step in that process.	Appointing Jeff as CFO is one important step in that process.	105338738	1474615828225	1474615828332	 	32
204404	2217324	Appointing Jeff as CFO is one important step in that process.	Appointing Jeff as CFO is one important step in that process.	105338739	1474615828622	1474615828762	s	83
204404	2217324	Appointing Jeff as CFO is one important step in that process.	Appointing Jeff as CFO is one important step in that process.	105338792	1474615828804	1474615828905	t	84
204404	2217324	Appointing Jeff as CFO is one important step in that process.	Appointing Jeff as CFO is one important step in that process.	105338795	1474615829227	1474615829302	e	69
204404	2217324	Appointing Jeff as CFO is one important step in that process.	Appointing Jeff as CFO is one important step in that process.	105338799	1474615829632	1474615829778	p	80
204404	2217324	Appointing Jeff as CFO is one important step in that process.	Appointing Jeff as CFO is one important step in that process.	105338802	1474615829848	1474615829998	 	32
204404	2217324	Appointing Jeff as CFO is one important step in that process.	Appointing Jeff as CFO is one important step in that process.	105338804	1474615830208	1474615830305	i	73
204404	2217324	Appointing Jeff as CFO is one important step in that process.	Appointing Jeff as CFO is one important step in that process.	105338838	1474615830337	1474615830418	n	78
204404	2217324	Appointing Jeff as CFO is one important step in that process.	Appointing Jeff as CFO is one important step in that process.	105338840	1474615830468	1474615830622	 	32
204404	2217324	Appointing Jeff as CFO is one important step in that process.	Appointing Jeff as CFO is one important step in that process.	105338842	1474615830822	1474615830882	t	84
204404	2217324	Appointing Jeff as CFO is one important step in that process.	Appointing Jeff as CFO is one important step in that process.	105338844	1474615830942	1474615830988	h	72
204404	2217324	Appointing Jeff as CFO is one important step in that process.	Appointing Jeff as CFO is one important step in that process.	105338846	1474615831512	1474615831655	a	65
204404	2217324	Appointing Jeff as CFO is one important step in that process.	Appointing Jeff as CFO is one important step in that process.	105338952	1474615831707	1474615831815	t	84
204404	2217324	Appointing Jeff as CFO is one important step in that process.	Appointing Jeff as CFO is one important step in that process.	105338954	1474615833202	1474615833255	 	32
204404	2217324	Appointing Jeff as CFO is one important step in that process.	Appointing Jeff as CFO is one important step in that process.	105338956	1474615833828	1474615833952	p	80
204404	2217324	Appointing Jeff as CFO is one important step in that process.	Appointing Jeff as CFO is one important step in that process.	105338958	1474615834002	1474615834155	r	82
204404	2217324	Appointing Jeff as CFO is one important step in that process.	Appointing Jeff as CFO is one important step in that process.	105338960	1474615834485	1474615834538	o	79
204404	2217324	Appointing Jeff as CFO is one important step in that process.	Appointing Jeff as CFO is one important step in that process.	105339033	1474615835262	1474615835345	c	67
204404	2217324	Appointing Jeff as CFO is one important step in that process.	Appointing Jeff as CFO is one important step in that process.	105339035	1474615835687	1474615835768	e	69
204404	2217324	Appointing Jeff as CFO is one important step in that process.	Appointing Jeff as CFO is one important step in that process.	105339038	1474615836582	1474615836672	s	83
204404	2217324	Appointing Jeff as CFO is one important step in that process.	Appointing Jeff as CFO is one important step in that process.	105339040	1474615836752	1474615836825	s	83
204404	2217324	Appointing Jeff as CFO is one important step in that process.	Appointing Jeff as CFO is one important step in that process.	105339043	1474615836925	1474615837002	.	190
204404	2217370	Would you mind taking the lead on this?	Would you mind taking the lead on this?	105339318	1474615841425	1474615841958	SHIFT	16
204404	2217370	Would you mind taking the lead on this?	Would you mind taking the lead on this?	105339313	1474615841795	1474615841928	W	87
204404	2217370	Would you mind taking the lead on this?	Would you mind taking the lead on this?	105339323	1474615842118	1474615842192	o	79
204404	2217370	Would you mind taking the lead on this?	Would you mind taking the lead on this?	105339326	1474615842312	1474615842432	l	76
204404	2217370	Would you mind taking the lead on this?	Would you mind taking the lead on this?	105339331	1474615842965	1474615843025	BKSP	8
204404	2217370	Would you mind taking the lead on this?	Would you mind taking the lead on this?	105339334	1474615843465	1474615843545	u	85
204404	2217370	Would you mind taking the lead on this?	Would you mind taking the lead on this?	105339338	1474615843636	1474615843779	l	76
204404	2217370	Would you mind taking the lead on this?	Would you mind taking the lead on this?	105339582	1474615843901	1474615844000	 	32
204404	2217370	Would you mind taking the lead on this?	Would you mind taking the lead on this?	105339583	1474615844899	1474615844966	BKSP	8
204404	2217370	Would you mind taking the lead on this?	Would you mind taking the lead on this?	105339584	1474615845076	1474615845193	d	68
204404	2217370	Would you mind taking the lead on this?	Would you mind taking the lead on this?	105339586	1474615845303	1474615845466	 	32
204404	2217370	Would you mind taking the lead on this?	Would you mind taking the lead on this?	105339588	1474615846786	1474615846826	y	89
204404	2217370	Would you mind taking the lead on this?	Would you mind taking the lead on this?	105339590	1474615850313	1474615850453	o	79
204404	2217370	Would you mind taking the lead on this?	Would you mind taking the lead on this?	105339718	1474615850485	1474615850550	u	89
204404	2217370	Would you mind taking the lead on this?	Would you mind taking the lead on this?	105339725	1474615851093	1474615851160	BKSP	8
204404	2217370	Would you mind taking the lead on this?	Would you mind taking the lead on this?	105339731	1474615851230	1474615851313	BKSP	8
204404	2217370	Would you mind taking the lead on this?	Would you mind taking the lead on this?	105339737	1474615852480	1474615852533	u	85
204404	2217370	Would you mind taking the lead on this?	Would you mind taking the lead on this?	105339742	1474615852923	1474615853066	 	32
204404	2217370	Would you mind taking the lead on this?	Would you mind taking the lead on this?	105339748	1474615853474	1474615853553	m	77
204404	2217370	Would you mind taking the lead on this?	Would you mind taking the lead on this?	105339816	1474615853644	1474615853750	i	73
204404	2217370	Would you mind taking the lead on this?	Would you mind taking the lead on this?	105339817	1474615853820	1474615853913	n	78
204404	2217370	Would you mind taking the lead on this?	Would you mind taking the lead on this?	105339818	1474615854003	1474615854136	g	71
204404	2217370	Would you mind taking the lead on this?	Would you mind taking the lead on this?	105339819	1474615854216	1474615854283	 	32
204404	2217370	Would you mind taking the lead on this?	Would you mind taking the lead on this?	105339821	1474615854930	1474615855000	BKSP	8
204404	2217370	Would you mind taking the lead on this?	Would you mind taking the lead on this?	105339823	1474615855120	1474615855233	d	68
204404	2217370	Would you mind taking the lead on this?	Would you mind taking the lead on this?	105339981	1474615855285	1474615855400	 	32
204404	2217370	Would you mind taking the lead on this?	Would you mind taking the lead on this?	105339983	1474615856303	1474615856366	BKSP	8
204404	2217370	Would you mind taking the lead on this?	Would you mind taking the lead on this?	105339985	1474615856456	1474615856466	BKSP	8
204404	2217370	Would you mind taking the lead on this?	Would you mind taking the lead on this?	105339988	1474615856636	1474615856690	BKSP	8
204404	2217370	Would you mind taking the lead on this?	Would you mind taking the lead on this?	105339991	1474615856790	1474615856960	d	68
204404	2217370	Would you mind taking the lead on this?	Would you mind taking the lead on this?	105339994	1474615858076	1474615858113	 	32
204404	2217370	Would you mind taking the lead on this?	Would you mind taking the lead on this?	105339998	1474615858833	1474615858970	t	84
204404	2217370	Would you mind taking the lead on this?	Would you mind taking the lead on this?	105340000	1474615859140	1474615859310	a	65
204404	2217370	Would you mind taking the lead on this?	Would you mind taking the lead on this?	105340011	1474615859512	1474615859583	k	75
204404	2217370	Would you mind taking the lead on this?	Would you mind taking the lead on this?	105340014	1474615859673	1474615859753	i	73
204404	2217370	Would you mind taking the lead on this?	Would you mind taking the lead on this?	105340020	1474615859793	1474615859880	n	78
204404	2217370	Would you mind taking the lead on this?	Would you mind taking the lead on this?	105340024	1474615859960	1474615860076	g	71
204404	2217370	Would you mind taking the lead on this?	Would you mind taking the lead on this?	105340029	1474615860136	1474615860280	 	32
204404	2217370	Would you mind taking the lead on this?	Would you mind taking the lead on this?	105340079	1474615860662	1474615860756	t	84
204404	2217370	Would you mind taking the lead on this?	Would you mind taking the lead on this?	105340083	1474615860756	1474615860816	h	72
204404	2217370	Would you mind taking the lead on this?	Would you mind taking the lead on this?	105340088	1474615860855	1474615860945	e	69
204404	2217370	Would you mind taking the lead on this?	Would you mind taking the lead on this?	105340092	1474615860945	1474615861059	 	32
204404	2217370	Would you mind taking the lead on this?	Would you mind taking the lead on this?	105340094	1474615861399	1474615861469	l	76
204404	2217370	Would you mind taking the lead on this?	Would you mind taking the lead on this?	105340174	1474615861510	1474615861665	e	69
204404	2217370	Would you mind taking the lead on this?	Would you mind taking the lead on this?	105340178	1474615861715	1474615861953	a	65
204404	2217370	Would you mind taking the lead on this?	Would you mind taking the lead on this?	105340181	1474615861983	1474615862122	d	68
204404	2217370	Would you mind taking the lead on this?	Would you mind taking the lead on this?	105340183	1474615862549	1474615862629	o	79
204404	2217370	Would you mind taking the lead on this?	Would you mind taking the lead on this?	105340185	1474615863113	1474615863155	=	8
204404	2217370	Would you mind taking the lead on this?	Would you mind taking the lead on this?	105340321	1474615863297	1474615863415	d	68
204404	2217370	Would you mind taking the lead on this?	Would you mind taking the lead on this?	105340324	1474615863678	1474615863742	BKSP	8
204404	2217370	Would you mind taking the lead on this?	Would you mind taking the lead on this?	105340327	1474615863812	1474615863885	BKSP	8
204404	2217370	Would you mind taking the lead on this?	Would you mind taking the lead on this?	105340329	1474615864459	1474615864605	 	32
204404	2217370	Would you mind taking the lead on this?	Would you mind taking the lead on this?	105340331	1474615865115	1474615865212	i	73
204404	2217370	Would you mind taking the lead on this?	Would you mind taking the lead on this?	105340333	1474615865302	1474615865355	b	66
204404	2217370	Would you mind taking the lead on this?	Would you mind taking the lead on this?	105340335	1474615865745	1474615865799	BKSP	8
204404	2217370	Would you mind taking the lead on this?	Would you mind taking the lead on this?	105340337	1474615865879	1474615865929	BKSP	8
204404	2217370	Would you mind taking the lead on this?	Would you mind taking the lead on this?	105340339	1474615867359	1474615867425	o	79
204404	2217370	Would you mind taking the lead on this?	Would you mind taking the lead on this?	105340431	1474615867567	1474615867612	n	78
204404	2217370	Would you mind taking the lead on this?	Would you mind taking the lead on this?	105340433	1474615867802	1474615867895	 	32
204404	2217370	Would you mind taking the lead on this?	Would you mind taking the lead on this?	105340435	1474615868225	1474615868364	t	84
204404	2217370	Would you mind taking the lead on this?	Would you mind taking the lead on this?	105340437	1474615868384	1474615868439	h	72
204404	2217370	Would you mind taking the lead on this?	Would you mind taking the lead on this?	105340439	1474615868799	1474615868875	BKSP	8
204404	2217370	Would you mind taking the lead on this?	Would you mind taking the lead on this?	105340443	1474615869439	1474615869509	h	72
204404	2217370	Would you mind taking the lead on this?	Would you mind taking the lead on this?	105340587	1474615869581	1474615869632	i	73
204404	2217370	Would you mind taking the lead on this?	Would you mind taking the lead on this?	105340590	1474615869702	1474615869845	s	83
204404	2217370	Would you mind taking the lead on this?	Would you mind taking the lead on this?	105340592	1474615870569	1474615870692	.	190
204404	2217370	Would you mind taking the lead on this?	Would you mind taking the lead on this?	105340595	1474615871729	1474615871789	>	190
204404	2217370	Would you mind taking the lead on this?	Would you mind taking the lead on this?	105340598	1474615872099	1474615872165	BKSP	8
204404	2217370	Would you mind taking the lead on this?	Would you mind taking the lead on this?	105340600	1474615872255	1474615872335	BKSP	8
204404	2217370	Would you mind taking the lead on this?	Would you mind taking the lead on this?	105340603	1474615872765	1474615872847	?	191
204404	2217399	Try and re-draft and let me know.	Try and re-draft and let me know.	105340843	1474615876625	1474615876702	T	84
204404	2217399	Try and re-draft and let me know.	Try and re-draft and let me know.	105340857	1474615877342	1474615877439	r	82
204404	2217399	Try and re-draft and let me know.	Try and re-draft and let me know.	105340863	1474615877779	1474615877882	y	89
204404	2217399	Try and re-draft and let me know.	Try and re-draft and let me know.	105340868	1474615877962	1474615878135	 	32
204404	2217399	Try and re-draft and let me know.	Try and re-draft and let me know.	105340870	1474615878495	1474615878655	a	65
204404	2217399	Try and re-draft and let me know.	Try and re-draft and let me know.	105340905	1474615878997	1474615879059	n	78
204404	2217399	Try and re-draft and let me know.	Try and re-draft and let me know.	105340908	1474615879199	1474615879325	d	68
204404	2217399	Try and re-draft and let me know.	Try and re-draft and let me know.	105340913	1474615879375	1474615879482	 	32
204404	2217399	Try and re-draft and let me know.	Try and re-draft and let me know.	105340917	1474615879875	1474615880072	r	82
204404	2217399	Try and re-draft and let me know.	Try and re-draft and let me know.	105340921	1474615880072	1474615880232	e	69
204404	2217399	Try and re-draft and let me know.	Try and re-draft and let me know.	105341151	1474615880936	1474615881079	'	222
204404	2217399	Try and re-draft and let me know.	Try and re-draft and let me know.	105341154	1474615881552	1474615881639	BKSP	8
204404	2217399	Try and re-draft and let me know.	Try and re-draft and let me know.	105341159	1474615882826	1474615882882	-	189
204404	2217399	Try and re-draft and let me know.	Try and re-draft and let me know.	105341162	1474615883582	1474615883738	SHIFT	16
204404	2217399	Try and re-draft and let me know.	Try and re-draft and let me know.	105341164	1474615884199	1474615884319	d	68
204404	2217399	Try and re-draft and let me know.	Try and re-draft and let me know.	105341165	1474615884689	1474615884839	r	82
204404	2217399	Try and re-draft and let me know.	Try and re-draft and let me know.	105341166	1474615885029	1474615885192	a	65
204404	2217399	Try and re-draft and let me know.	Try and re-draft and let me know.	105341210	1474615885380	1474615885562	f	70
204404	2217399	Try and re-draft and let me know.	Try and re-draft and let me know.	105341213	1474615885852	1474615885976	t	84
204404	2217399	Try and re-draft and let me know.	Try and re-draft and let me know.	105341219	1474615886076	1474615886223	 	32
204404	2217399	Try and re-draft and let me know.	Try and re-draft and let me know.	105341220	1474615886503	1474615886626	a	65
204404	2217399	Try and re-draft and let me know.	Try and re-draft and let me know.	105341222	1474615886696	1474615886749	n	66
204404	2217399	Try and re-draft and let me know.	Try and re-draft and let me know.	105341374	1474615886821	1474615886952	d	68
204404	2217399	Try and re-draft and let me know.	Try and re-draft and let me know.	105341376	1474615887232	1474615887292	BKSP	8
204404	2217399	Try and re-draft and let me know.	Try and re-draft and let me know.	105341379	1474615887472	1474615887512	BKSP	8
204404	2217399	Try and re-draft and let me know.	Try and re-draft and let me know.	105341382	1474615887552	1474615887646	BKSP	8
204404	2217399	Try and re-draft and let me know.	Try and re-draft and let me know.	105341385	1474615888722	1474615888782	n	78
204404	2217399	Try and re-draft and let me know.	Try and re-draft and let me know.	105341389	1474615888872	1474615888992	d	68
204404	2217399	Try and re-draft and let me know.	Try and re-draft and let me know.	105341392	1474615889032	1474615889189	 	32
204404	2217399	Try and re-draft and let me know.	Try and re-draft and let me know.	105341395	1474615889752	1474615889819	l	76
204404	2217399	Try and re-draft and let me know.	Try and re-draft and let me know.	105341454	1474615889861	1474615890026	e	69
204404	2217399	Try and re-draft and let me know.	Try and re-draft and let me know.	105341456	1474615890116	1474615890232	t	84
204404	2217399	Try and re-draft and let me know.	Try and re-draft and let me know.	105341459	1474615890689	1474615890819	 	32
204404	2217399	Try and re-draft and let me know.	Try and re-draft and let me know.	105341463	1474615891179	1474615891293	m	77
204404	2217399	Try and re-draft and let me know.	Try and re-draft and let me know.	105341467	1474615891293	1474615891409	e	69
204404	2217399	Try and re-draft and let me know.	Try and re-draft and let me know.	105341577	1474615891671	1474615891822	 	32
204404	2217399	Try and re-draft and let me know.	Try and re-draft and let me know.	105341578	1474615892142	1474615892221	k	75
204404	2217399	Try and re-draft and let me know.	Try and re-draft and let me know.	105341579	1474615892882	1474615892979	n	78
204404	2217399	Try and re-draft and let me know.	Try and re-draft and let me know.	105341582	1474615893049	1474615893176	w	87
204404	2217399	Try and re-draft and let me know.	Try and re-draft and let me know.	105341584	1474615893536	1474615893599	BKSP	8
204404	2217399	Try and re-draft and let me know.	Try and re-draft and let me know.	105341586	1474615894049	1474615894096	o	79
204404	2217399	Try and re-draft and let me know.	Try and re-draft and let me know.	105341655	1474615894467	1474615894512	BKSP	8
204404	2217399	Try and re-draft and let me know.	Try and re-draft and let me know.	105341656	1474615895012	1474615895072	o	79
204404	2217399	Try and re-draft and let me know.	Try and re-draft and let me know.	105341657	1474615895322	1474615895472	w	87
204404	2217399	Try and re-draft and let me know.	Try and re-draft and let me know.	105341658	1474615895522	1474615895632	.	190
204404	2217424	I am on my way.	I am on my way.	105341859	1474615898126	1474615899526	SHIFT	16
204404	2217424	I am on my way.	I am on my way.	105341856	1474615899406	1474615899466	I	73
204404	2217424	I am on my way.	I am on my way.	105341860	1474615899846	1474615900062	 	32
204404	2217424	I am on my way.	I am on my way.	105341862	1474615900072	1474615900222	a	65
204404	2217424	I am on my way.	I am on my way.	105341864	1474615900592	1474615900689	m	77
204404	2217424	I am on my way.	I am on my way.	105341866	1474615900769	1474615900952	 	32
204404	2217424	I am on my way.	I am on my way.	105342005	1474615901244	1474615901309	o	73
204404	2217424	I am on my way.	I am on my way.	105342006	1474615901369	1474615901432	n	78
204404	2217424	I am on my way.	I am on my way.	105342007	1474615901572	1474615901732	 	32
204404	2217424	I am on my way.	I am on my way.	105342008	1474615902266	1474615902322	BKSP	8
204404	2217424	I am on my way.	I am on my way.	105342009	1474615902402	1474615902476	BKSP	8
204404	2217424	I am on my way.	I am on my way.	105342010	1474615902576	1474615902612	BKSP	8
204404	2217424	I am on my way.	I am on my way.	105342016	1474615903799	1474615903856	BKSP	8
204404	2217424	I am on my way.	I am on my way.	105342021	1474615904409	1474615904486	o	79
204404	2217424	I am on my way.	I am on my way.	105342079	1474615904548	1474615904599	n	78
204404	2217424	I am on my way.	I am on my way.	105342082	1474615904759	1474615904906	 	32
204404	2217424	I am on my way.	I am on my way.	105342088	1474615905486	1474615905569	m	77
204404	2217424	I am on my way.	I am on my way.	105342090	1474615906262	1474615906326	y	89
204404	2217424	I am on my way.	I am on my way.	105342093	1474615906566	1474615906696	 	32
204404	2217424	I am on my way.	I am on my way.	105342130	1474615907226	1474615907332	a	65
204404	2217424	I am on my way.	I am on my way.	105342134	1474615907704	1474615907776	BKSP	8
204404	2217424	I am on my way.	I am on my way.	105342136	1474615907816	1474615907936	w	87
204404	2217424	I am on my way.	I am on my way.	105342139	1474615907936	1474615908109	a	65
204404	2217424	I am on my way.	I am on my way.	105342141	1474615908189	1474615908279	y	89
204404	2217424	I am on my way.	I am on my way.	105342143	1474615908439	1474615908519	.	190
204404	2217424	I am on my way.	I am on my way.	105342167	1474615908913	1474615908983	SHIFT	16
204404	2217433	We are down to 3 employees here in Denver.	We are down to 3 employees here in Denver.	105342408	1474615913386	1474615914183	SHIFT	16
204404	2217433	We are down to 3 employees here in Denver.	We are down to 3 employees here in Denver.	105342404	1474615914019	1474615914163	W	87
204404	2217433	We are down to 3 employees here in Denver.	We are down to 3 employees here in Denver.	105342412	1474615914806	1474615914916	e	69
204404	2217433	We are down to 3 employees here in Denver.	We are down to 3 employees here in Denver.	105342415	1474615914986	1474615915119	 	32
204404	2217433	We are down to 3 employees here in Denver.	We are down to 3 employees here in Denver.	105342418	1474615915339	1474615915539	a	65
204404	2217433	We are down to 3 employees here in Denver.	We are down to 3 employees here in Denver.	105342424	1474615915599	1474615915719	r	82
204404	2217433	We are down to 3 employees here in Denver.	We are down to 3 employees here in Denver.	105342491	1474615915760	1474615915873	e	69
204404	2217433	We are down to 3 employees here in Denver.	We are down to 3 employees here in Denver.	105342495	1474615916439	1474615916619	 	32
204404	2217433	We are down to 3 employees here in Denver.	We are down to 3 employees here in Denver.	105342498	1474615916889	1474615916999	d	68
204404	2217433	We are down to 3 employees here in Denver.	We are down to 3 employees here in Denver.	105342499	1474615917059	1474615917136	o	79
204404	2217433	We are down to 3 employees here in Denver.	We are down to 3 employees here in Denver.	105342501	1474615917296	1474615917419	e	69
204404	2217433	We are down to 3 employees here in Denver.	We are down to 3 employees here in Denver.	105342529	1474615917452	1474615917536	n	78
204404	2217433	We are down to 3 employees here in Denver.	We are down to 3 employees here in Denver.	105342531	1474615917636	1474615917769	 	32
204404	2217433	We are down to 3 employees here in Denver.	We are down to 3 employees here in Denver.	105342534	1474615917929	1474615917983	o	79
204404	2217433	We are down to 3 employees here in Denver.	We are down to 3 employees here in Denver.	105342536	1474615918063	1474615918156	t	84
204404	2217433	We are down to 3 employees here in Denver.	We are down to 3 employees here in Denver.	105342544	1474615918196	1474615918316	 	32
204404	2217433	We are down to 3 employees here in Denver.	We are down to 3 employees here in Denver.	105342654	1474615918899	1474615918976	BKSP	8
204404	2217433	We are down to 3 employees here in Denver.	We are down to 3 employees here in Denver.	105342655	1474615919026	1474615919083	BKSP	8
204404	2217433	We are down to 3 employees here in Denver.	We are down to 3 employees here in Denver.	105342657	1474615919143	1474615919196	BKSP	8
204404	2217433	We are down to 3 employees here in Denver.	We are down to 3 employees here in Denver.	105342661	1474615919256	1474615919288	BKSP	8
204404	2217433	We are down to 3 employees here in Denver.	We are down to 3 employees here in Denver.	105342664	1474615919366	1474615919416	BKSP	8
204404	2217433	We are down to 3 employees here in Denver.	We are down to 3 employees here in Denver.	105342667	1474615919486	1474615919520	BKSP	8
204404	2217433	We are down to 3 employees here in Denver.	We are down to 3 employees here in Denver.	105342670	1474615920366	1474615920516	w	87
204404	2217433	We are down to 3 employees here in Denver.	We are down to 3 employees here in Denver.	105342677	1474615920626	1474615920703	n	78
204404	2217433	We are down to 3 employees here in Denver.	We are down to 3 employees here in Denver.	105342683	1474615920913	1474615921066	 	32
204404	2217433	We are down to 3 employees here in Denver.	We are down to 3 employees here in Denver.	105342687	1474615921556	1474615921666	t	84
204404	2217433	We are down to 3 employees here in Denver.	We are down to 3 employees here in Denver.	105342692	1474615921726	1474615921823	o	79
204404	2217433	We are down to 3 employees here in Denver.	We are down to 3 employees here in Denver.	105342793	1474615921894	1474615921999	 	32
204404	2217433	We are down to 3 employees here in Denver.	We are down to 3 employees here in Denver.	105342796	1474615922420	1474615922673	SHIFT	16
204404	2217433	We are down to 3 employees here in Denver.	We are down to 3 employees here in Denver.	105342799	1474615923679	1474615923779	3	51
204404	2217433	We are down to 3 employees here in Denver.	We are down to 3 employees here in Denver.	105342803	1474615924239	1474615924299	 	32
204404	2217433	We are down to 3 employees here in Denver.	We are down to 3 employees here in Denver.	105342806	1474615925163	1474615925286	e	69
204404	2217433	We are down to 3 employees here in Denver.	We are down to 3 employees here in Denver.	105342809	1474615925636	1474615925729	m	77
204404	2217433	We are down to 3 employees here in Denver.	We are down to 3 employees here in Denver.	105342960	1474615926213	1474615926316	p	80
204404	2217433	We are down to 3 employees here in Denver.	We are down to 3 employees here in Denver.	105342961	1474615927156	1474615927303	;	186
204404	2217433	We are down to 3 employees here in Denver.	We are down to 3 employees here in Denver.	105342963	1474615927688	1474615927779	BKSP	8
204404	2217433	We are down to 3 employees here in Denver.	We are down to 3 employees here in Denver.	105342965	1474615928446	1474615928519	o	79
204404	2217433	We are down to 3 employees here in Denver.	We are down to 3 employees here in Denver.	105342967	1474615929546	1474615929619	BKSP	8
204404	2217433	We are down to 3 employees here in Denver.	We are down to 3 employees here in Denver.	105342968	1474615929959	1474615930066	l	76
204404	2217433	We are down to 3 employees here in Denver.	We are down to 3 employees here in Denver.	105342969	1474615930416	1474615930533	o	79
204404	2217433	We are down to 3 employees here in Denver.	We are down to 3 employees here in Denver.	105343059	1474615930875	1474615930983	y	89
204404	2217433	We are down to 3 employees here in Denver.	We are down to 3 employees here in Denver.	105343060	1474615931193	1474615931409	e	69
204404	2217433	We are down to 3 employees here in Denver.	We are down to 3 employees here in Denver.	105343062	1474615931429	1474615931653	r	82
204404	2217433	We are down to 3 employees here in Denver.	We are down to 3 employees here in Denver.	105343064	1474615931813	1474615931996	s	83
204404	2217433	We are down to 3 employees here in Denver.	We are down to 3 employees here in Denver.	105343070	1474615932306	1474615932376	BKSP	8
204404	2217433	We are down to 3 employees here in Denver.	We are down to 3 employees here in Denver.	105343076	1474615932456	1474615932506	BKSP	8
204404	2217433	We are down to 3 employees here in Denver.	We are down to 3 employees here in Denver.	105343085	1474615932776	1474615932823	BKSP	8
204404	2217433	We are down to 3 employees here in Denver.	We are down to 3 employees here in Denver.	105343091	1474615933466	1474615933543	e	69
204404	2217433	We are down to 3 employees here in Denver.	We are down to 3 employees here in Denver.	105343134	1474615933615	1474615933716	e	69
204404	2217433	We are down to 3 employees here in Denver.	We are down to 3 employees here in Denver.	105343136	1474615933816	1474615934023	s	83
204404	2217433	We are down to 3 employees here in Denver.	We are down to 3 employees here in Denver.	105343138	1474615934093	1474615934169	 	32
204404	2217433	We are down to 3 employees here in Denver.	We are down to 3 employees here in Denver.	105343140	1474615934703	1474615934776	h	72
204404	2217433	We are down to 3 employees here in Denver.	We are down to 3 employees here in Denver.	105343142	1474615934886	1474615935128	e	69
204404	2217433	We are down to 3 employees here in Denver.	We are down to 3 employees here in Denver.	105343168	1474615935079	1474615935260	r	82
204404	2217433	We are down to 3 employees here in Denver.	We are down to 3 employees here in Denver.	105343170	1474615935260	1474615935406	e	69
204404	2217433	We are down to 3 employees here in Denver.	We are down to 3 employees here in Denver.	105343173	1474615935456	1474615935536	 	32
204404	2217433	We are down to 3 employees here in Denver.	We are down to 3 employees here in Denver.	105343178	1474615935736	1474615935799	i	73
204404	2217433	We are down to 3 employees here in Denver.	We are down to 3 employees here in Denver.	105343181	1474615935879	1474615935949	n	78
204404	2217433	We are down to 3 employees here in Denver.	We are down to 3 employees here in Denver.	105343184	1474615936429	1474615936589	 	32
204404	2217433	We are down to 3 employees here in Denver.	We are down to 3 employees here in Denver.	105343252	1474615936911	1474615937339	SHIFT	16
204404	2217433	We are down to 3 employees here in Denver.	We are down to 3 employees here in Denver.	105343254	1474615937196	1474615937339	D	68
204404	2217433	We are down to 3 employees here in Denver.	We are down to 3 employees here in Denver.	105343258	1474615937719	1474615937893	e	69
204404	2217433	We are down to 3 employees here in Denver.	We are down to 3 employees here in Denver.	105343262	1474615938083	1474615938179	n	78
204404	2217433	We are down to 3 employees here in Denver.	We are down to 3 employees here in Denver.	105343267	1474615938656	1474615938776	v	86
204404	2217433	We are down to 3 employees here in Denver.	We are down to 3 employees here in Denver.	105343269	1474615938836	1474615939056	e	69
204404	2217433	We are down to 3 employees here in Denver.	We are down to 3 employees here in Denver.	105343302	1474615939029	1474615939139	r	82
204404	2217433	We are down to 3 employees here in Denver.	We are down to 3 employees here in Denver.	105343303	1474615939500	1474615939656	.	190
204404	2217449	Will let you know how call goes in morning.	Will let you know how call goes in morning.	105343443	1474615943679	1474615944349	SHIFT	16
204404	2217449	Will let you know how call goes in morning.	Will let you know how call goes in morning.	105343445	1474615944189	1474615944349	W	87
204404	2217449	Will let you know how call goes in morning.	Will let you know how call goes in morning.	105343448	1474615944610	1474615944676	i	73
204404	2217449	Will let you know how call goes in morning.	Will let you know how call goes in morning.	105343451	1474615944826	1474615944873	l	76
204404	2217449	Will let you know how call goes in morning.	Will let you know how call goes in morning.	105343456	1474615944973	1474615945063	l	76
204404	2217449	Will let you know how call goes in morning.	Will let you know how call goes in morning.	105343460	1474615945173	1474615945313	 	32
204404	2217449	Will let you know how call goes in morning.	Will let you know how call goes in morning.	105343533	1474615945695	1474615945766	l	76
204404	2217449	Will let you know how call goes in morning.	Will let you know how call goes in morning.	105343536	1474615945836	1474615945929	e	69
204404	2217449	Will let you know how call goes in morning.	Will let you know how call goes in morning.	105343538	1474615946099	1474615946200	d	68
204404	2217449	Will let you know how call goes in morning.	Will let you know how call goes in morning.	105343540	1474615946280	1474615946389	t	84
204404	2217449	Will let you know how call goes in morning.	Will let you know how call goes in morning.	105343542	1474615946679	1474615946749	BKSP	8
204404	2217449	Will let you know how call goes in morning.	Will let you know how call goes in morning.	105343543	1474615947059	1474615947156	BKSP	8
204404	2217449	Will let you know how call goes in morning.	Will let you know how call goes in morning.	105343544	1474615947216	1474615947326	t	84
204404	2217449	Will let you know how call goes in morning.	Will let you know how call goes in morning.	105343598	1474615947438	1474615947600	 	32
204404	2217449	Will let you know how call goes in morning.	Will let you know how call goes in morning.	105343601	1474615948253	1474615948296	y	89
204404	2217449	Will let you know how call goes in morning.	Will let you know how call goes in morning.	105343604	1474615948386	1474615948530	o	79
204404	2217449	Will let you know how call goes in morning.	Will let you know how call goes in morning.	105343607	1474615948530	1474615948603	u	85
204404	2217449	Will let you know how call goes in morning.	Will let you know how call goes in morning.	105343610	1474615948733	1474615948913	 	32
204404	2217449	Will let you know how call goes in morning.	Will let you know how call goes in morning.	105343651	1474615949184	1474615949260	k	75
204404	2217449	Will let you know how call goes in morning.	Will let you know how call goes in morning.	105343653	1474615949953	1474615950016	n	78
204404	2217449	Will let you know how call goes in morning.	Will let you know how call goes in morning.	105343656	1474615950086	1474615950170	o	79
204404	2217449	Will let you know how call goes in morning.	Will let you know how call goes in morning.	105343659	1474615950450	1474615950636	w	87
204404	2217449	Will let you know how call goes in morning.	Will let you know how call goes in morning.	105343661	1474615950666	1474615950783	 	32
204404	2217449	Will let you know how call goes in morning.	Will let you know how call goes in morning.	105343699	1474615951666	1474615951743	h	72
204404	2217449	Will let you know how call goes in morning.	Will let you know how call goes in morning.	105343701	1474615951813	1474615951897	o	79
204404	2217449	Will let you know how call goes in morning.	Will let you know how call goes in morning.	105343703	1474615952047	1474615952210	w	87
204404	2217449	Will let you know how call goes in morning.	Will let you know how call goes in morning.	105343705	1474615952270	1474615952383	 	32
204404	2217449	Will let you know how call goes in morning.	Will let you know how call goes in morning.	105343707	1474615952823	1474615952983	c	67
204404	2217449	Will let you know how call goes in morning.	Will let you know how call goes in morning.	105343732	1474615953383	1474615953513	a	65
204404	2217449	Will let you know how call goes in morning.	Will let you know how call goes in morning.	105343734	1474615953573	1474615953623	l	76
204404	2217449	Will let you know how call goes in morning.	Will let you know how call goes in morning.	105343736	1474615953703	1474615953786	l	76
204404	2217449	Will let you know how call goes in morning.	Will let you know how call goes in morning.	105343737	1474615953911	1474615953996	 	32
204404	2217449	Will let you know how call goes in morning.	Will let you know how call goes in morning.	105343739	1474615954376	1474615954494	g	71
204404	2217449	Will let you know how call goes in morning.	Will let you know how call goes in morning.	105343817	1474615954656	1474615954806	e	69
204404	2217449	Will let you know how call goes in morning.	Will let you know how call goes in morning.	105343821	1474615955116	1474615955206	BKSP	8
204404	2217449	Will let you know how call goes in morning.	Will let you know how call goes in morning.	105343825	1474615955726	1474615955823	o	79
204404	2217449	Will let you know how call goes in morning.	Will let you know how call goes in morning.	105343829	1474615955993	1474615956070	s	83
204404	2217449	Will let you know how call goes in morning.	Will let you know how call goes in morning.	105343833	1474615956390	1474615956460	BKSP	8
204404	2217449	Will let you know how call goes in morning.	Will let you know how call goes in morning.	105343836	1474615956510	1474615956666	e	69
204404	2217449	Will let you know how call goes in morning.	Will let you know how call goes in morning.	105343840	1474615956666	1474615956853	s	83
204404	2217449	Will let you know how call goes in morning.	Will let you know how call goes in morning.	105343875	1474615956895	1474615956980	 	32
204404	2217449	Will let you know how call goes in morning.	Will let you know how call goes in morning.	105343877	1474615957370	1474615957430	i	73
204404	2217449	Will let you know how call goes in morning.	Will let you know how call goes in morning.	105343878	1474615957480	1474615957590	n	78
204404	2217449	Will let you know how call goes in morning.	Will let you know how call goes in morning.	105343879	1474615957650	1474615957776	 	32
204404	2217449	Will let you know how call goes in morning.	Will let you know how call goes in morning.	105343880	1474615958323	1474615958423	m	77
204404	2217449	Will let you know how call goes in morning.	Will let you know how call goes in morning.	105343961	1474615958525	1474615958603	o	79
204404	2217449	Will let you know how call goes in morning.	Will let you know how call goes in morning.	105343964	1474615958830	1474615958983	r	82
204404	2217449	Will let you know how call goes in morning.	Will let you know how call goes in morning.	105343966	1474615959273	1474615959343	i	73
204404	2217449	Will let you know how call goes in morning.	Will let you know how call goes in morning.	105343968	1474615959764	1474615959816	BKSP	8
204404	2217449	Will let you know how call goes in morning.	Will let you know how call goes in morning.	105343970	1474615960006	1474615960096	n	78
204404	2217449	Will let you know how call goes in morning.	Will let you know how call goes in morning.	105343972	1474615960476	1474615960583	i	73
204404	2217449	Will let you know how call goes in morning.	Will let you know how call goes in morning.	105344029	1474615960724	1474615960793	n	78
204404	2217449	Will let you know how call goes in morning.	Will let you know how call goes in morning.	105344031	1474615960883	1474615961030	g	71
204404	2217449	Will let you know how call goes in morning.	Will let you know how call goes in morning.	105344034	1474615962016	1474615962093	.	190
204404	2217463	I have an AM doctor's appointment.	I have an AM doctor's appointment.	105344179	1474615965930	1474615966273	SHIFT	16
204404	2217463	I have an AM doctor's appointment.	I have an AM doctor's appointment.	105344176	1474615966130	1474615966183	I	73
204404	2217463	I have an AM doctor's appointment.	I have an AM doctor's appointment.	105344181	1474615966803	1474615966966	 	32
204404	2217463	I have an AM doctor's appointment.	I have an AM doctor's appointment.	105344184	1474615967326	1474615967393	h	72
204404	2217463	I have an AM doctor's appointment.	I have an AM doctor's appointment.	105344187	1474615968146	1474615968290	a	65
204404	2217463	I have an AM doctor's appointment.	I have an AM doctor's appointment.	105344189	1474615968450	1474615968626	v	86
204404	2217463	I have an AM doctor's appointment.	I have an AM doctor's appointment.	105344217	1474615968718	1474615968876	e	69
204404	2217463	I have an AM doctor's appointment.	I have an AM doctor's appointment.	105344218	1474615968926	1474615969013	 	32
204404	2217463	I have an AM doctor's appointment.	I have an AM doctor's appointment.	105344222	1474615969576	1474615969703	a	65
204404	2217463	I have an AM doctor's appointment.	I have an AM doctor's appointment.	105344226	1474615969703	1474615969760	n	78
204404	2217463	I have an AM doctor's appointment.	I have an AM doctor's appointment.	105344230	1474615969940	1474615970040	 	32
204404	2217463	I have an AM doctor's appointment.	I have an AM doctor's appointment.	105344300	1474615970272	1474615970846	SHIFT	16
204404	2217463	I have an AM doctor's appointment.	I have an AM doctor's appointment.	105344299	1474615970663	1474615970806	A	65
204404	2217463	I have an AM doctor's appointment.	I have an AM doctor's appointment.	105344302	1474615971660	1474615971940	SHIFT	16
204404	2217463	I have an AM doctor's appointment.	I have an AM doctor's appointment.	105344301	1474615971783	1474615971870	M	77
204404	2217463	I have an AM doctor's appointment.	I have an AM doctor's appointment.	105344303	1474615972260	1474615972446	 	32
204404	2217463	I have an AM doctor's appointment.	I have an AM doctor's appointment.	105344305	1474615972776	1474615972903	d	68
204404	2217463	I have an AM doctor's appointment.	I have an AM doctor's appointment.	105344307	1474615972993	1474615973070	o	79
204404	2217463	I have an AM doctor's appointment.	I have an AM doctor's appointment.	105344372	1474615973603	1474615973756	c	67
204404	2217463	I have an AM doctor's appointment.	I have an AM doctor's appointment.	105344374	1474615973906	1474615974046	t	84
204404	2217463	I have an AM doctor's appointment.	I have an AM doctor's appointment.	105344376	1474615974326	1474615974373	o	79
204404	2217463	I have an AM doctor's appointment.	I have an AM doctor's appointment.	105344378	1474615974673	1474615974843	r	82
204404	2217463	I have an AM doctor's appointment.	I have an AM doctor's appointment.	105344379	1474615975566	1474615975711	'	222
204404	2217463	I have an AM doctor's appointment.	I have an AM doctor's appointment.	105344427	1474615975982	1474615976191	s	83
204404	2217463	I have an AM doctor's appointment.	I have an AM doctor's appointment.	105344429	1474615976241	1474615976430	 	32
204404	2217463	I have an AM doctor's appointment.	I have an AM doctor's appointment.	105344431	1474615976710	1474615977246	SHIFT	16
204404	2217463	I have an AM doctor's appointment.	I have an AM doctor's appointment.	105344433	1474615977063	1474615977266	A	65
204404	2217463	I have an AM doctor's appointment.	I have an AM doctor's appointment.	105344435	1474615977950	1474615978070	p	80
204404	2217463	I have an AM doctor's appointment.	I have an AM doctor's appointment.	105344437	1474615978400	1474615978466	BKSP	8
204404	2217463	I have an AM doctor's appointment.	I have an AM doctor's appointment.	105344440	1474615978526	1474615978593	BKSP	8
204404	2217463	I have an AM doctor's appointment.	I have an AM doctor's appointment.	105344444	1474615978663	1474615978813	a	65
204404	2217463	I have an AM doctor's appointment.	I have an AM doctor's appointment.	105344485	1474615979239	1474615979300	p	80
204404	2217463	I have an AM doctor's appointment.	I have an AM doctor's appointment.	105344489	1474615979370	1474615979463	p	80
204404	2217463	I have an AM doctor's appointment.	I have an AM doctor's appointment.	105344493	1474615979573	1474615979693	o	79
204404	2217463	I have an AM doctor's appointment.	I have an AM doctor's appointment.	105344497	1474615979783	1474615979880	n	78
204404	2217463	I have an AM doctor's appointment.	I have an AM doctor's appointment.	105344502	1474615980363	1474615980457	BKSP	8
204404	2217463	I have an AM doctor's appointment.	I have an AM doctor's appointment.	105344506	1474615980946	1474615981000	i	73
204404	2217463	I have an AM doctor's appointment.	I have an AM doctor's appointment.	105344569	1474615981062	1474615981153	n	78
204404	2217463	I have an AM doctor's appointment.	I have an AM doctor's appointment.	105344570	1474615981453	1474615981586	t	84
204404	2217463	I have an AM doctor's appointment.	I have an AM doctor's appointment.	105344571	1474615982113	1474615982216	m	77
204404	2217463	I have an AM doctor's appointment.	I have an AM doctor's appointment.	105344572	1474615982296	1474615982470	e	69
204404	2217463	I have an AM doctor's appointment.	I have an AM doctor's appointment.	105344573	1474615983080	1474615983173	n	78
204404	2217463	I have an AM doctor's appointment.	I have an AM doctor's appointment.	105344614	1474615983585	1474615983720	t	84
204404	2217463	I have an AM doctor's appointment.	I have an AM doctor's appointment.	105344617	1474615983930	1474615984053	.	190
