PARTICIPANT_ID	TEST_SECTION_ID	SENTENCE	USER_INPUT	KEYSTROKE_ID	PRESS_TIME	RELEASE_TIME	LETTER	KEYCODE
205312	2226705	This is good I think.	This is good I think. 	105799005	1474630263177	1474630263435	SHIFT	16
205312	2226705	This is good I think.	This is good I think. 	105799001	1474630263323	1474630263395	T	84
205312	2226705	This is good I think.	This is good I think. 	105799009	1474630263619	1474630263763	h	72
205312	2226705	This is good I think.	This is good I think. 	105799013	1474630263731	1474630263843	i	73
205312	2226705	This is good I think.	This is good I think. 	105799015	1474630263947	1474630264051	 	32
205312	2226705	This is good I think.	This is good I think. 	105799018	1474630264139	1474630264235	s	83
205312	2226705	This is good I think.	This is good I think. 	105799158	1474630264238	1474630264355	i	73
205312	2226705	This is good I think.	This is good I think. 	105799160	1474630264459	1474630264547	 	32
205312	2226705	This is good I think.	This is good I think. 	105799165	1474630264843	1474630264891	BKSP	8
205312	2226705	This is good I think.	This is good I think. 	105799167	1474630264979	1474630265027	BKSP	8
205312	2226705	This is good I think.	This is good I think. 	105799171	1474630265131	1474630265187	BKSP	8
205312	2226705	This is good I think.	This is good I think. 	105799176	1474630265275	1474630265331	BKSP	8
205312	2226705	This is good I think.	This is good I think. 	105799180	1474630265435	1474630265491	BKSP	8
205312	2226705	This is good I think.	This is good I think. 	105799183	1474630266563	1474630266635	i	73
205312	2226705	This is good I think.	This is good I think. 	105799187	1474630266739	1474630266859	s	83
205312	2226705	This is good I think.	This is good I think. 	105799192	1474630266859	1474630266931	 	32
205312	2226705	This is good I think.	This is good I think. 	105799213	1474630267235	1474630267315	i	73
205312	2226705	This is good I think.	This is good I think. 	105799216	1474630267363	1474630267419	s	83
205312	2226705	This is good I think.	This is good I think. 	105799219	1474630267483	1474630267547	 	32
205312	2226705	This is good I think.	This is good I think. 	105799223	1474630267619	1474630267691	g	71
205312	2226705	This is good I think.	This is good I think. 	105799226	1474630267715	1474630267771	o	79
205312	2226705	This is good I think.	This is good I think. 	105799279	1474630267859	1474630267931	o	79
205312	2226705	This is good I think.	This is good I think. 	105799282	1474630268027	1474630268091	d	68
205312	2226705	This is good I think.	This is good I think. 	105799285	1474630268155	1474630268235	 	32
205312	2226705	This is good I think.	This is good I think. 	105799294	1474630268387	1474630268587	SHIFT	16
205312	2226705	This is good I think.	This is good I think. 	105799291	1474630268459	1474630268547	I	73
205312	2226705	This is good I think.	This is good I think. 	105799297	1474630268667	1474630268739	 	32
205312	2226705	This is good I think.	This is good I think. 	105799312	1474630268851	1474630268915	t	84
205312	2226705	This is good I think.	This is good I think. 	105799315	1474630268971	1474630269099	h	72
205312	2226705	This is good I think.	This is good I think. 	105799320	1474630269051	1474630269171	i	73
205312	2226705	This is good I think.	This is good I think. 	105799325	1474630269203	1474630269339	n	78
205312	2226705	This is good I think.	This is good I think. 	105799443	1474630269299	1474630269403	k	75
205312	2226705	This is good I think.	This is good I think. 	105799444	1474630269547	1474630269747	.	190
205312	2226705	This is good I think.	This is good I think. 	105799447	1474630269675	1474630269787	 	32
205312	2226711	Is this the conference rate?	Is this the conferecne rate?	105799596	1474630273843	1474630274171	SHIFT	16
205312	2226711	Is this the conference rate?	Is this the conferecne rate?	105799593	1474630274075	1474630274147	I	73
205312	2226711	Is this the conference rate?	Is this the conferecne rate?	105799603	1474630274283	1474630274355	s	83
205312	2226711	Is this the conference rate?	Is this the conferecne rate?	105799605	1474630274419	1474630274491	 	32
205312	2226711	Is this the conference rate?	Is this the conferecne rate?	105799608	1474630274555	1474630274619	t	84
205312	2226711	Is this the conference rate?	Is this the conferecne rate?	105799610	1474630274683	1474630274811	h	72
205312	2226711	Is this the conference rate?	Is this the conferecne rate?	105799630	1474630274779	1474630274883	i	73
205312	2226711	Is this the conference rate?	Is this the conferecne rate?	105799635	1474630274915	1474630275003	s	83
205312	2226711	Is this the conference rate?	Is this the conferecne rate?	105799638	1474630275003	1474630275075	 	32
205312	2226711	Is this the conference rate?	Is this the conferecne rate?	105799641	1474630275147	1474630275219	a	65
205312	2226711	Is this the conference rate?	Is this the conferecne rate?	105799642	1474630275242	1474630275299	 	32
205312	2226711	Is this the conference rate?	Is this the conferecne rate?	105799644	1474630275435	1474630275523	c	67
205312	2226711	Is this the conference rate?	Is this the conferecne rate?	105799681	1474630275579	1474630275723	o	79
205312	2226711	Is this the conference rate?	Is this the conferecne rate?	105799684	1474630275651	1474630275746	n	78
205312	2226711	Is this the conference rate?	Is this the conferecne rate?	105799688	1474630275787	1474630275867	f	70
205312	2226711	Is this the conference rate?	Is this the conferecne rate?	105799691	1474630276011	1474630276067	e	69
205312	2226711	Is this the conference rate?	Is this the conferecne rate?	105799694	1474630276171	1474630276219	r	82
205312	2226711	Is this the conference rate?	Is this the conferecne rate?	105799776	1474630276323	1474630276379	e	69
205312	2226711	Is this the conference rate?	Is this the conferecne rate?	105799780	1474630276451	1474630276507	n	78
205312	2226711	Is this the conference rate?	Is this the conferecne rate?	105799785	1474630276675	1474630277459	BKSP	8
205312	2226711	Is this the conference rate?	Is this the conferecne rate?	105799791	1474630277947	1474630278019	t	84
205312	2226711	Is this the conference rate?	Is this the conferecne rate?	105799795	1474630278050	1474630278115	h	72
205312	2226711	Is this the conference rate?	Is this the conferecne rate?	105799798	1474630278147	1474630278211	e	69
205312	2226711	Is this the conference rate?	Is this the conferecne rate?	105799805	1474630278234	1474630278298	 	32
205312	2226711	Is this the conference rate?	Is this the conferecne rate?	105799807	1474630278379	1474630278443	c	67
205312	2226711	Is this the conference rate?	Is this the conferecne rate?	105799809	1474630278443	1474630278555	o	79
205312	2226711	Is this the conference rate?	Is this the conferecne rate?	105799811	1474630278507	1474630278587	n	78
205312	2226711	Is this the conference rate?	Is this the conferecne rate?	105799812	1474630278594	1474630278643	f	70
205312	2226711	Is this the conference rate?	Is this the conferecne rate?	105799827	1474630278755	1474630278787	e	69
205312	2226711	Is this the conference rate?	Is this the conferecne rate?	105799833	1474630278867	1474630278907	r	82
205312	2226711	Is this the conference rate?	Is this the conferecne rate?	105799838	1474630278995	1474630279035	e	69
205312	2226711	Is this the conference rate?	Is this the conferecne rate?	105799844	1474630279123	1474630279180	c	67
205312	2226711	Is this the conference rate?	Is this the conferecne rate?	105799883	1474630279163	1474630279227	n	78
205312	2226711	Is this the conference rate?	Is this the conferecne rate?	105799885	1474630279299	1474630279339	e	69
205312	2226711	Is this the conference rate?	Is this the conferecne rate?	105799887	1474630279395	1474630279443	 	32
205312	2226711	Is this the conference rate?	Is this the conferecne rate?	105799889	1474630279699	1474630279755	r	82
205312	2226711	Is this the conference rate?	Is this the conferecne rate?	105799893	1474630279883	1474630279947	a	65
205312	2226711	Is this the conference rate?	Is this the conferecne rate?	105799897	1474630279994	1474630280043	r	82
205312	2226711	Is this the conference rate?	Is this the conferecne rate?	105800089	1474630280082	1474630280138	e	69
205312	2226711	Is this the conference rate?	Is this the conferecne rate?	105800093	1474630280307	1474630280674	SHIFT	16
205312	2226711	Is this the conference rate?	Is this the conferecne rate?	105800092	1474630280419	1474630280514	?	191
205312	2226711	Is this the conference rate?	Is this the conferecne rate?	105800094	1474630281394	1474630281450	BKSP	8
205312	2226711	Is this the conference rate?	Is this the conferecne rate?	105800096	1474630281538	1474630281586	BKSP	8
205312	2226711	Is this the conference rate?	Is this the conferecne rate?	105800099	1474630281666	1474630281707	BKSP	8
205312	2226711	Is this the conference rate?	Is this the conferecne rate?	105800102	1474630281914	1474630281947	t	84
205312	2226711	Is this the conference rate?	Is this the conferecne rate?	105800105	1474630282882	1474630282971	e	69
205312	2226711	Is this the conference rate?	Is this the conferecne rate?	105800110	1474630283602	1474630283674	?	191
205312	2226724	But he added the list given was still incomplete.	But he added the list given was still incomplete	105800427	1474630290002	1474630290146	B	66
205312	2226724	But he added the list given was still incomplete.	But he added the list given was still incomplete	105800434	1474630290075	1474630290202	u	85
205312	2226724	But he added the list given was still incomplete.	But he added the list given was still incomplete	105800439	1474630290258	1474630290338	t	84
205312	2226724	But he added the list given was still incomplete.	But he added the list given was still incomplete	105800450	1474630290362	1474630290442	 	32
205312	2226724	But he added the list given was still incomplete.	But he added the list given was still incomplete	105800454	1474630290530	1474630290602	h	72
205312	2226724	But he added the list given was still incomplete.	But he added the list given was still incomplete	105800468	1474630290666	1474630290730	e	69
205312	2226724	But he added the list given was still incomplete.	But he added the list given was still incomplete	105800471	1474630290778	1474630290826	 	32
205312	2226724	But he added the list given was still incomplete.	But he added the list given was still incomplete	105800474	1474630290882	1474630290922	a	65
205312	2226724	But he added the list given was still incomplete.	But he added the list given was still incomplete	105800477	1474630291034	1474630291082	d	68
205312	2226724	But he added the list given was still incomplete.	But he added the list given was still incomplete	105800480	1474630291154	1474630291210	d	68
205312	2226724	But he added the list given was still incomplete.	But he added the list given was still incomplete	105800488	1474630291290	1474630291346	e	69
205312	2226724	But he added the list given was still incomplete.	But he added the list given was still incomplete	105800491	1474630291402	1474630291458	d	68
205312	2226724	But he added the list given was still incomplete.	But he added the list given was still incomplete	105800495	1474630291522	1474630291594	 	32
205312	2226724	But he added the list given was still incomplete.	But he added the list given was still incomplete	105800497	1474630291595	1474630291642	t	84
205312	2226724	But he added the list given was still incomplete.	But he added the list given was still incomplete	105800499	1474630291714	1474630291778	h	72
205312	2226724	But he added the list given was still incomplete.	But he added the list given was still incomplete	105800545	1474630291755	1474630291802	e	69
205312	2226724	But he added the list given was still incomplete.	But he added the list given was still incomplete	105800547	1474630291882	1474630291938	 	32
205312	2226724	But he added the list given was still incomplete.	But he added the list given was still incomplete	105800550	1474630292042	1474630292114	l	76
205312	2226724	But he added the list given was still incomplete.	But he added the list given was still incomplete	105800554	1474630292186	1474630292242	s	73
205312	2226724	But he added the list given was still incomplete.	But he added the list given was still incomplete	105800558	1474630292410	1474630292458	t	84
205312	2226724	But he added the list given was still incomplete.	But he added the list given was still incomplete	105800604	1474630292538	1474630292586	 	32
205312	2226724	But he added the list given was still incomplete.	But he added the list given was still incomplete	105800610	1474630292930	1474630292970	BKSP	8
205312	2226724	But he added the list given was still incomplete.	But he added the list given was still incomplete	105800616	1474630293250	1474630293314	 	32
205312	2226724	But he added the list given was still incomplete.	But he added the list given was still incomplete	105800624	1474630293482	1474630293538	g	71
205312	2226724	But he added the list given was still incomplete.	But he added the list given was still incomplete	105800627	1474630293618	1474630293682	i	73
205312	2226724	But he added the list given was still incomplete.	But he added the list given was still incomplete	105800632	1474630293714	1474630293770	v	86
205312	2226724	But he added the list given was still incomplete.	But he added the list given was still incomplete	105800665	1474630293874	1474630293922	e	69
205312	2226724	But he added the list given was still incomplete.	But he added the list given was still incomplete	105800668	1474630294186	1474630294250	n	78
205312	2226724	But he added the list given was still incomplete.	But he added the list given was still incomplete	105800674	1474630294338	1474630294394	 	32
205312	2226724	But he added the list given was still incomplete.	But he added the list given was still incomplete	105800680	1474630294682	1474630294875	b	66
205312	2226724	But he added the list given was still incomplete.	But he added the list given was still incomplete	105800795	1474630294826	1474630294938	u	85
205312	2226724	But he added the list given was still incomplete.	But he added the list given was still incomplete	105800798	1474630294906	1474630295026	t	84
205312	2226724	But he added the list given was still incomplete.	But he added the list given was still incomplete	105800802	1474630295050	1474630295130	 	32
205312	2226724	But he added the list given was still incomplete.	But he added the list given was still incomplete	105800805	1474630295746	1474630295802	BKSP	8
205312	2226724	But he added the list given was still incomplete.	But he added the list given was still incomplete	105800807	1474630296050	1474630296114	BKSP	8
205312	2226724	But he added the list given was still incomplete.	But he added the list given was still incomplete	105800809	1474630296194	1474630296250	BKSP	8
205312	2226724	But he added the list given was still incomplete.	But he added the list given was still incomplete	105800811	1474630296346	1474630296402	BKSP	8
205312	2226724	But he added the list given was still incomplete.	But he added the list given was still incomplete	105800815	1474630296514	1474630296554	BKSP	8
205312	2226724	But he added the list given was still incomplete.	But he added the list given was still incomplete	105800820	1474630296890	1474630296954	 	32
205312	2226724	But he added the list given was still incomplete.	But he added the list given was still incomplete	105800824	1474630297026	1474630297058	w	87
205312	2226724	But he added the list given was still incomplete.	But he added the list given was still incomplete	105800829	1474630297170	1474630297210	a	65
205312	2226724	But he added the list given was still incomplete.	But he added the list given was still incomplete	105800830	1474630297282	1474630297322	s	83
205312	2226724	But he added the list given was still incomplete.	But he added the list given was still incomplete	105800835	1474630297386	1474630297442	 	32
205312	2226724	But he added the list given was still incomplete.	But he added the list given was still incomplete	105800840	1474630297538	1474630297594	s	83
205312	2226724	But he added the list given was still incomplete.	But he added the list given was still incomplete	105800843	1474630297722	1474630297762	t	84
205312	2226724	But he added the list given was still incomplete.	But he added the list given was still incomplete	105800849	1474630297810	1474630297890	i	73
205312	2226724	But he added the list given was still incomplete.	But he added the list given was still incomplete	105800868	1474630297962	1474630298042	l	76
205312	2226724	But he added the list given was still incomplete.	But he added the list given was still incomplete	105800869	1474630298114	1474630298202	l	76
205312	2226724	But he added the list given was still incomplete.	But he added the list given was still incomplete	105800871	1474630298258	1474630298330	 	32
205312	2226724	But he added the list given was still incomplete.	But he added the list given was still incomplete	105800875	1474630298402	1474630298514	i	73
205312	2226724	But he added the list given was still incomplete.	But he added the list given was still incomplete	105800995	1474630298490	1474630298570	n	78
205312	2226724	But he added the list given was still incomplete.	But he added the list given was still incomplete	105800999	1474630298586	1474630298658	c	67
205312	2226724	But he added the list given was still incomplete.	But he added the list given was still incomplete	105801003	1474630298690	1474630298802	o	79
205312	2226724	But he added the list given was still incomplete.	But he added the list given was still incomplete	105801007	1474630298762	1474630298874	m	77
205312	2226724	But he added the list given was still incomplete.	But he added the list given was still incomplete	105801010	1474630298954	1474630299018	e	69
205312	2226724	But he added the list given was still incomplete.	But he added the list given was still incomplete	105801014	1474630299514	1474630299531	BKSP	8
205312	2226724	But he added the list given was still incomplete.	But he added the list given was still incomplete	105801017	1474630300282	1474630300410	p	80
205312	2226724	But he added the list given was still incomplete.	But he added the list given was still incomplete	105801013	1474630300362	1474630300434	l	76
205312	2226724	But he added the list given was still incomplete.	But he added the list given was still incomplete	105801015	1474630300414	1474630300458	e	69
205312	2226724	But he added the list given was still incomplete.	But he added the list given was still incomplete	105801019	1474630300562	1474630300594	t	84
205312	2226724	But he added the list given was still incomplete.	But he added the list given was still incomplete	105801020	1474630300690	1474630300738	e	69
205312	2226738	Allocations will be based on WIC allocations methods.	Allocations will be based on WIC allocations methods. 	105801193	1474630303450	1474630303802	SHIFT	16
205312	2226738	Allocations will be based on WIC allocations methods.	Allocations will be based on WIC allocations methods. 	105801196	1474630303706	1474630303802	A	65
205312	2226738	Allocations will be based on WIC allocations methods.	Allocations will be based on WIC allocations methods. 	105801202	1474630303834	1474630303890	l	76
205312	2226738	Allocations will be based on WIC allocations methods.	Allocations will be based on WIC allocations methods. 	105801206	1474630303994	1474630304042	o	79
205312	2226738	Allocations will be based on WIC allocations methods.	Allocations will be based on WIC allocations methods. 	105801210	1474630304322	1474630304370	BKSP	8
205312	2226738	Allocations will be based on WIC allocations methods.	Allocations will be based on WIC allocations methods. 	105801214	1474630304522	1474630304594	l	76
205312	2226738	Allocations will be based on WIC allocations methods.	Allocations will be based on WIC allocations methods. 	105801217	1474630304690	1474630304746	o	79
205312	2226738	Allocations will be based on WIC allocations methods.	Allocations will be based on WIC allocations methods. 	105801259	1474630304834	1474630304890	c	67
205312	2226738	Allocations will be based on WIC allocations methods.	Allocations will be based on WIC allocations methods. 	105801260	1474630305042	1474630305074	s	83
205312	2226738	Allocations will be based on WIC allocations methods.	Allocations will be based on WIC allocations methods. 	105801261	1474630305490	1474630305546	BKSP	8
205312	2226738	Allocations will be based on WIC allocations methods.	Allocations will be based on WIC allocations methods. 	105801262	1474630305922	1474630305994	a	65
205312	2226738	Allocations will be based on WIC allocations methods.	Allocations will be based on WIC allocations methods. 	105801263	1474630306154	1474630306186	t	84
205312	2226738	Allocations will be based on WIC allocations methods.	Allocations will be based on WIC allocations methods. 	105801264	1474630306346	1474630306474	i	73
205312	2226738	Allocations will be based on WIC allocations methods.	Allocations will be based on WIC allocations methods. 	105801280	1474630306442	1474630306610	o	79
205312	2226738	Allocations will be based on WIC allocations methods.	Allocations will be based on WIC allocations methods. 	105801283	1474630306570	1474630306682	n	78
205312	2226738	Allocations will be based on WIC allocations methods.	Allocations will be based on WIC allocations methods. 	105801286	1474630306682	1474630306770	s	83
205312	2226738	Allocations will be based on WIC allocations methods.	Allocations will be based on WIC allocations methods. 	105801290	1474630306802	1474630306866	 	32
205312	2226738	Allocations will be based on WIC allocations methods.	Allocations will be based on WIC allocations methods. 	105801292	1474630307066	1474630307138	w	87
205312	2226738	Allocations will be based on WIC allocations methods.	Allocations will be based on WIC allocations methods. 	105801295	1474630307202	1474630307314	i	73
205312	2226738	Allocations will be based on WIC allocations methods.	Allocations will be based on WIC allocations methods. 	105801336	1474630307602	1474630307658	l	76
205312	2226738	Allocations will be based on WIC allocations methods.	Allocations will be based on WIC allocations methods. 	105801339	1474630308018	1474630308106	l	76
205312	2226738	Allocations will be based on WIC allocations methods.	Allocations will be based on WIC allocations methods. 	105801341	1474630308218	1474630308290	 	32
205312	2226738	Allocations will be based on WIC allocations methods.	Allocations will be based on WIC allocations methods. 	105801344	1474630308434	1474630308498	b	66
205312	2226738	Allocations will be based on WIC allocations methods.	Allocations will be based on WIC allocations methods. 	105801347	1474630308522	1474630308578	e	69
205312	2226738	Allocations will be based on WIC allocations methods.	Allocations will be based on WIC allocations methods. 	105801360	1474630308634	1474630308706	 	32
205312	2226738	Allocations will be based on WIC allocations methods.	Allocations will be based on WIC allocations methods. 	105801364	1474630308818	1474630308874	b	66
205312	2226738	Allocations will be based on WIC allocations methods.	Allocations will be based on WIC allocations methods. 	105801369	1474630308874	1474630308922	a	65
205312	2226738	Allocations will be based on WIC allocations methods.	Allocations will be based on WIC allocations methods. 	105801372	1474630309010	1474630309058	s	83
205312	2226738	Allocations will be based on WIC allocations methods.	Allocations will be based on WIC allocations methods. 	105801374	1474630309154	1474630309194	e	69
205312	2226738	Allocations will be based on WIC allocations methods.	Allocations will be based on WIC allocations methods. 	105801395	1474630309274	1474630309330	d	68
205312	2226738	Allocations will be based on WIC allocations methods.	Allocations will be based on WIC allocations methods. 	105801398	1474630309402	1474630309466	 	32
205312	2226738	Allocations will be based on WIC allocations methods.	Allocations will be based on WIC allocations methods. 	105801404	1474630309602	1474630309754	o	79
205312	2226738	Allocations will be based on WIC allocations methods.	Allocations will be based on WIC allocations methods. 	105801409	1474630309706	1474630309778	n	78
205312	2226738	Allocations will be based on WIC allocations methods.	Allocations will be based on WIC allocations methods. 	105801415	1474630309882	1474630309938	 	32
205312	2226738	Allocations will be based on WIC allocations methods.	Allocations will be based on WIC allocations methods. 	105801494	1474630309970	1474630310906	SHIFT	16
205312	2226738	Allocations will be based on WIC allocations methods.	Allocations will be based on WIC allocations methods. 	105801481	1474630310194	1474630310298	W	87
205312	2226738	Allocations will be based on WIC allocations methods.	Allocations will be based on WIC allocations methods. 	105801485	1474630310378	1474630310458	I	73
205312	2226738	Allocations will be based on WIC allocations methods.	Allocations will be based on WIC allocations methods. 	105801489	1474630310666	1474630310794	C	67
205312	2226738	Allocations will be based on WIC allocations methods.	Allocations will be based on WIC allocations methods. 	105801498	1474630310842	1474630310906	 	32
205312	2226738	Allocations will be based on WIC allocations methods.	Allocations will be based on WIC allocations methods. 	105801501	1474630311466	1474630311538	a	65
205312	2226738	Allocations will be based on WIC allocations methods.	Allocations will be based on WIC allocations methods. 	105801529	1474630311602	1474630311674	l	76
205312	2226738	Allocations will be based on WIC allocations methods.	Allocations will be based on WIC allocations methods. 	105801531	1474630312066	1474630312130	l	76
205312	2226738	Allocations will be based on WIC allocations methods.	Allocations will be based on WIC allocations methods. 	105801533	1474630312266	1474630312290	o	79
205312	2226738	Allocations will be based on WIC allocations methods.	Allocations will be based on WIC allocations methods. 	105801534	1474630312338	1474630312394	c	67
205312	2226738	Allocations will be based on WIC allocations methods.	Allocations will be based on WIC allocations methods. 	105801536	1474630312522	1474630312571	a	65
205312	2226738	Allocations will be based on WIC allocations methods.	Allocations will be based on WIC allocations methods. 	105801590	1474630313090	1474630313146	t	84
205312	2226738	Allocations will be based on WIC allocations methods.	Allocations will be based on WIC allocations methods. 	105801595	1474630313226	1474630313362	i	73
205312	2226738	Allocations will be based on WIC allocations methods.	Allocations will be based on WIC allocations methods. 	105801601	1474630313338	1474630313466	o	79
205312	2226738	Allocations will be based on WIC allocations methods.	Allocations will be based on WIC allocations methods. 	105801605	1474630313426	1474630313522	n	78
205312	2226738	Allocations will be based on WIC allocations methods.	Allocations will be based on WIC allocations methods. 	105801608	1474630313618	1474630313698	s	83
205312	2226738	Allocations will be based on WIC allocations methods.	Allocations will be based on WIC allocations methods. 	105801677	1474630313746	1474630313826	 	32
205312	2226738	Allocations will be based on WIC allocations methods.	Allocations will be based on WIC allocations methods. 	105801679	1474630314058	1474630314122	m	77
205312	2226738	Allocations will be based on WIC allocations methods.	Allocations will be based on WIC allocations methods. 	105801682	1474630314426	1474630314490	e	69
205312	2226738	Allocations will be based on WIC allocations methods.	Allocations will be based on WIC allocations methods. 	105801684	1474630315042	1474630315098	t	84
205312	2226738	Allocations will be based on WIC allocations methods.	Allocations will be based on WIC allocations methods. 	105801686	1474630315194	1474630315282	h	72
205312	2226738	Allocations will be based on WIC allocations methods.	Allocations will be based on WIC allocations methods. 	105801719	1474630315362	1474630315466	o	79
205312	2226738	Allocations will be based on WIC allocations methods.	Allocations will be based on WIC allocations methods. 	105801723	1474630315466	1474630315514	d	68
205312	2226738	Allocations will be based on WIC allocations methods.	Allocations will be based on WIC allocations methods. 	105801727	1474630315626	1474630315658	s	83
205312	2226738	Allocations will be based on WIC allocations methods.	Allocations will be based on WIC allocations methods. 	105801733	1474630315770	1474630315906	.	190
205312	2226738	Allocations will be based on WIC allocations methods.	Allocations will be based on WIC allocations methods. 	105801741	1474630315850	1474630315932	 	32
205312	2226753	X-rays were negative, and Hakim is listed as day to day.	X-rays were negative, and Hakim is listed as day to day. 	105801895	1474630317994	1474630318658	SHIFT	16
205312	2226753	X-rays were negative, and Hakim is listed as day to day.	X-rays were negative, and Hakim is listed as day to day. 	105801890	1474630318554	1474630318650	X	88
205312	2226753	X-rays were negative, and Hakim is listed as day to day.	X-rays were negative, and Hakim is listed as day to day. 	105801899	1474630318938	1474630319002	-	189
205312	2226753	X-rays were negative, and Hakim is listed as day to day.	X-rays were negative, and Hakim is listed as day to day. 	105801904	1474630319154	1474630319210	r	82
205312	2226753	X-rays were negative, and Hakim is listed as day to day.	X-rays were negative, and Hakim is listed as day to day. 	105801908	1474630319354	1474630319418	a	65
205312	2226753	X-rays were negative, and Hakim is listed as day to day.	X-rays were negative, and Hakim is listed as day to day. 	105801910	1474630319458	1474630319522	y	89
205312	2226753	X-rays were negative, and Hakim is listed as day to day.	X-rays were negative, and Hakim is listed as day to day. 	105801965	1474630319570	1474630319618	s	83
205312	2226753	X-rays were negative, and Hakim is listed as day to day.	X-rays were negative, and Hakim is listed as day to day. 	105801966	1474630319722	1474630319794	 	32
205312	2226753	X-rays were negative, and Hakim is listed as day to day.	X-rays were negative, and Hakim is listed as day to day. 	105801969	1474630319866	1474630319890	w	87
205312	2226753	X-rays were negative, and Hakim is listed as day to day.	X-rays were negative, and Hakim is listed as day to day. 	105801972	1474630320490	1474630320554	e	69
205312	2226753	X-rays were negative, and Hakim is listed as day to day.	X-rays were negative, and Hakim is listed as day to day. 	105801974	1474630320650	1474630320706	r	82
205312	2226753	X-rays were negative, and Hakim is listed as day to day.	X-rays were negative, and Hakim is listed as day to day. 	105801999	1474630320802	1474630320858	e	69
205312	2226753	X-rays were negative, and Hakim is listed as day to day.	X-rays were negative, and Hakim is listed as day to day. 	105802000	1474630320922	1474630320970	 	32
205312	2226753	X-rays were negative, and Hakim is listed as day to day.	X-rays were negative, and Hakim is listed as day to day. 	105802002	1474630321202	1474630321258	n	78
205312	2226753	X-rays were negative, and Hakim is listed as day to day.	X-rays were negative, and Hakim is listed as day to day. 	105802007	1474630321330	1474630321362	e	69
205312	2226753	X-rays were negative, and Hakim is listed as day to day.	X-rays were negative, and Hakim is listed as day to day. 	105802011	1474630321450	1474630321506	e	69
205312	2226753	X-rays were negative, and Hakim is listed as day to day.	X-rays were negative, and Hakim is listed as day to day. 	105802086	1474630321946	1474630321986	BKSP	8
205312	2226753	X-rays were negative, and Hakim is listed as day to day.	X-rays were negative, and Hakim is listed as day to day. 	105802089	1474630322514	1474630322570	g	71
205312	2226753	X-rays were negative, and Hakim is listed as day to day.	X-rays were negative, and Hakim is listed as day to day. 	105802091	1474630322610	1474630322666	a	65
205312	2226753	X-rays were negative, and Hakim is listed as day to day.	X-rays were negative, and Hakim is listed as day to day. 	105802094	1474630322834	1474630322890	t	84
205312	2226753	X-rays were negative, and Hakim is listed as day to day.	X-rays were negative, and Hakim is listed as day to day. 	105802098	1474630322978	1474630323034	i	73
205312	2226753	X-rays were negative, and Hakim is listed as day to day.	X-rays were negative, and Hakim is listed as day to day. 	105802102	1474630323050	1474630323114	v	86
205312	2226753	X-rays were negative, and Hakim is listed as day to day.	X-rays were negative, and Hakim is listed as day to day. 	105802134	1474630323234	1474630323290	e	69
205312	2226753	X-rays were negative, and Hakim is listed as day to day.	X-rays were negative, and Hakim is listed as day to day. 	105802138	1474630323370	1474630323506	,	188
205312	2226753	X-rays were negative, and Hakim is listed as day to day.	X-rays were negative, and Hakim is listed as day to day. 	105802141	1474630323466	1474630323562	 	32
205312	2226753	X-rays were negative, and Hakim is listed as day to day.	X-rays were negative, and Hakim is listed as day to day. 	105802143	1474630323922	1474630323978	a	65
205312	2226753	X-rays were negative, and Hakim is listed as day to day.	X-rays were negative, and Hakim is listed as day to day. 	105802147	1474630324010	1474630324106	n	78
205312	2226753	X-rays were negative, and Hakim is listed as day to day.	X-rays were negative, and Hakim is listed as day to day. 	105802201	1474630324130	1474630324178	d	68
205312	2226753	X-rays were negative, and Hakim is listed as day to day.	X-rays were negative, and Hakim is listed as day to day. 	105802202	1474630324250	1474630324298	 	32
205312	2226753	X-rays were negative, and Hakim is listed as day to day.	X-rays were negative, and Hakim is listed as day to day. 	105802204	1474630324474	1474630324874	SHIFT	16
205312	2226753	X-rays were negative, and Hakim is listed as day to day.	X-rays were negative, and Hakim is listed as day to day. 	105802203	1474630324562	1474630324618	H	72
205312	2226753	X-rays were negative, and Hakim is listed as day to day.	X-rays were negative, and Hakim is listed as day to day. 	105802206	1474630324954	1474630325018	a	65
205312	2226753	X-rays were negative, and Hakim is listed as day to day.	X-rays were negative, and Hakim is listed as day to day. 	105802208	1474630325242	1474630325402	k	75
205312	2226753	X-rays were negative, and Hakim is listed as day to day.	X-rays were negative, and Hakim is listed as day to day. 	105802264	1474630325404	1474630325514	i	73
205312	2226753	X-rays were negative, and Hakim is listed as day to day.	X-rays were negative, and Hakim is listed as day to day. 	105802265	1474630326050	1474630326130	m	77
205312	2226753	X-rays were negative, and Hakim is listed as day to day.	X-rays were negative, and Hakim is listed as day to day. 	105802269	1474630326330	1474630326370	 	32
205312	2226753	X-rays were negative, and Hakim is listed as day to day.	X-rays were negative, and Hakim is listed as day to day. 	105802271	1474630326514	1474630326594	i	73
205312	2226753	X-rays were negative, and Hakim is listed as day to day.	X-rays were negative, and Hakim is listed as day to day. 	105802274	1474630326650	1474630326730	s	83
205312	2226753	X-rays were negative, and Hakim is listed as day to day.	X-rays were negative, and Hakim is listed as day to day. 	105802315	1474630326778	1474630326818	 	32
205312	2226753	X-rays were negative, and Hakim is listed as day to day.	X-rays were negative, and Hakim is listed as day to day. 	105802318	1474630327082	1474630327154	l	76
205312	2226753	X-rays were negative, and Hakim is listed as day to day.	X-rays were negative, and Hakim is listed as day to day. 	105802321	1474630327266	1474630327338	i	73
205312	2226753	X-rays were negative, and Hakim is listed as day to day.	X-rays were negative, and Hakim is listed as day to day. 	105802324	1474630327410	1474630327434	s	83
205312	2226753	X-rays were negative, and Hakim is listed as day to day.	X-rays were negative, and Hakim is listed as day to day. 	105802328	1474630328130	1474630328194	t	84
205312	2226753	X-rays were negative, and Hakim is listed as day to day.	X-rays were negative, and Hakim is listed as day to day. 	105802354	1474630328314	1474630328370	e	69
205312	2226753	X-rays were negative, and Hakim is listed as day to day.	X-rays were negative, and Hakim is listed as day to day. 	105802357	1474630328482	1474630328514	d	68
205312	2226753	X-rays were negative, and Hakim is listed as day to day.	X-rays were negative, and Hakim is listed as day to day. 	105802359	1474630328538	1474630328594	 	32
205312	2226753	X-rays were negative, and Hakim is listed as day to day.	X-rays were negative, and Hakim is listed as day to day. 	105802362	1474630328762	1474630328818	d	68
205312	2226753	X-rays were negative, and Hakim is listed as day to day.	X-rays were negative, and Hakim is listed as day to day. 	105802367	1474630328954	1474630329010	a	65
205312	2226753	X-rays were negative, and Hakim is listed as day to day.	X-rays were negative, and Hakim is listed as day to day. 	105802405	1474630329042	1474630329098	y	89
205312	2226753	X-rays were negative, and Hakim is listed as day to day.	X-rays were negative, and Hakim is listed as day to day. 	105802408	1474630329442	1474630329506	 	32
205312	2226753	X-rays were negative, and Hakim is listed as day to day.	X-rays were negative, and Hakim is listed as day to day. 	105802410	1474630329530	1474630329634	t	84
205312	2226753	X-rays were negative, and Hakim is listed as day to day.	X-rays were negative, and Hakim is listed as day to day. 	105802411	1474630329666	1474630329770	o	79
205312	2226753	X-rays were negative, and Hakim is listed as day to day.	X-rays were negative, and Hakim is listed as day to day. 	105802412	1474630329906	1474630329994	 	32
205312	2226753	X-rays were negative, and Hakim is listed as day to day.	X-rays were negative, and Hakim is listed as day to day. 	105802541	1474630330298	1474630330978	BKSP	8
205312	2226753	X-rays were negative, and Hakim is listed as day to day.	X-rays were negative, and Hakim is listed as day to day. 	105802542	1474630331170	1474630331210	BKSP	8
205312	2226753	X-rays were negative, and Hakim is listed as day to day.	X-rays were negative, and Hakim is listed as day to day. 	105802543	1474630331514	1474630331586	 	32
205312	2226753	X-rays were negative, and Hakim is listed as day to day.	X-rays were negative, and Hakim is listed as day to day. 	105802545	1474630331642	1474630331698	a	65
205312	2226753	X-rays were negative, and Hakim is listed as day to day.	X-rays were negative, and Hakim is listed as day to day. 	105802548	1474630331770	1474630331826	s	83
205312	2226753	X-rays were negative, and Hakim is listed as day to day.	X-rays were negative, and Hakim is listed as day to day. 	105802554	1474630331906	1474630331954	 	32
205312	2226753	X-rays were negative, and Hakim is listed as day to day.	X-rays were negative, and Hakim is listed as day to day. 	105802557	1474630332226	1474630332282	d	68
205312	2226753	X-rays were negative, and Hakim is listed as day to day.	X-rays were negative, and Hakim is listed as day to day. 	105802599	1474630332410	1474630332490	a	65
205312	2226753	X-rays were negative, and Hakim is listed as day to day.	X-rays were negative, and Hakim is listed as day to day. 	105802603	1474630332506	1474630332554	y	89
205312	2226753	X-rays were negative, and Hakim is listed as day to day.	X-rays were negative, and Hakim is listed as day to day. 	105802607	1474630332730	1474630332778	 	32
205312	2226753	X-rays were negative, and Hakim is listed as day to day.	X-rays were negative, and Hakim is listed as day to day. 	105802613	1474630332914	1474630332962	t	84
205312	2226753	X-rays were negative, and Hakim is listed as day to day.	X-rays were negative, and Hakim is listed as day to day. 	105802615	1474630332994	1474630333074	o	79
205312	2226753	X-rays were negative, and Hakim is listed as day to day.	X-rays were negative, and Hakim is listed as day to day. 	105802765	1474630333218	1474630333282	d	68
205312	2226753	X-rays were negative, and Hakim is listed as day to day.	X-rays were negative, and Hakim is listed as day to day. 	105802767	1474630333634	1474630333682	BKSP	8
205312	2226753	X-rays were negative, and Hakim is listed as day to day.	X-rays were negative, and Hakim is listed as day to day. 	105802771	1474630334674	1474630334746	d	68
205312	2226753	X-rays were negative, and Hakim is listed as day to day.	X-rays were negative, and Hakim is listed as day to day. 	105802775	1474630334858	1474630334954	a	65
205312	2226753	X-rays were negative, and Hakim is listed as day to day.	X-rays were negative, and Hakim is listed as day to day. 	105802778	1474630334954	1474630335002	y	89
205312	2226753	X-rays were negative, and Hakim is listed as day to day.	X-rays were negative, and Hakim is listed as day to day. 	105802781	1474630335218	1474630335274	BKSP	8
205312	2226753	X-rays were negative, and Hakim is listed as day to day.	X-rays were negative, and Hakim is listed as day to day. 	105802783	1474630335354	1474630335410	BKSP	8
205312	2226753	X-rays were negative, and Hakim is listed as day to day.	X-rays were negative, and Hakim is listed as day to day. 	105802785	1474630335490	1474630335554	BKSP	8
205312	2226753	X-rays were negative, and Hakim is listed as day to day.	X-rays were negative, and Hakim is listed as day to day. 	105802787	1474630335778	1474630335858	 	32
205312	2226753	X-rays were negative, and Hakim is listed as day to day.	X-rays were negative, and Hakim is listed as day to day. 	105802793	1474630335914	1474630335970	d	68
205312	2226753	X-rays were negative, and Hakim is listed as day to day.	X-rays were negative, and Hakim is listed as day to day. 	105802796	1474630336082	1474630336146	a	65
205312	2226753	X-rays were negative, and Hakim is listed as day to day.	X-rays were negative, and Hakim is listed as day to day. 	105802800	1474630336146	1474630336178	y	89
205312	2226753	X-rays were negative, and Hakim is listed as day to day.	X-rays were negative, and Hakim is listed as day to day. 	105802802	1474630336394	1474630336538	.	190
205312	2226753	X-rays were negative, and Hakim is listed as day to day.	X-rays were negative, and Hakim is listed as day to day. 	105802826	1474630336498	1474630336578	 	32
205312	2226775	Northern forces had captured a southern mechanised brigade.	Northern forces had captured a southern mechanised brigade. 	105802973	1474630339698	1474630340002	SHIFT	16
205312	2226775	Northern forces had captured a southern mechanised brigade.	Northern forces had captured a southern mechanised brigade. 	105802978	1474630339914	1474630340066	N	78
205312	2226775	Northern forces had captured a southern mechanised brigade.	Northern forces had captured a southern mechanised brigade. 	105802983	1474630340026	1474630340122	o	79
205312	2226775	Northern forces had captured a southern mechanised brigade.	Northern forces had captured a southern mechanised brigade. 	105802987	1474630340186	1474630340250	r	82
205312	2226775	Northern forces had captured a southern mechanised brigade.	Northern forces had captured a southern mechanised brigade. 	105802990	1474630340354	1474630340410	t	84
205312	2226775	Northern forces had captured a southern mechanised brigade.	Northern forces had captured a southern mechanised brigade. 	105802995	1474630340466	1474630340538	h	72
205312	2226775	Northern forces had captured a southern mechanised brigade.	Northern forces had captured a southern mechanised brigade. 	105803007	1474630340562	1474630340626	e	69
205312	2226775	Northern forces had captured a southern mechanised brigade.	Northern forces had captured a southern mechanised brigade. 	105803009	1474630340690	1474630340738	r	82
205312	2226775	Northern forces had captured a southern mechanised brigade.	Northern forces had captured a southern mechanised brigade. 	105803010	1474630340738	1474630340810	n	78
205312	2226775	Northern forces had captured a southern mechanised brigade.	Northern forces had captured a southern mechanised brigade. 	105803012	1474630340922	1474630340986	 	32
205312	2226775	Northern forces had captured a southern mechanised brigade.	Northern forces had captured a southern mechanised brigade. 	105803013	1474630341098	1474630341186	f	70
205312	2226775	Northern forces had captured a southern mechanised brigade.	Northern forces had captured a southern mechanised brigade. 	105803056	1474630341236	1474630341322	o	79
205312	2226775	Northern forces had captured a southern mechanised brigade.	Northern forces had captured a southern mechanised brigade. 	105803058	1474630341386	1474630341426	c	67
205312	2226775	Northern forces had captured a southern mechanised brigade.	Northern forces had captured a southern mechanised brigade. 	105803063	1474630341706	1474630341762	BKSP	8
205312	2226775	Northern forces had captured a southern mechanised brigade.	Northern forces had captured a southern mechanised brigade. 	105803066	1474630341818	1474630341866	r	82
205312	2226775	Northern forces had captured a southern mechanised brigade.	Northern forces had captured a southern mechanised brigade. 	105803067	1474630341978	1474630342018	v	86
205312	2226775	Northern forces had captured a southern mechanised brigade.	Northern forces had captured a southern mechanised brigade. 	105803069	1474630342226	1474630342298	e	69
205312	2226775	Northern forces had captured a southern mechanised brigade.	Northern forces had captured a southern mechanised brigade. 	105803137	1474630342442	1474630342474	s	83
205312	2226775	Northern forces had captured a southern mechanised brigade.	Northern forces had captured a southern mechanised brigade. 	105803139	1474630342602	1474630342650	BKSP	8
205312	2226775	Northern forces had captured a southern mechanised brigade.	Northern forces had captured a southern mechanised brigade. 	105803144	1474630342738	1474630342786	BKSP	8
205312	2226775	Northern forces had captured a southern mechanised brigade.	Northern forces had captured a southern mechanised brigade. 	105803150	1474630342858	1474630342922	BKSP	8
205312	2226775	Northern forces had captured a southern mechanised brigade.	Northern forces had captured a southern mechanised brigade. 	105803157	1474630343002	1474630343074	c	67
205312	2226775	Northern forces had captured a southern mechanised brigade.	Northern forces had captured a southern mechanised brigade. 	105803162	1474630343193	1474630343258	e	69
205312	2226775	Northern forces had captured a southern mechanised brigade.	Northern forces had captured a southern mechanised brigade. 	105803164	1474630343362	1474630343418	s	83
205312	2226775	Northern forces had captured a southern mechanised brigade.	Northern forces had captured a southern mechanised brigade. 	105803165	1474630343458	1474630343505	 	32
205312	2226775	Northern forces had captured a southern mechanised brigade.	Northern forces had captured a southern mechanised brigade. 	105803179	1474630343634	1474630343706	h	72
205312	2226775	Northern forces had captured a southern mechanised brigade.	Northern forces had captured a southern mechanised brigade. 	105803183	1474630343706	1474630343770	a	65
205312	2226775	Northern forces had captured a southern mechanised brigade.	Northern forces had captured a southern mechanised brigade. 	105803187	1474630343881	1474630343930	d	68
205312	2226775	Northern forces had captured a southern mechanised brigade.	Northern forces had captured a southern mechanised brigade. 	105803190	1474630343993	1474630344041	 	32
205312	2226775	Northern forces had captured a southern mechanised brigade.	Northern forces had captured a southern mechanised brigade. 	105803193	1474630344138	1474630344193	c	67
205312	2226775	Northern forces had captured a southern mechanised brigade.	Northern forces had captured a southern mechanised brigade. 	105803243	1474630344314	1474630344378	a	65
205312	2226775	Northern forces had captured a southern mechanised brigade.	Northern forces had captured a southern mechanised brigade. 	105803251	1474630344450	1474630344538	p	80
205312	2226775	Northern forces had captured a southern mechanised brigade.	Northern forces had captured a southern mechanised brigade. 	105803257	1474630345002	1474630345066	t	84
205312	2226775	Northern forces had captured a southern mechanised brigade.	Northern forces had captured a southern mechanised brigade. 	105803264	1474630345130	1474630345194	u	85
205312	2226775	Northern forces had captured a southern mechanised brigade.	Northern forces had captured a southern mechanised brigade. 	105803270	1474630345257	1474630345314	r	82
205312	2226775	Northern forces had captured a southern mechanised brigade.	Northern forces had captured a southern mechanised brigade. 	105803288	1474630345426	1474630345474	e	69
205312	2226775	Northern forces had captured a southern mechanised brigade.	Northern forces had captured a southern mechanised brigade. 	105803293	1474630345562	1474630345610	d	68
205312	2226775	Northern forces had captured a southern mechanised brigade.	Northern forces had captured a southern mechanised brigade. 	105803299	1474630345698	1474630345738	 	32
205312	2226775	Northern forces had captured a southern mechanised brigade.	Northern forces had captured a southern mechanised brigade. 	105803303	1474630345794	1474630345882	a	65
205312	2226775	Northern forces had captured a southern mechanised brigade.	Northern forces had captured a southern mechanised brigade. 	105803309	1474630345921	1474630345970	 	32
205312	2226775	Northern forces had captured a southern mechanised brigade.	Northern forces had captured a southern mechanised brigade. 	105803320	1474630346050	1474630346106	s	83
205312	2226775	Northern forces had captured a southern mechanised brigade.	Northern forces had captured a southern mechanised brigade. 	105803324	1474630346234	1474630346346	o	79
205312	2226775	Northern forces had captured a southern mechanised brigade.	Northern forces had captured a southern mechanised brigade. 	105803329	1474630346402	1474630346466	i	85
205312	2226775	Northern forces had captured a southern mechanised brigade.	Northern forces had captured a southern mechanised brigade. 	105803335	1474630346497	1474630346586	t	84
205312	2226775	Northern forces had captured a southern mechanised brigade.	Northern forces had captured a southern mechanised brigade. 	105803434	1474630346658	1474630346730	h	72
205312	2226775	Northern forces had captured a southern mechanised brigade.	Northern forces had captured a southern mechanised brigade. 	105803437	1474630346882	1474630346946	BKSP	8
205312	2226775	Northern forces had captured a southern mechanised brigade.	Northern forces had captured a southern mechanised brigade. 	105803439	1474630347018	1474630347082	BKSP	8
205312	2226775	Northern forces had captured a southern mechanised brigade.	Northern forces had captured a southern mechanised brigade. 	105803444	1474630347161	1474630347217	BKSP	8
205312	2226775	Northern forces had captured a southern mechanised brigade.	Northern forces had captured a southern mechanised brigade. 	105803450	1474630347306	1474630347354	BKSP	8
205312	2226775	Northern forces had captured a southern mechanised brigade.	Northern forces had captured a southern mechanised brigade. 	105803456	1474630347937	1474630348002	u	85
205312	2226775	Northern forces had captured a southern mechanised brigade.	Northern forces had captured a southern mechanised brigade. 	105803461	1474630348066	1474630348122	t	84
205312	2226775	Northern forces had captured a southern mechanised brigade.	Northern forces had captured a southern mechanised brigade. 	105803465	1474630348153	1474630348218	h	72
205312	2226775	Northern forces had captured a southern mechanised brigade.	Northern forces had captured a southern mechanised brigade. 	105803473	1474630348249	1474630348313	e	69
205312	2226775	Northern forces had captured a southern mechanised brigade.	Northern forces had captured a southern mechanised brigade. 	105803558	1474630348402	1474630348433	r	82
205312	2226775	Northern forces had captured a southern mechanised brigade.	Northern forces had captured a southern mechanised brigade. 	105803562	1474630348545	1474630348578	e	69
205312	2226775	Northern forces had captured a southern mechanised brigade.	Northern forces had captured a southern mechanised brigade. 	105803566	1474630349057	1474630349105	BKSP	8
205312	2226775	Northern forces had captured a southern mechanised brigade.	Northern forces had captured a southern mechanised brigade. 	105803568	1474630350177	1474630350249	n	78
205312	2226775	Northern forces had captured a southern mechanised brigade.	Northern forces had captured a southern mechanised brigade. 	105803571	1474630350345	1474630350401	 	32
205312	2226775	Northern forces had captured a southern mechanised brigade.	Northern forces had captured a southern mechanised brigade. 	105803574	1474630350577	1474630350633	m	77
205312	2226775	Northern forces had captured a southern mechanised brigade.	Northern forces had captured a southern mechanised brigade. 	105803681	1474630351505	1474630351593	e	69
205312	2226775	Northern forces had captured a southern mechanised brigade.	Northern forces had captured a southern mechanised brigade. 	105803684	1474630351737	1474630351793	a	65
205312	2226775	Northern forces had captured a southern mechanised brigade.	Northern forces had captured a southern mechanised brigade. 	105803688	1474630351953	1474630352001	c	67
205312	2226775	Northern forces had captured a southern mechanised brigade.	Northern forces had captured a southern mechanised brigade. 	105803691	1474630352129	1474630352209	h	72
205312	2226775	Northern forces had captured a southern mechanised brigade.	Northern forces had captured a southern mechanised brigade. 	105803694	1474630352857	1474630352913	BKSP	8
205312	2226775	Northern forces had captured a southern mechanised brigade.	Northern forces had captured a southern mechanised brigade. 	105803699	1474630352993	1474630353049	BKSP	8
205312	2226775	Northern forces had captured a southern mechanised brigade.	Northern forces had captured a southern mechanised brigade. 	105803702	1474630353161	1474630353185	BKSP	8
205312	2226775	Northern forces had captured a southern mechanised brigade.	Northern forces had captured a southern mechanised brigade. 	105803706	1474630353745	1474630353801	c	67
205312	2226775	Northern forces had captured a southern mechanised brigade.	Northern forces had captured a southern mechanised brigade. 	105803712	1474630353857	1474630353929	h	72
205312	2226775	Northern forces had captured a southern mechanised brigade.	Northern forces had captured a southern mechanised brigade. 	105803715	1474630354001	1474630354073	a	65
205312	2226775	Northern forces had captured a southern mechanised brigade.	Northern forces had captured a southern mechanised brigade. 	105803721	1474630354097	1474630354217	n	78
205312	2226775	Northern forces had captured a southern mechanised brigade.	Northern forces had captured a southern mechanised brigade. 	105803727	1474630354169	1474630354281	i	73
205312	2226775	Northern forces had captured a southern mechanised brigade.	Northern forces had captured a southern mechanised brigade. 	105803731	1474630354282	1474630354313	s	83
205312	2226775	Northern forces had captured a southern mechanised brigade.	Northern forces had captured a southern mechanised brigade. 	105803761	1474630354417	1474630354465	e	69
205312	2226775	Northern forces had captured a southern mechanised brigade.	Northern forces had captured a southern mechanised brigade. 	105803762	1474630354561	1474630354609	d	68
205312	2226775	Northern forces had captured a southern mechanised brigade.	Northern forces had captured a southern mechanised brigade. 	105803764	1474630354649	1474630354713	 	32
205312	2226775	Northern forces had captured a southern mechanised brigade.	Northern forces had captured a southern mechanised brigade. 	105803766	1474630354865	1474630354913	b	66
205312	2226775	Northern forces had captured a southern mechanised brigade.	Northern forces had captured a southern mechanised brigade. 	105803770	1474630354945	1474630355017	r	82
205312	2226775	Northern forces had captured a southern mechanised brigade.	Northern forces had captured a southern mechanised brigade. 	105803825	1474630355633	1474630355689	i	73
205312	2226775	Northern forces had captured a southern mechanised brigade.	Northern forces had captured a southern mechanised brigade. 	105803829	1474630356225	1474630356274	g	71
205312	2226775	Northern forces had captured a southern mechanised brigade.	Northern forces had captured a southern mechanised brigade. 	105803834	1474630356313	1474630356369	a	65
205312	2226775	Northern forces had captured a southern mechanised brigade.	Northern forces had captured a southern mechanised brigade. 	105803840	1474630356473	1474630356513	d	68
205312	2226775	Northern forces had captured a southern mechanised brigade.	Northern forces had captured a southern mechanised brigade. 	105803844	1474630356609	1474630356649	e	69
205312	2226775	Northern forces had captured a southern mechanised brigade.	Northern forces had captured a southern mechanised brigade. 	105803897	1474630356841	1474630356937	 	32
205312	2226775	Northern forces had captured a southern mechanised brigade.	Northern forces had captured a southern mechanised brigade. 	105803899	1474630357353	1474630357417	BKSP	8
205312	2226775	Northern forces had captured a southern mechanised brigade.	Northern forces had captured a southern mechanised brigade. 	105803902	1474630357673	1474630357817	.	190
205312	2226775	Northern forces had captured a southern mechanised brigade.	Northern forces had captured a southern mechanised brigade. 	105803906	1474630357769	1474630357881	 	32
205312	2226794	Ruth, I'll send this spreadsheet as I update it.	Ruth, I'll send this spreadsheet as I update it.	105804021	1474630360001	1474630360529	SHIFT	16
205312	2226794	Ruth, I'll send this spreadsheet as I update it.	Ruth, I'll send this spreadsheet as I update it.	105804020	1474630360353	1474630360433	R	82
205312	2226794	Ruth, I'll send this spreadsheet as I update it.	Ruth, I'll send this spreadsheet as I update it.	105804022	1474630360529	1474630360625	u	85
205312	2226794	Ruth, I'll send this spreadsheet as I update it.	Ruth, I'll send this spreadsheet as I update it.	105804024	1474630360729	1474630360801	t	84
205312	2226794	Ruth, I'll send this spreadsheet as I update it.	Ruth, I'll send this spreadsheet as I update it.	105804026	1474630360825	1474630360881	h	72
205312	2226794	Ruth, I'll send this spreadsheet as I update it.	Ruth, I'll send this spreadsheet as I update it.	105804029	1474630361089	1474630361257	,	188
205312	2226794	Ruth, I'll send this spreadsheet as I update it.	Ruth, I'll send this spreadsheet as I update it.	105804156	1474630361201	1474630361313	 	32
205312	2226794	Ruth, I'll send this spreadsheet as I update it.	Ruth, I'll send this spreadsheet as I update it.	105804160	1474630361633	1474630362009	SHIFT	16
205312	2226794	Ruth, I'll send this spreadsheet as I update it.	Ruth, I'll send this spreadsheet as I update it.	105804158	1474630361841	1474630361937	I	73
205312	2226794	Ruth, I'll send this spreadsheet as I update it.	Ruth, I'll send this spreadsheet as I update it.	105804163	1474630362305	1474630362345	;	186
205312	2226794	Ruth, I'll send this spreadsheet as I update it.	Ruth, I'll send this spreadsheet as I update it.	105804170	1474630362689	1474630362769	BKSP	8
205312	2226794	Ruth, I'll send this spreadsheet as I update it.	Ruth, I'll send this spreadsheet as I update it.	105804177	1474630363009	1474630363097	;	186
205312	2226794	Ruth, I'll send this spreadsheet as I update it.	Ruth, I'll send this spreadsheet as I update it.	105804182	1474630363617	1474630363681	BKSP	8
205312	2226794	Ruth, I'll send this spreadsheet as I update it.	Ruth, I'll send this spreadsheet as I update it.	105804190	1474630363929	1474630363993	'	192
205312	2226794	Ruth, I'll send this spreadsheet as I update it.	Ruth, I'll send this spreadsheet as I update it.	105804193	1474630364273	1474630364337	l	76
205312	2226794	Ruth, I'll send this spreadsheet as I update it.	Ruth, I'll send this spreadsheet as I update it.	105804201	1474630364417	1474630364489	l	76
205312	2226794	Ruth, I'll send this spreadsheet as I update it.	Ruth, I'll send this spreadsheet as I update it.	105804203	1474630364625	1474630364689	 	32
205312	2226794	Ruth, I'll send this spreadsheet as I update it.	Ruth, I'll send this spreadsheet as I update it.	105804205	1474630364793	1474630364849	s	83
205312	2226794	Ruth, I'll send this spreadsheet as I update it.	Ruth, I'll send this spreadsheet as I update it.	105804207	1474630364945	1474630365009	e	69
205312	2226794	Ruth, I'll send this spreadsheet as I update it.	Ruth, I'll send this spreadsheet as I update it.	105804209	1474630365057	1474630365129	n	78
205312	2226794	Ruth, I'll send this spreadsheet as I update it.	Ruth, I'll send this spreadsheet as I update it.	105804251	1474630365321	1474630365369	 	32
205312	2226794	Ruth, I'll send this spreadsheet as I update it.	Ruth, I'll send this spreadsheet as I update it.	105804255	1474630365641	1474630365705	BKSP	8
205312	2226794	Ruth, I'll send this spreadsheet as I update it.	Ruth, I'll send this spreadsheet as I update it.	105804259	1474630365785	1474630365857	d	68
205312	2226794	Ruth, I'll send this spreadsheet as I update it.	Ruth, I'll send this spreadsheet as I update it.	105804263	1474630365921	1474630365985	 	32
205312	2226794	Ruth, I'll send this spreadsheet as I update it.	Ruth, I'll send this spreadsheet as I update it.	105804267	1474630366057	1474630366129	t	84
205312	2226794	Ruth, I'll send this spreadsheet as I update it.	Ruth, I'll send this spreadsheet as I update it.	105804271	1474630366169	1474630366273	h	72
205312	2226794	Ruth, I'll send this spreadsheet as I update it.	Ruth, I'll send this spreadsheet as I update it.	105804280	1474630366233	1474630366353	i	73
205312	2226794	Ruth, I'll send this spreadsheet as I update it.	Ruth, I'll send this spreadsheet as I update it.	105804283	1474630366385	1474630366449	s	83
205312	2226794	Ruth, I'll send this spreadsheet as I update it.	Ruth, I'll send this spreadsheet as I update it.	105804290	1474630366465	1474630366521	 	32
205312	2226794	Ruth, I'll send this spreadsheet as I update it.	Ruth, I'll send this spreadsheet as I update it.	105804295	1474630366673	1474630366745	s	83
205312	2226794	Ruth, I'll send this spreadsheet as I update it.	Ruth, I'll send this spreadsheet as I update it.	105804299	1474630366777	1474630366841	p	80
205312	2226794	Ruth, I'll send this spreadsheet as I update it.	Ruth, I'll send this spreadsheet as I update it.	105804304	1474630366897	1474630366961	r	82
205312	2226794	Ruth, I'll send this spreadsheet as I update it.	Ruth, I'll send this spreadsheet as I update it.	105804313	1474630367073	1474630367129	e	69
205312	2226794	Ruth, I'll send this spreadsheet as I update it.	Ruth, I'll send this spreadsheet as I update it.	105804314	1474630367249	1474630367297	a	65
205312	2226794	Ruth, I'll send this spreadsheet as I update it.	Ruth, I'll send this spreadsheet as I update it.	105804315	1474630367393	1474630367433	d	68
205312	2226794	Ruth, I'll send this spreadsheet as I update it.	Ruth, I'll send this spreadsheet as I update it.	105804316	1474630367537	1474630367611	h	72
205312	2226794	Ruth, I'll send this spreadsheet as I update it.	Ruth, I'll send this spreadsheet as I update it.	105804317	1474630367633	1474630367705	s	83
205312	2226794	Ruth, I'll send this spreadsheet as I update it.	Ruth, I'll send this spreadsheet as I update it.	105804409	1474630368513	1474630368585	BKSP	8
205312	2226794	Ruth, I'll send this spreadsheet as I update it.	Ruth, I'll send this spreadsheet as I update it.	105804410	1474630368761	1474630368825	BKSP	8
205312	2226794	Ruth, I'll send this spreadsheet as I update it.	Ruth, I'll send this spreadsheet as I update it.	105804411	1474630369465	1474630369529	s	83
205312	2226794	Ruth, I'll send this spreadsheet as I update it.	Ruth, I'll send this spreadsheet as I update it.	105804412	1474630369577	1474630369641	h	72
205312	2226794	Ruth, I'll send this spreadsheet as I update it.	Ruth, I'll send this spreadsheet as I update it.	105804414	1474630369737	1474630369801	e	69
205312	2226794	Ruth, I'll send this spreadsheet as I update it.	Ruth, I'll send this spreadsheet as I update it.	105804416	1474630369865	1474630369921	e	69
205312	2226794	Ruth, I'll send this spreadsheet as I update it.	Ruth, I'll send this spreadsheet as I update it.	105804417	1474630370049	1474630370105	t	84
205312	2226794	Ruth, I'll send this spreadsheet as I update it.	Ruth, I'll send this spreadsheet as I update it.	105804434	1474630370169	1474630370233	 	32
205312	2226794	Ruth, I'll send this spreadsheet as I update it.	Ruth, I'll send this spreadsheet as I update it.	105804437	1474630370385	1474630370441	a	65
205312	2226794	Ruth, I'll send this spreadsheet as I update it.	Ruth, I'll send this spreadsheet as I update it.	105804439	1474630370801	1474630370873	s	83
205312	2226794	Ruth, I'll send this spreadsheet as I update it.	Ruth, I'll send this spreadsheet as I update it.	105804441	1474630370977	1474630371049	 	32
205312	2226794	Ruth, I'll send this spreadsheet as I update it.	Ruth, I'll send this spreadsheet as I update it.	105804460	1474630371113	1474630371329	SHIFT	16
205312	2226794	Ruth, I'll send this spreadsheet as I update it.	Ruth, I'll send this spreadsheet as I update it.	105804444	1474630371249	1474630371313	I	73
205312	2226794	Ruth, I'll send this spreadsheet as I update it.	Ruth, I'll send this spreadsheet as I update it.	105804462	1474630371401	1474630371481	 	32
205312	2226794	Ruth, I'll send this spreadsheet as I update it.	Ruth, I'll send this spreadsheet as I update it.	105804465	1474630371633	1474630371769	u	85
205312	2226794	Ruth, I'll send this spreadsheet as I update it.	Ruth, I'll send this spreadsheet as I update it.	105804470	1474630371745	1474630371833	p	80
205312	2226794	Ruth, I'll send this spreadsheet as I update it.	Ruth, I'll send this spreadsheet as I update it.	105804473	1474630371905	1474630371961	d	68
205312	2226794	Ruth, I'll send this spreadsheet as I update it.	Ruth, I'll send this spreadsheet as I update it.	105804474	1474630372089	1474630372161	a	65
205312	2226794	Ruth, I'll send this spreadsheet as I update it.	Ruth, I'll send this spreadsheet as I update it.	105804518	1474630372164	1474630372217	t	84
205312	2226794	Ruth, I'll send this spreadsheet as I update it.	Ruth, I'll send this spreadsheet as I update it.	105804522	1474630372305	1474630372361	e	69
205312	2226794	Ruth, I'll send this spreadsheet as I update it.	Ruth, I'll send this spreadsheet as I update it.	105804525	1474630372425	1474630372489	 	32
205312	2226794	Ruth, I'll send this spreadsheet as I update it.	Ruth, I'll send this spreadsheet as I update it.	105804530	1474630372673	1474630372753	i	73
205312	2226794	Ruth, I'll send this spreadsheet as I update it.	Ruth, I'll send this spreadsheet as I update it.	105804533	1474630372793	1474630372865	t	84
205312	2226794	Ruth, I'll send this spreadsheet as I update it.	Ruth, I'll send this spreadsheet as I update it.	105804544	1474630372953	1474630373065	.	190
205312	2226794	Ruth, I'll send this spreadsheet as I update it.	Ruth, I'll send this spreadsheet as I update it.	105804542	1474630372977	1474630373041	CTRL	17
205312	2226794	Ruth, I'll send this spreadsheet as I update it.	Ruth, I'll send this spreadsheet as I update it.	105804543	1474630372978	1474630373041	ALT	18
205312	2226806	The delegation is to visit a metal works.	The delegation is to visit a metal works. 	105804653	1474630375857	1474630376217	SHIFT	16
205312	2226806	The delegation is to visit a metal works.	The delegation is to visit a metal works. 	105804657	1474630376137	1474630376217	T	84
205312	2226806	The delegation is to visit a metal works.	The delegation is to visit a metal works. 	105804661	1474630376353	1474630376433	h	72
205312	2226806	The delegation is to visit a metal works.	The delegation is to visit a metal works. 	105804668	1474630376465	1474630376553	e	69
205312	2226806	The delegation is to visit a metal works.	The delegation is to visit a metal works. 	105804673	1474630376601	1474630376657	 	32
205312	2226806	The delegation is to visit a metal works.	The delegation is to visit a metal works. 	105804677	1474630376745	1474630376793	d	68
205312	2226806	The delegation is to visit a metal works.	The delegation is to visit a metal works. 	105804736	1474630376905	1474630376961	e	69
205312	2226806	The delegation is to visit a metal works.	The delegation is to visit a metal works. 	105804738	1474630376993	1474630377081	l	76
205312	2226806	The delegation is to visit a metal works.	The delegation is to visit a metal works. 	105804741	1474630377409	1474630377513	e	69
205312	2226806	The delegation is to visit a metal works.	The delegation is to visit a metal works. 	105804744	1474630377897	1474630377961	g	71
205312	2226806	The delegation is to visit a metal works.	The delegation is to visit a metal works. 	105804747	1474630378569	1474630378641	t	84
205312	2226806	The delegation is to visit a metal works.	The delegation is to visit a metal works. 	105804796	1474630378929	1474630379057	i	73
205312	2226806	The delegation is to visit a metal works.	The delegation is to visit a metal works. 	105804799	1474630379265	1474630379321	BKSP	8
205312	2226806	The delegation is to visit a metal works.	The delegation is to visit a metal works. 	105804802	1474630379401	1474630379457	BKSP	8
205312	2226806	The delegation is to visit a metal works.	The delegation is to visit a metal works. 	105804805	1474630379849	1474630379905	a	65
205312	2226806	The delegation is to visit a metal works.	The delegation is to visit a metal works. 	105804808	1474630380105	1474630380169	t	84
205312	2226806	The delegation is to visit a metal works.	The delegation is to visit a metal works. 	105804810	1474630380241	1474630380377	i	73
205312	2226806	The delegation is to visit a metal works.	The delegation is to visit a metal works. 	105804817	1474630380345	1474630380521	o	79
205312	2226806	The delegation is to visit a metal works.	The delegation is to visit a metal works. 	105804823	1474630380481	1474630380577	n	78
205312	2226806	The delegation is to visit a metal works.	The delegation is to visit a metal works. 	105804828	1474630380673	1474630380753	 	32
205312	2226806	The delegation is to visit a metal works.	The delegation is to visit a metal works. 	105804836	1474630380833	1474630380937	i	73
205312	2226806	The delegation is to visit a metal works.	The delegation is to visit a metal works. 	105804840	1474630380961	1474630381033	s	83
205312	2226806	The delegation is to visit a metal works.	The delegation is to visit a metal works. 	105804842	1474630381073	1474630381153	 	32
205312	2226806	The delegation is to visit a metal works.	The delegation is to visit a metal works. 	105804876	1474630381321	1474630381409	t	84
205312	2226806	The delegation is to visit a metal works.	The delegation is to visit a metal works. 	105804879	1474630381409	1474630381473	o	79
205312	2226806	The delegation is to visit a metal works.	The delegation is to visit a metal works. 	105804880	1474630381601	1474630381657	 	32
205312	2226806	The delegation is to visit a metal works.	The delegation is to visit a metal works. 	105804883	1474630382225	1474630382281	v	86
205312	2226806	The delegation is to visit a metal works.	The delegation is to visit a metal works. 	105804886	1474630382353	1474630382433	i	73
205312	2226806	The delegation is to visit a metal works.	The delegation is to visit a metal works. 	105804944	1474630382713	1474630382777	s	83
205312	2226806	The delegation is to visit a metal works.	The delegation is to visit a metal works. 	105804946	1474630382873	1474630382913	i	73
205312	2226806	The delegation is to visit a metal works.	The delegation is to visit a metal works. 	105804947	1474630383017	1474630383057	t	84
205312	2226806	The delegation is to visit a metal works.	The delegation is to visit a metal works. 	105804948	1474630383777	1474630383841	 	32
205312	2226806	The delegation is to visit a metal works.	The delegation is to visit a metal works. 	105804949	1474630384489	1474630384553	a	65
205312	2226806	The delegation is to visit a metal works.	The delegation is to visit a metal works. 	105804964	1474630384593	1474630384657	 	32
205312	2226806	The delegation is to visit a metal works.	The delegation is to visit a metal works. 	105804966	1474630384761	1474630384817	m	77
205312	2226806	The delegation is to visit a metal works.	The delegation is to visit a metal works. 	105804968	1474630384841	1474630384905	e	69
205312	2226806	The delegation is to visit a metal works.	The delegation is to visit a metal works. 	105804970	1474630385033	1474630385089	t	84
205312	2226806	The delegation is to visit a metal works.	The delegation is to visit a metal works. 	105804973	1474630385241	1474630385305	a	65
205312	2226806	The delegation is to visit a metal works.	The delegation is to visit a metal works. 	105805002	1474630385377	1474630385449	l	76
205312	2226806	The delegation is to visit a metal works.	The delegation is to visit a metal works. 	105805006	1474630385641	1474630385705	 	32
205312	2226806	The delegation is to visit a metal works.	The delegation is to visit a metal works. 	105805010	1474630385801	1474630385881	w	87
205312	2226806	The delegation is to visit a metal works.	The delegation is to visit a metal works. 	105805014	1474630385961	1474630386041	o	79
205312	2226806	The delegation is to visit a metal works.	The delegation is to visit a metal works. 	105805016	1474630386105	1474630386169	r	82
205312	2226806	The delegation is to visit a metal works.	The delegation is to visit a metal works. 	105805028	1474630386209	1474630386297	k	75
205312	2226806	The delegation is to visit a metal works.	The delegation is to visit a metal works. 	105805030	1474630386353	1474630386417	s	83
205312	2226806	The delegation is to visit a metal works.	The delegation is to visit a metal works. 	105805033	1474630386585	1474630386745	.	190
205312	2226806	The delegation is to visit a metal works.	The delegation is to visit a metal works. 	105805038	1474630386689	1474630386793	 	32
205312	2226815	I thought you were on 6.	I thought you were on 6	105805197	1474630389689	1474630390537	SHIFT	16
205312	2226815	I thought you were on 6.	I thought you were on 6	105805195	1474630390441	1474630390529	I	73
205312	2226815	I thought you were on 6.	I thought you were on 6	105805199	1474630390657	1474630390737	 	32
205312	2226815	I thought you were on 6.	I thought you were on 6	105805204	1474630390841	1474630390897	t	84
205312	2226815	I thought you were on 6.	I thought you were on 6	105805210	1474630390937	1474630391057	h	72
205312	2226815	I thought you were on 6.	I thought you were on 6	105805232	1474630391001	1474630391145	o	79
205312	2226815	I thought you were on 6.	I thought you were on 6	105805233	1474630391121	1474630391241	u	85
205312	2226815	I thought you were on 6.	I thought you were on 6	105805234	1474630391265	1474630391337	g	71
205312	2226815	I thought you were on 6.	I thought you were on 6	105805235	1474630391337	1474630391425	h	72
205312	2226815	I thought you were on 6.	I thought you were on 6	105805236	1474630391529	1474630391609	t	84
205312	2226815	I thought you were on 6.	I thought you were on 6	105805238	1474630391665	1474630391745	 	32
205312	2226815	I thought you were on 6.	I thought you were on 6	105805265	1474630391833	1474630391905	y	89
205312	2226815	I thought you were on 6.	I thought you were on 6	105805269	1474630391905	1474630391993	o	79
205312	2226815	I thought you were on 6.	I thought you were on 6	105805272	1474630391993	1474630392049	u	85
205312	2226815	I thought you were on 6.	I thought you were on 6	105805274	1474630392121	1474630392185	 	32
205312	2226815	I thought you were on 6.	I thought you were on 6	105805279	1474630392281	1474630392339	w	87
205312	2226815	I thought you were on 6.	I thought you were on 6	105805298	1474630392433	1474630392489	e	69
205312	2226815	I thought you were on 6.	I thought you were on 6	105805300	1474630392593	1474630392649	r	82
205312	2226815	I thought you were on 6.	I thought you were on 6	105805302	1474630392737	1474630392801	e	69
205312	2226815	I thought you were on 6.	I thought you were on 6	105805304	1474630392857	1474630392921	 	32
205312	2226815	I thought you were on 6.	I thought you were on 6	105805306	1474630393041	1474630393177	o	79
205312	2226815	I thought you were on 6.	I thought you were on 6	105805308	1474630393121	1474630393225	n	78
205312	2226815	I thought you were on 6.	I thought you were on 6	105805309	1474630393329	1474630393409	 	32
205312	2226815	I thought you were on 6.	I thought you were on 6	105805313	1474630393409	1474630393465	6	54
205312	2226822	The restart was a painful lesson regarding the rules of the race.	The restart was a painful lesson regarding the rules of the race. 	105805464	1474630396049	1474630396465	SHIFT	16
205312	2226822	The restart was a painful lesson regarding the rules of the race.	The restart was a painful lesson regarding the rules of the race. 	105805467	1474630396409	1474630396465	T	84
205312	2226822	The restart was a painful lesson regarding the rules of the race.	The restart was a painful lesson regarding the rules of the race. 	105805470	1474630396593	1474630396665	h	72
205312	2226822	The restart was a painful lesson regarding the rules of the race.	The restart was a painful lesson regarding the rules of the race. 	105805473	1474630396689	1474630396769	e	69
205312	2226822	The restart was a painful lesson regarding the rules of the race.	The restart was a painful lesson regarding the rules of the race. 	105805477	1474630396865	1474630396921	 	32
205312	2226822	The restart was a painful lesson regarding the rules of the race.	The restart was a painful lesson regarding the rules of the race. 	105805480	1474630397209	1474630397249	r	82
205312	2226822	The restart was a painful lesson regarding the rules of the race.	The restart was a painful lesson regarding the rules of the race. 	105805530	1474630397345	1474630397401	e	69
205312	2226822	The restart was a painful lesson regarding the rules of the race.	The restart was a painful lesson regarding the rules of the race. 	105805531	1474630397545	1474630397593	s	83
205312	2226822	The restart was a painful lesson regarding the rules of the race.	The restart was a painful lesson regarding the rules of the race. 	105805532	1474630398009	1474630398049	BKSP	8
205312	2226822	The restart was a painful lesson regarding the rules of the race.	The restart was a painful lesson regarding the rules of the race. 	105805533	1474630398393	1474630398481	s	83
205312	2226822	The restart was a painful lesson regarding the rules of the race.	The restart was a painful lesson regarding the rules of the race. 	105805534	1474630398841	1474630398905	t	84
205312	2226822	The restart was a painful lesson regarding the rules of the race.	The restart was a painful lesson regarding the rules of the race. 	105805535	1474630399073	1474630399137	a	65
205312	2226822	The restart was a painful lesson regarding the rules of the race.	The restart was a painful lesson regarding the rules of the race. 	105805553	1474630399265	1474630399321	r	82
205312	2226822	The restart was a painful lesson regarding the rules of the race.	The restart was a painful lesson regarding the rules of the race. 	105805555	1474630399409	1474630399465	t	84
205312	2226822	The restart was a painful lesson regarding the rules of the race.	The restart was a painful lesson regarding the rules of the race. 	105805557	1474630399505	1474630399569	 	32
205312	2226822	The restart was a painful lesson regarding the rules of the race.	The restart was a painful lesson regarding the rules of the race. 	105805561	1474630399633	1474630399697	w	87
205312	2226822	The restart was a painful lesson regarding the rules of the race.	The restart was a painful lesson regarding the rules of the race. 	105805564	1474630399809	1474630399857	a	65
205312	2226822	The restart was a painful lesson regarding the rules of the race.	The restart was a painful lesson regarding the rules of the race. 	105805567	1474630399945	1474630399985	s	83
205312	2226822	The restart was a painful lesson regarding the rules of the race.	The restart was a painful lesson regarding the rules of the race. 	105805568	1474630400041	1474630400113	 	32
205312	2226822	The restart was a painful lesson regarding the rules of the race.	The restart was a painful lesson regarding the rules of the race. 	105805569	1474630400169	1474630400233	a	65
205312	2226822	The restart was a painful lesson regarding the rules of the race.	The restart was a painful lesson regarding the rules of the race. 	105805570	1474630400265	1474630400329	 	32
205312	2226822	The restart was a painful lesson regarding the rules of the race.	The restart was a painful lesson regarding the rules of the race. 	105805571	1474630400529	1474630400609	p	80
205312	2226822	The restart was a painful lesson regarding the rules of the race.	The restart was a painful lesson regarding the rules of the race. 	105805595	1474630400681	1474630400753	a	65
205312	2226822	The restart was a painful lesson regarding the rules of the race.	The restart was a painful lesson regarding the rules of the race. 	105805601	1474630400889	1474630401041	i	73
205312	2226822	The restart was a painful lesson regarding the rules of the race.	The restart was a painful lesson regarding the rules of the race. 	105805606	1474630400969	1474630401081	n	78
205312	2226822	The restart was a painful lesson regarding the rules of the race.	The restart was a painful lesson regarding the rules of the race. 	105805611	1474630401329	1474630401401	f	70
205312	2226822	The restart was a painful lesson regarding the rules of the race.	The restart was a painful lesson regarding the rules of the race. 	105805616	1474630401481	1474630401569	u	85
205312	2226822	The restart was a painful lesson regarding the rules of the race.	The restart was a painful lesson regarding the rules of the race. 	105805637	1474630401689	1474630401777	l	76
205312	2226822	The restart was a painful lesson regarding the rules of the race.	The restart was a painful lesson regarding the rules of the race. 	105805638	1474630401969	1474630402049	 	32
205312	2226822	The restart was a painful lesson regarding the rules of the race.	The restart was a painful lesson regarding the rules of the race. 	105805640	1474630402185	1474630402289	l	76
205312	2226822	The restart was a painful lesson regarding the rules of the race.	The restart was a painful lesson regarding the rules of the race. 	105805643	1474630402329	1474630402385	e	69
205312	2226822	The restart was a painful lesson regarding the rules of the race.	The restart was a painful lesson regarding the rules of the race. 	105805646	1474630402505	1474630402545	s	83
205312	2226822	The restart was a painful lesson regarding the rules of the race.	The restart was a painful lesson regarding the rules of the race. 	105805656	1474630402633	1474630402697	s	83
205312	2226822	The restart was a painful lesson regarding the rules of the race.	The restart was a painful lesson regarding the rules of the race. 	105805658	1474630402793	1474630402945	o	79
205312	2226822	The restart was a painful lesson regarding the rules of the race.	The restart was a painful lesson regarding the rules of the race. 	105805662	1474630402881	1474630402993	n	78
205312	2226822	The restart was a painful lesson regarding the rules of the race.	The restart was a painful lesson regarding the rules of the race. 	105805666	1474630403089	1474630403153	 	32
205312	2226822	The restart was a painful lesson regarding the rules of the race.	The restart was a painful lesson regarding the rules of the race. 	105805671	1474630403273	1474630403337	r	82
205312	2226822	The restart was a painful lesson regarding the rules of the race.	The restart was a painful lesson regarding the rules of the race. 	105805721	1474630403449	1474630403513	e	69
205312	2226822	The restart was a painful lesson regarding the rules of the race.	The restart was a painful lesson regarding the rules of the race. 	105805725	1474630403897	1474630403969	g	71
205312	2226822	The restart was a painful lesson regarding the rules of the race.	The restart was a painful lesson regarding the rules of the race. 	105805729	1474630404097	1474630404153	a	65
205312	2226822	The restart was a painful lesson regarding the rules of the race.	The restart was a painful lesson regarding the rules of the race. 	105805733	1474630404297	1474630404353	r	82
205312	2226822	The restart was a painful lesson regarding the rules of the race.	The restart was a painful lesson regarding the rules of the race. 	105805736	1474630404465	1474630404521	d	68
205312	2226822	The restart was a painful lesson regarding the rules of the race.	The restart was a painful lesson regarding the rules of the race. 	105805753	1474630404633	1474630404737	i	73
205312	2226822	The restart was a painful lesson regarding the rules of the race.	The restart was a painful lesson regarding the rules of the race. 	105805756	1474630404689	1474630404776	n	78
205312	2226822	The restart was a painful lesson regarding the rules of the race.	The restart was a painful lesson regarding the rules of the race. 	105805759	1474630404777	1474630404865	g	71
205312	2226822	The restart was a painful lesson regarding the rules of the race.	The restart was a painful lesson regarding the rules of the race. 	105805761	1474630404953	1474630405033	 	32
205312	2226822	The restart was a painful lesson regarding the rules of the race.	The restart was a painful lesson regarding the rules of the race. 	105805764	1474630405145	1474630405201	t	84
205312	2226822	The restart was a painful lesson regarding the rules of the race.	The restart was a painful lesson regarding the rules of the race. 	105805781	1474630405233	1474630405313	h	72
205312	2226822	The restart was a painful lesson regarding the rules of the race.	The restart was a painful lesson regarding the rules of the race. 	105805784	1474630405336	1474630405401	e	69
205312	2226822	The restart was a painful lesson regarding the rules of the race.	The restart was a painful lesson regarding the rules of the race. 	105805785	1474630405457	1474630405513	 	32
205312	2226822	The restart was a painful lesson regarding the rules of the race.	The restart was a painful lesson regarding the rules of the race. 	105805786	1474630405617	1474630405665	r	82
205312	2226822	The restart was a painful lesson regarding the rules of the race.	The restart was a painful lesson regarding the rules of the race. 	105805787	1474630405769	1474630405857	u	85
205312	2226822	The restart was a painful lesson regarding the rules of the race.	The restart was a painful lesson regarding the rules of the race. 	105805818	1474630405961	1474630406049	l	76
205312	2226822	The restart was a painful lesson regarding the rules of the race.	The restart was a painful lesson regarding the rules of the race. 	105805821	1474630406049	1474630406105	e	69
205312	2226822	The restart was a painful lesson regarding the rules of the race.	The restart was a painful lesson regarding the rules of the race. 	105805823	1474630406193	1474630406249	s	83
205312	2226822	The restart was a painful lesson regarding the rules of the race.	The restart was a painful lesson regarding the rules of the race. 	105805825	1474630406265	1474630406329	 	32
205312	2226822	The restart was a painful lesson regarding the rules of the race.	The restart was a painful lesson regarding the rules of the race. 	105805827	1474630406401	1474630406481	o	79
205312	2226822	The restart was a painful lesson regarding the rules of the race.	The restart was a painful lesson regarding the rules of the race. 	105805828	1474630406483	1474630406537	f	70
205312	2226822	The restart was a painful lesson regarding the rules of the race.	The restart was a painful lesson regarding the rules of the race. 	105805830	1474630406585	1474630406665	 	32
205312	2226822	The restart was a painful lesson regarding the rules of the race.	The restart was a painful lesson regarding the rules of the race. 	105805832	1474630406681	1474630406729	t	84
205312	2226822	The restart was a painful lesson regarding the rules of the race.	The restart was a painful lesson regarding the rules of the race. 	105805834	1474630406809	1474630406841	h	72
205312	2226822	The restart was a painful lesson regarding the rules of the race.	The restart was a painful lesson regarding the rules of the race. 	105805838	1474630406865	1474630406921	e	69
205312	2226822	The restart was a painful lesson regarding the rules of the race.	The restart was a painful lesson regarding the rules of the race. 	105805892	1474630407929	1474630407985	 	32
205312	2226822	The restart was a painful lesson regarding the rules of the race.	The restart was a painful lesson regarding the rules of the race. 	105805894	1474630408137	1474630408193	r	82
205312	2226822	The restart was a painful lesson regarding the rules of the race.	The restart was a painful lesson regarding the rules of the race. 	105805897	1474630408321	1474630408385	a	65
205312	2226822	The restart was a painful lesson regarding the rules of the race.	The restart was a painful lesson regarding the rules of the race. 	105805899	1474630408513	1474630408537	c	67
205312	2226822	The restart was a painful lesson regarding the rules of the race.	The restart was a painful lesson regarding the rules of the race. 	105805901	1474630408633	1474630408689	e	69
205312	2226822	The restart was a painful lesson regarding the rules of the race.	The restart was a painful lesson regarding the rules of the race. 	105805932	1474630408793	1474630409025	.	190
205312	2226822	The restart was a painful lesson regarding the rules of the race.	The restart was a painful lesson regarding the rules of the race. 	105805935	1474630408969	1474630409065	 	32
205312	2226834	Where do you want to meet to walk over there?	Where do you want to meet to walk over there?	105813893	1474630592886	1474630593286	SHIFT	16
205312	2226834	Where do you want to meet to walk over there?	Where do you want to meet to walk over there?	105813895	1474630593190	1474630593286	W	87
205312	2226834	Where do you want to meet to walk over there?	Where do you want to meet to walk over there?	105813896	1474630593358	1474630593430	h	72
205312	2226834	Where do you want to meet to walk over there?	Where do you want to meet to walk over there?	105813898	1474630593454	1474630593518	e	69
205312	2226834	Where do you want to meet to walk over there?	Where do you want to meet to walk over there?	105813899	1474630593606	1474630593654	r	82
205312	2226834	Where do you want to meet to walk over there?	Where do you want to meet to walk over there?	105813901	1474630593742	1474630593790	e	69
205312	2226834	Where do you want to meet to walk over there?	Where do you want to meet to walk over there?	105813954	1474630593862	1474630593934	 	32
205312	2226834	Where do you want to meet to walk over there?	Where do you want to meet to walk over there?	105813957	1474630594006	1474630594078	d	68
205312	2226834	Where do you want to meet to walk over there?	Where do you want to meet to walk over there?	105813963	1474630594085	1474630594166	o	79
205312	2226834	Where do you want to meet to walk over there?	Where do you want to meet to walk over there?	105813972	1474630594262	1474630594342	 	32
205312	2226834	Where do you want to meet to walk over there?	Where do you want to meet to walk over there?	105813980	1474630594398	1474630594478	y	89
205312	2226834	Where do you want to meet to walk over there?	Where do you want to meet to walk over there?	105814006	1474630594510	1474630594614	o	79
205312	2226834	Where do you want to meet to walk over there?	Where do you want to meet to walk over there?	105814011	1474630594638	1474630594710	u	85
205312	2226834	Where do you want to meet to walk over there?	Where do you want to meet to walk over there?	105814016	1474630594774	1474630594846	 	32
205312	2226834	Where do you want to meet to walk over there?	Where do you want to meet to walk over there?	105814020	1474630594958	1474630595030	w	87
205312	2226834	Where do you want to meet to walk over there?	Where do you want to meet to walk over there?	105814025	1474630595166	1474630595222	CAPS_LOCK	20
205312	2226834	Where do you want to meet to walk over there?	Where do you want to meet to walk over there?	105814028	1474630595286	1474630595374	N	78
205312	2226834	Where do you want to meet to walk over there?	Where do you want to meet to walk over there?	105814231	1474630595702	1474630595774	BKSP	8
205312	2226834	Where do you want to meet to walk over there?	Where do you want to meet to walk over there?	105814235	1474630596238	1474630596318	A	65
205312	2226834	Where do you want to meet to walk over there?	Where do you want to meet to walk over there?	105814239	1474630596382	1474630596486	N	78
205312	2226834	Where do you want to meet to walk over there?	Where do you want to meet to walk over there?	105814243	1474630596878	1474630596926	 	32
205312	2226834	Where do you want to meet to walk over there?	Where do you want to meet to walk over there?	105814246	1474630597086	1474630597134	BKSP	8
205312	2226834	Where do you want to meet to walk over there?	Where do you want to meet to walk over there?	105814247	1474630597230	1474630597294	BKSP	8
205312	2226834	Where do you want to meet to walk over there?	Where do you want to meet to walk over there?	105814248	1474630597374	1474630597446	BKSP	8
205312	2226834	Where do you want to meet to walk over there?	Where do you want to meet to walk over there?	105814250	1474630598230	1474630598294	CAPS_LOCK	20
205312	2226834	Where do you want to meet to walk over there?	Where do you want to meet to walk over there?	105814253	1474630598694	1474630598766	a	65
205312	2226834	Where do you want to meet to walk over there?	Where do you want to meet to walk over there?	105814256	1474630598910	1474630598974	n	78
205312	2226834	Where do you want to meet to walk over there?	Where do you want to meet to walk over there?	105814275	1474630599046	1474630599110	t	84
205312	2226834	Where do you want to meet to walk over there?	Where do you want to meet to walk over there?	105814279	1474630599166	1474630599222	 	32
205312	2226834	Where do you want to meet to walk over there?	Where do you want to meet to walk over there?	105814287	1474630599278	1474630599358	t	84
205312	2226834	Where do you want to meet to walk over there?	Where do you want to meet to walk over there?	105814293	1474630599358	1474630599438	o	79
205312	2226834	Where do you want to meet to walk over there?	Where do you want to meet to walk over there?	105814298	1474630599542	1474630599598	 	32
205312	2226834	Where do you want to meet to walk over there?	Where do you want to meet to walk over there?	105814329	1474630599686	1474630599758	m	77
205312	2226834	Where do you want to meet to walk over there?	Where do you want to meet to walk over there?	105814331	1474630599798	1474630599862	e	69
205312	2226834	Where do you want to meet to walk over there?	Where do you want to meet to walk over there?	105814332	1474630599934	1474630599998	e	69
205312	2226834	Where do you want to meet to walk over there?	Where do you want to meet to walk over there?	105814333	1474630600134	1474630600190	t	84
205312	2226834	Where do you want to meet to walk over there?	Where do you want to meet to walk over there?	105814334	1474630600254	1474630600318	 	32
205312	2226834	Where do you want to meet to walk over there?	Where do you want to meet to walk over there?	105814363	1474630600398	1474630600470	t	84
205312	2226834	Where do you want to meet to walk over there?	Where do you want to meet to walk over there?	105814364	1474630600470	1474630600558	o	79
205312	2226834	Where do you want to meet to walk over there?	Where do you want to meet to walk over there?	105814368	1474630600646	1474630600710	 	32
205312	2226834	Where do you want to meet to walk over there?	Where do you want to meet to walk over there?	105814373	1474630600766	1474630600846	w	87
205312	2226834	Where do you want to meet to walk over there?	Where do you want to meet to walk over there?	105814377	1474630600982	1474630601054	a	65
205312	2226834	Where do you want to meet to walk over there?	Where do you want to meet to walk over there?	105814410	1474630601110	1474630601230	l	76
205312	2226834	Where do you want to meet to walk over there?	Where do you want to meet to walk over there?	105814412	1474630601174	1474630601270	k	75
205312	2226834	Where do you want to meet to walk over there?	Where do you want to meet to walk over there?	105814416	1474630601382	1474630601454	 	32
205312	2226834	Where do you want to meet to walk over there?	Where do you want to meet to walk over there?	105814421	1474630601598	1474630601686	o	79
205312	2226834	Where do you want to meet to walk over there?	Where do you want to meet to walk over there?	105814423	1474630601686	1474630601750	v	86
205312	2226834	Where do you want to meet to walk over there?	Where do you want to meet to walk over there?	105814541	1474630601846	1474630601894	e	69
205312	2226834	Where do you want to meet to walk over there?	Where do you want to meet to walk over there?	105814544	1474630601982	1474630602030	r	82
205312	2226834	Where do you want to meet to walk over there?	Where do you want to meet to walk over there?	105814550	1474630602078	1474630602134	 	32
205312	2226834	Where do you want to meet to walk over there?	Where do you want to meet to walk over there?	105814557	1474630602238	1474630602294	t	84
205312	2226834	Where do you want to meet to walk over there?	Where do you want to meet to walk over there?	105814561	1474630602325	1474630602390	h	72
205312	2226834	Where do you want to meet to walk over there?	Where do you want to meet to walk over there?	105814567	1474630602430	1474630602486	e	69
205312	2226834	Where do you want to meet to walk over there?	Where do you want to meet to walk over there?	105814571	1474630602558	1474630602613	r	82
205312	2226834	Where do you want to meet to walk over there?	Where do you want to meet to walk over there?	105814577	1474630603534	1474630603590	e	69
205312	2226834	Where do you want to meet to walk over there?	Where do you want to meet to walk over there?	105814589	1474630603790	1474630604149	SHIFT	16
205312	2226834	Where do you want to meet to walk over there?	Where do you want to meet to walk over there?	105814583	1474630603926	1474630603982	?	191
205312	2227013	The volumes tie, so the pricing must be off somewhere.	The volumes tie, so the pricing must be off somewhere.	105814794	1474630607398	1474630607765	SHIFT	16
205312	2227013	The volumes tie, so the pricing must be off somewhere.	The volumes tie, so the pricing must be off somewhere.	105814796	1474630607693	1474630607766	T	84
205312	2227013	The volumes tie, so the pricing must be off somewhere.	The volumes tie, so the pricing must be off somewhere.	105814799	1474630607877	1474630607949	h	72
205312	2227013	The volumes tie, so the pricing must be off somewhere.	The volumes tie, so the pricing must be off somewhere.	105814802	1474630607989	1474630608045	e	69
205312	2227013	The volumes tie, so the pricing must be off somewhere.	The volumes tie, so the pricing must be off somewhere.	105814805	1474630608133	1474630608190	 	32
205312	2227013	The volumes tie, so the pricing must be off somewhere.	The volumes tie, so the pricing must be off somewhere.	105814808	1474630608237	1474630608286	v	86
205312	2227013	The volumes tie, so the pricing must be off somewhere.	The volumes tie, so the pricing must be off somewhere.	105814861	1474630608421	1474630608502	o	79
205312	2227013	The volumes tie, so the pricing must be off somewhere.	The volumes tie, so the pricing must be off somewhere.	105814865	1474630608613	1474630608685	l	76
205312	2227013	The volumes tie, so the pricing must be off somewhere.	The volumes tie, so the pricing must be off somewhere.	105814869	1474630608829	1474630608901	u	85
205312	2227013	The volumes tie, so the pricing must be off somewhere.	The volumes tie, so the pricing must be off somewhere.	105814873	1474630609013	1474630609101	m	77
205312	2227013	The volumes tie, so the pricing must be off somewhere.	The volumes tie, so the pricing must be off somewhere.	105814878	1474630609869	1474630609941	e	69
205312	2227013	The volumes tie, so the pricing must be off somewhere.	The volumes tie, so the pricing must be off somewhere.	105814903	1474630610069	1474630610125	s	83
205312	2227013	The volumes tie, so the pricing must be off somewhere.	The volumes tie, so the pricing must be off somewhere.	105814909	1474630610181	1474630610261	 	32
205312	2227013	The volumes tie, so the pricing must be off somewhere.	The volumes tie, so the pricing must be off somewhere.	105814913	1474630610381	1474630610437	t	84
205312	2227013	The volumes tie, so the pricing must be off somewhere.	The volumes tie, so the pricing must be off somewhere.	105814918	1474630610461	1474630610533	i	73
205312	2227013	The volumes tie, so the pricing must be off somewhere.	The volumes tie, so the pricing must be off somewhere.	105814922	1474630610613	1474630610686	e	69
205312	2227013	The volumes tie, so the pricing must be off somewhere.	The volumes tie, so the pricing must be off somewhere.	105814958	1474630610741	1474630610869	,	188
205312	2227013	The volumes tie, so the pricing must be off somewhere.	The volumes tie, so the pricing must be off somewhere.	105814960	1474630610829	1474630610941	 	32
205312	2227013	The volumes tie, so the pricing must be off somewhere.	The volumes tie, so the pricing must be off somewhere.	105814966	1474630611037	1474630611117	s	83
205312	2227013	The volumes tie, so the pricing must be off somewhere.	The volumes tie, so the pricing must be off somewhere.	105814972	1474630611149	1474630611221	o	79
205312	2227013	The volumes tie, so the pricing must be off somewhere.	The volumes tie, so the pricing must be off somewhere.	105814979	1474630611341	1474630611413	 	32
205312	2227013	The volumes tie, so the pricing must be off somewhere.	The volumes tie, so the pricing must be off somewhere.	105815010	1474630611461	1474630611534	t	84
205312	2227013	The volumes tie, so the pricing must be off somewhere.	The volumes tie, so the pricing must be off somewhere.	105815012	1474630611574	1474630611629	h	72
205312	2227013	The volumes tie, so the pricing must be off somewhere.	The volumes tie, so the pricing must be off somewhere.	105815017	1474630611701	1474630611774	e	69
205312	2227013	The volumes tie, so the pricing must be off somewhere.	The volumes tie, so the pricing must be off somewhere.	105815020	1474630611821	1474630611877	 	32
205312	2227013	The volumes tie, so the pricing must be off somewhere.	The volumes tie, so the pricing must be off somewhere.	105815022	1474630612157	1474630612221	p	80
205312	2227013	The volumes tie, so the pricing must be off somewhere.	The volumes tie, so the pricing must be off somewhere.	105815369	1474630612661	1474630612717	i	73
205312	2227013	The volumes tie, so the pricing must be off somewhere.	The volumes tie, so the pricing must be off somewhere.	105815371	1474630612893	1474630612965	r	82
205312	2227013	The volumes tie, so the pricing must be off somewhere.	The volumes tie, so the pricing must be off somewhere.	105815373	1474630617605	1474630617669	BKSP	8
205312	2227013	The volumes tie, so the pricing must be off somewhere.	The volumes tie, so the pricing must be off somewhere.	105815374	1474630617733	1474630617797	BKSP	8
205312	2227013	The volumes tie, so the pricing must be off somewhere.	The volumes tie, so the pricing must be off somewhere.	105815375	1474630618109	1474630618181	r	82
205312	2227013	The volumes tie, so the pricing must be off somewhere.	The volumes tie, so the pricing must be off somewhere.	105815376	1474630618293	1474630618365	i	73
205312	2227013	The volumes tie, so the pricing must be off somewhere.	The volumes tie, so the pricing must be off somewhere.	105815377	1474630618829	1474630618917	c	67
205312	2227013	The volumes tie, so the pricing must be off somewhere.	The volumes tie, so the pricing must be off somewhere.	105815385	1474630618981	1474630619133	i	73
205312	2227013	The volumes tie, so the pricing must be off somewhere.	The volumes tie, so the pricing must be off somewhere.	105815390	1474630619069	1474630619165	n	78
205312	2227013	The volumes tie, so the pricing must be off somewhere.	The volumes tie, so the pricing must be off somewhere.	105815396	1474630619205	1474630619277	g	71
205312	2227013	The volumes tie, so the pricing must be off somewhere.	The volumes tie, so the pricing must be off somewhere.	105815403	1474630619301	1474630619349	 	32
205312	2227013	The volumes tie, so the pricing must be off somewhere.	The volumes tie, so the pricing must be off somewhere.	105815410	1474630619469	1474630619549	m	77
205312	2227013	The volumes tie, so the pricing must be off somewhere.	The volumes tie, so the pricing must be off somewhere.	105815449	1474630619677	1474630619765	u	85
205312	2227013	The volumes tie, so the pricing must be off somewhere.	The volumes tie, so the pricing must be off somewhere.	105815455	1474630619829	1474630619893	s	83
205312	2227013	The volumes tie, so the pricing must be off somewhere.	The volumes tie, so the pricing must be off somewhere.	105815460	1474630620029	1474630620085	t	84
205312	2227013	The volumes tie, so the pricing must be off somewhere.	The volumes tie, so the pricing must be off somewhere.	105815465	1474630620093	1474630620173	 	32
205312	2227013	The volumes tie, so the pricing must be off somewhere.	The volumes tie, so the pricing must be off somewhere.	105815470	1474630620277	1474630620357	b	66
205312	2227013	The volumes tie, so the pricing must be off somewhere.	The volumes tie, so the pricing must be off somewhere.	105815491	1474630620429	1474630620509	e	69
205312	2227013	The volumes tie, so the pricing must be off somewhere.	The volumes tie, so the pricing must be off somewhere.	105815494	1474630620509	1474630620597	 	32
205312	2227013	The volumes tie, so the pricing must be off somewhere.	The volumes tie, so the pricing must be off somewhere.	105815497	1474630620749	1474630620829	o	79
205312	2227013	The volumes tie, so the pricing must be off somewhere.	The volumes tie, so the pricing must be off somewhere.	105815505	1474630620909	1474630620949	f	70
205312	2227013	The volumes tie, so the pricing must be off somewhere.	The volumes tie, so the pricing must be off somewhere.	105815511	1474630621037	1474630621101	f	70
205312	2227013	The volumes tie, so the pricing must be off somewhere.	The volumes tie, so the pricing must be off somewhere.	105815540	1474630621173	1474630621231	 	32
205312	2227013	The volumes tie, so the pricing must be off somewhere.	The volumes tie, so the pricing must be off somewhere.	105815541	1474630621445	1474630621533	s	83
205312	2227013	The volumes tie, so the pricing must be off somewhere.	The volumes tie, so the pricing must be off somewhere.	105815545	1474630621533	1474630621653	o	79
205312	2227013	The volumes tie, so the pricing must be off somewhere.	The volumes tie, so the pricing must be off somewhere.	105815548	1474630621613	1474630621709	m	77
205312	2227013	The volumes tie, so the pricing must be off somewhere.	The volumes tie, so the pricing must be off somewhere.	105815552	1474630621725	1474630621773	e	69
205312	2227013	The volumes tie, so the pricing must be off somewhere.	The volumes tie, so the pricing must be off somewhere.	105815566	1474630621949	1474630622005	w	87
205312	2227013	The volumes tie, so the pricing must be off somewhere.	The volumes tie, so the pricing must be off somewhere.	105815571	1474630622037	1474630622101	h	72
205312	2227013	The volumes tie, so the pricing must be off somewhere.	The volumes tie, so the pricing must be off somewhere.	105815574	1474630622149	1474630622197	e	69
205312	2227013	The volumes tie, so the pricing must be off somewhere.	The volumes tie, so the pricing must be off somewhere.	105815576	1474630622301	1474630622349	r	82
205312	2227013	The volumes tie, so the pricing must be off somewhere.	The volumes tie, so the pricing must be off somewhere.	105815581	1474630622453	1474630622501	e	69
205312	2227013	The volumes tie, so the pricing must be off somewhere.	The volumes tie, so the pricing must be off somewhere.	105815595	1474630622805	1474630622909	.	190
205312	2227033	New switches can also be added to the Paging System.	New swtiches can also be added to the Paging System. 	105815736	1474630625149	1474630625525	SHIFT	16
205312	2227033	New switches can also be added to the Paging System.	New swtiches can also be added to the Paging System. 	105815730	1474630625397	1474630625477	N	78
205312	2227033	New switches can also be added to the Paging System.	New swtiches can also be added to the Paging System. 	105815740	1474630625653	1474630625701	e	69
205312	2227033	New switches can also be added to the Paging System.	New swtiches can also be added to the Paging System. 	105815746	1474630625805	1474630625869	w	87
205312	2227033	New switches can also be added to the Paging System.	New swtiches can also be added to the Paging System. 	105815749	1474630625933	1474630625998	 	32
205312	2227033	New switches can also be added to the Paging System.	New swtiches can also be added to the Paging System. 	105815751	1474630626069	1474630626125	s	83
205312	2227033	New switches can also be added to the Paging System.	New swtiches can also be added to the Paging System. 	105815787	1474630626341	1474630626421	w	87
205312	2227033	New switches can also be added to the Paging System.	New swtiches can also be added to the Paging System. 	105815791	1474630626582	1474630626645	t	84
205312	2227033	New switches can also be added to the Paging System.	New swtiches can also be added to the Paging System. 	105815795	1474630626709	1474630626781	i	73
205312	2227033	New switches can also be added to the Paging System.	New swtiches can also be added to the Paging System. 	105815798	1474630626821	1474630626893	c	67
205312	2227033	New switches can also be added to the Paging System.	New swtiches can also be added to the Paging System. 	105815801	1474630626957	1474630627045	h	72
205312	2227033	New switches can also be added to the Paging System.	New swtiches can also be added to the Paging System. 	105815853	1474630627048	1474630627109	e	69
205312	2227033	New switches can also be added to the Paging System.	New swtiches can also be added to the Paging System. 	105815857	1474630627237	1474630627293	s	83
205312	2227033	New switches can also be added to the Paging System.	New swtiches can also be added to the Paging System. 	105815859	1474630627349	1474630627413	 	32
205312	2227033	New switches can also be added to the Paging System.	New swtiches can also be added to the Paging System. 	105815861	1474630627645	1474630627701	c	67
205312	2227033	New switches can also be added to the Paging System.	New swtiches can also be added to the Paging System. 	105815864	1474630627837	1474630627901	a	65
205312	2227033	New switches can also be added to the Paging System.	New swtiches can also be added to the Paging System. 	105815886	1474630627925	1474630627981	n	78
205312	2227033	New switches can also be added to the Paging System.	New swtiches can also be added to the Paging System. 	105815889	1474630628085	1474630628141	 	32
205312	2227033	New switches can also be added to the Paging System.	New swtiches can also be added to the Paging System. 	105815894	1474630628285	1474630628357	a	65
205312	2227033	New switches can also be added to the Paging System.	New swtiches can also be added to the Paging System. 	105815902	1474630628373	1474630628453	l	76
205312	2227033	New switches can also be added to the Paging System.	New swtiches can also be added to the Paging System. 	105815911	1474630628501	1474630628573	s	83
205312	2227033	New switches can also be added to the Paging System.	New swtiches can also be added to the Paging System. 	105815965	1474630628613	1474630628677	o	79
205312	2227033	New switches can also be added to the Paging System.	New swtiches can also be added to the Paging System. 	105815967	1474630628829	1474630628901	 	32
205312	2227033	New switches can also be added to the Paging System.	New swtiches can also be added to the Paging System. 	105815971	1474630629029	1474630629109	b	66
205312	2227033	New switches can also be added to the Paging System.	New swtiches can also be added to the Paging System. 	105815973	1474630629189	1474630629277	e	69
205312	2227033	New switches can also be added to the Paging System.	New swtiches can also be added to the Paging System. 	105815976	1474630629317	1474630629389	 	32
205312	2227033	New switches can also be added to the Paging System.	New swtiches can also be added to the Paging System. 	105816019	1474630629541	1474630629605	a	65
205312	2227033	New switches can also be added to the Paging System.	New swtiches can also be added to the Paging System. 	105816021	1474630629717	1474630629757	d	68
205312	2227033	New switches can also be added to the Paging System.	New swtiches can also be added to the Paging System. 	105816025	1474630629837	1474630629901	d	68
205312	2227033	New switches can also be added to the Paging System.	New swtiches can also be added to the Paging System. 	105816029	1474630629989	1474630630029	e	69
205312	2227033	New switches can also be added to the Paging System.	New swtiches can also be added to the Paging System. 	105816032	1474630630141	1474630630181	d	68
205312	2227033	New switches can also be added to the Paging System.	New swtiches can also be added to the Paging System. 	105816089	1474630630245	1474630630317	 	32
205312	2227033	New switches can also be added to the Paging System.	New swtiches can also be added to the Paging System. 	105816092	1474630630445	1474630630517	o	79
205312	2227033	New switches can also be added to the Paging System.	New swtiches can also be added to the Paging System. 	105816095	1474630630973	1474630631037	BKSP	8
205312	2227033	New switches can also be added to the Paging System.	New swtiches can also be added to the Paging System. 	105816098	1474630631149	1474630631253	t	84
205312	2227033	New switches can also be added to the Paging System.	New swtiches can also be added to the Paging System. 	105816101	1474630631309	1474630631397	o	79
205312	2227033	New switches can also be added to the Paging System.	New swtiches can also be added to the Paging System. 	105816103	1474630631549	1474630631629	 	32
205312	2227033	New switches can also be added to the Paging System.	New swtiches can also be added to the Paging System. 	105816128	1474630631669	1474630631757	t	84
205312	2227033	New switches can also be added to the Paging System.	New swtiches can also be added to the Paging System. 	105816133	1474630631797	1474630631861	h	72
205312	2227033	New switches can also be added to the Paging System.	New swtiches can also be added to the Paging System. 	105816135	1474630631917	1474630631973	e	69
205312	2227033	New switches can also be added to the Paging System.	New swtiches can also be added to the Paging System. 	105816138	1474630632029	1474630632085	 	32
205312	2227033	New switches can also be added to the Paging System.	New swtiches can also be added to the Paging System. 	105816195	1474630632373	1474630632693	SHIFT	16
205312	2227033	New switches can also be added to the Paging System.	New swtiches can also be added to the Paging System. 	105816140	1474630632565	1474630632653	P	80
205312	2227033	New switches can also be added to the Paging System.	New swtiches can also be added to the Paging System. 	105816199	1474630632789	1474630632829	a	65
205312	2227033	New switches can also be added to the Paging System.	New swtiches can also be added to the Paging System. 	105816205	1474630633005	1474630633061	g	71
205312	2227033	New switches can also be added to the Paging System.	New swtiches can also be added to the Paging System. 	105816212	1474630633125	1474630633245	i	73
205312	2227033	New switches can also be added to the Paging System.	New swtiches can also be added to the Paging System. 	105816220	1474630633197	1474630633325	n	78
205312	2227033	New switches can also be added to the Paging System.	New swtiches can also be added to the Paging System. 	105816226	1474630633325	1474630633397	g	71
205312	2227033	New switches can also be added to the Paging System.	New swtiches can also be added to the Paging System. 	105816260	1474630633453	1474630633517	 	32
205312	2227033	New switches can also be added to the Paging System.	New swtiches can also be added to the Paging System. 	105816263	1474630633701	1474630634013	SHIFT	16
205312	2227033	New switches can also be added to the Paging System.	New swtiches can also be added to the Paging System. 	105816267	1474630633901	1474630634013	S	83
205312	2227033	New switches can also be added to the Paging System.	New swtiches can also be added to the Paging System. 	105816271	1474630634069	1474630634149	y	89
205312	2227033	New switches can also be added to the Paging System.	New swtiches can also be added to the Paging System. 	105816276	1474630634293	1474630634365	t	84
205312	2227033	New switches can also be added to the Paging System.	New swtiches can also be added to the Paging System. 	105816281	1474630634717	1474630634805	e	69
205312	2227033	New switches can also be added to the Paging System.	New swtiches can also be added to the Paging System. 	105816373	1474630634925	1474630635013	m	77
205312	2227033	New switches can also be added to the Paging System.	New swtiches can also be added to the Paging System. 	105816376	1474630635573	1474630635637	BKSP	8
205312	2227033	New switches can also be added to the Paging System.	New swtiches can also be added to the Paging System. 	105816380	1474630635709	1474630635781	BKSP	8
205312	2227033	New switches can also be added to the Paging System.	New swtiches can also be added to the Paging System. 	105816387	1474630635861	1474630635925	BKSP	8
205312	2227033	New switches can also be added to the Paging System.	New swtiches can also be added to the Paging System. 	105816389	1474630636269	1474630636325	s	83
205312	2227033	New switches can also be added to the Paging System.	New swtiches can also be added to the Paging System. 	105816393	1474630636565	1474630636621	t	84
205312	2227033	New switches can also be added to the Paging System.	New swtiches can also be added to the Paging System. 	105816397	1474630636733	1474630636797	e	69
205312	2227033	New switches can also be added to the Paging System.	New swtiches can also be added to the Paging System. 	105816399	1474630636837	1474630636901	m	77
205312	2227033	New switches can also be added to the Paging System.	New swtiches can also be added to the Paging System. 	105816433	1474630637317	1474630637461	.	190
205312	2227033	New switches can also be added to the Paging System.	New swtiches can also be added to the Paging System. 	105816436	1474630637405	1474630637509	 	32
205312	2227054	The former minister is accused of receiving seven billion lira.	The former minister is accused of receiving seven billion lira. 	105816587	1474630639917	1474630640285	SHIFT	16
205312	2227054	The former minister is accused of receiving seven billion lira.	The former minister is accused of receiving seven billion lira. 	105816589	1474630640205	1474630640285	T	84
205312	2227054	The former minister is accused of receiving seven billion lira.	The former minister is accused of receiving seven billion lira. 	105816593	1474630640397	1474630640485	h	72
205312	2227054	The former minister is accused of receiving seven billion lira.	The former minister is accused of receiving seven billion lira. 	105816595	1474630640509	1474630640605	e	69
205312	2227054	The former minister is accused of receiving seven billion lira.	The former minister is accused of receiving seven billion lira. 	105816600	1474630640669	1474630640733	 	32
205312	2227054	The former minister is accused of receiving seven billion lira.	The former minister is accused of receiving seven billion lira. 	105816604	1474630640733	1474630640805	f	70
205312	2227054	The former minister is accused of receiving seven billion lira.	The former minister is accused of receiving seven billion lira. 	105816622	1474630640885	1474630640965	o	79
205312	2227054	The former minister is accused of receiving seven billion lira.	The former minister is accused of receiving seven billion lira. 	105816625	1474630640917	1474630640989	r	82
205312	2227054	The former minister is accused of receiving seven billion lira.	The former minister is accused of receiving seven billion lira. 	105816628	1474630641125	1474630641229	m	77
205312	2227054	The former minister is accused of receiving seven billion lira.	The former minister is accused of receiving seven billion lira. 	105816631	1474630641253	1474630641349	e	69
205312	2227054	The former minister is accused of receiving seven billion lira.	The former minister is accused of receiving seven billion lira. 	105816638	1474630641477	1474630641541	r	82
205312	2227054	The former minister is accused of receiving seven billion lira.	The former minister is accused of receiving seven billion lira. 	105816728	1474630641733	1474630641829	 	32
205312	2227054	The former minister is accused of receiving seven billion lira.	The former minister is accused of receiving seven billion lira. 	105816733	1474630641941	1474630642069	i	73
205312	2227054	The former minister is accused of receiving seven billion lira.	The former minister is accused of receiving seven billion lira. 	105816737	1474630642269	1474630642333	BKSP	8
205312	2227054	The former minister is accused of receiving seven billion lira.	The former minister is accused of receiving seven billion lira. 	105816739	1474630642717	1474630642853	m	77
205312	2227054	The former minister is accused of receiving seven billion lira.	The former minister is accused of receiving seven billion lira. 	105816741	1474630642877	1474630643061	i	73
205312	2227054	The former minister is accused of receiving seven billion lira.	The former minister is accused of receiving seven billion lira. 	105816785	1474630642997	1474630643151	n	78
205312	2227054	The former minister is accused of receiving seven billion lira.	The former minister is accused of receiving seven billion lira. 	105816788	1474630643151	1474630643261	i	73
205312	2227054	The former minister is accused of receiving seven billion lira.	The former minister is accused of receiving seven billion lira. 	105816790	1474630643389	1474630643477	s	83
205312	2227054	The former minister is accused of receiving seven billion lira.	The former minister is accused of receiving seven billion lira. 	105816792	1474630643645	1474630643701	t	84
205312	2227054	The former minister is accused of receiving seven billion lira.	The former minister is accused of receiving seven billion lira. 	105816794	1474630643837	1474630643878	e	69
205312	2227054	The former minister is accused of receiving seven billion lira.	The former minister is accused of receiving seven billion lira. 	105816798	1474630643973	1474630644021	r	82
205312	2227054	The former minister is accused of receiving seven billion lira.	The former minister is accused of receiving seven billion lira. 	105816810	1474630644077	1474630644125	 	32
205312	2227054	The former minister is accused of receiving seven billion lira.	The former minister is accused of receiving seven billion lira. 	105816813	1474630644197	1474630644285	i	73
205312	2227054	The former minister is accused of receiving seven billion lira.	The former minister is accused of receiving seven billion lira. 	105816815	1474630644333	1474630644405	s	83
205312	2227054	The former minister is accused of receiving seven billion lira.	The former minister is accused of receiving seven billion lira. 	105816818	1474630644445	1474630644509	 	32
205312	2227054	The former minister is accused of receiving seven billion lira.	The former minister is accused of receiving seven billion lira. 	105816824	1474630644549	1474630644605	a	65
205312	2227054	The former minister is accused of receiving seven billion lira.	The former minister is accused of receiving seven billion lira. 	105816850	1474630644757	1474630644805	c	67
205312	2227054	The former minister is accused of receiving seven billion lira.	The former minister is accused of receiving seven billion lira. 	105816856	1474630644885	1474630644949	c	67
205312	2227054	The former minister is accused of receiving seven billion lira.	The former minister is accused of receiving seven billion lira. 	105816861	1474630645069	1474630645149	u	85
205312	2227054	The former minister is accused of receiving seven billion lira.	The former minister is accused of receiving seven billion lira. 	105816869	1474630645221	1474630645238	e	68
205312	2227054	The former minister is accused of receiving seven billion lira.	The former minister is accused of receiving seven billion lira. 	105816981	1474630645469	1474630645533	e	69
205312	2227054	The former minister is accused of receiving seven billion lira.	The former minister is accused of receiving seven billion lira. 	105816983	1474630646021	1474630646085	BKSP	8
205312	2227054	The former minister is accused of receiving seven billion lira.	The former minister is accused of receiving seven billion lira. 	105816987	1474630646173	1474630646237	BKSP	8
205312	2227054	The former minister is accused of receiving seven billion lira.	The former minister is accused of receiving seven billion lira. 	105816990	1474630646325	1474630646381	BKSP	8
205312	2227054	The former minister is accused of receiving seven billion lira.	The former minister is accused of receiving seven billion lira. 	105816993	1474630646869	1474630646909	s	83
205312	2227054	The former minister is accused of receiving seven billion lira.	The former minister is accused of receiving seven billion lira. 	105816996	1474630647117	1474630647173	e	69
205312	2227054	The former minister is accused of receiving seven billion lira.	The former minister is accused of receiving seven billion lira. 	105816998	1474630647285	1474630647349	d	68
205312	2227054	The former minister is accused of receiving seven billion lira.	The former minister is accused of receiving seven billion lira. 	105817000	1474630647405	1474630647477	 	32
205312	2227054	The former minister is accused of receiving seven billion lira.	The former minister is accused of receiving seven billion lira. 	105817032	1474630647613	1474630647693	o	79
205312	2227054	The former minister is accused of receiving seven billion lira.	The former minister is accused of receiving seven billion lira. 	105817036	1474630647869	1474630647965	f	70
205312	2227054	The former minister is accused of receiving seven billion lira.	The former minister is accused of receiving seven billion lira. 	105817042	1474630648021	1474630648093	 	32
205312	2227054	The former minister is accused of receiving seven billion lira.	The former minister is accused of receiving seven billion lira. 	105817047	1474630648277	1474630648349	r	82
205312	2227054	The former minister is accused of receiving seven billion lira.	The former minister is accused of receiving seven billion lira. 	105817052	1474630648477	1474630648541	e	69
205312	2227054	The former minister is accused of receiving seven billion lira.	The former minister is accused of receiving seven billion lira. 	105817274	1474630650645	1474630650693	c	67
205312	2227054	The former minister is accused of receiving seven billion lira.	The former minister is accused of receiving seven billion lira. 	105817277	1474630651213	1474630651237	i	73
205312	2227054	The former minister is accused of receiving seven billion lira.	The former minister is accused of receiving seven billion lira. 	105817280	1474630651613	1474630651669	BKSP	8
205312	2227054	The former minister is accused of receiving seven billion lira.	The former minister is accused of receiving seven billion lira. 	105817284	1474630652069	1474630652125	e	69
205312	2227054	The former minister is accused of receiving seven billion lira.	The former minister is accused of receiving seven billion lira. 	105817288	1474630652245	1474630652309	r	82
205312	2227054	The former minister is accused of receiving seven billion lira.	The former minister is accused of receiving seven billion lira. 	105817294	1474630652805	1474630652869	BKSP	8
205312	2227054	The former minister is accused of receiving seven billion lira.	The former minister is accused of receiving seven billion lira. 	105817300	1474630653285	1474630653302	v	86
205312	2227054	The former minister is accused of receiving seven billion lira.	The former minister is accused of receiving seven billion lira. 	105817339	1474630653341	1474630653429	i	73
205312	2227054	The former minister is accused of receiving seven billion lira.	The former minister is accused of receiving seven billion lira. 	105817345	1474630653669	1474630653725	BKSP	8
205312	2227054	The former minister is accused of receiving seven billion lira.	The former minister is accused of receiving seven billion lira. 	105817349	1474630653797	1474630653853	BKSP	8
205312	2227054	The former minister is accused of receiving seven billion lira.	The former minister is accused of receiving seven billion lira. 	105817354	1474630654029	1474630654101	i	73
205312	2227054	The former minister is accused of receiving seven billion lira.	The former minister is accused of receiving seven billion lira. 	105817357	1474630654157	1474630654213	v	86
205312	2227054	The former minister is accused of receiving seven billion lira.	The former minister is accused of receiving seven billion lira. 	105817359	1474630654309	1474630654429	i	73
205312	2227054	The former minister is accused of receiving seven billion lira.	The former minister is accused of receiving seven billion lira. 	105817398	1474630654389	1474630654469	n	78
205312	2227054	The former minister is accused of receiving seven billion lira.	The former minister is accused of receiving seven billion lira. 	105817399	1474630654493	1474630654557	g	71
205312	2227054	The former minister is accused of receiving seven billion lira.	The former minister is accused of receiving seven billion lira. 	105817400	1474630654605	1474630654677	 	32
205312	2227054	The former minister is accused of receiving seven billion lira.	The former minister is accused of receiving seven billion lira. 	105817401	1474630655213	1474630655301	s	83
205312	2227054	The former minister is accused of receiving seven billion lira.	The former minister is accused of receiving seven billion lira. 	105817402	1474630655413	1474630655485	e	69
205312	2227054	The former minister is accused of receiving seven billion lira.	The former minister is accused of receiving seven billion lira. 	105817403	1474630655549	1474630655621	v	86
205312	2227054	The former minister is accused of receiving seven billion lira.	The former minister is accused of receiving seven billion lira. 	105817422	1474630655685	1474630655749	e	69
205312	2227054	The former minister is accused of receiving seven billion lira.	The former minister is accused of receiving seven billion lira. 	105817424	1474630655789	1474630655861	n	78
205312	2227054	The former minister is accused of receiving seven billion lira.	The former minister is accused of receiving seven billion lira. 	105817425	1474630655949	1474630656029	 	32
205312	2227054	The former minister is accused of receiving seven billion lira.	The former minister is accused of receiving seven billion lira. 	105817426	1474630656173	1474630656253	b	66
205312	2227054	The former minister is accused of receiving seven billion lira.	The former minister is accused of receiving seven billion lira. 	105817427	1474630656365	1474630656453	i	73
205312	2227054	The former minister is accused of receiving seven billion lira.	The former minister is accused of receiving seven billion lira. 	105817447	1474630656565	1474630656645	l	76
205312	2227054	The former minister is accused of receiving seven billion lira.	The former minister is accused of receiving seven billion lira. 	105817450	1474630656725	1474630656797	l	76
205312	2227054	The former minister is accused of receiving seven billion lira.	The former minister is accused of receiving seven billion lira. 	105817456	1474630656893	1474630657093	i	73
205312	2227054	The former minister is accused of receiving seven billion lira.	The former minister is accused of receiving seven billion lira. 	105817464	1474630657053	1474630657221	o	79
205312	2227054	The former minister is accused of receiving seven billion lira.	The former minister is accused of receiving seven billion lira. 	105817505	1474630657165	1474630657285	n	78
205312	2227054	The former minister is accused of receiving seven billion lira.	The former minister is accused of receiving seven billion lira. 	105817507	1474630657405	1474630657485	 	32
205312	2227054	The former minister is accused of receiving seven billion lira.	The former minister is accused of receiving seven billion lira. 	105817508	1474630657773	1474630657853	l	76
205312	2227054	The former minister is accused of receiving seven billion lira.	The former minister is accused of receiving seven billion lira. 	105817509	1474630657917	1474630658013	i	73
205312	2227054	The former minister is accused of receiving seven billion lira.	The former minister is accused of receiving seven billion lira. 	105817510	1474630658077	1474630658141	r	82
205312	2227054	The former minister is accused of receiving seven billion lira.	The former minister is accused of receiving seven billion lira. 	105817511	1474630658309	1474630658397	a	65
205312	2227054	The former minister is accused of receiving seven billion lira.	The former minister is accused of receiving seven billion lira. 	105817534	1474630658469	1474630658613	.	190
205312	2227054	The former minister is accused of receiving seven billion lira.	The former minister is accused of receiving seven billion lira. 	105817537	1474630658573	1474630658677	 	32
205312	2227080	Later works dealt with ethical concerns in the modern world.	Later works dealt with ethical concerns in the modern world. 	105817665	1474630660805	1474630661333	SHIFT	16
205312	2227080	Later works dealt with ethical concerns in the modern world.	Later works dealt with ethical concerns in the modern world. 	105817661	1474630661189	1474630661245	L	76
205312	2227080	Later works dealt with ethical concerns in the modern world.	Later works dealt with ethical concerns in the modern world. 	105817668	1474630661461	1474630661533	a	65
205312	2227080	Later works dealt with ethical concerns in the modern world.	Later works dealt with ethical concerns in the modern world. 	105817671	1474630661573	1474630661637	t	84
205312	2227080	Later works dealt with ethical concerns in the modern world.	Later works dealt with ethical concerns in the modern world. 	105817673	1474630661709	1474630661773	e	69
205312	2227080	Later works dealt with ethical concerns in the modern world.	Later works dealt with ethical concerns in the modern world. 	105817674	1474630661893	1474630661941	r	82
205312	2227080	Later works dealt with ethical concerns in the modern world.	Later works dealt with ethical concerns in the modern world. 	105817830	1474630662005	1474630662053	 	32
205312	2227080	Later works dealt with ethical concerns in the modern world.	Later works dealt with ethical concerns in the modern world. 	105817831	1474630662293	1474630662357	w	87
205312	2227080	Later works dealt with ethical concerns in the modern world.	Later works dealt with ethical concerns in the modern world. 	105817832	1474630663285	1474630663357	o	79
205312	2227080	Later works dealt with ethical concerns in the modern world.	Later works dealt with ethical concerns in the modern world. 	105817833	1474630663421	1474630663485	r	82
205312	2227080	Later works dealt with ethical concerns in the modern world.	Later works dealt with ethical concerns in the modern world. 	105817835	1474630663525	1474630663605	k	75
205312	2227080	Later works dealt with ethical concerns in the modern world.	Later works dealt with ethical concerns in the modern world. 	105817794	1474630663661	1474630663733	s	83
205312	2227080	Later works dealt with ethical concerns in the modern world.	Later works dealt with ethical concerns in the modern world. 	105817797	1474630663773	1474630663845	 	32
205312	2227080	Later works dealt with ethical concerns in the modern world.	Later works dealt with ethical concerns in the modern world. 	105817801	1474630663933	1474630663981	d	68
205312	2227080	Later works dealt with ethical concerns in the modern world.	Later works dealt with ethical concerns in the modern world. 	105817808	1474630664085	1474630664157	e	69
205312	2227080	Later works dealt with ethical concerns in the modern world.	Later works dealt with ethical concerns in the modern world. 	105817814	1474630664317	1474630664389	a	65
205312	2227080	Later works dealt with ethical concerns in the modern world.	Later works dealt with ethical concerns in the modern world. 	105817842	1474630664485	1474630664565	l	76
205312	2227080	Later works dealt with ethical concerns in the modern world.	Later works dealt with ethical concerns in the modern world. 	105817846	1474630664621	1474630664709	t	84
205312	2227080	Later works dealt with ethical concerns in the modern world.	Later works dealt with ethical concerns in the modern world. 	105817849	1474630664781	1474630664853	h	72
205312	2227080	Later works dealt with ethical concerns in the modern world.	Later works dealt with ethical concerns in the modern world. 	105817853	1474630664997	1474630665061	 	32
205312	2227080	Later works dealt with ethical concerns in the modern world.	Later works dealt with ethical concerns in the modern world. 	105817856	1474630665261	1474630665333	w	87
205312	2227080	Later works dealt with ethical concerns in the modern world.	Later works dealt with ethical concerns in the modern world. 	105817892	1474630665420	1474630665525	i	73
205312	2227080	Later works dealt with ethical concerns in the modern world.	Later works dealt with ethical concerns in the modern world. 	105817897	1474630665597	1474630665677	t	84
205312	2227080	Later works dealt with ethical concerns in the modern world.	Later works dealt with ethical concerns in the modern world. 	105817899	1474630665677	1474630665765	h	72
205312	2227080	Later works dealt with ethical concerns in the modern world.	Later works dealt with ethical concerns in the modern world. 	105817901	1474630665901	1474630665965	 	32
205312	2227080	Later works dealt with ethical concerns in the modern world.	Later works dealt with ethical concerns in the modern world. 	105817903	1474630666133	1474630666205	e	69
205312	2227080	Later works dealt with ethical concerns in the modern world.	Later works dealt with ethical concerns in the modern world. 	105817914	1474630666357	1474630666413	t	84
205312	2227080	Later works dealt with ethical concerns in the modern world.	Later works dealt with ethical concerns in the modern world. 	105817915	1474630666493	1474630666629	h	72
205312	2227080	Later works dealt with ethical concerns in the modern world.	Later works dealt with ethical concerns in the modern world. 	105817917	1474630666573	1474630666701	i	73
205312	2227080	Later works dealt with ethical concerns in the modern world.	Later works dealt with ethical concerns in the modern world. 	105817920	1474630666716	1474630666772	c	67
205312	2227080	Later works dealt with ethical concerns in the modern world.	Later works dealt with ethical concerns in the modern world. 	105817924	1474630666925	1474630666989	a	65
205312	2227080	Later works dealt with ethical concerns in the modern world.	Later works dealt with ethical concerns in the modern world. 	105817984	1474630667085	1474630667173	l	76
205312	2227080	Later works dealt with ethical concerns in the modern world.	Later works dealt with ethical concerns in the modern world. 	105817986	1474630667349	1474630667429	 	32
205312	2227080	Later works dealt with ethical concerns in the modern world.	Later works dealt with ethical concerns in the modern world. 	105817990	1474630668021	1474630668101	c	67
205312	2227080	Later works dealt with ethical concerns in the modern world.	Later works dealt with ethical concerns in the modern world. 	105817993	1474630668101	1474630668268	o	79
205312	2227080	Later works dealt with ethical concerns in the modern world.	Later works dealt with ethical concerns in the modern world. 	105818025	1474630668197	1474630668300	n	78
205312	2227080	Later works dealt with ethical concerns in the modern world.	Later works dealt with ethical concerns in the modern world. 	105818027	1474630668332	1474630668381	c	67
205312	2227080	Later works dealt with ethical concerns in the modern world.	Later works dealt with ethical concerns in the modern world. 	105818029	1474630668524	1474630668580	e	69
205312	2227080	Later works dealt with ethical concerns in the modern world.	Later works dealt with ethical concerns in the modern world. 	105818032	1474630668685	1474630668725	r	82
205312	2227080	Later works dealt with ethical concerns in the modern world.	Later works dealt with ethical concerns in the modern world. 	105818034	1474630668780	1474630668854	n	78
205312	2227080	Later works dealt with ethical concerns in the modern world.	Later works dealt with ethical concerns in the modern world. 	105818036	1474630668941	1474630669013	s	83
205312	2227080	Later works dealt with ethical concerns in the modern world.	Later works dealt with ethical concerns in the modern world. 	105818116	1474630669077	1474630669132	 	32
205312	2227080	Later works dealt with ethical concerns in the modern world.	Later works dealt with ethical concerns in the modern world. 	105818118	1474630670356	1474630670533	i	73
205312	2227080	Later works dealt with ethical concerns in the modern world.	Later works dealt with ethical concerns in the modern world. 	105818120	1474630670517	1474630670636	n	78
205312	2227080	Later works dealt with ethical concerns in the modern world.	Later works dealt with ethical concerns in the modern world. 	105818122	1474630670877	1474630670964	 	32
205312	2227080	Later works dealt with ethical concerns in the modern world.	Later works dealt with ethical concerns in the modern world. 	105818124	1474630671100	1474630671164	t	84
205312	2227080	Later works dealt with ethical concerns in the modern world.	Later works dealt with ethical concerns in the modern world. 	105818139	1474630671212	1474630671284	h	72
205312	2227080	Later works dealt with ethical concerns in the modern world.	Later works dealt with ethical concerns in the modern world. 	105818144	1474630671364	1474630671444	w	87
205312	2227080	Later works dealt with ethical concerns in the modern world.	Later works dealt with ethical concerns in the modern world. 	105818151	1474630671445	1474630671516	 	32
205312	2227080	Later works dealt with ethical concerns in the modern world.	Later works dealt with ethical concerns in the modern world. 	105818156	1474630671765	1474630671860	m	77
205312	2227080	Later works dealt with ethical concerns in the modern world.	Later works dealt with ethical concerns in the modern world. 	105818161	1474630671964	1474630672060	o	79
205312	2227080	Later works dealt with ethical concerns in the modern world.	Later works dealt with ethical concerns in the modern world. 	105818316	1474630672276	1474630672341	BKSP	8
205312	2227080	Later works dealt with ethical concerns in the modern world.	Later works dealt with ethical concerns in the modern world. 	105818320	1474630672420	1474630672485	BKSP	8
205312	2227080	Later works dealt with ethical concerns in the modern world.	Later works dealt with ethical concerns in the modern world. 	105818323	1474630672580	1474630672636	BKSP	8
205312	2227080	Later works dealt with ethical concerns in the modern world.	Later works dealt with ethical concerns in the modern world. 	105818327	1474630672740	1474630672812	BKSP	8
205312	2227080	Later works dealt with ethical concerns in the modern world.	Later works dealt with ethical concerns in the modern world. 	105818332	1474630673156	1474630673228	e	69
205312	2227080	Later works dealt with ethical concerns in the modern world.	Later works dealt with ethical concerns in the modern world. 	105818335	1474630673260	1474630673324	 	32
205312	2227080	Later works dealt with ethical concerns in the modern world.	Later works dealt with ethical concerns in the modern world. 	105818338	1474630673532	1474630673660	m	77
205312	2227080	Later works dealt with ethical concerns in the modern world.	Later works dealt with ethical concerns in the modern world. 	105818342	1474630673629	1474630673716	o	79
205312	2227080	Later works dealt with ethical concerns in the modern world.	Later works dealt with ethical concerns in the modern world. 	105818347	1474630673789	1474630673836	d	68
205312	2227080	Later works dealt with ethical concerns in the modern world.	Later works dealt with ethical concerns in the modern world. 	105818321	1474630673941	1474630673988	e	69
205312	2227080	Later works dealt with ethical concerns in the modern world.	Later works dealt with ethical concerns in the modern world. 	105818324	1474630674068	1474630674117	r	82
205312	2227080	Later works dealt with ethical concerns in the modern world.	Later works dealt with ethical concerns in the modern world. 	105818326	1474630674173	1474630674220	n	78
205312	2227080	Later works dealt with ethical concerns in the modern world.	Later works dealt with ethical concerns in the modern world. 	105818331	1474630674324	1474630674388	 	32
205312	2227080	Later works dealt with ethical concerns in the modern world.	Later works dealt with ethical concerns in the modern world. 	105818334	1474630674452	1474630674508	w	87
205312	2227080	Later works dealt with ethical concerns in the modern world.	Later works dealt with ethical concerns in the modern world. 	105818328	1474630674548	1474630674620	o	79
205312	2227080	Later works dealt with ethical concerns in the modern world.	Later works dealt with ethical concerns in the modern world. 	105818330	1474630674708	1474630674764	r	82
205312	2227080	Later works dealt with ethical concerns in the modern world.	Later works dealt with ethical concerns in the modern world. 	105818333	1474630674820	1474630674924	l	76
205312	2227080	Later works dealt with ethical concerns in the modern world.	Later works dealt with ethical concerns in the modern world. 	105818336	1474630674980	1474630675036	d	68
205312	2227080	Later works dealt with ethical concerns in the modern world.	Later works dealt with ethical concerns in the modern world. 	105818340	1474630675237	1474630675388	.	190
205312	2227080	Later works dealt with ethical concerns in the modern world.	Later works dealt with ethical concerns in the modern world. 	105818492	1474630675340	1474630675420	 	32
205312	2227080	Later works dealt with ethical concerns in the modern world.	Later works dealt with ethical concerns in the modern world. 	105818494	1474630677788	1474630677844	BKSP	8
