PARTICIPANT_ID	TEST_SECTION_ID	SENTENCE	USER_INPUT	KEYSTROKE_ID	PRESS_TIME	RELEASE_TIME	LETTER	KEYCODE
206157	2234427	I like Nick and Everett.	I like Nick and Everett.	106162161	1474638827883	1474638828252	SHIFT	16
206157	2234427	I like Nick and Everett.	I like Nick and Everett.	106162167	1474638828251	1474638828377	I	73
206157	2234427	I like Nick and Everett.	I like Nick and Everett.	106162178	1474638828473	1474638828593	 	32
206157	2234427	I like Nick and Everett.	I like Nick and Everett.	106162191	1474638828737	1474638828841	l	76
206157	2234427	I like Nick and Everett.	I like Nick and Everett.	106162205	1474638828905	1474638828993	i	73
206157	2234427	I like Nick and Everett.	I like Nick and Everett.	106162217	1474638829089	1474638829209	k	75
206157	2234427	I like Nick and Everett.	I like Nick and Everett.	106162284	1474638829170	1474638829249	e	69
206157	2234427	I like Nick and Everett.	I like Nick and Everett.	106162287	1474638829289	1474638829393	 	32
206157	2234427	I like Nick and Everett.	I like Nick and Everett.	106162293	1474638829761	1474638829921	SHIFT	16
206157	2234427	I like Nick and Everett.	I like Nick and Everett.	106162298	1474638829809	1474638829929	N	78
206157	2234427	I like Nick and Everett.	I like Nick and Everett.	106162302	1474638829977	1474638830113	i	73
206157	2234427	I like Nick and Everett.	I like Nick and Everett.	106162304	1474638830145	1474638830193	c	67
206157	2234427	I like Nick and Everett.	I like Nick and Everett.	106162308	1474638830305	1474638830465	k	75
206157	2234427	I like Nick and Everett.	I like Nick and Everett.	106162331	1474638830673	1474638830793	 	32
206157	2234427	I like Nick and Everett.	I like Nick and Everett.	106162333	1474638830737	1474638830881	a	65
206157	2234427	I like Nick and Everett.	I like Nick and Everett.	106162338	1474638830921	1474638831049	d	78
206157	2234427	I like Nick and Everett.	I like Nick and Everett.	106162342	1474638831097	1474638831241	 	32
206157	2234427	I like Nick and Everett.	I like Nick and Everett.	106162392	1474638831242	1474638831433	SHIFT	16
206157	2234427	I like Nick and Everett.	I like Nick and Everett.	106162401	1474638831433	1474638831569	E	69
206157	2234427	I like Nick and Everett.	I like Nick and Everett.	106162409	1474638831833	1474638831969	v	86
206157	2234427	I like Nick and Everett.	I like Nick and Everett.	106162415	1474638832009	1474638832121	d	69
206157	2234427	I like Nick and Everett.	I like Nick and Everett.	106162602	1474638832097	1474638832257	r	82
206157	2234427	I like Nick and Everett.	I like Nick and Everett.	106162606	1474638832713	1474638832801	BKSP	8
206157	2234427	I like Nick and Everett.	I like Nick and Everett.	106162610	1474638832897	1474638833009	BKSP	8
206157	2234427	I like Nick and Everett.	I like Nick and Everett.	106162614	1474638833249	1474638833402	r	82
206157	2234427	I like Nick and Everett.	I like Nick and Everett.	106162619	1474638833385	1474638833537	e	69
206157	2234427	I like Nick and Everett.	I like Nick and Everett.	106162625	1474638833689	1474638833817	t	84
206157	2234427	I like Nick and Everett.	I like Nick and Everett.	106162630	1474638833905	1474638834001	t	84
206157	2234427	I like Nick and Everett.	I like Nick and Everett.	106162635	1474638834481	1474638834585	.	190
206157	2234438	I changed that in one prior draft.	I changed that in one prior draft.	106162974	1474638839185	1474638839321	SHIFT	16
206157	2234438	I changed that in one prior draft.	I changed that in one prior draft.	106162977	1474638839321	1474638839441	I	73
206157	2234438	I changed that in one prior draft.	I changed that in one prior draft.	106162979	1474638839465	1474638839561	 	32
206157	2234438	I changed that in one prior draft.	I changed that in one prior draft.	106162982	1474638839665	1474638839841	v	86
206157	2234438	I changed that in one prior draft.	I changed that in one prior draft.	106163064	1474638839793	1474638839913	h	72
206157	2234438	I changed that in one prior draft.	I changed that in one prior draft.	106163073	1474638839833	1474638839985	a	65
206157	2234438	I changed that in one prior draft.	I changed that in one prior draft.	106163081	1474638840353	1474638840433	BKSP	8
206157	2234438	I changed that in one prior draft.	I changed that in one prior draft.	106163088	1474638840537	1474638840601	BKSP	8
206157	2234438	I changed that in one prior draft.	I changed that in one prior draft.	106163093	1474638840705	1474638840793	BKSP	8
206157	2234438	I changed that in one prior draft.	I changed that in one prior draft.	106163099	1474638840801	1474638840937	c	67
206157	2234438	I changed that in one prior draft.	I changed that in one prior draft.	106163104	1474638840969	1474638841065	h	72
206157	2234438	I changed that in one prior draft.	I changed that in one prior draft.	106163108	1474638841025	1474638841145	a	65
206157	2234438	I changed that in one prior draft.	I changed that in one prior draft.	106163112	1474638841225	1474638841313	n	77
206157	2234438	I changed that in one prior draft.	I changed that in one prior draft.	106163181	1474638841617	1474638841713	BKSP	8
206157	2234438	I changed that in one prior draft.	I changed that in one prior draft.	106163188	1474638841777	1474638841873	BKSP	8
206157	2234438	I changed that in one prior draft.	I changed that in one prior draft.	106163194	1474638842033	1474638842145	n	78
206157	2234438	I changed that in one prior draft.	I changed that in one prior draft.	106163203	1474638842081	1474638842233	g	71
206157	2234438	I changed that in one prior draft.	I changed that in one prior draft.	106163209	1474638842225	1474638842345	e	69
206157	2234438	I changed that in one prior draft.	I changed that in one prior draft.	106163213	1474638842449	1474638842609	d	68
206157	2234438	I changed that in one prior draft.	I changed that in one prior draft.	106163228	1474638842593	1474638842681	 	32
206157	2234438	I changed that in one prior draft.	I changed that in one prior draft.	106163232	1474638842769	1474638842945	t	84
206157	2234438	I changed that in one prior draft.	I changed that in one prior draft.	106163239	1474638842833	1474638842961	h	72
206157	2234438	I changed that in one prior draft.	I changed that in one prior draft.	106163243	1474638842953	1474638843081	a	65
206157	2234438	I changed that in one prior draft.	I changed that in one prior draft.	106163247	1474638843041	1474638843169	t	84
206157	2234438	I changed that in one prior draft.	I changed that in one prior draft.	106163289	1474638843137	1474638843241	 	32
206157	2234438	I changed that in one prior draft.	I changed that in one prior draft.	106163291	1474638843257	1474638843385	i	73
206157	2234438	I changed that in one prior draft.	I changed that in one prior draft.	106163294	1474638843521	1474638843657	n	78
206157	2234438	I changed that in one prior draft.	I changed that in one prior draft.	106163303	1474638843705	1474638843801	 	32
206157	2234438	I changed that in one prior draft.	I changed that in one prior draft.	106163308	1474638843777	1474638843929	o	79
206157	2234438	I changed that in one prior draft.	I changed that in one prior draft.	106163317	1474638843945	1474638844089	n	78
206157	2234438	I changed that in one prior draft.	I changed that in one prior draft.	106163408	1474638844049	1474638844153	e	69
206157	2234438	I changed that in one prior draft.	I changed that in one prior draft.	106163411	1474638844177	1474638844369	 	32
206157	2234438	I changed that in one prior draft.	I changed that in one prior draft.	106163415	1474638844465	1474638844481	o	79
206157	2234438	I changed that in one prior draft.	I changed that in one prior draft.	106163420	1474638844545	1474638844665	p	80
206157	2234438	I changed that in one prior draft.	I changed that in one prior draft.	106163425	1474638844753	1474638844873	r	82
206157	2234438	I changed that in one prior draft.	I changed that in one prior draft.	106163434	1474638845073	1474638845145	BKSP	8
206157	2234438	I changed that in one prior draft.	I changed that in one prior draft.	106163440	1474638845257	1474638845329	BKSP	8
206157	2234438	I changed that in one prior draft.	I changed that in one prior draft.	106163447	1474638845449	1474638845513	BKSP	8
206157	2234438	I changed that in one prior draft.	I changed that in one prior draft.	106163453	1474638845697	1474638845809	p	80
206157	2234438	I changed that in one prior draft.	I changed that in one prior draft.	106163583	1474638845793	1474638845905	r	82
206157	2234438	I changed that in one prior draft.	I changed that in one prior draft.	106163588	1474638845937	1474638846025	o	79
206157	2234438	I changed that in one prior draft.	I changed that in one prior draft.	106163593	1474638846433	1474638846473	=	8
206157	2234438	I changed that in one prior draft.	I changed that in one prior draft.	106163596	1474638846745	1474638846785	i	73
206157	2234438	I changed that in one prior draft.	I changed that in one prior draft.	106163599	1474638847073	1474638847121	BKSP	8
206157	2234438	I changed that in one prior draft.	I changed that in one prior draft.	106163604	1474638847233	1474638847345	BKSP	8
206157	2234438	I changed that in one prior draft.	I changed that in one prior draft.	106163610	1474638847561	1474638847689	i	73
206157	2234438	I changed that in one prior draft.	I changed that in one prior draft.	106163616	1474638847841	1474638847961	o	79
206157	2234438	I changed that in one prior draft.	I changed that in one prior draft.	106163693	1474638848273	1474638848425	r	82
206157	2234438	I changed that in one prior draft.	I changed that in one prior draft.	106163703	1474638848481	1474638848633	 	32
206157	2234438	I changed that in one prior draft.	I changed that in one prior draft.	106163710	1474638848818	1474638848953	f	70
206157	2234438	I changed that in one prior draft.	I changed that in one prior draft.	106163718	1474638849313	1474638849441	d	8
206157	2234438	I changed that in one prior draft.	I changed that in one prior draft.	106163723	1474638849553	1474638849714	r	82
206157	2234438	I changed that in one prior draft.	I changed that in one prior draft.	106163808	1474638849697	1474638849865	a	65
206157	2234438	I changed that in one prior draft.	I changed that in one prior draft.	106163813	1474638850201	1474638850297	f	70
206157	2234438	I changed that in one prior draft.	I changed that in one prior draft.	106163821	1474638850617	1474638850737	t	84
206157	2234438	I changed that in one prior draft.	I changed that in one prior draft.	106163830	1474638850937	1474638851057	.	190
206157	2234471	Did you talk to Ava this morning?	Did you talk to Ava this morning?	106163999	1474638852673	1474638853041	SHIFT	16
206157	2234471	Did you talk to Ava this morning?	Did you talk to Ava this morning?	106164002	1474638853041	1474638853169	D	68
206157	2234471	Did you talk to Ava this morning?	Did you talk to Ava this morning?	106164006	1474638853129	1474638853249	i	73
206157	2234471	Did you talk to Ava this morning?	Did you talk to Ava this morning?	106164011	1474638853257	1474638853417	d	68
206157	2234471	Did you talk to Ava this morning?	Did you talk to Ava this morning?	106164019	1474638853417	1474638853577	 	32
206157	2234471	Did you talk to Ava this morning?	Did you talk to Ava this morning?	106164027	1474638853713	1474638853857	y	89
206157	2234471	Did you talk to Ava this morning?	Did you talk to Ava this morning?	106164084	1474638853865	1474638853985	o	79
206157	2234471	Did you talk to Ava this morning?	Did you talk to Ava this morning?	106164088	1474638853961	1474638854097	u	85
206157	2234471	Did you talk to Ava this morning?	Did you talk to Ava this morning?	106164092	1474638854113	1474638854249	 	32
206157	2234471	Did you talk to Ava this morning?	Did you talk to Ava this morning?	106164098	1474638854305	1474638854393	t	84
206157	2234471	Did you talk to Ava this morning?	Did you talk to Ava this morning?	106164105	1474638854633	1474638854769	a	65
206157	2234471	Did you talk to Ava this morning?	Did you talk to Ava this morning?	106164138	1474638854793	1474638854913	l	76
206157	2234471	Did you talk to Ava this morning?	Did you talk to Ava this morning?	106164144	1474638854953	1474638855081	k	75
206157	2234471	Did you talk to Ava this morning?	Did you talk to Ava this morning?	106164151	1474638855145	1474638855265	 	32
206157	2234471	Did you talk to Ava this morning?	Did you talk to Ava this morning?	106164156	1474638855193	1474638855337	t	84
206157	2234471	Did you talk to Ava this morning?	Did you talk to Ava this morning?	106164161	1474638855345	1474638855505	o	79
206157	2234471	Did you talk to Ava this morning?	Did you talk to Ava this morning?	106164201	1474638855497	1474638855665	 	32
206157	2234471	Did you talk to Ava this morning?	Did you talk to Ava this morning?	106164209	1474638855729	1474638855993	SHIFT	16
206157	2234471	Did you talk to Ava this morning?	Did you talk to Ava this morning?	106164215	1474638855993	1474638856089	A	65
206157	2234471	Did you talk to Ava this morning?	Did you talk to Ava this morning?	106164226	1474638856297	1474638856449	v	86
206157	2234471	Did you talk to Ava this morning?	Did you talk to Ava this morning?	106164235	1474638856441	1474638856569	a	65
206157	2234471	Did you talk to Ava this morning?	Did you talk to Ava this morning?	106164243	1474638856601	1474638856689	 	32
206157	2234471	Did you talk to Ava this morning?	Did you talk to Ava this morning?	106164251	1474638856769	1474638856881	t	84
206157	2234471	Did you talk to Ava this morning?	Did you talk to Ava this morning?	106164288	1474638856833	1474638856969	h	72
206157	2234471	Did you talk to Ava this morning?	Did you talk to Ava this morning?	106164294	1474638857001	1474638857129	i	73
206157	2234471	Did you talk to Ava this morning?	Did you talk to Ava this morning?	106164299	1474638857041	1474638857145	s	83
206157	2234471	Did you talk to Ava this morning?	Did you talk to Ava this morning?	106164308	1474638857185	1474638857297	 	32
206157	2234471	Did you talk to Ava this morning?	Did you talk to Ava this morning?	106164311	1474638857345	1474638857448	m	77
206157	2234471	Did you talk to Ava this morning?	Did you talk to Ava this morning?	106164313	1474638857505	1474638857649	o	79
206157	2234471	Did you talk to Ava this morning?	Did you talk to Ava this morning?	106164414	1474638857617	1474638857736	r	82
206157	2234471	Did you talk to Ava this morning?	Did you talk to Ava this morning?	106164426	1474638857825	1474638857928	n	78
206157	2234471	Did you talk to Ava this morning?	Did you talk to Ava this morning?	106164437	1474638857953	1474638858089	i	73
206157	2234471	Did you talk to Ava this morning?	Did you talk to Ava this morning?	106164446	1474638858105	1474638858209	g	71
206157	2234471	Did you talk to Ava this morning?	Did you talk to Ava this morning?	106164452	1474638858169	1474638858312	n	78
206157	2234471	Did you talk to Ava this morning?	Did you talk to Ava this morning?	106164462	1474638858833	1474638858929	BKSP	8
206157	2234471	Did you talk to Ava this morning?	Did you talk to Ava this morning?	106164470	1474638859000	1474638859088	BKSP	8
206157	2234471	Did you talk to Ava this morning?	Did you talk to Ava this morning?	106164478	1474638859224	1474638859336	n	78
206157	2234471	Did you talk to Ava this morning?	Did you talk to Ava this morning?	106164500	1474638859289	1474638859400	g	71
206157	2234471	Did you talk to Ava this morning?	Did you talk to Ava this morning?	106164501	1474638859672	1474638859784	?	191
206157	2234488	The sooner I get this, the sooner we can get this implemented.	The sooner I get this, the sooner we can get this implemented.	106164657	1474638861897	1474638862080	T	84
206157	2234488	The sooner I get this, the sooner we can get this implemented.	The sooner I get this, the sooner we can get this implemented.	106164665	1474638861946	1474638862152	h	72
206157	2234488	The sooner I get this, the sooner we can get this implemented.	The sooner I get this, the sooner we can get this implemented.	106164678	1474638862112	1474638862208	e	69
206157	2234488	The sooner I get this, the sooner we can get this implemented.	The sooner I get this, the sooner we can get this implemented.	106164686	1474638862176	1474638862344	 	32
206157	2234488	The sooner I get this, the sooner we can get this implemented.	The sooner I get this, the sooner we can get this implemented.	106164693	1474638862368	1474638862481	s	83
206157	2234488	The sooner I get this, the sooner we can get this implemented.	The sooner I get this, the sooner we can get this implemented.	106164730	1474638862448	1474638862560	o	79
206157	2234488	The sooner I get this, the sooner we can get this implemented.	The sooner I get this, the sooner we can get this implemented.	106164734	1474638862632	1474638862744	o	79
206157	2234488	The sooner I get this, the sooner we can get this implemented.	The sooner I get this, the sooner we can get this implemented.	106164738	1474638862792	1474638862920	n	78
206157	2234488	The sooner I get this, the sooner we can get this implemented.	The sooner I get this, the sooner we can get this implemented.	106164739	1474638862912	1474638863040	e	69
206157	2234488	The sooner I get this, the sooner we can get this implemented.	The sooner I get this, the sooner we can get this implemented.	106164744	1474638863064	1474638863216	r	82
206157	2234488	The sooner I get this, the sooner we can get this implemented.	The sooner I get this, the sooner we can get this implemented.	106164748	1474638863224	1474638863352	 	32
206157	2234488	The sooner I get this, the sooner we can get this implemented.	The sooner I get this, the sooner we can get this implemented.	106164879	1474638863488	1474638863592	 	32
206157	2234488	The sooner I get this, the sooner we can get this implemented.	The sooner I get this, the sooner we can get this implemented.	106164889	1474638863504	1474638863593	SHIFT	16
206157	2234488	The sooner I get this, the sooner we can get this implemented.	The sooner I get this, the sooner we can get this implemented.	106164895	1474638864224	1474638864296	BKSP	8
206157	2234488	The sooner I get this, the sooner we can get this implemented.	The sooner I get this, the sooner we can get this implemented.	106164899	1474638864360	1474638864504	SHIFT	16
206157	2234488	The sooner I get this, the sooner we can get this implemented.	The sooner I get this, the sooner we can get this implemented.	106164904	1474638864425	1474638864505	I	73
206157	2234488	The sooner I get this, the sooner we can get this implemented.	The sooner I get this, the sooner we can get this implemented.	106164906	1474638864584	1474638864704	 	32
206157	2234488	The sooner I get this, the sooner we can get this implemented.	The sooner I get this, the sooner we can get this implemented.	106164911	1474638864848	1474638864960	h	72
206157	2234488	The sooner I get this, the sooner we can get this implemented.	The sooner I get this, the sooner we can get this implemented.	106164917	1474638864976	1474638865136	e	69
206157	2234488	The sooner I get this, the sooner we can get this implemented.	The sooner I get this, the sooner we can get this implemented.	106164983	1474638865128	1474638865264	t	84
206157	2234488	The sooner I get this, the sooner we can get this implemented.	The sooner I get this, the sooner we can get this implemented.	106164987	1474638865272	1474638865336	BKSP	8
206157	2234488	The sooner I get this, the sooner we can get this implemented.	The sooner I get this, the sooner we can get this implemented.	106164992	1474638865432	1474638865520	BKSP	8
206157	2234488	The sooner I get this, the sooner we can get this implemented.	The sooner I get this, the sooner we can get this implemented.	106164996	1474638865608	1474638865720	BKSP	8
206157	2234488	The sooner I get this, the sooner we can get this implemented.	The sooner I get this, the sooner we can get this implemented.	106165002	1474638865712	1474638865824	g	71
206157	2234488	The sooner I get this, the sooner we can get this implemented.	The sooner I get this, the sooner we can get this implemented.	106165007	1474638865760	1474638866008	e	69
206157	2234488	The sooner I get this, the sooner we can get this implemented.	The sooner I get this, the sooner we can get this implemented.	106165019	1474638865936	1474638866136	t	84
206157	2234488	The sooner I get this, the sooner we can get this implemented.	The sooner I get this, the sooner we can get this implemented.	106165029	1474638866120	1474638866256	 	32
206157	2234488	The sooner I get this, the sooner we can get this implemented.	The sooner I get this, the sooner we can get this implemented.	106165036	1474638866280	1474638866425	t	84
206157	2234488	The sooner I get this, the sooner we can get this implemented.	The sooner I get this, the sooner we can get this implemented.	106165091	1474638866376	1474638866504	h	72
206157	2234488	The sooner I get this, the sooner we can get this implemented.	The sooner I get this, the sooner we can get this implemented.	106165100	1474638866505	1474638866640	i	73
206157	2234488	The sooner I get this, the sooner we can get this implemented.	The sooner I get this, the sooner we can get this implemented.	106165106	1474638866552	1474638866680	s	83
206157	2234488	The sooner I get this, the sooner we can get this implemented.	The sooner I get this, the sooner we can get this implemented.	106165112	1474638866712	1474638866792	 	32
206157	2234488	The sooner I get this, the sooner we can get this implemented.	The sooner I get this, the sooner we can get this implemented.	106165117	1474638867096	1474638867177	BKSP	8
206157	2234488	The sooner I get this, the sooner we can get this implemented.	The sooner I get this, the sooner we can get this implemented.	106165120	1474638867512	1474638867545	 	32
206157	2234488	The sooner I get this, the sooner we can get this implemented.	The sooner I get this, the sooner we can get this implemented.	106165123	1474638867576	1474638867680	,	188
206157	2234488	The sooner I get this, the sooner we can get this implemented.	The sooner I get this, the sooner we can get this implemented.	106165190	1474638867944	1474638868008	BKSP	8
206157	2234488	The sooner I get this, the sooner we can get this implemented.	The sooner I get this, the sooner we can get this implemented.	106165195	1474638868112	1474638868184	BKSP	8
206157	2234488	The sooner I get this, the sooner we can get this implemented.	The sooner I get this, the sooner we can get this implemented.	106165207	1474638868400	1474638868504	,	188
206157	2234488	The sooner I get this, the sooner we can get this implemented.	The sooner I get this, the sooner we can get this implemented.	106165216	1474638868536	1474638868624	 	32
206157	2234488	The sooner I get this, the sooner we can get this implemented.	The sooner I get this, the sooner we can get this implemented.	106165222	1474638868600	1474638868784	t	84
206157	2234488	The sooner I get this, the sooner we can get this implemented.	The sooner I get this, the sooner we can get this implemented.	106165228	1474638868672	1474638868840	h	72
206157	2234488	The sooner I get this, the sooner we can get this implemented.	The sooner I get this, the sooner we can get this implemented.	106165286	1474638868784	1474638868904	e	69
206157	2234488	The sooner I get this, the sooner we can get this implemented.	The sooner I get this, the sooner we can get this implemented.	106165289	1474638868888	1474638869024	 	32
206157	2234488	The sooner I get this, the sooner we can get this implemented.	The sooner I get this, the sooner we can get this implemented.	106165293	1474638869176	1474638869280	s	83
206157	2234488	The sooner I get this, the sooner we can get this implemented.	The sooner I get this, the sooner we can get this implemented.	106165300	1474638869232	1474638869336	o	79
206157	2234488	The sooner I get this, the sooner we can get this implemented.	The sooner I get this, the sooner we can get this implemented.	106165305	1474638869664	1474638869768	o	79
206157	2234488	The sooner I get this, the sooner we can get this implemented.	The sooner I get this, the sooner we can get this implemented.	106165312	1474638869840	1474638869944	n	78
206157	2234488	The sooner I get this, the sooner we can get this implemented.	The sooner I get this, the sooner we can get this implemented.	106165374	1474638869968	1474638870073	e	69
206157	2234488	The sooner I get this, the sooner we can get this implemented.	The sooner I get this, the sooner we can get this implemented.	106165382	1474638870040	1474638870200	r	82
206157	2234488	The sooner I get this, the sooner we can get this implemented.	The sooner I get this, the sooner we can get this implemented.	106165387	1474638870232	1474638870376	 	32
206157	2234488	The sooner I get this, the sooner we can get this implemented.	The sooner I get this, the sooner we can get this implemented.	106165390	1474638870472	1474638870608	w	87
206157	2234488	The sooner I get this, the sooner we can get this implemented.	The sooner I get this, the sooner we can get this implemented.	106165392	1474638870632	1474638870848	r	82
206157	2234488	The sooner I get this, the sooner we can get this implemented.	The sooner I get this, the sooner we can get this implemented.	106165485	1474638871360	1474638871464	BKSP	8
206157	2234488	The sooner I get this, the sooner we can get this implemented.	The sooner I get this, the sooner we can get this implemented.	106165488	1474638871488	1474638871640	e	69
206157	2234488	The sooner I get this, the sooner we can get this implemented.	The sooner I get this, the sooner we can get this implemented.	106165493	1474638871616	1474638871752	 	32
206157	2234488	The sooner I get this, the sooner we can get this implemented.	The sooner I get this, the sooner we can get this implemented.	106165500	1474638872080	1474638872208	c	67
206157	2234488	The sooner I get this, the sooner we can get this implemented.	The sooner I get this, the sooner we can get this implemented.	106165505	1474638872168	1474638872290	a	65
206157	2234488	The sooner I get this, the sooner we can get this implemented.	The sooner I get this, the sooner we can get this implemented.	106165591	1474638872272	1474638872408	n	78
206157	2234488	The sooner I get this, the sooner we can get this implemented.	The sooner I get this, the sooner we can get this implemented.	106165597	1474638872464	1474638872576	 	32
206157	2234488	The sooner I get this, the sooner we can get this implemented.	The sooner I get this, the sooner we can get this implemented.	106165603	1474638872712	1474638872784	h	71
206157	2234488	The sooner I get this, the sooner we can get this implemented.	The sooner I get this, the sooner we can get this implemented.	106165610	1474638873080	1474638873248	BKSP	8
206157	2234488	The sooner I get this, the sooner we can get this implemented.	The sooner I get this, the sooner we can get this implemented.	106165614	1474638873336	1474638873536	e	69
206157	2234488	The sooner I get this, the sooner we can get this implemented.	The sooner I get this, the sooner we can get this implemented.	106165662	1474638873600	1474638873712	y	84
206157	2234488	The sooner I get this, the sooner we can get this implemented.	The sooner I get this, the sooner we can get this implemented.	106165667	1474638874056	1474638874160	BKSP	8
206157	2234488	The sooner I get this, the sooner we can get this implemented.	The sooner I get this, the sooner we can get this implemented.	106165674	1474638874352	1474638874448	 	32
206157	2234488	The sooner I get this, the sooner we can get this implemented.	The sooner I get this, the sooner we can get this implemented.	106165680	1474638874440	1474638874568	t	84
206157	2234488	The sooner I get this, the sooner we can get this implemented.	The sooner I get this, the sooner we can get this implemented.	106165685	1474638874536	1474638874672	h	72
206157	2234488	The sooner I get this, the sooner we can get this implemented.	The sooner I get this, the sooner we can get this implemented.	106165689	1474638874688	1474638874832	i	73
206157	2234488	The sooner I get this, the sooner we can get this implemented.	The sooner I get this, the sooner we can get this implemented.	106165776	1474638874744	1474638874864	s	83
206157	2234488	The sooner I get this, the sooner we can get this implemented.	The sooner I get this, the sooner we can get this implemented.	106165781	1474638874960	1474638875112	 	32
206157	2234488	The sooner I get this, the sooner we can get this implemented.	The sooner I get this, the sooner we can get this implemented.	106165786	1474638875160	1474638875368	i	73
206157	2234488	The sooner I get this, the sooner we can get this implemented.	The sooner I get this, the sooner we can get this implemented.	106165791	1474638875336	1474638875456	m	77
206157	2234488	The sooner I get this, the sooner we can get this implemented.	The sooner I get this, the sooner we can get this implemented.	106165795	1474638875576	1474638875672	p	80
206157	2234488	The sooner I get this, the sooner we can get this implemented.	The sooner I get this, the sooner we can get this implemented.	106165802	1474638875816	1474638875944	l	76
206157	2234488	The sooner I get this, the sooner we can get this implemented.	The sooner I get this, the sooner we can get this implemented.	106165865	1474638875945	1474638876032	e	69
206157	2234488	The sooner I get this, the sooner we can get this implemented.	The sooner I get this, the sooner we can get this implemented.	106165872	1474638876104	1474638876240	m	77
206157	2234488	The sooner I get this, the sooner we can get this implemented.	The sooner I get this, the sooner we can get this implemented.	106165878	1474638876472	1474638876600	e	69
206157	2234488	The sooner I get this, the sooner we can get this implemented.	The sooner I get this, the sooner we can get this implemented.	106165889	1474638876632	1474638876744	n	78
206157	2234488	The sooner I get this, the sooner we can get this implemented.	The sooner I get this, the sooner we can get this implemented.	106165895	1474638876800	1474638876944	t	84
206157	2234488	The sooner I get this, the sooner we can get this implemented.	The sooner I get this, the sooner we can get this implemented.	106166036	1474638877072	1474638877152	e	69
206157	2234488	The sooner I get this, the sooner we can get this implemented.	The sooner I get this, the sooner we can get this implemented.	106166039	1474638877272	1474638877376	d	68
206157	2234488	The sooner I get this, the sooner we can get this implemented.	The sooner I get this, the sooner we can get this implemented.	106166044	1474638877512	1474638877608	/	191
206157	2234488	The sooner I get this, the sooner we can get this implemented.	The sooner I get this, the sooner we can get this implemented.	106166049	1474638878056	1474638878128	BKSP	8
206157	2234488	The sooner I get this, the sooner we can get this implemented.	The sooner I get this, the sooner we can get this implemented.	106166054	1474638878392	1474638878472	.	190
206157	2234524	The prime minister is to meet with several Security Council members.	The prime minister is to meet with several Security Council members.	106166349	1474638882608	1474638882873	SHIFT	16
206157	2234524	The prime minister is to meet with several Security Council members.	The prime minister is to meet with several Security Council members.	106166355	1474638882873	1474638883024	T	84
206157	2234524	The prime minister is to meet with several Security Council members.	The prime minister is to meet with several Security Council members.	106166362	1474638882952	1474638883112	h	72
206157	2234524	The prime minister is to meet with several Security Council members.	The prime minister is to meet with several Security Council members.	106166365	1474638883112	1474638883232	e	69
206157	2234524	The prime minister is to meet with several Security Council members.	The prime minister is to meet with several Security Council members.	106166370	1474638883144	1474638883288	 	32
206157	2234524	The prime minister is to meet with several Security Council members.	The prime minister is to meet with several Security Council members.	106166374	1474638883352	1474638883456	o	79
206157	2234524	The prime minister is to meet with several Security Council members.	The prime minister is to meet with several Security Council members.	106166484	1474638883592	1474638883656	p	80
206157	2234524	The prime minister is to meet with several Security Council members.	The prime minister is to meet with several Security Council members.	106166487	1474638883816	1474638883904	=	187
206157	2234524	The prime minister is to meet with several Security Council members.	The prime minister is to meet with several Security Council members.	106166491	1474638884008	1474638884080	BKSP	8
206157	2234524	The prime minister is to meet with several Security Council members.	The prime minister is to meet with several Security Council members.	106166498	1474638884216	1474638884296	BKSP	8
206157	2234524	The prime minister is to meet with several Security Council members.	The prime minister is to meet with several Security Council members.	106166505	1474638884416	1474638884480	BKSP	8
206157	2234524	The prime minister is to meet with several Security Council members.	The prime minister is to meet with several Security Council members.	106166512	1474638884704	1474638884808	p	80
206157	2234524	The prime minister is to meet with several Security Council members.	The prime minister is to meet with several Security Council members.	106166519	1474638884848	1474638884960	t	84
206157	2234524	The prime minister is to meet with several Security Council members.	The prime minister is to meet with several Security Council members.	106166528	1474638885072	1474638885184	o	79
206157	2234524	The prime minister is to meet with several Security Council members.	The prime minister is to meet with several Security Council members.	106166618	1474638885360	1474638885440	BKSP	8
206157	2234524	The prime minister is to meet with several Security Council members.	The prime minister is to meet with several Security Council members.	106166623	1474638885520	1474638885632	BKSP	8
206157	2234524	The prime minister is to meet with several Security Council members.	The prime minister is to meet with several Security Council members.	106166629	1474638885632	1474638885720	r	82
206157	2234524	The prime minister is to meet with several Security Council members.	The prime minister is to meet with several Security Council members.	106166634	1474638885744	1474638885928	i	73
206157	2234524	The prime minister is to meet with several Security Council members.	The prime minister is to meet with several Security Council members.	106166640	1474638885936	1474638886080	m	77
206157	2234524	The prime minister is to meet with several Security Council members.	The prime minister is to meet with several Security Council members.	106166643	1474638886048	1474638886152	e	69
206157	2234524	The prime minister is to meet with several Security Council members.	The prime minister is to meet with several Security Council members.	106166647	1474638886240	1474638886416	 	32
206157	2234524	The prime minister is to meet with several Security Council members.	The prime minister is to meet with several Security Council members.	106166697	1474638886600	1474638886704	m	77
206157	2234524	The prime minister is to meet with several Security Council members.	The prime minister is to meet with several Security Council members.	106166700	1474638886744	1474638886864	i	73
206157	2234524	The prime minister is to meet with several Security Council members.	The prime minister is to meet with several Security Council members.	106166704	1474638886872	1474638887008	n	78
206157	2234524	The prime minister is to meet with several Security Council members.	The prime minister is to meet with several Security Council members.	106166709	1474638887056	1474638887200	i	73
206157	2234524	The prime minister is to meet with several Security Council members.	The prime minister is to meet with several Security Council members.	106166711	1474638887224	1474638887416	s	83
206157	2234524	The prime minister is to meet with several Security Council members.	The prime minister is to meet with several Security Council members.	106166755	1474638887490	1474638887616	t	84
206157	2234524	The prime minister is to meet with several Security Council members.	The prime minister is to meet with several Security Council members.	106166762	1474638887672	1474638887824	e	69
206157	2234524	The prime minister is to meet with several Security Council members.	The prime minister is to meet with several Security Council members.	106166765	1474638887784	1474638887912	r	82
206157	2234524	The prime minister is to meet with several Security Council members.	The prime minister is to meet with several Security Council members.	106166768	1474638887904	1474638888032	 	32
206157	2234524	The prime minister is to meet with several Security Council members.	The prime minister is to meet with several Security Council members.	106166795	1474638888024	1474638888241	i	73
206157	2234524	The prime minister is to meet with several Security Council members.	The prime minister is to meet with several Security Council members.	106166799	1474638888152	1474638888264	s	83
206157	2234524	The prime minister is to meet with several Security Council members.	The prime minister is to meet with several Security Council members.	106166807	1474638888224	1474638888352	 	32
206157	2234524	The prime minister is to meet with several Security Council members.	The prime minister is to meet with several Security Council members.	106166818	1474638888384	1474638888488	t	84
206157	2234524	The prime minister is to meet with several Security Council members.	The prime minister is to meet with several Security Council members.	106166827	1474638888456	1474638888688	o	79
206157	2234524	The prime minister is to meet with several Security Council members.	The prime minister is to meet with several Security Council members.	106166887	1474638888600	1474638888712	 	32
206157	2234524	The prime minister is to meet with several Security Council members.	The prime minister is to meet with several Security Council members.	106166894	1474638888792	1474638888928	m	77
206157	2234524	The prime minister is to meet with several Security Council members.	The prime minister is to meet with several Security Council members.	106166903	1474638888888	1474638888976	e	69
206157	2234524	The prime minister is to meet with several Security Council members.	The prime minister is to meet with several Security Council members.	106166909	1474638889056	1474638889224	e	69
206157	2234524	The prime minister is to meet with several Security Council members.	The prime minister is to meet with several Security Council members.	106166912	1474638889288	1474638889416	t	84
206157	2234524	The prime minister is to meet with several Security Council members.	The prime minister is to meet with several Security Council members.	106166915	1474638889480	1474638889608	 	32
206157	2234524	The prime minister is to meet with several Security Council members.	The prime minister is to meet with several Security Council members.	106166927	1474638889712	1474638889840	w	87
206157	2234524	The prime minister is to meet with several Security Council members.	The prime minister is to meet with several Security Council members.	106166933	1474638889784	1474638889912	i	73
206157	2234524	The prime minister is to meet with several Security Council members.	The prime minister is to meet with several Security Council members.	106166938	1474638889928	1474638889984	t	82
206157	2234524	The prime minister is to meet with several Security Council members.	The prime minister is to meet with several Security Council members.	106166946	1474638890024	1474638890168	h	72
206157	2234524	The prime minister is to meet with several Security Council members.	The prime minister is to meet with several Security Council members.	106167042	1474638890376	1474638890456	BKSP	8
206157	2234524	The prime minister is to meet with several Security Council members.	The prime minister is to meet with several Security Council members.	106167048	1474638890560	1474638890640	BKSP	8
206157	2234524	The prime minister is to meet with several Security Council members.	The prime minister is to meet with several Security Council members.	106167056	1474638890736	1474638890832	BKSP	8
206157	2234524	The prime minister is to meet with several Security Council members.	The prime minister is to meet with several Security Council members.	106167060	1474638890848	1474638890976	t	84
206157	2234524	The prime minister is to meet with several Security Council members.	The prime minister is to meet with several Security Council members.	106167065	1474638890952	1474638891105	h	72
206157	2234524	The prime minister is to meet with several Security Council members.	The prime minister is to meet with several Security Council members.	106167066	1474638891088	1474638891192	s	83
206157	2234524	The prime minister is to meet with several Security Council members.	The prime minister is to meet with several Security Council members.	106167069	1474638891120	1474638891240	 	32
206157	2234524	The prime minister is to meet with several Security Council members.	The prime minister is to meet with several Security Council members.	106167074	1474638891464	1474638891600	e	69
206157	2234524	The prime minister is to meet with several Security Council members.	The prime minister is to meet with several Security Council members.	106167145	1474638892008	1474638892088	BKSP	8
206157	2234524	The prime minister is to meet with several Security Council members.	The prime minister is to meet with several Security Council members.	106167153	1474638892184	1474638892256	BKSP	8
206157	2234524	The prime minister is to meet with several Security Council members.	The prime minister is to meet with several Security Council members.	106167159	1474638892352	1474638892448	BKSP	8
206157	2234524	The prime minister is to meet with several Security Council members.	The prime minister is to meet with several Security Council members.	106167164	1474638892560	1474638892672	 	32
206157	2234524	The prime minister is to meet with several Security Council members.	The prime minister is to meet with several Security Council members.	106167171	1474638892664	1474638892840	s	83
206157	2234524	The prime minister is to meet with several Security Council members.	The prime minister is to meet with several Security Council members.	106167177	1474638892848	1474638892968	v	86
206157	2234524	The prime minister is to meet with several Security Council members.	The prime minister is to meet with several Security Council members.	106167182	1474638892992	1474638893104	e	69
206157	2234524	The prime minister is to meet with several Security Council members.	The prime minister is to meet with several Security Council members.	106167185	1474638893200	1474638893288	BKSP	8
206157	2234524	The prime minister is to meet with several Security Council members.	The prime minister is to meet with several Security Council members.	106167192	1474638893368	1474638893496	BKSP	8
206157	2234524	The prime minister is to meet with several Security Council members.	The prime minister is to meet with several Security Council members.	106167256	1474638893488	1474638893592	v	86
206157	2234524	The prime minister is to meet with several Security Council members.	The prime minister is to meet with several Security Council members.	106167258	1474638893560	1474638893712	e	69
206157	2234524	The prime minister is to meet with several Security Council members.	The prime minister is to meet with several Security Council members.	106167261	1474638894080	1474638894176	BKSP	8
206157	2234524	The prime minister is to meet with several Security Council members.	The prime minister is to meet with several Security Council members.	106167268	1474638894264	1474638894384	BKSP	8
206157	2234524	The prime minister is to meet with several Security Council members.	The prime minister is to meet with several Security Council members.	106167277	1474638894344	1474638894488	e	69
206157	2234524	The prime minister is to meet with several Security Council members.	The prime minister is to meet with several Security Council members.	106167285	1474638894520	1474638894672	v	86
206157	2234524	The prime minister is to meet with several Security Council members.	The prime minister is to meet with several Security Council members.	106167294	1474638894696	1474638894904	e	69
206157	2234524	The prime minister is to meet with several Security Council members.	The prime minister is to meet with several Security Council members.	106167303	1474638894968	1474638895160	t	84
206157	2234524	The prime minister is to meet with several Security Council members.	The prime minister is to meet with several Security Council members.	106167363	1474638895264	1474638895336	a	65
206157	2234524	The prime minister is to meet with several Security Council members.	The prime minister is to meet with several Security Council members.	106167371	1474638895608	1474638895688	BKSP	8
206157	2234524	The prime minister is to meet with several Security Council members.	The prime minister is to meet with several Security Council members.	106167379	1474638895784	1474638895880	BKSP	8
206157	2234524	The prime minister is to meet with several Security Council members.	The prime minister is to meet with several Security Council members.	106167384	1474638895896	1474638896024	r	82
206157	2234524	The prime minister is to meet with several Security Council members.	The prime minister is to meet with several Security Council members.	106167391	1474638896048	1474638896136	a	65
206157	2234524	The prime minister is to meet with several Security Council members.	The prime minister is to meet with several Security Council members.	106167397	1474638896144	1474638896256	l	76
206157	2234524	The prime minister is to meet with several Security Council members.	The prime minister is to meet with several Security Council members.	106167402	1474638896312	1474638896440	 	32
206157	2234524	The prime minister is to meet with several Security Council members.	The prime minister is to meet with several Security Council members.	106167682	1474638896664	1474638896848	SHIFT	16
206157	2234524	The prime minister is to meet with several Security Council members.	The prime minister is to meet with several Security Council members.	106167688	1474638896848	1474638896976	C	67
206157	2234524	The prime minister is to meet with several Security Council members.	The prime minister is to meet with several Security Council members.	106167692	1474638897248	1474638897392	BKSP	8
206157	2234524	The prime minister is to meet with several Security Council members.	The prime minister is to meet with several Security Council members.	106167697	1474638897385	1474638897392	SHIFT	16
206157	2234524	The prime minister is to meet with several Security Council members.	The prime minister is to meet with several Security Council members.	106167703	1474638897568	1474638897608	D	16
206157	2234524	The prime minister is to meet with several Security Council members.	The prime minister is to meet with several Security Council members.	106167705	1474638898088	1474638898248	BKSP	8
206157	2234524	The prime minister is to meet with several Security Council members.	The prime minister is to meet with several Security Council members.	106167707	1474638898168	1474638898248	SHIFT	16
206157	2234524	The prime minister is to meet with several Security Council members.	The prime minister is to meet with several Security Council members.	106167709	1474638898328	1474638898424	F	16
206157	2234524	The prime minister is to meet with several Security Council members.	The prime minister is to meet with several Security Council members.	106167820	1474638898728	1474638899952	SHIFT	16
206157	2234524	The prime minister is to meet with several Security Council members.	The prime minister is to meet with several Security Council members.	106167710	1474638899040	1474638899136	D	68
206157	2234524	The prime minister is to meet with several Security Council members.	The prime minister is to meet with several Security Council members.	106167712	1474638899168	1474638899280	BKSP	8
206157	2234524	The prime minister is to meet with several Security Council members.	The prime minister is to meet with several Security Council members.	106167716	1474638899416	1474638899512	BKSP	8
206157	2234524	The prime minister is to meet with several Security Council members.	The prime minister is to meet with several Security Council members.	106167721	1474638899544	1474638899656	S	83
206157	2234524	The prime minister is to meet with several Security Council members.	The prime minister is to meet with several Security Council members.	106167824	1474638900288	1474638900400	r	69
206157	2234524	The prime minister is to meet with several Security Council members.	The prime minister is to meet with several Security Council members.	106167829	1474638900368	1474638900408	r	82
206157	2234524	The prime minister is to meet with several Security Council members.	The prime minister is to meet with several Security Council members.	106167831	1474638900664	1474638900776	BKSP	8
206157	2234524	The prime minister is to meet with several Security Council members.	The prime minister is to meet with several Security Council members.	106167837	1474638900856	1474638900968	BKSP	8
206157	2234524	The prime minister is to meet with several Security Council members.	The prime minister is to meet with several Security Council members.	106167841	1474638901056	1474638901184	c	67
206157	2234524	The prime minister is to meet with several Security Council members.	The prime minister is to meet with several Security Council members.	106167846	1474638901312	1474638901448	u	85
206157	2234524	The prime minister is to meet with several Security Council members.	The prime minister is to meet with several Security Council members.	106167927	1474638901472	1474638901568	t	84
206157	2234524	The prime minister is to meet with several Security Council members.	The prime minister is to meet with several Security Council members.	106167929	1474638902088	1474638902176	BKSP	8
206157	2234524	The prime minister is to meet with several Security Council members.	The prime minister is to meet with several Security Council members.	106167933	1474638902200	1474638902304	r	82
206157	2234524	The prime minister is to meet with several Security Council members.	The prime minister is to meet with several Security Council members.	106167936	1474638902272	1474638902400	i	73
206157	2234524	The prime minister is to meet with several Security Council members.	The prime minister is to meet with several Security Council members.	106167942	1474638902472	1474638902600	t	84
206157	2234524	The prime minister is to meet with several Security Council members.	The prime minister is to meet with several Security Council members.	106167949	1474638903016	1474638903144	y	89
206157	2234524	The prime minister is to meet with several Security Council members.	The prime minister is to meet with several Security Council members.	106168045	1474638903200	1474638903352	 	32
206157	2234524	The prime minister is to meet with several Security Council members.	The prime minister is to meet with several Security Council members.	106168051	1474638903560	1474638903792	SHIFT	16
206157	2234524	The prime minister is to meet with several Security Council members.	The prime minister is to meet with several Security Council members.	106168057	1474638903760	1474638903912	C	67
206157	2234524	The prime minister is to meet with several Security Council members.	The prime minister is to meet with several Security Council members.	106168061	1474638904048	1474638904232	o	79
206157	2234524	The prime minister is to meet with several Security Council members.	The prime minister is to meet with several Security Council members.	106168066	1474638904224	1474638904344	u	85
206157	2234524	The prime minister is to meet with several Security Council members.	The prime minister is to meet with several Security Council members.	106168072	1474638904496	1474638904592	n	78
206157	2234524	The prime minister is to meet with several Security Council members.	The prime minister is to meet with several Security Council members.	106168105	1474638904680	1474638904784	c	67
206157	2234524	The prime minister is to meet with several Security Council members.	The prime minister is to meet with several Security Council members.	106168113	1474638904776	1474638904872	i	73
206157	2234524	The prime minister is to meet with several Security Council members.	The prime minister is to meet with several Security Council members.	106168119	1474638904952	1474638905080	l	76
206157	2234524	The prime minister is to meet with several Security Council members.	The prime minister is to meet with several Security Council members.	106168123	1474638905072	1474638905168	 	32
206157	2234524	The prime minister is to meet with several Security Council members.	The prime minister is to meet with several Security Council members.	106168126	1474638905312	1474638905416	m	77
206157	2234524	The prime minister is to meet with several Security Council members.	The prime minister is to meet with several Security Council members.	106168293	1474638905440	1474638905536	e	69
206157	2234524	The prime minister is to meet with several Security Council members.	The prime minister is to meet with several Security Council members.	106168297	1474638905624	1474638905696	n	77
206157	2234524	The prime minister is to meet with several Security Council members.	The prime minister is to meet with several Security Council members.	106168301	1474638906144	1474638906280	BKSP	8
206157	2234524	The prime minister is to meet with several Security Council members.	The prime minister is to meet with several Security Council members.	106168311	1474638906464	1474638906632	b	66
206157	2234524	The prime minister is to meet with several Security Council members.	The prime minister is to meet with several Security Council members.	106168324	1474638906800	1474638906904	BKSP	8
206157	2234524	The prime minister is to meet with several Security Council members.	The prime minister is to meet with several Security Council members.	106168331	1474638907144	1474638907288	b	66
206157	2234524	The prime minister is to meet with several Security Council members.	The prime minister is to meet with several Security Council members.	106168408	1474638907296	1474638907592	e	69
206157	2234524	The prime minister is to meet with several Security Council members.	The prime minister is to meet with several Security Council members.	106168411	1474638907480	1474638907616	r	82
206157	2234524	The prime minister is to meet with several Security Council members.	The prime minister is to meet with several Security Council members.	106168420	1474638907720	1474638907840	s	83
206157	2234524	The prime minister is to meet with several Security Council members.	The prime minister is to meet with several Security Council members.	106168425	1474638908008	1474638908120	.	190
206157	2234575	Once you do, you can never go back.	Once you do, you can never go back.	106168644	1474638910328	1474638910616	SHIFT	16
206157	2234575	Once you do, you can never go back.	Once you do, you can never go back.	106168647	1474638910616	1474638910769	O	79
206157	2234575	Once you do, you can never go back.	Once you do, you can never go back.	106168650	1474638910752	1474638910888	n	78
206157	2234575	Once you do, you can never go back.	Once you do, you can never go back.	106168652	1474638910920	1474638910952	e	69
206157	2234575	Once you do, you can never go back.	Once you do, you can never go back.	106168653	1474638911360	1474638911488	c	67
206157	2234575	Once you do, you can never go back.	Once you do, you can never go back.	106168655	1474638911424	1474638911528	BKSP	8
206157	2234575	Once you do, you can never go back.	Once you do, you can never go back.	106168656	1474638911552	1474638911624	e	69
206157	2234575	Once you do, you can never go back.	Once you do, you can never go back.	106168805	1474638911680	1474638911784	BKSP	8
206157	2234575	Once you do, you can never go back.	Once you do, you can never go back.	106168817	1474638911840	1474638911976	c	67
206157	2234575	Once you do, you can never go back.	Once you do, you can never go back.	106168812	1474638911896	1474638911952	BKSP	8
206157	2234575	Once you do, you can never go back.	Once you do, you can never go back.	106168823	1474638912040	1474638912136	BKSP	8
206157	2234575	Once you do, you can never go back.	Once you do, you can never go back.	106168827	1474638912232	1474638912312	c	8
206157	2234575	Once you do, you can never go back.	Once you do, you can never go back.	106168831	1474638912336	1474638912472	e	69
206157	2234575	Once you do, you can never go back.	Once you do, you can never go back.	106168835	1474638912784	1474638912856	BKSP	8
206157	2234575	Once you do, you can never go back.	Once you do, you can never go back.	106168838	1474638912944	1474638913048	BKSP	8
206157	2234575	Once you do, you can never go back.	Once you do, you can never go back.	106168842	1474638913232	1474638913328	n	78
206157	2234575	Once you do, you can never go back.	Once you do, you can never go back.	106168902	1474638913304	1474638913417	c	67
206157	2234575	Once you do, you can never go back.	Once you do, you can never go back.	106168907	1474638913400	1474638913560	e	69
206157	2234575	Once you do, you can never go back.	Once you do, you can never go back.	106168914	1474638913520	1474638913664	 	32
206157	2234575	Once you do, you can never go back.	Once you do, you can never go back.	106168921	1474638913680	1474638913777	t	84
206157	2234575	Once you do, you can never go back.	Once you do, you can never go back.	106168926	1474638914128	1474638914224	BKSP	8
206157	2234575	Once you do, you can never go back.	Once you do, you can never go back.	106168930	1474638914192	1474638914280	y	89
206157	2234575	Once you do, you can never go back.	Once you do, you can never go back.	106168933	1474638914360	1474638914480	o	79
206157	2234575	Once you do, you can never go back.	Once you do, you can never go back.	106168955	1474638914481	1474638914616	u	85
206157	2234575	Once you do, you can never go back.	Once you do, you can never go back.	106168958	1474638914672	1474638914792	 	32
206157	2234575	Once you do, you can never go back.	Once you do, you can never go back.	106168962	1474638914808	1474638914912	d	68
206157	2234575	Once you do, you can never go back.	Once you do, you can never go back.	106168965	1474638914888	1474638915040	o	79
206157	2234575	Once you do, you can never go back.	Once you do, you can never go back.	106168969	1474638915048	1474638915144	 	32
206157	2234575	Once you do, you can never go back.	Once you do, you can never go back.	106169065	1474638915336	1474638915360	,	188
206157	2234575	Once you do, you can never go back.	Once you do, you can never go back.	106169068	1474638915520	1474638915592	BKSP	8
206157	2234575	Once you do, you can never go back.	Once you do, you can never go back.	106169071	1474638915832	1474638915896	BKSP	8
206157	2234575	Once you do, you can never go back.	Once you do, you can never go back.	106169075	1474638916216	1474638916344	,	188
206157	2234575	Once you do, you can never go back.	Once you do, you can never go back.	106169077	1474638916400	1474638916536	 	32
206157	2234575	Once you do, you can never go back.	Once you do, you can never go back.	106169080	1474638916536	1474638916656	y	89
206157	2234575	Once you do, you can never go back.	Once you do, you can never go back.	106169174	1474638916608	1474638916784	o	79
206157	2234575	Once you do, you can never go back.	Once you do, you can never go back.	106169176	1474638916776	1474638916904	u	85
206157	2234575	Once you do, you can never go back.	Once you do, you can never go back.	106169179	1474638917136	1474638917248	 	32
206157	2234575	Once you do, you can never go back.	Once you do, you can never go back.	106169185	1474638917456	1474638917616	c	67
206157	2234575	Once you do, you can never go back.	Once you do, you can never go back.	106169190	1474638917576	1474638917688	a	65
206157	2234575	Once you do, you can never go back.	Once you do, you can never go back.	106169195	1474638917696	1474638917840	n	78
206157	2234575	Once you do, you can never go back.	Once you do, you can never go back.	106169265	1474638917880	1474638917992	 	32
206157	2234575	Once you do, you can never go back.	Once you do, you can never go back.	106169271	1474638918144	1474638918256	n	78
206157	2234575	Once you do, you can never go back.	Once you do, you can never go back.	106169279	1474638918264	1474638918384	e	69
206157	2234575	Once you do, you can never go back.	Once you do, you can never go back.	106169292	1474638918576	1474638918680	v	86
206157	2234575	Once you do, you can never go back.	Once you do, you can never go back.	106169304	1474638918704	1474638918888	e	69
206157	2234575	Once you do, you can never go back.	Once you do, you can never go back.	106169417	1474638918832	1474638918984	r	82
206157	2234575	Once you do, you can never go back.	Once you do, you can never go back.	106169425	1474638919072	1474638919200	 	32
206157	2234575	Once you do, you can never go back.	Once you do, you can never go back.	106169430	1474638919272	1474638919424	h	72
206157	2234575	Once you do, you can never go back.	Once you do, you can never go back.	106169434	1474638919488	1474638919624	o	79
206157	2234575	Once you do, you can never go back.	Once you do, you can never go back.	106169436	1474638919632	1474638919752	 	32
206157	2234575	Once you do, you can never go back.	Once you do, you can never go back.	106169439	1474638919960	1474638920040	BKSP	8
206157	2234575	Once you do, you can never go back.	Once you do, you can never go back.	106169445	1474638920136	1474638920208	BKSP	8
206157	2234575	Once you do, you can never go back.	Once you do, you can never go back.	106169450	1474638920312	1474638920400	BKSP	8
206157	2234575	Once you do, you can never go back.	Once you do, you can never go back.	106169456	1474638920440	1474638920536	g	71
206157	2234575	Once you do, you can never go back.	Once you do, you can never go back.	106169466	1474638920560	1474638920680	o	79
206157	2234575	Once you do, you can never go back.	Once you do, you can never go back.	106169468	1474638920704	1474638920792	 	32
206157	2234575	Once you do, you can never go back.	Once you do, you can never go back.	106169471	1474638920872	1474638920992	b	66
206157	2234575	Once you do, you can never go back.	Once you do, you can never go back.	106169473	1474638920984	1474638921120	a	65
206157	2234575	Once you do, you can never go back.	Once you do, you can never go back.	106169477	1474638921232	1474638921288	v	86
206157	2234575	Once you do, you can never go back.	Once you do, you can never go back.	106169555	1474638921376	1474638921480	k	75
206157	2234575	Once you do, you can never go back.	Once you do, you can never go back.	106169559	1474638921648	1474638921728	BKSP	8
206157	2234575	Once you do, you can never go back.	Once you do, you can never go back.	106169564	1474638921808	1474638921905	BKSP	8
206157	2234575	Once you do, you can never go back.	Once you do, you can never go back.	106169569	1474638921888	1474638921992	c	67
206157	2234575	Once you do, you can never go back.	Once you do, you can never go back.	106169574	1474638922032	1474638922096	k	75
206157	2234575	Once you do, you can never go back.	Once you do, you can never go back.	106169581	1474638922272	1474638922384	.	190
206157	2234605	On Friday the competition proper gets under way.	On Friday the competition proper gets under way.	106169748	1474638923656	1474638924440	SHIFT	16
206157	2234605	On Friday the competition proper gets under way.	On Friday the competition proper gets under way.	106169750	1474638924440	1474638924576	O	79
206157	2234605	On Friday the competition proper gets under way.	On Friday the competition proper gets under way.	106169753	1474638924584	1474638924696	n	78
206157	2234605	On Friday the competition proper gets under way.	On Friday the competition proper gets under way.	106169758	1474638924744	1474638924904	 	32
206157	2234605	On Friday the competition proper gets under way.	On Friday the competition proper gets under way.	106169762	1474638924888	1474638924904	SHIFT	16
206157	2234605	On Friday the competition proper gets under way.	On Friday the competition proper gets under way.	106169766	1474638925056	1474638925176	f	70
206157	2234605	On Friday the competition proper gets under way.	On Friday the competition proper gets under way.	106169770	1474638925208	1474638925360	i	73
206157	2234605	On Friday the competition proper gets under way.	On Friday the competition proper gets under way.	106169958	1474638925528	1474638925664	d	68
206157	2234605	On Friday the competition proper gets under way.	On Friday the competition proper gets under way.	106169962	1474638925808	1474638925952	a	65
206157	2234605	On Friday the competition proper gets under way.	On Friday the competition proper gets under way.	106169968	1474638926112	1474638926160	t	84
206157	2234605	On Friday the competition proper gets under way.	On Friday the competition proper gets under way.	106169971	1474638926584	1474638926664	BKSP	8
206157	2234605	On Friday the competition proper gets under way.	On Friday the competition proper gets under way.	106169977	1474638926760	1474638926856	BKSP	8
206157	2234605	On Friday the competition proper gets under way.	On Friday the competition proper gets under way.	106169982	1474638926960	1474638927016	BKSP	8
206157	2234605	On Friday the competition proper gets under way.	On Friday the competition proper gets under way.	106169989	1474638927128	1474638927240	BKSP	8
206157	2234605	On Friday the competition proper gets under way.	On Friday the competition proper gets under way.	106169995	1474638927328	1474638927455	BKSP	8
206157	2234605	On Friday the competition proper gets under way.	On Friday the competition proper gets under way.	106170006	1474638927384	1474638927543	SHIFT	16
206157	2234605	On Friday the competition proper gets under way.	On Friday the competition proper gets under way.	106170013	1474638927448	1474638927615	F	70
206157	2234605	On Friday the competition proper gets under way.	On Friday the competition proper gets under way.	106170021	1474638928136	1474638928239	t	84
206157	2234605	On Friday the competition proper gets under way.	On Friday the competition proper gets under way.	106170060	1474638928248	1474638928351	i	73
206157	2234605	On Friday the competition proper gets under way.	On Friday the competition proper gets under way.	106170064	1474638928528	1474638928615	BKSP	8
206157	2234605	On Friday the competition proper gets under way.	On Friday the competition proper gets under way.	106170069	1474638928704	1474638928807	BKSP	8
206157	2234605	On Friday the competition proper gets under way.	On Friday the competition proper gets under way.	106170077	1474638928800	1474638928879	r	82
206157	2234605	On Friday the competition proper gets under way.	On Friday the competition proper gets under way.	106170081	1474638928880	1474638929000	i	73
206157	2234605	On Friday the competition proper gets under way.	On Friday the competition proper gets under way.	106170083	1474638929136	1474638929247	d	68
206157	2234605	On Friday the competition proper gets under way.	On Friday the competition proper gets under way.	106170086	1474638929304	1474638929439	a	65
206157	2234605	On Friday the competition proper gets under way.	On Friday the competition proper gets under way.	106170106	1474638929495	1474638929663	y	89
206157	2234605	On Friday the competition proper gets under way.	On Friday the competition proper gets under way.	106170110	1474638929671	1474638929808	 	32
206157	2234605	On Friday the competition proper gets under way.	On Friday the competition proper gets under way.	106170116	1474638929800	1474638929943	t	84
206157	2234605	On Friday the competition proper gets under way.	On Friday the competition proper gets under way.	106170123	1474638929936	1474638930135	h	72
206157	2234605	On Friday the competition proper gets under way.	On Friday the competition proper gets under way.	106170170	1474638930111	1474638930183	e	69
206157	2234605	On Friday the competition proper gets under way.	On Friday the competition proper gets under way.	106170175	1474638930144	1474638930295	 	32
206157	2234605	On Friday the competition proper gets under way.	On Friday the competition proper gets under way.	106170179	1474638930584	1474638930727	c	67
206157	2234605	On Friday the competition proper gets under way.	On Friday the competition proper gets under way.	106170183	1474638930663	1474638930855	o	79
206157	2234605	On Friday the competition proper gets under way.	On Friday the competition proper gets under way.	106170186	1474638930871	1474638931007	m	77
206157	2234605	On Friday the competition proper gets under way.	On Friday the competition proper gets under way.	106170190	1474638931167	1474638931303	[	219
206157	2234605	On Friday the competition proper gets under way.	On Friday the competition proper gets under way.	106170462	1474638931367	1474638931503	r	82
206157	2234605	On Friday the competition proper gets under way.	On Friday the competition proper gets under way.	106170468	1474638931801	1474638931871	BKSP	8
206157	2234605	On Friday the competition proper gets under way.	On Friday the competition proper gets under way.	106170474	1474638931983	1474638932071	BKSP	8
206157	2234605	On Friday the competition proper gets under way.	On Friday the competition proper gets under way.	106170477	1474638932255	1474638932399	p	80
206157	2234605	On Friday the competition proper gets under way.	On Friday the competition proper gets under way.	106170481	1474638932407	1474638932495	r	82
206157	2234605	On Friday the competition proper gets under way.	On Friday the competition proper gets under way.	106170487	1474638932999	1474638933071	BKSP	8
206157	2234605	On Friday the competition proper gets under way.	On Friday the competition proper gets under way.	106170496	1474638933167	1474638933279	BKSP	8
206157	2234605	On Friday the competition proper gets under way.	On Friday the competition proper gets under way.	106170502	1474638934407	1474638934583	p	80
206157	2234605	On Friday the competition proper gets under way.	On Friday the competition proper gets under way.	106170619	1474638934543	1474638934655	r	82
206157	2234605	On Friday the competition proper gets under way.	On Friday the competition proper gets under way.	106170623	1474638934663	1474638934799	e	69
206157	2234605	On Friday the competition proper gets under way.	On Friday the competition proper gets under way.	106170629	1474638934823	1474638934879	t	84
206157	2234605	On Friday the competition proper gets under way.	On Friday the competition proper gets under way.	106170638	1474638934951	1474638935079	i	73
206157	2234605	On Friday the competition proper gets under way.	On Friday the competition proper gets under way.	106170648	1474638935183	1474638935232	o	79
206157	2234605	On Friday the competition proper gets under way.	On Friday the competition proper gets under way.	106170659	1474638935535	1474638935607	BKSP	8
206157	2234605	On Friday the competition proper gets under way.	On Friday the competition proper gets under way.	106170668	1474638935703	1474638935775	BKSP	8
206157	2234605	On Friday the competition proper gets under way.	On Friday the competition proper gets under way.	106170676	1474638935887	1474638935951	BKSP	8
206157	2234605	On Friday the competition proper gets under way.	On Friday the competition proper gets under way.	106170683	1474638936063	1474638936127	BKSP	8
206157	2234605	On Friday the competition proper gets under way.	On Friday the competition proper gets under way.	106170691	1474638936231	1474638936351	BKSP	8
206157	2234605	On Friday the competition proper gets under way.	On Friday the competition proper gets under way.	106170699	1474638936543	1474638936695	e	69
206157	2234605	On Friday the competition proper gets under way.	On Friday the competition proper gets under way.	106170725	1474638936711	1474638936839	t	84
206157	2234605	On Friday the competition proper gets under way.	On Friday the competition proper gets under way.	106170730	1474638936871	1474638936959	i	73
206157	2234605	On Friday the competition proper gets under way.	On Friday the competition proper gets under way.	106170737	1474638937335	1474638937423	t	84
206157	2234605	On Friday the competition proper gets under way.	On Friday the competition proper gets under way.	106170747	1474638937431	1474638937647	i	73
206157	2234605	On Friday the competition proper gets under way.	On Friday the competition proper gets under way.	106170884	1474638937599	1474638937760	o	79
206157	2234605	On Friday the competition proper gets under way.	On Friday the competition proper gets under way.	106170890	1474638937743	1474638937895	n	78
206157	2234605	On Friday the competition proper gets under way.	On Friday the competition proper gets under way.	106170897	1474638937951	1474638938095	 	32
206157	2234605	On Friday the competition proper gets under way.	On Friday the competition proper gets under way.	106170902	1474638938167	1474638938287	p	80
206157	2234605	On Friday the competition proper gets under way.	On Friday the competition proper gets under way.	106170906	1474638938535	1474638938567	t	84
206157	2234605	On Friday the competition proper gets under way.	On Friday the competition proper gets under way.	106170910	1474638938927	1474638938983	BKSP	8
206157	2234605	On Friday the competition proper gets under way.	On Friday the competition proper gets under way.	106170918	1474638939111	1474638939231	r	82
206157	2234605	On Friday the competition proper gets under way.	On Friday the competition proper gets under way.	106170975	1474638939207	1474638939279	o	79
206157	2234605	On Friday the competition proper gets under way.	On Friday the competition proper gets under way.	106170980	1474638939567	1474638939647	p	80
206157	2234605	On Friday the competition proper gets under way.	On Friday the competition proper gets under way.	106170986	1474638939823	1474638939959	e	69
206157	2234605	On Friday the competition proper gets under way.	On Friday the competition proper gets under way.	106170993	1474638939999	1474638940143	r	82
206157	2234605	On Friday the competition proper gets under way.	On Friday the competition proper gets under way.	106170999	1474638940191	1474638940319	 	32
206157	2234605	On Friday the competition proper gets under way.	On Friday the competition proper gets under way.	106171005	1474638940599	1474638940759	g	71
206157	2234605	On Friday the competition proper gets under way.	On Friday the competition proper gets under way.	106171062	1474638940833	1474638940999	e	69
206157	2234605	On Friday the competition proper gets under way.	On Friday the competition proper gets under way.	106171064	1474638940975	1474638941119	t	84
206157	2234605	On Friday the competition proper gets under way.	On Friday the competition proper gets under way.	106171068	1474638941311	1474638941463	s	83
206157	2234605	On Friday the competition proper gets under way.	On Friday the competition proper gets under way.	106171072	1474638941463	1474638941559	 	32
206157	2234605	On Friday the competition proper gets under way.	On Friday the competition proper gets under way.	106171076	1474638941783	1474638941911	u	85
206157	2234605	On Friday the competition proper gets under way.	On Friday the competition proper gets under way.	106171149	1474638942087	1474638942215	n	78
206157	2234605	On Friday the competition proper gets under way.	On Friday the competition proper gets under way.	106171153	1474638942287	1474638942399	d	68
206157	2234605	On Friday the competition proper gets under way.	On Friday the competition proper gets under way.	106171162	1474638942519	1474638942655	e	69
206157	2234605	On Friday the competition proper gets under way.	On Friday the competition proper gets under way.	106171171	1474638942623	1474638942791	r	82
206157	2234605	On Friday the competition proper gets under way.	On Friday the competition proper gets under way.	106171180	1474638942847	1474638942975	 	32
206157	2234605	On Friday the competition proper gets under way.	On Friday the competition proper gets under way.	106171246	1474638943039	1474638943159	w	87
206157	2234605	On Friday the competition proper gets under way.	On Friday the competition proper gets under way.	106171248	1474638943223	1474638943327	a	65
206157	2234605	On Friday the competition proper gets under way.	On Friday the competition proper gets under way.	106171250	1474638943319	1474638943455	y	89
206157	2234605	On Friday the competition proper gets under way.	On Friday the competition proper gets under way.	106171258	1474638943735	1474638943807	.	190
206157	2234633	Please call me if you see any problems.	Please call me if you see any problems.	106171504	1474638945680	1474638946144	SHIFT	16
206157	2234633	Please call me if you see any problems.	Please call me if you see any problems.	106171511	1474638946143	1474638946287	P	80
206157	2234633	Please call me if you see any problems.	Please call me if you see any problems.	106171517	1474638946455	1474638946591	l	76
206157	2234633	Please call me if you see any problems.	Please call me if you see any problems.	106171521	1474638947007	1474638947135	e	69
206157	2234633	Please call me if you see any problems.	Please call me if you see any problems.	106171531	1474638947183	1474638947359	a	65
206157	2234633	Please call me if you see any problems.	Please call me if you see any problems.	106171535	1474638947431	1474638947535	d	68
206157	2234633	Please call me if you see any problems.	Please call me if you see any problems.	106171638	1474638947639	1474638947775	e	69
206157	2234633	Please call me if you see any problems.	Please call me if you see any problems.	106171640	1474638947855	1474638947999	 	32
206157	2234633	Please call me if you see any problems.	Please call me if you see any problems.	106171642	1474638948271	1474638948359	BKSP	8
206157	2234633	Please call me if you see any problems.	Please call me if you see any problems.	106171645	1474638948479	1474638948527	BKSP	8
206157	2234633	Please call me if you see any problems.	Please call me if you see any problems.	106171649	1474638948647	1474638948767	BKSP	8
206157	2234633	Please call me if you see any problems.	Please call me if you see any problems.	106171655	1474638948831	1474638949031	s	83
206157	2234633	Please call me if you see any problems.	Please call me if you see any problems.	106171662	1474638948967	1474638949095	e	69
206157	2234633	Please call me if you see any problems.	Please call me if you see any problems.	106171670	1474638949159	1474638949295	 	32
206157	2234633	Please call me if you see any problems.	Please call me if you see any problems.	106171686	1474638949375	1474638949535	c	67
206157	2234633	Please call me if you see any problems.	Please call me if you see any problems.	106171696	1474638949463	1474638949655	a	65
206157	2234633	Please call me if you see any problems.	Please call me if you see any problems.	106171692	1474638949591	1474638949640	l	76
206157	2234633	Please call me if you see any problems.	Please call me if you see any problems.	106171700	1474638949735	1474638949839	l	76
206157	2234633	Please call me if you see any problems.	Please call me if you see any problems.	106171740	1474638949831	1474638949951	 	32
206157	2234633	Please call me if you see any problems.	Please call me if you see any problems.	106171745	1474638949991	1474638950135	m	77
206157	2234633	Please call me if you see any problems.	Please call me if you see any problems.	106171755	1474638950039	1474638950191	e	69
206157	2234633	Please call me if you see any problems.	Please call me if you see any problems.	106171763	1474638950231	1474638950399	 	32
206157	2234633	Please call me if you see any problems.	Please call me if you see any problems.	106171772	1474638950415	1474638950583	i	73
206157	2234633	Please call me if you see any problems.	Please call me if you see any problems.	106171876	1474638950559	1474638950703	g	71
206157	2234633	Please call me if you see any problems.	Please call me if you see any problems.	106171881	1474638950735	1474638950927	 	32
206157	2234633	Please call me if you see any problems.	Please call me if you see any problems.	106171887	1474638951199	1474638951287	BKSP	8
206157	2234633	Please call me if you see any problems.	Please call me if you see any problems.	106171893	1474638951383	1474638951487	f	8
206157	2234633	Please call me if you see any problems.	Please call me if you see any problems.	106171901	1474638951927	1474638952031	 	32
206157	2234633	Please call me if you see any problems.	Please call me if you see any problems.	106171907	1474638952103	1474638952199	u	85
206157	2234633	Please call me if you see any problems.	Please call me if you see any problems.	106171912	1474638952215	1474638952351	o	79
206157	2234633	Please call me if you see any problems.	Please call me if you see any problems.	106171996	1474638952335	1474638952487	u	85
206157	2234633	Please call me if you see any problems.	Please call me if you see any problems.	106172000	1474638952655	1474638952735	BKSP	8
206157	2234633	Please call me if you see any problems.	Please call me if you see any problems.	106172004	1474638952831	1474638952911	BKSP	8
206157	2234633	Please call me if you see any problems.	Please call me if you see any problems.	106172010	1474638953007	1474638953103	BKSP	8
206157	2234633	Please call me if you see any problems.	Please call me if you see any problems.	106172014	1474638953127	1474638953199	y	89
206157	2234633	Please call me if you see any problems.	Please call me if you see any problems.	106172021	1474638953263	1474638953351	o	80
206157	2234633	Please call me if you see any problems.	Please call me if you see any problems.	106172028	1474638953383	1474638953519	u	85
206157	2234633	Please call me if you see any problems.	Please call me if you see any problems.	106172036	1474638953767	1474638953839	BKSP	8
206157	2234633	Please call me if you see any problems.	Please call me if you see any problems.	106172041	1474638953943	1474638954031	BKSP	8
206157	2234633	Please call me if you see any problems.	Please call me if you see any problems.	106172046	1474638954127	1474638954199	BKSP	8
206157	2234633	Please call me if you see any problems.	Please call me if you see any problems.	106172055	1474638954359	1474638954495	o	79
206157	2234633	Please call me if you see any problems.	Please call me if you see any problems.	106172072	1474638954503	1474638954639	u	85
206157	2234633	Please call me if you see any problems.	Please call me if you see any problems.	106172085	1474638954679	1474638954831	 	32
206157	2234633	Please call me if you see any problems.	Please call me if you see any problems.	106172079	1474638954711	1474638954783	s	83
206157	2234633	Please call me if you see any problems.	Please call me if you see any problems.	106172092	1474638954855	1474638954919	s	83
206157	2234633	Please call me if you see any problems.	Please call me if you see any problems.	106172100	1474638955191	1474638955255	e	69
206157	2234633	Please call me if you see any problems.	Please call me if you see any problems.	106172142	1474638955359	1474638955455	BKSP	8
206157	2234633	Please call me if you see any problems.	Please call me if you see any problems.	106172146	1474638955535	1474638955631	BKSP	8
206157	2234633	Please call me if you see any problems.	Please call me if you see any problems.	106172153	1474638955655	1474638955727	e	69
206157	2234633	Please call me if you see any problems.	Please call me if you see any problems.	106172156	1474638955823	1474638955911	e	69
206157	2234633	Please call me if you see any problems.	Please call me if you see any problems.	106172161	1474638955935	1474638956055	 	32
206157	2234633	Please call me if you see any problems.	Please call me if you see any problems.	106172167	1474638956119	1474638956159	s	83
206157	2234633	Please call me if you see any problems.	Please call me if you see any problems.	106172269	1474638956143	1474638956263	a	65
206157	2234633	Please call me if you see any problems.	Please call me if you see any problems.	106172272	1474638956303	1474638956439	n	78
206157	2234633	Please call me if you see any problems.	Please call me if you see any problems.	106172278	1474638956735	1474638956823	BKSP	8
206157	2234633	Please call me if you see any problems.	Please call me if you see any problems.	106172281	1474638956911	1474638956999	BKSP	8
206157	2234633	Please call me if you see any problems.	Please call me if you see any problems.	106172287	1474638957103	1474638957207	BKSP	8
206157	2234633	Please call me if you see any problems.	Please call me if you see any problems.	106172291	1474638957231	1474638957375	a	65
206157	2234633	Please call me if you see any problems.	Please call me if you see any problems.	106172294	1474638957383	1474638957519	y	89
206157	2234633	Please call me if you see any problems.	Please call me if you see any problems.	106172300	1474638957415	1474638957535	n	78
206157	2234633	Please call me if you see any problems.	Please call me if you see any problems.	106172311	1474638957759	1474638957799	 	32
206157	2234633	Please call me if you see any problems.	Please call me if you see any problems.	106172412	1474638957951	1474638958039	BKSP	8
206157	2234633	Please call me if you see any problems.	Please call me if you see any problems.	106172417	1474638958127	1474638958215	BKSP	8
206157	2234633	Please call me if you see any problems.	Please call me if you see any problems.	106172426	1474638958303	1474638958407	BKSP	8
206157	2234633	Please call me if you see any problems.	Please call me if you see any problems.	106172435	1474638958527	1474638958647	n	78
206157	2234633	Please call me if you see any problems.	Please call me if you see any problems.	106172441	1474638958639	1474638958775	y	89
206157	2234633	Please call me if you see any problems.	Please call me if you see any problems.	106172445	1474638958767	1474638958855	 	32
206157	2234633	Please call me if you see any problems.	Please call me if you see any problems.	106172450	1474638958887	1474638959039	p	80
206157	2234633	Please call me if you see any problems.	Please call me if you see any problems.	106172455	1474638959127	1474638959151	t	82
206157	2234633	Please call me if you see any problems.	Please call me if you see any problems.	106172577	1474638959647	1474638959703	=	8
206157	2234633	Please call me if you see any problems.	Please call me if you see any problems.	106172583	1474638959839	1474638959927	BKSP	8
206157	2234633	Please call me if you see any problems.	Please call me if you see any problems.	106172588	1474638960223	1474638960327	o	79
206157	2234633	Please call me if you see any problems.	Please call me if you see any problems.	106172590	1474638960407	1474638960527	b	66
206157	2234633	Please call me if you see any problems.	Please call me if you see any problems.	106172594	1474638960647	1474638960783	l	76
206157	2234633	Please call me if you see any problems.	Please call me if you see any problems.	106172693	1474638960927	1474638961039	e	77
206157	2234633	Please call me if you see any problems.	Please call me if you see any problems.	106172695	1474638961415	1474638961479	BKSP	8
206157	2234633	Please call me if you see any problems.	Please call me if you see any problems.	106172699	1474638961567	1474638961639	BKSP	8
206157	2234633	Please call me if you see any problems.	Please call me if you see any problems.	106172705	1474638961679	1474638961767	e	69
206157	2234633	Please call me if you see any problems.	Please call me if you see any problems.	106172712	1474638961791	1474638961887	m	77
206157	2234633	Please call me if you see any problems.	Please call me if you see any problems.	106172718	1474638961999	1474638962119	s	83
206157	2234633	Please call me if you see any problems.	Please call me if you see any problems.	106172725	1474638962311	1474638962407	.	190
206157	2234666	However, he's still expected to start in the 49ers next game on Oct.	However, he's still expected to start in the 49ers next game on Oct.	106172944	1474638964271	1474638964783	SHIFT	16
206157	2234666	However, he's still expected to start in the 49ers next game on Oct.	However, he's still expected to start in the 49ers next game on Oct.	106172951	1474638964783	1474638964903	H	72
206157	2234666	However, he's still expected to start in the 49ers next game on Oct.	However, he's still expected to start in the 49ers next game on Oct.	106172960	1474638964919	1474638965095	o	79
206157	2234666	However, he's still expected to start in the 49ers next game on Oct.	However, he's still expected to start in the 49ers next game on Oct.	106172966	1474638965007	1474638965159	w	87
206157	2234666	However, he's still expected to start in the 49ers next game on Oct.	However, he's still expected to start in the 49ers next game on Oct.	106172973	1474638965527	1474638965663	e	69
206157	2234666	However, he's still expected to start in the 49ers next game on Oct.	However, he's still expected to start in the 49ers next game on Oct.	106172979	1474638966031	1474638966135	v	86
206157	2234666	However, he's still expected to start in the 49ers next game on Oct.	However, he's still expected to start in the 49ers next game on Oct.	106173077	1474638966199	1474638966375	e	69
206157	2234666	However, he's still expected to start in the 49ers next game on Oct.	However, he's still expected to start in the 49ers next game on Oct.	106173080	1474638966391	1474638966535	r	82
206157	2234666	However, he's still expected to start in the 49ers next game on Oct.	However, he's still expected to start in the 49ers next game on Oct.	106173081	1474638966689	1474638966823	,	188
206157	2234666	However, he's still expected to start in the 49ers next game on Oct.	However, he's still expected to start in the 49ers next game on Oct.	106173085	1474638966855	1474638966951	 	32
206157	2234666	However, he's still expected to start in the 49ers next game on Oct.	However, he's still expected to start in the 49ers next game on Oct.	106173089	1474638966991	1474638967199	h	72
206157	2234666	However, he's still expected to start in the 49ers next game on Oct.	However, he's still expected to start in the 49ers next game on Oct.	106173230	1474638967119	1474638967255	e	69
206157	2234666	However, he's still expected to start in the 49ers next game on Oct.	However, he's still expected to start in the 49ers next game on Oct.	106173236	1474638967287	1474638967431	 	32
206157	2234666	However, he's still expected to start in the 49ers next game on Oct.	However, he's still expected to start in the 49ers next game on Oct.	106173244	1474638967695	1474638967775	BKSP	8
206157	2234666	However, he's still expected to start in the 49ers next game on Oct.	However, he's still expected to start in the 49ers next game on Oct.	106173251	1474638968055	1474638968167	'	222
206157	2234666	However, he's still expected to start in the 49ers next game on Oct.	However, he's still expected to start in the 49ers next game on Oct.	106173257	1474638968175	1474638968255	s	83
206157	2234666	However, he's still expected to start in the 49ers next game on Oct.	However, he's still expected to start in the 49ers next game on Oct.	106173262	1474638968311	1474638968479	 	32
206157	2234666	However, he's still expected to start in the 49ers next game on Oct.	However, he's still expected to start in the 49ers next game on Oct.	106173265	1474638968639	1474638968823	s	83
206157	2234666	However, he's still expected to start in the 49ers next game on Oct.	However, he's still expected to start in the 49ers next game on Oct.	106173315	1474638968991	1474638969151	t	84
206157	2234666	However, he's still expected to start in the 49ers next game on Oct.	However, he's still expected to start in the 49ers next game on Oct.	106173323	1474638969079	1474638969183	i	73
206157	2234666	However, he's still expected to start in the 49ers next game on Oct.	However, he's still expected to start in the 49ers next game on Oct.	106173329	1474638969295	1474638969399	l	76
206157	2234666	However, he's still expected to start in the 49ers next game on Oct.	However, he's still expected to start in the 49ers next game on Oct.	106173335	1474638969471	1474638969575	l	76
206157	2234666	However, he's still expected to start in the 49ers next game on Oct.	However, he's still expected to start in the 49ers next game on Oct.	106173427	1474638969559	1474638969711	 	32
206157	2234666	However, he's still expected to start in the 49ers next game on Oct.	However, he's still expected to start in the 49ers next game on Oct.	106173429	1474638969735	1474638969895	e	69
206157	2234666	However, he's still expected to start in the 49ers next game on Oct.	However, he's still expected to start in the 49ers next game on Oct.	106173434	1474638970031	1474638970216	c	67
206157	2234666	However, he's still expected to start in the 49ers next game on Oct.	However, he's still expected to start in the 49ers next game on Oct.	106173436	1474638970199	1474638970311	p	80
206157	2234666	However, he's still expected to start in the 49ers next game on Oct.	However, he's still expected to start in the 49ers next game on Oct.	106173439	1474638970647	1474638970743	BKSP	8
206157	2234666	However, he's still expected to start in the 49ers next game on Oct.	However, he's still expected to start in the 49ers next game on Oct.	106173444	1474638970831	1474638970919	BKSP	8
206157	2234666	However, he's still expected to start in the 49ers next game on Oct.	However, he's still expected to start in the 49ers next game on Oct.	106173449	1474638970959	1474638971103	x	88
206157	2234666	However, he's still expected to start in the 49ers next game on Oct.	However, he's still expected to start in the 49ers next game on Oct.	106173456	1474638971199	1474638971279	[	219
206157	2234666	However, he's still expected to start in the 49ers next game on Oct.	However, he's still expected to start in the 49ers next game on Oct.	106173543	1474638971655	1474638971719	BKSP	8
206157	2234666	However, he's still expected to start in the 49ers next game on Oct.	However, he's still expected to start in the 49ers next game on Oct.	106173548	1474638971951	1474638972063	p	80
206157	2234666	However, he's still expected to start in the 49ers next game on Oct.	However, he's still expected to start in the 49ers next game on Oct.	106173553	1474638972023	1474638972167	e	69
206157	2234666	However, he's still expected to start in the 49ers next game on Oct.	However, he's still expected to start in the 49ers next game on Oct.	106173561	1474638972311	1474638972391	x	88
206157	2234666	However, he's still expected to start in the 49ers next game on Oct.	However, he's still expected to start in the 49ers next game on Oct.	106173570	1474638972615	1474638972728	BKSP	8
206157	2234666	However, he's still expected to start in the 49ers next game on Oct.	However, he's still expected to start in the 49ers next game on Oct.	106173577	1474638972711	1474638972791	c	67
206157	2234666	However, he's still expected to start in the 49ers next game on Oct.	However, he's still expected to start in the 49ers next game on Oct.	106173584	1474638972799	1474638972967	e	69
206157	2234666	However, he's still expected to start in the 49ers next game on Oct.	However, he's still expected to start in the 49ers next game on Oct.	106173631	1474638973031	1474638973119	t	84
206157	2234666	However, he's still expected to start in the 49ers next game on Oct.	However, he's still expected to start in the 49ers next game on Oct.	106173638	1474638973335	1474638973407	e	69
206157	2234666	However, he's still expected to start in the 49ers next game on Oct.	However, he's still expected to start in the 49ers next game on Oct.	106173646	1474638973519	1474638973615	d	68
206157	2234666	However, he's still expected to start in the 49ers next game on Oct.	However, he's still expected to start in the 49ers next game on Oct.	106173652	1474638973639	1474638973767	 	32
206157	2234666	However, he's still expected to start in the 49ers next game on Oct.	However, he's still expected to start in the 49ers next game on Oct.	106173660	1474638973799	1474638973927	t	84
206157	2234666	However, he's still expected to start in the 49ers next game on Oct.	However, he's still expected to start in the 49ers next game on Oct.	106173727	1474638973879	1474638973975	o	79
206157	2234666	However, he's still expected to start in the 49ers next game on Oct.	However, he's still expected to start in the 49ers next game on Oct.	106173731	1474638973991	1474638974135	 	32
206157	2234666	However, he's still expected to start in the 49ers next game on Oct.	However, he's still expected to start in the 49ers next game on Oct.	106173737	1474638974207	1474638974367	s	83
206157	2234666	However, he's still expected to start in the 49ers next game on Oct.	However, he's still expected to start in the 49ers next game on Oct.	106173742	1474638974391	1474638974543	t	84
206157	2234666	However, he's still expected to start in the 49ers next game on Oct.	However, he's still expected to start in the 49ers next game on Oct.	106173748	1474638974679	1474638974823	a	65
206157	2234666	However, he's still expected to start in the 49ers next game on Oct.	However, he's still expected to start in the 49ers next game on Oct.	106173753	1474638974831	1474638974943	r	82
206157	2234666	However, he's still expected to start in the 49ers next game on Oct.	However, he's still expected to start in the 49ers next game on Oct.	106174016	1474638975439	1474638976223	BKSP	8
206157	2234666	However, he's still expected to start in the 49ers next game on Oct.	However, he's still expected to start in the 49ers next game on Oct.	106174022	1474638976583	1474638976687	BKSP	8
206157	2234666	However, he's still expected to start in the 49ers next game on Oct.	However, he's still expected to start in the 49ers next game on Oct.	106174029	1474638976815	1474638976895	BKSP	8
206157	2234666	However, he's still expected to start in the 49ers next game on Oct.	However, he's still expected to start in the 49ers next game on Oct.	106174036	1474638976991	1474638977047	BKSP	8
206157	2234666	However, he's still expected to start in the 49ers next game on Oct.	However, he's still expected to start in the 49ers next game on Oct.	106174041	1474638977791	1474638977911	c	67
206157	2234666	However, he's still expected to start in the 49ers next game on Oct.	However, he's still expected to start in the 49ers next game on Oct.	106174048	1474638978127	1474638978279	t	84
206157	2234666	However, he's still expected to start in the 49ers next game on Oct.	However, he's still expected to start in the 49ers next game on Oct.	106174054	1474638978311	1474638978367	e	69
206157	2234666	However, he's still expected to start in the 49ers next game on Oct.	However, he's still expected to start in the 49ers next game on Oct.	106174062	1474638978495	1474638978591	d	68
206157	2234666	However, he's still expected to start in the 49ers next game on Oct.	However, he's still expected to start in the 49ers next game on Oct.	106174070	1474638978631	1474638978743	 	32
206157	2234666	However, he's still expected to start in the 49ers next game on Oct.	However, he's still expected to start in the 49ers next game on Oct.	106174159	1474638978703	1474638978823	t	84
206157	2234666	However, he's still expected to start in the 49ers next game on Oct.	However, he's still expected to start in the 49ers next game on Oct.	106174165	1474638978815	1474638978959	o	79
206157	2234666	However, he's still expected to start in the 49ers next game on Oct.	However, he's still expected to start in the 49ers next game on Oct.	106174172	1474638978903	1474638979055	 	32
206157	2234666	However, he's still expected to start in the 49ers next game on Oct.	However, he's still expected to start in the 49ers next game on Oct.	106174180	1474638979167	1474638979351	s	83
206157	2234666	However, he's still expected to start in the 49ers next game on Oct.	However, he's still expected to start in the 49ers next game on Oct.	106174187	1474638979463	1474638979591	r	82
206157	2234666	However, he's still expected to start in the 49ers next game on Oct.	However, he's still expected to start in the 49ers next game on Oct.	106174193	1474638979991	1474638980159	t	84
206157	2234666	However, he's still expected to start in the 49ers next game on Oct.	However, he's still expected to start in the 49ers next game on Oct.	106174377	1474638980023	1474638980167	BKSP	8
206157	2234666	However, he's still expected to start in the 49ers next game on Oct.	However, he's still expected to start in the 49ers next game on Oct.	106174383	1474638980127	1474638980319	a	65
206157	2234666	However, he's still expected to start in the 49ers next game on Oct.	However, he's still expected to start in the 49ers next game on Oct.	106174390	1474638980335	1474638980471	r	82
206157	2234666	However, he's still expected to start in the 49ers next game on Oct.	However, he's still expected to start in the 49ers next game on Oct.	106174395	1474638980647	1474638980743	BKSP	8
206157	2234666	However, he's still expected to start in the 49ers next game on Oct.	However, he's still expected to start in the 49ers next game on Oct.	106174404	1474638980839	1474638980943	BKSP	8
206157	2234666	However, he's still expected to start in the 49ers next game on Oct.	However, he's still expected to start in the 49ers next game on Oct.	106174411	1474638981040	1474638981144	BKSP	8
206157	2234666	However, he's still expected to start in the 49ers next game on Oct.	However, he's still expected to start in the 49ers next game on Oct.	106174415	1474638981127	1474638981343	t	84
206157	2234666	However, he's still expected to start in the 49ers next game on Oct.	However, he's still expected to start in the 49ers next game on Oct.	106174420	1474638981255	1474638981455	a	65
206157	2234666	However, he's still expected to start in the 49ers next game on Oct.	However, he's still expected to start in the 49ers next game on Oct.	106174424	1474638981487	1474638981623	r	82
206157	2234666	However, he's still expected to start in the 49ers next game on Oct.	However, he's still expected to start in the 49ers next game on Oct.	106174432	1474638981735	1474638981887	t	84
206157	2234666	However, he's still expected to start in the 49ers next game on Oct.	However, he's still expected to start in the 49ers next game on Oct.	106174437	1474638981935	1474638982063	 	32
206157	2234666	However, he's still expected to start in the 49ers next game on Oct.	However, he's still expected to start in the 49ers next game on Oct.	106174442	1474638982071	1474638982207	i	73
206157	2234666	However, he's still expected to start in the 49ers next game on Oct.	However, he's still expected to start in the 49ers next game on Oct.	106174450	1474638982271	1474638982399	n	78
206157	2234666	However, he's still expected to start in the 49ers next game on Oct.	However, he's still expected to start in the 49ers next game on Oct.	106174458	1474638982415	1474638982543	 	32
206157	2234666	However, he's still expected to start in the 49ers next game on Oct.	However, he's still expected to start in the 49ers next game on Oct.	106174630	1474638982479	1474638982719	t	84
206157	2234666	However, he's still expected to start in the 49ers next game on Oct.	However, he's still expected to start in the 49ers next game on Oct.	106174635	1474638982591	1474638982775	h	72
206157	2234666	However, he's still expected to start in the 49ers next game on Oct.	However, he's still expected to start in the 49ers next game on Oct.	106174640	1474638982687	1474638982783	e	69
206157	2234666	However, he's still expected to start in the 49ers next game on Oct.	However, he's still expected to start in the 49ers next game on Oct.	106174641	1474638982711	1474638982871	 	32
206157	2234666	However, he's still expected to start in the 49ers next game on Oct.	However, he's still expected to start in the 49ers next game on Oct.	106174646	1474638983927	1474638984031	4	52
206157	2234666	However, he's still expected to start in the 49ers next game on Oct.	However, he's still expected to start in the 49ers next game on Oct.	106174648	1474638984447	1474638984567	9	57
206157	2234666	However, he's still expected to start in the 49ers next game on Oct.	However, he's still expected to start in the 49ers next game on Oct.	106174754	1474638984839	1474638984975	e	69
206157	2234666	However, he's still expected to start in the 49ers next game on Oct.	However, he's still expected to start in the 49ers next game on Oct.	106174761	1474638984951	1474638985095	r	82
206157	2234666	However, he's still expected to start in the 49ers next game on Oct.	However, he's still expected to start in the 49ers next game on Oct.	106174766	1474638985199	1474638985311	s	83
206157	2234666	However, he's still expected to start in the 49ers next game on Oct.	However, he's still expected to start in the 49ers next game on Oct.	106174775	1474638985599	1474638985719	 	32
206157	2234666	However, he's still expected to start in the 49ers next game on Oct.	However, he's still expected to start in the 49ers next game on Oct.	106174785	1474638985895	1474638986015	n	78
206157	2234666	However, he's still expected to start in the 49ers next game on Oct.	However, he's still expected to start in the 49ers next game on Oct.	106174954	1474638985991	1474638986111	e	69
206157	2234666	However, he's still expected to start in the 49ers next game on Oct.	However, he's still expected to start in the 49ers next game on Oct.	106174956	1474638986319	1474638986391	a	65
206157	2234666	However, he's still expected to start in the 49ers next game on Oct.	However, he's still expected to start in the 49ers next game on Oct.	106174957	1474638986471	1474638986527	c	67
206157	2234666	However, he's still expected to start in the 49ers next game on Oct.	However, he's still expected to start in the 49ers next game on Oct.	106174959	1474638986791	1474638986887	BKSP	8
206157	2234666	However, he's still expected to start in the 49ers next game on Oct.	However, he's still expected to start in the 49ers next game on Oct.	106174963	1474638986975	1474638987095	BKSP	8
206157	2234666	However, he's still expected to start in the 49ers next game on Oct.	However, he's still expected to start in the 49ers next game on Oct.	106174967	1474638987023	1474638987119	x	88
206157	2234666	However, he's still expected to start in the 49ers next game on Oct.	However, he's still expected to start in the 49ers next game on Oct.	106174974	1474638987543	1474638987719	t	84
206157	2234666	However, he's still expected to start in the 49ers next game on Oct.	However, he's still expected to start in the 49ers next game on Oct.	106174978	1474638988095	1474638988215	 	32
206157	2234666	However, he's still expected to start in the 49ers next game on Oct.	However, he's still expected to start in the 49ers next game on Oct.	106175027	1474638988231	1474638988351	a	65
206157	2234666	However, he's still expected to start in the 49ers next game on Oct.	However, he's still expected to start in the 49ers next game on Oct.	106175029	1474638988287	1474638988391	h	72
206157	2234666	However, he's still expected to start in the 49ers next game on Oct.	However, he's still expected to start in the 49ers next game on Oct.	106175031	1474638988823	1474638988911	BKSP	8
206157	2234666	However, he's still expected to start in the 49ers next game on Oct.	However, he's still expected to start in the 49ers next game on Oct.	106175033	1474638988991	1474638989095	BKSP	8
206157	2234666	However, he's still expected to start in the 49ers next game on Oct.	However, he's still expected to start in the 49ers next game on Oct.	106175036	1474638989119	1474638989255	g	71
206157	2234666	However, he's still expected to start in the 49ers next game on Oct.	However, he's still expected to start in the 49ers next game on Oct.	106175039	1474638989303	1474638989415	a	65
206157	2234666	However, he's still expected to start in the 49ers next game on Oct.	However, he's still expected to start in the 49ers next game on Oct.	106175079	1474638989343	1474638989487	m	77
206157	2234666	However, he's still expected to start in the 49ers next game on Oct.	However, he's still expected to start in the 49ers next game on Oct.	106175084	1474638989591	1474638989735	e	69
206157	2234666	However, he's still expected to start in the 49ers next game on Oct.	However, he's still expected to start in the 49ers next game on Oct.	106175095	1474638989711	1474638989839	 	32
206157	2234666	However, he's still expected to start in the 49ers next game on Oct.	However, he's still expected to start in the 49ers next game on Oct.	106175101	1474638989839	1474638989983	o	79
206157	2234666	However, he's still expected to start in the 49ers next game on Oct.	However, he's still expected to start in the 49ers next game on Oct.	106175106	1474638989991	1474638990151	n	78
206157	2234666	However, he's still expected to start in the 49ers next game on Oct.	However, he's still expected to start in the 49ers next game on Oct.	106175257	1474638990135	1474638990295	 	32
206157	2234666	However, he's still expected to start in the 49ers next game on Oct.	However, he's still expected to start in the 49ers next game on Oct.	106175264	1474638990271	1474638990295	SHIFT	16
206157	2234666	However, he's still expected to start in the 49ers next game on Oct.	However, he's still expected to start in the 49ers next game on Oct.	106175273	1474638990399	1474638990455	O	16
206157	2234666	However, he's still expected to start in the 49ers next game on Oct.	However, he's still expected to start in the 49ers next game on Oct.	106175279	1474638990703	1474638990847	c	67
206157	2234666	However, he's still expected to start in the 49ers next game on Oct.	However, he's still expected to start in the 49ers next game on Oct.	106175292	1474638991167	1474638991287	t	84
206157	2234666	However, he's still expected to start in the 49ers next game on Oct.	However, he's still expected to start in the 49ers next game on Oct.	106175302	1474638991519	1474638991583	.	190
206157	2234716	A bit behind on my emails.	A bit behind on my emails.	106175564	1474638994239	1474638994463	SHIFT	16
206157	2234716	A bit behind on my emails.	A bit behind on my emails.	106175570	1474638994463	1474638994583	A	65
206157	2234716	A bit behind on my emails.	A bit behind on my emails.	106175577	1474638994551	1474638994687	 	32
206157	2234716	A bit behind on my emails.	A bit behind on my emails.	106175586	1474638994767	1474638994919	b	66
206157	2234716	A bit behind on my emails.	A bit behind on my emails.	106175595	1474638995071	1474638995175	t	84
206157	2234716	A bit behind on my emails.	A bit behind on my emails.	106175799	1474638995183	1474638995264	u	73
206157	2234716	A bit behind on my emails.	A bit behind on my emails.	106175813	1474638995559	1474638995655	BKSP	8
206157	2234716	A bit behind on my emails.	A bit behind on my emails.	106175825	1474638995743	1474638995814	BKSP	8
206157	2234716	A bit behind on my emails.	A bit behind on my emails.	106175834	1474638995919	1474638996014	BKSP	8
206157	2234716	A bit behind on my emails.	A bit behind on my emails.	106175842	1474638996182	1474638996302	u	85
206157	2234716	A bit behind on my emails.	A bit behind on my emails.	106175848	1474638996310	1474638996423	t	84
206157	2234716	A bit behind on my emails.	A bit behind on my emails.	106175853	1474638996406	1474638996502	 	32
206157	2234716	A bit behind on my emails.	A bit behind on my emails.	106175855	1474638996742	1474638996798	BKSP	8
206157	2234716	A bit behind on my emails.	A bit behind on my emails.	106175857	1474638996910	1474638996998	BKSP	8
206157	2234716	A bit behind on my emails.	A bit behind on my emails.	106175858	1474638997087	1474638997182	BKSP	8
206157	2234716	A bit behind on my emails.	A bit behind on my emails.	106175860	1474638997310	1474638997422	i	73
206157	2234716	A bit behind on my emails.	A bit behind on my emails.	106175922	1474638997414	1474638997534	t	84
206157	2234716	A bit behind on my emails.	A bit behind on my emails.	106175925	1474638997494	1474638997638	 	32
206157	2234716	A bit behind on my emails.	A bit behind on my emails.	106175930	1474638998006	1474638998094	b	66
206157	2234716	A bit behind on my emails.	A bit behind on my emails.	106175932	1474638998110	1474638998294	e	69
206157	2234716	A bit behind on my emails.	A bit behind on my emails.	106175935	1474638998326	1474638998462	h	72
206157	2234716	A bit behind on my emails.	A bit behind on my emails.	106175938	1474638998502	1474638998638	i	73
206157	2234716	A bit behind on my emails.	A bit behind on my emails.	106175980	1474638998646	1474638998790	n	78
206157	2234716	A bit behind on my emails.	A bit behind on my emails.	106175986	1474638998902	1474638999022	d	68
206157	2234716	A bit behind on my emails.	A bit behind on my emails.	106175991	1474638999150	1474638999262	 	32
206157	2234716	A bit behind on my emails.	A bit behind on my emails.	106175998	1474638999358	1474638999486	o	79
206157	2234716	A bit behind on my emails.	A bit behind on my emails.	106176072	1474638999462	1474638999598	n	78
206157	2234716	A bit behind on my emails.	A bit behind on my emails.	106176078	1474638999614	1474638999742	 	32
206157	2234716	A bit behind on my emails.	A bit behind on my emails.	106176086	1474638999822	1474638999934	m	77
206157	2234716	A bit behind on my emails.	A bit behind on my emails.	106176092	1474639000014	1474639000142	y	89
206157	2234716	A bit behind on my emails.	A bit behind on my emails.	106176098	1474639000182	1474639000302	 	32
206157	2234716	A bit behind on my emails.	A bit behind on my emails.	106176104	1474639000382	1474639000510	e	69
206157	2234716	A bit behind on my emails.	A bit behind on my emails.	106176207	1474639000622	1474639000694	n	78
206157	2234716	A bit behind on my emails.	A bit behind on my emails.	106176212	1474639001015	1474639001094	BKSP	8
206157	2234716	A bit behind on my emails.	A bit behind on my emails.	106176217	1474639001279	1474639001406	m	77
206157	2234716	A bit behind on my emails.	A bit behind on my emails.	106176222	1474639001439	1474639001582	i	65
206157	2234716	A bit behind on my emails.	A bit behind on my emails.	106176229	1474639001679	1474639001782	l	76
206157	2234716	A bit behind on my emails.	A bit behind on my emails.	106176287	1474639001830	1474639001879	d	68
206157	2234716	A bit behind on my emails.	A bit behind on my emails.	106176290	1474639002190	1474639002270	BKSP	8
206157	2234716	A bit behind on my emails.	A bit behind on my emails.	106176293	1474639002342	1474639002470	s	83
206157	2234716	A bit behind on my emails.	A bit behind on my emails.	106176298	1474639002534	1474639002638	.	190
206157	2234730	A gift isn't necessary.	A gift isn't necessary.	106176557	1474639003919	1474639004511	SHIFT	16
206157	2234730	A gift isn't necessary.	A gift isn't necessary.	106176560	1474639004510	1474639004638	A	65
206157	2234730	A gift isn't necessary.	A gift isn't necessary.	106176565	1474639004614	1474639004758	 	32
206157	2234730	A gift isn't necessary.	A gift isn't necessary.	106176569	1474639004974	1474639005102	g	71
206157	2234730	A gift isn't necessary.	A gift isn't necessary.	106176573	1474639005086	1474639005206	i	73
206157	2234730	A gift isn't necessary.	A gift isn't necessary.	106176579	1474639005630	1474639005734	f	70
206157	2234730	A gift isn't necessary.	A gift isn't necessary.	106176702	1474639006158	1474639006238	y	89
206157	2234730	A gift isn't necessary.	A gift isn't necessary.	106176709	1474639006614	1474639006726	BKSP	8
206157	2234730	A gift isn't necessary.	A gift isn't necessary.	106176715	1474639006734	1474639006838	t	84
206157	2234730	A gift isn't necessary.	A gift isn't necessary.	106176721	1474639006774	1474639006926	 	32
206157	2234730	A gift isn't necessary.	A gift isn't necessary.	106176728	1474639006927	1474639007063	i	73
206157	2234730	A gift isn't necessary.	A gift isn't necessary.	106176843	1474639007030	1474639007158	s	83
206157	2234730	A gift isn't necessary.	A gift isn't necessary.	106176844	1474639007326	1474639007414	n	78
206157	2234730	A gift isn't necessary.	A gift isn't necessary.	106176846	1474639007854	1474639007974	'	222
206157	2234730	A gift isn't necessary.	A gift isn't necessary.	106176847	1474639008198	1474639008310	t	84
206157	2234730	A gift isn't necessary.	A gift isn't necessary.	106176854	1474639008542	1474639008670	 	32
206157	2234730	A gift isn't necessary.	A gift isn't necessary.	106176859	1474639008790	1474639008894	n	78
206157	2234730	A gift isn't necessary.	A gift isn't necessary.	106177054	1474639008886	1474639008990	e	69
206157	2234730	A gift isn't necessary.	A gift isn't necessary.	106177059	1474639009334	1474639009430	v	86
206157	2234730	A gift isn't necessary.	A gift isn't necessary.	106177065	1474639009446	1474639009478	v	86
206157	2234730	A gift isn't necessary.	A gift isn't necessary.	106177072	1474639009974	1474639010102	BKSP	8
206157	2234730	A gift isn't necessary.	A gift isn't necessary.	106177076	1474639010126	1474639010246	BKSP	8
206157	2234730	A gift isn't necessary.	A gift isn't necessary.	106177079	1474639010438	1474639010590	c	67
206157	2234730	A gift isn't necessary.	A gift isn't necessary.	106177081	1474639010591	1474639010766	e	69
206157	2234730	A gift isn't necessary.	A gift isn't necessary.	106177085	1474639010902	1474639011054	s	83
206157	2234730	A gift isn't necessary.	A gift isn't necessary.	106177195	1474639011182	1474639011286	s	83
206157	2234730	A gift isn't necessary.	A gift isn't necessary.	106177197	1474639011358	1474639011518	a	65
206157	2234730	A gift isn't necessary.	A gift isn't necessary.	106177202	1474639011702	1474639011830	t	84
206157	2234730	A gift isn't necessary.	A gift isn't necessary.	106177214	1474639012150	1474639012286	BKSP	8
206157	2234730	A gift isn't necessary.	A gift isn't necessary.	106177222	1474639012238	1474639012334	r	82
206157	2234730	A gift isn't necessary.	A gift isn't necessary.	106177227	1474639012446	1474639012598	y	89
206157	2234730	A gift isn't necessary.	A gift isn't necessary.	106177361	1474639013006	1474639013094	/	191
206157	2234730	A gift isn't necessary.	A gift isn't necessary.	106177370	1474639013470	1474639013558	BKSP	8
206157	2234730	A gift isn't necessary.	A gift isn't necessary.	106177381	1474639013798	1474639013870	.	190
206157	2234752	You can explain this to me next week or over the weekend.	You can explain this to me next week or over the weekend.	106177584	1474639015622	1474639016143	SHIFT	16
206157	2234752	You can explain this to me next week or over the weekend.	You can explain this to me next week or over the weekend.	106177588	1474639016143	1474639016214	Y	89
206157	2234752	You can explain this to me next week or over the weekend.	You can explain this to me next week or over the weekend.	106177593	1474639016222	1474639016358	o	79
206157	2234752	You can explain this to me next week or over the weekend.	You can explain this to me next week or over the weekend.	106177599	1474639016334	1474639016462	u	85
206157	2234752	You can explain this to me next week or over the weekend.	You can explain this to me next week or over the weekend.	106177603	1474639016454	1474639016590	 	32
206157	2234752	You can explain this to me next week or over the weekend.	You can explain this to me next week or over the weekend.	106177695	1474639016654	1474639016751	c	86
206157	2234752	You can explain this to me next week or over the weekend.	You can explain this to me next week or over the weekend.	106177698	1474639016718	1474639016830	a	65
206157	2234752	You can explain this to me next week or over the weekend.	You can explain this to me next week or over the weekend.	106177704	1474639017150	1474639017230	BKSP	8
206157	2234752	You can explain this to me next week or over the weekend.	You can explain this to me next week or over the weekend.	106177711	1474639017350	1474639017430	BKSP	8
206157	2234752	You can explain this to me next week or over the weekend.	You can explain this to me next week or over the weekend.	106177716	1474639017510	1474639017606	BKSP	8
206157	2234752	You can explain this to me next week or over the weekend.	You can explain this to me next week or over the weekend.	106177720	1474639017614	1474639017750	c	67
206157	2234752	You can explain this to me next week or over the weekend.	You can explain this to me next week or over the weekend.	106177723	1474639017694	1474639017855	a	65
206157	2234752	You can explain this to me next week or over the weekend.	You can explain this to me next week or over the weekend.	106177728	1474639017830	1474639017958	n	78
206157	2234752	You can explain this to me next week or over the weekend.	You can explain this to me next week or over the weekend.	106177731	1474639018014	1474639018158	 	32
206157	2234752	You can explain this to me next week or over the weekend.	You can explain this to me next week or over the weekend.	106177836	1474639018486	1474639018606	e	69
206157	2234752	You can explain this to me next week or over the weekend.	You can explain this to me next week or over the weekend.	106177843	1474639019302	1474639019407	x	88
206157	2234752	You can explain this to me next week or over the weekend.	You can explain this to me next week or over the weekend.	106177853	1474639019390	1474639019510	p	80
206157	2234752	You can explain this to me next week or over the weekend.	You can explain this to me next week or over the weekend.	106177864	1474639019582	1474639019662	a	65
206157	2234752	You can explain this to me next week or over the weekend.	You can explain this to me next week or over the weekend.	106177875	1474639020062	1474639020118	BKSP	8
206157	2234752	You can explain this to me next week or over the weekend.	You can explain this to me next week or over the weekend.	106177884	1474639020310	1474639020406	l	76
206157	2234752	You can explain this to me next week or over the weekend.	You can explain this to me next week or over the weekend.	106177921	1474639020446	1474639020535	a	65
206157	2234752	You can explain this to me next week or over the weekend.	You can explain this to me next week or over the weekend.	106177923	1474639020518	1474639020686	i	73
206157	2234752	You can explain this to me next week or over the weekend.	You can explain this to me next week or over the weekend.	106177924	1474639020710	1474639020854	n	78
206157	2234752	You can explain this to me next week or over the weekend.	You can explain this to me next week or over the weekend.	106177926	1474639020918	1474639021038	 	32
206157	2234752	You can explain this to me next week or over the weekend.	You can explain this to me next week or over the weekend.	106177927	1474639021182	1474639021310	t	84
206157	2234752	You can explain this to me next week or over the weekend.	You can explain this to me next week or over the weekend.	106177982	1474639021262	1474639021358	h	72
206157	2234752	You can explain this to me next week or over the weekend.	You can explain this to me next week or over the weekend.	106177985	1474639021366	1474639021566	i	73
206157	2234752	You can explain this to me next week or over the weekend.	You can explain this to me next week or over the weekend.	106177987	1474639021446	1474639021574	s	83
206157	2234752	You can explain this to me next week or over the weekend.	You can explain this to me next week or over the weekend.	106177991	1474639021574	1474639021726	 	32
206157	2234752	You can explain this to me next week or over the weekend.	You can explain this to me next week or over the weekend.	106177995	1474639021806	1474639021926	t	84
206157	2234752	You can explain this to me next week or over the weekend.	You can explain this to me next week or over the weekend.	106177998	1474639021974	1474639022102	o	79
206157	2234752	You can explain this to me next week or over the weekend.	You can explain this to me next week or over the weekend.	106178053	1474639022094	1474639022184	 	32
206157	2234752	You can explain this to me next week or over the weekend.	You can explain this to me next week or over the weekend.	106178057	1474639022246	1474639022358	m	77
206157	2234752	You can explain this to me next week or over the weekend.	You can explain this to me next week or over the weekend.	106178062	1474639022350	1474639022510	e	69
206157	2234752	You can explain this to me next week or over the weekend.	You can explain this to me next week or over the weekend.	106178066	1474639022502	1474639022614	 	32
206157	2234752	You can explain this to me next week or over the weekend.	You can explain this to me next week or over the weekend.	106178073	1474639022678	1474639022830	n	78
206157	2234752	You can explain this to me next week or over the weekend.	You can explain this to me next week or over the weekend.	106178150	1474639022758	1474639022942	e	69
206157	2234752	You can explain this to me next week or over the weekend.	You can explain this to me next week or over the weekend.	106178156	1474639023190	1474639023286	x	88
206157	2234752	You can explain this to me next week or over the weekend.	You can explain this to me next week or over the weekend.	106178162	1474639023558	1474639023662	t	84
206157	2234752	You can explain this to me next week or over the weekend.	You can explain this to me next week or over the weekend.	106178168	1474639023782	1474639023942	 	32
206157	2234752	You can explain this to me next week or over the weekend.	You can explain this to me next week or over the weekend.	106178176	1474639023998	1474639024134	w	87
206157	2234752	You can explain this to me next week or over the weekend.	You can explain this to me next week or over the weekend.	106178183	1474639024270	1474639024374	e	69
206157	2234752	You can explain this to me next week or over the weekend.	You can explain this to me next week or over the weekend.	106178294	1474639024470	1474639024558	e	69
206157	2234752	You can explain this to me next week or over the weekend.	You can explain this to me next week or over the weekend.	106178301	1474639024654	1474639024814	k	75
206157	2234752	You can explain this to me next week or over the weekend.	You can explain this to me next week or over the weekend.	106178306	1474639024886	1474639025054	 	32
206157	2234752	You can explain this to me next week or over the weekend.	You can explain this to me next week or over the weekend.	106178314	1474639025174	1474639025262	o	79
206157	2234752	You can explain this to me next week or over the weekend.	You can explain this to me next week or over the weekend.	106178319	1474639025470	1474639025582	r	82
206157	2234752	You can explain this to me next week or over the weekend.	You can explain this to me next week or over the weekend.	106178380	1474639025590	1474639025726	 	32
206157	2234752	You can explain this to me next week or over the weekend.	You can explain this to me next week or over the weekend.	106178384	1474639025878	1474639026031	o	79
206157	2234752	You can explain this to me next week or over the weekend.	You can explain this to me next week or over the weekend.	106178389	1474639026262	1474639026390	v	86
206157	2234752	You can explain this to me next week or over the weekend.	You can explain this to me next week or over the weekend.	106178395	1474639026382	1474639026551	e	69
206157	2234752	You can explain this to me next week or over the weekend.	You can explain this to me next week or over the weekend.	106178420	1474639026518	1474639026638	r	82
206157	2234752	You can explain this to me next week or over the weekend.	You can explain this to me next week or over the weekend.	106178423	1474639026614	1474639026734	 	32
206157	2234752	You can explain this to me next week or over the weekend.	You can explain this to me next week or over the weekend.	106178428	1474639026774	1474639026894	t	84
206157	2234752	You can explain this to me next week or over the weekend.	You can explain this to me next week or over the weekend.	106178435	1474639026846	1474639026998	h	72
206157	2234752	You can explain this to me next week or over the weekend.	You can explain this to me next week or over the weekend.	106178441	1474639026974	1474639027102	e	69
206157	2234752	You can explain this to me next week or over the weekend.	You can explain this to me next week or over the weekend.	106178560	1474639027030	1474639027174	 	32
206157	2234752	You can explain this to me next week or over the weekend.	You can explain this to me next week or over the weekend.	106178566	1474639027334	1474639027438	w	87
206157	2234752	You can explain this to me next week or over the weekend.	You can explain this to me next week or over the weekend.	106178573	1474639027518	1474639027550	r	82
206157	2234752	You can explain this to me next week or over the weekend.	You can explain this to me next week or over the weekend.	106178580	1474639028214	1474639028302	BKSP	8
206157	2234752	You can explain this to me next week or over the weekend.	You can explain this to me next week or over the weekend.	106178588	1474639028366	1474639028446	e	69
206157	2234752	You can explain this to me next week or over the weekend.	You can explain this to me next week or over the weekend.	106178593	1474639028550	1474639028614	e	69
206157	2234752	You can explain this to me next week or over the weekend.	You can explain this to me next week or over the weekend.	106178603	1474639028646	1474639028774	k	75
206157	2234752	You can explain this to me next week or over the weekend.	You can explain this to me next week or over the weekend.	106178684	1474639028806	1474639028918	e	69
206157	2234752	You can explain this to me next week or over the weekend.	You can explain this to me next week or over the weekend.	106178690	1474639028942	1474639029030	m	77
206157	2234752	You can explain this to me next week or over the weekend.	You can explain this to me next week or over the weekend.	106178699	1474639029502	1474639029590	BKSP	8
206157	2234752	You can explain this to me next week or over the weekend.	You can explain this to me next week or over the weekend.	106178709	1474639029726	1474639029814	n	78
206157	2234752	You can explain this to me next week or over the weekend.	You can explain this to me next week or over the weekend.	106178715	1474639029814	1474639029902	d	68
206157	2234752	You can explain this to me next week or over the weekend.	You can explain this to me next week or over the weekend.	106178721	1474639030094	1474639030198	.	190
206157	2234776	The night promised to be long.	The night promised to be long.	106178863	1474639031934	1474639032294	SHIFT	16
206157	2234776	The night promised to be long.	The night promised to be long.	106178864	1474639032294	1474639032446	T	84
206157	2234776	The night promised to be long.	The night promised to be long.	106178865	1474639032374	1474639032534	h	72
206157	2234776	The night promised to be long.	The night promised to be long.	106178868	1474639032526	1474639032630	e	69
206157	2234776	The night promised to be long.	The night promised to be long.	106178873	1474639032574	1474639032686	 	32
206157	2234776	The night promised to be long.	The night promised to be long.	106178880	1474639032742	1474639032878	n	78
206157	2234776	The night promised to be long.	The night promised to be long.	106178914	1474639032926	1474639033063	i	73
206157	2234776	The night promised to be long.	The night promised to be long.	106178916	1474639033046	1474639033158	g	71
206157	2234776	The night promised to be long.	The night promised to be long.	106178919	1474639033182	1474639033326	h	72
206157	2234776	The night promised to be long.	The night promised to be long.	106178922	1474639033334	1474639033478	t	84
206157	2234776	The night promised to be long.	The night promised to be long.	106178926	1474639033486	1474639033654	 	32
206157	2234776	The night promised to be long.	The night promised to be long.	106179013	1474639033798	1474639033934	p	80
206157	2234776	The night promised to be long.	The night promised to be long.	106179017	1474639033966	1474639034126	r	82
206157	2234776	The night promised to be long.	The night promised to be long.	106179021	1474639034134	1474639034326	o	79
206157	2234776	The night promised to be long.	The night promised to be long.	106179027	1474639034350	1474639034454	m	77
206157	2234776	The night promised to be long.	The night promised to be long.	106179032	1474639034534	1474639034678	i	73
206157	2234776	The night promised to be long.	The night promised to be long.	106179078	1474639034622	1474639034790	s	83
206157	2234776	The night promised to be long.	The night promised to be long.	106179081	1474639034870	1474639034934	e	69
206157	2234776	The night promised to be long.	The night promised to be long.	106179084	1474639035054	1474639035150	d	68
206157	2234776	The night promised to be long.	The night promised to be long.	106179088	1474639035182	1474639035310	 	32
206157	2234776	The night promised to be long.	The night promised to be long.	106179093	1474639035382	1474639035518	o	79
206157	2234776	The night promised to be long.	The night promised to be long.	106179268	1474639035406	1474639035550	t	84
206157	2234776	The night promised to be long.	The night promised to be long.	106179272	1474639035510	1474639035598	 	32
206157	2234776	The night promised to be long.	The night promised to be long.	106179276	1474639035702	1474639035798	b	66
206157	2234776	The night promised to be long.	The night promised to be long.	106179283	1474639036014	1474639036094	BKSP	8
206157	2234776	The night promised to be long.	The night promised to be long.	106179288	1474639036190	1474639036286	BKSP	8
206157	2234776	The night promised to be long.	The night promised to be long.	106179291	1474639036374	1474639036438	BKSP	8
206157	2234776	The night promised to be long.	The night promised to be long.	106179294	1474639036998	1474639037086	BKSP	8
206157	2234776	The night promised to be long.	The night promised to be long.	106179298	1474639037222	1474639037343	t	84
206157	2234776	The night promised to be long.	The night promised to be long.	106179305	1474639037294	1474639037406	o	79
206157	2234776	The night promised to be long.	The night promised to be long.	106179312	1474639037430	1474639037542	 	32
206157	2234776	The night promised to be long.	The night promised to be long.	106179318	1474639037638	1474639037798	b	66
206157	2234776	The night promised to be long.	The night promised to be long.	106179377	1474639037758	1474639037902	e	69
206157	2234776	The night promised to be long.	The night promised to be long.	106179386	1474639037870	1474639037966	 	32
206157	2234776	The night promised to be long.	The night promised to be long.	106179395	1474639038190	1474639038286	l	76
206157	2234776	The night promised to be long.	The night promised to be long.	106179401	1474639038382	1474639038534	o	79
206157	2234776	The night promised to be long.	The night promised to be long.	106179404	1474639038566	1474639038670	n	78
206157	2234776	The night promised to be long.	The night promised to be long.	106179407	1474639038702	1474639038822	g	71
206157	2234776	The night promised to be long.	The night promised to be long.	106179415	1474639038926	1474639039038	.	190
206157	2234790	When things get speculative the language always gets scary.	When things get speculative the language always gets scary.	106179608	1474639040494	1474639040766	SHIFT	16
206157	2234790	When things get speculative the language always gets scary.	When things get speculative the language always gets scary.	106179614	1474639040766	1474639040910	W	87
206157	2234790	When things get speculative the language always gets scary.	When things get speculative the language always gets scary.	106179621	1474639040862	1474639040958	h	72
206157	2234790	When things get speculative the language always gets scary.	When things get speculative the language always gets scary.	106179628	1474639041022	1474639041158	e	69
206157	2234790	When things get speculative the language always gets scary.	When things get speculative the language always gets scary.	106179634	1474639041086	1474639041310	n	78
206157	2234790	When things get speculative the language always gets scary.	When things get speculative the language always gets scary.	106179677	1474639041302	1474639041414	 	32
206157	2234790	When things get speculative the language always gets scary.	When things get speculative the language always gets scary.	106179681	1474639041470	1474639041598	t	84
206157	2234790	When things get speculative the language always gets scary.	When things get speculative the language always gets scary.	106179682	1474639041566	1474639041646	h	72
206157	2234790	When things get speculative the language always gets scary.	When things get speculative the language always gets scary.	106179687	1474639041702	1474639041822	i	73
206157	2234790	When things get speculative the language always gets scary.	When things get speculative the language always gets scary.	106179693	1474639041846	1474639041982	n	78
206157	2234790	When things get speculative the language always gets scary.	When things get speculative the language always gets scary.	106179701	1474639042046	1474639042126	d	68
206157	2234790	When things get speculative the language always gets scary.	When things get speculative the language always gets scary.	106179780	1474639042414	1474639042526	BKSP	8
206157	2234790	When things get speculative the language always gets scary.	When things get speculative the language always gets scary.	106179784	1474639042478	1474639042630	g	71
206157	2234790	When things get speculative the language always gets scary.	When things get speculative the language always gets scary.	106179792	1474639042710	1474639042846	s	83
206157	2234790	When things get speculative the language always gets scary.	When things get speculative the language always gets scary.	106179799	1474639042894	1474639042990	 	32
206157	2234790	When things get speculative the language always gets scary.	When things get speculative the language always gets scary.	106179806	1474639043374	1474639043478	g	71
206157	2234790	When things get speculative the language always gets scary.	When things get speculative the language always gets scary.	106179813	1474639043526	1474639043742	e	69
206157	2234790	When things get speculative the language always gets scary.	When things get speculative the language always gets scary.	106179874	1474639043816	1474639043982	t	84
206157	2234790	When things get speculative the language always gets scary.	When things get speculative the language always gets scary.	106179880	1474639043990	1474639044118	 	32
206157	2234790	When things get speculative the language always gets scary.	When things get speculative the language always gets scary.	106179886	1474639044238	1474639044358	s	83
206157	2234790	When things get speculative the language always gets scary.	When things get speculative the language always gets scary.	106179890	1474639044630	1474639044782	[	219
206157	2234790	When things get speculative the language always gets scary.	When things get speculative the language always gets scary.	106179895	1474639044942	1474639044990	r	82
206157	2234790	When things get speculative the language always gets scary.	When things get speculative the language always gets scary.	106180108	1474639045142	1474639045206	BKSP	8
206157	2234790	When things get speculative the language always gets scary.	When things get speculative the language always gets scary.	106180113	1474639045294	1474639045406	BKSP	8
206157	2234790	When things get speculative the language always gets scary.	When things get speculative the language always gets scary.	106180116	1474639045582	1474639045694	p	80
206157	2234790	When things get speculative the language always gets scary.	When things get speculative the language always gets scary.	106180122	1474639045662	1474639045846	e	69
206157	2234790	When things get speculative the language always gets scary.	When things get speculative the language always gets scary.	106180128	1474639046006	1474639046134	c	67
206157	2234790	When things get speculative the language always gets scary.	When things get speculative the language always gets scary.	106180132	1474639047054	1474639047206	BKSP	8
206157	2234790	When things get speculative the language always gets scary.	When things get speculative the language always gets scary.	106180134	1474639047998	1474639048126	c	67
206157	2234790	When things get speculative the language always gets scary.	When things get speculative the language always gets scary.	106180175	1474639048118	1474639048182	u	85
206157	2234790	When things get speculative the language always gets scary.	When things get speculative the language always gets scary.	106180180	1474639048342	1474639048478	l	76
206157	2234790	When things get speculative the language always gets scary.	When things get speculative the language always gets scary.	106180189	1474639048382	1474639048534	a	65
206157	2234790	When things get speculative the language always gets scary.	When things get speculative the language always gets scary.	106180199	1474639048542	1474639048654	t	84
206157	2234790	When things get speculative the language always gets scary.	When things get speculative the language always gets scary.	106180205	1474639048622	1474639048758	i	73
206157	2234790	When things get speculative the language always gets scary.	When things get speculative the language always gets scary.	106180209	1474639049006	1474639049182	v	86
206157	2234790	When things get speculative the language always gets scary.	When things get speculative the language always gets scary.	106180227	1474639049238	1474639049431	e	69
206157	2234790	When things get speculative the language always gets scary.	When things get speculative the language always gets scary.	106180224	1474639049286	1474639049366	 	32
206157	2234790	When things get speculative the language always gets scary.	When things get speculative the language always gets scary.	106180231	1474639049414	1474639049582	t	84
206157	2234790	When things get speculative the language always gets scary.	When things get speculative the language always gets scary.	106180236	1474639049502	1474639049678	h	72
206157	2234790	When things get speculative the language always gets scary.	When things get speculative the language always gets scary.	106180310	1474639049646	1474639049742	 	32
206157	2234790	When things get speculative the language always gets scary.	When things get speculative the language always gets scary.	106180313	1474639050030	1474639050142	BKSP	8
206157	2234790	When things get speculative the language always gets scary.	When things get speculative the language always gets scary.	106180319	1474639050150	1474639050286	e	69
206157	2234790	When things get speculative the language always gets scary.	When things get speculative the language always gets scary.	106180323	1474639050278	1474639050390	 	32
206157	2234790	When things get speculative the language always gets scary.	When things get speculative the language always gets scary.	106180327	1474639050478	1474639050606	l	76
206157	2234790	When things get speculative the language always gets scary.	When things get speculative the language always gets scary.	106180333	1474639050566	1474639050686	a	65
206157	2234790	When things get speculative the language always gets scary.	When things get speculative the language always gets scary.	106180338	1474639050726	1474639050838	n	78
206157	2234790	When things get speculative the language always gets scary.	When things get speculative the language always gets scary.	106180392	1474639051286	1474639051399	g	71
206157	2234790	When things get speculative the language always gets scary.	When things get speculative the language always gets scary.	106180395	1474639051382	1474639051494	u	85
206157	2234790	When things get speculative the language always gets scary.	When things get speculative the language always gets scary.	106180403	1474639051446	1474639051590	a	65
206157	2234790	When things get speculative the language always gets scary.	When things get speculative the language always gets scary.	106180409	1474639051622	1474639051734	g	71
206157	2234790	When things get speculative the language always gets scary.	When things get speculative the language always gets scary.	106180415	1474639051830	1474639051974	e	69
206157	2234790	When things get speculative the language always gets scary.	When things get speculative the language always gets scary.	106180565	1474639051966	1474639052078	 	32
206157	2234790	When things get speculative the language always gets scary.	When things get speculative the language always gets scary.	106180566	1474639052126	1474639052246	a	65
206157	2234790	When things get speculative the language always gets scary.	When things get speculative the language always gets scary.	106180570	1474639052270	1474639052334	k	75
206157	2234790	When things get speculative the language always gets scary.	When things get speculative the language always gets scary.	106180575	1474639052870	1474639052942	=	8
206157	2234790	When things get speculative the language always gets scary.	When things get speculative the language always gets scary.	106180579	1474639053214	1474639053294	BKSP	8
206157	2234790	When things get speculative the language always gets scary.	When things get speculative the language always gets scary.	106180583	1474639053654	1474639053758	l	76
206157	2234790	When things get speculative the language always gets scary.	When things get speculative the language always gets scary.	106180588	1474639053766	1474639053878	w	87
206157	2234790	When things get speculative the language always gets scary.	When things get speculative the language always gets scary.	106180680	1474639053846	1474639053990	a	65
206157	2234790	When things get speculative the language always gets scary.	When things get speculative the language always gets scary.	106180686	1474639054502	1474639054614	y	89
206157	2234790	When things get speculative the language always gets scary.	When things get speculative the language always gets scary.	106180696	1474639054662	1474639054790	s	83
206157	2234790	When things get speculative the language always gets scary.	When things get speculative the language always gets scary.	106180708	1474639054774	1474639054894	 	32
206157	2234790	When things get speculative the language always gets scary.	When things get speculative the language always gets scary.	106180715	1474639055374	1474639055470	g	71
206157	2234790	When things get speculative the language always gets scary.	When things get speculative the language always gets scary.	106180723	1474639055566	1474639055718	e	69
206157	2234790	When things get speculative the language always gets scary.	When things get speculative the language always gets scary.	106180768	1474639055671	1474639055782	t	84
206157	2234790	When things get speculative the language always gets scary.	When things get speculative the language always gets scary.	106180774	1474639055806	1474639055982	s	83
206157	2234790	When things get speculative the language always gets scary.	When things get speculative the language always gets scary.	106180780	1474639055942	1474639056078	 	32
206157	2234790	When things get speculative the language always gets scary.	When things get speculative the language always gets scary.	106180788	1474639056198	1474639056318	s	83
206157	2234790	When things get speculative the language always gets scary.	When things get speculative the language always gets scary.	106180793	1474639056470	1474639056590	c	67
206157	2234790	When things get speculative the language always gets scary.	When things get speculative the language always gets scary.	106180885	1474639056582	1474639056710	a	65
206157	2234790	When things get speculative the language always gets scary.	When things get speculative the language always gets scary.	106180894	1474639056806	1474639056910	r	82
206157	2234790	When things get speculative the language always gets scary.	When things get speculative the language always gets scary.	106180903	1474639056990	1474639057102	y	89
206157	2234790	When things get speculative the language always gets scary.	When things get speculative the language always gets scary.	106180912	1474639057382	1474639057486	.	190
206157	2234829	Last year I made some mistakes here.	Last year I made some mistakes here.	106181110	1474639059246	1474639059846	SHIFT	16
206157	2234829	Last year I made some mistakes here.	Last year I made some mistakes here.	106181117	1474639059846	1474639059990	L	76
206157	2234829	Last year I made some mistakes here.	Last year I made some mistakes here.	106181124	1474639059950	1474639060110	a	65
206157	2234829	Last year I made some mistakes here.	Last year I made some mistakes here.	106181128	1474639060150	1474639060310	s	83
206157	2234829	Last year I made some mistakes here.	Last year I made some mistakes here.	106181132	1474639060342	1474639060478	t	84
206157	2234829	Last year I made some mistakes here.	Last year I made some mistakes here.	106181140	1474639060486	1474639060534	 	32
206157	2234829	Last year I made some mistakes here.	Last year I made some mistakes here.	106181207	1474639060678	1474639060806	y	89
206157	2234829	Last year I made some mistakes here.	Last year I made some mistakes here.	106181211	1474639060790	1474639061014	e	69
206157	2234829	Last year I made some mistakes here.	Last year I made some mistakes here.	106181218	1474639060958	1474639061134	a	65
206157	2234829	Last year I made some mistakes here.	Last year I made some mistakes here.	106181225	1474639061110	1474639061270	r	82
206157	2234829	Last year I made some mistakes here.	Last year I made some mistakes here.	106181231	1474639061406	1474639061542	 	32
206157	2234829	Last year I made some mistakes here.	Last year I made some mistakes here.	106181311	1474639061742	1474639061910	SHIFT	16
206157	2234829	Last year I made some mistakes here.	Last year I made some mistakes here.	106181318	1474639061814	1474639061926	I	73
206157	2234829	Last year I made some mistakes here.	Last year I made some mistakes here.	106181325	1474639061934	1474639062070	 	32
206157	2234829	Last year I made some mistakes here.	Last year I made some mistakes here.	106181329	1474639062118	1474639062254	m	77
206157	2234829	Last year I made some mistakes here.	Last year I made some mistakes here.	106181334	1474639062222	1474639062350	a	65
206157	2234829	Last year I made some mistakes here.	Last year I made some mistakes here.	106181337	1474639062390	1474639062494	d	68
206157	2234829	Last year I made some mistakes here.	Last year I made some mistakes here.	106181390	1474639062598	1474639062710	e	69
206157	2234829	Last year I made some mistakes here.	Last year I made some mistakes here.	106181395	1474639062758	1474639062902	 	32
206157	2234829	Last year I made some mistakes here.	Last year I made some mistakes here.	106181399	1474639062910	1474639063038	s	83
206157	2234829	Last year I made some mistakes here.	Last year I made some mistakes here.	106181404	1474639062982	1474639063102	o	79
206157	2234829	Last year I made some mistakes here.	Last year I made some mistakes here.	106181407	1474639063102	1474639063246	m	77
206157	2234829	Last year I made some mistakes here.	Last year I made some mistakes here.	106181466	1474639063254	1474639063374	e	69
206157	2234829	Last year I made some mistakes here.	Last year I made some mistakes here.	106181469	1474639063438	1474639063606	 	32
206157	2234829	Last year I made some mistakes here.	Last year I made some mistakes here.	106181472	1474639063878	1474639063990	m	77
206157	2234829	Last year I made some mistakes here.	Last year I made some mistakes here.	106181476	1474639064086	1474639064230	i	73
206157	2234829	Last year I made some mistakes here.	Last year I made some mistakes here.	106181575	1474639064166	1474639064414	s	83
206157	2234829	Last year I made some mistakes here.	Last year I made some mistakes here.	106181583	1474639064686	1474639064790	s	83
206157	2234829	Last year I made some mistakes here.	Last year I made some mistakes here.	106181591	1474639065262	1474639065382	BKSP	8
206157	2234829	Last year I made some mistakes here.	Last year I made some mistakes here.	106181598	1474639065406	1474639065534	t	84
206157	2234829	Last year I made some mistakes here.	Last year I made some mistakes here.	106181604	1474639065566	1474639065718	a	65
206157	2234829	Last year I made some mistakes here.	Last year I made some mistakes here.	106181607	1474639065766	1474639065918	k	75
206157	2234829	Last year I made some mistakes here.	Last year I made some mistakes here.	106181646	1474639065910	1474639066006	e	69
206157	2234829	Last year I made some mistakes here.	Last year I made some mistakes here.	106181647	1474639066102	1474639066254	s	83
206157	2234829	Last year I made some mistakes here.	Last year I made some mistakes here.	106181648	1474639066278	1474639066422	 	32
206157	2234829	Last year I made some mistakes here.	Last year I made some mistakes here.	106181649	1474639066606	1474639066726	h	72
206157	2234829	Last year I made some mistakes here.	Last year I made some mistakes here.	106181650	1474639066670	1474639066870	e	69
206157	2234829	Last year I made some mistakes here.	Last year I made some mistakes here.	106181704	1474639066830	1474639066998	r	82
206157	2234829	Last year I made some mistakes here.	Last year I made some mistakes here.	106181710	1474639066942	1474639067070	e	69
206157	2234829	Last year I made some mistakes here.	Last year I made some mistakes here.	106181717	1474639067222	1474639067350	.	190
