PARTICIPANT_ID	TEST_SECTION_ID	SENTENCE	USER_INPUT	KEYSTROKE_ID	PRESS_TIME	RELEASE_TIME	LETTER	KEYCODE
206834	2242123	How is it going?	How is it going?	106527091	1474643551001	1474643551344	SHIFT	16
206834	2242123	How is it going?	How is it going?	106527085	1474643551200	1474643551305	H	72
206834	2242123	How is it going?	How is it going?	106527099	1474643551379	1474643551526	o	79
206834	2242123	How is it going?	How is it going?	106527105	1474643551551	1474643551671	w	87
206834	2242123	How is it going?	How is it going?	106527108	1474643551712	1474643551825	 	32
206834	2242123	How is it going?	How is it going?	106527112	1474643552197	1474643552285	i	73
206834	2242123	How is it going?	How is it going?	106527136	1474643552315	1474643552387	s	83
206834	2242123	How is it going?	How is it going?	106527139	1474643552488	1474643552591	 	32
206834	2242123	How is it going?	How is it going?	106527140	1474643552703	1474643552826	i	73
206834	2242123	How is it going?	How is it going?	106527141	1474643552868	1474643552957	t	84
206834	2242123	How is it going?	How is it going?	106527144	1474643553078	1474643553170	 	32
206834	2242123	How is it going?	How is it going?	106527220	1474643553677	1474643553763	g	71
206834	2242123	How is it going?	How is it going?	106527221	1474643553834	1474643553926	o	79
206834	2242123	How is it going?	How is it going?	106527223	1474643554029	1474643554092	i	73
206834	2242123	How is it going?	How is it going?	106527227	1474643554243	1474643554324	n	78
206834	2242123	How is it going?	How is it going?	106527231	1474643554540	1474643554603	g	71
206834	2242123	How is it going?	How is it going?	106527255	1474643554859	1474643555120	SHIFT	16
206834	2242123	How is it going?	How is it going?	106527256	1474643555056	1474643555191	?	191
206834	2242138	He said police in Dallas were also in favor of fences.	He said police in Dallas were also in favor of fences	106527979	1474643563691	1474643564068	SHIFT	16
206834	2242138	He said police in Dallas were also in favor of fences.	He said police in Dallas were also in favor of fences	106527985	1474643563983	1474643564077	H	72
206834	2242138	He said police in Dallas were also in favor of fences.	He said police in Dallas were also in favor of fences	106527990	1474643564182	1474643564272	e	69
206834	2242138	He said police in Dallas were also in favor of fences.	He said police in Dallas were also in favor of fences	106527993	1474643564295	1474643564409	 	32
206834	2242138	He said police in Dallas were also in favor of fences.	He said police in Dallas were also in favor of fences	106527997	1474643564461	1474643564546	s	83
206834	2242138	He said police in Dallas were also in favor of fences.	He said police in Dallas were also in favor of fences	106527999	1474643565410	1474643565505	a	65
206834	2242138	He said police in Dallas were also in favor of fences.	He said police in Dallas were also in favor of fences	106528114	1474643565527	1474643565618	i	73
206834	2242138	He said police in Dallas were also in favor of fences.	He said police in Dallas were also in favor of fences	106528118	1474643565727	1474643565812	d	68
206834	2242138	He said police in Dallas were also in favor of fences.	He said police in Dallas were also in favor of fences	106528124	1474643565848	1474643565942	 	32
206834	2242138	He said police in Dallas were also in favor of fences.	He said police in Dallas were also in favor of fences	106528128	1474643566918	1474643567000	p	80
206834	2242138	He said police in Dallas were also in favor of fences.	He said police in Dallas were also in favor of fences	106528132	1474643567178	1474643567245	o	79
206834	2242138	He said police in Dallas were also in favor of fences.	He said police in Dallas were also in favor of fences	106528210	1474643567382	1474643567455	l	76
206834	2242138	He said police in Dallas were also in favor of fences.	He said police in Dallas were also in favor of fences	106528213	1474643567640	1474643567737	i	73
206834	2242138	He said police in Dallas were also in favor of fences.	He said police in Dallas were also in favor of fences	106528218	1474643567795	1474643567861	c	67
206834	2242138	He said police in Dallas were also in favor of fences.	He said police in Dallas were also in favor of fences	106528223	1474643568011	1474643568099	e	69
206834	2242138	He said police in Dallas were also in favor of fences.	He said police in Dallas were also in favor of fences	106528228	1474643568186	1474643568271	 	32
206834	2242138	He said police in Dallas were also in favor of fences.	He said police in Dallas were also in favor of fences	106528316	1474643568868	1474643568947	i	73
206834	2242138	He said police in Dallas were also in favor of fences.	He said police in Dallas were also in favor of fences	106528321	1474643569095	1474643569176	n	78
206834	2242138	He said police in Dallas were also in favor of fences.	He said police in Dallas were also in favor of fences	106528329	1474643569218	1474643569301	 	32
206834	2242138	He said police in Dallas were also in favor of fences.	He said police in Dallas were also in favor of fences	106528343	1474643569591	1474643569970	SHIFT	16
206834	2242138	He said police in Dallas were also in favor of fences.	He said police in Dallas were also in favor of fences	106528336	1474643569830	1474643569908	D	68
206834	2242138	He said police in Dallas were also in favor of fences.	He said police in Dallas were also in favor of fences	106528349	1474643570105	1474643570177	a	65
206834	2242138	He said police in Dallas were also in favor of fences.	He said police in Dallas were also in favor of fences	106528373	1474643570387	1474643570447	l	76
206834	2242138	He said police in Dallas were also in favor of fences.	He said police in Dallas were also in favor of fences	106528377	1474643570520	1474643570587	l	76
206834	2242138	He said police in Dallas were also in favor of fences.	He said police in Dallas were also in favor of fences	106528383	1474643570673	1474643570736	a	65
206834	2242138	He said police in Dallas were also in favor of fences.	He said police in Dallas were also in favor of fences	106528388	1474643570844	1474643570925	s	83
206834	2242138	He said police in Dallas were also in favor of fences.	He said police in Dallas were also in favor of fences	106528395	1474643570978	1474643571078	 	32
206834	2242138	He said police in Dallas were also in favor of fences.	He said police in Dallas were also in favor of fences	106528509	1474643571434	1474643571505	w	87
206834	2242138	He said police in Dallas were also in favor of fences.	He said police in Dallas were also in favor of fences	106528517	1474643571622	1474643571687	e	69
206834	2242138	He said police in Dallas were also in favor of fences.	He said police in Dallas were also in favor of fences	106528525	1474643571871	1474643571916	r	82
206834	2242138	He said police in Dallas were also in favor of fences.	He said police in Dallas were also in favor of fences	106528533	1474643572042	1474643572100	e	69
206834	2242138	He said police in Dallas were also in favor of fences.	He said police in Dallas were also in favor of fences	106528541	1474643572437	1474643572509	 	32
206834	2242138	He said police in Dallas were also in favor of fences.	He said police in Dallas were also in favor of fences	106528621	1474643572686	1474643572775	a	65
206834	2242138	He said police in Dallas were also in favor of fences.	He said police in Dallas were also in favor of fences	106528625	1474643572829	1474643572962	l	76
206834	2242138	He said police in Dallas were also in favor of fences.	He said police in Dallas were also in favor of fences	106528629	1474643572984	1474643573080	s	83
206834	2242138	He said police in Dallas were also in favor of fences.	He said police in Dallas were also in favor of fences	106528634	1474643573347	1474643573434	o	79
206834	2242138	He said police in Dallas were also in favor of fences.	He said police in Dallas were also in favor of fences	106528639	1474643573549	1474643573664	 	32
206834	2242138	He said police in Dallas were also in favor of fences.	He said police in Dallas were also in favor of fences	106528703	1474643573959	1474643574068	i	73
206834	2242138	He said police in Dallas were also in favor of fences.	He said police in Dallas were also in favor of fences	106528706	1474643574139	1474643574226	n	78
206834	2242138	He said police in Dallas were also in favor of fences.	He said police in Dallas were also in favor of fences	106528709	1474643574286	1474643574369	 	32
206834	2242138	He said police in Dallas were also in favor of fences.	He said police in Dallas were also in favor of fences	106528713	1474643574546	1474643574601	f	70
206834	2242138	He said police in Dallas were also in favor of fences.	He said police in Dallas were also in favor of fences	106528717	1474643574772	1474643574884	a	65
206834	2242138	He said police in Dallas were also in favor of fences.	He said police in Dallas were also in favor of fences	106528849	1474643576019	1474643576112	v	86
206834	2242138	He said police in Dallas were also in favor of fences.	He said police in Dallas were also in favor of fences	106528853	1474643576208	1474643576321	o	79
206834	2242138	He said police in Dallas were also in favor of fences.	He said police in Dallas were also in favor of fences	106528856	1474643576584	1474643576663	i	73
206834	2242138	He said police in Dallas were also in favor of fences.	He said police in Dallas were also in favor of fences	106528862	1474643576825	1474643576899	r	82
206834	2242138	He said police in Dallas were also in favor of fences.	He said police in Dallas were also in favor of fences	106528868	1474643576997	1474643577078	 	32
206834	2242138	He said police in Dallas were also in favor of fences.	He said police in Dallas were also in favor of fences	106529295	1474643578185	1474643578287	BKSP	8
206834	2242138	He said police in Dallas were also in favor of fences.	He said police in Dallas were also in favor of fences	106529301	1474643578375	1474643578442	BKSP	8
206834	2242138	He said police in Dallas were also in favor of fences.	He said police in Dallas were also in favor of fences	106529306	1474643578539	1474643578602	BKSP	8
206834	2242138	He said police in Dallas were also in favor of fences.	He said police in Dallas were also in favor of fences	106529311	1474643579420	1474643579504	u	85
206834	2242138	He said police in Dallas were also in favor of fences.	He said police in Dallas were also in favor of fences	106529318	1474643579647	1474643579724	r	82
206834	2242138	He said police in Dallas were also in favor of fences.	He said police in Dallas were also in favor of fences	106529324	1474643579754	1474643579833	 	32
206834	2242138	He said police in Dallas were also in favor of fences.	He said police in Dallas were also in favor of fences	106529331	1474643580802	1474643580876	BKSP	8
206834	2242138	He said police in Dallas were also in favor of fences.	He said police in Dallas were also in favor of fences	106529337	1474643581032	1474643581089	BKSP	8
206834	2242138	He said police in Dallas were also in favor of fences.	He said police in Dallas were also in favor of fences	106529342	1474643581414	1474643581528	BKSP	8
206834	2242138	He said police in Dallas were also in favor of fences.	He said police in Dallas were also in favor of fences	106529346	1474643581798	1474643581872	r	82
206834	2242138	He said police in Dallas were also in favor of fences.	He said police in Dallas were also in favor of fences	106529353	1474643581897	1474643581988	 	32
206834	2242138	He said police in Dallas were also in favor of fences.	He said police in Dallas were also in favor of fences	106529402	1474643582660	1474643582783	o	79
206834	2242138	He said police in Dallas were also in favor of fences.	He said police in Dallas were also in favor of fences	106529406	1474643582911	1474643582983	f	70
206834	2242138	He said police in Dallas were also in favor of fences.	He said police in Dallas were also in favor of fences	106529409	1474643583046	1474643583120	 	32
206834	2242138	He said police in Dallas were also in favor of fences.	He said police in Dallas were also in favor of fences	106529412	1474643583221	1474643583291	f	70
206834	2242138	He said police in Dallas were also in favor of fences.	He said police in Dallas were also in favor of fences	106529415	1474643583396	1474643583474	e	69
206834	2242138	He said police in Dallas were also in favor of fences.	He said police in Dallas were also in favor of fences	106529473	1474643583520	1474643583589	n	78
206834	2242138	He said police in Dallas were also in favor of fences.	He said police in Dallas were also in favor of fences	106529477	1474643583756	1474643583830	c	67
206834	2242138	He said police in Dallas were also in favor of fences.	He said police in Dallas were also in favor of fences	106529480	1474643583996	1474643584068	e	69
206834	2242138	He said police in Dallas were also in favor of fences.	He said police in Dallas were also in favor of fences	106529484	1474643584183	1474643584271	s	83
206834	2242184	There's been a shortage of blood in this area.	There's been a shortage of blood in this area.	106530078	1474643591199	1474643591740	SHIFT	16
206834	2242184	There's been a shortage of blood in this area.	There's been a shortage of blood in this area.	106530073	1474643591634	1474643591721	T	84
206834	2242184	There's been a shortage of blood in this area.	There's been a shortage of blood in this area.	106530083	1474643591878	1474643591971	h	72
206834	2242184	There's been a shortage of blood in this area.	There's been a shortage of blood in this area.	106530091	1474643592464	1474643592547	e	69
206834	2242184	There's been a shortage of blood in this area.	There's been a shortage of blood in this area.	106530095	1474643592646	1474643592714	r	82
206834	2242184	There's been a shortage of blood in this area.	There's been a shortage of blood in this area.	106530104	1474643593058	1474643593140	e	69
206834	2242184	There's been a shortage of blood in this area.	There's been a shortage of blood in this area.	106530235	1474643593922	1474643593967	'	222
206834	2242184	There's been a shortage of blood in this area.	There's been a shortage of blood in this area.	106530239	1474643594245	1474643594318	s	83
206834	2242184	There's been a shortage of blood in this area.	There's been a shortage of blood in this area.	106530244	1474643594528	1474643594622	 	32
206834	2242184	There's been a shortage of blood in this area.	There's been a shortage of blood in this area.	106530248	1474643594983	1474643595061	b	66
206834	2242184	There's been a shortage of blood in this area.	There's been a shortage of blood in this area.	106530254	1474643595165	1474643595228	e	69
206834	2242184	There's been a shortage of blood in this area.	There's been a shortage of blood in this area.	106530310	1474643595308	1474643595380	e	69
206834	2242184	There's been a shortage of blood in this area.	There's been a shortage of blood in this area.	106530315	1474643595458	1474643595527	n	78
206834	2242184	There's been a shortage of blood in this area.	There's been a shortage of blood in this area.	106530319	1474643595577	1474643595687	 	32
206834	2242184	There's been a shortage of blood in this area.	There's been a shortage of blood in this area.	106530325	1474643595841	1474643595966	a	65
206834	2242184	There's been a shortage of blood in this area.	There's been a shortage of blood in this area.	106530326	1474643596025	1474643596107	 	32
206834	2242184	There's been a shortage of blood in this area.	There's been a shortage of blood in this area.	106530357	1474643596168	1474643596243	s	83
206834	2242184	There's been a shortage of blood in this area.	There's been a shortage of blood in this area.	106530364	1474643596337	1474643596434	h	72
206834	2242184	There's been a shortage of blood in this area.	There's been a shortage of blood in this area.	106530375	1474643596625	1474643596719	o	79
206834	2242184	There's been a shortage of blood in this area.	There's been a shortage of blood in this area.	106530379	1474643596799	1474643596860	r	82
206834	2242184	There's been a shortage of blood in this area.	There's been a shortage of blood in this area.	106530389	1474643597000	1474643597060	t	84
206834	2242184	There's been a shortage of blood in this area.	There's been a shortage of blood in this area.	106530466	1474643597245	1474643597366	a	65
206834	2242184	There's been a shortage of blood in this area.	There's been a shortage of blood in this area.	106530469	1474643597652	1474643597710	g	71
206834	2242184	There's been a shortage of blood in this area.	There's been a shortage of blood in this area.	106530478	1474643597807	1474643597878	e	69
206834	2242184	There's been a shortage of blood in this area.	There's been a shortage of blood in this area.	106530486	1474643597941	1474643598023	 	32
206834	2242184	There's been a shortage of blood in this area.	There's been a shortage of blood in this area.	106530491	1474643598265	1474643598359	o	79
206834	2242184	There's been a shortage of blood in this area.	There's been a shortage of blood in this area.	106530534	1474643598476	1474643598544	f	70
206834	2242184	There's been a shortage of blood in this area.	There's been a shortage of blood in this area.	106530536	1474643598596	1474643598682	 	32
206834	2242184	There's been a shortage of blood in this area.	There's been a shortage of blood in this area.	106530541	1474643598867	1474643598941	b	66
206834	2242184	There's been a shortage of blood in this area.	There's been a shortage of blood in this area.	106530543	1474643599012	1474643599103	l	76
206834	2242184	There's been a shortage of blood in this area.	There's been a shortage of blood in this area.	106530546	1474643599215	1474643599299	o	79
206834	2242184	There's been a shortage of blood in this area.	There's been a shortage of blood in this area.	106530587	1474643599384	1474643599451	o	79
206834	2242184	There's been a shortage of blood in this area.	There's been a shortage of blood in this area.	106530592	1474643599494	1474643599586	d	68
206834	2242184	There's been a shortage of blood in this area.	There's been a shortage of blood in this area.	106530597	1474643599752	1474643599832	 	32
206834	2242184	There's been a shortage of blood in this area.	There's been a shortage of blood in this area.	106530600	1474643599990	1474643600114	i	73
206834	2242184	There's been a shortage of blood in this area.	There's been a shortage of blood in this area.	106530604	1474643600177	1474643600258	n	78
206834	2242184	There's been a shortage of blood in this area.	There's been a shortage of blood in this area.	106530682	1474643600293	1474643600395	 	32
206834	2242184	There's been a shortage of blood in this area.	There's been a shortage of blood in this area.	106530690	1474643600526	1474643600613	t	84
206834	2242184	There's been a shortage of blood in this area.	There's been a shortage of blood in this area.	106530698	1474643600654	1474643600759	h	72
206834	2242184	There's been a shortage of blood in this area.	There's been a shortage of blood in this area.	106530706	1474643600946	1474643601078	i	73
206834	2242184	There's been a shortage of blood in this area.	There's been a shortage of blood in this area.	106530713	1474643601519	1474643601608	s	83
206834	2242184	There's been a shortage of blood in this area.	There's been a shortage of blood in this area.	106530760	1474643601644	1474643601728	 	32
206834	2242184	There's been a shortage of blood in this area.	There's been a shortage of blood in this area.	106530763	1474643601752	1474643601857	a	65
206834	2242184	There's been a shortage of blood in this area.	There's been a shortage of blood in this area.	106530766	1474643601992	1474643602056	r	82
206834	2242184	There's been a shortage of blood in this area.	There's been a shortage of blood in this area.	106530771	1474643602167	1474643602249	e	69
206834	2242184	There's been a shortage of blood in this area.	There's been a shortage of blood in this area.	106530775	1474643602381	1474643602532	a	65
206834	2242184	There's been a shortage of blood in this area.	There's been a shortage of blood in this area.	106530778	1474643602596	1474643602750	.	190
206834	2242218	Kay Mann is going to take the lead on this.	Kay Mann is going to take the lead on this.	106531918	1474643616657	1474643616976	SHIFT	16
206834	2242218	Kay Mann is going to take the lead on this.	Kay Mann is going to take the lead on this.	106531923	1474643616916	1474643617004	K	75
206834	2242218	Kay Mann is going to take the lead on this.	Kay Mann is going to take the lead on this.	106531930	1474643617036	1474643617122	a	65
206834	2242218	Kay Mann is going to take the lead on this.	Kay Mann is going to take the lead on this.	106531933	1474643617280	1474643617381	y	89
206834	2242218	Kay Mann is going to take the lead on this.	Kay Mann is going to take the lead on this.	106531937	1474643617449	1474643617553	 	32
206834	2242218	Kay Mann is going to take the lead on this.	Kay Mann is going to take the lead on this.	106532060	1474643617669	1474643617917	SHIFT	16
206834	2242218	Kay Mann is going to take the lead on this.	Kay Mann is going to take the lead on this.	106531942	1474643617804	1474643617908	M	77
206834	2242218	Kay Mann is going to take the lead on this.	Kay Mann is going to take the lead on this.	106532068	1474643618028	1474643618043	a	65
206834	2242218	Kay Mann is going to take the lead on this.	Kay Mann is going to take the lead on this.	106532081	1474643618604	1474643618663	n	78
206834	2242218	Kay Mann is going to take the lead on this.	Kay Mann is going to take the lead on this.	106532089	1474643618746	1474643618815	n	78
206834	2242218	Kay Mann is going to take the lead on this.	Kay Mann is going to take the lead on this.	106532098	1474643619453	1474643619531	 	32
206834	2242218	Kay Mann is going to take the lead on this.	Kay Mann is going to take the lead on this.	106532103	1474643619698	1474643619787	i	73
206834	2242218	Kay Mann is going to take the lead on this.	Kay Mann is going to take the lead on this.	106532166	1474643619846	1474643619921	s	83
206834	2242218	Kay Mann is going to take the lead on this.	Kay Mann is going to take the lead on this.	106532169	1474643619981	1474643620075	 	32
206834	2242218	Kay Mann is going to take the lead on this.	Kay Mann is going to take the lead on this.	106532173	1474643620300	1474643620367	g	71
206834	2242218	Kay Mann is going to take the lead on this.	Kay Mann is going to take the lead on this.	106532179	1474643620427	1474643620539	o	79
206834	2242218	Kay Mann is going to take the lead on this.	Kay Mann is going to take the lead on this.	106532186	1474643620632	1474643620731	i	73
206834	2242218	Kay Mann is going to take the lead on this.	Kay Mann is going to take the lead on this.	106532235	1474643620879	1474643620962	n	78
206834	2242218	Kay Mann is going to take the lead on this.	Kay Mann is going to take the lead on this.	106532240	1474643621064	1474643621132	g	71
206834	2242218	Kay Mann is going to take the lead on this.	Kay Mann is going to take the lead on this.	106532246	1474643621186	1474643621273	 	32
206834	2242218	Kay Mann is going to take the lead on this.	Kay Mann is going to take the lead on this.	106532253	1474643621344	1474643621428	t	84
206834	2242218	Kay Mann is going to take the lead on this.	Kay Mann is going to take the lead on this.	106532260	1474643621491	1474643621613	o	79
206834	2242218	Kay Mann is going to take the lead on this.	Kay Mann is going to take the lead on this.	106532362	1474643621671	1474643621735	 	32
206834	2242218	Kay Mann is going to take the lead on this.	Kay Mann is going to take the lead on this.	106532367	1474643622045	1474643622110	t	84
206834	2242218	Kay Mann is going to take the lead on this.	Kay Mann is going to take the lead on this.	106532375	1474643622314	1474643622435	a	65
206834	2242218	Kay Mann is going to take the lead on this.	Kay Mann is going to take the lead on this.	106532386	1474643622483	1474643622580	k	75
206834	2242218	Kay Mann is going to take the lead on this.	Kay Mann is going to take the lead on this.	106532390	1474643622649	1474643622726	e	69
206834	2242218	Kay Mann is going to take the lead on this.	Kay Mann is going to take the lead on this.	106532467	1474643622814	1474643622885	 	32
206834	2242218	Kay Mann is going to take the lead on this.	Kay Mann is going to take the lead on this.	106532470	1474643623467	1474643623540	t	84
206834	2242218	Kay Mann is going to take the lead on this.	Kay Mann is going to take the lead on this.	106532471	1474643623580	1474643623645	h	72
206834	2242218	Kay Mann is going to take the lead on this.	Kay Mann is going to take the lead on this.	106532475	1474643623730	1474643623807	e	69
206834	2242218	Kay Mann is going to take the lead on this.	Kay Mann is going to take the lead on this.	106532478	1474643623845	1474643623919	 	32
206834	2242218	Kay Mann is going to take the lead on this.	Kay Mann is going to take the lead on this.	106532525	1474643624262	1474643624359	l	76
206834	2242218	Kay Mann is going to take the lead on this.	Kay Mann is going to take the lead on this.	106532528	1474643624427	1474643624498	e	69
206834	2242218	Kay Mann is going to take the lead on this.	Kay Mann is going to take the lead on this.	106532534	1474643624629	1474643624739	a	65
206834	2242218	Kay Mann is going to take the lead on this.	Kay Mann is going to take the lead on this.	106532540	1474643624804	1474643624892	d	68
206834	2242218	Kay Mann is going to take the lead on this.	Kay Mann is going to take the lead on this.	106532547	1474643624928	1474643625048	 	32
206834	2242218	Kay Mann is going to take the lead on this.	Kay Mann is going to take the lead on this.	106532660	1474643625136	1474643625212	o	79
206834	2242218	Kay Mann is going to take the lead on this.	Kay Mann is going to take the lead on this.	106532662	1474643625557	1474643625645	n	78
206834	2242218	Kay Mann is going to take the lead on this.	Kay Mann is going to take the lead on this.	106532665	1474643626111	1474643626220	 	32
206834	2242218	Kay Mann is going to take the lead on this.	Kay Mann is going to take the lead on this.	106532669	1474643626265	1474643626340	t	84
206834	2242218	Kay Mann is going to take the lead on this.	Kay Mann is going to take the lead on this.	106532675	1474643626411	1474643626506	h	72
206834	2242218	Kay Mann is going to take the lead on this.	Kay Mann is going to take the lead on this.	106532725	1474643626645	1474643626744	i	73
206834	2242218	Kay Mann is going to take the lead on this.	Kay Mann is going to take the lead on this.	106532729	1474643626785	1474643626871	s	83
206834	2242218	Kay Mann is going to take the lead on this.	Kay Mann is going to take the lead on this.	106532736	1474643627092	1474643627220	.	190
206834	2242254	I wasn't as prepared as I will be this year.	I wasn't as prepared as I will be this year.	106533400	1474643633932	1474643634198	SHIFT	16
206834	2242254	I wasn't as prepared as I will be this year.	I wasn't as prepared as I will be this year.	106533409	1474643634094	1474643634214	I	73
206834	2242254	I wasn't as prepared as I will be this year.	I wasn't as prepared as I will be this year.	106533419	1474643634318	1474643634404	 	32
206834	2242254	I wasn't as prepared as I will be this year.	I wasn't as prepared as I will be this year.	106533429	1474643634453	1474643634518	w	87
206834	2242254	I wasn't as prepared as I will be this year.	I wasn't as prepared as I will be this year.	106533435	1474643634671	1474643634751	a	65
206834	2242254	I wasn't as prepared as I will be this year.	I wasn't as prepared as I will be this year.	106533444	1474643634941	1474643635009	s	83
206834	2242254	I wasn't as prepared as I will be this year.	I wasn't as prepared as I will be this year.	106533546	1474643635342	1474643635411	n	78
206834	2242254	I wasn't as prepared as I will be this year.	I wasn't as prepared as I will be this year.	106533549	1474643635963	1474643636077	'	222
206834	2242254	I wasn't as prepared as I will be this year.	I wasn't as prepared as I will be this year.	106533557	1474643636323	1474643636394	t	84
206834	2242254	I wasn't as prepared as I will be this year.	I wasn't as prepared as I will be this year.	106533565	1474643636422	1474643636489	 	32
206834	2242254	I wasn't as prepared as I will be this year.	I wasn't as prepared as I will be this year.	106533571	1474643636618	1474643636735	a	65
206834	2242254	I wasn't as prepared as I will be this year.	I wasn't as prepared as I will be this year.	106533657	1474643636775	1474643636833	s	83
206834	2242254	I wasn't as prepared as I will be this year.	I wasn't as prepared as I will be this year.	106533660	1474643637306	1474643637394	 	32
206834	2242254	I wasn't as prepared as I will be this year.	I wasn't as prepared as I will be this year.	106533667	1474643637660	1474643637753	p	80
206834	2242254	I wasn't as prepared as I will be this year.	I wasn't as prepared as I will be this year.	106533673	1474643637878	1474643637936	r	82
206834	2242254	I wasn't as prepared as I will be this year.	I wasn't as prepared as I will be this year.	106533682	1474643638043	1474643638128	e	69
206834	2242254	I wasn't as prepared as I will be this year.	I wasn't as prepared as I will be this year.	106533798	1474643638386	1474643638438	a	65
206834	2242254	I wasn't as prepared as I will be this year.	I wasn't as prepared as I will be this year.	106533802	1474643638796	1474643638951	BKSP	8
206834	2242254	I wasn't as prepared as I will be this year.	I wasn't as prepared as I will be this year.	106533810	1474643639047	1474643639138	p	80
206834	2242254	I wasn't as prepared as I will be this year.	I wasn't as prepared as I will be this year.	106533818	1474643639263	1474643639349	a	65
206834	2242254	I wasn't as prepared as I will be this year.	I wasn't as prepared as I will be this year.	106533824	1474643639703	1474643639763	r	82
206834	2242254	I wasn't as prepared as I will be this year.	I wasn't as prepared as I will be this year.	106533829	1474643639878	1474643639951	e	69
206834	2242254	I wasn't as prepared as I will be this year.	I wasn't as prepared as I will be this year.	106533901	1474643640053	1474643640131	d	68
206834	2242254	I wasn't as prepared as I will be this year.	I wasn't as prepared as I will be this year.	106533907	1474643640191	1474643640289	 	32
206834	2242254	I wasn't as prepared as I will be this year.	I wasn't as prepared as I will be this year.	106533914	1474643640553	1474643640635	a	65
206834	2242254	I wasn't as prepared as I will be this year.	I wasn't as prepared as I will be this year.	106533918	1474643640744	1474643640823	s	83
206834	2242254	I wasn't as prepared as I will be this year.	I wasn't as prepared as I will be this year.	106533928	1474643640895	1474643641018	 	32
206834	2242254	I wasn't as prepared as I will be this year.	I wasn't as prepared as I will be this year.	106534087	1474643641323	1474643641468	SHIFT	16
206834	2242254	I wasn't as prepared as I will be this year.	I wasn't as prepared as I will be this year.	106534090	1474643641575	1474643641866	SHIFT	16
206834	2242254	I wasn't as prepared as I will be this year.	I wasn't as prepared as I will be this year.	106534089	1474643641755	1474643641819	I	73
206834	2242254	I wasn't as prepared as I will be this year.	I wasn't as prepared as I will be this year.	106534091	1474643642030	1474643642122	 	32
206834	2242254	I wasn't as prepared as I will be this year.	I wasn't as prepared as I will be this year.	106534092	1474643642445	1474643642509	w	87
206834	2242254	I wasn't as prepared as I will be this year.	I wasn't as prepared as I will be this year.	106534093	1474643642641	1474643642737	i	73
206834	2242254	I wasn't as prepared as I will be this year.	I wasn't as prepared as I will be this year.	106534094	1474643642874	1474643642956	l	76
206834	2242254	I wasn't as prepared as I will be this year.	I wasn't as prepared as I will be this year.	106534148	1474643643016	1474643643110	l	76
206834	2242254	I wasn't as prepared as I will be this year.	I wasn't as prepared as I will be this year.	106534152	1474643643147	1474643643260	 	32
206834	2242254	I wasn't as prepared as I will be this year.	I wasn't as prepared as I will be this year.	106534156	1474643643353	1474643643449	b	66
206834	2242254	I wasn't as prepared as I will be this year.	I wasn't as prepared as I will be this year.	106534160	1474643643526	1474643643599	e	69
206834	2242254	I wasn't as prepared as I will be this year.	I wasn't as prepared as I will be this year.	106534163	1474643643781	1474643643860	 	32
206834	2242254	I wasn't as prepared as I will be this year.	I wasn't as prepared as I will be this year.	106534250	1474643644115	1474643644200	t	84
206834	2242254	I wasn't as prepared as I will be this year.	I wasn't as prepared as I will be this year.	106534256	1474643644248	1474643644361	h	72
206834	2242254	I wasn't as prepared as I will be this year.	I wasn't as prepared as I will be this year.	106534262	1474643644449	1474643644566	i	73
206834	2242254	I wasn't as prepared as I will be this year.	I wasn't as prepared as I will be this year.	106534267	1474643644593	1474643644687	s	83
206834	2242254	I wasn't as prepared as I will be this year.	I wasn't as prepared as I will be this year.	106534269	1474643644745	1474643644866	 	32
206834	2242254	I wasn't as prepared as I will be this year.	I wasn't as prepared as I will be this year.	106534350	1474643645025	1474643645124	y	89
206834	2242254	I wasn't as prepared as I will be this year.	I wasn't as prepared as I will be this year.	106534354	1474643645182	1474643645261	e	69
206834	2242254	I wasn't as prepared as I will be this year.	I wasn't as prepared as I will be this year.	106534358	1474643645382	1474643645489	a	65
206834	2242254	I wasn't as prepared as I will be this year.	I wasn't as prepared as I will be this year.	106534364	1474643645601	1474643645709	r	82
206834	2242254	I wasn't as prepared as I will be this year.	I wasn't as prepared as I will be this year.	106534371	1474643645823	1474643645948	.	190
206834	2242288	World Cup fans at Stanford Stadium are almost certain to be fenced in.	World Cup fans at Stanford Stadium are almost certain to be fenced in.	106535147	1474643653686	1474643654077	SHIFT	16
206834	2242288	World Cup fans at Stanford Stadium are almost certain to be fenced in.	World Cup fans at Stanford Stadium are almost certain to be fenced in.	106535142	1474643653959	1474643654068	W	87
206834	2242288	World Cup fans at Stanford Stadium are almost certain to be fenced in.	World Cup fans at Stanford Stadium are almost certain to be fenced in.	106535150	1474643654422	1474643654499	o	79
206834	2242288	World Cup fans at Stanford Stadium are almost certain to be fenced in.	World Cup fans at Stanford Stadium are almost certain to be fenced in.	106535154	1474643654565	1474643654618	r	82
206834	2242288	World Cup fans at Stanford Stadium are almost certain to be fenced in.	World Cup fans at Stanford Stadium are almost certain to be fenced in.	106535158	1474643654702	1474643654807	l	76
206834	2242288	World Cup fans at Stanford Stadium are almost certain to be fenced in.	World Cup fans at Stanford Stadium are almost certain to be fenced in.	106535163	1474643654930	1474643655002	d	68
206834	2242288	World Cup fans at Stanford Stadium are almost certain to be fenced in.	World Cup fans at Stanford Stadium are almost certain to be fenced in.	106535345	1474643655118	1474643655201	 	32
206834	2242288	World Cup fans at Stanford Stadium are almost certain to be fenced in.	World Cup fans at Stanford Stadium are almost certain to be fenced in.	106535355	1474643655456	1474643655953	SHIFT	16
206834	2242288	World Cup fans at Stanford Stadium are almost certain to be fenced in.	World Cup fans at Stanford Stadium are almost certain to be fenced in.	106535349	1474643655767	1474643655908	C	67
206834	2242288	World Cup fans at Stanford Stadium are almost certain to be fenced in.	World Cup fans at Stanford Stadium are almost certain to be fenced in.	106535361	1474643656272	1474643656327	i	73
206834	2242288	World Cup fans at Stanford Stadium are almost certain to be fenced in.	World Cup fans at Stanford Stadium are almost certain to be fenced in.	106535368	1474643656925	1474643657060	BKSP	8
206834	2242288	World Cup fans at Stanford Stadium are almost certain to be fenced in.	World Cup fans at Stanford Stadium are almost certain to be fenced in.	106535374	1474643657099	1474643657191	u	85
206834	2242288	World Cup fans at Stanford Stadium are almost certain to be fenced in.	World Cup fans at Stanford Stadium are almost certain to be fenced in.	106535378	1474643657594	1474643657674	p	80
206834	2242288	World Cup fans at Stanford Stadium are almost certain to be fenced in.	World Cup fans at Stanford Stadium are almost certain to be fenced in.	106535442	1474643657683	1474643657779	 	32
206834	2242288	World Cup fans at Stanford Stadium are almost certain to be fenced in.	World Cup fans at Stanford Stadium are almost certain to be fenced in.	106535446	1474643657957	1474643658057	f	70
206834	2242288	World Cup fans at Stanford Stadium are almost certain to be fenced in.	World Cup fans at Stanford Stadium are almost certain to be fenced in.	106535451	1474643658500	1474643658603	a	65
206834	2242288	World Cup fans at Stanford Stadium are almost certain to be fenced in.	World Cup fans at Stanford Stadium are almost certain to be fenced in.	106535458	1474643658664	1474643658752	n	78
206834	2242288	World Cup fans at Stanford Stadium are almost certain to be fenced in.	World Cup fans at Stanford Stadium are almost certain to be fenced in.	106535462	1474643658783	1474643658872	s	83
206834	2242288	World Cup fans at Stanford Stadium are almost certain to be fenced in.	World Cup fans at Stanford Stadium are almost certain to be fenced in.	106535592	1474643658943	1474643659026	 	32
206834	2242288	World Cup fans at Stanford Stadium are almost certain to be fenced in.	World Cup fans at Stanford Stadium are almost certain to be fenced in.	106535598	1474643659339	1474643659412	a	65
206834	2242288	World Cup fans at Stanford Stadium are almost certain to be fenced in.	World Cup fans at Stanford Stadium are almost certain to be fenced in.	106535611	1474643659622	1474643659686	t	84
206834	2242288	World Cup fans at Stanford Stadium are almost certain to be fenced in.	World Cup fans at Stanford Stadium are almost certain to be fenced in.	106535617	1474643659754	1474643659837	 	32
206834	2242288	World Cup fans at Stanford Stadium are almost certain to be fenced in.	World Cup fans at Stanford Stadium are almost certain to be fenced in.	106535632	1474643659964	1474643660263	SHIFT	16
206834	2242288	World Cup fans at Stanford Stadium are almost certain to be fenced in.	World Cup fans at Stanford Stadium are almost certain to be fenced in.	106535695	1474643660182	1474643660272	S	83
206834	2242288	World Cup fans at Stanford Stadium are almost certain to be fenced in.	World Cup fans at Stanford Stadium are almost certain to be fenced in.	106535700	1474643660495	1474643660552	t	84
206834	2242288	World Cup fans at Stanford Stadium are almost certain to be fenced in.	World Cup fans at Stanford Stadium are almost certain to be fenced in.	106535708	1474643660749	1474643660823	a	65
206834	2242288	World Cup fans at Stanford Stadium are almost certain to be fenced in.	World Cup fans at Stanford Stadium are almost certain to be fenced in.	106535712	1474643660906	1474643661001	n	78
206834	2242288	World Cup fans at Stanford Stadium are almost certain to be fenced in.	World Cup fans at Stanford Stadium are almost certain to be fenced in.	106535718	1474643661104	1474643661186	f	70
206834	2242288	World Cup fans at Stanford Stadium are almost certain to be fenced in.	World Cup fans at Stanford Stadium are almost certain to be fenced in.	106535722	1474643661233	1474643661332	o	79
206834	2242288	World Cup fans at Stanford Stadium are almost certain to be fenced in.	World Cup fans at Stanford Stadium are almost certain to be fenced in.	106535809	1474643661392	1474643661454	r	82
206834	2242288	World Cup fans at Stanford Stadium are almost certain to be fenced in.	World Cup fans at Stanford Stadium are almost certain to be fenced in.	106535816	1474643661600	1474643661674	d	68
206834	2242288	World Cup fans at Stanford Stadium are almost certain to be fenced in.	World Cup fans at Stanford Stadium are almost certain to be fenced in.	106535821	1474643661736	1474643661817	 	32
206834	2242288	World Cup fans at Stanford Stadium are almost certain to be fenced in.	World Cup fans at Stanford Stadium are almost certain to be fenced in.	106535828	1474643662264	1474643662444	SHIFT	16
206834	2242288	World Cup fans at Stanford Stadium are almost certain to be fenced in.	World Cup fans at Stanford Stadium are almost certain to be fenced in.	106535834	1474643662498	1474643662724	SHIFT	16
206834	2242288	World Cup fans at Stanford Stadium are almost certain to be fenced in.	World Cup fans at Stanford Stadium are almost certain to be fenced in.	106535841	1474643662646	1474643662734	S	83
206834	2242288	World Cup fans at Stanford Stadium are almost certain to be fenced in.	World Cup fans at Stanford Stadium are almost certain to be fenced in.	106535848	1474643662961	1474643663021	t	84
206834	2242288	World Cup fans at Stanford Stadium are almost certain to be fenced in.	World Cup fans at Stanford Stadium are almost certain to be fenced in.	106535931	1474643663215	1474643663336	a	65
206834	2242288	World Cup fans at Stanford Stadium are almost certain to be fenced in.	World Cup fans at Stanford Stadium are almost certain to be fenced in.	106535936	1474643663426	1474643663517	d	68
206834	2242288	World Cup fans at Stanford Stadium are almost certain to be fenced in.	World Cup fans at Stanford Stadium are almost certain to be fenced in.	106535942	1474643663903	1474643664007	i	73
206834	2242288	World Cup fans at Stanford Stadium are almost certain to be fenced in.	World Cup fans at Stanford Stadium are almost certain to be fenced in.	106535949	1474643664110	1474643664170	u	85
206834	2242288	World Cup fans at Stanford Stadium are almost certain to be fenced in.	World Cup fans at Stanford Stadium are almost certain to be fenced in.	106535956	1474643664313	1474643664407	m	77
206834	2242288	World Cup fans at Stanford Stadium are almost certain to be fenced in.	World Cup fans at Stanford Stadium are almost certain to be fenced in.	106536031	1474643664498	1474643664581	 	32
206834	2242288	World Cup fans at Stanford Stadium are almost certain to be fenced in.	World Cup fans at Stanford Stadium are almost certain to be fenced in.	106536035	1474643664863	1474643664948	a	65
206834	2242288	World Cup fans at Stanford Stadium are almost certain to be fenced in.	World Cup fans at Stanford Stadium are almost certain to be fenced in.	106536043	1474643665124	1474643665185	r	82
206834	2242288	World Cup fans at Stanford Stadium are almost certain to be fenced in.	World Cup fans at Stanford Stadium are almost certain to be fenced in.	106536050	1474643665284	1474643665361	e	69
206834	2242288	World Cup fans at Stanford Stadium are almost certain to be fenced in.	World Cup fans at Stanford Stadium are almost certain to be fenced in.	106536055	1474643665397	1474643665502	 	32
206834	2242288	World Cup fans at Stanford Stadium are almost certain to be fenced in.	World Cup fans at Stanford Stadium are almost certain to be fenced in.	106536104	1474643665567	1474643665678	a	65
206834	2242288	World Cup fans at Stanford Stadium are almost certain to be fenced in.	World Cup fans at Stanford Stadium are almost certain to be fenced in.	106536110	1474643665708	1474643665853	l	76
206834	2242288	World Cup fans at Stanford Stadium are almost certain to be fenced in.	World Cup fans at Stanford Stadium are almost certain to be fenced in.	106536118	1474643665894	1474643666005	m	77
206834	2242288	World Cup fans at Stanford Stadium are almost certain to be fenced in.	World Cup fans at Stanford Stadium are almost certain to be fenced in.	106536126	1474643666090	1474643666185	o	79
206834	2242288	World Cup fans at Stanford Stadium are almost certain to be fenced in.	World Cup fans at Stanford Stadium are almost certain to be fenced in.	106536134	1474643666217	1474643666306	s	83
206834	2242288	World Cup fans at Stanford Stadium are almost certain to be fenced in.	World Cup fans at Stanford Stadium are almost certain to be fenced in.	106536243	1474643666485	1474643666559	t	84
206834	2242288	World Cup fans at Stanford Stadium are almost certain to be fenced in.	World Cup fans at Stanford Stadium are almost certain to be fenced in.	106536251	1474643666642	1474643666720	 	32
206834	2242288	World Cup fans at Stanford Stadium are almost certain to be fenced in.	World Cup fans at Stanford Stadium are almost certain to be fenced in.	106536258	1474643667185	1474643667249	c	67
206834	2242288	World Cup fans at Stanford Stadium are almost certain to be fenced in.	World Cup fans at Stanford Stadium are almost certain to be fenced in.	106536266	1474643667472	1474643667536	e	69
206834	2242288	World Cup fans at Stanford Stadium are almost certain to be fenced in.	World Cup fans at Stanford Stadium are almost certain to be fenced in.	106536276	1474643667653	1474643667729	r	82
206834	2242288	World Cup fans at Stanford Stadium are almost certain to be fenced in.	World Cup fans at Stanford Stadium are almost certain to be fenced in.	106536468	1474643667852	1474643667923	t	84
206834	2242288	World Cup fans at Stanford Stadium are almost certain to be fenced in.	World Cup fans at Stanford Stadium are almost certain to be fenced in.	106536472	1474643669298	1474643669396	a	65
206834	2242288	World Cup fans at Stanford Stadium are almost certain to be fenced in.	World Cup fans at Stanford Stadium are almost certain to be fenced in.	106536476	1474643669434	1474643669558	i	73
206834	2242288	World Cup fans at Stanford Stadium are almost certain to be fenced in.	World Cup fans at Stanford Stadium are almost certain to be fenced in.	106536481	1474643669616	1474643669700	n	78
206834	2242288	World Cup fans at Stanford Stadium are almost certain to be fenced in.	World Cup fans at Stanford Stadium are almost certain to be fenced in.	106536486	1474643669770	1474643669863	 	32
206834	2242288	World Cup fans at Stanford Stadium are almost certain to be fenced in.	World Cup fans at Stanford Stadium are almost certain to be fenced in.	106536584	1474643670307	1474643670390	t	84
206834	2242288	World Cup fans at Stanford Stadium are almost certain to be fenced in.	World Cup fans at Stanford Stadium are almost certain to be fenced in.	106536588	1474643670447	1474643670532	o	79
206834	2242288	World Cup fans at Stanford Stadium are almost certain to be fenced in.	World Cup fans at Stanford Stadium are almost certain to be fenced in.	106536591	1474643670592	1474643670687	 	32
206834	2242288	World Cup fans at Stanford Stadium are almost certain to be fenced in.	World Cup fans at Stanford Stadium are almost certain to be fenced in.	106536595	1474643671129	1474643671198	b	66
206834	2242288	World Cup fans at Stanford Stadium are almost certain to be fenced in.	World Cup fans at Stanford Stadium are almost certain to be fenced in.	106536601	1474643671277	1474643671351	e	69
206834	2242288	World Cup fans at Stanford Stadium are almost certain to be fenced in.	World Cup fans at Stanford Stadium are almost certain to be fenced in.	106536699	1474643671388	1474643671478	 	32
206834	2242288	World Cup fans at Stanford Stadium are almost certain to be fenced in.	World Cup fans at Stanford Stadium are almost certain to be fenced in.	106536705	1474643671604	1474643671679	f	70
206834	2242288	World Cup fans at Stanford Stadium are almost certain to be fenced in.	World Cup fans at Stanford Stadium are almost certain to be fenced in.	106536710	1474643671773	1474643671860	e	69
206834	2242288	World Cup fans at Stanford Stadium are almost certain to be fenced in.	World Cup fans at Stanford Stadium are almost certain to be fenced in.	106536715	1474643671908	1474643671997	n	78
206834	2242288	World Cup fans at Stanford Stadium are almost certain to be fenced in.	World Cup fans at Stanford Stadium are almost certain to be fenced in.	106536722	1474643672401	1474643672466	c	67
206834	2242288	World Cup fans at Stanford Stadium are almost certain to be fenced in.	World Cup fans at Stanford Stadium are almost certain to be fenced in.	106536760	1474643672591	1474643672656	e	69
206834	2242288	World Cup fans at Stanford Stadium are almost certain to be fenced in.	World Cup fans at Stanford Stadium are almost certain to be fenced in.	106536769	1474643672759	1474643672849	d	68
206834	2242288	World Cup fans at Stanford Stadium are almost certain to be fenced in.	World Cup fans at Stanford Stadium are almost certain to be fenced in.	106536776	1474643672862	1474643672986	 	32
206834	2242288	World Cup fans at Stanford Stadium are almost certain to be fenced in.	World Cup fans at Stanford Stadium are almost certain to be fenced in.	106536786	1474643673072	1474643673205	i	73
206834	2242288	World Cup fans at Stanford Stadium are almost certain to be fenced in.	World Cup fans at Stanford Stadium are almost certain to be fenced in.	106536798	1474643673239	1474643673325	n	78
206834	2242288	World Cup fans at Stanford Stadium are almost certain to be fenced in.	World Cup fans at Stanford Stadium are almost certain to be fenced in.	106536819	1474643673604	1474643673734	.	190
206834	2242345	This event will be a blast.	This event will be a blast.	106537672	1474643683233	1474643683724	SHIFT	16
206834	2242345	This event will be a blast.	This event will be a blast.	106537659	1474643683613	1474643683703	T	84
206834	2242345	This event will be a blast.	This event will be a blast.	106537680	1474643683809	1474643683939	h	72
206834	2242345	This event will be a blast.	This event will be a blast.	106537688	1474643684283	1474643684366	i	73
206834	2242345	This event will be a blast.	This event will be a blast.	106537694	1474643684386	1474643684485	s	83
206834	2242345	This event will be a blast.	This event will be a blast.	106537702	1474643684609	1474643684713	 	32
206834	2242345	This event will be a blast.	This event will be a blast.	106537756	1474643685016	1474643685076	e	69
206834	2242345	This event will be a blast.	This event will be a blast.	106537761	1474643685231	1474643685307	v	86
206834	2242345	This event will be a blast.	This event will be a blast.	106537772	1474643685372	1474643685448	e	69
206834	2242345	This event will be a blast.	This event will be a blast.	106537780	1474643685523	1474643685618	n	78
206834	2242345	This event will be a blast.	This event will be a blast.	106537787	1474643685694	1474643685779	t	84
206834	2242345	This event will be a blast.	This event will be a blast.	106537845	1474643685849	1474643685947	 	32
206834	2242345	This event will be a blast.	This event will be a blast.	106537851	1474643686071	1474643686162	w	87
206834	2242345	This event will be a blast.	This event will be a blast.	106537857	1474643686199	1474643686293	i	73
206834	2242345	This event will be a blast.	This event will be a blast.	106537864	1474643686453	1474643686512	l	76
206834	2242345	This event will be a blast.	This event will be a blast.	106537876	1474643686591	1474643686663	l	76
206834	2242345	This event will be a blast.	This event will be a blast.	106537952	1474643686759	1474643686877	 	32
206834	2242345	This event will be a blast.	This event will be a blast.	106537956	1474643686932	1474643687017	b	66
206834	2242345	This event will be a blast.	This event will be a blast.	106537963	1474643687107	1474643687187	e	69
206834	2242345	This event will be a blast.	This event will be a blast.	106537970	1474643687241	1474643687321	 	32
206834	2242345	This event will be a blast.	This event will be a blast.	106537978	1474643687420	1474643687517	a	65
206834	2242345	This event will be a blast.	This event will be a blast.	106538195	1474643687793	1474643687862	b	66
206834	2242345	This event will be a blast.	This event will be a blast.	106538201	1474643688336	1474643688446	l	76
206834	2242345	This event will be a blast.	This event will be a blast.	106538206	1474643688525	1474643688635	a	65
206834	2242345	This event will be a blast.	This event will be a blast.	106538210	1474643688745	1474643688823	s	83
206834	2242345	This event will be a blast.	This event will be a blast.	106538214	1474643689535	1474643689610	BKSP	8
206834	2242345	This event will be a blast.	This event will be a blast.	106538217	1474643689715	1474643689794	BKSP	8
206834	2242345	This event will be a blast.	This event will be a blast.	106538219	1474643689881	1474643689985	BKSP	8
206834	2242345	This event will be a blast.	This event will be a blast.	106538223	1474643690182	1474643690308	BKSP	8
206834	2242345	This event will be a blast.	This event will be a blast.	106538226	1474643690344	1474643690422	 	32
206834	2242345	This event will be a blast.	This event will be a blast.	106538291	1474643690774	1474643690878	b	66
206834	2242345	This event will be a blast.	This event will be a blast.	106538294	1474643691246	1474643691353	l	76
206834	2242345	This event will be a blast.	This event will be a blast.	106538300	1474643691415	1474643691533	a	65
206834	2242345	This event will be a blast.	This event will be a blast.	106538306	1474643691587	1474643691701	s	83
206834	2242345	This event will be a blast.	This event will be a blast.	106538314	1474643691880	1474643691965	t	84
206834	2242345	This event will be a blast.	This event will be a blast.	106538386	1474643692285	1474643692435	.	190
206834	2242379	I still believe a September 30 closing is unrealistic.	I still believe a September 30 closing is unrealistic.	106539411	1474643703034	1474643703323	SHIFT	16
206834	2242379	I still believe a September 30 closing is unrealistic.	I still believe a September 30 closing is unrealistic.	106539404	1474643703138	1474643703265	I	73
206834	2242379	I still believe a September 30 closing is unrealistic.	I still believe a September 30 closing is unrealistic.	106539418	1474643703380	1474643703472	 	32
206834	2242379	I still believe a September 30 closing is unrealistic.	I still believe a September 30 closing is unrealistic.	106539427	1474643703587	1474643703661	s	83
206834	2242379	I still believe a September 30 closing is unrealistic.	I still believe a September 30 closing is unrealistic.	106539434	1474643703901	1474643703964	t	84
206834	2242379	I still believe a September 30 closing is unrealistic.	I still believe a September 30 closing is unrealistic.	106539441	1474643704485	1474643704577	i	73
206834	2242379	I still believe a September 30 closing is unrealistic.	I still believe a September 30 closing is unrealistic.	106539536	1474643705141	1474643705206	l	76
206834	2242379	I still believe a September 30 closing is unrealistic.	I still believe a September 30 closing is unrealistic.	106539542	1474643705282	1474643705364	l	76
206834	2242379	I still believe a September 30 closing is unrealistic.	I still believe a September 30 closing is unrealistic.	106539547	1474643705438	1474643705531	 	32
206834	2242379	I still believe a September 30 closing is unrealistic.	I still believe a September 30 closing is unrealistic.	106539556	1474643705807	1474643705881	b	66
206834	2242379	I still believe a September 30 closing is unrealistic.	I still believe a September 30 closing is unrealistic.	106539565	1474643705993	1474643706073	e	69
206834	2242379	I still believe a September 30 closing is unrealistic.	I still believe a September 30 closing is unrealistic.	106539655	1474643706139	1474643706259	l	76
206834	2242379	I still believe a September 30 closing is unrealistic.	I still believe a September 30 closing is unrealistic.	106539659	1474643706413	1474643706513	i	73
206834	2242379	I still believe a September 30 closing is unrealistic.	I still believe a September 30 closing is unrealistic.	106539669	1474643706694	1474643706758	v	86
206834	2242379	I still believe a September 30 closing is unrealistic.	I still believe a September 30 closing is unrealistic.	106539679	1474643706933	1474643707017	e	69
206834	2242379	I still believe a September 30 closing is unrealistic.	I still believe a September 30 closing is unrealistic.	106539686	1474643707214	1474643707317	 	32
206834	2242379	I still believe a September 30 closing is unrealistic.	I still believe a September 30 closing is unrealistic.	106539813	1474643707642	1474643707739	a	65
206834	2242379	I still believe a September 30 closing is unrealistic.	I still believe a September 30 closing is unrealistic.	106539825	1474643707794	1474643707870	 	32
206834	2242379	I still believe a September 30 closing is unrealistic.	I still believe a September 30 closing is unrealistic.	106539839	1474643707954	1474643708576	SHIFT	16
206834	2242379	I still believe a September 30 closing is unrealistic.	I still believe a September 30 closing is unrealistic.	106539829	1474643708479	1474643708555	S	83
206834	2242379	I still believe a September 30 closing is unrealistic.	I still believe a September 30 closing is unrealistic.	106539843	1474643708740	1474643708812	e	69
206834	2242379	I still believe a September 30 closing is unrealistic.	I still believe a September 30 closing is unrealistic.	106539847	1474643709049	1474643709131	p	80
206834	2242379	I still believe a September 30 closing is unrealistic.	I still believe a September 30 closing is unrealistic.	106540044	1474643709170	1474643709239	r	82
206834	2242379	I still believe a September 30 closing is unrealistic.	I still believe a September 30 closing is unrealistic.	106540049	1474643709754	1474643709874	BKSP	8
206834	2242379	I still believe a September 30 closing is unrealistic.	I still believe a September 30 closing is unrealistic.	106540058	1474643709898	1474643709967	t	84
206834	2242379	I still believe a September 30 closing is unrealistic.	I still believe a September 30 closing is unrealistic.	106540064	1474643711359	1474643711442	e	69
206834	2242379	I still believe a September 30 closing is unrealistic.	I still believe a September 30 closing is unrealistic.	106540069	1474643711588	1474643711699	m	77
206834	2242379	I still believe a September 30 closing is unrealistic.	I still believe a September 30 closing is unrealistic.	106540072	1474643711906	1474643711994	b	66
206834	2242379	I still believe a September 30 closing is unrealistic.	I still believe a September 30 closing is unrealistic.	106540605	1474643712066	1474643712154	e	69
206834	2242379	I still believe a September 30 closing is unrealistic.	I still believe a September 30 closing is unrealistic.	106540610	1474643712245	1474643712328	r	82
206834	2242379	I still believe a September 30 closing is unrealistic.	I still believe a September 30 closing is unrealistic.	106540614	1474643712629	1474643712722	ARW_LEFT	37
206834	2242379	I still believe a September 30 closing is unrealistic.	I still believe a September 30 closing is unrealistic.	106540618	1474643712815	1474643712871	ARW_LEFT	37
206834	2242379	I still believe a September 30 closing is unrealistic.	I still believe a September 30 closing is unrealistic.	106540623	1474643712967	1474643713046	ARW_LEFT	37
206834	2242379	I still believe a September 30 closing is unrealistic.	I still believe a September 30 closing is unrealistic.	106540629	1474643713137	1474643713211	ARW_LEFT	37
206834	2242379	I still believe a September 30 closing is unrealistic.	I still believe a September 30 closing is unrealistic.	106540637	1474643713304	1474643713364	ARW_LEFT	37
206834	2242379	I still believe a September 30 closing is unrealistic.	I still believe a September 30 closing is unrealistic.	106540645	1474643713459	1474643713520	ARW_LEFT	37
206834	2242379	I still believe a September 30 closing is unrealistic.	I still believe a September 30 closing is unrealistic.	106540652	1474643713654	1474643713692	ARW_LEFT	37
206834	2242379	I still believe a September 30 closing is unrealistic.	I still believe a September 30 closing is unrealistic.	106540658	1474643713788	1474643713831	ARW_LEFT	37
206834	2242379	I still believe a September 30 closing is unrealistic.	I still believe a September 30 closing is unrealistic.	106540665	1474643713921	1474643713975	ARW_LEFT	37
206834	2242379	I still believe a September 30 closing is unrealistic.	I still believe a September 30 closing is unrealistic.	106540675	1474643714081	1474643714130	ARW_LEFT	37
206834	2242379	I still believe a September 30 closing is unrealistic.	I still believe a September 30 closing is unrealistic.	106540681	1474643714248	1474643714309	ARW_LEFT	37
206834	2242379	I still believe a September 30 closing is unrealistic.	I still believe a September 30 closing is unrealistic.	106540689	1474643714419	1474643714462	ARW_LEFT	37
206834	2242379	I still believe a September 30 closing is unrealistic.	I still believe a September 30 closing is unrealistic.	106540696	1474643714562	1474643714645	ARW_LEFT	37
206834	2242379	I still believe a September 30 closing is unrealistic.	I still believe a September 30 closing is unrealistic.	106540702	1474643714781	1474643714863	ARW_LEFT	37
206834	2242379	I still believe a September 30 closing is unrealistic.	I still believe a September 30 closing is unrealistic.	106540710	1474643715415	1474643715498	e	69
206834	2242379	I still believe a September 30 closing is unrealistic.	I still believe a September 30 closing is unrealistic.	106540717	1474643715551	1474643715751	ARW_RIGHT	39
206834	2242379	I still believe a September 30 closing is unrealistic.	I still believe a September 30 closing is unrealistic.	106540725	1474643716076	1474643716197	ARW_RIGHT	39
206834	2242379	I still believe a September 30 closing is unrealistic.	I still believe a September 30 closing is unrealistic.	106540763	1474643716338	1474643717276	CTRL	17
206834	2242379	I still believe a September 30 closing is unrealistic.	I still believe a September 30 closing is unrealistic.	106540733	1474643716444	1474643716512	ARW_RIGHT	39
206834	2242379	I still believe a September 30 closing is unrealistic.	I still believe a September 30 closing is unrealistic.	106540743	1474643716630	1474643716697	ARW_RIGHT	39
206834	2242379	I still believe a September 30 closing is unrealistic.	I still believe a September 30 closing is unrealistic.	106540748	1474643716807	1474643716882	ARW_RIGHT	39
206834	2242379	I still believe a September 30 closing is unrealistic.	I still believe a September 30 closing is unrealistic.	106540757	1474643716989	1474643717071	ARW_RIGHT	39
206834	2242379	I still believe a September 30 closing is unrealistic.	I still believe a September 30 closing is unrealistic.	106540767	1474643717547	1474643717668	 	32
206834	2242379	I still believe a September 30 closing is unrealistic.	I still believe a September 30 closing is unrealistic.	106540771	1474643718183	1474643718260	3	99
206834	2242379	I still believe a September 30 closing is unrealistic.	I still believe a September 30 closing is unrealistic.	106540730	1474643718366	1474643718497	0	96
206834	2242379	I still believe a September 30 closing is unrealistic.	I still believe a September 30 closing is unrealistic.	106540738	1474643718513	1474643718591	 	32
206834	2242379	I still believe a September 30 closing is unrealistic.	I still believe a September 30 closing is unrealistic.	106540747	1474643718992	1474643719078	c	67
206834	2242379	I still believe a September 30 closing is unrealistic.	I still believe a September 30 closing is unrealistic.	106540753	1474643719109	1474643719237	l	76
206834	2242379	I still believe a September 30 closing is unrealistic.	I still believe a September 30 closing is unrealistic.	106540759	1474643719270	1474643719383	o	79
206834	2242379	I still believe a September 30 closing is unrealistic.	I still believe a September 30 closing is unrealistic.	106540846	1474643719398	1474643719488	s	83
206834	2242379	I still believe a September 30 closing is unrealistic.	I still believe a September 30 closing is unrealistic.	106540849	1474643719580	1474643719682	i	73
206834	2242379	I still believe a September 30 closing is unrealistic.	I still believe a September 30 closing is unrealistic.	106540857	1474643719801	1474643719876	n	78
206834	2242379	I still believe a September 30 closing is unrealistic.	I still believe a September 30 closing is unrealistic.	106540864	1474643719991	1474643720083	g	71
206834	2242379	I still believe a September 30 closing is unrealistic.	I still believe a September 30 closing is unrealistic.	106540869	1474643720511	1474643720653	 	32
206834	2242379	I still believe a September 30 closing is unrealistic.	I still believe a September 30 closing is unrealistic.	106541028	1474643721318	1474643721402	i	73
206834	2242379	I still believe a September 30 closing is unrealistic.	I still believe a September 30 closing is unrealistic.	106541031	1474643721637	1474643721725	s	83
206834	2242379	I still believe a September 30 closing is unrealistic.	I still believe a September 30 closing is unrealistic.	106541040	1474643721763	1474643721872	 	32
206834	2242379	I still believe a September 30 closing is unrealistic.	I still believe a September 30 closing is unrealistic.	106541046	1474643722278	1474643722375	u	85
206834	2242379	I still believe a September 30 closing is unrealistic.	I still believe a September 30 closing is unrealistic.	106541050	1474643722481	1474643722558	n	78
206834	2242379	I still believe a September 30 closing is unrealistic.	I still believe a September 30 closing is unrealistic.	106541134	1474643722680	1474643722760	r	82
206834	2242379	I still believe a September 30 closing is unrealistic.	I still believe a September 30 closing is unrealistic.	106541139	1474643722904	1474643722992	e	69
206834	2242379	I still believe a September 30 closing is unrealistic.	I still believe a September 30 closing is unrealistic.	106541144	1474643723144	1474643723274	l	76
206834	2242379	I still believe a September 30 closing is unrealistic.	I still believe a September 30 closing is unrealistic.	106541149	1474643723509	1474643723647	BKSP	8
206834	2242379	I still believe a September 30 closing is unrealistic.	I still believe a September 30 closing is unrealistic.	106541155	1474643723683	1474643723775	a	65
206834	2242379	I still believe a September 30 closing is unrealistic.	I still believe a September 30 closing is unrealistic.	106541161	1474643723827	1474643723950	l	76
206834	2242379	I still believe a September 30 closing is unrealistic.	I still believe a September 30 closing is unrealistic.	106541241	1474643724445	1474643724536	i	73
206834	2242379	I still believe a September 30 closing is unrealistic.	I still believe a September 30 closing is unrealistic.	106541243	1474643724594	1474643724683	s	83
206834	2242379	I still believe a September 30 closing is unrealistic.	I still believe a September 30 closing is unrealistic.	106541251	1474643724875	1474643724953	t	84
206834	2242379	I still believe a September 30 closing is unrealistic.	I still believe a September 30 closing is unrealistic.	106541256	1474643725053	1474643725153	i	73
206834	2242379	I still believe a September 30 closing is unrealistic.	I still believe a September 30 closing is unrealistic.	106541261	1474643725229	1474643725327	c	67
206834	2242379	I still believe a September 30 closing is unrealistic.	I still believe a September 30 closing is unrealistic.	106541325	1474643726055	1474643726186	.	190
206834	2242446	Tried to call but couldn't reach you.	Tried to call but couldn't reach you.	106542760	1474643740241	1474643740661	SHIFT	16
206834	2242446	Tried to call but couldn't reach you.	Tried to call but couldn't reach you.	106542764	1474643740592	1474643740670	T	84
206834	2242446	Tried to call but couldn't reach you.	Tried to call but couldn't reach you.	106542766	1474643740824	1474643740905	r	82
206834	2242446	Tried to call but couldn't reach you.	Tried to call but couldn't reach you.	106542775	1474643740984	1474643741065	i	73
206834	2242446	Tried to call but couldn't reach you.	Tried to call but couldn't reach you.	106542778	1474643741150	1474643741233	e	69
206834	2242446	Tried to call but couldn't reach you.	Tried to call but couldn't reach you.	106542782	1474643741341	1474643741433	d	68
206834	2242446	Tried to call but couldn't reach you.	Tried to call but couldn't reach you.	106542886	1474643741454	1474643741583	 	32
206834	2242446	Tried to call but couldn't reach you.	Tried to call but couldn't reach you.	106542891	1474643741650	1474643741743	t	84
206834	2242446	Tried to call but couldn't reach you.	Tried to call but couldn't reach you.	106542897	1474643741932	1474643742044	o	79
206834	2242446	Tried to call but couldn't reach you.	Tried to call but couldn't reach you.	106542905	1474643742063	1474643742174	 	32
206834	2242446	Tried to call but couldn't reach you.	Tried to call but couldn't reach you.	106542915	1474643742440	1474643742498	c	67
206834	2242446	Tried to call but couldn't reach you.	Tried to call but couldn't reach you.	106542973	1474643742659	1474643742752	a	65
206834	2242446	Tried to call but couldn't reach you.	Tried to call but couldn't reach you.	106542980	1474643742841	1474643742918	l	76
206834	2242446	Tried to call but couldn't reach you.	Tried to call but couldn't reach you.	106542990	1474643743013	1474643743063	l	76
206834	2242446	Tried to call but couldn't reach you.	Tried to call but couldn't reach you.	106542996	1474643743155	1474643743264	 	32
206834	2242446	Tried to call but couldn't reach you.	Tried to call but couldn't reach you.	106543000	1474643743570	1474643743654	b	66
206834	2242446	Tried to call but couldn't reach you.	Tried to call but couldn't reach you.	106543073	1474643743764	1474643743836	u	85
206834	2242446	Tried to call but couldn't reach you.	Tried to call but couldn't reach you.	106543082	1474643743975	1474643744057	t	84
206834	2242446	Tried to call but couldn't reach you.	Tried to call but couldn't reach you.	106543092	1474643744132	1474643744252	 	32
206834	2242446	Tried to call but couldn't reach you.	Tried to call but couldn't reach you.	106543101	1474643744606	1474643744687	c	67
206834	2242446	Tried to call but couldn't reach you.	Tried to call but couldn't reach you.	106543110	1474643744730	1474643744843	o	79
206834	2242446	Tried to call but couldn't reach you.	Tried to call but couldn't reach you.	106543357	1474643745001	1474643745070	u	85
206834	2242446	Tried to call but couldn't reach you.	Tried to call but couldn't reach you.	106543366	1474643745245	1474643745348	l	76
206834	2242446	Tried to call but couldn't reach you.	Tried to call but couldn't reach you.	106543373	1474643746067	1474643746132	d	68
206834	2242446	Tried to call but couldn't reach you.	Tried to call but couldn't reach you.	106543381	1474643746347	1474643746436	n	78
206834	2242446	Tried to call but couldn't reach you.	Tried to call but couldn't reach you.	106543389	1474643747924	1474643748020	'	222
206834	2242446	Tried to call but couldn't reach you.	Tried to call but couldn't reach you.	106543585	1474643748285	1474643748365	t	84
206834	2242446	Tried to call but couldn't reach you.	Tried to call but couldn't reach you.	106543590	1474643748467	1474643748554	 	32
206834	2242446	Tried to call but couldn't reach you.	Tried to call but couldn't reach you.	106543596	1474643749348	1474643749384	r	82
206834	2242446	Tried to call but couldn't reach you.	Tried to call but couldn't reach you.	106543602	1474643749494	1474643749565	e	69
206834	2242446	Tried to call but couldn't reach you.	Tried to call but couldn't reach you.	106543607	1474643749787	1474643749902	a	65
206834	2242446	Tried to call but couldn't reach you.	Tried to call but couldn't reach you.	106543735	1474643750006	1474643750149	c	67
206834	2242446	Tried to call but couldn't reach you.	Tried to call but couldn't reach you.	106543744	1474643750232	1474643750328	h	72
206834	2242446	Tried to call but couldn't reach you.	Tried to call but couldn't reach you.	106543752	1474643750386	1474643750476	 	32
206834	2242446	Tried to call but couldn't reach you.	Tried to call but couldn't reach you.	106543760	1474643750871	1474643750961	y	89
206834	2242446	Tried to call but couldn't reach you.	Tried to call but couldn't reach you.	106543765	1474643750995	1474643751130	o	79
206834	2242446	Tried to call but couldn't reach you.	Tried to call but couldn't reach you.	106543806	1474643751155	1474643751212	u	85
206834	2242446	Tried to call but couldn't reach you.	Tried to call but couldn't reach you.	106543809	1474643751445	1474643751594	.	190
206834	2242488	The Auction this year is hosted by EGS.	The Auction this year is hosted by EGS.	106544344	1474643756493	1474643756910	SHIFT	16
206834	2242488	The Auction this year is hosted by EGS.	The Auction this year is hosted by EGS.	106544334	1474643756812	1474643756901	T	84
206834	2242488	The Auction this year is hosted by EGS.	The Auction this year is hosted by EGS.	106544354	1474643756983	1474643757066	h	72
206834	2242488	The Auction this year is hosted by EGS.	The Auction this year is hosted by EGS.	106544371	1474643757131	1474643757206	e	69
206834	2242488	The Auction this year is hosted by EGS.	The Auction this year is hosted by EGS.	106544380	1474643757310	1474643757381	 	32
206834	2242488	The Auction this year is hosted by EGS.	The Auction this year is hosted by EGS.	106544451	1474643757466	1474643757808	SHIFT	16
206834	2242488	The Auction this year is hosted by EGS.	The Auction this year is hosted by EGS.	106544388	1474643757669	1474643757762	A	65
206834	2242488	The Auction this year is hosted by EGS.	The Auction this year is hosted by EGS.	106544464	1474643757858	1474643757932	u	85
206834	2242488	The Auction this year is hosted by EGS.	The Auction this year is hosted by EGS.	106544479	1474643758077	1474643758152	c	67
206834	2242488	The Auction this year is hosted by EGS.	The Auction this year is hosted by EGS.	106544489	1474643758388	1474643758467	t	84
206834	2242488	The Auction this year is hosted by EGS.	The Auction this year is hosted by EGS.	106544501	1474643758570	1474643758690	i	73
206834	2242488	The Auction this year is hosted by EGS.	The Auction this year is hosted by EGS.	106544509	1474643758757	1474643758888	o	79
206834	2242488	The Auction this year is hosted by EGS.	The Auction this year is hosted by EGS.	106544566	1474643758990	1474643759097	n	78
206834	2242488	The Auction this year is hosted by EGS.	The Auction this year is hosted by EGS.	106544572	1474643759123	1474643759215	 	32
206834	2242488	The Auction this year is hosted by EGS.	The Auction this year is hosted by EGS.	106544578	1474643759397	1474643759475	t	84
206834	2242488	The Auction this year is hosted by EGS.	The Auction this year is hosted by EGS.	106544583	1474643759545	1474643759681	h	72
206834	2242488	The Auction this year is hosted by EGS.	The Auction this year is hosted by EGS.	106544588	1474643759763	1474643759891	i	73
206834	2242488	The Auction this year is hosted by EGS.	The Auction this year is hosted by EGS.	106544677	1474643759916	1474643760027	s	83
206834	2242488	The Auction this year is hosted by EGS.	The Auction this year is hosted by EGS.	106544682	1474643760086	1474643760183	 	32
206834	2242488	The Auction this year is hosted by EGS.	The Auction this year is hosted by EGS.	106544692	1474643760509	1474643760593	y	89
206834	2242488	The Auction this year is hosted by EGS.	The Auction this year is hosted by EGS.	106544700	1474643760646	1474643760716	e	69
206834	2242488	The Auction this year is hosted by EGS.	The Auction this year is hosted by EGS.	106544708	1474643760842	1474643760966	a	65
206834	2242488	The Auction this year is hosted by EGS.	The Auction this year is hosted by EGS.	106544776	1474643761024	1474643761098	r	82
206834	2242488	The Auction this year is hosted by EGS.	The Auction this year is hosted by EGS.	106544785	1474643761155	1474643761245	 	32
206834	2242488	The Auction this year is hosted by EGS.	The Auction this year is hosted by EGS.	106544790	1474643761369	1474643761446	w	87
206834	2242488	The Auction this year is hosted by EGS.	The Auction this year is hosted by EGS.	106544796	1474643761568	1474643761650	i	73
206834	2242488	The Auction this year is hosted by EGS.	The Auction this year is hosted by EGS.	106544802	1474643761792	1474643761848	l	76
206834	2242488	The Auction this year is hosted by EGS.	The Auction this year is hosted by EGS.	106544858	1474643761922	1474643761997	l	76
206834	2242488	The Auction this year is hosted by EGS.	The Auction this year is hosted by EGS.	106544861	1474643762040	1474643762147	 	32
206834	2242488	The Auction this year is hosted by EGS.	The Auction this year is hosted by EGS.	106544869	1474643762187	1474643762304	b	66
206834	2242488	The Auction this year is hosted by EGS.	The Auction this year is hosted by EGS.	106544874	1474643762323	1474643762427	e	69
206834	2242488	The Auction this year is hosted by EGS.	The Auction this year is hosted by EGS.	106544877	1474643762499	1474643762608	 	32
206834	2242488	The Auction this year is hosted by EGS.	The Auction this year is hosted by EGS.	106545261	1474643764116	1474643764198	BKSP	8
206834	2242488	The Auction this year is hosted by EGS.	The Auction this year is hosted by EGS.	106545268	1474643764285	1474643764400	BKSP	8
206834	2242488	The Auction this year is hosted by EGS.	The Auction this year is hosted by EGS.	106545276	1474643764494	1474643764709	BKSP	8
206834	2242488	The Auction this year is hosted by EGS.	The Auction this year is hosted by EGS.	106545282	1474643764809	1474643764891	BKSP	8
206834	2242488	The Auction this year is hosted by EGS.	The Auction this year is hosted by EGS.	106545288	1474643765014	1474643765084	BKSP	8
206834	2242488	The Auction this year is hosted by EGS.	The Auction this year is hosted by EGS.	106545293	1474643765389	1474643765475	BKSP	8
206834	2242488	The Auction this year is hosted by EGS.	The Auction this year is hosted by EGS.	106545298	1474643765579	1474643765644	BKSP	8
206834	2242488	The Auction this year is hosted by EGS.	The Auction this year is hosted by EGS.	106545307	1474643765916	1474643766039	BKSP	8
206834	2242488	The Auction this year is hosted by EGS.	The Auction this year is hosted by EGS.	106545317	1474643766343	1474643766430	i	73
206834	2242488	The Auction this year is hosted by EGS.	The Auction this year is hosted by EGS.	106545324	1474643766465	1474643766577	s	83
206834	2242488	The Auction this year is hosted by EGS.	The Auction this year is hosted by EGS.	106545331	1474643766636	1474643766731	 	32
206834	2242488	The Auction this year is hosted by EGS.	The Auction this year is hosted by EGS.	106545336	1474643767138	1474643767218	h	72
206834	2242488	The Auction this year is hosted by EGS.	The Auction this year is hosted by EGS.	106545339	1474643767249	1474643767342	o	79
206834	2242488	The Auction this year is hosted by EGS.	The Auction this year is hosted by EGS.	106545358	1474643767424	1474643767507	s	83
206834	2242488	The Auction this year is hosted by EGS.	The Auction this year is hosted by EGS.	106545362	1474643768205	1474643768280	t	84
206834	2242488	The Auction this year is hosted by EGS.	The Auction this year is hosted by EGS.	106545369	1474643768428	1474643768497	e	69
206834	2242488	The Auction this year is hosted by EGS.	The Auction this year is hosted by EGS.	106545375	1474643768601	1474643768690	d	68
206834	2242488	The Auction this year is hosted by EGS.	The Auction this year is hosted by EGS.	106545382	1474643768756	1474643768870	 	32
206834	2242488	The Auction this year is hosted by EGS.	The Auction this year is hosted by EGS.	106545544	1474643769006	1474643769172	b	66
206834	2242488	The Auction this year is hosted by EGS.	The Auction this year is hosted by EGS.	106545550	1474643769226	1474643769322	y	89
206834	2242488	The Auction this year is hosted by EGS.	The Auction this year is hosted by EGS.	106545557	1474643769497	1474643769606	 	32
206834	2242488	The Auction this year is hosted by EGS.	The Auction this year is hosted by EGS.	106545655	1474643769891	1474643771234	SHIFT	16
206834	2242488	The Auction this year is hosted by EGS.	The Auction this year is hosted by EGS.	106545562	1474643770184	1474643770251	E	69
206834	2242488	The Auction this year is hosted by EGS.	The Auction this year is hosted by EGS.	106545568	1474643770571	1474643770643	G	71
206834	2242488	The Auction this year is hosted by EGS.	The Auction this year is hosted by EGS.	106545645	1474643771094	1474643771173	S	83
206834	2242488	The Auction this year is hosted by EGS.	The Auction this year is hosted by EGS.	106545666	1474643771500	1474643771654	.	190
206834	2242535	Looking for some gift hints from you.	Looking for some gift hints from you.	106547001	1474643783676	1474643784376	SHIFT	16
206834	2242535	Looking for some gift hints from you.	Looking for some gift hints from you.	106546996	1474643784234	1474643784359	L	76
206834	2242535	Looking for some gift hints from you.	Looking for some gift hints from you.	106547015	1474643784427	1474643784550	o	79
206834	2242535	Looking for some gift hints from you.	Looking for some gift hints from you.	106547020	1474643784908	1474643785045	o	79
206834	2242535	Looking for some gift hints from you.	Looking for some gift hints from you.	106547026	1474643785362	1474643785455	k	75
206834	2242535	Looking for some gift hints from you.	Looking for some gift hints from you.	106547035	1474643785503	1474643785646	i	73
206834	2242535	Looking for some gift hints from you.	Looking for some gift hints from you.	106547091	1474643785702	1474643785794	n	78
206834	2242535	Looking for some gift hints from you.	Looking for some gift hints from you.	106547097	1474643785935	1474643786015	g	71
206834	2242535	Looking for some gift hints from you.	Looking for some gift hints from you.	106547102	1474643786071	1474643786149	 	32
206834	2242535	Looking for some gift hints from you.	Looking for some gift hints from you.	106547106	1474643786353	1474643786430	f	70
206834	2242535	Looking for some gift hints from you.	Looking for some gift hints from you.	106547107	1474643786437	1474643786544	o	79
206834	2242535	Looking for some gift hints from you.	Looking for some gift hints from you.	106547226	1474643786604	1474643786680	r	82
206834	2242535	Looking for some gift hints from you.	Looking for some gift hints from you.	106547235	1474643786803	1474643786896	 	32
206834	2242535	Looking for some gift hints from you.	Looking for some gift hints from you.	106547241	1474643787267	1474643787338	s	83
206834	2242535	Looking for some gift hints from you.	Looking for some gift hints from you.	106547254	1474643787389	1474643787483	o	79
206834	2242535	Looking for some gift hints from you.	Looking for some gift hints from you.	106547262	1474643787636	1474643787736	m	77
206834	2242535	Looking for some gift hints from you.	Looking for some gift hints from you.	106547337	1474643787785	1474643787868	e	69
206834	2242535	Looking for some gift hints from you.	Looking for some gift hints from you.	106547344	1474643788046	1474643788134	 	32
206834	2242535	Looking for some gift hints from you.	Looking for some gift hints from you.	106547353	1474643788507	1474643788575	g	71
206834	2242535	Looking for some gift hints from you.	Looking for some gift hints from you.	106547363	1474643788652	1474643788738	i	73
206834	2242535	Looking for some gift hints from you.	Looking for some gift hints from you.	106547373	1474643788894	1474643788934	d	68
206834	2242535	Looking for some gift hints from you.	Looking for some gift hints from you.	106547569	1474643789215	1474643789288	INSERT	45
206834	2242535	Looking for some gift hints from you.	Looking for some gift hints from you.	106547573	1474643789647	1474643789764	BKSP	8
206834	2242535	Looking for some gift hints from you.	Looking for some gift hints from you.	106547579	1474643789859	1474643789912	BKSP	8
206834	2242535	Looking for some gift hints from you.	Looking for some gift hints from you.	106547586	1474643790000	1474643790072	f	70
206834	2242535	Looking for some gift hints from you.	Looking for some gift hints from you.	106547593	1474643790537	1474643790646	BKSP	8
206834	2242535	Looking for some gift hints from you.	Looking for some gift hints from you.	106547596	1474643790760	1474643790859	i	73
206834	2242535	Looking for some gift hints from you.	Looking for some gift hints from you.	106547605	1474643791186	1474643791266	f	70
206834	2242535	Looking for some gift hints from you.	Looking for some gift hints from you.	106547614	1474643791387	1474643791464	t	84
206834	2242535	Looking for some gift hints from you.	Looking for some gift hints from you.	106547620	1474643791539	1474643791640	 	32
206834	2242535	Looking for some gift hints from you.	Looking for some gift hints from you.	106547679	1474643791863	1474643791950	h	72
206834	2242535	Looking for some gift hints from you.	Looking for some gift hints from you.	106547683	1474643792049	1474643792166	i	73
206834	2242535	Looking for some gift hints from you.	Looking for some gift hints from you.	106547690	1474643792211	1474643792302	n	78
206834	2242535	Looking for some gift hints from you.	Looking for some gift hints from you.	106547696	1474643792383	1474643792453	t	84
206834	2242535	Looking for some gift hints from you.	Looking for some gift hints from you.	106547705	1474643792726	1474643792812	s	83
206834	2242535	Looking for some gift hints from you.	Looking for some gift hints from you.	106547783	1474643792916	1474643792998	 	32
206834	2242535	Looking for some gift hints from you.	Looking for some gift hints from you.	106547787	1474643793291	1474643793360	f	70
206834	2242535	Looking for some gift hints from you.	Looking for some gift hints from you.	106547790	1474643793472	1474643793536	r	82
206834	2242535	Looking for some gift hints from you.	Looking for some gift hints from you.	106547794	1474643793559	1474643793661	o	79
206834	2242535	Looking for some gift hints from you.	Looking for some gift hints from you.	106547799	1474643793791	1474643793888	m	77
206834	2242535	Looking for some gift hints from you.	Looking for some gift hints from you.	106547866	1474643793908	1474643793989	 	32
206834	2242535	Looking for some gift hints from you.	Looking for some gift hints from you.	106547872	1474643794417	1474643794494	y	89
206834	2242535	Looking for some gift hints from you.	Looking for some gift hints from you.	106547881	1474643794546	1474643794643	o	79
206834	2242535	Looking for some gift hints from you.	Looking for some gift hints from you.	106547887	1474643794713	1474643794766	u	85
206834	2242535	Looking for some gift hints from you.	Looking for some gift hints from you.	106547894	1474643794963	1474643795091	.	190
206834	2242573	Do you have a number for him?	Do you have a number for him?	106548479	1474643800913	1474643801260	SHIFT	16
206834	2242573	Do you have a number for him?	Do you have a number for him?	106548474	1474643801136	1474643801245	D	68
206834	2242573	Do you have a number for him?	Do you have a number for him?	106548486	1474643801278	1474643801379	o	79
206834	2242573	Do you have a number for him?	Do you have a number for him?	106548493	1474643801455	1474643801502	 	32
206834	2242573	Do you have a number for him?	Do you have a number for him?	106548499	1474643801701	1474643801795	y	89
206834	2242573	Do you have a number for him?	Do you have a number for him?	106548503	1474643801810	1474643801898	o	79
206834	2242573	Do you have a number for him?	Do you have a number for him?	106548563	1474643801931	1474643802002	u	85
206834	2242573	Do you have a number for him?	Do you have a number for him?	106548566	1474643802156	1474643802240	 	32
206834	2242573	Do you have a number for him?	Do you have a number for him?	106548569	1474643802569	1474643802658	h	72
206834	2242573	Do you have a number for him?	Do you have a number for him?	106548570	1474643802700	1474643802787	a	65
206834	2242573	Do you have a number for him?	Do you have a number for him?	106548572	1474643802894	1474643802990	v	86
206834	2242573	Do you have a number for him?	Do you have a number for him?	106548681	1474643803035	1474643803149	e	69
206834	2242573	Do you have a number for him?	Do you have a number for him?	106548684	1474643803361	1474643803470	 	32
206834	2242573	Do you have a number for him?	Do you have a number for him?	106548689	1474643803689	1474643803773	a	65
206834	2242573	Do you have a number for him?	Do you have a number for him?	106548692	1474643803813	1474643803919	 	32
206834	2242573	Do you have a number for him?	Do you have a number for him?	106548696	1474643804132	1474643804227	n	78
206834	2242573	Do you have a number for him?	Do you have a number for him?	106548746	1474643804292	1474643804401	u	85
206834	2242573	Do you have a number for him?	Do you have a number for him?	106548749	1474643804491	1474643804624	m	77
206834	2242573	Do you have a number for him?	Do you have a number for him?	106548755	1474643804754	1474643804850	b	66
206834	2242573	Do you have a number for him?	Do you have a number for him?	106548760	1474643804868	1474643804977	e	69
206834	2242573	Do you have a number for him?	Do you have a number for him?	106548765	1474643805074	1474643805161	r	82
206834	2242573	Do you have a number for him?	Do you have a number for him?	106548830	1474643805214	1474643805300	 	32
206834	2242573	Do you have a number for him?	Do you have a number for him?	106548839	1474643805608	1474643805708	f	70
206834	2242573	Do you have a number for him?	Do you have a number for him?	106548849	1474643805729	1474643805834	o	79
206834	2242573	Do you have a number for him?	Do you have a number for him?	106548857	1474643805865	1474643805974	r	82
206834	2242573	Do you have a number for him?	Do you have a number for him?	106548865	1474643806040	1474643806156	 	32
206834	2242573	Do you have a number for him?	Do you have a number for him?	106548965	1474643806369	1474643806480	h	72
206834	2242573	Do you have a number for him?	Do you have a number for him?	106548968	1474643806580	1474643806665	i	73
206834	2242573	Do you have a number for him?	Do you have a number for him?	106548971	1474643806753	1474643806859	m	77
206834	2242573	Do you have a number for him?	Do you have a number for him?	106548974	1474643807571	1474643807682	?	191
206834	2242597	For those of you who have not paid please get your money tome soon.	For those of you who have not paid please get your money tome soon.	106549724	1474643816308	1474643816423	F	70
206834	2242597	For those of you who have not paid please get your money tome soon.	For those of you who have not paid please get your money tome soon.	106549729	1474643816454	1474643816553	o	79
206834	2242597	For those of you who have not paid please get your money tome soon.	For those of you who have not paid please get your money tome soon.	106549739	1474643816913	1474643816986	r	82
206834	2242597	For those of you who have not paid please get your money tome soon.	For those of you who have not paid please get your money tome soon.	106549745	1474643817160	1474643817246	 	32
206834	2242597	For those of you who have not paid please get your money tome soon.	For those of you who have not paid please get your money tome soon.	106549752	1474643817302	1474643817379	t	84
206834	2242597	For those of you who have not paid please get your money tome soon.	For those of you who have not paid please get your money tome soon.	106549807	1474643817446	1474643817562	h	72
206834	2242597	For those of you who have not paid please get your money tome soon.	For those of you who have not paid please get your money tome soon.	106549811	1474643817655	1474643817790	o	79
206834	2242597	For those of you who have not paid please get your money tome soon.	For those of you who have not paid please get your money tome soon.	106549817	1474643817817	1474643817907	s	83
206834	2242597	For those of you who have not paid please get your money tome soon.	For those of you who have not paid please get your money tome soon.	106549822	1474643818036	1474643818107	e	69
206834	2242597	For those of you who have not paid please get your money tome soon.	For those of you who have not paid please get your money tome soon.	106549826	1474643818196	1474643818292	 	32
206834	2242597	For those of you who have not paid please get your money tome soon.	For those of you who have not paid please get your money tome soon.	106549924	1474643818722	1474643818816	o	79
206834	2242597	For those of you who have not paid please get your money tome soon.	For those of you who have not paid please get your money tome soon.	106549929	1474643819052	1474643819124	f	70
206834	2242597	For those of you who have not paid please get your money tome soon.	For those of you who have not paid please get your money tome soon.	106549934	1474643819253	1474643819354	 	32
206834	2242597	For those of you who have not paid please get your money tome soon.	For those of you who have not paid please get your money tome soon.	106549940	1474643819550	1474643819638	y	89
206834	2242597	For those of you who have not paid please get your money tome soon.	For those of you who have not paid please get your money tome soon.	106549944	1474643819716	1474643819820	o	79
206834	2242597	For those of you who have not paid please get your money tome soon.	For those of you who have not paid please get your money tome soon.	106550032	1474643819835	1474643819898	u	85
206834	2242597	For those of you who have not paid please get your money tome soon.	For those of you who have not paid please get your money tome soon.	106550037	1474643820067	1474643820182	 	32
206834	2242597	For those of you who have not paid please get your money tome soon.	For those of you who have not paid please get your money tome soon.	106550041	1474643820510	1474643820602	w	87
206834	2242597	For those of you who have not paid please get your money tome soon.	For those of you who have not paid please get your money tome soon.	106550044	1474643820668	1474643820751	h	72
206834	2242597	For those of you who have not paid please get your money tome soon.	For those of you who have not paid please get your money tome soon.	106550047	1474643821046	1474643821135	o	79
206834	2242597	For those of you who have not paid please get your money tome soon.	For those of you who have not paid please get your money tome soon.	106550116	1474643821203	1474643821304	 	32
206834	2242597	For those of you who have not paid please get your money tome soon.	For those of you who have not paid please get your money tome soon.	106550119	1474643821479	1474643821562	h	72
206834	2242597	For those of you who have not paid please get your money tome soon.	For those of you who have not paid please get your money tome soon.	106550122	1474643821638	1474643821779	a	65
206834	2242597	For those of you who have not paid please get your money tome soon.	For those of you who have not paid please get your money tome soon.	106550126	1474643821874	1474643821967	v	86
206834	2242597	For those of you who have not paid please get your money tome soon.	For those of you who have not paid please get your money tome soon.	106550128	1474643822051	1474643822132	e	69
206834	2242597	For those of you who have not paid please get your money tome soon.	For those of you who have not paid please get your money tome soon.	106550183	1474643822204	1474643822304	 	32
206834	2242597	For those of you who have not paid please get your money tome soon.	For those of you who have not paid please get your money tome soon.	106550189	1474643822437	1474643822533	n	78
206834	2242597	For those of you who have not paid please get your money tome soon.	For those of you who have not paid please get your money tome soon.	106550196	1474643822710	1474643822827	o	79
206834	2242597	For those of you who have not paid please get your money tome soon.	For those of you who have not paid please get your money tome soon.	106550200	1474643822897	1474643822980	t	84
206834	2242597	For those of you who have not paid please get your money tome soon.	For those of you who have not paid please get your money tome soon.	106550203	1474643823024	1474643823116	 	32
206834	2242597	For those of you who have not paid please get your money tome soon.	For those of you who have not paid please get your money tome soon.	106550337	1474643823291	1474643823433	p	80
206834	2242597	For those of you who have not paid please get your money tome soon.	For those of you who have not paid please get your money tome soon.	106550340	1474643823490	1474643823626	a	65
206834	2242597	For those of you who have not paid please get your money tome soon.	For those of you who have not paid please get your money tome soon.	106550343	1474643823614	1474643823691	i	73
206834	2242597	For those of you who have not paid please get your money tome soon.	For those of you who have not paid please get your money tome soon.	106550348	1474643824305	1474643824413	BKSP	8
206834	2242597	For those of you who have not paid please get your money tome soon.	For those of you who have not paid please get your money tome soon.	106550355	1474643824968	1474643825038	i	73
206834	2242597	For those of you who have not paid please get your money tome soon.	For those of you who have not paid please get your money tome soon.	106550361	1474643825073	1474643825147	d	68
206834	2242597	For those of you who have not paid please get your money tome soon.	For those of you who have not paid please get your money tome soon.	106550457	1474643825296	1474643825377	 	32
206834	2242597	For those of you who have not paid please get your money tome soon.	For those of you who have not paid please get your money tome soon.	106550462	1474643825657	1474643825755	p	80
206834	2242597	For those of you who have not paid please get your money tome soon.	For those of you who have not paid please get your money tome soon.	106550470	1474643825838	1474643825912	e	69
206834	2242597	For those of you who have not paid please get your money tome soon.	For those of you who have not paid please get your money tome soon.	106550476	1474643826020	1474643826106	l	76
206834	2242597	For those of you who have not paid please get your money tome soon.	For those of you who have not paid please get your money tome soon.	106550484	1474643826261	1474643826373	a	65
206834	2242597	For those of you who have not paid please get your money tome soon.	For those of you who have not paid please get your money tome soon.	106550615	1474643826627	1474643826709	e	69
206834	2242597	For those of you who have not paid please get your money tome soon.	For those of you who have not paid please get your money tome soon.	106550617	1474643827061	1474643827154	BKSP	8
206834	2242597	For those of you who have not paid please get your money tome soon.	For those of you who have not paid please get your money tome soon.	106550622	1474643827254	1474643827329	BKSP	8
206834	2242597	For those of you who have not paid please get your money tome soon.	For those of you who have not paid please get your money tome soon.	106550625	1474643827436	1474643827729	BKSP	8
206834	2242597	For those of you who have not paid please get your money tome soon.	For those of you who have not paid please get your money tome soon.	106550629	1474643828016	1474643828160	BKSP	8
206834	2242597	For those of you who have not paid please get your money tome soon.	For those of you who have not paid please get your money tome soon.	106550633	1474643828268	1474643828359	l	76
206834	2242597	For those of you who have not paid please get your money tome soon.	For those of you who have not paid please get your money tome soon.	106550636	1474643828417	1474643828510	e	69
206834	2242597	For those of you who have not paid please get your money tome soon.	For those of you who have not paid please get your money tome soon.	106550640	1474643828663	1474643828824	a	65
206834	2242597	For those of you who have not paid please get your money tome soon.	For those of you who have not paid please get your money tome soon.	106550644	1474643828831	1474643828917	s	83
206834	2242597	For those of you who have not paid please get your money tome soon.	For those of you who have not paid please get your money tome soon.	106550713	1474643829038	1474643829112	e	69
206834	2242597	For those of you who have not paid please get your money tome soon.	For those of you who have not paid please get your money tome soon.	106550718	1474643829173	1474643829285	 	32
206834	2242597	For those of you who have not paid please get your money tome soon.	For those of you who have not paid please get your money tome soon.	106550723	1474643830067	1474643830151	g	71
206834	2242597	For those of you who have not paid please get your money tome soon.	For those of you who have not paid please get your money tome soon.	106550726	1474643830218	1474643830296	e	69
206834	2242597	For those of you who have not paid please get your money tome soon.	For those of you who have not paid please get your money tome soon.	106550731	1474643830450	1474643830525	t	84
206834	2242597	For those of you who have not paid please get your money tome soon.	For those of you who have not paid please get your money tome soon.	106550814	1474643830579	1474643830666	 	32
206834	2242597	For those of you who have not paid please get your money tome soon.	For those of you who have not paid please get your money tome soon.	106550819	1474643830854	1474643830936	y	89
206834	2242597	For those of you who have not paid please get your money tome soon.	For those of you who have not paid please get your money tome soon.	106550826	1474643830989	1474643831082	o	79
206834	2242597	For those of you who have not paid please get your money tome soon.	For those of you who have not paid please get your money tome soon.	106550836	1474643831237	1474643831319	u	85
206834	2242597	For those of you who have not paid please get your money tome soon.	For those of you who have not paid please get your money tome soon.	106550842	1474643831768	1474643831847	r	82
206834	2242597	For those of you who have not paid please get your money tome soon.	For those of you who have not paid please get your money tome soon.	106550899	1474643831895	1474643832016	 	32
206834	2242597	For those of you who have not paid please get your money tome soon.	For those of you who have not paid please get your money tome soon.	106550904	1474643832172	1474643832330	m	77
206834	2242597	For those of you who have not paid please get your money tome soon.	For those of you who have not paid please get your money tome soon.	106550912	1474643832487	1474643832590	o	79
206834	2242597	For those of you who have not paid please get your money tome soon.	For those of you who have not paid please get your money tome soon.	106550921	1474643832716	1474643832787	n	78
206834	2242597	For those of you who have not paid please get your money tome soon.	For those of you who have not paid please get your money tome soon.	106550925	1474643832942	1474643833019	e	69
206834	2242597	For those of you who have not paid please get your money tome soon.	For those of you who have not paid please get your money tome soon.	106551024	1474643833257	1474643833333	y	89
206834	2242597	For those of you who have not paid please get your money tome soon.	For those of you who have not paid please get your money tome soon.	106551031	1474643833493	1474643833576	 	32
206834	2242597	For those of you who have not paid please get your money tome soon.	For those of you who have not paid please get your money tome soon.	106551040	1474643834031	1474643834108	t	84
206834	2242597	For those of you who have not paid please get your money tome soon.	For those of you who have not paid please get your money tome soon.	106551048	1474643834152	1474643834241	o	79
206834	2242597	For those of you who have not paid please get your money tome soon.	For those of you who have not paid please get your money tome soon.	106551054	1474643834398	1474643834524	m	77
206834	2242597	For those of you who have not paid please get your money tome soon.	For those of you who have not paid please get your money tome soon.	106551123	1474643834548	1474643834658	e	69
206834	2242597	For those of you who have not paid please get your money tome soon.	For those of you who have not paid please get your money tome soon.	106551130	1474643834731	1474643834844	 	32
206834	2242597	For those of you who have not paid please get your money tome soon.	For those of you who have not paid please get your money tome soon.	106551137	1474643835198	1474643835297	s	83
206834	2242597	For those of you who have not paid please get your money tome soon.	For those of you who have not paid please get your money tome soon.	106551141	1474643835369	1474643835435	o	79
206834	2242597	For those of you who have not paid please get your money tome soon.	For those of you who have not paid please get your money tome soon.	106551148	1474643835520	1474643835584	o	79
206834	2242597	For those of you who have not paid please get your money tome soon.	For those of you who have not paid please get your money tome soon.	106551189	1474643835746	1474643835812	n	78
206834	2242597	For those of you who have not paid please get your money tome soon.	For those of you who have not paid please get your money tome soon.	106551193	1474643836044	1474643836174	.	190
206834	2242644	The informal costs have to disappear.	The informal costs have to disappear.	106551798	1474643843304	1474643843751	SHIFT	16
206834	2242644	The informal costs have to disappear.	The informal costs have to disappear.	106551792	1474643843651	1474643843738	T	84
206834	2242644	The informal costs have to disappear.	The informal costs have to disappear.	106551807	1474643843842	1474643843942	h	72
206834	2242644	The informal costs have to disappear.	The informal costs have to disappear.	106551811	1474643843994	1474643844091	e	69
206834	2242644	The informal costs have to disappear.	The informal costs have to disappear.	106551821	1474643844172	1474643844288	 	32
206834	2242644	The informal costs have to disappear.	The informal costs have to disappear.	106551829	1474643844654	1474643844722	i	73
206834	2242644	The informal costs have to disappear.	The informal costs have to disappear.	106551927	1474643844850	1474643844939	n	78
206834	2242644	The informal costs have to disappear.	The informal costs have to disappear.	106551931	1474643845095	1474643845176	g	71
206834	2242644	The informal costs have to disappear.	The informal costs have to disappear.	106551935	1474643845432	1474643845593	BKSP	8
206834	2242644	The informal costs have to disappear.	The informal costs have to disappear.	106551940	1474643845646	1474643845736	f	70
206834	2242644	The informal costs have to disappear.	The informal costs have to disappear.	106551947	1474643845790	1474643845892	o	79
206834	2242644	The informal costs have to disappear.	The informal costs have to disappear.	106551953	1474643846021	1474643846109	r	82
206834	2242644	The informal costs have to disappear.	The informal costs have to disappear.	106552033	1474643846150	1474643846256	m	77
206834	2242644	The informal costs have to disappear.	The informal costs have to disappear.	106552043	1474643846342	1474643846473	a	65
206834	2242644	The informal costs have to disappear.	The informal costs have to disappear.	106552048	1474643846845	1474643846924	l	76
206834	2242644	The informal costs have to disappear.	The informal costs have to disappear.	106552056	1474643846968	1474643847046	 	32
206834	2242644	The informal costs have to disappear.	The informal costs have to disappear.	106552067	1474643847521	1474643847611	c	67
206834	2242644	The informal costs have to disappear.	The informal costs have to disappear.	106552125	1474643847633	1474643847741	o	79
206834	2242644	The informal costs have to disappear.	The informal costs have to disappear.	106552128	1474643847828	1474643847897	s	83
206834	2242644	The informal costs have to disappear.	The informal costs have to disappear.	106552132	1474643848100	1474643848180	t	84
206834	2242644	The informal costs have to disappear.	The informal costs have to disappear.	106552137	1474643848365	1474643848442	s	83
206834	2242644	The informal costs have to disappear.	The informal costs have to disappear.	106552142	1474643848628	1474643848700	 	32
206834	2242644	The informal costs have to disappear.	The informal costs have to disappear.	106552245	1474643849068	1474643849160	h	72
206834	2242644	The informal costs have to disappear.	The informal costs have to disappear.	106552250	1474643849199	1474643849323	a	65
206834	2242644	The informal costs have to disappear.	The informal costs have to disappear.	106552257	1474643849693	1474643849763	v	86
206834	2242644	The informal costs have to disappear.	The informal costs have to disappear.	106552262	1474643849828	1474643849933	e	69
206834	2242644	The informal costs have to disappear.	The informal costs have to disappear.	106552265	1474643850077	1474643850176	 	32
206834	2242644	The informal costs have to disappear.	The informal costs have to disappear.	106552326	1474643850250	1474643850360	t	84
206834	2242644	The informal costs have to disappear.	The informal costs have to disappear.	106552330	1474643850403	1474643850514	o	79
206834	2242644	The informal costs have to disappear.	The informal costs have to disappear.	106552335	1474643850574	1474643850664	 	32
206834	2242644	The informal costs have to disappear.	The informal costs have to disappear.	106552340	1474643851127	1474643851219	d	68
206834	2242644	The informal costs have to disappear.	The informal costs have to disappear.	106552346	1474643851256	1474643851338	i	73
206834	2242644	The informal costs have to disappear.	The informal costs have to disappear.	106552397	1474643851417	1474643851494	s	83
206834	2242644	The informal costs have to disappear.	The informal costs have to disappear.	106552402	1474643851639	1474643851745	a	65
206834	2242644	The informal costs have to disappear.	The informal costs have to disappear.	106552407	1474643851829	1474643851870	p	80
206834	2242644	The informal costs have to disappear.	The informal costs have to disappear.	106552410	1474643851964	1474643852015	p	80
206834	2242644	The informal costs have to disappear.	The informal costs have to disappear.	106552416	1474643852102	1474643852184	e	69
206834	2242644	The informal costs have to disappear.	The informal costs have to disappear.	106552521	1474643852298	1474643852464	a	65
206834	2242644	The informal costs have to disappear.	The informal costs have to disappear.	106552527	1474643852508	1474643852591	r	82
206834	2242644	The informal costs have to disappear.	The informal costs have to disappear.	106552532	1474643853975	1474643854117	.	190
206834	2242678	Construction on the complex will begin this year.	Construction on the complex will begin this year.	106553198	1474643862432	1474643862780	SHIFT	16
206834	2242678	Construction on the complex will begin this year.	Construction on the complex will begin this year.	106553194	1474643862652	1474643862756	C	67
206834	2242678	Construction on the complex will begin this year.	Construction on the complex will begin this year.	106553201	1474643862809	1474643862942	o	79
206834	2242678	Construction on the complex will begin this year.	Construction on the complex will begin this year.	106553203	1474643863040	1474643863121	n	78
206834	2242678	Construction on the complex will begin this year.	Construction on the complex will begin this year.	106553206	1474643863179	1474643863262	s	83
206834	2242678	Construction on the complex will begin this year.	Construction on the complex will begin this year.	106553209	1474643863469	1474643863532	t	84
206834	2242678	Construction on the complex will begin this year.	Construction on the complex will begin this year.	106553257	1474643863624	1474643863706	r	82
206834	2242678	Construction on the complex will begin this year.	Construction on the complex will begin this year.	106553264	1474643863799	1474643863891	u	85
206834	2242678	Construction on the complex will begin this year.	Construction on the complex will begin this year.	106553270	1474643864005	1474643864087	c	67
206834	2242678	Construction on the complex will begin this year.	Construction on the complex will begin this year.	106553279	1474643864272	1474643864350	t	84
206834	2242678	Construction on the complex will begin this year.	Construction on the complex will begin this year.	106553287	1474643864421	1474643864545	i	73
206834	2242678	Construction on the complex will begin this year.	Construction on the complex will begin this year.	106553328	1474643864586	1474643864736	o	79
206834	2242678	Construction on the complex will begin this year.	Construction on the complex will begin this year.	106553331	1474643864837	1474643864938	n	78
206834	2242678	Construction on the complex will begin this year.	Construction on the complex will begin this year.	106553335	1474643864952	1474643865065	 	32
206834	2242678	Construction on the complex will begin this year.	Construction on the complex will begin this year.	106553341	1474643865181	1474643865300	o	79
206834	2242678	Construction on the complex will begin this year.	Construction on the complex will begin this year.	106553347	1474643865461	1474643865565	n	78
206834	2242678	Construction on the complex will begin this year.	Construction on the complex will begin this year.	106553467	1474643865607	1474643865685	 	32
206834	2242678	Construction on the complex will begin this year.	Construction on the complex will begin this year.	106553472	1474643865770	1474643865850	t	84
206834	2242678	Construction on the complex will begin this year.	Construction on the complex will begin this year.	106553477	1474643865866	1474643865948	h	72
206834	2242678	Construction on the complex will begin this year.	Construction on the complex will begin this year.	106553481	1474643866566	1474643866635	r	82
206834	2242678	Construction on the complex will begin this year.	Construction on the complex will begin this year.	106553487	1474643867310	1474643867380	BKSP	8
206834	2242678	Construction on the complex will begin this year.	Construction on the complex will begin this year.	106553491	1474643867540	1474643867618	e	69
206834	2242678	Construction on the complex will begin this year.	Construction on the complex will begin this year.	106553580	1474643867629	1474643867753	 	32
206834	2242678	Construction on the complex will begin this year.	Construction on the complex will begin this year.	106553587	1474643868091	1474643868175	c	67
206834	2242678	Construction on the complex will begin this year.	Construction on the complex will begin this year.	106553593	1474643868260	1474643868331	o	79
206834	2242678	Construction on the complex will begin this year.	Construction on the complex will begin this year.	106553598	1474643868475	1474643868582	m	77
206834	2242678	Construction on the complex will begin this year.	Construction on the complex will begin this year.	106553602	1474643868688	1474643868816	p	80
206834	2242678	Construction on the complex will begin this year.	Construction on the complex will begin this year.	106553683	1474643868846	1474643868932	l	76
206834	2242678	Construction on the complex will begin this year.	Construction on the complex will begin this year.	106553688	1474643869107	1474643869174	e	69
206834	2242678	Construction on the complex will begin this year.	Construction on the complex will begin this year.	106553692	1474643869381	1474643869468	x	88
206834	2242678	Construction on the complex will begin this year.	Construction on the complex will begin this year.	106553696	1474643869556	1474643869665	 	32
206834	2242678	Construction on the complex will begin this year.	Construction on the complex will begin this year.	106553702	1474643869947	1474643870020	w	87
206834	2242678	Construction on the complex will begin this year.	Construction on the complex will begin this year.	106553753	1474643870103	1474643870203	i	73
206834	2242678	Construction on the complex will begin this year.	Construction on the complex will begin this year.	106553759	1474643870350	1474643870417	l	76
206834	2242678	Construction on the complex will begin this year.	Construction on the complex will begin this year.	106553764	1474643870495	1474643870581	l	76
206834	2242678	Construction on the complex will begin this year.	Construction on the complex will begin this year.	106553768	1474643870678	1474643870774	 	32
206834	2242678	Construction on the complex will begin this year.	Construction on the complex will begin this year.	106553773	1474643870817	1474643870905	b	66
206834	2242678	Construction on the complex will begin this year.	Construction on the complex will begin this year.	106553861	1474643870977	1474643871056	e	69
206834	2242678	Construction on the complex will begin this year.	Construction on the complex will begin this year.	106553865	1474643871243	1474643871307	g	71
206834	2242678	Construction on the complex will begin this year.	Construction on the complex will begin this year.	106553869	1474643871352	1474643871459	i	73
206834	2242678	Construction on the complex will begin this year.	Construction on the complex will begin this year.	106553873	1474643871583	1474643871705	n	78
206834	2242678	Construction on the complex will begin this year.	Construction on the complex will begin this year.	106553878	1474643871751	1474643871825	 	32
206834	2242678	Construction on the complex will begin this year.	Construction on the complex will begin this year.	106553964	1474643871972	1474643872061	t	84
206834	2242678	Construction on the complex will begin this year.	Construction on the complex will begin this year.	106553968	1474643872082	1474643872220	h	72
206834	2242678	Construction on the complex will begin this year.	Construction on the complex will begin this year.	106553972	1474643872297	1474643872428	i	73
206834	2242678	Construction on the complex will begin this year.	Construction on the complex will begin this year.	106553975	1474643872446	1474643872559	s	83
206834	2242678	Construction on the complex will begin this year.	Construction on the complex will begin this year.	106553980	1474643872650	1474643872747	 	32
206834	2242678	Construction on the complex will begin this year.	Construction on the complex will begin this year.	106554072	1474643873061	1474643873150	y	89
206834	2242678	Construction on the complex will begin this year.	Construction on the complex will begin this year.	106554077	1474643873225	1474643873289	e	69
206834	2242678	Construction on the complex will begin this year.	Construction on the complex will begin this year.	106554081	1474643873390	1474643873494	a	65
206834	2242678	Construction on the complex will begin this year.	Construction on the complex will begin this year.	106554089	1474643873589	1474643873675	r	82
206834	2242678	Construction on the complex will begin this year.	Construction on the complex will begin this year.	106554093	1474643873821	1474643873957	.	190
