PARTICIPANT_ID	TEST_SECTION_ID	SENTENCE	USER_INPUT	KEYSTROKE_ID	PRESS_TIME	RELEASE_TIME	LETTER	KEYCODE
209084	2265196	My comments are in fuschia.	My comments are in fuschia. 	107604767	1474657920100	1474657920291	SHIFT	16
209084	2265196	My comments are in fuschia.	My comments are in fuschia. 	107604761	1474657920170	1474657920241	M	77
209084	2265196	My comments are in fuschia.	My comments are in fuschia. 	107604772	1474657920391	1474657920483	y	89
209084	2265196	My comments are in fuschia.	My comments are in fuschia. 	107604778	1474657920483	1474657920607	 	32
209084	2265196	My comments are in fuschia.	My comments are in fuschia. 	107604783	1474657920647	1474657920777	c	67
209084	2265196	My comments are in fuschia.	My comments are in fuschia. 	107604820	1474657920723	1474657920851	o	79
209084	2265196	My comments are in fuschia.	My comments are in fuschia. 	107604825	1474657920851	1474657920930	m	77
209084	2265196	My comments are in fuschia.	My comments are in fuschia. 	107604830	1474657921030	1474657921113	m	77
209084	2265196	My comments are in fuschia.	My comments are in fuschia. 	107604837	1474657921143	1474657921252	e	69
209084	2265196	My comments are in fuschia.	My comments are in fuschia. 	107604847	1474657921252	1474657921351	n	78
209084	2265196	My comments are in fuschia.	My comments are in fuschia. 	107604856	1474657921351	1474657921444	t	84
209084	2265196	My comments are in fuschia.	My comments are in fuschia. 	107604895	1474657921516	1474657921650	s	83
209084	2265196	My comments are in fuschia.	My comments are in fuschia. 	107604900	1474657921630	1474657921757	 	32
209084	2265196	My comments are in fuschia.	My comments are in fuschia. 	107604904	1474657921777	1474657921933	a	65
209084	2265196	My comments are in fuschia.	My comments are in fuschia. 	107604909	1474657921887	1474657922017	r	82
209084	2265196	My comments are in fuschia.	My comments are in fuschia. 	107604950	1474657921973	1474657922065	e	69
209084	2265196	My comments are in fuschia.	My comments are in fuschia. 	107604957	1474657922039	1474657922163	 	32
209084	2265196	My comments are in fuschia.	My comments are in fuschia. 	107604963	1474657922163	1474657922312	i	73
209084	2265196	My comments are in fuschia.	My comments are in fuschia. 	107604974	1474657922251	1474657922407	n	78
209084	2265196	My comments are in fuschia.	My comments are in fuschia. 	107604984	1474657922332	1474657922469	 	32
209084	2265196	My comments are in fuschia.	My comments are in fuschia. 	107604996	1474657922469	1474657922570	f	70
209084	2265196	My comments are in fuschia.	My comments are in fuschia. 	107605021	1474657922602	1474657922696	u	85
209084	2265196	My comments are in fuschia.	My comments are in fuschia. 	107605023	1474657922772	1474657922886	s	83
209084	2265196	My comments are in fuschia.	My comments are in fuschia. 	107605027	1474657923056	1474657923170	c	67
209084	2265196	My comments are in fuschia.	My comments are in fuschia. 	107605032	1474657923170	1474657923281	h	72
209084	2265196	My comments are in fuschia.	My comments are in fuschia. 	107605132	1474657923240	1474657923371	i	73
209084	2265196	My comments are in fuschia.	My comments are in fuschia. 	107605138	1474657923481	1474657923618	a	65
209084	2265196	My comments are in fuschia.	My comments are in fuschia. 	107605146	1474657923698	1474657923830	.	190
209084	2265196	My comments are in fuschia.	My comments are in fuschia. 	107605153	1474657923830	1474657923883	 	32
209084	2265207	The area has an Armenian population but falls within Azerbajian.	The area has an Armenian population but falls within Azerbajian.	107605318	1474657926597	1474657926729	SHIFT	16
209084	2265207	The area has an Armenian population but falls within Azerbajian.	The area has an Armenian population but falls within Azerbajian.	107605321	1474657926697	1474657926770	T	84
209084	2265207	The area has an Armenian population but falls within Azerbajian.	The area has an Armenian population but falls within Azerbajian.	107605325	1474657926770	1474657926857	h	72
209084	2265207	The area has an Armenian population but falls within Azerbajian.	The area has an Armenian population but falls within Azerbajian.	107605330	1474657926857	1474657926950	e	69
209084	2265207	The area has an Armenian population but falls within Azerbajian.	The area has an Armenian population but falls within Azerbajian.	107605337	1474657926950	1474657927086	 	32
209084	2265207	The area has an Armenian population but falls within Azerbajian.	The area has an Armenian population but falls within Azerbajian.	107605342	1474657927086	1474657927217	a	65
209084	2265207	The area has an Armenian population but falls within Azerbajian.	The area has an Armenian population but falls within Azerbajian.	107605383	1474657927187	1474657927347	r	82
209084	2265207	The area has an Armenian population but falls within Azerbajian.	The area has an Armenian population but falls within Azerbajian.	107605387	1474657927288	1474657927407	e	69
209084	2265207	The area has an Armenian population but falls within Azerbajian.	The area has an Armenian population but falls within Azerbajian.	107605392	1474657927407	1474657927520	a	65
209084	2265207	The area has an Armenian population but falls within Azerbajian.	The area has an Armenian population but falls within Azerbajian.	107605396	1474657927560	1474657927690	 	32
209084	2265207	The area has an Armenian population but falls within Azerbajian.	The area has an Armenian population but falls within Azerbajian.	107605399	1474657927690	1474657927783	h	72
209084	2265207	The area has an Armenian population but falls within Azerbajian.	The area has an Armenian population but falls within Azerbajian.	107605401	1474657927833	1474657927994	a	65
209084	2265207	The area has an Armenian population but falls within Azerbajian.	The area has an Armenian population but falls within Azerbajian.	107605464	1474657927953	1474657928096	s	83
209084	2265207	The area has an Armenian population but falls within Azerbajian.	The area has an Armenian population but falls within Azerbajian.	107605472	1474657928116	1474657928230	 	32
209084	2265207	The area has an Armenian population but falls within Azerbajian.	The area has an Armenian population but falls within Azerbajian.	107605479	1474657928280	1474657928433	a	65
209084	2265207	The area has an Armenian population but falls within Azerbajian.	The area has an Armenian population but falls within Azerbajian.	107605486	1474657928513	1474657928683	n	78
209084	2265207	The area has an Armenian population but falls within Azerbajian.	The area has an Armenian population but falls within Azerbajian.	107605490	1474657928656	1474657928754	 	32
209084	2265207	The area has an Armenian population but falls within Azerbajian.	The area has an Armenian population but falls within Azerbajian.	107605493	1474657928976	1474657929190	SHIFT	16
209084	2265207	The area has an Armenian population but falls within Azerbajian.	The area has an Armenian population but falls within Azerbajian.	107605532	1474657929066	1474657929190	A	65
209084	2265207	The area has an Armenian population but falls within Azerbajian.	The area has an Armenian population but falls within Azerbajian.	107605535	1474657929282	1474657929373	r	82
209084	2265207	The area has an Armenian population but falls within Azerbajian.	The area has an Armenian population but falls within Azerbajian.	107605536	1474657929433	1474657929526	m	77
209084	2265207	The area has an Armenian population but falls within Azerbajian.	The area has an Armenian population but falls within Azerbajian.	107605537	1474657929536	1474657929644	e	69
209084	2265207	The area has an Armenian population but falls within Azerbajian.	The area has an Armenian population but falls within Azerbajian.	107605538	1474657929673	1474657929743	n	78
209084	2265207	The area has an Armenian population but falls within Azerbajian.	The area has an Armenian population but falls within Azerbajian.	107605540	1474657929793	1474657929973	i	73
209084	2265207	The area has an Armenian population but falls within Azerbajian.	The area has an Armenian population but falls within Azerbajian.	107605600	1474657930486	1474657930593	a	65
209084	2265207	The area has an Armenian population but falls within Azerbajian.	The area has an Armenian population but falls within Azerbajian.	107605603	1474657930633	1474657930796	n	78
209084	2265207	The area has an Armenian population but falls within Azerbajian.	The area has an Armenian population but falls within Azerbajian.	107605605	1474657930776	1474657930897	 	32
209084	2265207	The area has an Armenian population but falls within Azerbajian.	The area has an Armenian population but falls within Azerbajian.	107605607	1474657930973	1474657931121	p	80
209084	2265207	The area has an Armenian population but falls within Azerbajian.	The area has an Armenian population but falls within Azerbajian.	107605643	1474657931086	1474657931265	o	79
209084	2265207	The area has an Armenian population but falls within Azerbajian.	The area has an Armenian population but falls within Azerbajian.	107605648	1474657931234	1474657931393	p	80
209084	2265207	The area has an Armenian population but falls within Azerbajian.	The area has an Armenian population but falls within Azerbajian.	107605652	1474657931423	1474657931546	u	85
209084	2265207	The area has an Armenian population but falls within Azerbajian.	The area has an Armenian population but falls within Azerbajian.	107605656	1474657931646	1474657931779	l	76
209084	2265207	The area has an Armenian population but falls within Azerbajian.	The area has an Armenian population but falls within Azerbajian.	107605658	1474657931809	1474657931919	a	65
209084	2265207	The area has an Armenian population but falls within Azerbajian.	The area has an Armenian population but falls within Azerbajian.	107605660	1474657931949	1474657932049	t	84
209084	2265207	The area has an Armenian population but falls within Azerbajian.	The area has an Armenian population but falls within Azerbajian.	107605675	1474657932049	1474657932226	i	73
209084	2265207	The area has an Armenian population but falls within Azerbajian.	The area has an Armenian population but falls within Azerbajian.	107605677	1474657932133	1474657932316	o	79
209084	2265207	The area has an Armenian population but falls within Azerbajian.	The area has an Armenian population but falls within Azerbajian.	107605683	1474657932256	1474657932393	n	78
209084	2265207	The area has an Armenian population but falls within Azerbajian.	The area has an Armenian population but falls within Azerbajian.	107605688	1474657932346	1474657932473	 	32
209084	2265207	The area has an Armenian population but falls within Azerbajian.	The area has an Armenian population but falls within Azerbajian.	107605696	1474657932535	1474657932606	b	66
209084	2265207	The area has an Armenian population but falls within Azerbajian.	The area has an Armenian population but falls within Azerbajian.	107605740	1474657932616	1474657932711	u	85
209084	2265207	The area has an Armenian population but falls within Azerbajian.	The area has an Armenian population but falls within Azerbajian.	107605742	1474657932761	1474657932860	t	84
209084	2265207	The area has an Armenian population but falls within Azerbajian.	The area has an Armenian population but falls within Azerbajian.	107605744	1474657932860	1474657932969	 	32
209084	2265207	The area has an Armenian population but falls within Azerbajian.	The area has an Armenian population but falls within Azerbajian.	107605746	1474657933039	1474657933158	f	70
209084	2265207	The area has an Armenian population but falls within Azerbajian.	The area has an Armenian population but falls within Azerbajian.	107605748	1474657933168	1474657933266	a	65
209084	2265207	The area has an Armenian population but falls within Azerbajian.	The area has an Armenian population but falls within Azerbajian.	107605766	1474657933266	1474657933336	l	76
209084	2265207	The area has an Armenian population but falls within Azerbajian.	The area has an Armenian population but falls within Azerbajian.	107605771	1474657933436	1474657933542	l	76
209084	2265207	The area has an Armenian population but falls within Azerbajian.	The area has an Armenian population but falls within Azerbajian.	107605777	1474657933542	1474657933662	s	83
209084	2265207	The area has an Armenian population but falls within Azerbajian.	The area has an Armenian population but falls within Azerbajian.	107605785	1474657933662	1474657933761	 	32
209084	2265207	The area has an Armenian population but falls within Azerbajian.	The area has an Armenian population but falls within Azerbajian.	107605790	1474657933781	1474657933856	w	87
209084	2265207	The area has an Armenian population but falls within Azerbajian.	The area has an Armenian population but falls within Azerbajian.	107605815	1474657933866	1474657933929	i	73
209084	2265207	The area has an Armenian population but falls within Azerbajian.	The area has an Armenian population but falls within Azerbajian.	107605819	1474657933929	1474657934016	t	84
209084	2265207	The area has an Armenian population but falls within Azerbajian.	The area has an Armenian population but falls within Azerbajian.	107605824	1474657934026	1474657934116	h	72
209084	2265207	The area has an Armenian population but falls within Azerbajian.	The area has an Armenian population but falls within Azerbajian.	107605826	1474657934116	1474657934299	i	73
209084	2265207	The area has an Armenian population but falls within Azerbajian.	The area has an Armenian population but falls within Azerbajian.	107605899	1474657934260	1474657934433	n	78
209084	2265207	The area has an Armenian population but falls within Azerbajian.	The area has an Armenian population but falls within Azerbajian.	107605902	1474657934407	1474657934529	 	32
209084	2265207	The area has an Armenian population but falls within Azerbajian.	The area has an Armenian population but falls within Azerbajian.	107605906	1474657934639	1474657934843	SHIFT	16
209084	2265207	The area has an Armenian population but falls within Azerbajian.	The area has an Armenian population but falls within Azerbajian.	107605904	1474657934739	1474657934833	A	65
209084	2265207	The area has an Armenian population but falls within Azerbajian.	The area has an Armenian population but falls within Azerbajian.	107605908	1474657935213	1474657935320	z	90
209084	2265207	The area has an Armenian population but falls within Azerbajian.	The area has an Armenian population but falls within Azerbajian.	107605912	1474657935430	1474657935559	e	69
209084	2265207	The area has an Armenian population but falls within Azerbajian.	The area has an Armenian population but falls within Azerbajian.	107606064	1474657935506	1474657935621	r	82
209084	2265207	The area has an Armenian population but falls within Azerbajian.	The area has an Armenian population but falls within Azerbajian.	107606071	1474657935801	1474657935883	b	66
209084	2265207	The area has an Armenian population but falls within Azerbajian.	The area has an Armenian population but falls within Azerbajian.	107606080	1474657935963	1474657936104	a	65
209084	2265207	The area has an Armenian population but falls within Azerbajian.	The area has an Armenian population but falls within Azerbajian.	107606087	1474657936164	1474657936269	i	73
209084	2265207	The area has an Armenian population but falls within Azerbajian.	The area has an Armenian population but falls within Azerbajian.	107606093	1474657936379	1474657936466	j	74
209084	2265207	The area has an Armenian population but falls within Azerbajian.	The area has an Armenian population but falls within Azerbajian.	107606099	1474657937446	1474657937503	BKSP	8
209084	2265207	The area has an Armenian population but falls within Azerbajian.	The area has an Armenian population but falls within Azerbajian.	107606104	1474657937593	1474657937673	BKSP	8
209084	2265207	The area has an Armenian population but falls within Azerbajian.	The area has an Armenian population but falls within Azerbajian.	107606110	1474657937893	1474657937982	j	74
209084	2265207	The area has an Armenian population but falls within Azerbajian.	The area has an Armenian population but falls within Azerbajian.	107606145	1474657938094	1474657938162	i	73
209084	2265207	The area has an Armenian population but falls within Azerbajian.	The area has an Armenian population but falls within Azerbajian.	107606149	1474657938232	1474657938352	a	65
209084	2265207	The area has an Armenian population but falls within Azerbajian.	The area has an Armenian population but falls within Azerbajian.	107606154	1474657938412	1474657938513	n	78
209084	2265207	The area has an Armenian population but falls within Azerbajian.	The area has an Armenian population but falls within Azerbajian.	107606156	1474657938683	1474657938762	.	190
209084	2265230	I'll get with him by phone to confirm.	I'll get with him by phone to confirm.	107606297	1474657940675	1474657940789	SHIFT	16
209084	2265230	I'll get with him by phone to confirm.	I'll get with him by phone to confirm.	107606298	1474657940705	1474657940789	I	73
209084	2265230	I'll get with him by phone to confirm.	I'll get with him by phone to confirm.	107606299	1474657940859	1474657940969	'	222
209084	2265230	I'll get with him by phone to confirm.	I'll get with him by phone to confirm.	107606301	1474657940969	1474657941046	l	76
209084	2265230	I'll get with him by phone to confirm.	I'll get with him by phone to confirm.	107606304	1474657941136	1474657941252	l	76
209084	2265230	I'll get with him by phone to confirm.	I'll get with him by phone to confirm.	107606309	1474657941252	1474657941370	 	32
209084	2265230	I'll get with him by phone to confirm.	I'll get with him by phone to confirm.	107606327	1474657941422	1474657941506	g	71
209084	2265230	I'll get with him by phone to confirm.	I'll get with him by phone to confirm.	107606330	1474657941546	1474657941633	e	69
209084	2265230	I'll get with him by phone to confirm.	I'll get with him by phone to confirm.	107606334	1474657941673	1474657941750	t	84
209084	2265230	I'll get with him by phone to confirm.	I'll get with him by phone to confirm.	107606337	1474657941820	1474657941946	 	32
209084	2265230	I'll get with him by phone to confirm.	I'll get with him by phone to confirm.	107606342	1474657941946	1474657942043	h	72
209084	2265230	I'll get with him by phone to confirm.	I'll get with him by phone to confirm.	107606380	1474657942325	1474657942376	BKSP	8
209084	2265230	I'll get with him by phone to confirm.	I'll get with him by phone to confirm.	107606386	1474657942416	1474657942489	w	87
209084	2265230	I'll get with him by phone to confirm.	I'll get with him by phone to confirm.	107606391	1474657942541	1474657942632	i	73
209084	2265230	I'll get with him by phone to confirm.	I'll get with him by phone to confirm.	107606393	1474657942632	1474657942716	t	84
209084	2265230	I'll get with him by phone to confirm.	I'll get with him by phone to confirm.	107606398	1474657942716	1474657942829	h	72
209084	2265230	I'll get with him by phone to confirm.	I'll get with him by phone to confirm.	107606401	1474657942829	1474657942956	 	32
209084	2265230	I'll get with him by phone to confirm.	I'll get with him by phone to confirm.	107606430	1474657942978	1474657943081	h	72
209084	2265230	I'll get with him by phone to confirm.	I'll get with him by phone to confirm.	107606437	1474657943056	1474657943189	i	73
209084	2265230	I'll get with him by phone to confirm.	I'll get with him by phone to confirm.	107606446	1474657943249	1474657943393	m	77
209084	2265230	I'll get with him by phone to confirm.	I'll get with him by phone to confirm.	107606458	1474657943368	1474657943465	 	32
209084	2265230	I'll get with him by phone to confirm.	I'll get with him by phone to confirm.	107606470	1474657943505	1474657943609	b	66
209084	2265230	I'll get with him by phone to confirm.	I'll get with him by phone to confirm.	107606530	1474657943619	1474657943716	y	89
209084	2265230	I'll get with him by phone to confirm.	I'll get with him by phone to confirm.	107606535	1474657943716	1474657943830	 	32
209084	2265230	I'll get with him by phone to confirm.	I'll get with him by phone to confirm.	107606537	1474657943942	1474657944106	p	80
209084	2265230	I'll get with him by phone to confirm.	I'll get with him by phone to confirm.	107606541	1474657944082	1474657944156	h	72
209084	2265230	I'll get with him by phone to confirm.	I'll get with him by phone to confirm.	107606546	1474657944178	1474657944345	o	79
209084	2265230	I'll get with him by phone to confirm.	I'll get with him by phone to confirm.	107606568	1474657944306	1474657944436	n	78
209084	2265230	I'll get with him by phone to confirm.	I'll get with him by phone to confirm.	107606572	1474657944436	1474657944523	e	69
209084	2265230	I'll get with him by phone to confirm.	I'll get with him by phone to confirm.	107606575	1474657944553	1474657944643	 	32
209084	2265230	I'll get with him by phone to confirm.	I'll get with him by phone to confirm.	107606578	1474657944693	1474657944782	t	84
209084	2265230	I'll get with him by phone to confirm.	I'll get with him by phone to confirm.	107606583	1474657944782	1474657944913	o	79
209084	2265230	I'll get with him by phone to confirm.	I'll get with him by phone to confirm.	107606624	1474657944876	1474657944986	 	32
209084	2265230	I'll get with him by phone to confirm.	I'll get with him by phone to confirm.	107606628	1474657945056	1474657945177	c	67
209084	2265230	I'll get with him by phone to confirm.	I'll get with him by phone to confirm.	107606631	1474657945146	1474657945265	o	79
209084	2265230	I'll get with him by phone to confirm.	I'll get with him by phone to confirm.	107606636	1474657945243	1474657945353	n	78
209084	2265230	I'll get with him by phone to confirm.	I'll get with him by phone to confirm.	107606639	1474657945332	1474657945441	f	70
209084	2265230	I'll get with him by phone to confirm.	I'll get with him by phone to confirm.	107606641	1474657945455	1474657945569	i	73
209084	2265230	I'll get with him by phone to confirm.	I'll get with him by phone to confirm.	107606680	1474657945539	1474657945632	r	82
209084	2265230	I'll get with him by phone to confirm.	I'll get with him by phone to confirm.	107606682	1474657945702	1474657945803	m	77
209084	2265230	I'll get with him by phone to confirm.	I'll get with him by phone to confirm.	107606685	1474657946203	1474657946299	.	190
209084	2265239	Rumors have him scheduled to attend at least part of the Pacers' game.	Rumors have him scheduled to attend at least part of the Pacers' game.	107606854	1474657947979	1474657948449	SHIFT	16
209084	2265239	Rumors have him scheduled to attend at least part of the Pacers' game.	Rumors have him scheduled to attend at least part of the Pacers' game.	107606849	1474657948339	1474657948419	R	82
209084	2265239	Rumors have him scheduled to attend at least part of the Pacers' game.	Rumors have him scheduled to attend at least part of the Pacers' game.	107606860	1474657948569	1474657948662	u	85
209084	2265239	Rumors have him scheduled to attend at least part of the Pacers' game.	Rumors have him scheduled to attend at least part of the Pacers' game.	107606865	1474657948832	1474657948937	m	77
209084	2265239	Rumors have him scheduled to attend at least part of the Pacers' game.	Rumors have him scheduled to attend at least part of the Pacers' game.	107606871	1474657948912	1474657949006	o	79
209084	2265239	Rumors have him scheduled to attend at least part of the Pacers' game.	Rumors have him scheduled to attend at least part of the Pacers' game.	107606877	1474657949026	1474657949112	r	82
209084	2265239	Rumors have him scheduled to attend at least part of the Pacers' game.	Rumors have him scheduled to attend at least part of the Pacers' game.	107606932	1474657949184	1474657949333	s	83
209084	2265239	Rumors have him scheduled to attend at least part of the Pacers' game.	Rumors have him scheduled to attend at least part of the Pacers' game.	107606940	1474657949393	1474657949489	 	32
209084	2265239	Rumors have him scheduled to attend at least part of the Pacers' game.	Rumors have him scheduled to attend at least part of the Pacers' game.	107606947	1474657949569	1474657949641	h	72
209084	2265239	Rumors have him scheduled to attend at least part of the Pacers' game.	Rumors have him scheduled to attend at least part of the Pacers' game.	107606954	1474657949671	1474657949765	a	65
209084	2265239	Rumors have him scheduled to attend at least part of the Pacers' game.	Rumors have him scheduled to attend at least part of the Pacers' game.	107606963	1474657949785	1474657949913	v	86
209084	2265239	Rumors have him scheduled to attend at least part of the Pacers' game.	Rumors have him scheduled to attend at least part of the Pacers' game.	107607003	1474657949882	1474657949983	e	69
209084	2265239	Rumors have him scheduled to attend at least part of the Pacers' game.	Rumors have him scheduled to attend at least part of the Pacers' game.	107607013	1474657949983	1474657950082	 	32
209084	2265239	Rumors have him scheduled to attend at least part of the Pacers' game.	Rumors have him scheduled to attend at least part of the Pacers' game.	107607021	1474657950082	1474657950172	h	72
209084	2265239	Rumors have him scheduled to attend at least part of the Pacers' game.	Rumors have him scheduled to attend at least part of the Pacers' game.	107607027	1474657950172	1474657950312	i	73
209084	2265239	Rumors have him scheduled to attend at least part of the Pacers' game.	Rumors have him scheduled to attend at least part of the Pacers' game.	107607033	1474657950322	1474657950473	m	77
209084	2265239	Rumors have him scheduled to attend at least part of the Pacers' game.	Rumors have him scheduled to attend at least part of the Pacers' game.	107607087	1474657950433	1474657950559	 	32
209084	2265239	Rumors have him scheduled to attend at least part of the Pacers' game.	Rumors have him scheduled to attend at least part of the Pacers' game.	107607091	1474657950549	1474657950629	s	83
209084	2265239	Rumors have him scheduled to attend at least part of the Pacers' game.	Rumors have him scheduled to attend at least part of the Pacers' game.	107607097	1474657950752	1474657950865	c	67
209084	2265239	Rumors have him scheduled to attend at least part of the Pacers' game.	Rumors have him scheduled to attend at least part of the Pacers' game.	107607102	1474657950865	1474657950962	h	72
209084	2265239	Rumors have him scheduled to attend at least part of the Pacers' game.	Rumors have him scheduled to attend at least part of the Pacers' game.	107607109	1474657951012	1474657951085	e	69
209084	2265239	Rumors have him scheduled to attend at least part of the Pacers' game.	Rumors have him scheduled to attend at least part of the Pacers' game.	107607114	1474657951185	1474657951279	d	68
209084	2265239	Rumors have him scheduled to attend at least part of the Pacers' game.	Rumors have him scheduled to attend at least part of the Pacers' game.	107607147	1474657951289	1474657951379	u	85
209084	2265239	Rumors have him scheduled to attend at least part of the Pacers' game.	Rumors have him scheduled to attend at least part of the Pacers' game.	107607152	1474657951399	1474657951489	l	76
209084	2265239	Rumors have him scheduled to attend at least part of the Pacers' game.	Rumors have him scheduled to attend at least part of the Pacers' game.	107607158	1474657951489	1474657951641	e	69
209084	2265239	Rumors have him scheduled to attend at least part of the Pacers' game.	Rumors have him scheduled to attend at least part of the Pacers' game.	107607167	1474657951775	1474657951872	d	68
209084	2265239	Rumors have him scheduled to attend at least part of the Pacers' game.	Rumors have him scheduled to attend at least part of the Pacers' game.	107607171	1474657951882	1474657951983	 	32
209084	2265239	Rumors have him scheduled to attend at least part of the Pacers' game.	Rumors have him scheduled to attend at least part of the Pacers' game.	107607191	1474657952025	1474657952082	t	84
209084	2265239	Rumors have him scheduled to attend at least part of the Pacers' game.	Rumors have him scheduled to attend at least part of the Pacers' game.	107607194	1474657952082	1474657952209	o	79
209084	2265239	Rumors have him scheduled to attend at least part of the Pacers' game.	Rumors have him scheduled to attend at least part of the Pacers' game.	107607201	1474657952182	1474657952302	 	32
209084	2265239	Rumors have him scheduled to attend at least part of the Pacers' game.	Rumors have him scheduled to attend at least part of the Pacers' game.	107607205	1474657952342	1474657952449	a	65
209084	2265239	Rumors have him scheduled to attend at least part of the Pacers' game.	Rumors have him scheduled to attend at least part of the Pacers' game.	107607213	1474657952489	1474657952559	t	84
209084	2265239	Rumors have him scheduled to attend at least part of the Pacers' game.	Rumors have him scheduled to attend at least part of the Pacers' game.	107607251	1474657952650	1474657952785	t	84
209084	2265239	Rumors have him scheduled to attend at least part of the Pacers' game.	Rumors have him scheduled to attend at least part of the Pacers' game.	107607254	1474657952765	1474657952855	e	69
209084	2265239	Rumors have him scheduled to attend at least part of the Pacers' game.	Rumors have him scheduled to attend at least part of the Pacers' game.	107607259	1474657952905	1474657952995	n	78
209084	2265239	Rumors have him scheduled to attend at least part of the Pacers' game.	Rumors have him scheduled to attend at least part of the Pacers' game.	107607264	1474657952995	1474657953099	d	68
209084	2265239	Rumors have him scheduled to attend at least part of the Pacers' game.	Rumors have him scheduled to attend at least part of the Pacers' game.	107607269	1474657953129	1474657953232	 	32
209084	2265239	Rumors have him scheduled to attend at least part of the Pacers' game.	Rumors have him scheduled to attend at least part of the Pacers' game.	107607294	1474657953242	1474657953369	a	65
209084	2265239	Rumors have him scheduled to attend at least part of the Pacers' game.	Rumors have him scheduled to attend at least part of the Pacers' game.	107607300	1474657953369	1474657953435	t	84
209084	2265239	Rumors have him scheduled to attend at least part of the Pacers' game.	Rumors have him scheduled to attend at least part of the Pacers' game.	107607312	1474657953485	1474657953592	 	32
209084	2265239	Rumors have him scheduled to attend at least part of the Pacers' game.	Rumors have him scheduled to attend at least part of the Pacers' game.	107607323	1474657953592	1474657953705	l	76
209084	2265239	Rumors have him scheduled to attend at least part of the Pacers' game.	Rumors have him scheduled to attend at least part of the Pacers' game.	107607374	1474657953689	1474657953814	e	69
209084	2265239	Rumors have him scheduled to attend at least part of the Pacers' game.	Rumors have him scheduled to attend at least part of the Pacers' game.	107607379	1474657953804	1474657953956	a	65
209084	2265239	Rumors have him scheduled to attend at least part of the Pacers' game.	Rumors have him scheduled to attend at least part of the Pacers' game.	107607385	1474657953956	1474657954065	s	83
209084	2265239	Rumors have him scheduled to attend at least part of the Pacers' game.	Rumors have him scheduled to attend at least part of the Pacers' game.	107607389	1474657954095	1474657954179	t	84
209084	2265239	Rumors have him scheduled to attend at least part of the Pacers' game.	Rumors have him scheduled to attend at least part of the Pacers' game.	107607396	1474657954209	1474657954345	 	32
209084	2265239	Rumors have him scheduled to attend at least part of the Pacers' game.	Rumors have him scheduled to attend at least part of the Pacers' game.	107607400	1474657954345	1474657954449	p	80
209084	2265239	Rumors have him scheduled to attend at least part of the Pacers' game.	Rumors have him scheduled to attend at least part of the Pacers' game.	107607419	1474657954459	1474657954615	a	65
209084	2265239	Rumors have him scheduled to attend at least part of the Pacers' game.	Rumors have him scheduled to attend at least part of the Pacers' game.	107607425	1474657954555	1474657954665	r	82
209084	2265239	Rumors have him scheduled to attend at least part of the Pacers' game.	Rumors have him scheduled to attend at least part of the Pacers' game.	107607434	1474657954755	1474657954855	t	84
209084	2265239	Rumors have him scheduled to attend at least part of the Pacers' game.	Rumors have him scheduled to attend at least part of the Pacers' game.	107607443	1474657954875	1474657955025	 	32
209084	2265239	Rumors have him scheduled to attend at least part of the Pacers' game.	Rumors have him scheduled to attend at least part of the Pacers' game.	107607467	1474657954972	1474657955068	o	79
209084	2265239	Rumors have him scheduled to attend at least part of the Pacers' game.	Rumors have him scheduled to attend at least part of the Pacers' game.	107607470	1474657955068	1474657955172	f	70
209084	2265239	Rumors have him scheduled to attend at least part of the Pacers' game.	Rumors have him scheduled to attend at least part of the Pacers' game.	107607473	1474657955172	1474657955272	 	32
209084	2265239	Rumors have him scheduled to attend at least part of the Pacers' game.	Rumors have him scheduled to attend at least part of the Pacers' game.	107607479	1474657955272	1474657955385	t	84
209084	2265239	Rumors have him scheduled to attend at least part of the Pacers' game.	Rumors have him scheduled to attend at least part of the Pacers' game.	107607483	1474657955385	1474657955499	h	72
209084	2265239	Rumors have him scheduled to attend at least part of the Pacers' game.	Rumors have him scheduled to attend at least part of the Pacers' game.	107607577	1474657955442	1474657955545	e	69
209084	2265239	Rumors have him scheduled to attend at least part of the Pacers' game.	Rumors have him scheduled to attend at least part of the Pacers' game.	107607578	1474657955499	1474657955635	 	32
209084	2265239	Rumors have him scheduled to attend at least part of the Pacers' game.	Rumors have him scheduled to attend at least part of the Pacers' game.	107607579	1474657955675	1474657955819	SHIFT	16
209084	2265239	Rumors have him scheduled to attend at least part of the Pacers' game.	Rumors have him scheduled to attend at least part of the Pacers' game.	107607582	1474657955745	1474657955849	P	80
209084	2265239	Rumors have him scheduled to attend at least part of the Pacers' game.	Rumors have him scheduled to attend at least part of the Pacers' game.	107607587	1474657955959	1474657956085	a	65
209084	2265239	Rumors have him scheduled to attend at least part of the Pacers' game.	Rumors have him scheduled to attend at least part of the Pacers' game.	107607595	1474657956569	1474657956675	c	67
209084	2265239	Rumors have him scheduled to attend at least part of the Pacers' game.	Rumors have him scheduled to attend at least part of the Pacers' game.	107607602	1474657956795	1474657956913	e	69
209084	2265239	Rumors have him scheduled to attend at least part of the Pacers' game.	Rumors have him scheduled to attend at least part of the Pacers' game.	107607696	1474657956859	1474657956977	r	82
209084	2265239	Rumors have him scheduled to attend at least part of the Pacers' game.	Rumors have him scheduled to attend at least part of the Pacers' game.	107607704	1474657957027	1474657957132	s	83
209084	2265239	Rumors have him scheduled to attend at least part of the Pacers' game.	Rumors have him scheduled to attend at least part of the Pacers' game.	107607713	1474657957593	1474657957699	'	222
209084	2265239	Rumors have him scheduled to attend at least part of the Pacers' game.	Rumors have him scheduled to attend at least part of the Pacers' game.	107607721	1474657957939	1474657958009	 	32
209084	2265239	Rumors have him scheduled to attend at least part of the Pacers' game.	Rumors have him scheduled to attend at least part of the Pacers' game.	107607728	1474657958089	1474657958209	g	71
209084	2265239	Rumors have him scheduled to attend at least part of the Pacers' game.	Rumors have him scheduled to attend at least part of the Pacers' game.	107607733	1474657958209	1474657958337	a	65
209084	2265239	Rumors have him scheduled to attend at least part of the Pacers' game.	Rumors have him scheduled to attend at least part of the Pacers' game.	107607743	1474657958305	1474657958422	m	77
209084	2265239	Rumors have him scheduled to attend at least part of the Pacers' game.	Rumors have him scheduled to attend at least part of the Pacers' game.	107607746	1474657958422	1474657958522	e	69
209084	2265239	Rumors have him scheduled to attend at least part of the Pacers' game.	Rumors have him scheduled to attend at least part of the Pacers' game.	107607749	1474657958631	1474657958722	.	190
209084	2265259	What is the mood?	What is the mood?	107607893	1474657960375	1474657960498	SHIFT	16
209084	2265259	What is the mood?	What is the mood?	107607899	1474657960455	1474657960548	W	87
209084	2265259	What is the mood?	What is the mood?	107607905	1474657960589	1474657960652	h	72
209084	2265259	What is the mood?	What is the mood?	107607912	1474657960682	1474657960816	a	65
209084	2265259	What is the mood?	What is the mood?	107607917	1474657960816	1474657960899	t	84
209084	2265259	What is the mood?	What is the mood?	107607923	1474657960899	1474657961032	 	32
209084	2265259	What is the mood?	What is the mood?	107607930	1474657960993	1474657961084	i	73
209084	2265259	What is the mood?	What is the mood?	107607932	1474657961084	1474657961176	s	83
209084	2265259	What is the mood?	What is the mood?	107607935	1474657961166	1474657961279	 	32
209084	2265259	What is the mood?	What is the mood?	107607937	1474657961279	1474657961345	t	84
209084	2265259	What is the mood?	What is the mood?	107607940	1474657961345	1474657961459	h	72
209084	2265259	What is the mood?	What is the mood?	107607971	1474657961402	1474657961469	e	69
209084	2265259	What is the mood?	What is the mood?	107607975	1474657961459	1474657961584	 	32
209084	2265259	What is the mood?	What is the mood?	107607979	1474657961624	1474657961755	m	77
209084	2265259	What is the mood?	What is the mood?	107607986	1474657961745	1474657961792	o	79
209084	2265259	What is the mood?	What is the mood?	107607991	1474657961852	1474657961985	o	79
209084	2265259	What is the mood?	What is the mood?	107607997	1474657961985	1474657962076	d	68
209084	2265259	What is the mood?	What is the mood?	107608029	1474657962188	1474657962459	SHIFT	16
209084	2265259	What is the mood?	What is the mood?	107608024	1474657962308	1474657962419	?	191
209084	2265267	As soon as anyone does that they can get nailed.	As asoon as anyone does that they can get nailed.	107608172	1474657964245	1474657964416	SHIFT	16
209084	2265267	As soon as anyone does that they can get nailed.	As asoon as anyone does that they can get nailed.	107608176	1474657964335	1474657964416	A	65
209084	2265267	As soon as anyone does that they can get nailed.	As asoon as anyone does that they can get nailed.	107608179	1474657964476	1474657964575	s	83
209084	2265267	As soon as anyone does that they can get nailed.	As asoon as anyone does that they can get nailed.	107608183	1474657964605	1474657964708	 	32
209084	2265267	As soon as anyone does that they can get nailed.	As asoon as anyone does that they can get nailed.	107608186	1474657964728	1474657964880	a	65
209084	2265267	As soon as anyone does that they can get nailed.	As asoon as anyone does that they can get nailed.	107608369	1474657964856	1474657964988	s	83
209084	2265267	As soon as anyone does that they can get nailed.	As asoon as anyone does that they can get nailed.	107608373	1474657965048	1474657965128	o	79
209084	2265267	As soon as anyone does that they can get nailed.	As asoon as anyone does that they can get nailed.	107608382	1474657965198	1474657965368	o	79
209084	2265267	As soon as anyone does that they can get nailed.	As asoon as anyone does that they can get nailed.	107608389	1474657965342	1474657965448	n	78
209084	2265267	As soon as anyone does that they can get nailed.	As asoon as anyone does that they can get nailed.	107608395	1474657965412	1474657965545	 	32
209084	2265267	As soon as anyone does that they can get nailed.	As asoon as anyone does that they can get nailed.	107608400	1474657967248	1474657967391	a	65
209084	2265267	As soon as anyone does that they can get nailed.	As asoon as anyone does that they can get nailed.	107608519	1474657967339	1474657967483	s	83
209084	2265267	As soon as anyone does that they can get nailed.	As asoon as anyone does that they can get nailed.	107608527	1474657967793	1474657967891	 	32
209084	2265267	As soon as anyone does that they can get nailed.	As asoon as anyone does that they can get nailed.	107608536	1474657968331	1474657968451	a	65
209084	2265267	As soon as anyone does that they can get nailed.	As asoon as anyone does that they can get nailed.	107608546	1474657968451	1474657968519	n	78
209084	2265267	As soon as anyone does that they can get nailed.	As asoon as anyone does that they can get nailed.	107608553	1474657968649	1474657968719	y	89
209084	2265267	As soon as anyone does that they can get nailed.	As asoon as anyone does that they can get nailed.	107608561	1474657968779	1474657968935	o	79
209084	2265267	As soon as anyone does that they can get nailed.	As asoon as anyone does that they can get nailed.	107608579	1474657968878	1474657968977	n	78
209084	2265267	As soon as anyone does that they can get nailed.	As asoon as anyone does that they can get nailed.	107608580	1474657968967	1474657969039	e	69
209084	2265267	As soon as anyone does that they can get nailed.	As asoon as anyone does that they can get nailed.	107608583	1474657969069	1474657969155	 	32
209084	2265267	As soon as anyone does that they can get nailed.	As asoon as anyone does that they can get nailed.	107608584	1474657969245	1474657969321	d	68
209084	2265267	As soon as anyone does that they can get nailed.	As asoon as anyone does that they can get nailed.	107608587	1474657969321	1474657969405	o	79
209084	2265267	As soon as anyone does that they can get nailed.	As asoon as anyone does that they can get nailed.	107608589	1474657969445	1474657969585	e	69
209084	2265267	As soon as anyone does that they can get nailed.	As asoon as anyone does that they can get nailed.	107608637	1474657969531	1474657969707	s	83
209084	2265267	As soon as anyone does that they can get nailed.	As asoon as anyone does that they can get nailed.	107608642	1474657969727	1474657969832	 	32
209084	2265267	As soon as anyone does that they can get nailed.	As asoon as anyone does that they can get nailed.	107608650	1474657969862	1474657969948	t	84
209084	2265267	As soon as anyone does that they can get nailed.	As asoon as anyone does that they can get nailed.	107608655	1474657969978	1474657970048	h	72
209084	2265267	As soon as anyone does that they can get nailed.	As asoon as anyone does that they can get nailed.	107608663	1474657970016	1474657970161	a	65
209084	2265267	As soon as anyone does that they can get nailed.	As asoon as anyone does that they can get nailed.	107608707	1474657970089	1474657970203	t	84
209084	2265267	As soon as anyone does that they can get nailed.	As asoon as anyone does that they can get nailed.	107608711	1474657970203	1474657970308	 	32
209084	2265267	As soon as anyone does that they can get nailed.	As asoon as anyone does that they can get nailed.	107608716	1474657970328	1474657970440	t	84
209084	2265267	As soon as anyone does that they can get nailed.	As asoon as anyone does that they can get nailed.	107608721	1474657970416	1474657970488	h	72
209084	2265267	As soon as anyone does that they can get nailed.	As asoon as anyone does that they can get nailed.	107608727	1474657970488	1474657970601	e	69
209084	2265267	As soon as anyone does that they can get nailed.	As asoon as anyone does that they can get nailed.	107608731	1474657970601	1474657970712	y	89
209084	2265267	As soon as anyone does that they can get nailed.	As asoon as anyone does that they can get nailed.	107608765	1474657970681	1474657970801	 	32
209084	2265267	As soon as anyone does that they can get nailed.	As asoon as anyone does that they can get nailed.	107608769	1474657970871	1474657970954	c	67
209084	2265267	As soon as anyone does that they can get nailed.	As asoon as anyone does that they can get nailed.	107608775	1474657971024	1474657971124	a	65
209084	2265267	As soon as anyone does that they can get nailed.	As asoon as anyone does that they can get nailed.	107608779	1474657971124	1474657971248	n	78
209084	2265267	As soon as anyone does that they can get nailed.	As asoon as anyone does that they can get nailed.	107608786	1474657971204	1474657971328	 	32
209084	2265267	As soon as anyone does that they can get nailed.	As asoon as anyone does that they can get nailed.	107608792	1474657971328	1474657971404	g	71
209084	2265267	As soon as anyone does that they can get nailed.	As asoon as anyone does that they can get nailed.	107608882	1474657971426	1474657971534	e	69
209084	2265267	As soon as anyone does that they can get nailed.	As asoon as anyone does that they can get nailed.	107608886	1474657971595	1474657971671	t	84
209084	2265267	As soon as anyone does that they can get nailed.	As asoon as anyone does that they can get nailed.	107608889	1474657971691	1474657971838	 	32
209084	2265267	As soon as anyone does that they can get nailed.	As asoon as anyone does that they can get nailed.	107608891	1474657971838	1474657971938	n	78
209084	2265267	As soon as anyone does that they can get nailed.	As asoon as anyone does that they can get nailed.	107608894	1474657972329	1474657972484	a	65
209084	2265267	As soon as anyone does that they can get nailed.	As asoon as anyone does that they can get nailed.	107608929	1474657972484	1474657972592	i	73
209084	2265267	As soon as anyone does that they can get nailed.	As asoon as anyone does that they can get nailed.	107608931	1474657972582	1474657972696	l	76
209084	2265267	As soon as anyone does that they can get nailed.	As asoon as anyone does that they can get nailed.	107608933	1474657972664	1474657972784	e	69
209084	2265267	As soon as anyone does that they can get nailed.	As asoon as anyone does that they can get nailed.	107608938	1474657972895	1474657973001	d	68
209084	2265267	As soon as anyone does that they can get nailed.	As asoon as anyone does that they can get nailed.	107608942	1474657973001	1474657973068	.	190
209084	2265284	I wanted to go drinking with you.	I wanted to go drinking with you.	107609135	1474657975358	1474657975581	SHIFT	16
209084	2265284	I wanted to go drinking with you.	I wanted to go drinking with you.	107609134	1474657975488	1474657975571	I	73
209084	2265284	I wanted to go drinking with you.	I wanted to go drinking with you.	107609136	1474657975641	1474657975761	 	32
209084	2265284	I wanted to go drinking with you.	I wanted to go drinking with you.	107609137	1474657975761	1474657975891	w	87
209084	2265284	I wanted to go drinking with you.	I wanted to go drinking with you.	107609139	1474657975848	1474657975961	a	65
209084	2265284	I wanted to go drinking with you.	I wanted to go drinking with you.	107609143	1474657975981	1474657976074	n	78
209084	2265284	I wanted to go drinking with you.	I wanted to go drinking with you.	107609177	1474657976074	1474657976191	t	84
209084	2265284	I wanted to go drinking with you.	I wanted to go drinking with you.	107609181	1474657976144	1474657976251	e	69
209084	2265284	I wanted to go drinking with you.	I wanted to go drinking with you.	107609184	1474657976351	1474657976450	d	68
209084	2265284	I wanted to go drinking with you.	I wanted to go drinking with you.	107609187	1474657976450	1474657976530	 	32
209084	2265284	I wanted to go drinking with you.	I wanted to go drinking with you.	107609190	1474657976560	1474657976637	t	84
209084	2265284	I wanted to go drinking with you.	I wanted to go drinking with you.	107609244	1474657976637	1474657976753	o	79
209084	2265284	I wanted to go drinking with you.	I wanted to go drinking with you.	107609248	1474657976720	1474657976853	 	32
209084	2265284	I wanted to go drinking with you.	I wanted to go drinking with you.	107609251	1474657977243	1474657977300	g	71
209084	2265284	I wanted to go drinking with you.	I wanted to go drinking with you.	107609254	1474657977370	1474657977473	o	79
209084	2265284	I wanted to go drinking with you.	I wanted to go drinking with you.	107609289	1474657977463	1474657977576	 	32
209084	2265284	I wanted to go drinking with you.	I wanted to go drinking with you.	107609294	1474657977576	1474657977653	d	68
209084	2265284	I wanted to go drinking with you.	I wanted to go drinking with you.	107609299	1474657977753	1474657977829	r	82
209084	2265284	I wanted to go drinking with you.	I wanted to go drinking with you.	107609303	1474657977829	1474657977944	i	73
209084	2265284	I wanted to go drinking with you.	I wanted to go drinking with you.	107609306	1474657977944	1474657978009	n	78
209084	2265284	I wanted to go drinking with you.	I wanted to go drinking with you.	107609310	1474657978059	1474657978126	k	75
209084	2265284	I wanted to go drinking with you.	I wanted to go drinking with you.	107609330	1474657978217	1474657978322	i	73
209084	2265284	I wanted to go drinking with you.	I wanted to go drinking with you.	107609333	1474657978322	1474657978392	n	78
209084	2265284	I wanted to go drinking with you.	I wanted to go drinking with you.	107609338	1474657978382	1474657978472	g	71
209084	2265284	I wanted to go drinking with you.	I wanted to go drinking with you.	107609346	1474657978472	1474657978562	 	32
209084	2265284	I wanted to go drinking with you.	I wanted to go drinking with you.	107609356	1474657978562	1474657978670	w	87
209084	2265284	I wanted to go drinking with you.	I wanted to go drinking with you.	107609398	1474657978670	1474657978712	i	73
209084	2265284	I wanted to go drinking with you.	I wanted to go drinking with you.	107609401	1474657978742	1474657978828	t	84
209084	2265284	I wanted to go drinking with you.	I wanted to go drinking with you.	107609407	1474657978828	1474657978913	h	72
209084	2265284	I wanted to go drinking with you.	I wanted to go drinking with you.	107609412	1474657978882	1474657979018	 	32
209084	2265284	I wanted to go drinking with you.	I wanted to go drinking with you.	107609420	1474657979078	1474657979151	y	89
209084	2265284	I wanted to go drinking with you.	I wanted to go drinking with you.	107609442	1474657979233	1474657979328	o	79
209084	2265284	I wanted to go drinking with you.	I wanted to go drinking with you.	107609444	1474657979291	1474657979398	u	85
209084	2265284	I wanted to go drinking with you.	I wanted to go drinking with you.	107609447	1474657979508	1474657979634	.	190
209084	2265293	Washington was not moving toward a unilateral lifting of the embargo.	Washington was not moving toward a unilateral lifting of the embargo.	107609650	1474657981423	1474657981653	SHIFT	16
209084	2265293	Washington was not moving toward a unilateral lifting of the embargo.	Washington was not moving toward a unilateral lifting of the embargo.	107609648	1474657981523	1474657981633	W	87
209084	2265293	Washington was not moving toward a unilateral lifting of the embargo.	Washington was not moving toward a unilateral lifting of the embargo.	107609652	1474657981753	1474657981897	a	65
209084	2265293	Washington was not moving toward a unilateral lifting of the embargo.	Washington was not moving toward a unilateral lifting of the embargo.	107609654	1474657981869	1474657982016	s	83
209084	2265293	Washington was not moving toward a unilateral lifting of the embargo.	Washington was not moving toward a unilateral lifting of the embargo.	107609656	1474657982056	1474657982136	h	72
209084	2265293	Washington was not moving toward a unilateral lifting of the embargo.	Washington was not moving toward a unilateral lifting of the embargo.	107609657	1474657982136	1474657982289	i	73
209084	2265293	Washington was not moving toward a unilateral lifting of the embargo.	Washington was not moving toward a unilateral lifting of the embargo.	107609696	1474657982253	1474657982377	n	78
209084	2265293	Washington was not moving toward a unilateral lifting of the embargo.	Washington was not moving toward a unilateral lifting of the embargo.	107609700	1474657982343	1474657982429	g	71
209084	2265293	Washington was not moving toward a unilateral lifting of the embargo.	Washington was not moving toward a unilateral lifting of the embargo.	107609704	1474657982549	1474657982619	t	84
209084	2265293	Washington was not moving toward a unilateral lifting of the embargo.	Washington was not moving toward a unilateral lifting of the embargo.	107609707	1474657982649	1474657982809	o	79
209084	2265293	Washington was not moving toward a unilateral lifting of the embargo.	Washington was not moving toward a unilateral lifting of the embargo.	107609711	1474657982729	1474657982897	n	78
209084	2265293	Washington was not moving toward a unilateral lifting of the embargo.	Washington was not moving toward a unilateral lifting of the embargo.	107609732	1474657982859	1474657982976	 	32
209084	2265293	Washington was not moving toward a unilateral lifting of the embargo.	Washington was not moving toward a unilateral lifting of the embargo.	107609737	1474657983016	1474657983177	w	87
209084	2265293	Washington was not moving toward a unilateral lifting of the embargo.	Washington was not moving toward a unilateral lifting of the embargo.	107609741	1474657983156	1474657983376	a	65
209084	2265293	Washington was not moving toward a unilateral lifting of the embargo.	Washington was not moving toward a unilateral lifting of the embargo.	107609744	1474657983336	1474657983483	s	83
209084	2265293	Washington was not moving toward a unilateral lifting of the embargo.	Washington was not moving toward a unilateral lifting of the embargo.	107609748	1474657983426	1474657983577	 	32
209084	2265293	Washington was not moving toward a unilateral lifting of the embargo.	Washington was not moving toward a unilateral lifting of the embargo.	107609783	1474657983533	1474657983657	n	78
209084	2265293	Washington was not moving toward a unilateral lifting of the embargo.	Washington was not moving toward a unilateral lifting of the embargo.	107609785	1474657983631	1474657983705	o	79
209084	2265293	Washington was not moving toward a unilateral lifting of the embargo.	Washington was not moving toward a unilateral lifting of the embargo.	107609790	1474657983683	1474657983782	t	84
209084	2265293	Washington was not moving toward a unilateral lifting of the embargo.	Washington was not moving toward a unilateral lifting of the embargo.	107609792	1474657983782	1474657983896	 	32
209084	2265293	Washington was not moving toward a unilateral lifting of the embargo.	Washington was not moving toward a unilateral lifting of the embargo.	107609794	1474657984166	1474657984333	m	77
209084	2265293	Washington was not moving toward a unilateral lifting of the embargo.	Washington was not moving toward a unilateral lifting of the embargo.	107609798	1474657984333	1474657984423	o	79
209084	2265293	Washington was not moving toward a unilateral lifting of the embargo.	Washington was not moving toward a unilateral lifting of the embargo.	107609817	1474657984475	1474657984603	v	86
209084	2265293	Washington was not moving toward a unilateral lifting of the embargo.	Washington was not moving toward a unilateral lifting of the embargo.	107609821	1474657984623	1474657984769	i	73
209084	2265293	Washington was not moving toward a unilateral lifting of the embargo.	Washington was not moving toward a unilateral lifting of the embargo.	107609822	1474657984723	1474657984863	n	78
209084	2265293	Washington was not moving toward a unilateral lifting of the embargo.	Washington was not moving toward a unilateral lifting of the embargo.	107609824	1474657984863	1474657984966	g	71
209084	2265293	Washington was not moving toward a unilateral lifting of the embargo.	Washington was not moving toward a unilateral lifting of the embargo.	107609828	1474657984976	1474657985086	 	32
209084	2265293	Washington was not moving toward a unilateral lifting of the embargo.	Washington was not moving toward a unilateral lifting of the embargo.	107609854	1474657985128	1474657985213	t	84
209084	2265293	Washington was not moving toward a unilateral lifting of the embargo.	Washington was not moving toward a unilateral lifting of the embargo.	107609857	1474657985243	1474657985329	o	79
209084	2265293	Washington was not moving toward a unilateral lifting of the embargo.	Washington was not moving toward a unilateral lifting of the embargo.	107609858	1474657985369	1474657985503	w	87
209084	2265293	Washington was not moving toward a unilateral lifting of the embargo.	Washington was not moving toward a unilateral lifting of the embargo.	107609861	1474657985564	1474657985721	a	65
209084	2265293	Washington was not moving toward a unilateral lifting of the embargo.	Washington was not moving toward a unilateral lifting of the embargo.	107609895	1474657985696	1474657985809	r	82
209084	2265293	Washington was not moving toward a unilateral lifting of the embargo.	Washington was not moving toward a unilateral lifting of the embargo.	107609900	1474657985899	1474657986029	d	68
209084	2265293	Washington was not moving toward a unilateral lifting of the embargo.	Washington was not moving toward a unilateral lifting of the embargo.	107609905	1474657986029	1474657986148	 	32
209084	2265293	Washington was not moving toward a unilateral lifting of the embargo.	Washington was not moving toward a unilateral lifting of the embargo.	107609911	1474657986148	1474657986289	a	65
209084	2265293	Washington was not moving toward a unilateral lifting of the embargo.	Washington was not moving toward a unilateral lifting of the embargo.	107609916	1474657986239	1474657986369	 	32
209084	2265293	Washington was not moving toward a unilateral lifting of the embargo.	Washington was not moving toward a unilateral lifting of the embargo.	107609919	1474657986439	1474657986529	u	85
209084	2265293	Washington was not moving toward a unilateral lifting of the embargo.	Washington was not moving toward a unilateral lifting of the embargo.	107609934	1474657986661	1474657986776	n	78
209084	2265293	Washington was not moving toward a unilateral lifting of the embargo.	Washington was not moving toward a unilateral lifting of the embargo.	107609938	1474657986736	1474657986896	i	73
209084	2265293	Washington was not moving toward a unilateral lifting of the embargo.	Washington was not moving toward a unilateral lifting of the embargo.	107609943	1474657986896	1474657987019	l	76
209084	2265293	Washington was not moving toward a unilateral lifting of the embargo.	Washington was not moving toward a unilateral lifting of the embargo.	107609949	1474657987009	1474657987096	a	65
209084	2265293	Washington was not moving toward a unilateral lifting of the embargo.	Washington was not moving toward a unilateral lifting of the embargo.	107609953	1474657987137	1474657987216	t	84
209084	2265293	Washington was not moving toward a unilateral lifting of the embargo.	Washington was not moving toward a unilateral lifting of the embargo.	107610044	1474657987297	1474657987392	e	69
209084	2265293	Washington was not moving toward a unilateral lifting of the embargo.	Washington was not moving toward a unilateral lifting of the embargo.	107610048	1474657987345	1474657987464	r	82
209084	2265293	Washington was not moving toward a unilateral lifting of the embargo.	Washington was not moving toward a unilateral lifting of the embargo.	107610050	1474657988232	1474657988323	a	65
209084	2265293	Washington was not moving toward a unilateral lifting of the embargo.	Washington was not moving toward a unilateral lifting of the embargo.	107610054	1474657988363	1474657988486	l	76
209084	2265293	Washington was not moving toward a unilateral lifting of the embargo.	Washington was not moving toward a unilateral lifting of the embargo.	107610059	1474657988516	1474657988660	 	32
209084	2265293	Washington was not moving toward a unilateral lifting of the embargo.	Washington was not moving toward a unilateral lifting of the embargo.	107610132	1474657988912	1474657989033	l	76
209084	2265293	Washington was not moving toward a unilateral lifting of the embargo.	Washington was not moving toward a unilateral lifting of the embargo.	107610134	1474657988996	1474657989094	i	73
209084	2265293	Washington was not moving toward a unilateral lifting of the embargo.	Washington was not moving toward a unilateral lifting of the embargo.	107610139	1474657989114	1474657989226	f	70
209084	2265293	Washington was not moving toward a unilateral lifting of the embargo.	Washington was not moving toward a unilateral lifting of the embargo.	107610143	1474657989326	1474657989412	t	84
209084	2265293	Washington was not moving toward a unilateral lifting of the embargo.	Washington was not moving toward a unilateral lifting of the embargo.	107610147	1474657989412	1474657989537	i	73
209084	2265293	Washington was not moving toward a unilateral lifting of the embargo.	Washington was not moving toward a unilateral lifting of the embargo.	107610235	1474657989490	1474657989600	n	78
209084	2265293	Washington was not moving toward a unilateral lifting of the embargo.	Washington was not moving toward a unilateral lifting of the embargo.	107610240	1474657989640	1474657989723	g	71
209084	2265293	Washington was not moving toward a unilateral lifting of the embargo.	Washington was not moving toward a unilateral lifting of the embargo.	107610247	1474657990003	1474657990136	 	32
209084	2265293	Washington was not moving toward a unilateral lifting of the embargo.	Washington was not moving toward a unilateral lifting of the embargo.	107610252	1474657990126	1474657990232	o	79
209084	2265293	Washington was not moving toward a unilateral lifting of the embargo.	Washington was not moving toward a unilateral lifting of the embargo.	107610257	1474657990332	1474657990452	f	70
209084	2265293	Washington was not moving toward a unilateral lifting of the embargo.	Washington was not moving toward a unilateral lifting of the embargo.	107610263	1474657990472	1474657990576	 	32
209084	2265293	Washington was not moving toward a unilateral lifting of the embargo.	Washington was not moving toward a unilateral lifting of the embargo.	107610280	1474657990608	1474657990700	t	84
209084	2265293	Washington was not moving toward a unilateral lifting of the embargo.	Washington was not moving toward a unilateral lifting of the embargo.	107610286	1474657990700	1474657990832	h	72
209084	2265293	Washington was not moving toward a unilateral lifting of the embargo.	Washington was not moving toward a unilateral lifting of the embargo.	107610291	1474657990789	1474657990862	e	69
209084	2265293	Washington was not moving toward a unilateral lifting of the embargo.	Washington was not moving toward a unilateral lifting of the embargo.	107610298	1474657990862	1474657990956	 	32
209084	2265293	Washington was not moving toward a unilateral lifting of the embargo.	Washington was not moving toward a unilateral lifting of the embargo.	107610303	1474657990975	1474657991071	e	69
209084	2265293	Washington was not moving toward a unilateral lifting of the embargo.	Washington was not moving toward a unilateral lifting of the embargo.	107610327	1474657991142	1474657991248	m	77
209084	2265293	Washington was not moving toward a unilateral lifting of the embargo.	Washington was not moving toward a unilateral lifting of the embargo.	107610330	1474657991359	1474657991445	b	66
209084	2265293	Washington was not moving toward a unilateral lifting of the embargo.	Washington was not moving toward a unilateral lifting of the embargo.	107610333	1474657991519	1474657991655	a	65
209084	2265293	Washington was not moving toward a unilateral lifting of the embargo.	Washington was not moving toward a unilateral lifting of the embargo.	107610337	1474657991655	1474657991735	r	82
209084	2265293	Washington was not moving toward a unilateral lifting of the embargo.	Washington was not moving toward a unilateral lifting of the embargo.	107610341	1474657991865	1474657991945	g	71
209084	2265293	Washington was not moving toward a unilateral lifting of the embargo.	Washington was not moving toward a unilateral lifting of the embargo.	107610362	1474657991987	1474657992088	o	79
209084	2265293	Washington was not moving toward a unilateral lifting of the embargo.	Washington was not moving toward a unilateral lifting of the embargo.	107610368	1474657992239	1474657992318	.	190
209084	2265319	You have a nice holiday too.	You have a nice holiday too.	107610566	1474657994278	1474657994455	SHIFT	16
209084	2265319	You have a nice holiday too.	You have a nice holiday too.	107610562	1474657994368	1474657994425	Y	89
209084	2265319	You have a nice holiday too.	You have a nice holiday too.	107610570	1474657994535	1474657994656	o	79
209084	2265319	You have a nice holiday too.	You have a nice holiday too.	107610573	1474657994628	1474657994721	u	85
209084	2265319	You have a nice holiday too.	You have a nice holiday too.	107610576	1474657994721	1474657994801	 	32
209084	2265319	You have a nice holiday too.	You have a nice holiday too.	107610582	1474657994861	1474657994931	h	72
209084	2265319	You have a nice holiday too.	You have a nice holiday too.	107610685	1474657994904	1474657995023	a	65
209084	2265319	You have a nice holiday too.	You have a nice holiday too.	107610688	1474657995033	1474657995188	v	86
209084	2265319	You have a nice holiday too.	You have a nice holiday too.	107610692	1474657995188	1474657995308	 	32
209084	2265319	You have a nice holiday too.	You have a nice holiday too.	107610697	1474657995768	1474657995825	BKSP	8
209084	2265319	You have a nice holiday too.	You have a nice holiday too.	107610704	1474657995865	1474657995955	e	69
209084	2265319	You have a nice holiday too.	You have a nice holiday too.	107610713	1474657995995	1474657996068	 	32
209084	2265319	You have a nice holiday too.	You have a nice holiday too.	107610719	1474657996108	1474657996216	a	65
209084	2265319	You have a nice holiday too.	You have a nice holiday too.	107610760	1474657996175	1474657996271	 	32
209084	2265319	You have a nice holiday too.	You have a nice holiday too.	107610763	1474657996291	1474657996440	n	78
209084	2265319	You have a nice holiday too.	You have a nice holiday too.	107610769	1474657996398	1474657996478	i	73
209084	2265319	You have a nice holiday too.	You have a nice holiday too.	107610773	1474657996548	1474657996628	c	67
209084	2265319	You have a nice holiday too.	You have a nice holiday too.	107610778	1474657996728	1474657996811	e	69
209084	2265319	You have a nice holiday too.	You have a nice holiday too.	107610784	1474657996811	1474657996938	 	32
209084	2265319	You have a nice holiday too.	You have a nice holiday too.	107610819	1474657996938	1474657997056	h	72
209084	2265319	You have a nice holiday too.	You have a nice holiday too.	107610825	1474657997018	1474657997105	o	79
209084	2265319	You have a nice holiday too.	You have a nice holiday too.	107610831	1474657997215	1474657997328	l	76
209084	2265319	You have a nice holiday too.	You have a nice holiday too.	107610836	1474657997291	1474657997389	i	73
209084	2265319	You have a nice holiday too.	You have a nice holiday too.	107610841	1474657997409	1474657997527	d	68
209084	2265319	You have a nice holiday too.	You have a nice holiday too.	107610855	1474657997547	1474657997692	a	65
209084	2265319	You have a nice holiday too.	You have a nice holiday too.	107610861	1474657997692	1474657997792	y	89
209084	2265319	You have a nice holiday too.	You have a nice holiday too.	107610869	1474657997758	1474657997886	 	32
209084	2265319	You have a nice holiday too.	You have a nice holiday too.	107610875	1474657997886	1474657997945	t	84
209084	2265319	You have a nice holiday too.	You have a nice holiday too.	107610911	1474657997935	1474657998008	o	79
209084	2265319	You have a nice holiday too.	You have a nice holiday too.	107610913	1474657998088	1474657998178	o	79
209084	2265319	You have a nice holiday too.	You have a nice holiday too.	107610917	1474657998329	1474657998421	.	190
209084	2265326	We are going to send some money to a fund to help the victims.	We are going to send some money to a fund to help the victims.	107611090	1474658000245	1474658000458	SHIFT	16
209084	2265326	We are going to send some money to a fund to help the victims.	We are going to send some money to a fund to help the victims.	107611089	1474658000335	1474658000418	W	87
209084	2265326	We are going to send some money to a fund to help the victims.	We are going to send some money to a fund to help the victims.	107611093	1474658000538	1474658000638	e	69
209084	2265326	We are going to send some money to a fund to help the victims.	We are going to send some money to a fund to help the victims.	107611098	1474658000728	1474658000841	 	32
209084	2265326	We are going to send some money to a fund to help the victims.	We are going to send some money to a fund to help the victims.	107611101	1474658000841	1474658000984	a	65
209084	2265326	We are going to send some money to a fund to help the victims.	We are going to send some money to a fund to help the victims.	107611116	1474658000958	1474658001088	r	82
209084	2265326	We are going to send some money to a fund to help the victims.	We are going to send some money to a fund to help the victims.	107611119	1474658001045	1474658001138	e	69
209084	2265326	We are going to send some money to a fund to help the victims.	We are going to send some money to a fund to help the victims.	107611126	1474658001158	1474658001285	 	32
209084	2265326	We are going to send some money to a fund to help the victims.	We are going to send some money to a fund to help the victims.	107611132	1474658001285	1474658001371	g	71
209084	2265326	We are going to send some money to a fund to help the victims.	We are going to send some money to a fund to help the victims.	107611138	1474658001391	1474658001513	o	79
209084	2265326	We are going to send some money to a fund to help the victims.	We are going to send some money to a fund to help the victims.	107611171	1474658001478	1474658001648	i	73
209084	2265326	We are going to send some money to a fund to help the victims.	We are going to send some money to a fund to help the victims.	107611175	1474658001598	1474658001718	n	78
209084	2265326	We are going to send some money to a fund to help the victims.	We are going to send some money to a fund to help the victims.	107611180	1474658001758	1474658001855	g	71
209084	2265326	We are going to send some money to a fund to help the victims.	We are going to send some money to a fund to help the victims.	107611183	1474658001915	1474658002045	 	32
209084	2265326	We are going to send some money to a fund to help the victims.	We are going to send some money to a fund to help the victims.	107611186	1474658002055	1474658002155	t	84
209084	2265326	We are going to send some money to a fund to help the victims.	We are going to send some money to a fund to help the victims.	107611189	1474658002245	1474658002418	o	79
209084	2265326	We are going to send some money to a fund to help the victims.	We are going to send some money to a fund to help the victims.	107611211	1474658002418	1474658002531	 	32
209084	2265326	We are going to send some money to a fund to help the victims.	We are going to send some money to a fund to help the victims.	107611214	1474658002631	1474658002758	s	83
209084	2265326	We are going to send some money to a fund to help the victims.	We are going to send some money to a fund to help the victims.	107611218	1474658002768	1474658002871	e	69
209084	2265326	We are going to send some money to a fund to help the victims.	We are going to send some money to a fund to help the victims.	107611221	1474658002941	1474658003018	n	78
209084	2265326	We are going to send some money to a fund to help the victims.	We are going to send some money to a fund to help the victims.	107611224	1474658003038	1474658003138	d	68
209084	2265326	We are going to send some money to a fund to help the victims.	We are going to send some money to a fund to help the victims.	107611239	1474658003138	1474658003238	 	32
209084	2265326	We are going to send some money to a fund to help the victims.	We are going to send some money to a fund to help the victims.	107611247	1474658003278	1474658003398	s	83
209084	2265326	We are going to send some money to a fund to help the victims.	We are going to send some money to a fund to help the victims.	107611256	1474658003341	1474658003488	o	79
209084	2265326	We are going to send some money to a fund to help the victims.	We are going to send some money to a fund to help the victims.	107611268	1474658003458	1474658003565	m	77
209084	2265326	We are going to send some money to a fund to help the victims.	We are going to send some money to a fund to help the victims.	107611276	1474658003565	1474658003644	e	69
209084	2265326	We are going to send some money to a fund to help the victims.	We are going to send some money to a fund to help the victims.	107611331	1474658003671	1474658003800	 	32
209084	2265326	We are going to send some money to a fund to help the victims.	We are going to send some money to a fund to help the victims.	107611335	1474658003771	1474658003891	m	77
209084	2265326	We are going to send some money to a fund to help the victims.	We are going to send some money to a fund to help the victims.	107611340	1474658003891	1474658003968	o	79
209084	2265326	We are going to send some money to a fund to help the victims.	We are going to send some money to a fund to help the victims.	107611346	1474658004040	1474658004118	n	78
209084	2265326	We are going to send some money to a fund to help the victims.	We are going to send some money to a fund to help the victims.	107611356	1474658004731	1474658004801	e	69
209084	2265326	We are going to send some money to a fund to help the victims.	We are going to send some money to a fund to help the victims.	107611385	1474658004903	1474658004998	y	89
209084	2265326	We are going to send some money to a fund to help the victims.	We are going to send some money to a fund to help the victims.	107611389	1474658005008	1474658005145	 	32
209084	2265326	We are going to send some money to a fund to help the victims.	We are going to send some money to a fund to help the victims.	107611394	1474658005185	1474658005248	t	84
209084	2265326	We are going to send some money to a fund to help the victims.	We are going to send some money to a fund to help the victims.	107611402	1474658005268	1474658005384	o	79
209084	2265326	We are going to send some money to a fund to help the victims.	We are going to send some money to a fund to help the victims.	107611447	1474658005374	1474658005471	 	32
209084	2265326	We are going to send some money to a fund to help the victims.	We are going to send some money to a fund to help the victims.	107611451	1474658005671	1474658005776	a	65
209084	2265326	We are going to send some money to a fund to help the victims.	We are going to send some money to a fund to help the victims.	107611455	1474658005806	1474658005945	 	32
209084	2265326	We are going to send some money to a fund to help the victims.	We are going to send some money to a fund to help the victims.	107611459	1474658006025	1474658006121	f	70
209084	2265326	We are going to send some money to a fund to help the victims.	We are going to send some money to a fund to help the victims.	107611465	1474658006141	1474658006208	u	85
209084	2265326	We are going to send some money to a fund to help the victims.	We are going to send some money to a fund to help the victims.	107611469	1474658006358	1474658006464	n	78
209084	2265326	We are going to send some money to a fund to help the victims.	We are going to send some money to a fund to help the victims.	107611512	1474658006474	1474658006571	d	68
209084	2265326	We are going to send some money to a fund to help the victims.	We are going to send some money to a fund to help the victims.	107611520	1474658006571	1474658006681	 	32
209084	2265326	We are going to send some money to a fund to help the victims.	We are going to send some money to a fund to help the victims.	107611528	1474658006801	1474658006894	t	84
209084	2265326	We are going to send some money to a fund to help the victims.	We are going to send some money to a fund to help the victims.	107611535	1474658006894	1474658007028	o	79
209084	2265326	We are going to send some money to a fund to help the victims.	We are going to send some money to a fund to help the victims.	107611539	1474658007028	1474658007144	 	32
209084	2265326	We are going to send some money to a fund to help the victims.	We are going to send some money to a fund to help the victims.	107611585	1474658007111	1474658007224	h	72
209084	2265326	We are going to send some money to a fund to help the victims.	We are going to send some money to a fund to help the victims.	107611589	1474658007264	1474658007371	e	69
209084	2265326	We are going to send some money to a fund to help the victims.	We are going to send some money to a fund to help the victims.	107611594	1474658007371	1474658007481	l	76
209084	2265326	We are going to send some money to a fund to help the victims.	We are going to send some money to a fund to help the victims.	107611599	1474658007591	1474658007728	p	80
209084	2265326	We are going to send some money to a fund to help the victims.	We are going to send some money to a fund to help the victims.	107611605	1474658007768	1474658007871	 	32
209084	2265326	We are going to send some money to a fund to help the victims.	We are going to send some money to a fund to help the victims.	107611609	1474658007922	1474658007991	t	84
209084	2265326	We are going to send some money to a fund to help the victims.	We are going to send some money to a fund to help the victims.	107611625	1474658008001	1474658008094	h	72
209084	2265326	We are going to send some money to a fund to help the victims.	We are going to send some money to a fund to help the victims.	107611627	1474658008094	1474658008178	e	69
209084	2265326	We are going to send some money to a fund to help the victims.	We are going to send some money to a fund to help the victims.	107611633	1474658008178	1474658008271	 	32
209084	2265326	We are going to send some money to a fund to help the victims.	We are going to send some money to a fund to help the victims.	107611639	1474658008351	1474658008424	v	86
209084	2265326	We are going to send some money to a fund to help the victims.	We are going to send some money to a fund to help the victims.	107611642	1474658008454	1474658008544	i	73
209084	2265326	We are going to send some money to a fund to help the victims.	We are going to send some money to a fund to help the victims.	107611691	1474658008636	1474658008758	c	67
209084	2265326	We are going to send some money to a fund to help the victims.	We are going to send some money to a fund to help the victims.	107611693	1474658009391	1474658009468	t	84
209084	2265326	We are going to send some money to a fund to help the victims.	We are going to send some money to a fund to help the victims.	107611695	1474658009518	1474658009584	i	73
209084	2265326	We are going to send some money to a fund to help the victims.	We are going to send some money to a fund to help the victims.	107611699	1474658009704	1474658009798	m	77
209084	2265326	We are going to send some money to a fund to help the victims.	We are going to send some money to a fund to help the victims.	107611702	1474658009838	1474658009968	s	83
209084	2265326	We are going to send some money to a fund to help the victims.	We are going to send some money to a fund to help the victims.	107611712	1474658010040	1474658010148	.	190
209084	2265342	Sounds good to me.	Sounds good to me.	107611867	1474658011907	1474658012134	SHIFT	16
209084	2265342	Sounds good to me.	Sounds good to me.	107611870	1474658012027	1474658012134	S	83
209084	2265342	Sounds good to me.	Sounds good to me.	107611874	1474658012224	1474658012336	o	79
209084	2265342	Sounds good to me.	Sounds good to me.	107611879	1474658012304	1474658012387	u	85
209084	2265342	Sounds good to me.	Sounds good to me.	107611885	1474658012527	1474658012615	n	78
209084	2265342	Sounds good to me.	Sounds good to me.	107611890	1474658012635	1474658012770	d	68
209084	2265342	Sounds good to me.	Sounds good to me.	107611915	1474658012770	1474658012904	s	83
209084	2265342	Sounds good to me.	Sounds good to me.	107611916	1474658012964	1474658013068	 	32
209084	2265342	Sounds good to me.	Sounds good to me.	107611918	1474658013088	1474658013184	g	71
209084	2265342	Sounds good to me.	Sounds good to me.	107611922	1474658013184	1474658013250	o	79
209084	2265342	Sounds good to me.	Sounds good to me.	107611927	1474658013330	1474658013435	o	79
209084	2265342	Sounds good to me.	Sounds good to me.	107611944	1474658013435	1474658013520	d	68
209084	2265342	Sounds good to me.	Sounds good to me.	107611947	1474658013520	1474658013614	 	32
209084	2265342	Sounds good to me.	Sounds good to me.	107611950	1474658013634	1474658013730	t	84
209084	2265342	Sounds good to me.	Sounds good to me.	107611953	1474658013730	1474658013833	o	79
209084	2265342	Sounds good to me.	Sounds good to me.	107611974	1474658013783	1474658013907	 	32
209084	2265342	Sounds good to me.	Sounds good to me.	107611977	1474658013927	1474658014043	m	77
209084	2265342	Sounds good to me.	Sounds good to me.	107611979	1474658014043	1474658014160	e	69
209084	2265342	Sounds good to me.	Sounds good to me.	107611980	1474658014210	1474658014327	.	190
209084	2265353	Don't they have some conflicts here?	Don't they have some conflicts here?	107612082	1474658016031	1474658016168	SHIFT	16
209084	2265353	Don't they have some conflicts here?	Don't they have some conflicts here?	107612083	1474658016111	1474658016208	D	68
209084	2265353	Don't they have some conflicts here?	Don't they have some conflicts here?	107612085	1474658016288	1474658016440	o	79
209084	2265353	Don't they have some conflicts here?	Don't they have some conflicts here?	107612089	1474658016415	1474658016527	n	78
209084	2265353	Don't they have some conflicts here?	Don't they have some conflicts here?	107612094	1474658016527	1474658016645	'	222
209084	2265353	Don't they have some conflicts here?	Don't they have some conflicts here?	107612100	1474658016655	1474658016757	t	84
209084	2265353	Don't they have some conflicts here?	Don't they have some conflicts here?	107612136	1474658016799	1474658016900	 	32
209084	2265353	Don't they have some conflicts here?	Don't they have some conflicts here?	107612139	1474658017120	1474658017184	t	84
209084	2265353	Don't they have some conflicts here?	Don't they have some conflicts here?	107612144	1474658017184	1474658017260	h	72
209084	2265353	Don't they have some conflicts here?	Don't they have some conflicts here?	107612149	1474658017290	1474658017392	e	69
209084	2265353	Don't they have some conflicts here?	Don't they have some conflicts here?	107612154	1474658017392	1474658017490	y	89
209084	2265353	Don't they have some conflicts here?	Don't they have some conflicts here?	107612164	1474658017490	1474658017570	 	32
209084	2265353	Don't they have some conflicts here?	Don't they have some conflicts here?	107612166	1474658017630	1474658017734	h	72
209084	2265353	Don't they have some conflicts here?	Don't they have some conflicts here?	107612171	1474658017734	1474658017825	a	65
209084	2265353	Don't they have some conflicts here?	Don't they have some conflicts here?	107612180	1474658017825	1474658017960	v	86
209084	2265353	Don't they have some conflicts here?	Don't they have some conflicts here?	107612212	1474658017934	1474658018023	e	69
209084	2265353	Don't they have some conflicts here?	Don't they have some conflicts here?	107612214	1474658018023	1474658018123	 	32
209084	2265353	Don't they have some conflicts here?	Don't they have some conflicts here?	107612217	1474658018143	1474658018283	s	83
209084	2265353	Don't they have some conflicts here?	Don't they have some conflicts here?	107612220	1474658018226	1474658018376	o	79
209084	2265353	Don't they have some conflicts here?	Don't they have some conflicts here?	107612223	1474658018343	1474658018460	m	77
209084	2265353	Don't they have some conflicts here?	Don't they have some conflicts here?	107612226	1474658018460	1474658018565	e	69
209084	2265353	Don't they have some conflicts here?	Don't they have some conflicts here?	107612273	1474658018565	1474658018658	 	32
209084	2265353	Don't they have some conflicts here?	Don't they have some conflicts here?	107612277	1474658018848	1474658018959	c	67
209084	2265353	Don't they have some conflicts here?	Don't they have some conflicts here?	107612282	1474658018930	1474658019079	o	79
209084	2265353	Don't they have some conflicts here?	Don't they have some conflicts here?	107612285	1474658019033	1474658019150	n	78
209084	2265353	Don't they have some conflicts here?	Don't they have some conflicts here?	107612288	1474658019200	1474658019328	f	70
209084	2265353	Don't they have some conflicts here?	Don't they have some conflicts here?	107612321	1474658019390	1474658019480	l	76
209084	2265353	Don't they have some conflicts here?	Don't they have some conflicts here?	107612323	1474658019560	1474658019646	i	73
209084	2265353	Don't they have some conflicts here?	Don't they have some conflicts here?	107612326	1474658019696	1474658019808	c	67
209084	2265353	Don't they have some conflicts here?	Don't they have some conflicts here?	107612330	1474658019928	1474658020023	t	84
209084	2265353	Don't they have some conflicts here?	Don't they have some conflicts here?	107612335	1474658020063	1474658020196	s	83
209084	2265353	Don't they have some conflicts here?	Don't they have some conflicts here?	107612355	1474658020216	1474658020326	 	32
209084	2265353	Don't they have some conflicts here?	Don't they have some conflicts here?	107612359	1474658020346	1474658020440	h	72
209084	2265353	Don't they have some conflicts here?	Don't they have some conflicts here?	107612364	1474658020440	1474658020546	e	69
209084	2265353	Don't they have some conflicts here?	Don't they have some conflicts here?	107612371	1474658020519	1474658020743	r	82
209084	2265353	Don't they have some conflicts here?	Don't they have some conflicts here?	107612445	1474658020676	1474658020804	e	69
209084	2265353	Don't they have some conflicts here?	Don't they have some conflicts here?	107612454	1474658021356	1474658021619	SHIFT	16
209084	2265353	Don't they have some conflicts here?	Don't they have some conflicts here?	107612450	1474658021486	1474658021579	?	191
209084	2265364	The riots were started by native Taiwanese.	The riots were started by native Taiwanese.	107612620	1474658023440	1474658023551	SHIFT	16
209084	2265364	The riots were started by native Taiwanese.	The riots were started by native Taiwanese.	107612624	1474658023514	1474658023594	T	84
209084	2265364	The riots were started by native Taiwanese.	The riots were started by native Taiwanese.	107612627	1474658023614	1474658023684	h	72
209084	2265364	The riots were started by native Taiwanese.	The riots were started by native Taiwanese.	107612630	1474658023684	1474658023751	e	69
209084	2265364	The riots were started by native Taiwanese.	The riots were started by native Taiwanese.	107612633	1474658023791	1474658023878	 	32
209084	2265364	The riots were started by native Taiwanese.	The riots were started by native Taiwanese.	107612637	1474658023928	1474658023991	r	82
209084	2265364	The riots were started by native Taiwanese.	The riots were started by native Taiwanese.	107612681	1474658024032	1474658024148	i	73
209084	2265364	The riots were started by native Taiwanese.	The riots were started by native Taiwanese.	107612686	1474658024148	1474658024247	o	79
209084	2265364	The riots were started by native Taiwanese.	The riots were started by native Taiwanese.	107612690	1474658024407	1474658024534	t	84
209084	2265364	The riots were started by native Taiwanese.	The riots were started by native Taiwanese.	107612695	1474658024584	1474658024696	s	83
209084	2265364	The riots were started by native Taiwanese.	The riots were started by native Taiwanese.	107612701	1474658024706	1474658024824	 	32
209084	2265364	The riots were started by native Taiwanese.	The riots were started by native Taiwanese.	107612716	1474658024856	1474658024991	w	87
209084	2265364	The riots were started by native Taiwanese.	The riots were started by native Taiwanese.	107612718	1474658024944	1474658025079	e	69
209084	2265364	The riots were started by native Taiwanese.	The riots were started by native Taiwanese.	107612724	1474658025058	1474658025247	r	82
209084	2265364	The riots were started by native Taiwanese.	The riots were started by native Taiwanese.	107612727	1474658025184	1474658025318	e	69
209084	2265364	The riots were started by native Taiwanese.	The riots were started by native Taiwanese.	107612730	1474658025318	1474658025424	 	32
209084	2265364	The riots were started by native Taiwanese.	The riots were started by native Taiwanese.	107612771	1474658025456	1474658025534	s	83
209084	2265364	The riots were started by native Taiwanese.	The riots were started by native Taiwanese.	107612778	1474658025594	1474658025688	t	84
209084	2265364	The riots were started by native Taiwanese.	The riots were started by native Taiwanese.	107612784	1474658025718	1474658025880	a	65
209084	2265364	The riots were started by native Taiwanese.	The riots were started by native Taiwanese.	107612792	1474658025834	1474658025928	r	82
209084	2265364	The riots were started by native Taiwanese.	The riots were started by native Taiwanese.	107612799	1474658026031	1474658026175	t	84
209084	2265364	The riots were started by native Taiwanese.	The riots were started by native Taiwanese.	107612864	1474658026147	1474658026257	e	69
209084	2265364	The riots were started by native Taiwanese.	The riots were started by native Taiwanese.	107612866	1474658026407	1474658026494	d	68
209084	2265364	The riots were started by native Taiwanese.	The riots were started by native Taiwanese.	107612872	1474658026534	1474658026631	 	32
209084	2265364	The riots were started by native Taiwanese.	The riots were started by native Taiwanese.	107612879	1474658026671	1474658026724	t	84
209084	2265364	The riots were started by native Taiwanese.	The riots were started by native Taiwanese.	107612882	1474658027024	1474658027081	BKSP	8
209084	2265364	The riots were started by native Taiwanese.	The riots were started by native Taiwanese.	107612885	1474658027151	1474658027228	b	66
209084	2265364	The riots were started by native Taiwanese.	The riots were started by native Taiwanese.	107612888	1474658027298	1474658027398	y	89
209084	2265364	The riots were started by native Taiwanese.	The riots were started by native Taiwanese.	107612918	1474658027398	1474658027518	 	32
209084	2265364	The riots were started by native Taiwanese.	The riots were started by native Taiwanese.	107612921	1474658027598	1474658027717	n	78
209084	2265364	The riots were started by native Taiwanese.	The riots were started by native Taiwanese.	107612925	1474658027717	1474658027804	a	65
209084	2265364	The riots were started by native Taiwanese.	The riots were started by native Taiwanese.	107612928	1474658027854	1474658027911	t	84
209084	2265364	The riots were started by native Taiwanese.	The riots were started by native Taiwanese.	107612932	1474658027974	1474658028041	i	73
209084	2265364	The riots were started by native Taiwanese.	The riots were started by native Taiwanese.	107612989	1474658028103	1474658028215	v	86
209084	2265364	The riots were started by native Taiwanese.	The riots were started by native Taiwanese.	107612994	1474658028245	1474658028337	e	69
209084	2265364	The riots were started by native Taiwanese.	The riots were started by native Taiwanese.	107612998	1474658028367	1474658028454	 	32
209084	2265364	The riots were started by native Taiwanese.	The riots were started by native Taiwanese.	107613014	1474658028504	1474658028747	SHIFT	16
209084	2265364	The riots were started by native Taiwanese.	The riots were started by native Taiwanese.	107613006	1474658028594	1474658028697	T	84
209084	2265364	The riots were started by native Taiwanese.	The riots were started by native Taiwanese.	107613017	1474658028877	1474658028991	a	65
209084	2265364	The riots were started by native Taiwanese.	The riots were started by native Taiwanese.	107613102	1474658029704	1474658029804	i	73
209084	2265364	The riots were started by native Taiwanese.	The riots were started by native Taiwanese.	107613105	1474658029874	1474658030023	w	87
209084	2265364	The riots were started by native Taiwanese.	The riots were started by native Taiwanese.	107613107	1474658030063	1474658030174	a	65
209084	2265364	The riots were started by native Taiwanese.	The riots were started by native Taiwanese.	107613109	1474658030234	1474658030327	n	78
209084	2265364	The riots were started by native Taiwanese.	The riots were started by native Taiwanese.	107613112	1474658030377	1474658030481	e	69
209084	2265364	The riots were started by native Taiwanese.	The riots were started by native Taiwanese.	107613140	1474658030583	1474658030781	s	83
209084	2265364	The riots were started by native Taiwanese.	The riots were started by native Taiwanese.	107613145	1474658030731	1474658030841	e	69
209084	2265377	It's not looking too good is it?	It's not looking too good is it?	107613345	1474658033041	1474658033191	SHIFT	16
209084	2265377	It's not looking too good is it?	It's not looking too good is it?	107613350	1474658033112	1474658033191	I	73
209084	2265377	It's not looking too good is it?	It's not looking too good is it?	107613354	1474658033541	1474658033607	t	84
209084	2265377	It's not looking too good is it?	It's not looking too good is it?	107613357	1474658033707	1474658033834	'	222
209084	2265377	It's not looking too good is it?	It's not looking too good is it?	107613361	1474658033834	1474658033961	s	83
209084	2265377	It's not looking too good is it?	It's not looking too good is it?	107613365	1474658034021	1474658034081	n	78
209084	2265377	It's not looking too good is it?	It's not looking too good is it?	107613433	1474658034704	1474658034774	BKSP	8
209084	2265377	It's not looking too good is it?	It's not looking too good is it?	107613436	1474658034934	1474658035031	 	32
209084	2265377	It's not looking too good is it?	It's not looking too good is it?	107613440	1474658035091	1474658035214	n	78
209084	2265377	It's not looking too good is it?	It's not looking too good is it?	107613445	1474658035167	1474658035274	o	79
209084	2265377	It's not looking too good is it?	It's not looking too good is it?	107613450	1474658035314	1474658035394	t	84
209084	2265377	It's not looking too good is it?	It's not looking too good is it?	107613455	1474658035454	1474658035591	 	32
209084	2265377	It's not looking too good is it?	It's not looking too good is it?	107613485	1474658035564	1474658035644	l	76
209084	2265377	It's not looking too good is it?	It's not looking too good is it?	107613488	1474658035735	1474658035807	o	79
209084	2265377	It's not looking too good is it?	It's not looking too good is it?	107613492	1474658035897	1474658035997	o	79
209084	2265377	It's not looking too good is it?	It's not looking too good is it?	107613495	1474658035997	1474658036047	k	75
209084	2265377	It's not looking too good is it?	It's not looking too good is it?	107613497	1474658036147	1474658036255	i	73
209084	2265377	It's not looking too good is it?	It's not looking too good is it?	107613500	1474658036227	1474658036311	n	78
209084	2265377	It's not looking too good is it?	It's not looking too good is it?	107613502	1474658036311	1474658036384	g	71
209084	2265377	It's not looking too good is it?	It's not looking too good is it?	107613505	1474658036384	1474658036491	 	32
209084	2265377	It's not looking too good is it?	It's not looking too good is it?	107613507	1474658036567	1474658036624	t	84
209084	2265377	It's not looking too good is it?	It's not looking too good is it?	107613513	1474658036624	1474658036691	o	79
209084	2265377	It's not looking too good is it?	It's not looking too good is it?	107613518	1474658036783	1474658036871	o	79
209084	2265377	It's not looking too good is it?	It's not looking too good is it?	107613563	1474658037411	1474658037494	 	32
209084	2265377	It's not looking too good is it?	It's not looking too good is it?	107613568	1474658037534	1474658037595	g	71
209084	2265377	It's not looking too good is it?	It's not looking too good is it?	107613573	1474658037645	1474658037707	o	79
209084	2265377	It's not looking too good is it?	It's not looking too good is it?	107613580	1474658037787	1474658037871	o	79
209084	2265377	It's not looking too good is it?	It's not looking too good is it?	107613587	1474658037871	1474658037991	d	68
209084	2265377	It's not looking too good is it?	It's not looking too good is it?	107613596	1474658037991	1474658038077	 	32
209084	2265377	It's not looking too good is it?	It's not looking too good is it?	107613600	1474658038077	1474658038144	i	73
209084	2265377	It's not looking too good is it?	It's not looking too good is it?	107613609	1474658038174	1474658038281	s	83
209084	2265377	It's not looking too good is it?	It's not looking too good is it?	107613613	1474658038281	1474658038377	 	32
209084	2265377	It's not looking too good is it?	It's not looking too good is it?	107613647	1474658038367	1474658038454	i	73
209084	2265377	It's not looking too good is it?	It's not looking too good is it?	107613654	1474658038494	1474658038600	t	84
209084	2265377	It's not looking too good is it?	It's not looking too good is it?	107613666	1474658038740	1474658038974	SHIFT	16
209084	2265377	It's not looking too good is it?	It's not looking too good is it?	107613660	1474658038862	1474658038954	?	191
209084	2265391	I will call you Monday morning to discuss.	I will call you Monday morning to discuss.	107613795	1474658040804	1474658040990	SHIFT	16
209084	2265391	I will call you Monday morning to discuss.	I will call you Monday morning to discuss.	107613798	1474658040934	1474658041020	I	73
209084	2265391	I will call you Monday morning to discuss.	I will call you Monday morning to discuss.	107613801	1474658041090	1474658041190	 	32
209084	2265391	I will call you Monday morning to discuss.	I will call you Monday morning to discuss.	107613804	1474658041190	1474658041290	w	87
209084	2265391	I will call you Monday morning to discuss.	I will call you Monday morning to discuss.	107613806	1474658041290	1474658041391	i	73
209084	2265391	I will call you Monday morning to discuss.	I will call you Monday morning to discuss.	107613833	1474658041360	1474658041447	l	76
209084	2265391	I will call you Monday morning to discuss.	I will call you Monday morning to discuss.	107613834	1474658041537	1474658041640	l	76
209084	2265391	I will call you Monday morning to discuss.	I will call you Monday morning to discuss.	107613835	1474658041640	1474658041760	 	32
209084	2265391	I will call you Monday morning to discuss.	I will call you Monday morning to discuss.	107613836	1474658041810	1474658041886	c	67
209084	2265391	I will call you Monday morning to discuss.	I will call you Monday morning to discuss.	107613838	1474658041956	1474658042047	a	65
209084	2265391	I will call you Monday morning to discuss.	I will call you Monday morning to discuss.	107613840	1474658042077	1474658042143	l	76
209084	2265391	I will call you Monday morning to discuss.	I will call you Monday morning to discuss.	107613866	1474658042235	1474658042320	l	76
209084	2265391	I will call you Monday morning to discuss.	I will call you Monday morning to discuss.	107613868	1474658042330	1474658042443	 	32
209084	2265391	I will call you Monday morning to discuss.	I will call you Monday morning to discuss.	107613874	1474658042573	1474658042635	y	89
209084	2265391	I will call you Monday morning to discuss.	I will call you Monday morning to discuss.	107613878	1474658042725	1474658042831	o	79
209084	2265391	I will call you Monday morning to discuss.	I will call you Monday morning to discuss.	107613915	1474658042783	1474658042911	u	85
209084	2265391	I will call you Monday morning to discuss.	I will call you Monday morning to discuss.	107613920	1474658042883	1474658042984	 	32
209084	2265391	I will call you Monday morning to discuss.	I will call you Monday morning to discuss.	107613922	1474658042984	1474658043163	SHIFT	16
209084	2265391	I will call you Monday morning to discuss.	I will call you Monday morning to discuss.	107613927	1474658043074	1474658043163	M	77
209084	2265391	I will call you Monday morning to discuss.	I will call you Monday morning to discuss.	107613931	1474658043203	1474658043357	o	79
209084	2265391	I will call you Monday morning to discuss.	I will call you Monday morning to discuss.	107613934	1474658043317	1474658043431	n	78
209084	2265391	I will call you Monday morning to discuss.	I will call you Monday morning to discuss.	107613955	1474658043407	1474658043526	d	68
209084	2265391	I will call you Monday morning to discuss.	I will call you Monday morning to discuss.	107613966	1474658043526	1474658043653	a	65
209084	2265391	I will call you Monday morning to discuss.	I will call you Monday morning to discuss.	107613974	1474658043653	1474658043736	y	89
209084	2265391	I will call you Monday morning to discuss.	I will call you Monday morning to discuss.	107613983	1474658043736	1474658043850	 	32
209084	2265391	I will call you Monday morning to discuss.	I will call you Monday morning to discuss.	107613990	1474658043920	1474658044031	m	77
209084	2265391	I will call you Monday morning to discuss.	I will call you Monday morning to discuss.	107613997	1474658043993	1474658044063	o	79
209084	2265391	I will call you Monday morning to discuss.	I will call you Monday morning to discuss.	107613998	1474658044063	1474658044143	r	82
209084	2265391	I will call you Monday morning to discuss.	I will call you Monday morning to discuss.	107614001	1474658044183	1474658044280	n	78
209084	2265391	I will call you Monday morning to discuss.	I will call you Monday morning to discuss.	107614004	1474658044280	1474658044431	i	73
209084	2265391	I will call you Monday morning to discuss.	I will call you Monday morning to discuss.	107614008	1474658044393	1474658044479	n	78
209084	2265391	I will call you Monday morning to discuss.	I will call you Monday morning to discuss.	107614041	1474658044455	1474658044536	g	71
209084	2265391	I will call you Monday morning to discuss.	I will call you Monday morning to discuss.	107614044	1474658044566	1474658044656	 	32
209084	2265391	I will call you Monday morning to discuss.	I will call you Monday morning to discuss.	107614048	1474658044686	1474658044770	t	84
209084	2265391	I will call you Monday morning to discuss.	I will call you Monday morning to discuss.	107614054	1474658044780	1474658044903	o	79
209084	2265391	I will call you Monday morning to discuss.	I will call you Monday morning to discuss.	107614059	1474658044864	1474658044983	 	32
209084	2265391	I will call you Monday morning to discuss.	I will call you Monday morning to discuss.	107614064	1474658045023	1474658045113	d	68
209084	2265391	I will call you Monday morning to discuss.	I will call you Monday morning to discuss.	107614135	1474658045145	1474658045239	i	73
209084	2265391	I will call you Monday morning to discuss.	I will call you Monday morning to discuss.	107614141	1474658045789	1474658045879	s	83
209084	2265391	I will call you Monday morning to discuss.	I will call you Monday morning to discuss.	107614144	1474658045999	1474658046096	c	67
209084	2265391	I will call you Monday morning to discuss.	I will call you Monday morning to discuss.	107614148	1474658046166	1474658046233	u	85
209084	2265391	I will call you Monday morning to discuss.	I will call you Monday morning to discuss.	107614150	1474658046283	1474658046359	s	83
209084	2265391	I will call you Monday morning to discuss.	I will call you Monday morning to discuss.	107614155	1474658046471	1474658046553	s	83
