PARTICIPANT_ID	TEST_SECTION_ID	SENTENCE	USER_INPUT	KEYSTROKE_ID	PRESS_TIME	RELEASE_TIME	LETTER	KEYCODE
215533	2337555	My only constraint is Chad's soccer game at noon.	My only constraint is Chad's soccer game at noon.	111052648	1474779649874	1474779650142	SHIFT	16
215533	2337555	My only constraint is Chad's soccer game at noon.	My only constraint is Chad's soccer game at noon.	111052645	1474779649977	1474779650078	M	77
215533	2337555	My only constraint is Chad's soccer game at noon.	My only constraint is Chad's soccer game at noon.	111052651	1474779650208	1474779650317	y	89
215533	2337555	My only constraint is Chad's soccer game at noon.	My only constraint is Chad's soccer game at noon.	111052654	1474779650367	1474779650477	 	32
215533	2337555	My only constraint is Chad's soccer game at noon.	My only constraint is Chad's soccer game at noon.	111052656	1474779650577	1474779650647	o	79
215533	2337555	My only constraint is Chad's soccer game at noon.	My only constraint is Chad's soccer game at noon.	111052657	1474779650767	1474779650834	n	78
215533	2337555	My only constraint is Chad's soccer game at noon.	My only constraint is Chad's soccer game at noon.	111052668	1474779650946	1474779651027	l	76
215533	2337555	My only constraint is Chad's soccer game at noon.	My only constraint is Chad's soccer game at noon.	111052670	1474779651057	1474779651177	y	89
215533	2337555	My only constraint is Chad's soccer game at noon.	My only constraint is Chad's soccer game at noon.	111052672	1474779651177	1474779651291	 	32
215533	2337555	My only constraint is Chad's soccer game at noon.	My only constraint is Chad's soccer game at noon.	111052674	1474779651621	1474779651727	c	67
215533	2337555	My only constraint is Chad's soccer game at noon.	My only constraint is Chad's soccer game at noon.	111052700	1474779651704	1474779651774	o	79
215533	2337555	My only constraint is Chad's soccer game at noon.	My only constraint is Chad's soccer game at noon.	111052702	1474779651884	1474779651974	n	78
215533	2337555	My only constraint is Chad's soccer game at noon.	My only constraint is Chad's soccer game at noon.	111052704	1474779651984	1474779652091	s	83
215533	2337555	My only constraint is Chad's soccer game at noon.	My only constraint is Chad's soccer game at noon.	111052706	1474779652121	1474779652207	t	84
215533	2337555	My only constraint is Chad's soccer game at noon.	My only constraint is Chad's soccer game at noon.	111052707	1474779652290	1474779652374	r	82
215533	2337555	My only constraint is Chad's soccer game at noon.	My only constraint is Chad's soccer game at noon.	111052708	1474779652414	1474779652514	a	65
215533	2337555	My only constraint is Chad's soccer game at noon.	My only constraint is Chad's soccer game at noon.	111052719	1474779652605	1474779652677	i	73
215533	2337555	My only constraint is Chad's soccer game at noon.	My only constraint is Chad's soccer game at noon.	111052721	1474779652767	1474779652847	n	78
215533	2337555	My only constraint is Chad's soccer game at noon.	My only constraint is Chad's soccer game at noon.	111052726	1474779652937	1474779653074	t	84
215533	2337555	My only constraint is Chad's soccer game at noon.	My only constraint is Chad's soccer game at noon.	111052731	1474779653051	1474779653167	 	32
215533	2337555	My only constraint is Chad's soccer game at noon.	My only constraint is Chad's soccer game at noon.	111052734	1474779653207	1474779653277	i	73
215533	2337555	My only constraint is Chad's soccer game at noon.	My only constraint is Chad's soccer game at noon.	111052763	1474779653327	1474779653444	s	83
215533	2337555	My only constraint is Chad's soccer game at noon.	My only constraint is Chad's soccer game at noon.	111052768	1474779653434	1474779653544	 	32
215533	2337555	My only constraint is Chad's soccer game at noon.	My only constraint is Chad's soccer game at noon.	111052776	1474779653574	1474779654044	SHIFT	16
215533	2337555	My only constraint is Chad's soccer game at noon.	My only constraint is Chad's soccer game at noon.	111052772	1474779653924	1474779653984	C	67
215533	2337555	My only constraint is Chad's soccer game at noon.	My only constraint is Chad's soccer game at noon.	111052778	1474779654194	1474779654304	h	72
215533	2337555	My only constraint is Chad's soccer game at noon.	My only constraint is Chad's soccer game at noon.	111052781	1474779654324	1474779654441	a	65
215533	2337555	My only constraint is Chad's soccer game at noon.	My only constraint is Chad's soccer game at noon.	111052826	1474779654482	1474779654604	d	68
215533	2337555	My only constraint is Chad's soccer game at noon.	My only constraint is Chad's soccer game at noon.	111052828	1474779654734	1474779654779	;	186
215533	2337555	My only constraint is Chad's soccer game at noon.	My only constraint is Chad's soccer game at noon.	111052830	1474779655214	1474779655304	BKSP	8
215533	2337555	My only constraint is Chad's soccer game at noon.	My only constraint is Chad's soccer game at noon.	111052832	1474779655454	1474779655540	'	222
215533	2337555	My only constraint is Chad's soccer game at noon.	My only constraint is Chad's soccer game at noon.	111052834	1474779655594	1474779655706	s	83
215533	2337555	My only constraint is Chad's soccer game at noon.	My only constraint is Chad's soccer game at noon.	111052835	1474779655746	1474779655870	 	32
215533	2337555	My only constraint is Chad's soccer game at noon.	My only constraint is Chad's soccer game at noon.	111052871	1474779655940	1474779656016	c	67
215533	2337555	My only constraint is Chad's soccer game at noon.	My only constraint is Chad's soccer game at noon.	111052874	1474779656032	1474779656101	o	79
215533	2337555	My only constraint is Chad's soccer game at noon.	My only constraint is Chad's soccer game at noon.	111052878	1474779656346	1474779656423	BKSP	8
215533	2337555	My only constraint is Chad's soccer game at noon.	My only constraint is Chad's soccer game at noon.	111052880	1474779656503	1474779656566	BKSP	8
215533	2337555	My only constraint is Chad's soccer game at noon.	My only constraint is Chad's soccer game at noon.	111052886	1474779656616	1474779656728	s	83
215533	2337555	My only constraint is Chad's soccer game at noon.	My only constraint is Chad's soccer game at noon.	111052888	1474779656748	1474779656830	o	79
215533	2337555	My only constraint is Chad's soccer game at noon.	My only constraint is Chad's soccer game at noon.	111052890	1474779656870	1474779656944	c	67
215533	2337555	My only constraint is Chad's soccer game at noon.	My only constraint is Chad's soccer game at noon.	111052907	1474779656999	1474779657095	c	67
215533	2337555	My only constraint is Chad's soccer game at noon.	My only constraint is Chad's soccer game at noon.	111052908	1474779657196	1474779657331	e	69
215533	2337555	My only constraint is Chad's soccer game at noon.	My only constraint is Chad's soccer game at noon.	111052909	1474779657288	1474779657412	r	82
215533	2337555	My only constraint is Chad's soccer game at noon.	My only constraint is Chad's soccer game at noon.	111052910	1474779657379	1474779657501	 	32
215533	2337555	My only constraint is Chad's soccer game at noon.	My only constraint is Chad's soccer game at noon.	111052912	1474779657561	1474779657639	g	71
215533	2337555	My only constraint is Chad's soccer game at noon.	My only constraint is Chad's soccer game at noon.	111052927	1474779657660	1474779657760	a	65
215533	2337555	My only constraint is Chad's soccer game at noon.	My only constraint is Chad's soccer game at noon.	111052929	1474779657790	1474779657865	m	77
215533	2337555	My only constraint is Chad's soccer game at noon.	My only constraint is Chad's soccer game at noon.	111052933	1474779657915	1474779658024	e	69
215533	2337555	My only constraint is Chad's soccer game at noon.	My only constraint is Chad's soccer game at noon.	111052936	1474779657994	1474779658131	 	32
215533	2337555	My only constraint is Chad's soccer game at noon.	My only constraint is Chad's soccer game at noon.	111052940	1474779658141	1474779658240	a	65
215533	2337555	My only constraint is Chad's soccer game at noon.	My only constraint is Chad's soccer game at noon.	111052962	1474779658195	1474779658317	t	84
215533	2337555	My only constraint is Chad's soccer game at noon.	My only constraint is Chad's soccer game at noon.	111052963	1474779658297	1474779658397	 	32
215533	2337555	My only constraint is Chad's soccer game at noon.	My only constraint is Chad's soccer game at noon.	111052964	1474779658467	1474779658547	n	78
215533	2337555	My only constraint is Chad's soccer game at noon.	My only constraint is Chad's soccer game at noon.	111052965	1474779658669	1474779658736	o	79
215533	2337555	My only constraint is Chad's soccer game at noon.	My only constraint is Chad's soccer game at noon.	111052968	1474779658801	1474779658865	o	79
215533	2337555	My only constraint is Chad's soccer game at noon.	My only constraint is Chad's soccer game at noon.	111052971	1474779659035	1474779659114	n	78
215533	2337555	My only constraint is Chad's soccer game at noon.	My only constraint is Chad's soccer game at noon.	111052998	1474779659257	1474779659337	.	190
215533	2337571	Does Friday at 10 work for you?	Does Friday at 10 work for you?	111053149	1474779661870	1474779663590	SHIFT	16
215533	2337571	Does Friday at 10 work for you?	Does Friday at 10 work for you?	111053151	1474779663493	1474779663610	D	68
215533	2337571	Does Friday at 10 work for you?	Does Friday at 10 work for you?	111053154	1474779663730	1474779663817	o	79
215533	2337571	Does Friday at 10 work for you?	Does Friday at 10 work for you?	111053159	1474779663827	1474779663907	e	69
215533	2337571	Does Friday at 10 work for you?	Does Friday at 10 work for you?	111053163	1474779663977	1474779664067	s	83
215533	2337571	Does Friday at 10 work for you?	Does Friday at 10 work for you?	111053166	1474779664067	1474779664197	 	32
215533	2337571	Does Friday at 10 work for you?	Does Friday at 10 work for you?	111053206	1474779664207	1474779664437	SHIFT	16
215533	2337571	Does Friday at 10 work for you?	Does Friday at 10 work for you?	111053201	1474779664288	1474779664365	F	70
215533	2337571	Does Friday at 10 work for you?	Does Friday at 10 work for you?	111053211	1474779664447	1474779664517	r	82
215533	2337571	Does Friday at 10 work for you?	Does Friday at 10 work for you?	111053215	1474779664817	1474779664934	i	73
215533	2337571	Does Friday at 10 work for you?	Does Friday at 10 work for you?	111053219	1474779665084	1474779665203	d	68
215533	2337571	Does Friday at 10 work for you?	Does Friday at 10 work for you?	111053222	1474779665303	1474779665404	e	69
215533	2337571	Does Friday at 10 work for you?	Does Friday at 10 work for you?	111053239	1474779665847	1474779665980	BKSP	8
215533	2337571	Does Friday at 10 work for you?	Does Friday at 10 work for you?	111053240	1474779666020	1474779666134	a	65
215533	2337571	Does Friday at 10 work for you?	Does Friday at 10 work for you?	111053241	1474779666154	1474779666250	y	89
215533	2337571	Does Friday at 10 work for you?	Does Friday at 10 work for you?	111053242	1474779666290	1474779666411	 	32
215533	2337571	Does Friday at 10 work for you?	Does Friday at 10 work for you?	111053243	1474779666623	1474779666735	a	65
215533	2337571	Does Friday at 10 work for you?	Does Friday at 10 work for you?	111053244	1474779666815	1474779666924	t	84
215533	2337571	Does Friday at 10 work for you?	Does Friday at 10 work for you?	111053259	1474779666934	1474779667063	 	32
215533	2337571	Does Friday at 10 work for you?	Does Friday at 10 work for you?	111053261	1474779667183	1474779667325	1	49
215533	2337571	Does Friday at 10 work for you?	Does Friday at 10 work for you?	111053263	1474779667280	1474779667350	0	48
215533	2337571	Does Friday at 10 work for you?	Does Friday at 10 work for you?	111053265	1474779667440	1474779667573	 	32
215533	2337571	Does Friday at 10 work for you?	Does Friday at 10 work for you?	111053266	1474779667713	1474779667826	w	87
215533	2337571	Does Friday at 10 work for you?	Does Friday at 10 work for you?	111053281	1474779667803	1474779667883	o	79
215533	2337571	Does Friday at 10 work for you?	Does Friday at 10 work for you?	111053282	1474779667923	1474779668053	r	82
215533	2337571	Does Friday at 10 work for you?	Does Friday at 10 work for you?	111053283	1474779668043	1474779668094	k	75
215533	2337571	Does Friday at 10 work for you?	Does Friday at 10 work for you?	111053284	1474779668133	1474779668306	 	32
215533	2337571	Does Friday at 10 work for you?	Does Friday at 10 work for you?	111053285	1474779668430	1474779668510	f	70
215533	2337571	Does Friday at 10 work for you?	Does Friday at 10 work for you?	111053286	1474779668530	1474779668609	o	79
215533	2337571	Does Friday at 10 work for you?	Does Friday at 10 work for you?	111053299	1474779669025	1474779669100	r	82
215533	2337571	Does Friday at 10 work for you?	Does Friday at 10 work for you?	111053303	1474779669180	1474779669353	 	32
215533	2337571	Does Friday at 10 work for you?	Does Friday at 10 work for you?	111053306	1474779669463	1474779669534	y	89
215533	2337571	Does Friday at 10 work for you?	Does Friday at 10 work for you?	111053309	1474779669666	1474779669748	o	79
215533	2337571	Does Friday at 10 work for you?	Does Friday at 10 work for you?	111053313	1474779669828	1474779669889	u	85
215533	2337571	Does Friday at 10 work for you?	Does Friday at 10 work for you?	111053340	1474779670179	1474779670573	SHIFT	16
215533	2337571	Does Friday at 10 work for you?	Does Friday at 10 work for you?	111053338	1474779670370	1474779670507	?	191
215533	2337578	I am now officially a Blackberry addict.	I am now officially a Blackberry addict.	111053439	1474779674500	1474779674860	SHIFT	16
215533	2337578	I am now officially a Blackberry addict.	I am now officially a Blackberry addict.	111053437	1474779674743	1474779674840	I	73
215533	2337578	I am now officially a Blackberry addict.	I am now officially a Blackberry addict.	111053441	1474779674890	1474779675036	 	32
215533	2337578	I am now officially a Blackberry addict.	I am now officially a Blackberry addict.	111053443	1474779675046	1474779675137	a	65
215533	2337578	I am now officially a Blackberry addict.	I am now officially a Blackberry addict.	111053447	1474779675167	1474779675256	m	77
215533	2337578	I am now officially a Blackberry addict.	I am now officially a Blackberry addict.	111053450	1474779675266	1474779675440	 	32
215533	2337578	I am now officially a Blackberry addict.	I am now officially a Blackberry addict.	111053465	1474779675408	1474779675483	n	78
215533	2337578	I am now officially a Blackberry addict.	I am now officially a Blackberry addict.	111053466	1474779675613	1474779675703	o	79
215533	2337578	I am now officially a Blackberry addict.	I am now officially a Blackberry addict.	111053467	1474779675775	1474779675889	w	87
215533	2337578	I am now officially a Blackberry addict.	I am now officially a Blackberry addict.	111053468	1474779675899	1474779676011	 	32
215533	2337578	I am now officially a Blackberry addict.	I am now officially a Blackberry addict.	111053470	1474779676111	1474779676168	o	79
215533	2337578	I am now officially a Blackberry addict.	I am now officially a Blackberry addict.	111053474	1474779676203	1474779676282	f	70
215533	2337578	I am now officially a Blackberry addict.	I am now officially a Blackberry addict.	111053491	1474779676336	1474779676438	f	70
215533	2337578	I am now officially a Blackberry addict.	I am now officially a Blackberry addict.	111053493	1474779676448	1474779676550	i	73
215533	2337578	I am now officially a Blackberry addict.	I am now officially a Blackberry addict.	111053495	1474779676580	1474779676672	c	67
215533	2337578	I am now officially a Blackberry addict.	I am now officially a Blackberry addict.	111053496	1474779676822	1474779676943	a	65
215533	2337578	I am now officially a Blackberry addict.	I am now officially a Blackberry addict.	111053497	1474779677013	1474779677080	i	73
215533	2337578	I am now officially a Blackberry addict.	I am now officially a Blackberry addict.	111053531	1474779677336	1474779677374	BKSP	8
215533	2337578	I am now officially a Blackberry addict.	I am now officially a Blackberry addict.	111053533	1474779677490	1474779677590	BKSP	8
215533	2337578	I am now officially a Blackberry addict.	I am now officially a Blackberry addict.	111053534	1474779677760	1474779677830	i	73
215533	2337578	I am now officially a Blackberry addict.	I am now officially a Blackberry addict.	111053535	1474779677863	1474779677953	a	65
215533	2337578	I am now officially a Blackberry addict.	I am now officially a Blackberry addict.	111053536	1474779677973	1474779678043	l	76
215533	2337578	I am now officially a Blackberry addict.	I am now officially a Blackberry addict.	111053537	1474779678103	1474779678206	l	76
215533	2337578	I am now officially a Blackberry addict.	I am now officially a Blackberry addict.	111053538	1474779678386	1474779678456	y	89
215533	2337578	I am now officially a Blackberry addict.	I am now officially a Blackberry addict.	111053551	1474779678517	1474779678644	 	32
215533	2337578	I am now officially a Blackberry addict.	I am now officially a Blackberry addict.	111053554	1474779678654	1474779678746	a	65
215533	2337578	I am now officially a Blackberry addict.	I am now officially a Blackberry addict.	111053559	1474779678756	1474779678863	 	32
215533	2337578	I am now officially a Blackberry addict.	I am now officially a Blackberry addict.	111053562	1474779678953	1474779679033	b	66
215533	2337578	I am now officially a Blackberry addict.	I am now officially a Blackberry addict.	111053565	1474779679204	1474779679266	l	76
215533	2337578	I am now officially a Blackberry addict.	I am now officially a Blackberry addict.	111053618	1474779679528	1474779679620	BKSP	8
215533	2337578	I am now officially a Blackberry addict.	I am now officially a Blackberry addict.	111053619	1474779679640	1474779679760	BKSP	8
215533	2337578	I am now officially a Blackberry addict.	I am now officially a Blackberry addict.	111053623	1474779680020	1474779680373	SHIFT	16
215533	2337578	I am now officially a Blackberry addict.	I am now officially a Blackberry addict.	111053621	1474779680202	1474779680263	B	66
215533	2337578	I am now officially a Blackberry addict.	I am now officially a Blackberry addict.	111053625	1474779680493	1474779680573	l	76
215533	2337578	I am now officially a Blackberry addict.	I am now officially a Blackberry addict.	111053631	1474779680573	1474779680663	a	65
215533	2337578	I am now officially a Blackberry addict.	I am now officially a Blackberry addict.	111053634	1474779680767	1474779680836	c	67
215533	2337578	I am now officially a Blackberry addict.	I am now officially a Blackberry addict.	111053639	1474779680836	1474779680903	k	75
215533	2337578	I am now officially a Blackberry addict.	I am now officially a Blackberry addict.	111053658	1474779681045	1474779681126	b	66
215533	2337578	I am now officially a Blackberry addict.	I am now officially a Blackberry addict.	111053659	1474779681166	1474779681286	e	69
215533	2337578	I am now officially a Blackberry addict.	I am now officially a Blackberry addict.	111053660	1474779681356	1474779681439	r	82
215533	2337578	I am now officially a Blackberry addict.	I am now officially a Blackberry addict.	111053661	1474779681489	1474779681593	r	82
215533	2337578	I am now officially a Blackberry addict.	I am now officially a Blackberry addict.	111053687	1474779681553	1474779681648	y	89
215533	2337578	I am now officially a Blackberry addict.	I am now officially a Blackberry addict.	111053689	1474779681678	1474779681820	 	32
215533	2337578	I am now officially a Blackberry addict.	I am now officially a Blackberry addict.	111053693	1474779681830	1474779681890	SHIFT	16
215533	2337578	I am now officially a Blackberry addict.	I am now officially a Blackberry addict.	111053694	1474779682140	1474779682244	a	65
215533	2337578	I am now officially a Blackberry addict.	I am now officially a Blackberry addict.	111053696	1474779682334	1474779682403	d	68
215533	2337578	I am now officially a Blackberry addict.	I am now officially a Blackberry addict.	111053698	1474779682476	1474779682550	d	68
215533	2337578	I am now officially a Blackberry addict.	I am now officially a Blackberry addict.	111053699	1474779682560	1474779682642	i	73
215533	2337578	I am now officially a Blackberry addict.	I am now officially a Blackberry addict.	111053715	1474779682699	1474779682771	c	67
215533	2337578	I am now officially a Blackberry addict.	I am now officially a Blackberry addict.	111053717	1474779682974	1474779683136	t	84
215533	2337578	I am now officially a Blackberry addict.	I am now officially a Blackberry addict.	111053719	1474779683107	1474779683199	.	190
215533	2337588	I am not aware of any.	I am not aware of any.	111053821	1474779685981	1474779686281	SHIFT	16
215533	2337588	I am not aware of any.	I am not aware of any.	111053822	1474779686201	1474779686299	I	73
215533	2337588	I am not aware of any.	I am not aware of any.	111053823	1474779686423	1474779686545	 	32
215533	2337588	I am not aware of any.	I am not aware of any.	111053824	1474779687167	1474779687249	a	65
215533	2337588	I am not aware of any.	I am not aware of any.	111053825	1474779687282	1474779687379	m	77
215533	2337588	I am not aware of any.	I am not aware of any.	111053826	1474779687439	1474779687611	 	32
215533	2337588	I am not aware of any.	I am not aware of any.	111053833	1474779687576	1474779687650	n	78
215533	2337588	I am not aware of any.	I am not aware of any.	111053835	1474779687762	1474779687834	o	79
215533	2337588	I am not aware of any.	I am not aware of any.	111053837	1474779687844	1474779687933	t	84
215533	2337588	I am not aware of any.	I am not aware of any.	111053838	1474779687933	1474779688059	 	32
215533	2337588	I am not aware of any.	I am not aware of any.	111053840	1474779688139	1474779688229	a	65
215533	2337588	I am not aware of any.	I am not aware of any.	111053841	1474779688311	1474779688383	w	87
215533	2337588	I am not aware of any.	I am not aware of any.	111053850	1474779688475	1474779688576	a	65
215533	2337588	I am not aware of any.	I am not aware of any.	111053852	1474779688596	1474779688687	r	82
215533	2337588	I am not aware of any.	I am not aware of any.	111053854	1474779688707	1474779688809	e	69
215533	2337588	I am not aware of any.	I am not aware of any.	111053858	1474779688818	1474779688921	 	32
215533	2337588	I am not aware of any.	I am not aware of any.	111053860	1474779689041	1474779689148	o	79
215533	2337588	I am not aware of any.	I am not aware of any.	111053870	1474779689149	1474779689195	f	70
215533	2337588	I am not aware of any.	I am not aware of any.	111053872	1474779689203	1474779689328	 	32
215533	2337588	I am not aware of any.	I am not aware of any.	111053873	1474779689389	1474779689455	a	65
215533	2337588	I am not aware of any.	I am not aware of any.	111053875	1474779689438	1474779689515	n	78
215533	2337588	I am not aware of any.	I am not aware of any.	111053876	1474779689616	1474779689681	y	89
215533	2337588	I am not aware of any.	I am not aware of any.	111053891	1474779689860	1474779689904	.	190
215533	2337591	Edwards said Chrebet passed the various tests and scans he was given.	Edwards said Chrebet passed the various tests and scans he was given.	111054210	1474779700486	1474779700852	SHIFT	16
215533	2337591	Edwards said Chrebet passed the various tests and scans he was given.	Edwards said Chrebet passed the various tests and scans he was given.	111054208	1474779700726	1474779700832	E	69
215533	2337591	Edwards said Chrebet passed the various tests and scans he was given.	Edwards said Chrebet passed the various tests and scans he was given.	111054212	1474779700922	1474779701022	d	68
215533	2337591	Edwards said Chrebet passed the various tests and scans he was given.	Edwards said Chrebet passed the various tests and scans he was given.	111054214	1474779701294	1474779701382	w	87
215533	2337591	Edwards said Chrebet passed the various tests and scans he was given.	Edwards said Chrebet passed the various tests and scans he was given.	111054215	1474779701462	1474779701552	a	65
215533	2337591	Edwards said Chrebet passed the various tests and scans he was given.	Edwards said Chrebet passed the various tests and scans he was given.	111054217	1474779701572	1474779701679	r	82
215533	2337591	Edwards said Chrebet passed the various tests and scans he was given.	Edwards said Chrebet passed the various tests and scans he was given.	111054241	1474779701959	1474779702031	d	68
215533	2337591	Edwards said Chrebet passed the various tests and scans he was given.	Edwards said Chrebet passed the various tests and scans he was given.	111054243	1474779702111	1474779702226	s	83
215533	2337591	Edwards said Chrebet passed the various tests and scans he was given.	Edwards said Chrebet passed the various tests and scans he was given.	111054245	1474779702204	1474779702328	 	32
215533	2337591	Edwards said Chrebet passed the various tests and scans he was given.	Edwards said Chrebet passed the various tests and scans he was given.	111054246	1474779702338	1474779702420	s	83
215533	2337591	Edwards said Chrebet passed the various tests and scans he was given.	Edwards said Chrebet passed the various tests and scans he was given.	111054248	1474779702550	1474779702642	a	65
215533	2337591	Edwards said Chrebet passed the various tests and scans he was given.	Edwards said Chrebet passed the various tests and scans he was given.	111054289	1474779702682	1474779702759	i	73
215533	2337591	Edwards said Chrebet passed the various tests and scans he was given.	Edwards said Chrebet passed the various tests and scans he was given.	111054292	1474779702821	1474779702913	d	68
215533	2337591	Edwards said Chrebet passed the various tests and scans he was given.	Edwards said Chrebet passed the various tests and scans he was given.	111054294	1474779703083	1474779703222	 	32
215533	2337591	Edwards said Chrebet passed the various tests and scans he was given.	Edwards said Chrebet passed the various tests and scans he was given.	111054298	1474779703584	1474779703808	SHIFT	16
215533	2337591	Edwards said Chrebet passed the various tests and scans he was given.	Edwards said Chrebet passed the various tests and scans he was given.	111054296	1474779703698	1474779703763	C	67
215533	2337591	Edwards said Chrebet passed the various tests and scans he was given.	Edwards said Chrebet passed the various tests and scans he was given.	111054300	1474779703948	1474779704018	h	72
215533	2337591	Edwards said Chrebet passed the various tests and scans he was given.	Edwards said Chrebet passed the various tests and scans he was given.	111054306	1474779704158	1474779704238	r	82
215533	2337591	Edwards said Chrebet passed the various tests and scans he was given.	Edwards said Chrebet passed the various tests and scans he was given.	111054308	1474779704218	1474779704317	e	69
215533	2337591	Edwards said Chrebet passed the various tests and scans he was given.	Edwards said Chrebet passed the various tests and scans he was given.	111054311	1474779704437	1474779704457	b	66
215533	2337591	Edwards said Chrebet passed the various tests and scans he was given.	Edwards said Chrebet passed the various tests and scans he was given.	111054314	1474779704720	1474779704775	e	69
215533	2337591	Edwards said Chrebet passed the various tests and scans he was given.	Edwards said Chrebet passed the various tests and scans he was given.	111054316	1474779704839	1474779704915	t	84
215533	2337591	Edwards said Chrebet passed the various tests and scans he was given.	Edwards said Chrebet passed the various tests and scans he was given.	111054336	1474779704986	1474779705112	 	32
215533	2337591	Edwards said Chrebet passed the various tests and scans he was given.	Edwards said Chrebet passed the various tests and scans he was given.	111054337	1474779705272	1474779705332	p	80
215533	2337591	Edwards said Chrebet passed the various tests and scans he was given.	Edwards said Chrebet passed the various tests and scans he was given.	111054338	1474779705453	1474779705535	a	65
215533	2337591	Edwards said Chrebet passed the various tests and scans he was given.	Edwards said Chrebet passed the various tests and scans he was given.	111054339	1474779705675	1474779705767	s	83
215533	2337591	Edwards said Chrebet passed the various tests and scans he was given.	Edwards said Chrebet passed the various tests and scans he was given.	111054340	1474779705828	1474779705935	s	83
215533	2337591	Edwards said Chrebet passed the various tests and scans he was given.	Edwards said Chrebet passed the various tests and scans he was given.	111054358	1474779706027	1474779706115	e	69
215533	2337591	Edwards said Chrebet passed the various tests and scans he was given.	Edwards said Chrebet passed the various tests and scans he was given.	111054360	1474779706185	1474779706302	d	68
215533	2337591	Edwards said Chrebet passed the various tests and scans he was given.	Edwards said Chrebet passed the various tests and scans he was given.	111054364	1474779706218	1474779706352	 	32
215533	2337591	Edwards said Chrebet passed the various tests and scans he was given.	Edwards said Chrebet passed the various tests and scans he was given.	111054367	1474779706452	1474779706538	t	84
215533	2337591	Edwards said Chrebet passed the various tests and scans he was given.	Edwards said Chrebet passed the various tests and scans he was given.	111054370	1474779706628	1474779706709	h	72
215533	2337591	Edwards said Chrebet passed the various tests and scans he was given.	Edwards said Chrebet passed the various tests and scans he was given.	111054379	1474779706719	1474779706781	e	69
215533	2337591	Edwards said Chrebet passed the various tests and scans he was given.	Edwards said Chrebet passed the various tests and scans he was given.	111054380	1474779706781	1474779706893	 	32
215533	2337591	Edwards said Chrebet passed the various tests and scans he was given.	Edwards said Chrebet passed the various tests and scans he was given.	111054381	1474779706913	1474779706988	v	86
215533	2337591	Edwards said Chrebet passed the various tests and scans he was given.	Edwards said Chrebet passed the various tests and scans he was given.	111054382	1474779707058	1474779707140	a	65
215533	2337591	Edwards said Chrebet passed the various tests and scans he was given.	Edwards said Chrebet passed the various tests and scans he was given.	111054384	1474779707231	1474779707339	r	82
215533	2337591	Edwards said Chrebet passed the various tests and scans he was given.	Edwards said Chrebet passed the various tests and scans he was given.	111054405	1474779707317	1474779707382	i	73
215533	2337591	Edwards said Chrebet passed the various tests and scans he was given.	Edwards said Chrebet passed the various tests and scans he was given.	111054408	1474779707496	1474779707551	o	79
215533	2337591	Edwards said Chrebet passed the various tests and scans he was given.	Edwards said Chrebet passed the various tests and scans he was given.	111054410	1474779707705	1474779707755	y	89
215533	2337591	Edwards said Chrebet passed the various tests and scans he was given.	Edwards said Chrebet passed the various tests and scans he was given.	111054413	1474779707795	1474779707902	s	83
215533	2337591	Edwards said Chrebet passed the various tests and scans he was given.	Edwards said Chrebet passed the various tests and scans he was given.	111054416	1474779707882	1474779708053	 	32
215533	2337591	Edwards said Chrebet passed the various tests and scans he was given.	Edwards said Chrebet passed the various tests and scans he was given.	111054419	1474779708330	1474779708413	BKSP	8
215533	2337591	Edwards said Chrebet passed the various tests and scans he was given.	Edwards said Chrebet passed the various tests and scans he was given.	111054421	1474779708630	1474779708634	BKSP	8
215533	2337591	Edwards said Chrebet passed the various tests and scans he was given.	Edwards said Chrebet passed the various tests and scans he was given.	111054423	1474779708635	1474779708671	BKSP	8
215533	2337591	Edwards said Chrebet passed the various tests and scans he was given.	Edwards said Chrebet passed the various tests and scans he was given.	111054425	1474779708917	1474779708976	u	85
215533	2337591	Edwards said Chrebet passed the various tests and scans he was given.	Edwards said Chrebet passed the various tests and scans he was given.	111054436	1474779708996	1474779709143	s	83
215533	2337591	Edwards said Chrebet passed the various tests and scans he was given.	Edwards said Chrebet passed the various tests and scans he was given.	111054438	1474779709144	1474779709242	 	32
215533	2337591	Edwards said Chrebet passed the various tests and scans he was given.	Edwards said Chrebet passed the various tests and scans he was given.	111054440	1474779709418	1474779709499	t	84
215533	2337591	Edwards said Chrebet passed the various tests and scans he was given.	Edwards said Chrebet passed the various tests and scans he was given.	111054441	1474779709495	1474779709573	e	69
215533	2337591	Edwards said Chrebet passed the various tests and scans he was given.	Edwards said Chrebet passed the various tests and scans he was given.	111054442	1474779709682	1474779709796	s	83
215533	2337591	Edwards said Chrebet passed the various tests and scans he was given.	Edwards said Chrebet passed the various tests and scans he was given.	111054454	1474779709793	1474779709868	t	84
215533	2337591	Edwards said Chrebet passed the various tests and scans he was given.	Edwards said Chrebet passed the various tests and scans he was given.	111054455	1474779710240	1474779710243	s	83
215533	2337591	Edwards said Chrebet passed the various tests and scans he was given.	Edwards said Chrebet passed the various tests and scans he was given.	111054456	1474779710243	1474779710343	 	32
215533	2337591	Edwards said Chrebet passed the various tests and scans he was given.	Edwards said Chrebet passed the various tests and scans he was given.	111054457	1474779710338	1474779710409	a	65
215533	2337591	Edwards said Chrebet passed the various tests and scans he was given.	Edwards said Chrebet passed the various tests and scans he was given.	111054458	1474779710630	1474779710728	n	78
215533	2337591	Edwards said Chrebet passed the various tests and scans he was given.	Edwards said Chrebet passed the various tests and scans he was given.	111054459	1474779710748	1474779710855	d	68
215533	2337591	Edwards said Chrebet passed the various tests and scans he was given.	Edwards said Chrebet passed the various tests and scans he was given.	111054476	1474779710975	1474779711106	 	32
215533	2337591	Edwards said Chrebet passed the various tests and scans he was given.	Edwards said Chrebet passed the various tests and scans he was given.	111054478	1474779711116	1474779711208	s	83
215533	2337591	Edwards said Chrebet passed the various tests and scans he was given.	Edwards said Chrebet passed the various tests and scans he was given.	111054480	1474779711271	1474779711355	c	67
215533	2337591	Edwards said Chrebet passed the various tests and scans he was given.	Edwards said Chrebet passed the various tests and scans he was given.	111054484	1474779711452	1474779711544	a	65
215533	2337591	Edwards said Chrebet passed the various tests and scans he was given.	Edwards said Chrebet passed the various tests and scans he was given.	111054498	1474779711504	1474779711588	n	78
215533	2337591	Edwards said Chrebet passed the various tests and scans he was given.	Edwards said Chrebet passed the various tests and scans he was given.	111054501	1474779711798	1474779711890	s	83
215533	2337591	Edwards said Chrebet passed the various tests and scans he was given.	Edwards said Chrebet passed the various tests and scans he was given.	111054504	1474779711930	1474779712062	 	32
215533	2337591	Edwards said Chrebet passed the various tests and scans he was given.	Edwards said Chrebet passed the various tests and scans he was given.	111054506	1474779712162	1474779712221	h	72
215533	2337591	Edwards said Chrebet passed the various tests and scans he was given.	Edwards said Chrebet passed the various tests and scans he was given.	111054509	1474779712236	1474779712381	e	69
215533	2337591	Edwards said Chrebet passed the various tests and scans he was given.	Edwards said Chrebet passed the various tests and scans he was given.	111054512	1474779712382	1474779712452	 	32
215533	2337591	Edwards said Chrebet passed the various tests and scans he was given.	Edwards said Chrebet passed the various tests and scans he was given.	111054519	1474779712481	1474779712548	w	87
215533	2337591	Edwards said Chrebet passed the various tests and scans he was given.	Edwards said Chrebet passed the various tests and scans he was given.	111054521	1474779712648	1474779712750	a	65
215533	2337591	Edwards said Chrebet passed the various tests and scans he was given.	Edwards said Chrebet passed the various tests and scans he was given.	111054523	1474779712718	1474779712896	s	83
215533	2337591	Edwards said Chrebet passed the various tests and scans he was given.	Edwards said Chrebet passed the various tests and scans he was given.	111054525	1474779712848	1474779712949	 	32
215533	2337591	Edwards said Chrebet passed the various tests and scans he was given.	Edwards said Chrebet passed the various tests and scans he was given.	111054526	1474779713018	1474779713115	g	71
215533	2337591	Edwards said Chrebet passed the various tests and scans he was given.	Edwards said Chrebet passed the various tests and scans he was given.	111054553	1474779713155	1474779713201	a	65
215533	2337591	Edwards said Chrebet passed the various tests and scans he was given.	Edwards said Chrebet passed the various tests and scans he was given.	111054556	1474779713282	1474779713337	i	73
215533	2337591	Edwards said Chrebet passed the various tests and scans he was given.	Edwards said Chrebet passed the various tests and scans he was given.	111054559	1474779713509	1474779713758	BKSP	8
215533	2337591	Edwards said Chrebet passed the various tests and scans he was given.	Edwards said Chrebet passed the various tests and scans he was given.	111054563	1474779714048	1474779714177	BKSP	8
215533	2337591	Edwards said Chrebet passed the various tests and scans he was given.	Edwards said Chrebet passed the various tests and scans he was given.	111054567	1474779714359	1474779714432	i	73
215533	2337591	Edwards said Chrebet passed the various tests and scans he was given.	Edwards said Chrebet passed the various tests and scans he was given.	111054571	1474779714432	1474779714504	v	86
215533	2337591	Edwards said Chrebet passed the various tests and scans he was given.	Edwards said Chrebet passed the various tests and scans he was given.	111054576	1474779714554	1474779714689	e	69
215533	2337591	Edwards said Chrebet passed the various tests and scans he was given.	Edwards said Chrebet passed the various tests and scans he was given.	111054592	1474779714656	1474779714741	n	78
215533	2337591	Edwards said Chrebet passed the various tests and scans he was given.	Edwards said Chrebet passed the various tests and scans he was given.	111054593	1474779715152	1474779715267	.	190
215533	2337606	Much better than carrying a laptop.	Much better than carrying a laptop.	111054759	1474779720853	1474779721726	SHIFT	16
215533	2337606	Much better than carrying a laptop.	Much better than carrying a laptop.	111054760	1474779721638	1474779721744	M	77
215533	2337606	Much better than carrying a laptop.	Much better than carrying a laptop.	111054761	1474779721897	1474779721974	u	85
215533	2337606	Much better than carrying a laptop.	Much better than carrying a laptop.	111054763	1474779721991	1474779722085	c	67
215533	2337606	Much better than carrying a laptop.	Much better than carrying a laptop.	111054765	1474779722095	1474779722167	h	72
215533	2337606	Much better than carrying a laptop.	Much better than carrying a laptop.	111054767	1474779722177	1474779722355	 	32
215533	2337606	Much better than carrying a laptop.	Much better than carrying a laptop.	111054786	1474779722323	1474779722415	b	66
215533	2337606	Much better than carrying a laptop.	Much better than carrying a laptop.	111054788	1474779722391	1474779722497	e	69
215533	2337606	Much better than carrying a laptop.	Much better than carrying a laptop.	111054789	1474779722547	1474779722619	t	84
215533	2337606	Much better than carrying a laptop.	Much better than carrying a laptop.	111054790	1474779722679	1474779722768	t	84
215533	2337606	Much better than carrying a laptop.	Much better than carrying a laptop.	111054791	1474779722778	1474779722910	e	69
215533	2337606	Much better than carrying a laptop.	Much better than carrying a laptop.	111054831	1474779722880	1474779722998	r	82
215533	2337606	Much better than carrying a laptop.	Much better than carrying a laptop.	111054834	1474779722952	1474779723075	 	32
215533	2337606	Much better than carrying a laptop.	Much better than carrying a laptop.	111054837	1474779723045	1474779723135	t	84
215533	2337606	Much better than carrying a laptop.	Much better than carrying a laptop.	111054839	1474779723265	1474779723351	a	65
215533	2337606	Much better than carrying a laptop.	Much better than carrying a laptop.	111054841	1474779723361	1474779723501	h	72
215533	2337606	Much better than carrying a laptop.	Much better than carrying a laptop.	111054843	1474779723651	1474779723725	n	78
215533	2337606	Much better than carrying a laptop.	Much better than carrying a laptop.	111054869	1474779723995	1474779724067	BKSP	8
215533	2337606	Much better than carrying a laptop.	Much better than carrying a laptop.	111054871	1474779724127	1474779724183	BKSP	8
215533	2337606	Much better than carrying a laptop.	Much better than carrying a laptop.	111054873	1474779724239	1474779724324	BKSP	8
215533	2337606	Much better than carrying a laptop.	Much better than carrying a laptop.	111054875	1474779724514	1474779724600	h	72
215533	2337606	Much better than carrying a laptop.	Much better than carrying a laptop.	111054878	1474779724649	1474779724735	a	65
215533	2337606	Much better than carrying a laptop.	Much better than carrying a laptop.	111054881	1474779724755	1474779724833	n	78
215533	2337606	Much better than carrying a laptop.	Much better than carrying a laptop.	111054883	1474779724861	1474779724975	 	32
215533	2337606	Much better than carrying a laptop.	Much better than carrying a laptop.	111054886	1474779725105	1474779725178	c	67
215533	2337606	Much better than carrying a laptop.	Much better than carrying a laptop.	111054906	1474779725268	1474779725368	a	65
215533	2337606	Much better than carrying a laptop.	Much better than carrying a laptop.	111054907	1474779725478	1474779725557	r	82
215533	2337606	Much better than carrying a laptop.	Much better than carrying a laptop.	111054908	1474779725599	1474779725671	r	82
215533	2337606	Much better than carrying a laptop.	Much better than carrying a laptop.	111054909	1474779725761	1474779725868	y	89
215533	2337606	Much better than carrying a laptop.	Much better than carrying a laptop.	111054910	1474779726048	1474779726114	i	73
215533	2337606	Much better than carrying a laptop.	Much better than carrying a laptop.	111054916	1474779726232	1474779726321	n	78
215533	2337606	Much better than carrying a laptop.	Much better than carrying a laptop.	111054917	1474779726285	1474779726364	g	71
215533	2337606	Much better than carrying a laptop.	Much better than carrying a laptop.	111054918	1474779726374	1474779726479	 	32
215533	2337606	Much better than carrying a laptop.	Much better than carrying a laptop.	111054919	1474779726489	1474779726612	a	65
215533	2337606	Much better than carrying a laptop.	Much better than carrying a laptop.	111054943	1474779726573	1474779726677	 	32
215533	2337606	Much better than carrying a laptop.	Much better than carrying a laptop.	111054945	1474779726857	1474779726972	l	76
215533	2337606	Much better than carrying a laptop.	Much better than carrying a laptop.	111054947	1474779726982	1474779727084	a	65
215533	2337606	Much better than carrying a laptop.	Much better than carrying a laptop.	111054950	1474779727104	1474779727266	p	80
215533	2337606	Much better than carrying a laptop.	Much better than carrying a laptop.	111054953	1474779727448	1474779727530	y	89
215533	2337606	Much better than carrying a laptop.	Much better than carrying a laptop.	111054993	1474779727499	1474779727629	o	84
215533	2337606	Much better than carrying a laptop.	Much better than carrying a laptop.	111054996	1474779727809	1474779727879	BKSP	8
215533	2337606	Much better than carrying a laptop.	Much better than carrying a laptop.	111054999	1474779727961	1474779728064	BKSP	8
215533	2337606	Much better than carrying a laptop.	Much better than carrying a laptop.	111055000	1474779728110	1474779728241	BKSP	8
215533	2337606	Much better than carrying a laptop.	Much better than carrying a laptop.	111055002	1474779728381	1474779728474	t	84
215533	2337606	Much better than carrying a laptop.	Much better than carrying a laptop.	111055005	1474779728494	1474779728564	o	79
215533	2337606	Much better than carrying a laptop.	Much better than carrying a laptop.	111055008	1474779728685	1474779728712	p	80
215533	2337606	Much better than carrying a laptop.	Much better than carrying a laptop.	111055012	1474779729198	1474779729292	.	190
215533	2337612	Do you have a number for him?	Do you have a number for him?	111055069	1474779732324	1474779732654	SHIFT	16
215533	2337612	Do you have a number for him?	Do you have a number for him?	111055070	1474779732547	1474779732684	D	68
215533	2337612	Do you have a number for him?	Do you have a number for him?	111055071	1474779732694	1474779732767	o	79
215533	2337612	Do you have a number for him?	Do you have a number for him?	111055072	1474779732831	1474779732966	 	32
215533	2337612	Do you have a number for him?	Do you have a number for him?	111055073	1474779732928	1474779733058	y	89
215533	2337612	Do you have a number for him?	Do you have a number for him?	111055117	1474779733038	1474779733110	o	79
215533	2337612	Do you have a number for him?	Do you have a number for him?	111055119	1474779733237	1474779733299	y	85
215533	2337612	Do you have a number for him?	Do you have a number for him?	111055121	1474779733317	1474779733454	 	32
215533	2337612	Do you have a number for him?	Do you have a number for him?	111055123	1474779733586	1474779733668	a	65
215533	2337612	Do you have a number for him?	Do you have a number for him?	111055126	1474779734227	1474779734287	BKSP	8
215533	2337612	Do you have a number for him?	Do you have a number for him?	111055128	1474779734354	1474779734444	BKSP	8
215533	2337612	Do you have a number for him?	Do you have a number for him?	111055130	1474779734514	1474779734591	BKSP	8
215533	2337612	Do you have a number for him?	Do you have a number for him?	111055132	1474779734601	1474779734710	BKSP	8
215533	2337612	Do you have a number for him?	Do you have a number for him?	111055133	1474779735334	1474779735439	u	85
215533	2337612	Do you have a number for him?	Do you have a number for him?	111055135	1474779735461	1474779735626	 	32
215533	2337612	Do you have a number for him?	Do you have a number for him?	111055138	1474779735576	1474779735687	h	72
215533	2337612	Do you have a number for him?	Do you have a number for him?	111055141	1474779735688	1474779735786	a	65
215533	2337612	Do you have a number for him?	Do you have a number for him?	111055144	1474779735800	1474779735882	v	86
215533	2337612	Do you have a number for him?	Do you have a number for him?	111055147	1474779735912	1474779736024	e	69
215533	2337612	Do you have a number for him?	Do you have a number for him?	111055151	1474779736034	1474779736136	 	32
215533	2337612	Do you have a number for him?	Do you have a number for him?	111055153	1474779736166	1474779736260	a	65
215533	2337612	Do you have a number for him?	Do you have a number for him?	111055156	1474779736227	1474779736374	 	32
215533	2337612	Do you have a number for him?	Do you have a number for him?	111055160	1474779736384	1474779736444	n	78
215533	2337612	Do you have a number for him?	Do you have a number for him?	111055165	1474779736524	1474779736604	u	85
215533	2337612	Do you have a number for him?	Do you have a number for him?	111055173	1474779736711	1474779736779	m	77
215533	2337612	Do you have a number for him?	Do you have a number for him?	111055175	1474779736881	1474779736963	b	66
215533	2337612	Do you have a number for him?	Do you have a number for him?	111055177	1474779736967	1474779737071	e	69
215533	2337612	Do you have a number for him?	Do you have a number for him?	111055179	1474779737026	1474779737179	r	82
215533	2337612	Do you have a number for him?	Do you have a number for him?	111055189	1474779737150	1474779737254	 	32
215533	2337612	Do you have a number for him?	Do you have a number for him?	111055192	1474779737264	1474779737366	f	70
215533	2337612	Do you have a number for him?	Do you have a number for him?	111055194	1474779737376	1474779737448	o	79
215533	2337612	Do you have a number for him?	Do you have a number for him?	111055196	1474779737468	1474779737620	r	82
215533	2337612	Do you have a number for him?	Do you have a number for him?	111055198	1474779737535	1474779737670	 	32
215533	2337612	Do you have a number for him?	Do you have a number for him?	111055200	1474779737680	1474779737745	h	72
215533	2337612	Do you have a number for him?	Do you have a number for him?	111055247	1474779737833	1474779737911	i	73
215533	2337612	Do you have a number for him?	Do you have a number for him?	111055248	1474779737974	1474779738057	m	77
215533	2337612	Do you have a number for him?	Do you have a number for him?	111055250	1474779738268	1474779738784	SHIFT	16
215533	2337612	Do you have a number for him?	Do you have a number for him?	111055249	1474779738498	1474779738584	>	190
215533	2337612	Do you have a number for him?	Do you have a number for him?	111055253	1474779739078	1474779739561	SHIFT	16
215533	2337612	Do you have a number for him?	Do you have a number for him?	111055251	1474779739100	1474779739139	BKSP	8
215533	2337612	Do you have a number for him?	Do you have a number for him?	111055252	1474779739334	1474779739451	?	191
215533	2337620	I will call in 20 to 30 minutes.	I will call in 20 to 30 minutes.	111055323	1474779742576	1474779742823	SHIFT	16
215533	2337620	I will call in 20 to 30 minutes.	I will call in 20 to 30 minutes.	111055322	1474779742696	1474779742803	I	73
215533	2337620	I will call in 20 to 30 minutes.	I will call in 20 to 30 minutes.	111055325	1474779742833	1474779742964	 	32
215533	2337620	I will call in 20 to 30 minutes.	I will call in 20 to 30 minutes.	111055326	1474779742974	1474779743094	w	87
215533	2337620	I will call in 20 to 30 minutes.	I will call in 20 to 30 minutes.	111055327	1474779743062	1474779743137	i	73
215533	2337620	I will call in 20 to 30 minutes.	I will call in 20 to 30 minutes.	111055328	1474779743237	1474779743357	l	76
215533	2337620	I will call in 20 to 30 minutes.	I will call in 20 to 30 minutes.	111055339	1474779743437	1474779743537	l	76
215533	2337620	I will call in 20 to 30 minutes.	I will call in 20 to 30 minutes.	111055340	1474779743637	1474779743755	 	32
215533	2337620	I will call in 20 to 30 minutes.	I will call in 20 to 30 minutes.	111055341	1474779743720	1474779743860	c	67
215533	2337620	I will call in 20 to 30 minutes.	I will call in 20 to 30 minutes.	111055342	1474779743890	1474779744018	a	65
215533	2337620	I will call in 20 to 30 minutes.	I will call in 20 to 30 minutes.	111055364	1474779743970	1474779744047	l	76
215533	2337620	I will call in 20 to 30 minutes.	I will call in 20 to 30 minutes.	111055366	1474779744097	1474779744238	l	76
215533	2337620	I will call in 20 to 30 minutes.	I will call in 20 to 30 minutes.	111055369	1474779744248	1474779744404	 	32
215533	2337620	I will call in 20 to 30 minutes.	I will call in 20 to 30 minutes.	111055372	1474779744374	1474779744453	i	73
215533	2337620	I will call in 20 to 30 minutes.	I will call in 20 to 30 minutes.	111055375	1474779744543	1474779744602	n	78
215533	2337620	I will call in 20 to 30 minutes.	I will call in 20 to 30 minutes.	111055378	1474779744644	1474779744774	 	32
215533	2337620	I will call in 20 to 30 minutes.	I will call in 20 to 30 minutes.	111055404	1474779744975	1474779745117	2	50
215533	2337620	I will call in 20 to 30 minutes.	I will call in 20 to 30 minutes.	111055406	1474779745057	1474779745147	0	48
215533	2337620	I will call in 20 to 30 minutes.	I will call in 20 to 30 minutes.	111055408	1474779745227	1474779745317	 	77
215533	2337620	I will call in 20 to 30 minutes.	I will call in 20 to 30 minutes.	111055409	1474779745728	1474779745810	BKSP	8
215533	2337620	I will call in 20 to 30 minutes.	I will call in 20 to 30 minutes.	111055411	1474779745860	1474779745928	BKSP	8
215533	2337620	I will call in 20 to 30 minutes.	I will call in 20 to 30 minutes.	111055413	1474779746130	1474779746292	 	32
215533	2337620	I will call in 20 to 30 minutes.	I will call in 20 to 30 minutes.	111055433	1474779746302	1474779746417	t	84
215533	2337620	I will call in 20 to 30 minutes.	I will call in 20 to 30 minutes.	111055434	1474779746418	1474779746523	o	79
215533	2337620	I will call in 20 to 30 minutes.	I will call in 20 to 30 minutes.	111055435	1474779746533	1474779746670	 	32
215533	2337620	I will call in 20 to 30 minutes.	I will call in 20 to 30 minutes.	111055436	1474779746872	1474779746984	3	51
215533	2337620	I will call in 20 to 30 minutes.	I will call in 20 to 30 minutes.	111055437	1474779747384	1474779747477	0	48
215533	2337620	I will call in 20 to 30 minutes.	I will call in 20 to 30 minutes.	111055456	1474779747538	1474779747740	 	32
215533	2337620	I will call in 20 to 30 minutes.	I will call in 20 to 30 minutes.	111055459	1474779747730	1474779747792	m	77
215533	2337620	I will call in 20 to 30 minutes.	I will call in 20 to 30 minutes.	111055463	1474779747882	1474779747936	i	73
215533	2337620	I will call in 20 to 30 minutes.	I will call in 20 to 30 minutes.	111055465	1474779748057	1474779748113	n	78
215533	2337620	I will call in 20 to 30 minutes.	I will call in 20 to 30 minutes.	111055468	1474779748207	1474779748282	u	85
215533	2337620	I will call in 20 to 30 minutes.	I will call in 20 to 30 minutes.	111055479	1474779748435	1474779748522	t	84
215533	2337620	I will call in 20 to 30 minutes.	I will call in 20 to 30 minutes.	111055480	1474779748582	1474779748655	e	69
215533	2337620	I will call in 20 to 30 minutes.	I will call in 20 to 30 minutes.	111055482	1474779748740	1474779748844	s	83
215533	2337620	I will call in 20 to 30 minutes.	I will call in 20 to 30 minutes.	111055486	1474779748914	1474779749087	.	190
215533	2337624	Does Dan know about Julia changing groups?	Does Dan know about Julia changing groups?	111055557	1474779752657	1474779753101	SHIFT	16
215533	2337624	Does Dan know about Julia changing groups?	Does Dan know about Julia changing groups?	111055552	1474779752977	1474779753050	D	68
215533	2337624	Does Dan know about Julia changing groups?	Does Dan know about Julia changing groups?	111055554	1474779753060	1474779753092	D	68
215533	2337624	Does Dan know about Julia changing groups?	Does Dan know about Julia changing groups?	111055559	1474779753170	1474779753262	o	79
215533	2337624	Does Dan know about Julia changing groups?	Does Dan know about Julia changing groups?	111055560	1474779753563	1474779753630	BKSP	8
215533	2337624	Does Dan know about Julia changing groups?	Does Dan know about Julia changing groups?	111055561	1474779753705	1474779753787	BKSP	8
215533	2337624	Does Dan know about Julia changing groups?	Does Dan know about Julia changing groups?	111055562	1474779753917	1474779754003	o	79
215533	2337624	Does Dan know about Julia changing groups?	Does Dan know about Julia changing groups?	111055563	1474779754033	1474779754131	e	69
215533	2337624	Does Dan know about Julia changing groups?	Does Dan know about Julia changing groups?	111055564	1474779754205	1474779754305	s	83
215533	2337624	Does Dan know about Julia changing groups?	Does Dan know about Julia changing groups?	111055565	1474779754280	1474779754417	 	32
215533	2337624	Does Dan know about Julia changing groups?	Does Dan know about Julia changing groups?	111055566	1474779754427	1474779754527	d	68
215533	2337624	Does Dan know about Julia changing groups?	Does Dan know about Julia changing groups?	111055567	1474779754597	1474779754692	a	65
215533	2337624	Does Dan know about Julia changing groups?	Does Dan know about Julia changing groups?	111055603	1474779754686	1474779754773	n	78
215533	2337624	Does Dan know about Julia changing groups?	Does Dan know about Julia changing groups?	111055604	1474779755057	1474779755119	BKSP	8
215533	2337624	Does Dan know about Julia changing groups?	Does Dan know about Julia changing groups?	111055606	1474779755383	1474779755459	BKSP	8
215533	2337624	Does Dan know about Julia changing groups?	Does Dan know about Julia changing groups?	111055610	1474779755413	1474779755846	SHIFT	16
215533	2337624	Does Dan know about Julia changing groups?	Does Dan know about Julia changing groups?	111055608	1474779755521	1474779755617	BKSP	8
215533	2337624	Does Dan know about Julia changing groups?	Does Dan know about Julia changing groups?	111055609	1474779755697	1474779755826	D	68
215533	2337624	Does Dan know about Julia changing groups?	Does Dan know about Julia changing groups?	111055613	1474779756056	1474779756160	a	65
215533	2337624	Does Dan know about Julia changing groups?	Does Dan know about Julia changing groups?	111055616	1474779756170	1474779756250	n	78
215533	2337624	Does Dan know about Julia changing groups?	Does Dan know about Julia changing groups?	111055619	1474779756290	1474779756440	 	32
215533	2337624	Does Dan know about Julia changing groups?	Does Dan know about Julia changing groups?	111055639	1474779756420	1474779756510	n	78
215533	2337624	Does Dan know about Julia changing groups?	Does Dan know about Julia changing groups?	111055642	1474779756771	1474779756873	BKSP	8
215533	2337624	Does Dan know about Julia changing groups?	Does Dan know about Julia changing groups?	111055645	1474779757003	1474779757073	k	75
215533	2337624	Does Dan know about Julia changing groups?	Does Dan know about Julia changing groups?	111055648	1474779757183	1474779757249	n	78
215533	2337624	Does Dan know about Julia changing groups?	Does Dan know about Julia changing groups?	111055651	1474779757370	1474779757428	o	79
215533	2337624	Does Dan know about Julia changing groups?	Does Dan know about Julia changing groups?	111055653	1474779757440	1474779757550	w	87
215533	2337624	Does Dan know about Julia changing groups?	Does Dan know about Julia changing groups?	111055661	1474779757530	1474779757660	 	32
215533	2337624	Does Dan know about Julia changing groups?	Does Dan know about Julia changing groups?	111055663	1474779757710	1474779757821	a	65
215533	2337624	Does Dan know about Julia changing groups?	Does Dan know about Julia changing groups?	111055665	1474779757770	1474779757840	b	66
215533	2337624	Does Dan know about Julia changing groups?	Does Dan know about Julia changing groups?	111055667	1474779757960	1474779758009	o	79
215533	2337624	Does Dan know about Julia changing groups?	Does Dan know about Julia changing groups?	111055669	1474779758150	1474779758218	u	85
215533	2337624	Does Dan know about Julia changing groups?	Does Dan know about Julia changing groups?	111055671	1474779758228	1474779758303	t	84
215533	2337624	Does Dan know about Julia changing groups?	Does Dan know about Julia changing groups?	111055706	1474779758283	1474779758393	 	32
215533	2337624	Does Dan know about Julia changing groups?	Does Dan know about Julia changing groups?	111055713	1474779758513	1474779758663	SHIFT	16
215533	2337624	Does Dan know about Julia changing groups?	Does Dan know about Julia changing groups?	111055710	1474779758543	1474779758610	J	74
215533	2337624	Does Dan know about Julia changing groups?	Does Dan know about Julia changing groups?	111055715	1474779758673	1474779758743	u	85
215533	2337624	Does Dan know about Julia changing groups?	Does Dan know about Julia changing groups?	111055716	1474779758864	1474779758917	l	76
215533	2337624	Does Dan know about Julia changing groups?	Does Dan know about Julia changing groups?	111055717	1474779759085	1474779759166	i	73
215533	2337624	Does Dan know about Julia changing groups?	Does Dan know about Julia changing groups?	111055718	1474779759176	1474779759286	a	65
215533	2337624	Does Dan know about Julia changing groups?	Does Dan know about Julia changing groups?	111055731	1474779759337	1474779759469	 	32
215533	2337624	Does Dan know about Julia changing groups?	Does Dan know about Julia changing groups?	111055733	1474779759619	1474779759737	c	67
215533	2337624	Does Dan know about Julia changing groups?	Does Dan know about Julia changing groups?	111055737	1474779759700	1474779759789	h	72
215533	2337624	Does Dan know about Julia changing groups?	Does Dan know about Julia changing groups?	111055743	1474779759859	1474779759965	a	65
215533	2337624	Does Dan know about Julia changing groups?	Does Dan know about Julia changing groups?	111055767	1474779759924	1474779759993	n	78
215533	2337624	Does Dan know about Julia changing groups?	Does Dan know about Julia changing groups?	111055769	1474779760093	1474779760149	g	71
215533	2337624	Does Dan know about Julia changing groups?	Does Dan know about Julia changing groups?	111055772	1474779760263	1474779760343	i	73
215533	2337624	Does Dan know about Julia changing groups?	Does Dan know about Julia changing groups?	111055774	1474779760435	1474779760517	n	78
215533	2337624	Does Dan know about Julia changing groups?	Does Dan know about Julia changing groups?	111055775	1474779760494	1474779760599	g	71
215533	2337624	Does Dan know about Julia changing groups?	Does Dan know about Julia changing groups?	111055815	1474779760579	1474779760693	 	32
215533	2337624	Does Dan know about Julia changing groups?	Does Dan know about Julia changing groups?	111055818	1474779760753	1474779760833	g	71
215533	2337624	Does Dan know about Julia changing groups?	Does Dan know about Julia changing groups?	111055820	1474779760853	1474779761004	r	82
215533	2337624	Does Dan know about Julia changing groups?	Does Dan know about Julia changing groups?	111055823	1474779761005	1474779761077	i	73
215533	2337624	Does Dan know about Julia changing groups?	Does Dan know about Julia changing groups?	111055826	1474779761417	1474779761509	BKSP	8
215533	2337624	Does Dan know about Julia changing groups?	Does Dan know about Julia changing groups?	111055829	1474779761670	1474779761742	o	79
215533	2337624	Does Dan know about Julia changing groups?	Does Dan know about Julia changing groups?	111055832	1474779761852	1474779761931	u	85
215533	2337624	Does Dan know about Julia changing groups?	Does Dan know about Julia changing groups?	111055853	1474779762047	1474779762111	p	80
215533	2337624	Does Dan know about Julia changing groups?	Does Dan know about Julia changing groups?	111055854	1474779762119	1474779762220	s	83
215533	2337624	Does Dan know about Julia changing groups?	Does Dan know about Julia changing groups?	111055856	1474779762400	1474779762741	SHIFT	16
215533	2337624	Does Dan know about Julia changing groups?	Does Dan know about Julia changing groups?	111055855	1474779762530	1474779762659	?	191
215533	2337629	Martha Stewart will not be dining with us this Thanksgiving.	Martha Stewart will not be dining with us this Thanksgiving	111055908	1474779764622	1474779765034	SHIFT	16
215533	2337629	Martha Stewart will not be dining with us this Thanksgiving.	Martha Stewart will not be dining with us this Thanksgiving	111055906	1474779764912	1474779765032	M	77
215533	2337629	Martha Stewart will not be dining with us this Thanksgiving.	Martha Stewart will not be dining with us this Thanksgiving	111055912	1474779765134	1474779765205	a	65
215533	2337629	Martha Stewart will not be dining with us this Thanksgiving.	Martha Stewart will not be dining with us this Thanksgiving	111055914	1474779765240	1474779765281	a	65
215533	2337629	Martha Stewart will not be dining with us this Thanksgiving.	Martha Stewart will not be dining with us this Thanksgiving	111055916	1474779765440	1474779765533	r	82
215533	2337629	Martha Stewart will not be dining with us this Thanksgiving.	Martha Stewart will not be dining with us this Thanksgiving	111055959	1474779765513	1474779765602	t	84
215533	2337629	Martha Stewart will not be dining with us this Thanksgiving.	Martha Stewart will not be dining with us this Thanksgiving	111055961	1474779765687	1474779765789	h	72
215533	2337629	Martha Stewart will not be dining with us this Thanksgiving.	Martha Stewart will not be dining with us this Thanksgiving	111055965	1474779765789	1474779765881	a	65
215533	2337629	Martha Stewart will not be dining with us this Thanksgiving.	Martha Stewart will not be dining with us this Thanksgiving	111055968	1474779766071	1474779766131	BKSP	8
215533	2337629	Martha Stewart will not be dining with us this Thanksgiving.	Martha Stewart will not be dining with us this Thanksgiving	111055970	1474779766203	1474779766265	BKSP	8
215533	2337629	Martha Stewart will not be dining with us this Thanksgiving.	Martha Stewart will not be dining with us this Thanksgiving	111055972	1474779766325	1474779766389	BKSP	8
215533	2337629	Martha Stewart will not be dining with us this Thanksgiving.	Martha Stewart will not be dining with us this Thanksgiving	111055973	1474779766449	1474779766513	BKSP	8
215533	2337629	Martha Stewart will not be dining with us this Thanksgiving.	Martha Stewart will not be dining with us this Thanksgiving	111055974	1474779766563	1474779766655	BKSP	8
215533	2337629	Martha Stewart will not be dining with us this Thanksgiving.	Martha Stewart will not be dining with us this Thanksgiving	111055976	1474779766963	1474779767085	r	82
215533	2337629	Martha Stewart will not be dining with us this Thanksgiving.	Martha Stewart will not be dining with us this Thanksgiving	111055978	1474779767095	1474779767149	t	84
215533	2337629	Martha Stewart will not be dining with us this Thanksgiving.	Martha Stewart will not be dining with us this Thanksgiving	111055980	1474779767273	1474779767364	h	72
215533	2337629	Martha Stewart will not be dining with us this Thanksgiving.	Martha Stewart will not be dining with us this Thanksgiving	111055994	1474779767365	1474779767446	a	65
215533	2337629	Martha Stewart will not be dining with us this Thanksgiving.	Martha Stewart will not be dining with us this Thanksgiving	111055995	1474779767456	1474779767593	 	32
215533	2337629	Martha Stewart will not be dining with us this Thanksgiving.	Martha Stewart will not be dining with us this Thanksgiving	111055996	1474779767633	1474779767857	SHIFT	16
215533	2337629	Martha Stewart will not be dining with us this Thanksgiving.	Martha Stewart will not be dining with us this Thanksgiving	111055997	1474779767773	1474779767888	S	83
215533	2337629	Martha Stewart will not be dining with us this Thanksgiving.	Martha Stewart will not be dining with us this Thanksgiving	111055998	1474779767948	1474779768079	t	84
215533	2337629	Martha Stewart will not be dining with us this Thanksgiving.	Martha Stewart will not be dining with us this Thanksgiving	111055999	1474779768299	1474779768381	e	69
215533	2337629	Martha Stewart will not be dining with us this Thanksgiving.	Martha Stewart will not be dining with us this Thanksgiving	111056045	1474779768452	1474779768583	r	82
215533	2337629	Martha Stewart will not be dining with us this Thanksgiving.	Martha Stewart will not be dining with us this Thanksgiving	111056046	1474779768693	1474779768747	w	87
215533	2337629	Martha Stewart will not be dining with us this Thanksgiving.	Martha Stewart will not be dining with us this Thanksgiving	111056047	1474779769093	1474779769183	BKSP	8
215533	2337629	Martha Stewart will not be dining with us this Thanksgiving.	Martha Stewart will not be dining with us this Thanksgiving	111056048	1474779769253	1474779769363	BKSP	8
215533	2337629	Martha Stewart will not be dining with us this Thanksgiving.	Martha Stewart will not be dining with us this Thanksgiving	111056049	1474779769543	1474779769633	e	69
215533	2337629	Martha Stewart will not be dining with us this Thanksgiving.	Martha Stewart will not be dining with us this Thanksgiving	111056050	1474779769803	1474779769913	a	65
215533	2337629	Martha Stewart will not be dining with us this Thanksgiving.	Martha Stewart will not be dining with us this Thanksgiving	111056051	1474779770343	1474779770400	BKSP	8
215533	2337629	Martha Stewart will not be dining with us this Thanksgiving.	Martha Stewart will not be dining with us this Thanksgiving	111056052	1474779770666	1474779770809	BKSP	8
215533	2337629	Martha Stewart will not be dining with us this Thanksgiving.	Martha Stewart will not be dining with us this Thanksgiving	111056054	1474779770819	1474779770905	w	87
215533	2337629	Martha Stewart will not be dining with us this Thanksgiving.	Martha Stewart will not be dining with us this Thanksgiving	111056094	1474779770975	1474779771106	a	65
215533	2337629	Martha Stewart will not be dining with us this Thanksgiving.	Martha Stewart will not be dining with us this Thanksgiving	111056096	1474779771286	1474779771493	r	82
215533	2337629	Martha Stewart will not be dining with us this Thanksgiving.	Martha Stewart will not be dining with us this Thanksgiving	111056098	1474779771563	1474779771709	t	84
215533	2337629	Martha Stewart will not be dining with us this Thanksgiving.	Martha Stewart will not be dining with us this Thanksgiving	111056099	1474779771729	1474779771906	 	32
215533	2337629	Martha Stewart will not be dining with us this Thanksgiving.	Martha Stewart will not be dining with us this Thanksgiving	111056100	1474779772176	1474779772256	w	87
215533	2337629	Martha Stewart will not be dining with us this Thanksgiving.	Martha Stewart will not be dining with us this Thanksgiving	111056121	1474779772266	1474779772372	i	73
215533	2337629	Martha Stewart will not be dining with us this Thanksgiving.	Martha Stewart will not be dining with us this Thanksgiving	111056122	1474779772744	1474779772816	l	76
215533	2337629	Martha Stewart will not be dining with us this Thanksgiving.	Martha Stewart will not be dining with us this Thanksgiving	111056124	1474779772876	1474779772986	l	76
215533	2337629	Martha Stewart will not be dining with us this Thanksgiving.	Martha Stewart will not be dining with us this Thanksgiving	111056126	1474779773026	1474779773216	 	32
215533	2337629	Martha Stewart will not be dining with us this Thanksgiving.	Martha Stewart will not be dining with us this Thanksgiving	111056127	1474779773226	1474779773296	n	78
215533	2337629	Martha Stewart will not be dining with us this Thanksgiving.	Martha Stewart will not be dining with us this Thanksgiving	111056145	1474779773443	1474779773523	o	79
215533	2337629	Martha Stewart will not be dining with us this Thanksgiving.	Martha Stewart will not be dining with us this Thanksgiving	111056146	1474779773533	1474779773691	t	84
215533	2337629	Martha Stewart will not be dining with us this Thanksgiving.	Martha Stewart will not be dining with us this Thanksgiving	111056148	1474779773693	1474779773833	 	32
215533	2337629	Martha Stewart will not be dining with us this Thanksgiving.	Martha Stewart will not be dining with us this Thanksgiving	111056149	1474779773828	1474779773906	e	66
215533	2337629	Martha Stewart will not be dining with us this Thanksgiving.	Martha Stewart will not be dining with us this Thanksgiving	111056191	1474779773979	1474779774124	 	32
215533	2337629	Martha Stewart will not be dining with us this Thanksgiving.	Martha Stewart will not be dining with us this Thanksgiving	111056192	1474779774242	1474779775043	d	68
215533	2337629	Martha Stewart will not be dining with us this Thanksgiving.	Martha Stewart will not be dining with us this Thanksgiving	111056193	1474779774314	1474779775044	i	73
215533	2337629	Martha Stewart will not be dining with us this Thanksgiving.	Martha Stewart will not be dining with us this Thanksgiving	111056194	1474779775045	1474779775050	n	78
215533	2337629	Martha Stewart will not be dining with us this Thanksgiving.	Martha Stewart will not be dining with us this Thanksgiving	111056195	1474779775051	1474779775057	i	73
215533	2337629	Martha Stewart will not be dining with us this Thanksgiving.	Martha Stewart will not be dining with us this Thanksgiving	111056216	1474779775061	1474779775069	g	78
215533	2337629	Martha Stewart will not be dining with us this Thanksgiving.	Martha Stewart will not be dining with us this Thanksgiving	111056319	1474779775065	1474779779148	 	71
215533	2337629	Martha Stewart will not be dining with us this Thanksgiving.	Martha Stewart will not be dining with us this Thanksgiving	111056219	1474779775818	1474779775954	w	87
215533	2337629	Martha Stewart will not be dining with us this Thanksgiving.	Martha Stewart will not be dining with us this Thanksgiving	111056221	1474779775955	1474779776338	i	73
215533	2337629	Martha Stewart will not be dining with us this Thanksgiving.	Martha Stewart will not be dining with us this Thanksgiving	111056225	1474779776341	1474779776352	h	84
215533	2337629	Martha Stewart will not be dining with us this Thanksgiving.	Martha Stewart will not be dining with us this Thanksgiving	111056226	1474779776348	1474779776714	 	72
215533	2337629	Martha Stewart will not be dining with us this Thanksgiving.	Martha Stewart will not be dining with us this Thanksgiving	111056227	1474779776718	1474779776723	u	85
215533	2337629	Martha Stewart will not be dining with us this Thanksgiving.	Martha Stewart will not be dining with us this Thanksgiving	111056228	1474779776724	1474779776771	s	83
215533	2337629	Martha Stewart will not be dining with us this Thanksgiving.	Martha Stewart will not be dining with us this Thanksgiving	111056245	1474779776765	1474779776851	 	32
215533	2337629	Martha Stewart will not be dining with us this Thanksgiving.	Martha Stewart will not be dining with us this Thanksgiving	111056246	1474779777161	1474779777385	h	84
215533	2337629	Martha Stewart will not be dining with us this Thanksgiving.	Martha Stewart will not be dining with us this Thanksgiving	111056247	1474779777386	1474779777405	i	73
215533	2337629	Martha Stewart will not be dining with us this Thanksgiving.	Martha Stewart will not be dining with us this Thanksgiving	111056248	1474779777415	1474779777565	s	83
215533	2337629	Martha Stewart will not be dining with us this Thanksgiving.	Martha Stewart will not be dining with us this Thanksgiving	111056273	1474779777560	1474779777644	 	32
215533	2337629	Martha Stewart will not be dining with us this Thanksgiving.	Martha Stewart will not be dining with us this Thanksgiving	111056276	1474779777825	1474779777907	T	16
215533	2337629	Martha Stewart will not be dining with us this Thanksgiving.	Martha Stewart will not be dining with us this Thanksgiving	111056279	1474779777968	1474779778043	h	72
215533	2337629	Martha Stewart will not be dining with us this Thanksgiving.	Martha Stewart will not be dining with us this Thanksgiving	111056282	1474779778044	1474779778137	a	65
215533	2337629	Martha Stewart will not be dining with us this Thanksgiving.	Martha Stewart will not be dining with us this Thanksgiving	111056285	1474779778138	1474779778324	n	78
215533	2337629	Martha Stewart will not be dining with us this Thanksgiving.	Martha Stewart will not be dining with us this Thanksgiving	111056288	1474779778325	1474779778417	k	75
215533	2337629	Martha Stewart will not be dining with us this Thanksgiving.	Martha Stewart will not be dining with us this Thanksgiving	111056318	1474779778423	1474779778770	s	83
215533	2337629	Martha Stewart will not be dining with us this Thanksgiving.	Martha Stewart will not be dining with us this Thanksgiving	111056331	1474779779026	1474779779846	g	71
215533	2337629	Martha Stewart will not be dining with us this Thanksgiving.	Martha Stewart will not be dining with us this Thanksgiving	111056320	1474779779121	1474779779215	i	73
215533	2337629	Martha Stewart will not be dining with us this Thanksgiving.	Martha Stewart will not be dining with us this Thanksgiving	111056321	1474779779336	1474779779609	v	86
215533	2337629	Martha Stewart will not be dining with us this Thanksgiving.	Martha Stewart will not be dining with us this Thanksgiving	111056322	1474779779609	1474779779613	i	73
215533	2337629	Martha Stewart will not be dining with us this Thanksgiving.	Martha Stewart will not be dining with us this Thanksgiving	111056329	1474779779650	1474779779751	n	78
215533	2337640	Do you want to fax it to my hotel?	Do you want to fax it to my hotel?	111056383	1474779781795	1474779782122	SHIFT	16
215533	2337640	Do you want to fax it to my hotel?	Do you want to fax it to my hotel?	111056385	1474779782018	1474779782142	D	68
215533	2337640	Do you want to fax it to my hotel?	Do you want to fax it to my hotel?	111056387	1474779782162	1474779782246	o	79
215533	2337640	Do you want to fax it to my hotel?	Do you want to fax it to my hotel?	111056389	1474779782336	1474779782490	 	32
215533	2337640	Do you want to fax it to my hotel?	Do you want to fax it to my hotel?	111056391	1474779782458	1474779782584	y	89
215533	2337640	Do you want to fax it to my hotel?	Do you want to fax it to my hotel?	111056410	1474779782559	1474779782659	o	79
215533	2337640	Do you want to fax it to my hotel?	Do you want to fax it to my hotel?	111056412	1474779782769	1474779782909	u	85
215533	2337640	Do you want to fax it to my hotel?	Do you want to fax it to my hotel?	111056415	1474779782919	1474779783082	 	32
215533	2337640	Do you want to fax it to my hotel?	Do you want to fax it to my hotel?	111056418	1474779783038	1474779783119	w	87
215533	2337640	Do you want to fax it to my hotel?	Do you want to fax it to my hotel?	111056421	1474779783219	1474779783312	a	65
215533	2337640	Do you want to fax it to my hotel?	Do you want to fax it to my hotel?	111056425	1474779783312	1474779783402	n	78
215533	2337640	Do you want to fax it to my hotel?	Do you want to fax it to my hotel?	111056444	1474779783503	1474779783615	t	84
215533	2337640	Do you want to fax it to my hotel?	Do you want to fax it to my hotel?	111056446	1474779783635	1474779783766	 	32
215533	2337640	Do you want to fax it to my hotel?	Do you want to fax it to my hotel?	111056448	1474779783746	1474779783885	t	84
215533	2337640	Do you want to fax it to my hotel?	Do you want to fax it to my hotel?	111056450	1474779783895	1474779784015	o	79
215533	2337640	Do you want to fax it to my hotel?	Do you want to fax it to my hotel?	111056452	1474779784025	1474779784175	 	32
215533	2337640	Do you want to fax it to my hotel?	Do you want to fax it to my hotel?	111056477	1474779784226	1474779784338	f	70
215533	2337640	Do you want to fax it to my hotel?	Do you want to fax it to my hotel?	111056478	1474779784428	1474779784528	a	65
215533	2337640	Do you want to fax it to my hotel?	Do you want to fax it to my hotel?	111056479	1474779784900	1474779785019	x	88
215533	2337640	Do you want to fax it to my hotel?	Do you want to fax it to my hotel?	111056480	1474779785019	1474779785145	 	32
215533	2337640	Do you want to fax it to my hotel?	Do you want to fax it to my hotel?	111056481	1474779785205	1474779785265	i	73
215533	2337640	Do you want to fax it to my hotel?	Do you want to fax it to my hotel?	111056488	1474779785356	1474779785475	t	84
215533	2337640	Do you want to fax it to my hotel?	Do you want to fax it to my hotel?	111056489	1474779785505	1474779785648	 	32
215533	2337640	Do you want to fax it to my hotel?	Do you want to fax it to my hotel?	111056490	1474779785615	1474779785739	t	84
215533	2337640	Do you want to fax it to my hotel?	Do you want to fax it to my hotel?	111056491	1474779785719	1474779785792	o	79
215533	2337640	Do you want to fax it to my hotel?	Do you want to fax it to my hotel?	111056492	1474779785842	1474779785978	 	32
215533	2337640	Do you want to fax it to my hotel?	Do you want to fax it to my hotel?	111056513	1474779786039	1474779786125	m	77
215533	2337640	Do you want to fax it to my hotel?	Do you want to fax it to my hotel?	111056514	1474779786245	1474779786315	y	89
215533	2337640	Do you want to fax it to my hotel?	Do you want to fax it to my hotel?	111056515	1474779786335	1474779786468	 	32
215533	2337640	Do you want to fax it to my hotel?	Do you want to fax it to my hotel?	111056517	1474779786448	1474779786532	h	72
215533	2337640	Do you want to fax it to my hotel?	Do you want to fax it to my hotel?	111056520	1474779786643	1474779786715	o	79
215533	2337640	Do you want to fax it to my hotel?	Do you want to fax it to my hotel?	111056534	1474779786725	1474779786805	t	84
215533	2337640	Do you want to fax it to my hotel?	Do you want to fax it to my hotel?	111056535	1474779786896	1474779786978	e	69
215533	2337640	Do you want to fax it to my hotel?	Do you want to fax it to my hotel?	111056536	1474779786978	1474779787088	l	76
215533	2337640	Do you want to fax it to my hotel?	Do you want to fax it to my hotel?	111056537	1474779787178	1474779787359	SHIFT	16
215533	2337640	Do you want to fax it to my hotel?	Do you want to fax it to my hotel?	111056538	1474779787259	1474779787409	?	191
215533	2337645	Weather is bad here.	Weather is bad here.	111056606	1474779789306	1474779789545	SHIFT	16
215533	2337645	Weather is bad here.	Weather is bad here.	111056609	1474779789446	1474779789575	W	87
215533	2337645	Weather is bad here.	Weather is bad here.	111056612	1474779789645	1474779789745	a	65
215533	2337645	Weather is bad here.	Weather is bad here.	111056615	1474779789755	1474779789847	t	84
215533	2337645	Weather is bad here.	Weather is bad here.	111056618	1474779790114	1474779790192	BKSP	8
215533	2337645	Weather is bad here.	Weather is bad here.	111056621	1474779790275	1474779790367	BKSP	8
215533	2337645	Weather is bad here.	Weather is bad here.	111056626	1474779790387	1474779790479	e	69
215533	2337645	Weather is bad here.	Weather is bad here.	111056630	1474779790489	1474779790621	a	65
215533	2337645	Weather is bad here.	Weather is bad here.	111056635	1474779790680	1474779790754	t	84
215533	2337645	Weather is bad here.	Weather is bad here.	111056640	1474779790854	1474779790922	h	72
215533	2337645	Weather is bad here.	Weather is bad here.	111056644	1474779790906	1474779790980	e	69
215533	2337645	Weather is bad here.	Weather is bad here.	111056647	1474779791060	1474779791166	r	82
215533	2337645	Weather is bad here.	Weather is bad here.	111056659	1474779791100	1474779791242	 	32
215533	2337645	Weather is bad here.	Weather is bad here.	111056661	1474779791262	1474779791349	i	73
215533	2337645	Weather is bad here.	Weather is bad here.	111056663	1474779791324	1474779791417	s	83
215533	2337645	Weather is bad here.	Weather is bad here.	111056665	1474779791395	1474779791507	 	32
215533	2337645	Weather is bad here.	Weather is bad here.	111056667	1474779791578	1474779791671	b	66
215533	2337645	Weather is bad here.	Weather is bad here.	111056682	1474779791642	1474779791729	a	65
215533	2337645	Weather is bad here.	Weather is bad here.	111056685	1474779791819	1474779791909	d	68
215533	2337645	Weather is bad here.	Weather is bad here.	111056688	1474779791949	1474779792080	 	32
215533	2337645	Weather is bad here.	Weather is bad here.	111056692	1474779792190	1474779792258	h	72
215533	2337645	Weather is bad here.	Weather is bad here.	111056695	1474779792508	1474779792672	e	69
215533	2337645	Weather is bad here.	Weather is bad here.	111056711	1474779792640	1474779792761	r	82
215533	2337645	Weather is bad here.	Weather is bad here.	111056714	1474779792732	1474779792875	e	69
215533	2337645	Weather is bad here.	Weather is bad here.	111056716	1474779792885	1474779793007	.	190
215533	2337645	Weather is bad here.	Weather is bad here.	111056719	1474779793077	1474779793147	SHIFT	16
215533	2337649	You have 6 active players at position WR.	You have 6 active players at position WR.	111056841	1474779796068	1474779796788	SHIFT	16
215533	2337649	You have 6 active players at position WR.	You have 6 active players at position WR.	111056845	1474779796751	1474779796835	Y	89
215533	2337649	You have 6 active players at position WR.	You have 6 active players at position WR.	111056853	1474779796985	1474779797065	o	79
215533	2337649	You have 6 active players at position WR.	You have 6 active players at position WR.	111056861	1474779797145	1474779797215	u	85
215533	2337649	You have 6 active players at position WR.	You have 6 active players at position WR.	111056866	1474779797305	1474779797465	 	32
215533	2337649	You have 6 active players at position WR.	You have 6 active players at position WR.	111056874	1474779797495	1474779797537	h	72
215533	2337649	You have 6 active players at position WR.	You have 6 active players at position WR.	111056892	1474779797682	1474779797751	a	65
215533	2337649	You have 6 active players at position WR.	You have 6 active players at position WR.	111056894	1474779797761	1474779797828	v	86
215533	2337649	You have 6 active players at position WR.	You have 6 active players at position WR.	111056898	1474779797908	1474779798045	e	69
215533	2337649	You have 6 active players at position WR.	You have 6 active players at position WR.	111056903	1474779797998	1474779798108	 	32
215533	2337649	You have 6 active players at position WR.	You have 6 active players at position WR.	111056909	1474779798288	1474779798332	7	55
215533	2337649	You have 6 active players at position WR.	You have 6 active players at position WR.	111056959	1474779798728	1474779798815	BKSP	8
215533	2337649	You have 6 active players at position WR.	You have 6 active players at position WR.	111056960	1474779798886	1474779798978	6	54
215533	2337649	You have 6 active players at position WR.	You have 6 active players at position WR.	111056961	1474779799088	1474779799208	 	32
215533	2337649	You have 6 active players at position WR.	You have 6 active players at position WR.	111056962	1474779799508	1474779799608	a	65
215533	2337649	You have 6 active players at position WR.	You have 6 active players at position WR.	111056964	1474779799708	1474779799788	c	67
215533	2337649	You have 6 active players at position WR.	You have 6 active players at position WR.	111056966	1474779799888	1474779800025	t	84
215533	2337649	You have 6 active players at position WR.	You have 6 active players at position WR.	111056991	1474779799978	1474779800110	i	73
215533	2337649	You have 6 active players at position WR.	You have 6 active players at position WR.	111056994	1474779800120	1474779800211	v	86
215533	2337649	You have 6 active players at position WR.	You have 6 active players at position WR.	111056996	1474779800251	1474779800391	e	69
215533	2337649	You have 6 active players at position WR.	You have 6 active players at position WR.	111056998	1474779800328	1474779800461	 	32
215533	2337649	You have 6 active players at position WR.	You have 6 active players at position WR.	111057000	1474779800571	1474779800665	p	80
215533	2337649	You have 6 active players at position WR.	You have 6 active players at position WR.	111057002	1474779800905	1474779801008	l	76
215533	2337649	You have 6 active players at position WR.	You have 6 active players at position WR.	111057027	1474779801078	1474779801178	a	65
215533	2337649	You have 6 active players at position WR.	You have 6 active players at position WR.	111057031	1474779801218	1474779801302	y	89
215533	2337649	You have 6 active players at position WR.	You have 6 active players at position WR.	111057038	1474779801407	1474779801499	e	69
215533	2337649	You have 6 active players at position WR.	You have 6 active players at position WR.	111057042	1474779801599	1474779801680	r	82
215533	2337649	You have 6 active players at position WR.	You have 6 active players at position WR.	111057044	1474779801787	1474779801910	s	83
215533	2337649	You have 6 active players at position WR.	You have 6 active players at position WR.	111057057	1474779801879	1474779802005	 	32
215533	2337649	You have 6 active players at position WR.	You have 6 active players at position WR.	111057060	1474779802045	1474779802157	a	65
215533	2337649	You have 6 active players at position WR.	You have 6 active players at position WR.	111057062	1474779802130	1474779802265	t	84
215533	2337649	You have 6 active players at position WR.	You have 6 active players at position WR.	111057063	1474779802275	1474779802420	 	32
215533	2337649	You have 6 active players at position WR.	You have 6 active players at position WR.	111057064	1474779802540	1474779802620	p	80
215533	2337649	You have 6 active players at position WR.	You have 6 active players at position WR.	111057065	1474779802708	1474779802768	o	79
215533	2337649	You have 6 active players at position WR.	You have 6 active players at position WR.	111057089	1474779802813	1474779802888	s	83
215533	2337649	You have 6 active players at position WR.	You have 6 active players at position WR.	111057090	1474779802948	1474779803005	i	73
215533	2337649	You have 6 active players at position WR.	You have 6 active players at position WR.	111057092	1474779803121	1474779803234	t	84
215533	2337649	You have 6 active players at position WR.	You have 6 active players at position WR.	111057094	1474779803179	1474779803245	i	73
215533	2337649	You have 6 active players at position WR.	You have 6 active players at position WR.	111057096	1474779803375	1474779803501	o	79
215533	2337649	You have 6 active players at position WR.	You have 6 active players at position WR.	111057109	1474779803651	1474779803725	n	78
215533	2337649	You have 6 active players at position WR.	You have 6 active players at position WR.	111057111	1474779803745	1474779803937	 	32
215533	2337649	You have 6 active players at position WR.	You have 6 active players at position WR.	111057114	1474779803957	1474779804599	SHIFT	16
215533	2337649	You have 6 active players at position WR.	You have 6 active players at position WR.	111057112	1474779804167	1474779804315	W	87
215533	2337649	You have 6 active players at position WR.	You have 6 active players at position WR.	111057113	1474779804365	1474779804519	R	82
215533	2337649	You have 6 active players at position WR.	You have 6 active players at position WR.	111057115	1474779804739	1474779804822	.	190
215533	2337658	I haven't seen it yet.	I haven't seen it yet.	111057208	1474779806803	1474779806997	SHIFT	16
215533	2337658	I haven't seen it yet.	I haven't seen it yet.	111057210	1474779806883	1474779807017	I	73
215533	2337658	I haven't seen it yet.	I haven't seen it yet.	111057212	1474779807027	1474779807183	 	32
215533	2337658	I haven't seen it yet.	I haven't seen it yet.	111057214	1474779807141	1474779807241	h	72
215533	2337658	I haven't seen it yet.	I haven't seen it yet.	111057217	1474779807251	1474779807331	a	65
215533	2337658	I haven't seen it yet.	I haven't seen it yet.	111057219	1474779807351	1474779807428	v	86
215533	2337658	I haven't seen it yet.	I haven't seen it yet.	111057277	1474779807448	1474779807547	e	69
215533	2337658	I haven't seen it yet.	I haven't seen it yet.	111057281	1474779807587	1474779807667	n	78
215533	2337658	I haven't seen it yet.	I haven't seen it yet.	111057285	1474779807747	1474779807851	t	84
215533	2337658	I haven't seen it yet.	I haven't seen it yet.	111057289	1474779807871	1474779807901	 	32
215533	2337658	I haven't seen it yet.	I haven't seen it yet.	111057293	1474779808125	1474779808151	BKSP	8
215533	2337658	I haven't seen it yet.	I haven't seen it yet.	111057297	1474779808248	1474779808325	BKSP	8
215533	2337658	I haven't seen it yet.	I haven't seen it yet.	111057300	1474779808426	1474779808481	BKSP	8
215533	2337658	I haven't seen it yet.	I haven't seen it yet.	111057302	1474779809054	1474779809124	n	78
215533	2337658	I haven't seen it yet.	I haven't seen it yet.	111057320	1474779809334	1474779809390	'	222
215533	2337658	I haven't seen it yet.	I haven't seen it yet.	111057324	1474779809434	1474779809547	t	84
215533	2337658	I haven't seen it yet.	I haven't seen it yet.	111057327	1474779809567	1474779809701	 	32
215533	2337658	I haven't seen it yet.	I haven't seen it yet.	111057331	1474779809741	1474779809817	s	83
215533	2337658	I haven't seen it yet.	I haven't seen it yet.	111057335	1474779809977	1474779810045	e	69
215533	2337658	I haven't seen it yet.	I haven't seen it yet.	111057348	1474779810111	1474779810216	e	69
215533	2337658	I haven't seen it yet.	I haven't seen it yet.	111057349	1474779810191	1474779810281	n	78
215533	2337658	I haven't seen it yet.	I haven't seen it yet.	111057351	1474779810321	1474779810451	 	32
215533	2337658	I haven't seen it yet.	I haven't seen it yet.	111057353	1474779810471	1474779810572	i	73
215533	2337658	I haven't seen it yet.	I haven't seen it yet.	111057366	1474779810552	1474779810654	t	84
215533	2337658	I haven't seen it yet.	I haven't seen it yet.	111057369	1474779810644	1474779810774	 	32
215533	2337658	I haven't seen it yet.	I haven't seen it yet.	111057372	1474779810784	1474779810857	y	89
215533	2337658	I haven't seen it yet.	I haven't seen it yet.	111057419	1474779811098	1474779811241	t	84
215533	2337658	I haven't seen it yet.	I haven't seen it yet.	111057375	1474779811138	1474779811197	y	89
215533	2337658	I haven't seen it yet.	I haven't seen it yet.	111057417	1474779811160	1474779811217	.	190
215533	2337658	I haven't seen it yet.	I haven't seen it yet.	111057422	1474779811551	1474779811600	BKSP	8
215533	2337658	I haven't seen it yet.	I haven't seen it yet.	111057424	1474779811673	1474779811741	BKSP	8
215533	2337658	I haven't seen it yet.	I haven't seen it yet.	111057427	1474779811881	1474779811967	BKSP	8
215533	2337658	I haven't seen it yet.	I haven't seen it yet.	111057430	1474779811987	1474779812102	e	69
215533	2337658	I haven't seen it yet.	I haven't seen it yet.	111057433	1474779812067	1474779812204	t	84
215533	2337658	I haven't seen it yet.	I haven't seen it yet.	111057436	1474779812255	1474779812334	.	190
215533	2337666	Washington was not moving toward a unilateral lifting of the embargo.	Washington was not moving toward a unilateral lifting of the embargo.	111057533	1474779815891	1474779816115	SHIFT	16
215533	2337666	Washington was not moving toward a unilateral lifting of the embargo.	Washington was not moving toward a unilateral lifting of the embargo.	111057535	1474779816011	1474779816135	W	87
215533	2337666	Washington was not moving toward a unilateral lifting of the embargo.	Washington was not moving toward a unilateral lifting of the embargo.	111057537	1474779816243	1474779816325	a	65
215533	2337666	Washington was not moving toward a unilateral lifting of the embargo.	Washington was not moving toward a unilateral lifting of the embargo.	111057542	1474779816333	1474779816473	s	83
215533	2337666	Washington was not moving toward a unilateral lifting of the embargo.	Washington was not moving toward a unilateral lifting of the embargo.	111057547	1474779816432	1474779816514	h	72
215533	2337666	Washington was not moving toward a unilateral lifting of the embargo.	Washington was not moving toward a unilateral lifting of the embargo.	111057551	1474779816605	1474779816681	i	73
215533	2337666	Washington was not moving toward a unilateral lifting of the embargo.	Washington was not moving toward a unilateral lifting of the embargo.	111057567	1474779816764	1474779816860	n	78
215533	2337666	Washington was not moving toward a unilateral lifting of the embargo.	Washington was not moving toward a unilateral lifting of the embargo.	111057686	1474779816815	1474779819547	g	71
215533	2337666	Washington was not moving toward a unilateral lifting of the embargo.	Washington was not moving toward a unilateral lifting of the embargo.	111057570	1474779817021	1474779817149	t	84
215533	2337666	Washington was not moving toward a unilateral lifting of the embargo.	Washington was not moving toward a unilateral lifting of the embargo.	111057571	1474779817110	1474779817175	o	79
215533	2337666	Washington was not moving toward a unilateral lifting of the embargo.	Washington was not moving toward a unilateral lifting of the embargo.	111057572	1474779817305	1474779817388	n	78
215533	2337666	Washington was not moving toward a unilateral lifting of the embargo.	Washington was not moving toward a unilateral lifting of the embargo.	111057600	1474779817453	1474779817585	 	32
215533	2337666	Washington was not moving toward a unilateral lifting of the embargo.	Washington was not moving toward a unilateral lifting of the embargo.	111057602	1474779817695	1474779817757	w	87
215533	2337666	Washington was not moving toward a unilateral lifting of the embargo.	Washington was not moving toward a unilateral lifting of the embargo.	111057603	1474779817997	1474779818091	a	65
215533	2337666	Washington was not moving toward a unilateral lifting of the embargo.	Washington was not moving toward a unilateral lifting of the embargo.	111057604	1474779818061	1474779818167	s	83
215533	2337666	Washington was not moving toward a unilateral lifting of the embargo.	Washington was not moving toward a unilateral lifting of the embargo.	111057606	1474779818177	1474779818300	 	32
215533	2337666	Washington was not moving toward a unilateral lifting of the embargo.	Washington was not moving toward a unilateral lifting of the embargo.	111057622	1474779818362	1474779818434	n	78
215533	2337666	Washington was not moving toward a unilateral lifting of the embargo.	Washington was not moving toward a unilateral lifting of the embargo.	111057626	1474779818564	1474779818626	o	79
215533	2337666	Washington was not moving toward a unilateral lifting of the embargo.	Washington was not moving toward a unilateral lifting of the embargo.	111057630	1474779818640	1474779818750	t	84
215533	2337666	Washington was not moving toward a unilateral lifting of the embargo.	Washington was not moving toward a unilateral lifting of the embargo.	111057632	1474779818723	1474779818897	 	32
215533	2337666	Washington was not moving toward a unilateral lifting of the embargo.	Washington was not moving toward a unilateral lifting of the embargo.	111057652	1474779818867	1474779818951	m	77
215533	2337666	Washington was not moving toward a unilateral lifting of the embargo.	Washington was not moving toward a unilateral lifting of the embargo.	111057656	1474779819049	1474779819114	o	79
215533	2337666	Washington was not moving toward a unilateral lifting of the embargo.	Washington was not moving toward a unilateral lifting of the embargo.	111057659	1474779819144	1474779819211	v	86
215533	2337666	Washington was not moving toward a unilateral lifting of the embargo.	Washington was not moving toward a unilateral lifting of the embargo.	111057662	1474779819240	1474779819285	i	73
215533	2337666	Washington was not moving toward a unilateral lifting of the embargo.	Washington was not moving toward a unilateral lifting of the embargo.	111057667	1474779819399	1474779819478	n	78
215533	2337666	Washington was not moving toward a unilateral lifting of the embargo.	Washington was not moving toward a unilateral lifting of the embargo.	111057821	1474779819440	1474779825041	g	71
215533	2337666	Washington was not moving toward a unilateral lifting of the embargo.	Washington was not moving toward a unilateral lifting of the embargo.	111057687	1474779819537	1474779819632	 	32
215533	2337666	Washington was not moving toward a unilateral lifting of the embargo.	Washington was not moving toward a unilateral lifting of the embargo.	111057688	1474779819671	1474779819800	t	84
215533	2337666	Washington was not moving toward a unilateral lifting of the embargo.	Washington was not moving toward a unilateral lifting of the embargo.	111057689	1474779819770	1474779819865	o	79
215533	2337666	Washington was not moving toward a unilateral lifting of the embargo.	Washington was not moving toward a unilateral lifting of the embargo.	111057690	1474779819984	1474779820449	a	65
215533	2337666	Washington was not moving toward a unilateral lifting of the embargo.	Washington was not moving toward a unilateral lifting of the embargo.	111057691	1474779820451	1474779820463	w	8
215533	2337666	Washington was not moving toward a unilateral lifting of the embargo.	Washington was not moving toward a unilateral lifting of the embargo.	111057708	1474779820750	1474779820753	a	65
215533	2337666	Washington was not moving toward a unilateral lifting of the embargo.	Washington was not moving toward a unilateral lifting of the embargo.	111057710	1474779820878	1474779820951	r	82
215533	2337666	Washington was not moving toward a unilateral lifting of the embargo.	Washington was not moving toward a unilateral lifting of the embargo.	111057711	1474779821068	1474779821170	d	68
215533	2337666	Washington was not moving toward a unilateral lifting of the embargo.	Washington was not moving toward a unilateral lifting of the embargo.	111057712	1474779821180	1474779821331	 	32
215533	2337666	Washington was not moving toward a unilateral lifting of the embargo.	Washington was not moving toward a unilateral lifting of the embargo.	111057713	1474779821450	1474779821581	a	65
215533	2337666	Washington was not moving toward a unilateral lifting of the embargo.	Washington was not moving toward a unilateral lifting of the embargo.	111057734	1474779821592	1474779821688	 	32
215533	2337666	Washington was not moving toward a unilateral lifting of the embargo.	Washington was not moving toward a unilateral lifting of the embargo.	111057736	1474779822048	1474779822140	u	85
215533	2337666	Washington was not moving toward a unilateral lifting of the embargo.	Washington was not moving toward a unilateral lifting of the embargo.	111057741	1474779822290	1474779822326	n	78
215533	2337666	Washington was not moving toward a unilateral lifting of the embargo.	Washington was not moving toward a unilateral lifting of the embargo.	111057744	1474779822432	1474779822510	i	73
215533	2337666	Washington was not moving toward a unilateral lifting of the embargo.	Washington was not moving toward a unilateral lifting of the embargo.	111057748	1474779822625	1474779822704	l	76
215533	2337666	Washington was not moving toward a unilateral lifting of the embargo.	Washington was not moving toward a unilateral lifting of the embargo.	111057768	1474779822735	1474779822847	a	65
215533	2337666	Washington was not moving toward a unilateral lifting of the embargo.	Washington was not moving toward a unilateral lifting of the embargo.	111057770	1474779822907	1474779823011	t	84
215533	2337666	Washington was not moving toward a unilateral lifting of the embargo.	Washington was not moving toward a unilateral lifting of the embargo.	111057773	1474779823050	1474779823152	e	69
215533	2337666	Washington was not moving toward a unilateral lifting of the embargo.	Washington was not moving toward a unilateral lifting of the embargo.	111057776	1474779823222	1474779823365	r	82
215533	2337666	Washington was not moving toward a unilateral lifting of the embargo.	Washington was not moving toward a unilateral lifting of the embargo.	111057780	1474779823505	1474779823595	a	65
215533	2337666	Washington was not moving toward a unilateral lifting of the embargo.	Washington was not moving toward a unilateral lifting of the embargo.	111057799	1474779823605	1474779823688	l	76
215533	2337666	Washington was not moving toward a unilateral lifting of the embargo.	Washington was not moving toward a unilateral lifting of the embargo.	111057801	1474779823738	1474779823887	 	32
215533	2337666	Washington was not moving toward a unilateral lifting of the embargo.	Washington was not moving toward a unilateral lifting of the embargo.	111057804	1474779824067	1474779824150	l	76
215533	2337666	Washington was not moving toward a unilateral lifting of the embargo.	Washington was not moving toward a unilateral lifting of the embargo.	111057806	1474779824240	1474779824304	i	73
215533	2337666	Washington was not moving toward a unilateral lifting of the embargo.	Washington was not moving toward a unilateral lifting of the embargo.	111057808	1474779824334	1474779824438	f	70
215533	2337666	Washington was not moving toward a unilateral lifting of the embargo.	Washington was not moving toward a unilateral lifting of the embargo.	111057819	1474779824634	1474779824717	i	84
215533	2337666	Washington was not moving toward a unilateral lifting of the embargo.	Washington was not moving toward a unilateral lifting of the embargo.	111057820	1474779824822	1474779824904	n	78
215533	2337666	Washington was not moving toward a unilateral lifting of the embargo.	Washington was not moving toward a unilateral lifting of the embargo.	111057956	1474779824924	1474779827456	g	71
215533	2337666	Washington was not moving toward a unilateral lifting of the embargo.	Washington was not moving toward a unilateral lifting of the embargo.	111057833	1474779825017	1474779825140	 	32
215533	2337666	Washington was not moving toward a unilateral lifting of the embargo.	Washington was not moving toward a unilateral lifting of the embargo.	111057836	1474779825180	1474779825244	o	79
215533	2337666	Washington was not moving toward a unilateral lifting of the embargo.	Washington was not moving toward a unilateral lifting of the embargo.	111057841	1474779825264	1474779825386	f	70
215533	2337666	Washington was not moving toward a unilateral lifting of the embargo.	Washington was not moving toward a unilateral lifting of the embargo.	111057848	1474779825350	1474779825484	 	32
215533	2337666	Washington was not moving toward a unilateral lifting of the embargo.	Washington was not moving toward a unilateral lifting of the embargo.	111057857	1474779825544	1474779825674	t	84
215533	2337666	Washington was not moving toward a unilateral lifting of the embargo.	Washington was not moving toward a unilateral lifting of the embargo.	111057886	1474779825643	1474779825763	h	72
215533	2337666	Washington was not moving toward a unilateral lifting of the embargo.	Washington was not moving toward a unilateral lifting of the embargo.	111057890	1474779825803	1474779825904	e	69
215533	2337666	Washington was not moving toward a unilateral lifting of the embargo.	Washington was not moving toward a unilateral lifting of the embargo.	111057893	1474779825891	1474779826007	 	32
215533	2337666	Washington was not moving toward a unilateral lifting of the embargo.	Washington was not moving toward a unilateral lifting of the embargo.	111057896	1474779826107	1474779826170	e	69
215533	2337666	Washington was not moving toward a unilateral lifting of the embargo.	Washington was not moving toward a unilateral lifting of the embargo.	111057900	1474779826140	1474779826217	m	77
215533	2337666	Washington was not moving toward a unilateral lifting of the embargo.	Washington was not moving toward a unilateral lifting of the embargo.	111057905	1474779826357	1474779826437	b	66
215533	2337666	Washington was not moving toward a unilateral lifting of the embargo.	Washington was not moving toward a unilateral lifting of the embargo.	111057954	1474779826953	1474779827089	a	65
215533	2337666	Washington was not moving toward a unilateral lifting of the embargo.	Washington was not moving toward a unilateral lifting of the embargo.	111057955	1474779827117	1474779827254	r	82
215533	2337666	Washington was not moving toward a unilateral lifting of the embargo.	Washington was not moving toward a unilateral lifting of the embargo.	111057957	1474779827445	1474779827529	o	79
215533	2337666	Washington was not moving toward a unilateral lifting of the embargo.	Washington was not moving toward a unilateral lifting of the embargo.	111057958	1474779827675	1474779827848	.	190
