PARTICIPANT_ID	TEST_SECTION_ID	SENTENCE	USER_INPUT	KEYSTROKE_ID	PRESS_TIME	RELEASE_TIME	LETTER	KEYCODE
215807	2340840	The blasts rocked prominent commercial landmarks.	The blasts rocked prominent commercial landmarks.	111208178	1474788014586	1474788014878	SHIFT	16
215807	2340840	The blasts rocked prominent commercial landmarks.	The blasts rocked prominent commercial landmarks.	111208180	1474788014788	1474788014898	T	84
215807	2340840	The blasts rocked prominent commercial landmarks.	The blasts rocked prominent commercial landmarks.	111208184	1474788015003	1474788015078	h	72
215807	2340840	The blasts rocked prominent commercial landmarks.	The blasts rocked prominent commercial landmarks.	111208187	1474788015173	1474788015242	e	69
215807	2340840	The blasts rocked prominent commercial landmarks.	The blasts rocked prominent commercial landmarks.	111208190	1474788015288	1474788015379	 	32
215807	2340840	The blasts rocked prominent commercial landmarks.	The blasts rocked prominent commercial landmarks.	111208192	1474788015550	1474788015644	b	66
215807	2340840	The blasts rocked prominent commercial landmarks.	The blasts rocked prominent commercial landmarks.	111208193	1474788015715	1474788015770	l	76
215807	2340840	The blasts rocked prominent commercial landmarks.	The blasts rocked prominent commercial landmarks.	111208194	1474788015820	1474788015965	a	65
215807	2340840	The blasts rocked prominent commercial landmarks.	The blasts rocked prominent commercial landmarks.	111208195	1474788015905	1474788016005	s	83
215807	2340840	The blasts rocked prominent commercial landmarks.	The blasts rocked prominent commercial landmarks.	111208196	1474788016051	1474788016181	t	84
215807	2340840	The blasts rocked prominent commercial landmarks.	The blasts rocked prominent commercial landmarks.	111208197	1474788016242	1474788016312	s	83
215807	2340840	The blasts rocked prominent commercial landmarks.	The blasts rocked prominent commercial landmarks.	111208201	1474788016381	1474788016506	 	32
215807	2340840	The blasts rocked prominent commercial landmarks.	The blasts rocked prominent commercial landmarks.	111208203	1474788016547	1474788016648	r	82
215807	2340840	The blasts rocked prominent commercial landmarks.	The blasts rocked prominent commercial landmarks.	111208206	1474788016663	1474788016722	o	79
215807	2340840	The blasts rocked prominent commercial landmarks.	The blasts rocked prominent commercial landmarks.	111208211	1474788016797	1474788016897	c	67
215807	2340840	The blasts rocked prominent commercial landmarks.	The blasts rocked prominent commercial landmarks.	111208214	1474788016912	1474788016983	k	75
215807	2340840	The blasts rocked prominent commercial landmarks.	The blasts rocked prominent commercial landmarks.	111208224	1474788016993	1474788017089	e	69
215807	2340840	The blasts rocked prominent commercial landmarks.	The blasts rocked prominent commercial landmarks.	111208225	1474788017173	1474788017228	d	68
215807	2340840	The blasts rocked prominent commercial landmarks.	The blasts rocked prominent commercial landmarks.	111208226	1474788017249	1474788017364	 	32
215807	2340840	The blasts rocked prominent commercial landmarks.	The blasts rocked prominent commercial landmarks.	111208227	1474788017415	1474788017510	p	80
215807	2340840	The blasts rocked prominent commercial landmarks.	The blasts rocked prominent commercial landmarks.	111208228	1474788017540	1474788017619	o	79
215807	2340840	The blasts rocked prominent commercial landmarks.	The blasts rocked prominent commercial landmarks.	111208236	1474788017635	1474788017719	r	82
215807	2340840	The blasts rocked prominent commercial landmarks.	The blasts rocked prominent commercial landmarks.	111208239	1474788017789	1474788017871	m	77
215807	2340840	The blasts rocked prominent commercial landmarks.	The blasts rocked prominent commercial landmarks.	111208242	1474788017937	1474788018025	i	73
215807	2340840	The blasts rocked prominent commercial landmarks.	The blasts rocked prominent commercial landmarks.	111208245	1474788018216	1474788018271	BKSP	8
215807	2340840	The blasts rocked prominent commercial landmarks.	The blasts rocked prominent commercial landmarks.	111208248	1474788018346	1474788018401	BKSP	8
215807	2340840	The blasts rocked prominent commercial landmarks.	The blasts rocked prominent commercial landmarks.	111208249	1474788018481	1474788018531	BKSP	8
215807	2340840	The blasts rocked prominent commercial landmarks.	The blasts rocked prominent commercial landmarks.	111208250	1474788018611	1474788018672	BKSP	8
215807	2340840	The blasts rocked prominent commercial landmarks.	The blasts rocked prominent commercial landmarks.	111208251	1474788018723	1474788018833	r	82
215807	2340840	The blasts rocked prominent commercial landmarks.	The blasts rocked prominent commercial landmarks.	111208252	1474788018857	1474788018952	o	79
215807	2340840	The blasts rocked prominent commercial landmarks.	The blasts rocked prominent commercial landmarks.	111208253	1474788019008	1474788019078	m	77
215807	2340840	The blasts rocked prominent commercial landmarks.	The blasts rocked prominent commercial landmarks.	111208254	1474788019164	1474788019244	i	73
215807	2340840	The blasts rocked prominent commercial landmarks.	The blasts rocked prominent commercial landmarks.	111208255	1474788019274	1474788019345	n	78
215807	2340840	The blasts rocked prominent commercial landmarks.	The blasts rocked prominent commercial landmarks.	111208256	1474788019602	1474788019664	e	69
215807	2340840	The blasts rocked prominent commercial landmarks.	The blasts rocked prominent commercial landmarks.	111208257	1474788019700	1474788019775	n	78
215807	2340840	The blasts rocked prominent commercial landmarks.	The blasts rocked prominent commercial landmarks.	111208269	1474788019869	1474788019949	t	84
215807	2340840	The blasts rocked prominent commercial landmarks.	The blasts rocked prominent commercial landmarks.	111208271	1474788020011	1474788020110	 	32
215807	2340840	The blasts rocked prominent commercial landmarks.	The blasts rocked prominent commercial landmarks.	111208273	1474788020275	1474788020362	c	67
215807	2340840	The blasts rocked prominent commercial landmarks.	The blasts rocked prominent commercial landmarks.	111208275	1474788020341	1474788020426	o	79
215807	2340840	The blasts rocked prominent commercial landmarks.	The blasts rocked prominent commercial landmarks.	111208277	1474788020451	1474788020507	m	77
215807	2340840	The blasts rocked prominent commercial landmarks.	The blasts rocked prominent commercial landmarks.	111208279	1474788020583	1474788020646	m	77
215807	2340840	The blasts rocked prominent commercial landmarks.	The blasts rocked prominent commercial landmarks.	111208280	1474788020677	1474788020777	e	69
215807	2340840	The blasts rocked prominent commercial landmarks.	The blasts rocked prominent commercial landmarks.	111208282	1474788020758	1474788020843	r	82
215807	2340840	The blasts rocked prominent commercial landmarks.	The blasts rocked prominent commercial landmarks.	111208284	1474788020908	1474788020977	i	73
215807	2340840	The blasts rocked prominent commercial landmarks.	The blasts rocked prominent commercial landmarks.	111208286	1474788021008	1474788021143	c	67
215807	2340840	The blasts rocked prominent commercial landmarks.	The blasts rocked prominent commercial landmarks.	111208301	1474788021152	1474788021258	a	65
215807	2340840	The blasts rocked prominent commercial landmarks.	The blasts rocked prominent commercial landmarks.	111208302	1474788021399	1474788021449	BKSP	8
215807	2340840	The blasts rocked prominent commercial landmarks.	The blasts rocked prominent commercial landmarks.	111208303	1474788021543	1474788021594	BKSP	8
215807	2340840	The blasts rocked prominent commercial landmarks.	The blasts rocked prominent commercial landmarks.	111208304	1474788021675	1474788021759	BKSP	8
215807	2340840	The blasts rocked prominent commercial landmarks.	The blasts rocked prominent commercial landmarks.	111208305	1474788021770	1474788021879	c	67
215807	2340840	The blasts rocked prominent commercial landmarks.	The blasts rocked prominent commercial landmarks.	111208306	1474788021905	1474788021981	i	73
215807	2340840	The blasts rocked prominent commercial landmarks.	The blasts rocked prominent commercial landmarks.	111208307	1474788021985	1474788022070	a	65
215807	2340840	The blasts rocked prominent commercial landmarks.	The blasts rocked prominent commercial landmarks.	111208308	1474788022156	1474788022226	l	76
215807	2340840	The blasts rocked prominent commercial landmarks.	The blasts rocked prominent commercial landmarks.	111208309	1474788022266	1474788022381	 	32
215807	2340840	The blasts rocked prominent commercial landmarks.	The blasts rocked prominent commercial landmarks.	111208310	1474788022551	1474788022627	l	76
215807	2340840	The blasts rocked prominent commercial landmarks.	The blasts rocked prominent commercial landmarks.	111208312	1474788022656	1474788022672	a	65
215807	2340840	The blasts rocked prominent commercial landmarks.	The blasts rocked prominent commercial landmarks.	111208314	1474788022687	1474788022735	a	65
215807	2340840	The blasts rocked prominent commercial landmarks.	The blasts rocked prominent commercial landmarks.	111208317	1474788022801	1474788022863	n	78
215807	2340840	The blasts rocked prominent commercial landmarks.	The blasts rocked prominent commercial landmarks.	111208348	1474788022868	1474788022962	d	68
215807	2340840	The blasts rocked prominent commercial landmarks.	The blasts rocked prominent commercial landmarks.	111208349	1474788023330	1474788023369	BKSP	8
215807	2340840	The blasts rocked prominent commercial landmarks.	The blasts rocked prominent commercial landmarks.	111208350	1474788023464	1474788023514	BKSP	8
215807	2340840	The blasts rocked prominent commercial landmarks.	The blasts rocked prominent commercial landmarks.	111208351	1474788023609	1474788023674	BKSP	8
215807	2340840	The blasts rocked prominent commercial landmarks.	The blasts rocked prominent commercial landmarks.	111208353	1474788023834	1474788023899	n	78
215807	2340840	The blasts rocked prominent commercial landmarks.	The blasts rocked prominent commercial landmarks.	111208355	1474788023920	1474788023994	d	68
215807	2340840	The blasts rocked prominent commercial landmarks.	The blasts rocked prominent commercial landmarks.	111208357	1474788024065	1474788024126	m	77
215807	2340840	The blasts rocked prominent commercial landmarks.	The blasts rocked prominent commercial landmarks.	111208359	1474788024156	1474788024251	a	65
215807	2340840	The blasts rocked prominent commercial landmarks.	The blasts rocked prominent commercial landmarks.	111208373	1474788024266	1474788024345	r	82
215807	2340840	The blasts rocked prominent commercial landmarks.	The blasts rocked prominent commercial landmarks.	111208375	1474788024340	1474788024396	k	75
215807	2340840	The blasts rocked prominent commercial landmarks.	The blasts rocked prominent commercial landmarks.	111208378	1474788024541	1474788024591	s	83
215807	2340840	The blasts rocked prominent commercial landmarks.	The blasts rocked prominent commercial landmarks.	111208380	1474788024671	1474788024741	.	190
215807	2340847	I can review afterwards and get back to you tonight.	I can review afterwards and get back to you tonight.	111208419	1474788029729	1474788030030	SHIFT	16
215807	2340847	I can review afterwards and get back to you tonight.	I can review afterwards and get back to you tonight.	111208418	1474788029914	1474788030000	I	73
215807	2340847	I can review afterwards and get back to you tonight.	I can review afterwards and get back to you tonight.	111208420	1474788030179	1474788030294	 	32
215807	2340847	I can review afterwards and get back to you tonight.	I can review afterwards and get back to you tonight.	111208422	1474788030299	1474788030415	c	67
215807	2340847	I can review afterwards and get back to you tonight.	I can review afterwards and get back to you tonight.	111208424	1474788030386	1474788030485	a	65
215807	2340847	I can review afterwards and get back to you tonight.	I can review afterwards and get back to you tonight.	111208426	1474788030486	1474788030550	n	78
215807	2340847	I can review afterwards and get back to you tonight.	I can review afterwards and get back to you tonight.	111208448	1474788030601	1474788030716	 	32
215807	2340847	I can review afterwards and get back to you tonight.	I can review afterwards and get back to you tonight.	111208449	1474788030751	1474788030916	r	82
215807	2340847	I can review afterwards and get back to you tonight.	I can review afterwards and get back to you tonight.	111208450	1474788030892	1474788031007	e	69
215807	2340847	I can review afterwards and get back to you tonight.	I can review afterwards and get back to you tonight.	111208451	1474788031132	1474788031182	i	73
215807	2340847	I can review afterwards and get back to you tonight.	I can review afterwards and get back to you tonight.	111208452	1474788031453	1474788031518	BKSP	8
215807	2340847	I can review afterwards and get back to you tonight.	I can review afterwards and get back to you tonight.	111208453	1474788031543	1474788031654	v	86
215807	2340847	I can review afterwards and get back to you tonight.	I can review afterwards and get back to you tonight.	111208454	1474788031674	1474788031744	i	73
215807	2340847	I can review afterwards and get back to you tonight.	I can review afterwards and get back to you tonight.	111208455	1474788031768	1474788031873	e	69
215807	2340847	I can review afterwards and get back to you tonight.	I can review afterwards and get back to you tonight.	111208456	1474788031858	1474788031928	w	87
215807	2340847	I can review afterwards and get back to you tonight.	I can review afterwards and get back to you tonight.	111208458	1474788031948	1474788032051	 	32
215807	2340847	I can review afterwards and get back to you tonight.	I can review afterwards and get back to you tonight.	111208461	1474788032170	1474788032274	a	65
215807	2340847	I can review afterwards and get back to you tonight.	I can review afterwards and get back to you tonight.	111208481	1474788032295	1474788032410	f	70
215807	2340847	I can review afterwards and get back to you tonight.	I can review afterwards and get back to you tonight.	111208482	1474788032536	1474788032601	t	84
215807	2340847	I can review afterwards and get back to you tonight.	I can review afterwards and get back to you tonight.	111208483	1474788032646	1474788032724	e	69
215807	2340847	I can review afterwards and get back to you tonight.	I can review afterwards and get back to you tonight.	111208484	1474788032710	1474788032800	r	82
215807	2340847	I can review afterwards and get back to you tonight.	I can review afterwards and get back to you tonight.	111208486	1474788032991	1474788033076	w	87
215807	2340847	I can review afterwards and get back to you tonight.	I can review afterwards and get back to you tonight.	111208497	1474788033408	1474788033462	e	69
215807	2340847	I can review afterwards and get back to you tonight.	I can review afterwards and get back to you tonight.	111208498	1474788033809	1474788033889	BKSP	8
215807	2340847	I can review afterwards and get back to you tonight.	I can review afterwards and get back to you tonight.	111208499	1474788033898	1474788033989	a	65
215807	2340847	I can review afterwards and get back to you tonight.	I can review afterwards and get back to you tonight.	111208500	1474788033999	1474788034154	r	82
215807	2340847	I can review afterwards and get back to you tonight.	I can review afterwards and get back to you tonight.	111208501	1474788034154	1474788034299	d	68
215807	2340847	I can review afterwards and get back to you tonight.	I can review afterwards and get back to you tonight.	111208502	1474788034330	1474788034414	s	83
215807	2340847	I can review afterwards and get back to you tonight.	I can review afterwards and get back to you tonight.	111208514	1474788034455	1474788034561	 	32
215807	2340847	I can review afterwards and get back to you tonight.	I can review afterwards and get back to you tonight.	111208515	1474788034586	1474788034674	a	65
215807	2340847	I can review afterwards and get back to you tonight.	I can review afterwards and get back to you tonight.	111208516	1474788034706	1474788034780	m	77
215807	2340847	I can review afterwards and get back to you tonight.	I can review afterwards and get back to you tonight.	111208517	1474788034783	1474788034840	d	68
215807	2340847	I can review afterwards and get back to you tonight.	I can review afterwards and get back to you tonight.	111208518	1474788034866	1474788034971	 	32
215807	2340847	I can review afterwards and get back to you tonight.	I can review afterwards and get back to you tonight.	111208533	1474788035052	1474788035151	g	71
215807	2340847	I can review afterwards and get back to you tonight.	I can review afterwards and get back to you tonight.	111208535	1474788035325	1474788035392	BKSP	8
215807	2340847	I can review afterwards and get back to you tonight.	I can review afterwards and get back to you tonight.	111208536	1474788035483	1474788035533	BKSP	8
215807	2340847	I can review afterwards and get back to you tonight.	I can review afterwards and get back to you tonight.	111208537	1474788035628	1474788035677	BKSP	8
215807	2340847	I can review afterwards and get back to you tonight.	I can review afterwards and get back to you tonight.	111208538	1474788035773	1474788035833	BKSP	8
215807	2340847	I can review afterwards and get back to you tonight.	I can review afterwards and get back to you tonight.	111208539	1474788035989	1474788036068	n	78
215807	2340847	I can review afterwards and get back to you tonight.	I can review afterwards and get back to you tonight.	111208540	1474788036088	1474788036153	d	68
215807	2340847	I can review afterwards and get back to you tonight.	I can review afterwards and get back to you tonight.	111208541	1474788036178	1474788036295	 	32
215807	2340847	I can review afterwards and get back to you tonight.	I can review afterwards and get back to you tonight.	111208542	1474788036350	1474788036424	g	71
215807	2340847	I can review afterwards and get back to you tonight.	I can review afterwards and get back to you tonight.	111208543	1474788036505	1474788036569	e	69
215807	2340847	I can review afterwards and get back to you tonight.	I can review afterwards and get back to you tonight.	111208544	1474788036590	1474788036670	t	84
215807	2340847	I can review afterwards and get back to you tonight.	I can review afterwards and get back to you tonight.	111208545	1474788036695	1474788036785	 	32
215807	2340847	I can review afterwards and get back to you tonight.	I can review afterwards and get back to you tonight.	111208546	1474788036880	1474788036950	b	66
215807	2340847	I can review afterwards and get back to you tonight.	I can review afterwards and get back to you tonight.	111208547	1474788037001	1474788037067	a	65
215807	2340847	I can review afterwards and get back to you tonight.	I can review afterwards and get back to you tonight.	111208548	1474788037137	1474788037207	c	67
215807	2340847	I can review afterwards and get back to you tonight.	I can review afterwards and get back to you tonight.	111208549	1474788037262	1474788037327	k	75
215807	2340847	I can review afterwards and get back to you tonight.	I can review afterwards and get back to you tonight.	111208550	1474788037328	1474788037417	 	32
215807	2340847	I can review afterwards and get back to you tonight.	I can review afterwards and get back to you tonight.	111208551	1474788037453	1474788037537	t	84
215807	2340847	I can review afterwards and get back to you tonight.	I can review afterwards and get back to you tonight.	111208552	1474788037698	1474788037757	o	79
215807	2340847	I can review afterwards and get back to you tonight.	I can review afterwards and get back to you tonight.	111208565	1474788037813	1474788037888	 	32
215807	2340847	I can review afterwards and get back to you tonight.	I can review afterwards and get back to you tonight.	111208567	1474788038109	1474788038187	y	85
215807	2340847	I can review afterwards and get back to you tonight.	I can review afterwards and get back to you tonight.	111208570	1474788038233	1474788038300	o	79
215807	2340847	I can review afterwards and get back to you tonight.	I can review afterwards and get back to you tonight.	111208573	1474788038460	1474788038510	BKSP	8
215807	2340847	I can review afterwards and get back to you tonight.	I can review afterwards and get back to you tonight.	111208575	1474788038605	1474788038654	BKSP	8
215807	2340847	I can review afterwards and get back to you tonight.	I can review afterwards and get back to you tonight.	111208576	1474788038746	1474788038800	BKSP	8
215807	2340847	I can review afterwards and get back to you tonight.	I can review afterwards and get back to you tonight.	111208577	1474788038841	1474788038921	y	89
215807	2340847	I can review afterwards and get back to you tonight.	I can review afterwards and get back to you tonight.	111208578	1474788038976	1474788039041	o	79
215807	2340847	I can review afterwards and get back to you tonight.	I can review afterwards and get back to you tonight.	111208579	1474788039046	1474788039116	u	85
215807	2340847	I can review afterwards and get back to you tonight.	I can review afterwards and get back to you tonight.	111208580	1474788039137	1474788039216	 	32
215807	2340847	I can review afterwards and get back to you tonight.	I can review afterwards and get back to you tonight.	111208581	1474788039416	1474788039441	t	84
215807	2340847	I can review afterwards and get back to you tonight.	I can review afterwards and get back to you tonight.	111208583	1474788039521	1474788039646	o	79
215807	2340847	I can review afterwards and get back to you tonight.	I can review afterwards and get back to you tonight.	111208592	1474788039636	1474788039723	n	78
215807	2340847	I can review afterwards and get back to you tonight.	I can review afterwards and get back to you tonight.	111208594	1474788039778	1474788039827	i	73
215807	2340847	I can review afterwards and get back to you tonight.	I can review afterwards and get back to you tonight.	111208596	1474788039877	1474788039942	h	71
215807	2340847	I can review afterwards and get back to you tonight.	I can review afterwards and get back to you tonight.	111208598	1474788040089	1474788040188	t	84
215807	2340847	I can review afterwards and get back to you tonight.	I can review afterwards and get back to you tonight.	111208600	1474788040274	1474788040354	.	190
215807	2340851	The book will also present details of the economic conditions.	The book will also present details of the economic conditions.	111208664	1474788042564	1474788042734	SHIFT	16
215807	2340851	The book will also present details of the economic conditions.	The book will also present details of the economic conditions.	111208666	1474788042695	1474788042784	T	84
215807	2340851	The book will also present details of the economic conditions.	The book will also present details of the economic conditions.	111208668	1474788042910	1474788042995	h	72
215807	2340851	The book will also present details of the economic conditions.	The book will also present details of the economic conditions.	111208670	1474788043061	1474788043116	e	69
215807	2340851	The book will also present details of the economic conditions.	The book will also present details of the economic conditions.	111208672	1474788043151	1474788043210	 	32
215807	2340851	The book will also present details of the economic conditions.	The book will also present details of the economic conditions.	111208674	1474788043271	1474788043331	b	66
215807	2340851	The book will also present details of the economic conditions.	The book will also present details of the economic conditions.	111208686	1474788043391	1474788043442	o	79
215807	2340851	The book will also present details of the economic conditions.	The book will also present details of the economic conditions.	111208688	1474788043526	1474788043587	o	79
215807	2340851	The book will also present details of the economic conditions.	The book will also present details of the economic conditions.	111208690	1474788043622	1474788043697	k	75
215807	2340851	The book will also present details of the economic conditions.	The book will also present details of the economic conditions.	111208692	1474788043728	1474788043827	 	32
215807	2340851	The book will also present details of the economic conditions.	The book will also present details of the economic conditions.	111208694	1474788043847	1474788043912	w	87
215807	2340851	The book will also present details of the economic conditions.	The book will also present details of the economic conditions.	111208701	1474788043947	1474788044023	i	73
215807	2340851	The book will also present details of the economic conditions.	The book will also present details of the economic conditions.	111208702	1474788044139	1474788044193	l	76
215807	2340851	The book will also present details of the economic conditions.	The book will also present details of the economic conditions.	111208703	1474788044284	1474788044339	l	76
215807	2340851	The book will also present details of the economic conditions.	The book will also present details of the economic conditions.	111208704	1474788044394	1474788044488	 	32
215807	2340851	The book will also present details of the economic conditions.	The book will also present details of the economic conditions.	111208705	1474788044539	1474788044644	a	65
215807	2340851	The book will also present details of the economic conditions.	The book will also present details of the economic conditions.	111208711	1474788044679	1474788044729	l	76
215807	2340851	The book will also present details of the economic conditions.	The book will also present details of the economic conditions.	111208712	1474788044773	1474788044849	s	83
215807	2340851	The book will also present details of the economic conditions.	The book will also present details of the economic conditions.	111208714	1474788044940	1474788044985	o	79
215807	2340851	The book will also present details of the economic conditions.	The book will also present details of the economic conditions.	111208716	1474788045021	1474788045115	 	32
215807	2340851	The book will also present details of the economic conditions.	The book will also present details of the economic conditions.	111208717	1474788045206	1474788045270	p	80
215807	2340851	The book will also present details of the economic conditions.	The book will also present details of the economic conditions.	111208727	1474788045284	1474788045402	r	82
215807	2340851	The book will also present details of the economic conditions.	The book will also present details of the economic conditions.	111208729	1474788045403	1474788045471	e	69
215807	2340851	The book will also present details of the economic conditions.	The book will also present details of the economic conditions.	111208730	1474788045567	1474788045672	s	83
215807	2340851	The book will also present details of the economic conditions.	The book will also present details of the economic conditions.	111208731	1474788045682	1474788045751	e	69
215807	2340851	The book will also present details of the economic conditions.	The book will also present details of the economic conditions.	111208732	1474788045853	1474788045913	n	78
215807	2340851	The book will also present details of the economic conditions.	The book will also present details of the economic conditions.	111208741	1474788045932	1474788046008	t	84
215807	2340851	The book will also present details of the economic conditions.	The book will also present details of the economic conditions.	111208743	1474788046063	1474788046132	 	32
215807	2340851	The book will also present details of the economic conditions.	The book will also present details of the economic conditions.	111208745	1474788046488	1474788046553	d	68
215807	2340851	The book will also present details of the economic conditions.	The book will also present details of the economic conditions.	111208747	1474788046685	1474788046719	e	69
215807	2340851	The book will also present details of the economic conditions.	The book will also present details of the economic conditions.	111208749	1474788046799	1474788046905	t	84
215807	2340851	The book will also present details of the economic conditions.	The book will also present details of the economic conditions.	111208750	1474788047019	1474788047115	a	65
215807	2340851	The book will also present details of the economic conditions.	The book will also present details of the economic conditions.	111208752	1474788047146	1474788047216	i	73
215807	2340851	The book will also present details of the economic conditions.	The book will also present details of the economic conditions.	111208754	1474788047361	1474788047415	l	76
215807	2340851	The book will also present details of the economic conditions.	The book will also present details of the economic conditions.	111208756	1474788047456	1474788047506	s	83
215807	2340851	The book will also present details of the economic conditions.	The book will also present details of the economic conditions.	111208758	1474788047542	1474788047652	 	32
215807	2340851	The book will also present details of the economic conditions.	The book will also present details of the economic conditions.	111208760	1474788047727	1474788047756	o	79
215807	2340851	The book will also present details of the economic conditions.	The book will also present details of the economic conditions.	111208762	1474788047807	1474788047887	f	70
215807	2340851	The book will also present details of the economic conditions.	The book will also present details of the economic conditions.	111208765	1474788047942	1474788048028	 	32
215807	2340851	The book will also present details of the economic conditions.	The book will also present details of the economic conditions.	111208768	1474788048118	1474788048202	t	84
215807	2340851	The book will also present details of the economic conditions.	The book will also present details of the economic conditions.	111208781	1474788048192	1474788048258	h	72
215807	2340851	The book will also present details of the economic conditions.	The book will also present details of the economic conditions.	111208783	1474788048359	1474788048408	e	69
215807	2340851	The book will also present details of the economic conditions.	The book will also present details of the economic conditions.	111208785	1474788048444	1474788048533	 	32
215807	2340851	The book will also present details of the economic conditions.	The book will also present details of the economic conditions.	111208787	1474788048669	1474788048693	r	82
215807	2340851	The book will also present details of the economic conditions.	The book will also present details of the economic conditions.	111208789	1474788048770	1474788048810	e	69
215807	2340851	The book will also present details of the economic conditions.	The book will also present details of the economic conditions.	111208791	1474788049059	1474788049114	BKSP	8
215807	2340851	The book will also present details of the economic conditions.	The book will also present details of the economic conditions.	111208792	1474788049201	1474788049255	BKSP	8
215807	2340851	The book will also present details of the economic conditions.	The book will also present details of the economic conditions.	111208793	1474788049255	1474788049326	e	69
215807	2340851	The book will also present details of the economic conditions.	The book will also present details of the economic conditions.	111208800	1474788049430	1474788049491	c	67
215807	2340851	The book will also present details of the economic conditions.	The book will also present details of the economic conditions.	111208802	1474788049546	1474788049650	o	79
215807	2340851	The book will also present details of the economic conditions.	The book will also present details of the economic conditions.	111208804	1474788049717	1474788049801	n	78
215807	2340851	The book will also present details of the economic conditions.	The book will also present details of the economic conditions.	111208805	1474788049891	1474788049987	o	79
215807	2340851	The book will also present details of the economic conditions.	The book will also present details of the economic conditions.	111208806	1474788050273	1474788050362	m	77
215807	2340851	The book will also present details of the economic conditions.	The book will also present details of the economic conditions.	111208823	1474788050404	1474788050469	a	65
215807	2340851	The book will also present details of the economic conditions.	The book will also present details of the economic conditions.	111208824	1474788050758	1474788050819	BKSP	8
215807	2340851	The book will also present details of the economic conditions.	The book will also present details of the economic conditions.	111208825	1474788050960	1474788051015	i	73
215807	2340851	The book will also present details of the economic conditions.	The book will also present details of the economic conditions.	111208826	1474788051040	1474788051135	c	67
215807	2340851	The book will also present details of the economic conditions.	The book will also present details of the economic conditions.	111208827	1474788051481	1474788051531	BKSP	8
215807	2340851	The book will also present details of the economic conditions.	The book will also present details of the economic conditions.	111208828	1474788051831	1474788051937	c	67
215807	2340851	The book will also present details of the economic conditions.	The book will also present details of the economic conditions.	111208829	1474788052006	1474788052092	 	32
215807	2340851	The book will also present details of the economic conditions.	The book will also present details of the economic conditions.	111208836	1474788052147	1474788052267	c	67
215807	2340851	The book will also present details of the economic conditions.	The book will also present details of the economic conditions.	111208837	1474788052253	1474788052352	o	79
215807	2340851	The book will also present details of the economic conditions.	The book will also present details of the economic conditions.	111208838	1474788052358	1474788052428	n	78
215807	2340851	The book will also present details of the economic conditions.	The book will also present details of the economic conditions.	111208839	1474788052477	1474788052563	d	68
215807	2340851	The book will also present details of the economic conditions.	The book will also present details of the economic conditions.	111208840	1474788052598	1474788052678	i	73
215807	2340851	The book will also present details of the economic conditions.	The book will also present details of the economic conditions.	111208851	1474788052763	1474788052863	t	84
215807	2340851	The book will also present details of the economic conditions.	The book will also present details of the economic conditions.	111208852	1474788052879	1474788053029	i	73
215807	2340851	The book will also present details of the economic conditions.	The book will also present details of the economic conditions.	111208853	1474788053024	1474788053105	o	79
215807	2340851	The book will also present details of the economic conditions.	The book will also present details of the economic conditions.	111208854	1474788053180	1474788053274	n	78
215807	2340851	The book will also present details of the economic conditions.	The book will also present details of the economic conditions.	111208855	1474788053385	1474788053430	s	83
215807	2340851	The book will also present details of the economic conditions.	The book will also present details of the economic conditions.	111208878	1474788053491	1474788053584	.	190
215807	2340855	I hope that you find these communications informative.	I hope that you find these communication informative.	111208920	1474788055656	1474788055856	SHIFT	16
215807	2340855	I hope that you find these communications informative.	I hope that you find these communication informative.	111208919	1474788055776	1474788055841	I	73
215807	2340855	I hope that you find these communications informative.	I hope that you find these communication informative.	111208921	1474788055922	1474788056016	 	32
215807	2340855	I hope that you find these communications informative.	I hope that you find these communication informative.	111208922	1474788056082	1474788056181	h	72
215807	2340855	I hope that you find these communications informative.	I hope that you find these communication informative.	111208923	1474788056212	1474788056332	o	79
215807	2340855	I hope that you find these communications informative.	I hope that you find these communication informative.	111208929	1474788056318	1474788056377	p	80
215807	2340855	I hope that you find these communications informative.	I hope that you find these communication informative.	111208930	1474788056362	1474788056422	e	69
215807	2340855	I hope that you find these communications informative.	I hope that you find these communication informative.	111208931	1474788056448	1474788056537	 	32
215807	2340855	I hope that you find these communications informative.	I hope that you find these communication informative.	111208932	1474788056577	1474788056628	t	84
215807	2340855	I hope that you find these communications informative.	I hope that you find these communication informative.	111208933	1474788056748	1474788056798	h	72
215807	2340855	I hope that you find these communications informative.	I hope that you find these communication informative.	111208934	1474788056819	1474788056909	a	65
215807	2340855	I hope that you find these communications informative.	I hope that you find these communication informative.	111208943	1474788056934	1474788057008	t	84
215807	2340855	I hope that you find these communications informative.	I hope that you find these communication informative.	111208946	1474788057034	1474788057109	 	32
215807	2340855	I hope that you find these communications informative.	I hope that you find these communication informative.	111208949	1474788057150	1474788057224	y	89
215807	2340855	I hope that you find these communications informative.	I hope that you find these communication informative.	111208953	1474788057264	1474788057339	o	79
215807	2340855	I hope that you find these communications informative.	I hope that you find these communication informative.	111208956	1474788057344	1474788057409	u	85
215807	2340855	I hope that you find these communications informative.	I hope that you find these communication informative.	111208961	1474788057454	1474788057536	 	32
215807	2340855	I hope that you find these communications informative.	I hope that you find these communication informative.	111208962	1474788057705	1474788057765	f	70
215807	2340855	I hope that you find these communications informative.	I hope that you find these communication informative.	111208963	1474788057775	1474788057906	i	73
215807	2340855	I hope that you find these communications informative.	I hope that you find these communication informative.	111208964	1474788057887	1474788057971	n	78
215807	2340855	I hope that you find these communications informative.	I hope that you find these communication informative.	111208965	1474788057981	1474788058037	d	68
215807	2340855	I hope that you find these communications informative.	I hope that you find these communication informative.	111208971	1474788058077	1474788058196	 	32
215807	2340855	I hope that you find these communications informative.	I hope that you find these communication informative.	111208972	1474788058222	1474788058337	t	84
215807	2340855	I hope that you find these communications informative.	I hope that you find these communication informative.	111208973	1474788058433	1474788058483	h	72
215807	2340855	I hope that you find these communications informative.	I hope that you find these communication informative.	111208974	1474788058573	1474788058652	e	69
215807	2340855	I hope that you find these communications informative.	I hope that you find these communication informative.	111208975	1474788058698	1474788058788	s	83
215807	2340855	I hope that you find these communications informative.	I hope that you find these communication informative.	111208997	1474788058819	1474788058868	 	69
215807	2340855	I hope that you find these communications informative.	I hope that you find these communication informative.	111208999	1474788059514	1474788059620	c	67
215807	2340855	I hope that you find these communications informative.	I hope that you find these communication informative.	111209001	1474788059635	1474788059700	o	79
215807	2340855	I hope that you find these communications informative.	I hope that you find these communication informative.	111209006	1474788059685	1474788059755	m	77
215807	2340855	I hope that you find these communications informative.	I hope that you find these communication informative.	111209009	1474788059821	1474788059905	m	77
215807	2340855	I hope that you find these communications informative.	I hope that you find these communication informative.	111209015	1474788059996	1474788060102	i	73
215807	2340855	I hope that you find these communications informative.	I hope that you find these communication informative.	111209012	1474788060047	1474788060081	u	85
215807	2340855	I hope that you find these communications informative.	I hope that you find these communication informative.	111209018	1474788060117	1474788060196	n	78
215807	2340855	I hope that you find these communications informative.	I hope that you find these communication informative.	111209020	1474788060492	1474788060532	BKSP	8
215807	2340855	I hope that you find these communications informative.	I hope that you find these communication informative.	111209021	1474788060618	1474788060662	BKSP	8
215807	2340855	I hope that you find these communications informative.	I hope that you find these communication informative.	111209022	1474788060741	1474788060796	BKSP	8
215807	2340855	I hope that you find these communications informative.	I hope that you find these communication informative.	111209024	1474788060817	1474788060888	BKSP	8
215807	2340855	I hope that you find these communications informative.	I hope that you find these communication informative.	111209026	1474788061018	1474788061043	i	73
215807	2340855	I hope that you find these communications informative.	I hope that you find these communication informative.	111209050	1474788061451	1474788061549	BKSP	8
215807	2340855	I hope that you find these communications informative.	I hope that you find these communication informative.	111209051	1474788061920	1474788062045	,	188
215807	2340855	I hope that you find these communications informative.	I hope that you find these communication informative.	111209053	1474788062362	1474788062422	BKSP	8
215807	2340855	I hope that you find these communications informative.	I hope that you find these communication informative.	111209055	1474788062564	1474788062648	m	77
215807	2340855	I hope that you find these communications informative.	I hope that you find these communication informative.	111209057	1474788062763	1474788062872	i	73
215807	2340855	I hope that you find these communications informative.	I hope that you find these communication informative.	111209059	1474788062887	1474788062978	n	78
215807	2340855	I hope that you find these communications informative.	I hope that you find these communication informative.	111209061	1474788063425	1474788063469	BKSP	8
215807	2340855	I hope that you find these communications informative.	I hope that you find these communication informative.	111209062	1474788063540	1474788063599	BKSP	8
215807	2340855	I hope that you find these communications informative.	I hope that you find these communication informative.	111209063	1474788063754	1474788063831	u	85
215807	2340855	I hope that you find these communications informative.	I hope that you find these communication informative.	111209064	1474788063950	1474788064041	n	78
215807	2340855	I hope that you find these communications informative.	I hope that you find these communication informative.	111209065	1474788064106	1474788064161	i	73
215807	2340855	I hope that you find these communications informative.	I hope that you find these communication informative.	111209067	1474788064242	1474788064366	c	67
215807	2340855	I hope that you find these communications informative.	I hope that you find these communication informative.	111209068	1474788064356	1474788064456	a	65
215807	2340855	I hope that you find these communications informative.	I hope that you find these communication informative.	111209070	1474788064542	1474788064627	t	84
215807	2340855	I hope that you find these communications informative.	I hope that you find these communication informative.	111209089	1474788064652	1474788064746	i	73
215807	2340855	I hope that you find these communications informative.	I hope that you find these communication informative.	111209090	1474788064741	1474788064792	o	79
215807	2340855	I hope that you find these communications informative.	I hope that you find these communication informative.	111209091	1474788064833	1474788064902	n	78
215807	2340855	I hope that you find these communications informative.	I hope that you find these communication informative.	111209092	1474788065179	1474788065278	 	32
215807	2340855	I hope that you find these communications informative.	I hope that you find these communication informative.	111209093	1474788065379	1474788065494	i	73
215807	2340855	I hope that you find these communications informative.	I hope that you find these communication informative.	111209104	1474788065499	1474788065569	n	78
215807	2340855	I hope that you find these communications informative.	I hope that you find these communication informative.	111209106	1474788065790	1474788065890	f	70
215807	2340855	I hope that you find these communications informative.	I hope that you find these communication informative.	111209108	1474788065991	1474788066045	o	79
215807	2340855	I hope that you find these communications informative.	I hope that you find these communication informative.	111209110	1474788066109	1474788066196	r	82
215807	2340855	I hope that you find these communications informative.	I hope that you find these communication informative.	111209112	1474788066245	1474788066306	m	77
215807	2340855	I hope that you find these communications informative.	I hope that you find these communication informative.	111209115	1474788066352	1474788066421	a	65
215807	2340855	I hope that you find these communications informative.	I hope that you find these communication informative.	111209117	1474788066451	1474788066541	t	84
215807	2340855	I hope that you find these communications informative.	I hope that you find these communication informative.	111209119	1474788066621	1474788066697	i	73
215807	2340855	I hope that you find these communications informative.	I hope that you find these communication informative.	111209121	1474788066742	1474788066802	v	86
215807	2340855	I hope that you find these communications informative.	I hope that you find these communication informative.	111209123	1474788066873	1474788066927	e	69
215807	2340855	I hope that you find these communications informative.	I hope that you find these communication informative.	111209127	1474788066997	1474788067068	.	190
215807	2340859	See, we Americans had gotten sort of distracted.	See, we Americans had gotten sort of distracted.	111209167	1474788069589	1474788069594	SHIFT	16
215807	2340859	See, we Americans had gotten sort of distracted.	See, we Americans had gotten sort of distracted.	111209168	1474788069610	1474788069865	SHIFT	16
215807	2340859	See, we Americans had gotten sort of distracted.	See, we Americans had gotten sort of distracted.	111209169	1474788069755	1474788069865	S	83
215807	2340859	See, we Americans had gotten sort of distracted.	See, we Americans had gotten sort of distracted.	111209170	1474788070165	1474788070240	e	69
215807	2340859	See, we Americans had gotten sort of distracted.	See, we Americans had gotten sort of distracted.	111209171	1474788070330	1474788070401	e	69
215807	2340859	See, we Americans had gotten sort of distracted.	See, we Americans had gotten sort of distracted.	111209172	1474788070537	1474788070616	,	188
215807	2340859	See, we Americans had gotten sort of distracted.	See, we Americans had gotten sort of distracted.	111209173	1474788070696	1474788070811	 	32
215807	2340859	See, we Americans had gotten sort of distracted.	See, we Americans had gotten sort of distracted.	111209179	1474788070918	1474788071012	w	87
215807	2340859	See, we Americans had gotten sort of distracted.	See, we Americans had gotten sort of distracted.	111209182	1474788070997	1474788071102	e	69
215807	2340859	See, we Americans had gotten sort of distracted.	See, we Americans had gotten sort of distracted.	111209184	1474788071113	1474788071202	 	32
215807	2340859	See, we Americans had gotten sort of distracted.	See, we Americans had gotten sort of distracted.	111209186	1474788071238	1474788071318	a	65
215807	2340859	See, we Americans had gotten sort of distracted.	See, we Americans had gotten sort of distracted.	111209188	1474788071654	1474788071724	BKSP	8
215807	2340859	See, we Americans had gotten sort of distracted.	See, we Americans had gotten sort of distracted.	111209191	1474788071779	1474788071964	SHIFT	16
215807	2340859	See, we Americans had gotten sort of distracted.	See, we Americans had gotten sort of distracted.	111209198	1474788071843	1474788071975	A	65
215807	2340859	See, we Americans had gotten sort of distracted.	See, we Americans had gotten sort of distracted.	111209199	1474788072085	1474788072216	e	69
215807	2340859	See, we Americans had gotten sort of distracted.	See, we Americans had gotten sort of distracted.	111209200	1474788072191	1474788072280	r	82
215807	2340859	See, we Americans had gotten sort of distracted.	See, we Americans had gotten sort of distracted.	111209202	1474788072481	1474788072542	BKSP	8
215807	2340859	See, we Americans had gotten sort of distracted.	See, we Americans had gotten sort of distracted.	111209204	1474788072621	1474788072687	BKSP	8
215807	2340859	See, we Americans had gotten sort of distracted.	See, we Americans had gotten sort of distracted.	111209206	1474788072826	1474788072911	m	77
215807	2340859	See, we Americans had gotten sort of distracted.	See, we Americans had gotten sort of distracted.	111209208	1474788072926	1474788073017	e	69
215807	2340859	See, we Americans had gotten sort of distracted.	See, we Americans had gotten sort of distracted.	111209210	1474788073018	1474788073087	r	82
215807	2340859	See, we Americans had gotten sort of distracted.	See, we Americans had gotten sort of distracted.	111209212	1474788073123	1474788073187	i	73
215807	2340859	See, we Americans had gotten sort of distracted.	See, we Americans had gotten sort of distracted.	111209213	1474788073236	1474788073363	c	67
215807	2340859	See, we Americans had gotten sort of distracted.	See, we Americans had gotten sort of distracted.	111209214	1474788073332	1474788073453	a	65
215807	2340859	See, we Americans had gotten sort of distracted.	See, we Americans had gotten sort of distracted.	111209215	1474788073464	1474788073543	n	78
215807	2340859	See, we Americans had gotten sort of distracted.	See, we Americans had gotten sort of distracted.	111209216	1474788073553	1474788073618	s	83
215807	2340859	See, we Americans had gotten sort of distracted.	See, we Americans had gotten sort of distracted.	111209233	1474788073674	1474788073794	 	32
215807	2340859	See, we Americans had gotten sort of distracted.	See, we Americans had gotten sort of distracted.	111209234	1474788073925	1474788074004	h	72
215807	2340859	See, we Americans had gotten sort of distracted.	See, we Americans had gotten sort of distracted.	111209235	1474788074070	1474788074154	a	65
215807	2340859	See, we Americans had gotten sort of distracted.	See, we Americans had gotten sort of distracted.	111209236	1474788074189	1474788074265	d	68
215807	2340859	See, we Americans had gotten sort of distracted.	See, we Americans had gotten sort of distracted.	111209237	1474788074305	1474788074395	 	32
215807	2340859	See, we Americans had gotten sort of distracted.	See, we Americans had gotten sort of distracted.	111209243	1474788074546	1474788074645	g	71
215807	2340859	See, we Americans had gotten sort of distracted.	See, we Americans had gotten sort of distracted.	111209244	1474788074646	1474788074705	o	79
215807	2340859	See, we Americans had gotten sort of distracted.	See, we Americans had gotten sort of distracted.	111209245	1474788074766	1474788074846	t	84
215807	2340859	See, we Americans had gotten sort of distracted.	See, we Americans had gotten sort of distracted.	111209246	1474788074926	1474788074983	t	84
215807	2340859	See, we Americans had gotten sort of distracted.	See, we Americans had gotten sort of distracted.	111209248	1474788075007	1474788075082	e	69
215807	2340859	See, we Americans had gotten sort of distracted.	See, we Americans had gotten sort of distracted.	111209259	1474788075143	1474788075222	n	78
215807	2340859	See, we Americans had gotten sort of distracted.	See, we Americans had gotten sort of distracted.	111209261	1474788075248	1474788075343	 	32
215807	2340859	See, we Americans had gotten sort of distracted.	See, we Americans had gotten sort of distracted.	111209263	1474788075504	1474788075578	s	83
215807	2340859	See, we Americans had gotten sort of distracted.	See, we Americans had gotten sort of distracted.	111209265	1474788075598	1474788075669	o	79
215807	2340859	See, we Americans had gotten sort of distracted.	See, we Americans had gotten sort of distracted.	111209267	1474788075809	1474788075914	r	82
215807	2340859	See, we Americans had gotten sort of distracted.	See, we Americans had gotten sort of distracted.	111209276	1474788075925	1474788076014	t	84
215807	2340859	See, we Americans had gotten sort of distracted.	See, we Americans had gotten sort of distracted.	111209278	1474788076190	1474788076321	 	32
215807	2340859	See, we Americans had gotten sort of distracted.	See, we Americans had gotten sort of distracted.	111209280	1474788076455	1474788076505	o	79
215807	2340859	See, we Americans had gotten sort of distracted.	See, we Americans had gotten sort of distracted.	111209281	1474788076586	1474788076655	f	70
215807	2340859	See, we Americans had gotten sort of distracted.	See, we Americans had gotten sort of distracted.	111209283	1474788076686	1474788076796	 	32
215807	2340859	See, we Americans had gotten sort of distracted.	See, we Americans had gotten sort of distracted.	111209299	1474788076916	1474788077016	d	68
215807	2340859	See, we Americans had gotten sort of distracted.	See, we Americans had gotten sort of distracted.	111209301	1474788077123	1474788077197	i	73
215807	2340859	See, we Americans had gotten sort of distracted.	See, we Americans had gotten sort of distracted.	111209303	1474788077233	1474788077307	s	83
215807	2340859	See, we Americans had gotten sort of distracted.	See, we Americans had gotten sort of distracted.	111209304	1474788077448	1474788077568	t	84
215807	2340859	See, we Americans had gotten sort of distracted.	See, we Americans had gotten sort of distracted.	111209305	1474788077648	1474788077784	r	82
215807	2340859	See, we Americans had gotten sort of distracted.	See, we Americans had gotten sort of distracted.	111209311	1474788077799	1474788077883	a	65
215807	2340859	See, we Americans had gotten sort of distracted.	See, we Americans had gotten sort of distracted.	111209312	1474788077943	1474788078031	c	67
215807	2340859	See, we Americans had gotten sort of distracted.	See, we Americans had gotten sort of distracted.	111209313	1474788078194	1474788078299	t	84
215807	2340859	See, we Americans had gotten sort of distracted.	See, we Americans had gotten sort of distracted.	111209314	1474788078345	1474788078395	e	69
215807	2340859	See, we Americans had gotten sort of distracted.	See, we Americans had gotten sort of distracted.	111209315	1474788078490	1474788078560	d	68
215807	2340859	See, we Americans had gotten sort of distracted.	See, we Americans had gotten sort of distracted.	111209320	1474788078615	1474788078710	.	190
215807	2340865	I will be there.	I will be there.	111209352	1474788080771	1474788081738	SHIFT	16
215807	2340865	I will be there.	I will be there.	111209349	1474788080982	1474788081091	 	32
215807	2340865	I will be there.	I will be there.	111209350	1474788081388	1474788081486	BKSP	8
215807	2340865	I will be there.	I will be there.	111209351	1474788081598	1474788081703	I	73
215807	2340865	I will be there.	I will be there.	111209354	1474788081878	1474788081984	 	32
215807	2340865	I will be there.	I will be there.	111209355	1474788081979	1474788082044	w	87
215807	2340865	I will be there.	I will be there.	111209357	1474788082069	1474788082139	i	73
215807	2340865	I will be there.	I will be there.	111209361	1474788082264	1474788082325	l	76
215807	2340865	I will be there.	I will be there.	111209363	1474788082400	1474788082464	l	76
215807	2340865	I will be there.	I will be there.	111209365	1474788082494	1474788082570	 	32
215807	2340865	I will be there.	I will be there.	111209367	1474788082625	1474788082701	b	66
215807	2340865	I will be there.	I will be there.	111209369	1474788082781	1474788082826	e	69
215807	2340865	I will be there.	I will be there.	111209382	1474788082855	1474788082924	 	32
215807	2340865	I will be there.	I will be there.	111209384	1474788083137	1474788083221	t	84
215807	2340865	I will be there.	I will be there.	111209386	1474788083322	1474788083372	h	72
215807	2340865	I will be there.	I will be there.	111209388	1474788083447	1474788083533	e	69
215807	2340865	I will be there.	I will be there.	111209390	1474788083533	1474788083607	r	82
215807	2340865	I will be there.	I will be there.	111209393	1474788083617	1474788083688	e	69
215807	2340865	I will be there.	I will be there.	111209394	1474788083738	1474788083823	.	190
215807	2340866	I think that will help.	I think that will help.	111209410	1474788085723	1474788085948	SHIFT	16
215807	2340866	I think that will help.	I think that will help.	111209409	1474788085868	1474788085943	I	73
215807	2340866	I think that will help.	I think that will help.	111209411	1474788086063	1474788086163	 	32
215807	2340866	I think that will help.	I think that will help.	111209412	1474788086330	1474788086434	t	84
215807	2340866	I think that will help.	I think that will help.	111209413	1474788086429	1474788086509	h	72
215807	2340866	I think that will help.	I think that will help.	111209414	1474788086530	1474788086599	i	73
215807	2340866	I think that will help.	I think that will help.	111209425	1474788086664	1474788086745	n	78
215807	2340866	I think that will help.	I think that will help.	111209427	1474788086795	1474788086869	k	75
215807	2340866	I think that will help.	I think that will help.	111209428	1474788086890	1474788086971	 	32
215807	2340866	I think that will help.	I think that will help.	111209432	1474788087236	1474788087331	y	84
215807	2340866	I think that will help.	I think that will help.	111209434	1474788087426	1474788087496	h	72
215807	2340866	I think that will help.	I think that will help.	111209436	1474788087563	1474788087602	a	65
215807	2340866	I think that will help.	I think that will help.	111209438	1474788087843	1474788087902	BKSP	8
215807	2340866	I think that will help.	I think that will help.	111209439	1474788087979	1474788088053	BKSP	8
215807	2340866	I think that will help.	I think that will help.	111209440	1474788088133	1474788088183	h	8
215807	2340866	I think that will help.	I think that will help.	111209441	1474788088258	1474788088368	a	65
215807	2340866	I think that will help.	I think that will help.	111209442	1474788088378	1474788088479	t	84
215807	2340866	I think that will help.	I think that will help.	111209443	1474788088505	1474788088599	 	32
215807	2340866	I think that will help.	I think that will help.	111209444	1474788088851	1474788088900	w	87
215807	2340866	I think that will help.	I think that will help.	111209445	1474788088926	1474788088995	i	73
215807	2340866	I think that will help.	I think that will help.	111209446	1474788089106	1474788089160	l	76
215807	2340866	I think that will help.	I think that will help.	111209447	1474788089231	1474788089296	l	76
215807	2340866	I think that will help.	I think that will help.	111209453	1474788089322	1474788089416	 	32
215807	2340866	I think that will help.	I think that will help.	111209454	1474788089407	1474788089476	h	72
215807	2340866	I think that will help.	I think that will help.	111209455	1474788089546	1474788089601	e	69
215807	2340866	I think that will help.	I think that will help.	111209456	1474788089571	1474788089687	l	76
215807	2340866	I think that will help.	I think that will help.	111209463	1474788089661	1474788089732	p	80
215807	2340866	I think that will help.	I think that will help.	111209464	1474788089882	1474788089948	.	190
215807	2340869	Jim please confirm to Vince you are happy.	Jim please confirm to Vince you are happy.	111209547	1474788091617	1474788091853	SHIFT	16
215807	2340869	Jim please confirm to Vince you are happy.	Jim please confirm to Vince you are happy.	111209550	1474788091893	1474788092042	j	74
215807	2340869	Jim please confirm to Vince you are happy.	Jim please confirm to Vince you are happy.	111209555	1474788092419	1474788092502	BKSP	8
215807	2340869	Jim please confirm to Vince you are happy.	Jim please confirm to Vince you are happy.	111209562	1474788092459	1474788092809	SHIFT	16
215807	2340869	Jim please confirm to Vince you are happy.	Jim please confirm to Vince you are happy.	111209559	1474788092644	1474788092729	J	74
215807	2340869	Jim please confirm to Vince you are happy.	Jim please confirm to Vince you are happy.	111209565	1474788092835	1474788092869	8	56
215807	2340869	Jim please confirm to Vince you are happy.	Jim please confirm to Vince you are happy.	111209567	1474788093335	1474788093406	BKSP	8
215807	2340869	Jim please confirm to Vince you are happy.	Jim please confirm to Vince you are happy.	111209569	1474788093868	1474788093942	i	73
215807	2340869	Jim please confirm to Vince you are happy.	Jim please confirm to Vince you are happy.	111209572	1474788094028	1474788094118	m	77
215807	2340869	Jim please confirm to Vince you are happy.	Jim please confirm to Vince you are happy.	111209583	1474788094183	1474788094308	 	32
215807	2340869	Jim please confirm to Vince you are happy.	Jim please confirm to Vince you are happy.	111209585	1474788094288	1474788094408	p	80
215807	2340869	Jim please confirm to Vince you are happy.	Jim please confirm to Vince you are happy.	111209586	1474788094399	1474788094473	l	76
215807	2340869	Jim please confirm to Vince you are happy.	Jim please confirm to Vince you are happy.	111209587	1474788094548	1474788094653	e	69
215807	2340869	Jim please confirm to Vince you are happy.	Jim please confirm to Vince you are happy.	111209588	1474788094759	1474788094814	s	83
215807	2340869	Jim please confirm to Vince you are happy.	Jim please confirm to Vince you are happy.	111209594	1474788094834	1474788095022	a	65
215807	2340869	Jim please confirm to Vince you are happy.	Jim please confirm to Vince you are happy.	111209595	1474788095019	1474788095185	e	69
215807	2340869	Jim please confirm to Vince you are happy.	Jim please confirm to Vince you are happy.	111209596	1474788095321	1474788095385	BKSP	8
215807	2340869	Jim please confirm to Vince you are happy.	Jim please confirm to Vince you are happy.	111209597	1474788095475	1474788095531	BKSP	8
215807	2340869	Jim please confirm to Vince you are happy.	Jim please confirm to Vince you are happy.	111209598	1474788095621	1474788095680	BKSP	8
215807	2340869	Jim please confirm to Vince you are happy.	Jim please confirm to Vince you are happy.	111209599	1474788095670	1474788095827	a	65
215807	2340869	Jim please confirm to Vince you are happy.	Jim please confirm to Vince you are happy.	111209600	1474788095771	1474788095882	s	83
215807	2340869	Jim please confirm to Vince you are happy.	Jim please confirm to Vince you are happy.	111209602	1474788095877	1474788095987	e	69
215807	2340869	Jim please confirm to Vince you are happy.	Jim please confirm to Vince you are happy.	111209604	1474788096007	1474788096122	 	32
215807	2340869	Jim please confirm to Vince you are happy.	Jim please confirm to Vince you are happy.	111209606	1474788096182	1474788096292	c	67
215807	2340869	Jim please confirm to Vince you are happy.	Jim please confirm to Vince you are happy.	111209609	1474788096278	1474788096363	o	79
215807	2340869	Jim please confirm to Vince you are happy.	Jim please confirm to Vince you are happy.	111209613	1474788096378	1474788096442	n	78
215807	2340869	Jim please confirm to Vince you are happy.	Jim please confirm to Vince you are happy.	111209619	1474788096477	1474788096578	f	70
215807	2340869	Jim please confirm to Vince you are happy.	Jim please confirm to Vince you are happy.	111209632	1474788096559	1474788096642	i	73
215807	2340869	Jim please confirm to Vince you are happy.	Jim please confirm to Vince you are happy.	111209633	1474788096677	1474788096758	r	82
215807	2340869	Jim please confirm to Vince you are happy.	Jim please confirm to Vince you are happy.	111209634	1474788096794	1474788096869	m	77
215807	2340869	Jim please confirm to Vince you are happy.	Jim please confirm to Vince you are happy.	111209635	1474788096894	1474788096974	 	32
215807	2340869	Jim please confirm to Vince you are happy.	Jim please confirm to Vince you are happy.	111209636	1474788097134	1474788097215	t	84
215807	2340869	Jim please confirm to Vince you are happy.	Jim please confirm to Vince you are happy.	111209637	1474788097315	1474788097395	o	79
215807	2340869	Jim please confirm to Vince you are happy.	Jim please confirm to Vince you are happy.	111209643	1474788097431	1474788097510	 	32
215807	2340869	Jim please confirm to Vince you are happy.	Jim please confirm to Vince you are happy.	111209645	1474788097626	1474788097821	SHIFT	16
215807	2340869	Jim please confirm to Vince you are happy.	Jim please confirm to Vince you are happy.	111209647	1474788097732	1474788097865	V	86
215807	2340869	Jim please confirm to Vince you are happy.	Jim please confirm to Vince you are happy.	111209649	1474788098439	1474788098498	i	73
215807	2340869	Jim please confirm to Vince you are happy.	Jim please confirm to Vince you are happy.	111209651	1474788098614	1474788098673	n	78
215807	2340869	Jim please confirm to Vince you are happy.	Jim please confirm to Vince you are happy.	111209653	1474788098689	1474788098814	c	67
215807	2340869	Jim please confirm to Vince you are happy.	Jim please confirm to Vince you are happy.	111209654	1474788098784	1474788098870	e	69
215807	2340869	Jim please confirm to Vince you are happy.	Jim please confirm to Vince you are happy.	111209656	1474788098884	1474788098994	 	32
215807	2340869	Jim please confirm to Vince you are happy.	Jim please confirm to Vince you are happy.	111209658	1474788099026	1474788099119	y	89
215807	2340869	Jim please confirm to Vince you are happy.	Jim please confirm to Vince you are happy.	111209660	1474788099110	1474788099174	o	79
215807	2340869	Jim please confirm to Vince you are happy.	Jim please confirm to Vince you are happy.	111209662	1474788099209	1474788099294	u	85
215807	2340869	Jim please confirm to Vince you are happy.	Jim please confirm to Vince you are happy.	111209664	1474788099309	1474788099435	 	32
215807	2340869	Jim please confirm to Vince you are happy.	Jim please confirm to Vince you are happy.	111209679	1474788099426	1474788099535	a	65
215807	2340869	Jim please confirm to Vince you are happy.	Jim please confirm to Vince you are happy.	111209681	1474788099521	1474788099661	r	82
215807	2340869	Jim please confirm to Vince you are happy.	Jim please confirm to Vince you are happy.	111209683	1474788099634	1474788099746	e	69
215807	2340869	Jim please confirm to Vince you are happy.	Jim please confirm to Vince you are happy.	111209684	1474788099841	1474788099946	h	72
215807	2340869	Jim please confirm to Vince you are happy.	Jim please confirm to Vince you are happy.	111209685	1474788099966	1474788100042	a	65
215807	2340869	Jim please confirm to Vince you are happy.	Jim please confirm to Vince you are happy.	111209686	1474788100283	1474788100342	BKSP	8
215807	2340869	Jim please confirm to Vince you are happy.	Jim please confirm to Vince you are happy.	111209687	1474788100433	1474788100477	BKSP	8
215807	2340869	Jim please confirm to Vince you are happy.	Jim please confirm to Vince you are happy.	111209688	1474788100578	1474788100693	 	32
215807	2340869	Jim please confirm to Vince you are happy.	Jim please confirm to Vince you are happy.	111209692	1474788100669	1474788100777	h	72
215807	2340869	Jim please confirm to Vince you are happy.	Jim please confirm to Vince you are happy.	111209695	1474788100763	1474788100848	a	65
215807	2340869	Jim please confirm to Vince you are happy.	Jim please confirm to Vince you are happy.	111209696	1474788100879	1474788100939	p	80
215807	2340869	Jim please confirm to Vince you are happy.	Jim please confirm to Vince you are happy.	111209697	1474788101024	1474788101084	p	80
215807	2340869	Jim please confirm to Vince you are happy.	Jim please confirm to Vince you are happy.	111209698	1474788101269	1474788101360	y	89
215807	2340869	Jim please confirm to Vince you are happy.	Jim please confirm to Vince you are happy.	111209699	1474788101410	1474788101490	.	190
215807	2340873	Thanks for the quick turnaround.	Thanks for the quick turnaround.	111209740	1474788102924	1474788103199	SHIFT	16
215807	2340873	Thanks for the quick turnaround.	Thanks for the quick turnaround.	111209744	1474788103090	1474788103214	T	84
215807	2340873	Thanks for the quick turnaround.	Thanks for the quick turnaround.	111209748	1474788103326	1474788103415	h	72
215807	2340873	Thanks for the quick turnaround.	Thanks for the quick turnaround.	111209752	1474788103456	1474788103545	a	65
215807	2340873	Thanks for the quick turnaround.	Thanks for the quick turnaround.	111209755	1474788103561	1474788103654	n	78
215807	2340873	Thanks for the quick turnaround.	Thanks for the quick turnaround.	111209764	1474788103639	1474788103696	k	75
215807	2340873	Thanks for the quick turnaround.	Thanks for the quick turnaround.	111209767	1474788103696	1474788103766	s	83
215807	2340873	Thanks for the quick turnaround.	Thanks for the quick turnaround.	111209769	1474788103790	1474788103896	 	32
215807	2340873	Thanks for the quick turnaround.	Thanks for the quick turnaround.	111209770	1474788103927	1474788104011	f	70
215807	2340873	Thanks for the quick turnaround.	Thanks for the quick turnaround.	111209771	1474788104017	1474788104086	o	79
215807	2340873	Thanks for the quick turnaround.	Thanks for the quick turnaround.	111209772	1474788104116	1474788104191	r	82
215807	2340873	Thanks for the quick turnaround.	Thanks for the quick turnaround.	111209783	1474788104212	1474788104292	 	32
215807	2340873	Thanks for the quick turnaround.	Thanks for the quick turnaround.	111209784	1474788104347	1474788104427	t	84
215807	2340873	Thanks for the quick turnaround.	Thanks for the quick turnaround.	111209785	1474788104437	1474788104497	h	72
215807	2340873	Thanks for the quick turnaround.	Thanks for the quick turnaround.	111209786	1474788104582	1474788104717	e	69
215807	2340873	Thanks for the quick turnaround.	Thanks for the quick turnaround.	111209787	1474788104728	1474788104859	 	32
215807	2340873	Thanks for the quick turnaround.	Thanks for the quick turnaround.	111209798	1474788104861	1474788104934	w	81
215807	2340873	Thanks for the quick turnaround.	Thanks for the quick turnaround.	111209800	1474788104998	1474788105062	u	85
215807	2340873	Thanks for the quick turnaround.	Thanks for the quick turnaround.	111209803	1474788105230	1474788105284	BKSP	8
215807	2340873	Thanks for the quick turnaround.	Thanks for the quick turnaround.	111209804	1474788105359	1474788105404	BKSP	8
215807	2340873	Thanks for the quick turnaround.	Thanks for the quick turnaround.	111209806	1474788105576	1474788105645	u	85
215807	2340873	Thanks for the quick turnaround.	Thanks for the quick turnaround.	111209808	1474788105751	1474788105840	i	73
215807	2340873	Thanks for the quick turnaround.	Thanks for the quick turnaround.	111209828	1474788105925	1474788106001	c	67
215807	2340873	Thanks for the quick turnaround.	Thanks for the quick turnaround.	111209830	1474788106067	1474788106142	k	75
215807	2340873	Thanks for the quick turnaround.	Thanks for the quick turnaround.	111209831	1474788106181	1474788106291	 	32
215807	2340873	Thanks for the quick turnaround.	Thanks for the quick turnaround.	111209832	1474788106439	1474788106541	t	84
215807	2340873	Thanks for the quick turnaround.	Thanks for the quick turnaround.	111209833	1474788106623	1474788106692	u	85
215807	2340873	Thanks for the quick turnaround.	Thanks for the quick turnaround.	111209835	1474788106763	1474788106840	r	82
215807	2340873	Thanks for the quick turnaround.	Thanks for the quick turnaround.	111209837	1474788106889	1474788106933	n	78
215807	2340873	Thanks for the quick turnaround.	Thanks for the quick turnaround.	111209839	1474788107033	1474788107118	a	65
215807	2340873	Thanks for the quick turnaround.	Thanks for the quick turnaround.	111209841	1474788107139	1474788107240	r	82
215807	2340873	Thanks for the quick turnaround.	Thanks for the quick turnaround.	111209843	1474788107241	1474788107360	o	79
215807	2340873	Thanks for the quick turnaround.	Thanks for the quick turnaround.	111209844	1474788107362	1474788107434	u	85
215807	2340873	Thanks for the quick turnaround.	Thanks for the quick turnaround.	111209846	1474788107534	1474788107610	n	78
215807	2340873	Thanks for the quick turnaround.	Thanks for the quick turnaround.	111209848	1474788107666	1474788107735	d	68
215807	2340873	Thanks for the quick turnaround.	Thanks for the quick turnaround.	111209850	1474788107775	1474788107876	.	190
215807	2340875	My comments are in fuschia.	My comments are in fuschia.	111209875	1474788109579	1474788109810	SHIFT	16
215807	2340875	My comments are in fuschia.	My comments are in fuschia.	111209876	1474788109730	1474788109821	M	77
215807	2340875	My comments are in fuschia.	My comments are in fuschia.	111209877	1474788109911	1474788110005	y	89
215807	2340875	My comments are in fuschia.	My comments are in fuschia.	111209878	1474788110025	1474788110126	 	32
215807	2340875	My comments are in fuschia.	My comments are in fuschia.	111209879	1474788110197	1474788110301	c	67
215807	2340875	My comments are in fuschia.	My comments are in fuschia.	111209898	1474788110241	1474788110332	o	79
215807	2340875	My comments are in fuschia.	My comments are in fuschia.	111209899	1474788110391	1474788110466	m	77
215807	2340875	My comments are in fuschia.	My comments are in fuschia.	111209900	1474788110542	1474788110627	m	77
215807	2340875	My comments are in fuschia.	My comments are in fuschia.	111209901	1474788110901	1474788110948	e	69
215807	2340875	My comments are in fuschia.	My comments are in fuschia.	111209902	1474788111007	1474788111068	n	78
215807	2340875	My comments are in fuschia.	My comments are in fuschia.	111209903	1474788111103	1474788111208	t	84
215807	2340875	My comments are in fuschia.	My comments are in fuschia.	111209904	1474788111223	1474788111288	s	83
215807	2340875	My comments are in fuschia.	My comments are in fuschia.	111209905	1474788111339	1474788111454	 	32
215807	2340875	My comments are in fuschia.	My comments are in fuschia.	111209906	1474788111429	1474788111524	a	65
215807	2340875	My comments are in fuschia.	My comments are in fuschia.	111209907	1474788111539	1474788111634	r	82
215807	2340875	My comments are in fuschia.	My comments are in fuschia.	111209908	1474788111605	1474788111689	e	69
215807	2340875	My comments are in fuschia.	My comments are in fuschia.	111209909	1474788111705	1474788111826	 	32
215807	2340875	My comments are in fuschia.	My comments are in fuschia.	111209910	1474788111827	1474788111930	i	73
215807	2340875	My comments are in fuschia.	My comments are in fuschia.	111209911	1474788111921	1474788111996	n	78
215807	2340875	My comments are in fuschia.	My comments are in fuschia.	111209912	1474788112020	1474788112159	 	32
215807	2340875	My comments are in fuschia.	My comments are in fuschia.	111209913	1474788112179	1474788112271	s	83
215807	2340875	My comments are in fuschia.	My comments are in fuschia.	111209933	1474788112663	1474788112732	BKSP	8
215807	2340875	My comments are in fuschia.	My comments are in fuschia.	111209934	1474788112748	1474788112868	f	70
215807	2340875	My comments are in fuschia.	My comments are in fuschia.	111209935	1474788112884	1474788112947	u	85
215807	2340875	My comments are in fuschia.	My comments are in fuschia.	111209936	1474788112977	1474788113043	s	83
215807	2340875	My comments are in fuschia.	My comments are in fuschia.	111209937	1474788113173	1474788113263	c	67
215807	2340875	My comments are in fuschia.	My comments are in fuschia.	111209938	1474788113454	1474788113569	h	72
215807	2340875	My comments are in fuschia.	My comments are in fuschia.	111209947	1474788113675	1474788113774	i	73
215807	2340875	My comments are in fuschia.	My comments are in fuschia.	111209949	1474788113980	1474788114075	a	65
215807	2340875	My comments are in fuschia.	My comments are in fuschia.	111209951	1474788114136	1474788114210	.	190
215807	2340878	I was going to call you but I hate to bother your holiday.	I was going to call you but I hate to bother your holiday.	111209981	1474788116597	1474788116787	SHIFT	16
215807	2340878	I was going to call you but I hate to bother your holiday.	I was going to call you but I hate to bother your holiday.	111209980	1474788116702	1474788116767	I	73
215807	2340878	I was going to call you but I hate to bother your holiday.	I was going to call you but I hate to bother your holiday.	111209982	1474788116842	1474788116977	 	32
215807	2340878	I was going to call you but I hate to bother your holiday.	I was going to call you but I hate to bother your holiday.	111209983	1474788116992	1474788117082	w	87
215807	2340878	I was going to call you but I hate to bother your holiday.	I was going to call you but I hate to bother your holiday.	111209984	1474788117157	1474788117253	a	65
215807	2340878	I was going to call you but I hate to bother your holiday.	I was going to call you but I hate to bother your holiday.	111209995	1474788117193	1474788117293	s	83
215807	2340878	I was going to call you but I hate to bother your holiday.	I was going to call you but I hate to bother your holiday.	111209997	1474788117309	1474788117443	 	32
215807	2340878	I was going to call you but I hate to bother your holiday.	I was going to call you but I hate to bother your holiday.	111209998	1474788117658	1474788117742	h	71
215807	2340878	I was going to call you but I hate to bother your holiday.	I was going to call you but I hate to bother your holiday.	111209999	1474788117732	1474788117849	o	79
215807	2340878	I was going to call you but I hate to bother your holiday.	I was going to call you but I hate to bother your holiday.	111210000	1474788117829	1474788117935	i	73
215807	2340878	I was going to call you but I hate to bother your holiday.	I was going to call you but I hate to bother your holiday.	111210002	1474788118104	1474788118150	BKSP	8
215807	2340878	I was going to call you but I hate to bother your holiday.	I was going to call you but I hate to bother your holiday.	111210004	1474788118246	1474788118295	BKSP	8
215807	2340878	I was going to call you but I hate to bother your holiday.	I was going to call you but I hate to bother your holiday.	111210006	1474788118326	1474788118385	BKSP	8
215807	2340878	I was going to call you but I hate to bother your holiday.	I was going to call you but I hate to bother your holiday.	111210009	1474788118462	1474788118531	o	79
215807	2340878	I was going to call you but I hate to bother your holiday.	I was going to call you but I hate to bother your holiday.	111210012	1474788118646	1474788118711	i	73
215807	2340878	I was going to call you but I hate to bother your holiday.	I was going to call you but I hate to bother your holiday.	111210015	1474788118731	1474788118846	n	78
215807	2340878	I was going to call you but I hate to bother your holiday.	I was going to call you but I hate to bother your holiday.	111210018	1474788118811	1474788118922	g	71
215807	2340878	I was going to call you but I hate to bother your holiday.	I was going to call you but I hate to bother your holiday.	111210021	1474788118933	1474788119027	 	32
215807	2340878	I was going to call you but I hate to bother your holiday.	I was going to call you but I hate to bother your holiday.	111210027	1474788119031	1474788119122	t	84
215807	2340878	I was going to call you but I hate to bother your holiday.	I was going to call you but I hate to bother your holiday.	111210029	1474788119152	1474788119212	o	79
215807	2340878	I was going to call you but I hate to bother your holiday.	I was going to call you but I hate to bother your holiday.	111210030	1474788119237	1474788119333	 	32
215807	2340878	I was going to call you but I hate to bother your holiday.	I was going to call you but I hate to bother your holiday.	111210032	1474788119439	1474788119563	c	67
215807	2340878	I was going to call you but I hate to bother your holiday.	I was going to call you but I hate to bother your holiday.	111210033	1474788119568	1474788119668	a	65
215807	2340878	I was going to call you but I hate to bother your holiday.	I was going to call you but I hate to bother your holiday.	111210039	1474788119669	1474788119736	l	76
215807	2340878	I was going to call you but I hate to bother your holiday.	I was going to call you but I hate to bother your holiday.	111210040	1474788119840	1474788119894	l	76
215807	2340878	I was going to call you but I hate to bother your holiday.	I was going to call you but I hate to bother your holiday.	111210041	1474788119935	1474788120009	 	32
215807	2340878	I was going to call you but I hate to bother your holiday.	I was going to call you but I hate to bother your holiday.	111210042	1474788120079	1474788120170	y	89
215807	2340878	I was going to call you but I hate to bother your holiday.	I was going to call you but I hate to bother your holiday.	111210043	1474788120195	1474788120250	o	79
215807	2340878	I was going to call you but I hate to bother your holiday.	I was going to call you but I hate to bother your holiday.	111210045	1474788120281	1474788120350	u	85
215807	2340878	I was going to call you but I hate to bother your holiday.	I was going to call you but I hate to bother your holiday.	111210048	1474788120375	1474788120444	 	32
215807	2340878	I was going to call you but I hate to bother your holiday.	I was going to call you but I hate to bother your holiday.	111210051	1474788120536	1474788120626	b	66
215807	2340878	I was going to call you but I hate to bother your holiday.	I was going to call you but I hate to bother your holiday.	111210054	1474788120641	1474788120701	u	85
215807	2340878	I was going to call you but I hate to bother your holiday.	I was going to call you but I hate to bother your holiday.	111210057	1474788120741	1474788120821	t	84
215807	2340878	I was going to call you but I hate to bother your holiday.	I was going to call you but I hate to bother your holiday.	111210061	1474788120851	1474788120992	 	32
215807	2340878	I was going to call you but I hate to bother your holiday.	I was going to call you but I hate to bother your holiday.	111210066	1474788120987	1474788121203	SHIFT	16
215807	2340878	I was going to call you but I hate to bother your holiday.	I was going to call you but I hate to bother your holiday.	111210064	1474788121077	1474788121167	I	73
215807	2340878	I was going to call you but I hate to bother your holiday.	I was going to call you but I hate to bother your holiday.	111210070	1474788121228	1474788121352	 	32
215807	2340878	I was going to call you but I hate to bother your holiday.	I was going to call you but I hate to bother your holiday.	111210073	1474788121623	1474788121724	g	71
215807	2340878	I was going to call you but I hate to bother your holiday.	I was going to call you but I hate to bother your holiday.	111210075	1474788121725	1474788121839	a	65
215807	2340878	I was going to call you but I hate to bother your holiday.	I was going to call you but I hate to bother your holiday.	111210095	1474788121923	1474788122014	t	82
215807	2340878	I was going to call you but I hate to bother your holiday.	I was going to call you but I hate to bother your holiday.	111210096	1474788122169	1474788122225	BKSP	8
215807	2340878	I was going to call you but I hate to bother your holiday.	I was going to call you but I hate to bother your holiday.	111210097	1474788122300	1474788122360	BKSP	8
215807	2340878	I was going to call you but I hate to bother your holiday.	I was going to call you but I hate to bother your holiday.	111210099	1474788122440	1474788122500	BKSP	8
215807	2340878	I was going to call you but I hate to bother your holiday.	I was going to call you but I hate to bother your holiday.	111210102	1474788122590	1474788122711	h	72
215807	2340878	I was going to call you but I hate to bother your holiday.	I was going to call you but I hate to bother your holiday.	111210105	1474788122796	1474788122856	BKSP	8
215807	2340878	I was going to call you but I hate to bother your holiday.	I was going to call you but I hate to bother your holiday.	111210108	1474788122941	1474788123006	BKSP	8
215807	2340878	I was going to call you but I hate to bother your holiday.	I was going to call you but I hate to bother your holiday.	111210111	1474788123032	1474788123147	h	72
215807	2340878	I was going to call you but I hate to bother your holiday.	I was going to call you but I hate to bother your holiday.	111210125	1474788123142	1474788123262	a	65
215807	2340878	I was going to call you but I hate to bother your holiday.	I was going to call you but I hate to bother your holiday.	111210127	1474788123277	1474788123387	t	82
215807	2340878	I was going to call you but I hate to bother your holiday.	I was going to call you but I hate to bother your holiday.	111210128	1474788123452	1474788123488	e	69
215807	2340878	I was going to call you but I hate to bother your holiday.	I was going to call you but I hate to bother your holiday.	111210129	1474788123628	1474788123695	BKSP	8
215807	2340878	I was going to call you but I hate to bother your holiday.	I was going to call you but I hate to bother your holiday.	111210130	1474788123799	1474788123894	BKSP	8
215807	2340878	I was going to call you but I hate to bother your holiday.	I was going to call you but I hate to bother your holiday.	111210131	1474788123974	1474788124039	BKSP	8
215807	2340878	I was going to call you but I hate to bother your holiday.	I was going to call you but I hate to bother your holiday.	111210132	1474788124074	1474788124174	t	84
215807	2340878	I was going to call you but I hate to bother your holiday.	I was going to call you but I hate to bother your holiday.	111210139	1474788124164	1474788124244	e	69
215807	2340878	I was going to call you but I hate to bother your holiday.	I was going to call you but I hate to bother your holiday.	111210140	1474788124254	1474788124360	 	32
215807	2340878	I was going to call you but I hate to bother your holiday.	I was going to call you but I hate to bother your holiday.	111210141	1474788124400	1474788124490	t	84
215807	2340878	I was going to call you but I hate to bother your holiday.	I was going to call you but I hate to bother your holiday.	111210142	1474788124530	1474788124585	o	79
215807	2340878	I was going to call you but I hate to bother your holiday.	I was going to call you but I hate to bother your holiday.	111210143	1474788124601	1474788124689	 	32
215807	2340878	I was going to call you but I hate to bother your holiday.	I was going to call you but I hate to bother your holiday.	111210145	1474788125037	1474788125117	b	66
215807	2340878	I was going to call you but I hate to bother your holiday.	I was going to call you but I hate to bother your holiday.	111210154	1474788125147	1474788125202	o	79
215807	2340878	I was going to call you but I hate to bother your holiday.	I was going to call you but I hate to bother your holiday.	111210155	1474788125252	1474788125332	t	84
215807	2340878	I was going to call you but I hate to bother your holiday.	I was going to call you but I hate to bother your holiday.	111210156	1474788125327	1474788125407	h	72
215807	2340878	I was going to call you but I hate to bother your holiday.	I was going to call you but I hate to bother your holiday.	111210157	1474788125517	1474788125579	e	69
215807	2340878	I was going to call you but I hate to bother your holiday.	I was going to call you but I hate to bother your holiday.	111210158	1474788125583	1474788125687	r	82
215807	2340878	I was going to call you but I hate to bother your holiday.	I was going to call you but I hate to bother your holiday.	111210164	1474788125723	1474788125813	 	32
215807	2340878	I was going to call you but I hate to bother your holiday.	I was going to call you but I hate to bother your holiday.	111210165	1474788125869	1474788125959	y	89
215807	2340878	I was going to call you but I hate to bother your holiday.	I was going to call you but I hate to bother your holiday.	111210166	1474788126029	1474788126084	o	79
215807	2340878	I was going to call you but I hate to bother your holiday.	I was going to call you but I hate to bother your holiday.	111210167	1474788126149	1474788126249	u	85
215807	2340878	I was going to call you but I hate to bother your holiday.	I was going to call you but I hate to bother your holiday.	111210168	1474788126329	1474788126410	r	82
215807	2340878	I was going to call you but I hate to bother your holiday.	I was going to call you but I hate to bother your holiday.	111210182	1474788126465	1474788126565	 	32
215807	2340878	I was going to call you but I hate to bother your holiday.	I was going to call you but I hate to bother your holiday.	111210183	1474788126750	1474788126851	h	72
215807	2340878	I was going to call you but I hate to bother your holiday.	I was going to call you but I hate to bother your holiday.	111210184	1474788126867	1474788126941	o	79
215807	2340878	I was going to call you but I hate to bother your holiday.	I was going to call you but I hate to bother your holiday.	111210185	1474788127041	1474788127111	l	76
215807	2340878	I was going to call you but I hate to bother your holiday.	I was going to call you but I hate to bother your holiday.	111210186	1474788127216	1474788127287	i	73
215807	2340878	I was going to call you but I hate to bother your holiday.	I was going to call you but I hate to bother your holiday.	111210192	1474788127302	1474788127418	d	68
215807	2340878	I was going to call you but I hate to bother your holiday.	I was going to call you but I hate to bother your holiday.	111210193	1474788127418	1474788127553	a	65
215807	2340878	I was going to call you but I hate to bother your holiday.	I was going to call you but I hate to bother your holiday.	111210194	1474788127554	1474788127677	y	89
215807	2340878	I was going to call you but I hate to bother your holiday.	I was going to call you but I hate to bother your holiday.	111210195	1474788127728	1474788127818	.	190
215807	2340883	Toomer has been inconsistent this season.	Toomer has been inconsistent this season.	111210216	1474788129418	1474788129646	SHIFT	16
215807	2340883	Toomer has been inconsistent this season.	Toomer has been inconsistent this season.	111210217	1474788129583	1474788129701	T	84
215807	2340883	Toomer has been inconsistent this season.	Toomer has been inconsistent this season.	111210218	1474788129717	1474788129773	o	79
215807	2340883	Toomer has been inconsistent this season.	Toomer has been inconsistent this season.	111210219	1474788129868	1474788129983	o	79
215807	2340883	Toomer has been inconsistent this season.	Toomer has been inconsistent this season.	111210221	1474788130169	1474788130249	m	77
215807	2340883	Toomer has been inconsistent this season.	Toomer has been inconsistent this season.	111210224	1474788130279	1474788130374	e	69
215807	2340883	Toomer has been inconsistent this season.	Toomer has been inconsistent this season.	111210237	1474788130355	1474788130439	r	82
215807	2340883	Toomer has been inconsistent this season.	Toomer has been inconsistent this season.	111210238	1474788130474	1474788130559	 	32
215807	2340883	Toomer has been inconsistent this season.	Toomer has been inconsistent this season.	111210239	1474788130675	1474788130775	h	72
215807	2340883	Toomer has been inconsistent this season.	Toomer has been inconsistent this season.	111210240	1474788130795	1474788130930	a	65
215807	2340883	Toomer has been inconsistent this season.	Toomer has been inconsistent this season.	111210242	1474788130951	1474788131016	s	83
215807	2340883	Toomer has been inconsistent this season.	Toomer has been inconsistent this season.	111210244	1474788131041	1474788131141	 	32
215807	2340883	Toomer has been inconsistent this season.	Toomer has been inconsistent this season.	111210258	1474788131281	1474788131366	b	66
215807	2340883	Toomer has been inconsistent this season.	Toomer has been inconsistent this season.	111210259	1474788131467	1474788131523	e	69
215807	2340883	Toomer has been inconsistent this season.	Toomer has been inconsistent this season.	111210260	1474788131612	1474788131672	e	69
215807	2340883	Toomer has been inconsistent this season.	Toomer has been inconsistent this season.	111210261	1474788131732	1474788131803	n	78
215807	2340883	Toomer has been inconsistent this season.	Toomer has been inconsistent this season.	111210262	1474788131874	1474788131972	 	32
215807	2340883	Toomer has been inconsistent this season.	Toomer has been inconsistent this season.	111210273	1474788132284	1474788132409	i	73
215807	2340883	Toomer has been inconsistent this season.	Toomer has been inconsistent this season.	111210274	1474788132391	1474788132474	n	78
215807	2340883	Toomer has been inconsistent this season.	Toomer has been inconsistent this season.	111210275	1474788132676	1474788132790	c	67
215807	2340883	Toomer has been inconsistent this season.	Toomer has been inconsistent this season.	111210276	1474788132775	1474788132880	o	79
215807	2340883	Toomer has been inconsistent this season.	Toomer has been inconsistent this season.	111210277	1474788132881	1474788132965	n	78
215807	2340883	Toomer has been inconsistent this season.	Toomer has been inconsistent this season.	111210296	1474788133041	1474788133131	s	83
215807	2340883	Toomer has been inconsistent this season.	Toomer has been inconsistent this season.	111210297	1474788133207	1474788133282	i	73
215807	2340883	Toomer has been inconsistent this season.	Toomer has been inconsistent this season.	111210298	1474788133302	1474788133390	s	83
215807	2340883	Toomer has been inconsistent this season.	Toomer has been inconsistent this season.	111210299	1474788133476	1474788133587	t	84
215807	2340883	Toomer has been inconsistent this season.	Toomer has been inconsistent this season.	111210301	1474788134093	1474788134173	e	69
215807	2340883	Toomer has been inconsistent this season.	Toomer has been inconsistent this season.	111210309	1474788134244	1474788134304	n	78
215807	2340883	Toomer has been inconsistent this season.	Toomer has been inconsistent this season.	111210311	1474788134309	1474788134384	t	84
215807	2340883	Toomer has been inconsistent this season.	Toomer has been inconsistent this season.	111210313	1474788134444	1474788134524	 	32
215807	2340883	Toomer has been inconsistent this season.	Toomer has been inconsistent this season.	111210315	1474788134678	1474788134735	t	84
215807	2340883	Toomer has been inconsistent this season.	Toomer has been inconsistent this season.	111210316	1474788134840	1474788134890	h	72
215807	2340883	Toomer has been inconsistent this season.	Toomer has been inconsistent this season.	111210332	1474788134985	1474788135040	s	83
215807	2340883	Toomer has been inconsistent this season.	Toomer has been inconsistent this season.	111210333	1474788135101	1474788135191	i	73
215807	2340883	Toomer has been inconsistent this season.	Toomer has been inconsistent this season.	111210335	1474788135447	1474788135486	BKSP	8
215807	2340883	Toomer has been inconsistent this season.	Toomer has been inconsistent this season.	111210337	1474788135566	1474788135627	BKSP	8
215807	2340883	Toomer has been inconsistent this season.	Toomer has been inconsistent this season.	111210339	1474788135748	1474788135837	i	73
215807	2340883	Toomer has been inconsistent this season.	Toomer has been inconsistent this season.	111210341	1474788135832	1474788135912	s	83
215807	2340883	Toomer has been inconsistent this season.	Toomer has been inconsistent this season.	111210342	1474788135952	1474788136099	 	32
215807	2340883	Toomer has been inconsistent this season.	Toomer has been inconsistent this season.	111210349	1474788136093	1474788136223	s	83
215807	2340883	Toomer has been inconsistent this season.	Toomer has been inconsistent this season.	111210350	1474788136247	1474788136388	e	69
215807	2340883	Toomer has been inconsistent this season.	Toomer has been inconsistent this season.	111210351	1474788136439	1474788136559	a	65
215807	2340883	Toomer has been inconsistent this season.	Toomer has been inconsistent this season.	111210352	1474788136595	1474788136684	s	83
215807	2340883	Toomer has been inconsistent this season.	Toomer has been inconsistent this season.	111210353	1474788136739	1474788136855	o	79
215807	2340883	Toomer has been inconsistent this season.	Toomer has been inconsistent this season.	111210366	1474788136835	1474788136915	n	78
215807	2340883	Toomer has been inconsistent this season.	Toomer has been inconsistent this season.	111210368	1474788137081	1474788137165	.	190
215807	2340885	Do we need to discuss?	Do we need to discuss?	111210415	1474788139110	1474788139576	D	16
215807	2340885	Do we need to discuss?	Do we need to discuss?	111210416	1474788139802	1474788139867	o	79
215807	2340885	Do we need to discuss?	Do we need to discuss?	111210417	1474788139927	1474788140032	 	32
215807	2340885	Do we need to discuss?	Do we need to discuss?	111210419	1474788140023	1474788140127	w	87
215807	2340885	Do we need to discuss?	Do we need to discuss?	111210429	1474788140112	1474788140188	e	69
215807	2340885	Do we need to discuss?	Do we need to discuss?	111210430	1474788140219	1474788140323	 	32
215807	2340885	Do we need to discuss?	Do we need to discuss?	111210432	1474788140378	1474788140448	n	78
215807	2340885	Do we need to discuss?	Do we need to discuss?	111210435	1474788140468	1474788140533	e	69
215807	2340885	Do we need to discuss?	Do we need to discuss?	111210438	1474788140618	1474788140668	e	69
215807	2340885	Do we need to discuss?	Do we need to discuss?	111210439	1474788140769	1474788140814	d	68
215807	2340885	Do we need to discuss?	Do we need to discuss?	111210451	1474788140835	1474788140944	 	32
215807	2340885	Do we need to discuss?	Do we need to discuss?	111210452	1474788140959	1474788141040	t	84
215807	2340885	Do we need to discuss?	Do we need to discuss?	111210453	1474788141090	1474788141155	o	79
215807	2340885	Do we need to discuss?	Do we need to discuss?	111210454	1474788141330	1474788141456	 	32
215807	2340885	Do we need to discuss?	Do we need to discuss?	111210456	1474788141596	1474788141691	d	68
215807	2340885	Do we need to discuss?	Do we need to discuss?	111210482	1474788141807	1474788141872	s	83
215807	2340885	Do we need to discuss?	Do we need to discuss?	111210483	1474788142116	1474788142177	BKSP	8
215807	2340885	Do we need to discuss?	Do we need to discuss?	111210484	1474788142315	1474788142378	i	73
215807	2340885	Do we need to discuss?	Do we need to discuss?	111210485	1474788142424	1474788142493	s	83
215807	2340885	Do we need to discuss?	Do we need to discuss?	111210486	1474788142663	1474788142769	c	67
215807	2340885	Do we need to discuss?	Do we need to discuss?	111210492	1474788142764	1474788142829	u	85
215807	2340885	Do we need to discuss?	Do we need to discuss?	111210494	1474788142884	1474788142944	s	83
215807	2340885	Do we need to discuss?	Do we need to discuss?	111210496	1474788143039	1474788143105	s	83
215807	2340885	Do we need to discuss?	Do we need to discuss?	111210498	1474788143406	1474788143546	?	191
215807	2340888	It's going to be ludicrous.	It's going to be ludicrous.	111210552	1474788145460	1474788145555	I	73
215807	2340888	It's going to be ludicrous.	It's going to be ludicrous.	111210556	1474788145761	1474788145886	t	84
215807	2340888	It's going to be ludicrous.	It's going to be ludicrous.	111210558	1474788146011	1474788146076	'	222
215807	2340888	It's going to be ludicrous.	It's going to be ludicrous.	111210560	1474788146227	1474788146307	s	83
215807	2340888	It's going to be ludicrous.	It's going to be ludicrous.	111210562	1474788146342	1474788146478	 	32
215807	2340888	It's going to be ludicrous.	It's going to be ludicrous.	111210566	1474788146628	1474788146713	g	71
215807	2340888	It's going to be ludicrous.	It's going to be ludicrous.	111210567	1474788146728	1474788146828	o	79
215807	2340888	It's going to be ludicrous.	It's going to be ludicrous.	111210568	1474788146823	1474788146899	i	73
215807	2340888	It's going to be ludicrous.	It's going to be ludicrous.	111210569	1474788146884	1474788147002	n	78
215807	2340888	It's going to be ludicrous.	It's going to be ludicrous.	111210574	1474788146994	1474788147054	g	71
215807	2340888	It's going to be ludicrous.	It's going to be ludicrous.	111210576	1474788147079	1474788147184	 	32
215807	2340888	It's going to be ludicrous.	It's going to be ludicrous.	111210579	1474788147195	1474788147280	t	84
215807	2340888	It's going to be ludicrous.	It's going to be ludicrous.	111210582	1474788147330	1474788147410	o	79
215807	2340888	It's going to be ludicrous.	It's going to be ludicrous.	111210584	1474788147436	1474788147504	 	32
215807	2340888	It's going to be ludicrous.	It's going to be ludicrous.	111210585	1474788147590	1474788147666	b	66
215807	2340888	It's going to be ludicrous.	It's going to be ludicrous.	111210592	1474788147756	1474788147806	e	69
215807	2340888	It's going to be ludicrous.	It's going to be ludicrous.	111210593	1474788147837	1474788147946	 	32
215807	2340888	It's going to be ludicrous.	It's going to be ludicrous.	111210594	1474788148031	1474788148117	l	76
215807	2340888	It's going to be ludicrous.	It's going to be ludicrous.	111210595	1474788148237	1474788148287	u	85
215807	2340888	It's going to be ludicrous.	It's going to be ludicrous.	111210596	1474788148332	1474788148402	d	68
215807	2340888	It's going to be ludicrous.	It's going to be ludicrous.	111210615	1474788148457	1474788148528	i	73
215807	2340888	It's going to be ludicrous.	It's going to be ludicrous.	111210616	1474788148573	1474788148698	c	67
215807	2340888	It's going to be ludicrous.	It's going to be ludicrous.	111210617	1474788149106	1474788149204	t	84
215807	2340888	It's going to be ludicrous.	It's going to be ludicrous.	111210618	1474788149314	1474788149355	o	79
215807	2340888	It's going to be ludicrous.	It's going to be ludicrous.	111210619	1474788149616	1474788149669	BKSP	8
215807	2340888	It's going to be ludicrous.	It's going to be ludicrous.	111210620	1474788149754	1474788149805	BKSP	8
215807	2340888	It's going to be ludicrous.	It's going to be ludicrous.	111210622	1474788149820	1474788149905	r	82
215807	2340888	It's going to be ludicrous.	It's going to be ludicrous.	111210651	1474788149945	1474788150025	o	79
215807	2340888	It's going to be ludicrous.	It's going to be ludicrous.	111210652	1474788150141	1474788150212	u	85
215807	2340888	It's going to be ludicrous.	It's going to be ludicrous.	111210653	1474788150262	1474788150326	s	83
215807	2340888	It's going to be ludicrous.	It's going to be ludicrous.	111210654	1474788150523	1474788150618	.	190
215807	2340892	I am on my way.	I am on my way.	111210713	1474788152427	1474788152823	SHIFT	16
215807	2340892	I am on my way.	I am on my way.	111210712	1474788152622	1474788152708	I	73
215807	2340892	I am on my way.	I am on my way.	111210715	1474788152893	1474788153058	 	32
215807	2340892	I am on my way.	I am on my way.	111210718	1474788153073	1474788153154	a	65
215807	2340892	I am on my way.	I am on my way.	111210720	1474788153179	1474788153269	m	77
215807	2340892	I am on my way.	I am on my way.	111210722	1474788153304	1474788153432	 	32
215807	2340892	I am on my way.	I am on my way.	111210733	1474788153530	1474788153645	o	79
215807	2340892	I am on my way.	I am on my way.	111210734	1474788153656	1474788153729	n	78
215807	2340892	I am on my way.	I am on my way.	111210735	1474788153770	1474788153885	 	32
215807	2340892	I am on my way.	I am on my way.	111210736	1474788153976	1474788154036	m	77
215807	2340892	I am on my way.	I am on my way.	111210737	1474788154051	1474788154146	y	89
215807	2340892	I am on my way.	I am on my way.	111210748	1474788154172	1474788154266	 	32
215807	2340892	I am on my way.	I am on my way.	111210750	1474788154341	1474788154467	w	87
215807	2340892	I am on my way.	I am on my way.	111210751	1474788154468	1474788154567	a	65
215807	2340892	I am on my way.	I am on my way.	111210752	1474788154592	1474788154701	y	89
215807	2340892	I am on my way.	I am on my way.	111210753	1474788154737	1474788154818	.	190
