PARTICIPANT_ID	TEST_SECTION_ID	SENTENCE	USER_INPUT	KEYSTROKE_ID	PRESS_TIME	RELEASE_TIME	LETTER	KEYCODE
217694	2362652	Thank you for participation, cooperation and support.	Thank you for participation, cooperation and support.	112261030	1474834929210	1474834929327	SHIFT	16
217694	2362652	Thank you for participation, cooperation and support.	Thank you for participation, cooperation and support.	112261032	1474834929287	1474834929414	T	84
217694	2362652	Thank you for participation, cooperation and support.	Thank you for participation, cooperation and support.	112261035	1474834929358	1474834929430	h	72
217694	2362652	Thank you for participation, cooperation and support.	Thank you for participation, cooperation and support.	112261039	1474834929478	1474834929598	a	65
217694	2362652	Thank you for participation, cooperation and support.	Thank you for participation, cooperation and support.	112261043	1474834929574	1474834929694	n	78
217694	2362652	Thank you for participation, cooperation and support.	Thank you for participation, cooperation and support.	112261052	1474834929654	1474834929780	k	75
217694	2362652	Thank you for participation, cooperation and support.	Thank you for participation, cooperation and support.	112261055	1474834929742	1474834929846	 	32
217694	2362652	Thank you for participation, cooperation and support.	Thank you for participation, cooperation and support.	112261060	1474834929918	1474834929998	y	89
217694	2362652	Thank you for participation, cooperation and support.	Thank you for participation, cooperation and support.	112261064	1474834930022	1474834930199	o	79
217694	2362652	Thank you for participation, cooperation and support.	Thank you for participation, cooperation and support.	112261103	1474834930151	1474834930247	u	85
217694	2362652	Thank you for participation, cooperation and support.	Thank you for participation, cooperation and support.	112261104	1474834930191	1474834930303	 	32
217694	2362652	Thank you for participation, cooperation and support.	Thank you for participation, cooperation and support.	112261106	1474834930343	1474834930415	f	70
217694	2362652	Thank you for participation, cooperation and support.	Thank you for participation, cooperation and support.	112261109	1474834930447	1474834930503	o	79
217694	2362652	Thank you for participation, cooperation and support.	Thank you for participation, cooperation and support.	112261111	1474834930527	1474834930607	r	82
217694	2362652	Thank you for participation, cooperation and support.	Thank you for participation, cooperation and support.	112261113	1474834930631	1474834930719	 	32
217694	2362652	Thank you for participation, cooperation and support.	Thank you for participation, cooperation and support.	112261115	1474834930871	1474834930967	p	80
217694	2362652	Thank you for participation, cooperation and support.	Thank you for participation, cooperation and support.	112261131	1474834930975	1474834931087	a	65
217694	2362652	Thank you for participation, cooperation and support.	Thank you for participation, cooperation and support.	112261134	1474834931063	1474834931143	r	82
217694	2362652	Thank you for participation, cooperation and support.	Thank you for participation, cooperation and support.	112261137	1474834931247	1474834931303	t	84
217694	2362652	Thank you for participation, cooperation and support.	Thank you for participation, cooperation and support.	112261140	1474834931351	1474834931407	i	73
217694	2362652	Thank you for participation, cooperation and support.	Thank you for participation, cooperation and support.	112261145	1474834931455	1474834931503	c	67
217694	2362652	Thank you for participation, cooperation and support.	Thank you for participation, cooperation and support.	112261183	1474834931583	1474834931639	i	73
217694	2362652	Thank you for participation, cooperation and support.	Thank you for participation, cooperation and support.	112261186	1474834931767	1474834931847	p	80
217694	2362652	Thank you for participation, cooperation and support.	Thank you for participation, cooperation and support.	112261190	1474834931887	1474834931975	a	65
217694	2362652	Thank you for participation, cooperation and support.	Thank you for participation, cooperation and support.	112261194	1474834932135	1474834932191	t	84
217694	2362652	Thank you for participation, cooperation and support.	Thank you for participation, cooperation and support.	112261240	1474834932223	1474834932431	i	73
217694	2362652	Thank you for participation, cooperation and support.	Thank you for participation, cooperation and support.	112261197	1474834932287	1474834932423	o	79
217694	2362652	Thank you for participation, cooperation and support.	Thank you for participation, cooperation and support.	112261245	1474834932391	1474834932479	n	78
217694	2362652	Thank you for participation, cooperation and support.	Thank you for participation, cooperation and support.	112261249	1474834932639	1474834932743	,	188
217694	2362652	Thank you for participation, cooperation and support.	Thank you for participation, cooperation and support.	112261252	1474834932703	1474834932799	 	32
217694	2362652	Thank you for participation, cooperation and support.	Thank you for participation, cooperation and support.	112261253	1474834932839	1474834932959	c	67
217694	2362652	Thank you for participation, cooperation and support.	Thank you for participation, cooperation and support.	112261254	1474834932967	1474834932991	o	79
217694	2362652	Thank you for participation, cooperation and support.	Thank you for participation, cooperation and support.	112261256	1474834933087	1474834933151	o	79
217694	2362652	Thank you for participation, cooperation and support.	Thank you for participation, cooperation and support.	112261270	1474834933247	1474834933319	p	80
217694	2362652	Thank you for participation, cooperation and support.	Thank you for participation, cooperation and support.	112261274	1474834933375	1474834933479	e	69
217694	2362652	Thank you for participation, cooperation and support.	Thank you for participation, cooperation and support.	112261278	1474834933463	1474834933559	r	82
217694	2362652	Thank you for participation, cooperation and support.	Thank you for participation, cooperation and support.	112261284	1474834933641	1474834933761	a	65
217694	2362652	Thank you for participation, cooperation and support.	Thank you for participation, cooperation and support.	112261307	1474834933737	1474834933833	t	84
217694	2362652	Thank you for participation, cooperation and support.	Thank you for participation, cooperation and support.	112261311	1474834933881	1474834934105	i	73
217694	2362652	Thank you for participation, cooperation and support.	Thank you for participation, cooperation and support.	112261317	1474834933977	1474834934137	o	79
217694	2362652	Thank you for participation, cooperation and support.	Thank you for participation, cooperation and support.	112261322	1474834934065	1474834934201	n	78
217694	2362652	Thank you for participation, cooperation and support.	Thank you for participation, cooperation and support.	112261326	1474834934153	1474834934233	 	32
217694	2362652	Thank you for participation, cooperation and support.	Thank you for participation, cooperation and support.	112261348	1474834934225	1474834934353	a	65
217694	2362652	Thank you for participation, cooperation and support.	Thank you for participation, cooperation and support.	112261351	1474834934342	1474834934433	d	68
217694	2362652	Thank you for participation, cooperation and support.	Thank you for participation, cooperation and support.	112261353	1474834934369	1474834934441	n	78
217694	2362652	Thank you for participation, cooperation and support.	Thank you for participation, cooperation and support.	112261355	1474834934465	1474834934561	 	32
217694	2362652	Thank you for participation, cooperation and support.	Thank you for participation, cooperation and support.	112261359	1474834934569	1474834934649	s	83
217694	2362652	Thank you for participation, cooperation and support.	Thank you for participation, cooperation and support.	112261363	1474834934713	1474834934769	u	85
217694	2362652	Thank you for participation, cooperation and support.	Thank you for participation, cooperation and support.	112261386	1474834934849	1474834934929	p	80
217694	2362652	Thank you for participation, cooperation and support.	Thank you for participation, cooperation and support.	112261390	1474834935017	1474834935113	p	80
217694	2362652	Thank you for participation, cooperation and support.	Thank you for participation, cooperation and support.	112261393	1474834935105	1474834935193	o	79
217694	2362652	Thank you for participation, cooperation and support.	Thank you for participation, cooperation and support.	112261396	1474834935233	1474834935329	r	82
217694	2362652	Thank you for participation, cooperation and support.	Thank you for participation, cooperation and support.	112261398	1474834935465	1474834935505	t	84
217694	2362652	Thank you for participation, cooperation and support.	Thank you for participation, cooperation and support.	112261591	1474834935673	1474834935721	.	190
217694	2362652	Thank you for participation, cooperation and support.	Thank you for participation, cooperation and support.	112261595	1474834938241	1474834938297	BKSP	8
217694	2362652	Thank you for participation, cooperation and support.	Thank you for participation, cooperation and support.	112261599	1474834938377	1474834938433	BKSP	8
217694	2362652	Thank you for participation, cooperation and support.	Thank you for participation, cooperation and support.	112261602	1474834938617	1474834938649	n	78
217694	2362652	Thank you for participation, cooperation and support.	Thank you for participation, cooperation and support.	112261605	1474834938697	1474834938737	d	68
217694	2362675	Trow said the profit return was very high.	Trow said the profit return was very high.	112261709	1474834942521	1474834942664	SHIFT	16
217694	2362675	Trow said the profit return was very high.	Trow said the profit return was very high.	112261711	1474834942601	1474834942696	T	84
217694	2362675	Trow said the profit return was very high.	Trow said the profit return was very high.	112261716	1474834942784	1474834942872	r	82
217694	2362675	Trow said the profit return was very high.	Trow said the profit return was very high.	112261720	1474834942897	1474834942960	o	79
217694	2362675	Trow said the profit return was very high.	Trow said the profit return was very high.	112261724	1474834943424	1474834943504	w	87
217694	2362675	Trow said the profit return was very high.	Trow said the profit return was very high.	112261730	1474834943584	1474834943672	 	32
217694	2362675	Trow said the profit return was very high.	Trow said the profit return was very high.	112261753	1474834943697	1474834943824	s	83
217694	2362675	Trow said the profit return was very high.	Trow said the profit return was very high.	112261756	1474834943792	1474834943912	a	65
217694	2362675	Trow said the profit return was very high.	Trow said the profit return was very high.	112261761	1474834943928	1474834944000	i	73
217694	2362675	Trow said the profit return was very high.	Trow said the profit return was very high.	112261765	1474834944097	1474834944184	d	68
217694	2362675	Trow said the profit return was very high.	Trow said the profit return was very high.	112261771	1474834944232	1474834944304	 	32
217694	2362675	Trow said the profit return was very high.	Trow said the profit return was very high.	112261787	1474834944328	1474834944447	t	84
217694	2362675	Trow said the profit return was very high.	Trow said the profit return was very high.	112261793	1474834944447	1474834944461	h	72
217694	2362675	Trow said the profit return was very high.	Trow said the profit return was very high.	112261797	1474834944462	1474834944586	e	69
217694	2362675	Trow said the profit return was very high.	Trow said the profit return was very high.	112261801	1474834944583	1474834944624	 	32
217694	2362675	Trow said the profit return was very high.	Trow said the profit return was very high.	112261805	1474834944688	1474834944763	p	80
217694	2362675	Trow said the profit return was very high.	Trow said the profit return was very high.	112261840	1474834944816	1474834944864	r	82
217694	2362675	Trow said the profit return was very high.	Trow said the profit return was very high.	112261844	1474834944912	1474834944976	o	79
217694	2362675	Trow said the profit return was very high.	Trow said the profit return was very high.	112261852	1474834945088	1474834945144	f	70
217694	2362675	Trow said the profit return was very high.	Trow said the profit return was very high.	112261856	1474834945248	1474834945296	i	73
217694	2362675	Trow said the profit return was very high.	Trow said the profit return was very high.	112261859	1474834945416	1474834945472	t	84
217694	2362675	Trow said the profit return was very high.	Trow said the profit return was very high.	112261881	1474834945528	1474834945635	 	32
217694	2362675	Trow said the profit return was very high.	Trow said the profit return was very high.	112261885	1474834945720	1474834945856	r	82
217694	2362675	Trow said the profit return was very high.	Trow said the profit return was very high.	112261888	1474834945824	1474834945905	e	69
217694	2362675	Trow said the profit return was very high.	Trow said the profit return was very high.	112261892	1474834946000	1474834946072	t	84
217694	2362675	Trow said the profit return was very high.	Trow said the profit return was very high.	112261896	1474834946128	1474834946200	u	85
217694	2362675	Trow said the profit return was very high.	Trow said the profit return was very high.	112261924	1474834946288	1474834946336	r	82
217694	2362675	Trow said the profit return was very high.	Trow said the profit return was very high.	112261929	1474834946424	1474834946544	n	78
217694	2362675	Trow said the profit return was very high.	Trow said the profit return was very high.	112261939	1474834946520	1474834946616	 	32
217694	2362675	Trow said the profit return was very high.	Trow said the profit return was very high.	112261947	1474834946728	1474834946848	w	87
217694	2362675	Trow said the profit return was very high.	Trow said the profit return was very high.	112261971	1474834946840	1474834946944	a	65
217694	2362675	Trow said the profit return was very high.	Trow said the profit return was very high.	112261975	1474834947216	1474834947304	s	83
217694	2362675	Trow said the profit return was very high.	Trow said the profit return was very high.	112261980	1474834947392	1474834947472	 	32
217694	2362675	Trow said the profit return was very high.	Trow said the profit return was very high.	112261985	1474834947488	1474834947552	v	86
217694	2362675	Trow said the profit return was very high.	Trow said the profit return was very high.	112261992	1474834947657	1474834947737	e	69
217694	2362675	Trow said the profit return was very high.	Trow said the profit return was very high.	112262021	1474834947729	1474834947817	r	82
217694	2362675	Trow said the profit return was very high.	Trow said the profit return was very high.	112262023	1474834947841	1474834947937	y	89
217694	2362675	Trow said the profit return was very high.	Trow said the profit return was very high.	112262024	1474834947921	1474834948025	 	32
217694	2362675	Trow said the profit return was very high.	Trow said the profit return was very high.	112262025	1474834948081	1474834948201	h	72
217694	2362675	Trow said the profit return was very high.	Trow said the profit return was very high.	112262026	1474834948177	1474834948249	i	73
217694	2362675	Trow said the profit return was very high.	Trow said the profit return was very high.	112262027	1474834948305	1474834948353	g	71
217694	2362675	Trow said the profit return was very high.	Trow said the profit return was very high.	112262053	1474834948361	1474834948409	h	72
217694	2362675	Trow said the profit return was very high.	Trow said the profit return was very high.	112262056	1474834948785	1474834948841	.	190
217694	2362686	Interesting, are you around for a late lunch?	Interesting, are you around for a late lunch?	112262186	1474834950577	1474834950785	SHIFT	16
217694	2362686	Interesting, are you around for a late lunch?	Interesting, are you around for a late lunch?	112262188	1474834950721	1474834950817	I	73
217694	2362686	Interesting, are you around for a late lunch?	Interesting, are you around for a late lunch?	112262189	1474834950857	1474834950921	n	78
217694	2362686	Interesting, are you around for a late lunch?	Interesting, are you around for a late lunch?	112262192	1474834950889	1474834950977	t	84
217694	2362686	Interesting, are you around for a late lunch?	Interesting, are you around for a late lunch?	112262197	1474834951105	1474834951169	e	69
217694	2362686	Interesting, are you around for a late lunch?	Interesting, are you around for a late lunch?	112262200	1474834951169	1474834951289	r	82
217694	2362686	Interesting, are you around for a late lunch?	Interesting, are you around for a late lunch?	112262252	1474834951273	1474834951361	e	69
217694	2362686	Interesting, are you around for a late lunch?	Interesting, are you around for a late lunch?	112262255	1474834951609	1474834951729	t	84
217694	2362686	Interesting, are you around for a late lunch?	Interesting, are you around for a late lunch?	112262256	1474834951977	1474834952033	BKSP	8
217694	2362686	Interesting, are you around for a late lunch?	Interesting, are you around for a late lunch?	112262261	1474834952105	1474834952193	s	83
217694	2362686	Interesting, are you around for a late lunch?	Interesting, are you around for a late lunch?	112262263	1474834952169	1474834952242	t	84
217694	2362686	Interesting, are you around for a late lunch?	Interesting, are you around for a late lunch?	112262270	1474834952313	1474834952401	i	73
217694	2362686	Interesting, are you around for a late lunch?	Interesting, are you around for a late lunch?	112262303	1474834952369	1474834952449	n	78
217694	2362686	Interesting, are you around for a late lunch?	Interesting, are you around for a late lunch?	112262306	1474834952497	1474834952561	g	71
217694	2362686	Interesting, are you around for a late lunch?	Interesting, are you around for a late lunch?	112262312	1474834952657	1474834952769	,	188
217694	2362686	Interesting, are you around for a late lunch?	Interesting, are you around for a late lunch?	112262318	1474834952745	1474834952857	 	32
217694	2362686	Interesting, are you around for a late lunch?	Interesting, are you around for a late lunch?	112262323	1474834952921	1474834953065	a	65
217694	2362686	Interesting, are you around for a late lunch?	Interesting, are you around for a late lunch?	112262349	1474834953041	1474834953169	r	82
217694	2362686	Interesting, are you around for a late lunch?	Interesting, are you around for a late lunch?	112262353	1474834953153	1474834953233	e	69
217694	2362686	Interesting, are you around for a late lunch?	Interesting, are you around for a late lunch?	112262358	1474834953321	1474834953410	 	32
217694	2362686	Interesting, are you around for a late lunch?	Interesting, are you around for a late lunch?	112262365	1474834953569	1474834953649	y	89
217694	2362686	Interesting, are you around for a late lunch?	Interesting, are you around for a late lunch?	112262369	1474834953705	1474834953865	o	79
217694	2362686	Interesting, are you around for a late lunch?	Interesting, are you around for a late lunch?	112262389	1474834953793	1474834953937	u	85
217694	2362686	Interesting, are you around for a late lunch?	Interesting, are you around for a late lunch?	112262392	1474834953914	1474834954008	 	32
217694	2362686	Interesting, are you around for a late lunch?	Interesting, are you around for a late lunch?	112262394	1474834954001	1474834954153	a	65
217694	2362686	Interesting, are you around for a late lunch?	Interesting, are you around for a late lunch?	112262398	1474834954129	1474834954209	r	82
217694	2362686	Interesting, are you around for a late lunch?	Interesting, are you around for a late lunch?	112262401	1474834954265	1474834954361	o	79
217694	2362686	Interesting, are you around for a late lunch?	Interesting, are you around for a late lunch?	112262427	1474834954329	1474834954385	u	85
217694	2362686	Interesting, are you around for a late lunch?	Interesting, are you around for a late lunch?	112262438	1474834954511	1474834954569	n	78
217694	2362686	Interesting, are you around for a late lunch?	Interesting, are you around for a late lunch?	112262447	1474834954561	1474834954633	d	68
217694	2362686	Interesting, are you around for a late lunch?	Interesting, are you around for a late lunch?	112262456	1474834954657	1474834954729	 	32
217694	2362686	Interesting, are you around for a late lunch?	Interesting, are you around for a late lunch?	112262465	1474834954769	1474834954841	f	70
217694	2362686	Interesting, are you around for a late lunch?	Interesting, are you around for a late lunch?	112262473	1474834954897	1474834954945	o	79
217694	2362686	Interesting, are you around for a late lunch?	Interesting, are you around for a late lunch?	112262496	1474834954937	1474834954993	r	82
217694	2362686	Interesting, are you around for a late lunch?	Interesting, are you around for a late lunch?	112262500	1474834955057	1474834955105	 	32
217694	2362686	Interesting, are you around for a late lunch?	Interesting, are you around for a late lunch?	112262506	1474834955169	1474834955313	a	65
217694	2362686	Interesting, are you around for a late lunch?	Interesting, are you around for a late lunch?	112262513	1474834955369	1474834955449	 	32
217694	2362686	Interesting, are you around for a late lunch?	Interesting, are you around for a late lunch?	112262520	1474834955553	1474834955625	l	76
217694	2362686	Interesting, are you around for a late lunch?	Interesting, are you around for a late lunch?	112262538	1474834955585	1474834955721	a	65
217694	2362686	Interesting, are you around for a late lunch?	Interesting, are you around for a late lunch?	112262542	1474834955713	1474834955825	t	84
217694	2362686	Interesting, are you around for a late lunch?	Interesting, are you around for a late lunch?	112262548	1474834955801	1474834955921	e	69
217694	2362686	Interesting, are you around for a late lunch?	Interesting, are you around for a late lunch?	112262553	1474834955961	1474834956041	 	32
217694	2362686	Interesting, are you around for a late lunch?	Interesting, are you around for a late lunch?	112262562	1474834956097	1474834956201	l	76
217694	2362686	Interesting, are you around for a late lunch?	Interesting, are you around for a late lunch?	112262616	1474834956185	1474834956233	u	85
217694	2362686	Interesting, are you around for a late lunch?	Interesting, are you around for a late lunch?	112262620	1474834956353	1474834956401	n	78
217694	2362686	Interesting, are you around for a late lunch?	Interesting, are you around for a late lunch?	112262626	1474834956425	1474834956481	c	67
217694	2362686	Interesting, are you around for a late lunch?	Interesting, are you around for a late lunch?	112262631	1474834956521	1474834956585	h	72
217694	2362686	Interesting, are you around for a late lunch?	Interesting, are you around for a late lunch?	112262636	1474834957033	1474834957137	SHIFT	16
217694	2362692	Both sides had indicated interest in a cessation of hostilities	Both sides had indicated interest in a cessation of hostilities	112262787	1474834958841	1474834959064	SHIFT	16
217694	2362692	Both sides had indicated interest in a cessation of hostilities	Both sides had indicated interest in a cessation of hostilities	112262783	1474834958977	1474834959016	B	66
217694	2362692	Both sides had indicated interest in a cessation of hostilities	Both sides had indicated interest in a cessation of hostilities	112262796	1474834959144	1474834959209	o	79
217694	2362692	Both sides had indicated interest in a cessation of hostilities	Both sides had indicated interest in a cessation of hostilities	112262799	1474834959242	1474834959297	t	84
217694	2362692	Both sides had indicated interest in a cessation of hostilities	Both sides had indicated interest in a cessation of hostilities	112262803	1474834959376	1474834959480	h	72
217694	2362692	Both sides had indicated interest in a cessation of hostilities	Both sides had indicated interest in a cessation of hostilities	112262815	1474834959464	1474834959552	 	32
217694	2362692	Both sides had indicated interest in a cessation of hostilities	Both sides had indicated interest in a cessation of hostilities	112262816	1474834959576	1474834959672	s	83
217694	2362692	Both sides had indicated interest in a cessation of hostilities	Both sides had indicated interest in a cessation of hostilities	112262818	1474834959697	1474834959761	i	73
217694	2362692	Both sides had indicated interest in a cessation of hostilities	Both sides had indicated interest in a cessation of hostilities	112262820	1474834959792	1474834959824	d	68
217694	2362692	Both sides had indicated interest in a cessation of hostilities	Both sides had indicated interest in a cessation of hostilities	112262822	1474834959922	1474834960040	e	69
217694	2362692	Both sides had indicated interest in a cessation of hostilities	Both sides had indicated interest in a cessation of hostilities	112262842	1474834960024	1474834960128	s	83
217694	2362692	Both sides had indicated interest in a cessation of hostilities	Both sides had indicated interest in a cessation of hostilities	112262846	1474834960184	1474834960272	 	32
217694	2362692	Both sides had indicated interest in a cessation of hostilities	Both sides had indicated interest in a cessation of hostilities	112262849	1474834960432	1474834960480	h	72
217694	2362692	Both sides had indicated interest in a cessation of hostilities	Both sides had indicated interest in a cessation of hostilities	112262852	1474834960520	1474834960672	a	65
217694	2362692	Both sides had indicated interest in a cessation of hostilities	Both sides had indicated interest in a cessation of hostilities	112262856	1474834960656	1474834960728	d	68
217694	2362692	Both sides had indicated interest in a cessation of hostilities	Both sides had indicated interest in a cessation of hostilities	112262863	1474834960800	1474834960856	 	32
217694	2362692	Both sides had indicated interest in a cessation of hostilities	Both sides had indicated interest in a cessation of hostilities	112262871	1474834960936	1474834960984	i	73
217694	2362692	Both sides had indicated interest in a cessation of hostilities	Both sides had indicated interest in a cessation of hostilities	112262872	1474834961081	1474834961136	n	78
217694	2362692	Both sides had indicated interest in a cessation of hostilities	Both sides had indicated interest in a cessation of hostilities	112262873	1474834961208	1474834961256	i	73
217694	2362692	Both sides had indicated interest in a cessation of hostilities	Both sides had indicated interest in a cessation of hostilities	112262874	1474834961344	1474834961384	d	68
217694	2362692	Both sides had indicated interest in a cessation of hostilities	Both sides had indicated interest in a cessation of hostilities	112262875	1474834961464	1474834961504	i	73
217694	2362692	Both sides had indicated interest in a cessation of hostilities	Both sides had indicated interest in a cessation of hostilities	112262949	1474834961888	1474834961945	BKSP	8
217694	2362692	Both sides had indicated interest in a cessation of hostilities	Both sides had indicated interest in a cessation of hostilities	112262951	1474834962033	1474834962096	BKSP	8
217694	2362692	Both sides had indicated interest in a cessation of hostilities	Both sides had indicated interest in a cessation of hostilities	112262953	1474834962176	1474834962240	BKSP	8
217694	2362692	Both sides had indicated interest in a cessation of hostilities	Both sides had indicated interest in a cessation of hostilities	112262956	1474834962344	1474834962408	d	68
217694	2362692	Both sides had indicated interest in a cessation of hostilities	Both sides had indicated interest in a cessation of hostilities	112262959	1474834962432	1474834962488	i	73
217694	2362692	Both sides had indicated interest in a cessation of hostilities	Both sides had indicated interest in a cessation of hostilities	112262962	1474834962616	1474834962736	c	67
217694	2362692	Both sides had indicated interest in a cessation of hostilities	Both sides had indicated interest in a cessation of hostilities	112262966	1474834962697	1474834962856	a	65
217694	2362692	Both sides had indicated interest in a cessation of hostilities	Both sides had indicated interest in a cessation of hostilities	112262973	1474834962857	1474834962984	t	84
217694	2362692	Both sides had indicated interest in a cessation of hostilities	Both sides had indicated interest in a cessation of hostilities	112262987	1474834963000	1474834963096	e	69
217694	2362692	Both sides had indicated interest in a cessation of hostilities	Both sides had indicated interest in a cessation of hostilities	112262993	1474834963208	1474834963288	d	68
217694	2362692	Both sides had indicated interest in a cessation of hostilities	Both sides had indicated interest in a cessation of hostilities	112262997	1474834963328	1474834963400	 	32
217694	2362692	Both sides had indicated interest in a cessation of hostilities	Both sides had indicated interest in a cessation of hostilities	112263002	1474834963480	1474834963608	i	73
217694	2362692	Both sides had indicated interest in a cessation of hostilities	Both sides had indicated interest in a cessation of hostilities	112263033	1474834963568	1474834963696	n	78
217694	2362692	Both sides had indicated interest in a cessation of hostilities	Both sides had indicated interest in a cessation of hostilities	112263038	1474834963648	1474834963704	t	84
217694	2362692	Both sides had indicated interest in a cessation of hostilities	Both sides had indicated interest in a cessation of hostilities	112263045	1474834963784	1474834963856	e	69
217694	2362692	Both sides had indicated interest in a cessation of hostilities	Both sides had indicated interest in a cessation of hostilities	112263049	1474834963864	1474834963961	r	82
217694	2362692	Both sides had indicated interest in a cessation of hostilities	Both sides had indicated interest in a cessation of hostilities	112263054	1474834963944	1474834964008	e	69
217694	2362692	Both sides had indicated interest in a cessation of hostilities	Both sides had indicated interest in a cessation of hostilities	112263057	1474834964120	1474834964216	s	83
217694	2362692	Both sides had indicated interest in a cessation of hostilities	Both sides had indicated interest in a cessation of hostilities	112263067	1474834964240	1474834964312	t	84
217694	2362692	Both sides had indicated interest in a cessation of hostilities	Both sides had indicated interest in a cessation of hostilities	112263070	1474834964368	1474834964464	 	32
217694	2362692	Both sides had indicated interest in a cessation of hostilities	Both sides had indicated interest in a cessation of hostilities	112263073	1474834964488	1474834964633	i	73
217694	2362692	Both sides had indicated interest in a cessation of hostilities	Both sides had indicated interest in a cessation of hostilities	112263077	1474834964582	1474834964688	n	78
217694	2362692	Both sides had indicated interest in a cessation of hostilities	Both sides had indicated interest in a cessation of hostilities	112263114	1474834964641	1474834964728	 	32
217694	2362692	Both sides had indicated interest in a cessation of hostilities	Both sides had indicated interest in a cessation of hostilities	112263118	1474834964784	1474834964920	a	65
217694	2362692	Both sides had indicated interest in a cessation of hostilities	Both sides had indicated interest in a cessation of hostilities	112263122	1474834964904	1474834964984	 	32
217694	2362692	Both sides had indicated interest in a cessation of hostilities	Both sides had indicated interest in a cessation of hostilities	112263126	1474834965056	1474834965129	c	67
217694	2362692	Both sides had indicated interest in a cessation of hostilities	Both sides had indicated interest in a cessation of hostilities	112263131	1474834965169	1474834965209	l	76
217694	2362692	Both sides had indicated interest in a cessation of hostilities	Both sides had indicated interest in a cessation of hostilities	112263135	1474834965441	1474834965489	BKSP	8
217694	2362692	Both sides had indicated interest in a cessation of hostilities	Both sides had indicated interest in a cessation of hostilities	112263139	1474834965545	1474834965601	e	69
217694	2362692	Both sides had indicated interest in a cessation of hostilities	Both sides had indicated interest in a cessation of hostilities	112263173	1474834965897	1474834965961	s	83
217694	2362692	Both sides had indicated interest in a cessation of hostilities	Both sides had indicated interest in a cessation of hostilities	112263179	1474834965994	1474834966081	s	83
217694	2362692	Both sides had indicated interest in a cessation of hostilities	Both sides had indicated interest in a cessation of hostilities	112263185	1474834966073	1474834966225	a	65
217694	2362692	Both sides had indicated interest in a cessation of hostilities	Both sides had indicated interest in a cessation of hostilities	112263191	1474834966233	1474834966313	t	84
217694	2362692	Both sides had indicated interest in a cessation of hostilities	Both sides had indicated interest in a cessation of hostilities	112263199	1474834966345	1474834966513	i	73
217694	2362692	Both sides had indicated interest in a cessation of hostilities	Both sides had indicated interest in a cessation of hostilities	112263231	1474834966425	1474834966561	o	79
217694	2362692	Both sides had indicated interest in a cessation of hostilities	Both sides had indicated interest in a cessation of hostilities	112263234	1474834966481	1474834966649	n	78
217694	2362692	Both sides had indicated interest in a cessation of hostilities	Both sides had indicated interest in a cessation of hostilities	112263238	1474834966585	1474834966705	 	32
217694	2362692	Both sides had indicated interest in a cessation of hostilities	Both sides had indicated interest in a cessation of hostilities	112263242	1474834966681	1474834966761	o	79
217694	2362692	Both sides had indicated interest in a cessation of hostilities	Both sides had indicated interest in a cessation of hostilities	112263247	1474834966793	1474834966889	f	70
217694	2362692	Both sides had indicated interest in a cessation of hostilities	Both sides had indicated interest in a cessation of hostilities	112263251	1474834966937	1474834967041	 	32
217694	2362692	Both sides had indicated interest in a cessation of hostilities	Both sides had indicated interest in a cessation of hostilities	112263255	1474834967105	1474834967177	h	72
217694	2362692	Both sides had indicated interest in a cessation of hostilities	Both sides had indicated interest in a cessation of hostilities	112263309	1474834967161	1474834967257	o	79
217694	2362692	Both sides had indicated interest in a cessation of hostilities	Both sides had indicated interest in a cessation of hostilities	112263312	1474834967345	1474834967417	s	83
217694	2362692	Both sides had indicated interest in a cessation of hostilities	Both sides had indicated interest in a cessation of hostilities	112263315	1474834967721	1474834967785	t	84
217694	2362692	Both sides had indicated interest in a cessation of hostilities	Both sides had indicated interest in a cessation of hostilities	112263318	1474834967873	1474834967930	i	73
217694	2362692	Both sides had indicated interest in a cessation of hostilities	Both sides had indicated interest in a cessation of hostilities	112263322	1474834968105	1474834968201	l	76
217694	2362692	Both sides had indicated interest in a cessation of hostilities	Both sides had indicated interest in a cessation of hostilities	112263326	1474834968233	1474834968305	i	73
217694	2362692	Both sides had indicated interest in a cessation of hostilities	Both sides had indicated interest in a cessation of hostilities	112263387	1474834968513	1474834968577	t	84
217694	2362692	Both sides had indicated interest in a cessation of hostilities	Both sides had indicated interest in a cessation of hostilities	112263393	1474834968625	1474834968681	i	73
217694	2362692	Both sides had indicated interest in a cessation of hostilities	Both sides had indicated interest in a cessation of hostilities	112263397	1474834968753	1474834968881	e	69
217694	2362692	Both sides had indicated interest in a cessation of hostilities	Both sides had indicated interest in a cessation of hostilities	112263402	1474834968873	1474834968969	s	83
217694	2362708	It looks like there are three new demand charges.	It looks like there are three new demand charges.	112263576	1474834971841	1474834972009	SHIFT	16
217694	2362708	It looks like there are three new demand charges.	It looks like there are three new demand charges.	112263579	1474834971977	1474834972049	I	73
217694	2362708	It looks like there are three new demand charges.	It looks like there are three new demand charges.	112263582	1474834972065	1474834972153	t	84
217694	2362708	It looks like there are three new demand charges.	It looks like there are three new demand charges.	112263585	1474834972249	1474834972313	 	32
217694	2362708	It looks like there are three new demand charges.	It looks like there are three new demand charges.	112263588	1474834972369	1474834972409	l	76
217694	2362708	It looks like there are three new demand charges.	It looks like there are three new demand charges.	112263593	1474834972513	1474834972593	o	79
217694	2362708	It looks like there are three new demand charges.	It looks like there are three new demand charges.	112263626	1474834972633	1474834972761	o	79
217694	2362708	It looks like there are three new demand charges.	It looks like there are three new demand charges.	112263629	1474834973081	1474834973121	k	75
217694	2362708	It looks like there are three new demand charges.	It looks like there are three new demand charges.	112263633	1474834973225	1474834973304	s	83
217694	2362708	It looks like there are three new demand charges.	It looks like there are three new demand charges.	112263638	1474834973337	1474834973385	 	32
217694	2362708	It looks like there are three new demand charges.	It looks like there are three new demand charges.	112263643	1474834973449	1474834973552	l	76
217694	2362708	It looks like there are three new demand charges.	It looks like there are three new demand charges.	112263673	1474834973537	1474834973601	i	73
217694	2362708	It looks like there are three new demand charges.	It looks like there are three new demand charges.	112263675	1474834973705	1474834973777	k	75
217694	2362708	It looks like there are three new demand charges.	It looks like there are three new demand charges.	112263677	1474834973817	1474834973881	e	69
217694	2362708	It looks like there are three new demand charges.	It looks like there are three new demand charges.	112263680	1474834973921	1474834973993	 	32
217694	2362708	It looks like there are three new demand charges.	It looks like there are three new demand charges.	112263683	1474834974057	1474834974144	t	84
217694	2362708	It looks like there are three new demand charges.	It looks like there are three new demand charges.	112263687	1474834974193	1474834974249	h	72
217694	2362708	It looks like there are three new demand charges.	It looks like there are three new demand charges.	112263730	1474834974297	1474834974353	e	69
217694	2362708	It looks like there are three new demand charges.	It looks like there are three new demand charges.	112263735	1474834974369	1474834974480	r	82
217694	2362708	It looks like there are three new demand charges.	It looks like there are three new demand charges.	112263738	1474834974473	1474834974545	e	69
217694	2362708	It looks like there are three new demand charges.	It looks like there are three new demand charges.	112263743	1474834974894	1474834974961	 	32
217694	2362708	It looks like there are three new demand charges.	It looks like there are three new demand charges.	112263746	1474834974977	1474834975080	a	65
217694	2362708	It looks like there are three new demand charges.	It looks like there are three new demand charges.	112263782	1474834975057	1474834975161	r	82
217694	2362708	It looks like there are three new demand charges.	It looks like there are three new demand charges.	112263786	1474834975145	1474834975249	e	69
217694	2362708	It looks like there are three new demand charges.	It looks like there are three new demand charges.	112263791	1474834975305	1474834975393	 	32
217694	2362708	It looks like there are three new demand charges.	It looks like there are three new demand charges.	112263795	1474834975409	1474834975481	t	84
217694	2362708	It looks like there are three new demand charges.	It looks like there are three new demand charges.	112263802	1474834975537	1474834975601	h	72
217694	2362708	It looks like there are three new demand charges.	It looks like there are three new demand charges.	112263807	1474834975617	1474834975768	r	82
217694	2362708	It looks like there are three new demand charges.	It looks like there are three new demand charges.	112263814	1474834975737	1474834975776	e	69
217694	2362708	It looks like there are three new demand charges.	It looks like there are three new demand charges.	112263817	1474834975849	1474834975945	e	69
217694	2362708	It looks like there are three new demand charges.	It looks like there are three new demand charges.	112263822	1474834975977	1474834976040	 	32
217694	2362708	It looks like there are three new demand charges.	It looks like there are three new demand charges.	112263825	1474834976105	1474834976184	n	78
217694	2362708	It looks like there are three new demand charges.	It looks like there are three new demand charges.	112263832	1474834976192	1474834976272	e	69
217694	2362708	It looks like there are three new demand charges.	It looks like there are three new demand charges.	112263853	1474834976257	1474834976360	w	87
217694	2362708	It looks like there are three new demand charges.	It looks like there are three new demand charges.	112263856	1474834976416	1474834976504	 	32
217694	2362708	It looks like there are three new demand charges.	It looks like there are three new demand charges.	112263860	1474834976577	1474834976632	d	68
217694	2362708	It looks like there are three new demand charges.	It looks like there are three new demand charges.	112263864	1474834976753	1474834976792	e	69
217694	2362708	It looks like there are three new demand charges.	It looks like there are three new demand charges.	112263868	1474834976856	1474834976913	m	77
217694	2362708	It looks like there are three new demand charges.	It looks like there are three new demand charges.	112263873	1474834976953	1474834977024	a	65
217694	2362708	It looks like there are three new demand charges.	It looks like there are three new demand charges.	112263910	1474834977080	1474834977136	n	78
217694	2362708	It looks like there are three new demand charges.	It looks like there are three new demand charges.	112263915	1474834977176	1474834977248	d	68
217694	2362708	It looks like there are three new demand charges.	It looks like there are three new demand charges.	112263919	1474834977321	1474834977392	 	32
217694	2362708	It looks like there are three new demand charges.	It looks like there are three new demand charges.	112263923	1474834977545	1474834977608	c	67
217694	2362708	It looks like there are three new demand charges.	It looks like there are three new demand charges.	112263927	1474834977664	1474834977704	h	72
217694	2362708	It looks like there are three new demand charges.	It looks like there are three new demand charges.	112263954	1474834977784	1474834977936	a	65
217694	2362708	It looks like there are three new demand charges.	It looks like there are three new demand charges.	112263956	1474834978296	1474834978352	r	82
217694	2362708	It looks like there are three new demand charges.	It looks like there are three new demand charges.	112263958	1474834978480	1474834978568	g	71
217694	2362708	It looks like there are three new demand charges.	It looks like there are three new demand charges.	112263960	1474834978624	1474834978744	e	69
217694	2362708	It looks like there are three new demand charges.	It looks like there are three new demand charges.	112263962	1474834978800	1474834978840	s	83
217694	2362708	It looks like there are three new demand charges.	It looks like there are three new demand charges.	112264152	1474834979472	1474834979520	.	190
217694	2362724	Mike, are you aware of this?	Mike, are you aware of this?	112264304	1474834984665	1474834984833	SHIFT	16
217694	2362724	Mike, are you aware of this?	Mike, are you aware of this?	112264301	1474834984737	1474834984793	M	77
217694	2362724	Mike, are you aware of this?	Mike, are you aware of this?	112264307	1474834984881	1474834984937	i	73
217694	2362724	Mike, are you aware of this?	Mike, are you aware of this?	112264310	1474834985055	1474834985105	k	75
217694	2362724	Mike, are you aware of this?	Mike, are you aware of this?	112264313	1474834985145	1474834985201	e	69
217694	2362724	Mike, are you aware of this?	Mike, are you aware of this?	112264317	1474834985289	1474834985417	,	188
217694	2362724	Mike, are you aware of this?	Mike, are you aware of this?	112264344	1474834985385	1474834985465	 	32
217694	2362724	Mike, are you aware of this?	Mike, are you aware of this?	112264348	1474834985481	1474834985593	a	65
217694	2362724	Mike, are you aware of this?	Mike, are you aware of this?	112264354	1474834985569	1474834985713	r	82
217694	2362724	Mike, are you aware of this?	Mike, are you aware of this?	112264358	1474834985673	1474834985753	e	69
217694	2362724	Mike, are you aware of this?	Mike, are you aware of this?	112264361	1474834985833	1474834985913	 	32
217694	2362724	Mike, are you aware of this?	Mike, are you aware of this?	112264364	1474834986009	1474834986073	y	89
217694	2362724	Mike, are you aware of this?	Mike, are you aware of this?	112264380	1474834986097	1474834986257	o	79
217694	2362724	Mike, are you aware of this?	Mike, are you aware of this?	112264383	1474834986169	1474834986297	u	85
217694	2362724	Mike, are you aware of this?	Mike, are you aware of this?	112264390	1474834986257	1474834986377	 	32
217694	2362724	Mike, are you aware of this?	Mike, are you aware of this?	112264393	1474834986385	1474834986505	a	65
217694	2362724	Mike, are you aware of this?	Mike, are you aware of this?	112264398	1474834986673	1474834986793	w	87
217694	2362724	Mike, are you aware of this?	Mike, are you aware of this?	112264414	1474834986809	1474834986929	a	65
217694	2362724	Mike, are you aware of this?	Mike, are you aware of this?	112264418	1474834987009	1474834987105	r	82
217694	2362724	Mike, are you aware of this?	Mike, are you aware of this?	112264421	1474834987081	1474834987145	e	69
217694	2362724	Mike, are you aware of this?	Mike, are you aware of this?	112264424	1474834987201	1474834987297	 	32
217694	2362724	Mike, are you aware of this?	Mike, are you aware of this?	112264431	1474834987289	1474834987369	o	79
217694	2362724	Mike, are you aware of this?	Mike, are you aware of this?	112264434	1474834987393	1474834987457	f	70
217694	2362724	Mike, are you aware of this?	Mike, are you aware of this?	112264438	1474834987489	1474834987553	 	32
217694	2362724	Mike, are you aware of this?	Mike, are you aware of this?	112264443	1474834987593	1474834987640	t	84
217694	2362724	Mike, are you aware of this?	Mike, are you aware of this?	112264449	1474834987665	1474834987728	h	72
217694	2362724	Mike, are you aware of this?	Mike, are you aware of this?	112264491	1474834987713	1474834987776	i	73
217694	2362724	Mike, are you aware of this?	Mike, are you aware of this?	112264493	1474834988105	1474834988177	s	83
217694	2362724	Mike, are you aware of this?	Mike, are you aware of this?	112264495	1474834988289	1474834988401	SHIFT	16
217694	2362731	Pressure to finish my review!	Pressure to finish my review!	112264663	1474834990913	1474834991129	SHIFT	16
217694	2362731	Pressure to finish my review!	Pressure to finish my review!	112264668	1474834991089	1474834991160	P	80
217694	2362731	Pressure to finish my review!	Pressure to finish my review!	112264672	1474834991176	1474834991312	r	82
217694	2362731	Pressure to finish my review!	Pressure to finish my review!	112264678	1474834991249	1474834991321	e	69
217694	2362731	Pressure to finish my review!	Pressure to finish my review!	112264684	1474834991425	1474834991489	s	83
217694	2362731	Pressure to finish my review!	Pressure to finish my review!	112264690	1474834991561	1474834991649	s	83
217694	2362731	Pressure to finish my review!	Pressure to finish my review!	112264714	1474834991665	1474834991729	u	85
217694	2362731	Pressure to finish my review!	Pressure to finish my review!	112264717	1474834991769	1474834991857	r	82
217694	2362731	Pressure to finish my review!	Pressure to finish my review!	112264718	1474834991841	1474834991913	e	69
217694	2362731	Pressure to finish my review!	Pressure to finish my review!	112264719	1474834991985	1474834992097	 	32
217694	2362731	Pressure to finish my review!	Pressure to finish my review!	112264720	1474834992161	1474834992232	t	84
217694	2362731	Pressure to finish my review!	Pressure to finish my review!	112264733	1474834992273	1474834992353	o	79
217694	2362731	Pressure to finish my review!	Pressure to finish my review!	112264737	1474834992361	1474834992457	 	32
217694	2362731	Pressure to finish my review!	Pressure to finish my review!	112264740	1474834992465	1474834992553	f	70
217694	2362731	Pressure to finish my review!	Pressure to finish my review!	112264743	1474834992577	1474834992633	i	73
217694	2362731	Pressure to finish my review!	Pressure to finish my review!	112264745	1474834992737	1474834992808	n	78
217694	2362731	Pressure to finish my review!	Pressure to finish my review!	112264761	1474834992857	1474834992913	i	73
217694	2362731	Pressure to finish my review!	Pressure to finish my review!	112264764	1474834992953	1474834993009	s	83
217694	2362731	Pressure to finish my review!	Pressure to finish my review!	112264768	1474834993032	1474834993097	h	72
217694	2362731	Pressure to finish my review!	Pressure to finish my review!	112264773	1474834993153	1474834993216	 	32
217694	2362731	Pressure to finish my review!	Pressure to finish my review!	112264776	1474834993273	1474834993353	m	77
217694	2362731	Pressure to finish my review!	Pressure to finish my review!	112264804	1474834993497	1474834993568	y	89
217694	2362731	Pressure to finish my review!	Pressure to finish my review!	112264806	1474834993577	1474834993676	 	32
217694	2362731	Pressure to finish my review!	Pressure to finish my review!	112264808	1474834993772	1474834993883	r	82
217694	2362731	Pressure to finish my review!	Pressure to finish my review!	112264811	1474834993836	1474834993932	e	69
217694	2362731	Pressure to finish my review!	Pressure to finish my review!	112264816	1474834994076	1474834994187	v	86
217694	2362731	Pressure to finish my review!	Pressure to finish my review!	112264856	1474834994235	1474834994299	i	73
217694	2362731	Pressure to finish my review!	Pressure to finish my review!	112264860	1474834994372	1474834994475	e	69
217694	2362731	Pressure to finish my review!	Pressure to finish my review!	112264864	1474834994444	1474834994548	w	87
217694	2362731	Pressure to finish my review!	Pressure to finish my review!	112264868	1474834994844	1474834995011	SHIFT	16
217694	2362731	Pressure to finish my review!	Pressure to finish my review!	112264871	1474834994947	1474834995020	!	49
217694	2362739	What a nice note.	What a nice note.	112264970	1474834997195	1474834997387	SHIFT	16
217694	2362739	What a nice note.	What a nice note.	112264974	1474834997331	1474834997451	W	87
217694	2362739	What a nice note.	What a nice note.	112264978	1474834997435	1474834997507	h	72
217694	2362739	What a nice note.	What a nice note.	112264984	1474834997547	1474834997659	a	65
217694	2362739	What a nice note.	What a nice note.	112264988	1474834997627	1474834997747	t	84
217694	2362739	What a nice note.	What a nice note.	112264993	1474834997755	1474834997827	 	32
217694	2362739	What a nice note.	What a nice note.	112265006	1474834997875	1474834997971	a	65
217694	2362739	What a nice note.	What a nice note.	112265009	1474834997979	1474834998043	 	32
217694	2362739	What a nice note.	What a nice note.	112265010	1474834998107	1474834998195	n	78
217694	2362739	What a nice note.	What a nice note.	112265013	1474834998203	1474834998243	i	73
217694	2362739	What a nice note.	What a nice note.	112265016	1474834998259	1474834998395	c	67
217694	2362739	What a nice note.	What a nice note.	112265040	1474834998379	1474834998491	e	69
217694	2362739	What a nice note.	What a nice note.	112265043	1474834998547	1474834998619	 	32
217694	2362739	What a nice note.	What a nice note.	112265046	1474834998731	1474834998811	n	78
217694	2362739	What a nice note.	What a nice note.	112265049	1474834998819	1474834998891	o	79
217694	2362739	What a nice note.	What a nice note.	112265051	1474834998923	1474834999036	t	84
217694	2362739	What a nice note.	What a nice note.	112265077	1474834999027	1474834999131	e	69
217694	2362739	What a nice note.	What a nice note.	112265081	1474834999515	1474834999571	.	190
217694	2362743	Police and the alleged bank robbers exchanged fire.	Police and the alleged bank robbers exchanged fire.	112265276	1474835002484	1474835002660	SHIFT	16
217694	2362743	Police and the alleged bank robbers exchanged fire.	Police and the alleged bank robbers exchanged fire.	112265281	1474835002604	1474835002676	P	80
217694	2362743	Police and the alleged bank robbers exchanged fire.	Police and the alleged bank robbers exchanged fire.	112265285	1474835002740	1474835002812	o	79
217694	2362743	Police and the alleged bank robbers exchanged fire.	Police and the alleged bank robbers exchanged fire.	112265287	1474835002924	1474835003028	l	76
217694	2362743	Police and the alleged bank robbers exchanged fire.	Police and the alleged bank robbers exchanged fire.	112265290	1474835003052	1474835003116	i	73
217694	2362743	Police and the alleged bank robbers exchanged fire.	Police and the alleged bank robbers exchanged fire.	112265293	1474835003316	1474835003468	c	67
217694	2362743	Police and the alleged bank robbers exchanged fire.	Police and the alleged bank robbers exchanged fire.	112265300	1474835003436	1474835003517	e	69
217694	2362743	Police and the alleged bank robbers exchanged fire.	Police and the alleged bank robbers exchanged fire.	112265303	1474835003508	1474835003580	 	32
217694	2362743	Police and the alleged bank robbers exchanged fire.	Police and the alleged bank robbers exchanged fire.	112265309	1474835003597	1474835003732	a	65
217694	2362743	Police and the alleged bank robbers exchanged fire.	Police and the alleged bank robbers exchanged fire.	112265311	1474835003685	1474835003733	n	78
217694	2362743	Police and the alleged bank robbers exchanged fire.	Police and the alleged bank robbers exchanged fire.	112265317	1474835003716	1474835003805	d	68
217694	2362743	Police and the alleged bank robbers exchanged fire.	Police and the alleged bank robbers exchanged fire.	112265330	1474835003796	1474835003868	 	32
217694	2362743	Police and the alleged bank robbers exchanged fire.	Police and the alleged bank robbers exchanged fire.	112265333	1474835003924	1474835004020	t	84
217694	2362743	Police and the alleged bank robbers exchanged fire.	Police and the alleged bank robbers exchanged fire.	112265336	1474835003980	1474835004044	h	72
217694	2362743	Police and the alleged bank robbers exchanged fire.	Police and the alleged bank robbers exchanged fire.	112265339	1474835004045	1474835004116	e	69
217694	2362743	Police and the alleged bank robbers exchanged fire.	Police and the alleged bank robbers exchanged fire.	112265344	1474835004156	1474835004244	 	32
217694	2362743	Police and the alleged bank robbers exchanged fire.	Police and the alleged bank robbers exchanged fire.	112265350	1474835004268	1474835004356	a	65
217694	2362743	Police and the alleged bank robbers exchanged fire.	Police and the alleged bank robbers exchanged fire.	112265388	1474835004412	1474835004460	l	76
217694	2362743	Police and the alleged bank robbers exchanged fire.	Police and the alleged bank robbers exchanged fire.	112265391	1474835004548	1474835004612	l	76
217694	2362743	Police and the alleged bank robbers exchanged fire.	Police and the alleged bank robbers exchanged fire.	112265394	1474835004628	1474835004692	e	69
217694	2362743	Police and the alleged bank robbers exchanged fire.	Police and the alleged bank robbers exchanged fire.	112265395	1474835005148	1474835005244	g	71
217694	2362743	Police and the alleged bank robbers exchanged fire.	Police and the alleged bank robbers exchanged fire.	112265396	1474835005258	1474835005332	e	69
217694	2362743	Police and the alleged bank robbers exchanged fire.	Police and the alleged bank robbers exchanged fire.	112265408	1474835005460	1474835005572	d	68
217694	2362743	Police and the alleged bank robbers exchanged fire.	Police and the alleged bank robbers exchanged fire.	112265411	1474835005596	1474835005628	 	32
217694	2362743	Police and the alleged bank robbers exchanged fire.	Police and the alleged bank robbers exchanged fire.	112265414	1474835005692	1474835005780	b	66
217694	2362743	Police and the alleged bank robbers exchanged fire.	Police and the alleged bank robbers exchanged fire.	112265417	1474835005804	1474835005916	a	65
217694	2362743	Police and the alleged bank robbers exchanged fire.	Police and the alleged bank robbers exchanged fire.	112265420	1474835006196	1474835006252	n	78
217694	2362743	Police and the alleged bank robbers exchanged fire.	Police and the alleged bank robbers exchanged fire.	112265434	1474835006356	1474835006420	k	75
217694	2362743	Police and the alleged bank robbers exchanged fire.	Police and the alleged bank robbers exchanged fire.	112265436	1474835006524	1474835006604	 	32
217694	2362743	Police and the alleged bank robbers exchanged fire.	Police and the alleged bank robbers exchanged fire.	112265438	1474835006620	1474835006692	r	82
217694	2362743	Police and the alleged bank robbers exchanged fire.	Police and the alleged bank robbers exchanged fire.	112265441	1474835006732	1474835006788	o	79
217694	2362743	Police and the alleged bank robbers exchanged fire.	Police and the alleged bank robbers exchanged fire.	112265444	1474835006916	1474835006948	b	66
217694	2362743	Police and the alleged bank robbers exchanged fire.	Police and the alleged bank robbers exchanged fire.	112265467	1474835007044	1474835007108	b	66
217694	2362743	Police and the alleged bank robbers exchanged fire.	Police and the alleged bank robbers exchanged fire.	112265471	1474835007084	1474835007164	e	69
217694	2362743	Police and the alleged bank robbers exchanged fire.	Police and the alleged bank robbers exchanged fire.	112265474	1474835007140	1474835007292	r	82
217694	2362743	Police and the alleged bank robbers exchanged fire.	Police and the alleged bank robbers exchanged fire.	112265479	1474835007412	1474835007492	s	83
217694	2362743	Police and the alleged bank robbers exchanged fire.	Police and the alleged bank robbers exchanged fire.	112265482	1474835007604	1474835007644	 	32
217694	2362743	Police and the alleged bank robbers exchanged fire.	Police and the alleged bank robbers exchanged fire.	112265531	1474835007964	1474835008020	e	69
217694	2362743	Police and the alleged bank robbers exchanged fire.	Police and the alleged bank robbers exchanged fire.	112265535	1474835008148	1474835008212	x	88
217694	2362743	Police and the alleged bank robbers exchanged fire.	Police and the alleged bank robbers exchanged fire.	112265538	1474835008452	1474835008516	h	72
217694	2362743	Police and the alleged bank robbers exchanged fire.	Police and the alleged bank robbers exchanged fire.	112265544	1474835008812	1474835008852	BKSP	8
217694	2362743	Police and the alleged bank robbers exchanged fire.	Police and the alleged bank robbers exchanged fire.	112265547	1474835008908	1474835008996	c	67
217694	2362743	Police and the alleged bank robbers exchanged fire.	Police and the alleged bank robbers exchanged fire.	112265552	1474835009028	1474835009068	h	72
217694	2362743	Police and the alleged bank robbers exchanged fire.	Police and the alleged bank robbers exchanged fire.	112265567	1474835009116	1474835009187	a	65
217694	2362743	Police and the alleged bank robbers exchanged fire.	Police and the alleged bank robbers exchanged fire.	112265568	1474835009195	1474835009251	n	78
217694	2362743	Police and the alleged bank robbers exchanged fire.	Police and the alleged bank robbers exchanged fire.	112265569	1474835009452	1474835009516	g	71
217694	2362743	Police and the alleged bank robbers exchanged fire.	Police and the alleged bank robbers exchanged fire.	112265570	1474835009684	1474835009764	e	69
217694	2362743	Police and the alleged bank robbers exchanged fire.	Police and the alleged bank robbers exchanged fire.	112265571	1474835009868	1474835009932	d	68
217694	2362743	Police and the alleged bank robbers exchanged fire.	Police and the alleged bank robbers exchanged fire.	112265606	1474835009988	1474835010076	 	32
217694	2362743	Police and the alleged bank robbers exchanged fire.	Police and the alleged bank robbers exchanged fire.	112265609	1474835010100	1474835010179	r	82
217694	2362743	Police and the alleged bank robbers exchanged fire.	Police and the alleged bank robbers exchanged fire.	112265612	1474835010284	1474835010300	i	73
217694	2362743	Police and the alleged bank robbers exchanged fire.	Police and the alleged bank robbers exchanged fire.	112265613	1474835010540	1474835010579	BKSP	8
217694	2362743	Police and the alleged bank robbers exchanged fire.	Police and the alleged bank robbers exchanged fire.	112265615	1474835010660	1474835010723	BKSP	8
217694	2362743	Police and the alleged bank robbers exchanged fire.	Police and the alleged bank robbers exchanged fire.	112265617	1474835010764	1474835010836	f	70
217694	2362743	Police and the alleged bank robbers exchanged fire.	Police and the alleged bank robbers exchanged fire.	112265619	1474835010868	1474835010931	i	73
217694	2362743	Police and the alleged bank robbers exchanged fire.	Police and the alleged bank robbers exchanged fire.	112265666	1474835010956	1474835011116	r	82
217694	2362743	Police and the alleged bank robbers exchanged fire.	Police and the alleged bank robbers exchanged fire.	112265671	1474835011124	1474835011211	e	69
217694	2362743	Police and the alleged bank robbers exchanged fire.	Police and the alleged bank robbers exchanged fire.	112265675	1474835011732	1474835011779	.	190
217694	2362757	Add a Star Trek convention and sports memorabilia show to the mix.	Add a Star Trek convention and sports memorabilia show to the mix.	112265794	1474835013571	1474835013739	SHIFT	16
217694	2362757	Add a Star Trek convention and sports memorabilia show to the mix.	Add a Star Trek convention and sports memorabilia show to the mix.	112265791	1474835013675	1474835013715	A	65
217694	2362757	Add a Star Trek convention and sports memorabilia show to the mix.	Add a Star Trek convention and sports memorabilia show to the mix.	112265798	1474835013875	1474835013915	d	68
217694	2362757	Add a Star Trek convention and sports memorabilia show to the mix.	Add a Star Trek convention and sports memorabilia show to the mix.	112265800	1474835014019	1474835014051	d	68
217694	2362757	Add a Star Trek convention and sports memorabilia show to the mix.	Add a Star Trek convention and sports memorabilia show to the mix.	112265802	1474835014259	1474835014323	 	32
217694	2362757	Add a Star Trek convention and sports memorabilia show to the mix.	Add a Star Trek convention and sports memorabilia show to the mix.	112265804	1474835014331	1474835014419	a	65
217694	2362757	Add a Star Trek convention and sports memorabilia show to the mix.	Add a Star Trek convention and sports memorabilia show to the mix.	112265836	1474835014435	1474835014532	 	32
217694	2362757	Add a Star Trek convention and sports memorabilia show to the mix.	Add a Star Trek convention and sports memorabilia show to the mix.	112265842	1474835014755	1474835014907	SHIFT	16
217694	2362757	Add a Star Trek convention and sports memorabilia show to the mix.	Add a Star Trek convention and sports memorabilia show to the mix.	112265848	1474835014851	1474835015011	S	83
217694	2362757	Add a Star Trek convention and sports memorabilia show to the mix.	Add a Star Trek convention and sports memorabilia show to the mix.	112265852	1474835015012	1474835015123	t	84
217694	2362757	Add a Star Trek convention and sports memorabilia show to the mix.	Add a Star Trek convention and sports memorabilia show to the mix.	112265856	1474835015155	1474835015291	a	65
217694	2362757	Add a Star Trek convention and sports memorabilia show to the mix.	Add a Star Trek convention and sports memorabilia show to the mix.	112265893	1474835015273	1474835015371	r	82
217694	2362757	Add a Star Trek convention and sports memorabilia show to the mix.	Add a Star Trek convention and sports memorabilia show to the mix.	112265895	1474835015491	1474835015595	 	32
217694	2362757	Add a Star Trek convention and sports memorabilia show to the mix.	Add a Star Trek convention and sports memorabilia show to the mix.	112265898	1474835015579	1474835015723	SHIFT	16
217694	2362757	Add a Star Trek convention and sports memorabilia show to the mix.	Add a Star Trek convention and sports memorabilia show to the mix.	112265902	1474835015684	1474835015731	T	84
217694	2362757	Add a Star Trek convention and sports memorabilia show to the mix.	Add a Star Trek convention and sports memorabilia show to the mix.	112265907	1474835015835	1474835015971	r	82
217694	2362757	Add a Star Trek convention and sports memorabilia show to the mix.	Add a Star Trek convention and sports memorabilia show to the mix.	112265910	1474835015939	1474835015987	e	69
217694	2362757	Add a Star Trek convention and sports memorabilia show to the mix.	Add a Star Trek convention and sports memorabilia show to the mix.	112265916	1474835016139	1474835016227	k	75
217694	2362757	Add a Star Trek convention and sports memorabilia show to the mix.	Add a Star Trek convention and sports memorabilia show to the mix.	112265930	1474835016235	1474835016363	 	32
217694	2362757	Add a Star Trek convention and sports memorabilia show to the mix.	Add a Star Trek convention and sports memorabilia show to the mix.	112265932	1474835016459	1474835016555	c	67
217694	2362757	Add a Star Trek convention and sports memorabilia show to the mix.	Add a Star Trek convention and sports memorabilia show to the mix.	112265934	1474835016563	1474835016683	o	79
217694	2362757	Add a Star Trek convention and sports memorabilia show to the mix.	Add a Star Trek convention and sports memorabilia show to the mix.	112265936	1474835016643	1474835016755	n	78
217694	2362757	Add a Star Trek convention and sports memorabilia show to the mix.	Add a Star Trek convention and sports memorabilia show to the mix.	112265938	1474835016763	1474835016843	v	86
217694	2362757	Add a Star Trek convention and sports memorabilia show to the mix.	Add a Star Trek convention and sports memorabilia show to the mix.	112265957	1474835016931	1474835016995	e	69
217694	2362757	Add a Star Trek convention and sports memorabilia show to the mix.	Add a Star Trek convention and sports memorabilia show to the mix.	112265960	1474835017083	1474835017163	n	78
217694	2362757	Add a Star Trek convention and sports memorabilia show to the mix.	Add a Star Trek convention and sports memorabilia show to the mix.	112265965	1474835017203	1474835017275	t	84
217694	2362757	Add a Star Trek convention and sports memorabilia show to the mix.	Add a Star Trek convention and sports memorabilia show to the mix.	112265968	1474835017347	1474835017507	i	73
217694	2362757	Add a Star Trek convention and sports memorabilia show to the mix.	Add a Star Trek convention and sports memorabilia show to the mix.	112265993	1474835017419	1474835017556	o	79
217694	2362757	Add a Star Trek convention and sports memorabilia show to the mix.	Add a Star Trek convention and sports memorabilia show to the mix.	112265998	1474835017483	1474835017644	n	78
217694	2362757	Add a Star Trek convention and sports memorabilia show to the mix.	Add a Star Trek convention and sports memorabilia show to the mix.	112266007	1474835017596	1474835017676	 	32
217694	2362757	Add a Star Trek convention and sports memorabilia show to the mix.	Add a Star Trek convention and sports memorabilia show to the mix.	112266014	1474835017716	1474835017854	a	65
217694	2362757	Add a Star Trek convention and sports memorabilia show to the mix.	Add a Star Trek convention and sports memorabilia show to the mix.	112266020	1474835017844	1474835017916	n	78
217694	2362757	Add a Star Trek convention and sports memorabilia show to the mix.	Add a Star Trek convention and sports memorabilia show to the mix.	112266024	1474835017940	1474835018020	d	68
217694	2362757	Add a Star Trek convention and sports memorabilia show to the mix.	Add a Star Trek convention and sports memorabilia show to the mix.	112266029	1474835018068	1474835018148	 	32
217694	2362757	Add a Star Trek convention and sports memorabilia show to the mix.	Add a Star Trek convention and sports memorabilia show to the mix.	112266098	1474835018220	1474835018300	s	83
217694	2362757	Add a Star Trek convention and sports memorabilia show to the mix.	Add a Star Trek convention and sports memorabilia show to the mix.	112266099	1474835018412	1474835018508	p	80
217694	2362757	Add a Star Trek convention and sports memorabilia show to the mix.	Add a Star Trek convention and sports memorabilia show to the mix.	112266100	1474835018644	1474835018716	o	79
217694	2362757	Add a Star Trek convention and sports memorabilia show to the mix.	Add a Star Trek convention and sports memorabilia show to the mix.	112266101	1474835018756	1474835018836	r	82
217694	2362757	Add a Star Trek convention and sports memorabilia show to the mix.	Add a Star Trek convention and sports memorabilia show to the mix.	112266103	1474835019500	1474835019572	t	84
217694	2362757	Add a Star Trek convention and sports memorabilia show to the mix.	Add a Star Trek convention and sports memorabilia show to the mix.	112266137	1474835019652	1474835019724	s	83
217694	2362757	Add a Star Trek convention and sports memorabilia show to the mix.	Add a Star Trek convention and sports memorabilia show to the mix.	112266140	1474835019772	1474835019820	 	32
217694	2362757	Add a Star Trek convention and sports memorabilia show to the mix.	Add a Star Trek convention and sports memorabilia show to the mix.	112266145	1474835019924	1474835019980	m	77
217694	2362757	Add a Star Trek convention and sports memorabilia show to the mix.	Add a Star Trek convention and sports memorabilia show to the mix.	112266149	1474835020036	1474835020100	e	69
217694	2362757	Add a Star Trek convention and sports memorabilia show to the mix.	Add a Star Trek convention and sports memorabilia show to the mix.	112266152	1474835020124	1474835020236	m	77
217694	2362757	Add a Star Trek convention and sports memorabilia show to the mix.	Add a Star Trek convention and sports memorabilia show to the mix.	112266188	1474835020324	1474835020388	o	79
217694	2362757	Add a Star Trek convention and sports memorabilia show to the mix.	Add a Star Trek convention and sports memorabilia show to the mix.	112266191	1474835020452	1474835020516	r	82
217694	2362757	Add a Star Trek convention and sports memorabilia show to the mix.	Add a Star Trek convention and sports memorabilia show to the mix.	112266194	1474835020660	1474835020748	a	65
217694	2362757	Add a Star Trek convention and sports memorabilia show to the mix.	Add a Star Trek convention and sports memorabilia show to the mix.	112266197	1474835020844	1474835020900	b	66
217694	2362757	Add a Star Trek convention and sports memorabilia show to the mix.	Add a Star Trek convention and sports memorabilia show to the mix.	112266202	1474835021004	1474835021052	i	73
217694	2362757	Add a Star Trek convention and sports memorabilia show to the mix.	Add a Star Trek convention and sports memorabilia show to the mix.	112266236	1474835021196	1474835021252	l	76
217694	2362757	Add a Star Trek convention and sports memorabilia show to the mix.	Add a Star Trek convention and sports memorabilia show to the mix.	112266239	1474835021300	1474835021356	i	73
217694	2362757	Add a Star Trek convention and sports memorabilia show to the mix.	Add a Star Trek convention and sports memorabilia show to the mix.	112266242	1474835021468	1474835021540	a	65
217694	2362757	Add a Star Trek convention and sports memorabilia show to the mix.	Add a Star Trek convention and sports memorabilia show to the mix.	112266245	1474835021556	1474835021604	 	32
217694	2362757	Add a Star Trek convention and sports memorabilia show to the mix.	Add a Star Trek convention and sports memorabilia show to the mix.	112266250	1474835022028	1474835022100	s	83
217694	2362757	Add a Star Trek convention and sports memorabilia show to the mix.	Add a Star Trek convention and sports memorabilia show to the mix.	112266276	1474835022132	1474835022172	h	72
217694	2362757	Add a Star Trek convention and sports memorabilia show to the mix.	Add a Star Trek convention and sports memorabilia show to the mix.	112266279	1474835022252	1474835022292	o	79
217694	2362757	Add a Star Trek convention and sports memorabilia show to the mix.	Add a Star Trek convention and sports memorabilia show to the mix.	112266282	1474835022372	1474835022420	w	87
217694	2362757	Add a Star Trek convention and sports memorabilia show to the mix.	Add a Star Trek convention and sports memorabilia show to the mix.	112266284	1474835022468	1474835022534	 	32
217694	2362757	Add a Star Trek convention and sports memorabilia show to the mix.	Add a Star Trek convention and sports memorabilia show to the mix.	112266287	1474835022588	1474835022652	t	84
217694	2362757	Add a Star Trek convention and sports memorabilia show to the mix.	Add a Star Trek convention and sports memorabilia show to the mix.	112266315	1474835022644	1474835022756	o	79
217694	2362757	Add a Star Trek convention and sports memorabilia show to the mix.	Add a Star Trek convention and sports memorabilia show to the mix.	112266318	1474835022732	1474835022828	 	32
217694	2362757	Add a Star Trek convention and sports memorabilia show to the mix.	Add a Star Trek convention and sports memorabilia show to the mix.	112266321	1474835022868	1474835022932	t	84
217694	2362757	Add a Star Trek convention and sports memorabilia show to the mix.	Add a Star Trek convention and sports memorabilia show to the mix.	112266323	1474835022940	1474835023012	h	72
217694	2362757	Add a Star Trek convention and sports memorabilia show to the mix.	Add a Star Trek convention and sports memorabilia show to the mix.	112266325	1474835023044	1474835023108	e	69
217694	2362757	Add a Star Trek convention and sports memorabilia show to the mix.	Add a Star Trek convention and sports memorabilia show to the mix.	112266327	1474835023116	1474835023236	 	32
217694	2362757	Add a Star Trek convention and sports memorabilia show to the mix.	Add a Star Trek convention and sports memorabilia show to the mix.	112266360	1474835023244	1474835023364	m	77
217694	2362757	Add a Star Trek convention and sports memorabilia show to the mix.	Add a Star Trek convention and sports memorabilia show to the mix.	112266361	1474835023372	1474835023420	i	73
217694	2362757	Add a Star Trek convention and sports memorabilia show to the mix.	Add a Star Trek convention and sports memorabilia show to the mix.	112266363	1474835023444	1474835023524	x	88
217694	2362757	Add a Star Trek convention and sports memorabilia show to the mix.	Add a Star Trek convention and sports memorabilia show to the mix.	112266367	1474835023940	1474835023996	.	190
217694	2362772	Did you talk to Ava this morning?	Did you talk to Ava this morning?	112266550	1474835026106	1474835026276	SHIFT	16
217694	2362772	Did you talk to Ava this morning?	Did you talk to Ava this morning?	112266554	1474835026228	1474835026340	D	68
217694	2362772	Did you talk to Ava this morning?	Did you talk to Ava this morning?	112266559	1474835026324	1474835026396	i	73
217694	2362772	Did you talk to Ava this morning?	Did you talk to Ava this morning?	112266562	1474835026636	1474835026700	d	68
217694	2362772	Did you talk to Ava this morning?	Did you talk to Ava this morning?	112266565	1474835026756	1474835026828	 	32
217694	2362772	Did you talk to Ava this morning?	Did you talk to Ava this morning?	112266567	1474835026908	1474835026972	y	89
217694	2362772	Did you talk to Ava this morning?	Did you talk to Ava this morning?	112266587	1474835026996	1474835027147	o	79
217694	2362772	Did you talk to Ava this morning?	Did you talk to Ava this morning?	112266593	1474835027100	1474835027171	u	85
217694	2362772	Did you talk to Ava this morning?	Did you talk to Ava this morning?	112266600	1474835027124	1474835027243	 	32
217694	2362772	Did you talk to Ava this morning?	Did you talk to Ava this morning?	112266609	1474835027325	1474835027403	t	84
217694	2362772	Did you talk to Ava this morning?	Did you talk to Ava this morning?	112266614	1474835027411	1474835027531	a	65
217694	2362772	Did you talk to Ava this morning?	Did you talk to Ava this morning?	112266659	1474835027516	1474835027644	l	76
217694	2362772	Did you talk to Ava this morning?	Did you talk to Ava this morning?	112266662	1474835027612	1474835027780	k	75
217694	2362772	Did you talk to Ava this morning?	Did you talk to Ava this morning?	112266665	1474835027716	1474835027844	 	32
217694	2362772	Did you talk to Ava this morning?	Did you talk to Ava this morning?	112266668	1474835028171	1474835028219	t	84
217694	2362772	Did you talk to Ava this morning?	Did you talk to Ava this morning?	112266670	1474835028252	1474835028386	o	79
217694	2362772	Did you talk to Ava this morning?	Did you talk to Ava this morning?	112266722	1474835028348	1474835028436	 	32
217694	2362772	Did you talk to Ava this morning?	Did you talk to Ava this morning?	112266725	1474835028468	1474835028723	SHIFT	16
217694	2362772	Did you talk to Ava this morning?	Did you talk to Ava this morning?	112266729	1474835028636	1474835028764	A	65
217694	2362772	Did you talk to Ava this morning?	Did you talk to Ava this morning?	112266733	1474835028868	1474835029036	v	86
217694	2362772	Did you talk to Ava this morning?	Did you talk to Ava this morning?	112266736	1474835029004	1474835029155	a	65
217694	2362772	Did you talk to Ava this morning?	Did you talk to Ava this morning?	112266741	1474835029204	1474835029307	 	32
217694	2362772	Did you talk to Ava this morning?	Did you talk to Ava this morning?	112266745	1474835029364	1474835029419	t	84
217694	2362772	Did you talk to Ava this morning?	Did you talk to Ava this morning?	112266744	1474835029412	1474835029500	h	72
217694	2362772	Did you talk to Ava this morning?	Did you talk to Ava this morning?	112266747	1474835029476	1474835029555	i	73
217694	2362772	Did you talk to Ava this morning?	Did you talk to Ava this morning?	112266750	1474835029580	1474835029643	s	83
217694	2362772	Did you talk to Ava this morning?	Did you talk to Ava this morning?	112266753	1474835029692	1474835029787	 	32
217694	2362772	Did you talk to Ava this morning?	Did you talk to Ava this morning?	112266758	1474835029811	1474835029899	m	77
217694	2362772	Did you talk to Ava this morning?	Did you talk to Ava this morning?	112266787	1474835029883	1474835029996	o	79
217694	2362772	Did you talk to Ava this morning?	Did you talk to Ava this morning?	112266789	1474835029980	1474835030059	r	82
217694	2362772	Did you talk to Ava this morning?	Did you talk to Ava this morning?	112266791	1474835030116	1474835030179	n	78
217694	2362772	Did you talk to Ava this morning?	Did you talk to Ava this morning?	112266793	1474835030227	1474835030307	i	73
217694	2362772	Did you talk to Ava this morning?	Did you talk to Ava this morning?	112266794	1474835030291	1474835030371	n	78
217694	2362772	Did you talk to Ava this morning?	Did you talk to Ava this morning?	112266796	1474835030379	1474835030435	g	71
217694	2362772	Did you talk to Ava this morning?	Did you talk to Ava this morning?	112266829	1474835030883	1474835031019	SHIFT	16
217694	2362772	Did you talk to Ava this morning?	Did you talk to Ava this morning?	112266831	1474835030987	1474835031067	?	191
217694	2362782	Now I know about them.	Now I know about them.	112266966	1474835033091	1474835033307	SHIFT	16
217694	2362782	Now I know about them.	Now I know about them.	112266970	1474835033235	1474835033339	N	78
217694	2362782	Now I know about them.	Now I know about them.	112266977	1474835033340	1474835033411	o	79
217694	2362782	Now I know about them.	Now I know about them.	112266980	1474835033459	1474835033555	w	87
217694	2362782	Now I know about them.	Now I know about them.	112266986	1474835033571	1474835033651	 	32
217694	2362782	Now I know about them.	Now I know about them.	112266990	1474835033675	1474835033747	i	73
217694	2362782	Now I know about them.	Now I know about them.	112267042	1474835033995	1474835034059	BKSP	8
217694	2362782	Now I know about them.	Now I know about them.	112267047	1474835034083	1474835034251	SHIFT	16
217694	2362782	Now I know about them.	Now I know about them.	112267051	1474835034211	1474835034331	I	73
217694	2362782	Now I know about them.	Now I know about them.	112267053	1474835034291	1474835034387	 	32
217694	2362782	Now I know about them.	Now I know about them.	112267054	1474835034491	1474835034619	k	75
217694	2362782	Now I know about them.	Now I know about them.	112267055	1474835034620	1474835034707	n	78
217694	2362782	Now I know about them.	Now I know about them.	112267094	1474835034691	1474835034795	o	79
217694	2362782	Now I know about them.	Now I know about them.	112267098	1474835034851	1474835034923	w	87
217694	2362782	Now I know about them.	Now I know about them.	112267102	1474835034947	1474835035036	 	32
217694	2362782	Now I know about them.	Now I know about them.	112267107	1474835035124	1474835035220	a	65
217694	2362782	Now I know about them.	Now I know about them.	112267115	1474835035276	1474835035348	b	66
217694	2362782	Now I know about them.	Now I know about them.	112267121	1474835035452	1474835035548	o	79
217694	2362782	Now I know about them.	Now I know about them.	112267131	1474835035524	1474835035580	u	85
217694	2362782	Now I know about them.	Now I know about them.	112267137	1474835035628	1474835035676	t	84
217694	2362782	Now I know about them.	Now I know about them.	112267139	1474835035708	1474835035772	 	32
217694	2362782	Now I know about them.	Now I know about them.	112267141	1474835035804	1474835035868	t	84
217694	2362782	Now I know about them.	Now I know about them.	112267144	1474835035869	1474835035924	h	72
217694	2362782	Now I know about them.	Now I know about them.	112267147	1474835035956	1474835036020	e	69
217694	2362782	Now I know about them.	Now I know about them.	112267187	1474835036044	1474835036100	m	77
217694	2362782	Now I know about them.	Now I know about them.	112267191	1474835036570	1474835036620	.	190
217694	2362788	I wasn't sure that you received the first e-mail.	I wasn't sure that you received the first e-mail.	112267316	1474835038324	1474835038532	SHIFT	16
217694	2362788	I wasn't sure that you received the first e-mail.	I wasn't sure that you received the first e-mail.	112267314	1474835038460	1474835038516	I	73
217694	2362788	I wasn't sure that you received the first e-mail.	I wasn't sure that you received the first e-mail.	112267318	1474835038604	1474835038700	 	32
217694	2362788	I wasn't sure that you received the first e-mail.	I wasn't sure that you received the first e-mail.	112267320	1474835038740	1474835038852	w	87
217694	2362788	I wasn't sure that you received the first e-mail.	I wasn't sure that you received the first e-mail.	112267323	1474835038860	1474835038996	a	65
217694	2362788	I wasn't sure that you received the first e-mail.	I wasn't sure that you received the first e-mail.	112267326	1474835039036	1474835039132	s	83
217694	2362788	I wasn't sure that you received the first e-mail.	I wasn't sure that you received the first e-mail.	112267359	1474835039172	1474835039236	n	78
217694	2362788	I wasn't sure that you received the first e-mail.	I wasn't sure that you received the first e-mail.	112267363	1474835039308	1474835039372	'	222
217694	2362788	I wasn't sure that you received the first e-mail.	I wasn't sure that you received the first e-mail.	112267369	1474835039420	1474835039484	t	84
217694	2362788	I wasn't sure that you received the first e-mail.	I wasn't sure that you received the first e-mail.	112267375	1474835039532	1474835039620	 	32
217694	2362788	I wasn't sure that you received the first e-mail.	I wasn't sure that you received the first e-mail.	112267383	1474835039660	1474835039772	s	83
217694	2362788	I wasn't sure that you received the first e-mail.	I wasn't sure that you received the first e-mail.	112267409	1474835039820	1474835039900	u	85
217694	2362788	I wasn't sure that you received the first e-mail.	I wasn't sure that you received the first e-mail.	112267413	1474835039988	1474835040132	r	82
217694	2362788	I wasn't sure that you received the first e-mail.	I wasn't sure that you received the first e-mail.	112267416	1474835040076	1474835040188	e	69
217694	2362788	I wasn't sure that you received the first e-mail.	I wasn't sure that you received the first e-mail.	112267419	1474835040252	1474835040348	 	32
217694	2362788	I wasn't sure that you received the first e-mail.	I wasn't sure that you received the first e-mail.	112267423	1474835040364	1474835040468	t	84
217694	2362788	I wasn't sure that you received the first e-mail.	I wasn't sure that you received the first e-mail.	112267440	1474835040476	1474835040532	h	72
217694	2362788	I wasn't sure that you received the first e-mail.	I wasn't sure that you received the first e-mail.	112267442	1474835040516	1474835040628	a	65
217694	2362788	I wasn't sure that you received the first e-mail.	I wasn't sure that you received the first e-mail.	112267446	1474835040604	1474835040692	t	84
217694	2362788	I wasn't sure that you received the first e-mail.	I wasn't sure that you received the first e-mail.	112267453	1474835040684	1474835040756	 	32
217694	2362788	I wasn't sure that you received the first e-mail.	I wasn't sure that you received the first e-mail.	112267458	1474835040868	1474835040932	y	89
217694	2362788	I wasn't sure that you received the first e-mail.	I wasn't sure that you received the first e-mail.	112267495	1474835040956	1474835041108	o	79
217694	2362788	I wasn't sure that you received the first e-mail.	I wasn't sure that you received the first e-mail.	112267497	1474835041020	1474835041161	u	85
217694	2362788	I wasn't sure that you received the first e-mail.	I wasn't sure that you received the first e-mail.	112267501	1474835041300	1474835041436	r	82
217694	2362788	I wasn't sure that you received the first e-mail.	I wasn't sure that you received the first e-mail.	112267504	1474835041420	1474835041516	e	69
217694	2362788	I wasn't sure that you received the first e-mail.	I wasn't sure that you received the first e-mail.	112267507	1474835041636	1474835041692	c	67
217694	2362788	I wasn't sure that you received the first e-mail.	I wasn't sure that you received the first e-mail.	112267553	1474835042108	1474835042196	e	69
217694	2362788	I wasn't sure that you received the first e-mail.	I wasn't sure that you received the first e-mail.	112267556	1474835042276	1474835042340	i	73
217694	2362788	I wasn't sure that you received the first e-mail.	I wasn't sure that you received the first e-mail.	112267558	1474835042396	1474835042516	v	86
217694	2362788	I wasn't sure that you received the first e-mail.	I wasn't sure that you received the first e-mail.	112267560	1474835042508	1474835042604	e	69
217694	2362788	I wasn't sure that you received the first e-mail.	I wasn't sure that you received the first e-mail.	112267562	1474835042673	1474835042732	d	68
217694	2362788	I wasn't sure that you received the first e-mail.	I wasn't sure that you received the first e-mail.	112267573	1474835042748	1474835042828	 	32
217694	2362788	I wasn't sure that you received the first e-mail.	I wasn't sure that you received the first e-mail.	112267577	1474835042852	1474835042932	t	84
217694	2362788	I wasn't sure that you received the first e-mail.	I wasn't sure that you received the first e-mail.	112267582	1474835042940	1474835042996	h	72
217694	2362788	I wasn't sure that you received the first e-mail.	I wasn't sure that you received the first e-mail.	112267587	1474835042964	1474835043028	e	69
217694	2362788	I wasn't sure that you received the first e-mail.	I wasn't sure that you received the first e-mail.	112267594	1474835043084	1474835043196	 	32
217694	2362788	I wasn't sure that you received the first e-mail.	I wasn't sure that you received the first e-mail.	112267606	1474835043244	1474835043332	f	70
217694	2362788	I wasn't sure that you received the first e-mail.	I wasn't sure that you received the first e-mail.	112267609	1474835043428	1474835043484	i	73
217694	2362788	I wasn't sure that you received the first e-mail.	I wasn't sure that you received the first e-mail.	112267612	1474835043452	1474835043540	r	82
217694	2362788	I wasn't sure that you received the first e-mail.	I wasn't sure that you received the first e-mail.	112267614	1474835043652	1474835043755	s	83
217694	2362788	I wasn't sure that you received the first e-mail.	I wasn't sure that you received the first e-mail.	112267700	1474835043740	1474835043820	t	84
217694	2362788	I wasn't sure that you received the first e-mail.	I wasn't sure that you received the first e-mail.	112267701	1474835044076	1474835044156	 	32
217694	2362788	I wasn't sure that you received the first e-mail.	I wasn't sure that you received the first e-mail.	112267702	1474835044220	1474835044284	e	69
217694	2362788	I wasn't sure that you received the first e-mail.	I wasn't sure that you received the first e-mail.	112267703	1474835044788	1474835044843	-	189
217694	2362788	I wasn't sure that you received the first e-mail.	I wasn't sure that you received the first e-mail.	112267705	1474835044988	1474835045043	m	77
217694	2362788	I wasn't sure that you received the first e-mail.	I wasn't sure that you received the first e-mail.	112267711	1474835045076	1474835045155	a	65
217694	2362788	I wasn't sure that you received the first e-mail.	I wasn't sure that you received the first e-mail.	112267754	1474835045163	1474835045219	i	73
217694	2362788	I wasn't sure that you received the first e-mail.	I wasn't sure that you received the first e-mail.	112267756	1474835045315	1474835045380	l	76
217694	2362788	I wasn't sure that you received the first e-mail.	I wasn't sure that you received the first e-mail.	112267760	1474835045860	1474835045923	.	190
217694	2362798	Still waiting on decision.	Still waiting on decision.	112267935	1474835047818	1474835047979	SHIFT	16
217694	2362798	Still waiting on decision.	Still waiting on decision.	112267937	1474835047932	1474835048051	S	83
217694	2362798	Still waiting on decision.	Still waiting on decision.	112267943	1474835048092	1474835048179	t	84
217694	2362798	Still waiting on decision.	Still waiting on decision.	112267949	1474835048195	1474835048251	i	73
217694	2362798	Still waiting on decision.	Still waiting on decision.	112267959	1474835048347	1474835048404	l	76
217694	2362798	Still waiting on decision.	Still waiting on decision.	112267968	1474835048483	1474835048595	l	76
217694	2362798	Still waiting on decision.	Still waiting on decision.	112268048	1474835048683	1474835048819	w	87
217694	2362798	Still waiting on decision.	Still waiting on decision.	112268051	1474835048804	1474835048947	a	65
217694	2362798	Still waiting on decision.	Still waiting on decision.	112268055	1474835048933	1474835048995	i	73
217694	2362798	Still waiting on decision.	Still waiting on decision.	112268060	1474835049043	1474835049067	t	84
217694	2362798	Still waiting on decision.	Still waiting on decision.	112268064	1474835049243	1474835049291	BKSP	8
217694	2362798	Still waiting on decision.	Still waiting on decision.	112268067	1474835049363	1474835049427	BKSP	8
217694	2362798	Still waiting on decision.	Still waiting on decision.	112268073	1474835049523	1474835049555	BKSP	8
217694	2362798	Still waiting on decision.	Still waiting on decision.	112268078	1474835049635	1474835049699	BKSP	8
217694	2362798	Still waiting on decision.	Still waiting on decision.	112268082	1474835049811	1474835049891	 	32
217694	2362798	Still waiting on decision.	Still waiting on decision.	112268087	1474835049899	1474835049971	w	87
217694	2362798	Still waiting on decision.	Still waiting on decision.	112268090	1474835049939	1474835050091	a	65
217694	2362798	Still waiting on decision.	Still waiting on decision.	112268092	1474835050107	1474835050179	i	73
217694	2362798	Still waiting on decision.	Still waiting on decision.	112268095	1474835050228	1474835050291	t	84
217694	2362798	Still waiting on decision.	Still waiting on decision.	112268099	1474835050347	1474835050451	i	73
217694	2362798	Still waiting on decision.	Still waiting on decision.	112268105	1474835050411	1474835050491	n	78
217694	2362798	Still waiting on decision.	Still waiting on decision.	112268109	1474835050547	1474835050587	g	71
217694	2362798	Still waiting on decision.	Still waiting on decision.	112268112	1474835050619	1474835050683	 	32
217694	2362798	Still waiting on decision.	Still waiting on decision.	112268116	1474835050699	1474835050836	o	79
217694	2362798	Still waiting on decision.	Still waiting on decision.	112268120	1474835050795	1474835050915	n	78
217694	2362798	Still waiting on decision.	Still waiting on decision.	112268140	1474835050851	1474835050955	 	32
217694	2362798	Still waiting on decision.	Still waiting on decision.	112268142	1474835050995	1474835051059	d	68
217694	2362798	Still waiting on decision.	Still waiting on decision.	112268145	1474835051147	1474835051211	e	69
217694	2362798	Still waiting on decision.	Still waiting on decision.	112268149	1474835051331	1474835051411	c	67
217694	2362798	Still waiting on decision.	Still waiting on decision.	112268153	1474835051459	1474835051515	i	73
217694	2362798	Still waiting on decision.	Still waiting on decision.	112268159	1474835051555	1474835051595	d	68
217694	2362798	Still waiting on decision.	Still waiting on decision.	112268219	1474835051972	1474835052019	BKSP	8
217694	2362798	Still waiting on decision.	Still waiting on decision.	112268220	1474835052083	1474835052163	s	83
217694	2362798	Still waiting on decision.	Still waiting on decision.	112268222	1474835052195	1474835052331	i	73
217694	2362798	Still waiting on decision.	Still waiting on decision.	112268225	1474835052284	1474835052403	o	79
217694	2362798	Still waiting on decision.	Still waiting on decision.	112268228	1474835052339	1474835052435	n	78
217694	2362798	Still waiting on decision.	Still waiting on decision.	112268233	1474835052932	1474835052988	.	190
217694	2362811	Make sure they are current.	Make sure they are current.	112268389	1474835055190	1474835055366	SHIFT	16
217694	2362811	Make sure they are current.	Make sure they are current.	112268390	1474835055350	1474835055414	M	77
217694	2362811	Make sure they are current.	Make sure they are current.	112268391	1474835055462	1474835055551	a	65
217694	2362811	Make sure they are current.	Make sure they are current.	112268392	1474835055558	1474835055606	k	75
217694	2362811	Make sure they are current.	Make sure they are current.	112268393	1474835055654	1474835055718	e	69
217694	2362811	Make sure they are current.	Make sure they are current.	112268394	1474835055774	1474835055854	 	32
217694	2362811	Make sure they are current.	Make sure they are current.	112268426	1474835055862	1474835055958	s	83
217694	2362811	Make sure they are current.	Make sure they are current.	112268429	1474835055998	1474835056062	u	85
217694	2362811	Make sure they are current.	Make sure they are current.	112268434	1474835056110	1474835056246	r	82
217694	2362811	Make sure they are current.	Make sure they are current.	112268440	1474835056190	1474835056294	e	69
217694	2362811	Make sure they are current.	Make sure they are current.	112268446	1474835056326	1474835056390	 	32
217694	2362811	Make sure they are current.	Make sure they are current.	112268467	1474835056414	1474835056494	t	84
217694	2362811	Make sure they are current.	Make sure they are current.	112268471	1474835056502	1474835056534	e	72
217694	2362811	Make sure they are current.	Make sure they are current.	112268476	1474835056671	1474835056742	y	89
217694	2362811	Make sure they are current.	Make sure they are current.	112268478	1474835056766	1474835056830	 	32
217694	2362811	Make sure they are current.	Make sure they are current.	112268492	1474835056838	1474835056966	a	65
217694	2362811	Make sure they are current.	Make sure they are current.	112268496	1474835056926	1474835057054	r	82
217694	2362811	Make sure they are current.	Make sure they are current.	112268498	1474835057014	1474835057126	e	69
217694	2362811	Make sure they are current.	Make sure they are current.	112268500	1474835057158	1474835057246	 	32
217694	2362811	Make sure they are current.	Make sure they are current.	112268502	1474835057294	1474835057374	c	67
217694	2362811	Make sure they are current.	Make sure they are current.	112268531	1474835057430	1474835057486	u	85
217694	2362811	Make sure they are current.	Make sure they are current.	112268537	1474835057518	1474835057558	r	82
217694	2362811	Make sure they are current.	Make sure they are current.	112268543	1474835057646	1474835057718	r	82
217694	2362811	Make sure they are current.	Make sure they are current.	112268547	1474835057814	1474835057902	e	69
217694	2362811	Make sure they are current.	Make sure they are current.	112268553	1474835057980	1474835058014	n	78
217694	2362811	Make sure they are current.	Make sure they are current.	112268609	1474835058054	1474835058118	t	84
217694	2362811	Make sure they are current.	Make sure they are current.	112268614	1474835058598	1474835058646	.	190
