PARTICIPANT_ID	TEST_SECTION_ID	SENTENCE	USER_INPUT	KEYSTROKE_ID	PRESS_TIME	RELEASE_TIME	LETTER	KEYCODE
221142	2371717	The Hawks led from late in the first quarter.	The Hawks led from late in the first quarter.	112675668	1475142256820	1475142256948	CAPS_LOCK	20
221142	2371717	The Hawks led from late in the first quarter.	The Hawks led from late in the first quarter.	112675669	1475142257405	1475142257487	T	84
221142	2371717	The Hawks led from late in the first quarter.	The Hawks led from late in the first quarter.	112675670	1475142257455	1475142257611	CAPS_LOCK	20
221142	2371717	The Hawks led from late in the first quarter.	The Hawks led from late in the first quarter.	112675671	1475142257596	1475142257773	h	72
221142	2371717	The Hawks led from late in the first quarter.	The Hawks led from late in the first quarter.	112675672	1475142257688	1475142257862	e	69
221142	2371717	The Hawks led from late in the first quarter.	The Hawks led from late in the first quarter.	112675673	1475142257820	1475142257907	 	32
221142	2371717	The Hawks led from late in the first quarter.	The Hawks led from late in the first quarter.	112675674	1475142257953	1475142258109	CAPS_LOCK	20
221142	2371717	The Hawks led from late in the first quarter.	The Hawks led from late in the first quarter.	112675675	1475142258109	1475142258267	H	72
221142	2371717	The Hawks led from late in the first quarter.	The Hawks led from late in the first quarter.	112675741	1475142258221	1475142258411	CAPS_LOCK	20
221142	2371717	The Hawks led from late in the first quarter.	The Hawks led from late in the first quarter.	112675742	1475142258709	1475142258972	a	65
221142	2371717	The Hawks led from late in the first quarter.	The Hawks led from late in the first quarter.	112675743	1475142258867	1475142259003	w	87
221142	2371717	The Hawks led from late in the first quarter.	The Hawks led from late in the first quarter.	112675745	1475142260886	1475142261030	k	75
221142	2371717	The Hawks led from late in the first quarter.	The Hawks led from late in the first quarter.	112675747	1475142260991	1475142261092	s	83
221142	2371717	The Hawks led from late in the first quarter.	The Hawks led from late in the first quarter.	112675749	1475142261139	1475142261257	 	32
221142	2371717	The Hawks led from late in the first quarter.	The Hawks led from late in the first quarter.	112675780	1475142261793	1475142261942	l	76
221142	2371717	The Hawks led from late in the first quarter.	The Hawks led from late in the first quarter.	112675782	1475142261942	1475142262009	e	69
221142	2371717	The Hawks led from late in the first quarter.	The Hawks led from late in the first quarter.	112675784	1475142262389	1475142262479	 	32
221142	2371717	The Hawks led from late in the first quarter.	The Hawks led from late in the first quarter.	112675785	1475142263007	1475142263127	BKSP	8
221142	2371717	The Hawks led from late in the first quarter.	The Hawks led from late in the first quarter.	112675787	1475142263143	1475142263276	d	68
221142	2371717	The Hawks led from late in the first quarter.	The Hawks led from late in the first quarter.	112675789	1475142263292	1475142263380	 	32
221142	2371717	The Hawks led from late in the first quarter.	The Hawks led from late in the first quarter.	112675841	1475142264194	1475142264298	f	70
221142	2371717	The Hawks led from late in the first quarter.	The Hawks led from late in the first quarter.	112675845	1475142264376	1475142264530	r	82
221142	2371717	The Hawks led from late in the first quarter.	The Hawks led from late in the first quarter.	112675850	1475142264496	1475142264598	o	79
221142	2371717	The Hawks led from late in the first quarter.	The Hawks led from late in the first quarter.	112675852	1475142264707	1475142264799	m	77
221142	2371717	The Hawks led from late in the first quarter.	The Hawks led from late in the first quarter.	112675853	1475142264892	1475142265014	 	32
221142	2371717	The Hawks led from late in the first quarter.	The Hawks led from late in the first quarter.	112675873	1475142265124	1475142265250	l	76
221142	2371717	The Hawks led from late in the first quarter.	The Hawks led from late in the first quarter.	112675876	1475142265312	1475142265462	a	65
221142	2371717	The Hawks led from late in the first quarter.	The Hawks led from late in the first quarter.	112675878	1475142265446	1475142265533	t	84
221142	2371717	The Hawks led from late in the first quarter.	The Hawks led from late in the first quarter.	112675881	1475142265518	1475142265664	e	69
221142	2371717	The Hawks led from late in the first quarter.	The Hawks led from late in the first quarter.	112675882	1475142265804	1475142265949	 	32
221142	2371717	The Hawks led from late in the first quarter.	The Hawks led from late in the first quarter.	112675892	1475142266247	1475142266334	i	73
221142	2371717	The Hawks led from late in the first quarter.	The Hawks led from late in the first quarter.	112675894	1475142266414	1475142266564	n	78
221142	2371717	The Hawks led from late in the first quarter.	The Hawks led from late in the first quarter.	112675896	1475142266549	1475142266636	 	32
221142	2371717	The Hawks led from late in the first quarter.	The Hawks led from late in the first quarter.	112675897	1475142266699	1475142266832	t	84
221142	2371717	The Hawks led from late in the first quarter.	The Hawks led from late in the first quarter.	112675926	1475142266817	1475142266952	h	72
221142	2371717	The Hawks led from late in the first quarter.	The Hawks led from late in the first quarter.	112675929	1475142266967	1475142267068	e	69
221142	2371717	The Hawks led from late in the first quarter.	The Hawks led from late in the first quarter.	112675933	1475142267099	1475142267172	 	32
221142	2371717	The Hawks led from late in the first quarter.	The Hawks led from late in the first quarter.	112675937	1475142267908	1475142268019	f	70
221142	2371717	The Hawks led from late in the first quarter.	The Hawks led from late in the first quarter.	112675939	1475142268004	1475142268104	i	73
221142	2371717	The Hawks led from late in the first quarter.	The Hawks led from late in the first quarter.	112676011	1475142268088	1475142268204	r	82
221142	2371717	The Hawks led from late in the first quarter.	The Hawks led from late in the first quarter.	112676013	1475142268313	1475142268451	s	83
221142	2371717	The Hawks led from late in the first quarter.	The Hawks led from late in the first quarter.	112676014	1475142268435	1475142268523	t	84
221142	2371717	The Hawks led from late in the first quarter.	The Hawks led from late in the first quarter.	112676017	1475142268616	1475142268705	 	32
221142	2371717	The Hawks led from late in the first quarter.	The Hawks led from late in the first quarter.	112676018	1475142270070	1475142270205	q	81
221142	2371717	The Hawks led from late in the first quarter.	The Hawks led from late in the first quarter.	112676020	1475142270205	1475142270307	u	85
221142	2371717	The Hawks led from late in the first quarter.	The Hawks led from late in the first quarter.	112676068	1475142270840	1475142270972	a	65
221142	2371717	The Hawks led from late in the first quarter.	The Hawks led from late in the first quarter.	112676069	1475142270941	1475142271043	r	82
221142	2371717	The Hawks led from late in the first quarter.	The Hawks led from late in the first quarter.	112676071	1475142271136	1475142271210	t	84
221142	2371717	The Hawks led from late in the first quarter.	The Hawks led from late in the first quarter.	112676073	1475142271241	1475142271476	e	69
221142	2371717	The Hawks led from late in the first quarter.	The Hawks led from late in the first quarter.	112676132	1475142271390	1475142271523	r	82
221142	2371717	The Hawks led from late in the first quarter.	The Hawks led from late in the first quarter.	112676135	1475142273533	1475142273599	.	190
221142	2371734	I have been in contact with him, and he is familiar with the issues.	I have been in contact with him, and he is familiar with the issues	112676309	1475142277302	1475142277427	CAPS_LOCK	20
221142	2371734	I have been in contact with him, and he is familiar with the issues.	I have been in contact with him, and he is familiar with the issues	112676310	1475142277505	1475142277603	I	73
221142	2371734	I have been in contact with him, and he is familiar with the issues.	I have been in contact with him, and he is familiar with the issues	112676312	1475142277618	1475142277727	CAPS_LOCK	20
221142	2371734	I have been in contact with him, and he is familiar with the issues.	I have been in contact with him, and he is familiar with the issues	112676313	1475142277743	1475142277868	 	32
221142	2371734	I have been in contact with him, and he is familiar with the issues.	I have been in contact with him, and he is familiar with the issues	112676314	1475142277868	1475142278053	h	72
221142	2371734	I have been in contact with him, and he is familiar with the issues.	I have been in contact with him, and he is familiar with the issues	112676315	1475142277971	1475142278140	a	65
221142	2371734	I have been in contact with him, and he is familiar with the issues.	I have been in contact with him, and he is familiar with the issues	112676368	1475142278084	1475142278237	v	86
221142	2371734	I have been in contact with him, and he is familiar with the issues.	I have been in contact with him, and he is familiar with the issues	112676371	1475142278205	1475142278303	e	69
221142	2371734	I have been in contact with him, and he is familiar with the issues.	I have been in contact with him, and he is familiar with the issues	112676375	1475142278334	1475142278405	 	32
221142	2371734	I have been in contact with him, and he is familiar with the issues.	I have been in contact with him, and he is familiar with the issues	112676379	1475142279552	1475142279673	b	66
221142	2371734	I have been in contact with him, and he is familiar with the issues.	I have been in contact with him, and he is familiar with the issues	112676381	1475142279751	1475142279904	e	69
221142	2371734	I have been in contact with him, and he is familiar with the issues.	I have been in contact with him, and he is familiar with the issues	112676383	1475142279920	1475142280054	e	69
221142	2371734	I have been in contact with him, and he is familiar with the issues.	I have been in contact with him, and he is familiar with the issues	112676413	1475142280069	1475142280189	n	78
221142	2371734	I have been in contact with him, and he is familiar with the issues.	I have been in contact with him, and he is familiar with the issues	112676416	1475142280221	1475142280323	 	32
221142	2371734	I have been in contact with him, and he is familiar with the issues.	I have been in contact with him, and he is familiar with the issues	112676419	1475142280386	1475142280520	i	73
221142	2371734	I have been in contact with him, and he is familiar with the issues.	I have been in contact with him, and he is familiar with the issues	112676422	1475142280616	1475142280755	n	78
221142	2371734	I have been in contact with him, and he is familiar with the issues.	I have been in contact with him, and he is familiar with the issues	112676425	1475142280770	1475142280859	 	32
221142	2371734	I have been in contact with him, and he is familiar with the issues.	I have been in contact with him, and he is familiar with the issues	112676497	1475142282270	1475142282396	c	67
221142	2371734	I have been in contact with him, and he is familiar with the issues.	I have been in contact with him, and he is familiar with the issues	112676502	1475142282346	1475142282412	o	79
221142	2371734	I have been in contact with him, and he is familiar with the issues.	I have been in contact with him, and he is familiar with the issues	112676508	1475142282537	1475142282658	n	78
221142	2371734	I have been in contact with him, and he is familiar with the issues.	I have been in contact with him, and he is familiar with the issues	112676512	1475142282752	1475142282845	t	84
221142	2371734	I have been in contact with him, and he is familiar with the issues.	I have been in contact with him, and he is familiar with the issues	112676513	1475142282876	1475142283072	a	65
221142	2371734	I have been in contact with him, and he is familiar with the issues.	I have been in contact with him, and he is familiar with the issues	112676537	1475142283152	1475142283324	c	67
221142	2371734	I have been in contact with him, and he is familiar with the issues.	I have been in contact with him, and he is familiar with the issues	112676540	1475142283308	1475142283411	t	84
221142	2371734	I have been in contact with him, and he is familiar with the issues.	I have been in contact with him, and he is familiar with the issues	112676542	1475142283614	1475142283730	 	32
221142	2371734	I have been in contact with him, and he is familiar with the issues.	I have been in contact with him, and he is familiar with the issues	112676544	1475142283919	1475142284044	w	87
221142	2371734	I have been in contact with him, and he is familiar with the issues.	I have been in contact with him, and he is familiar with the issues	112676546	1475142284060	1475142284162	i	73
221142	2371734	I have been in contact with him, and he is familiar with the issues.	I have been in contact with him, and he is familiar with the issues	112676595	1475142284178	1475142284297	t	84
221142	2371734	I have been in contact with him, and he is familiar with the issues.	I have been in contact with him, and he is familiar with the issues	112676598	1475142284282	1475142284405	h	72
221142	2371734	I have been in contact with him, and he is familiar with the issues.	I have been in contact with him, and he is familiar with the issues	112676604	1475142284748	1475142284850	 	32
221142	2371734	I have been in contact with him, and he is familiar with the issues.	I have been in contact with him, and he is familiar with the issues	112676609	1475142285162	1475142285406	h	72
221142	2371734	I have been in contact with him, and he is familiar with the issues.	I have been in contact with him, and he is familiar with the issues	112676721	1475142285375	1475142285481	i	73
221142	2371734	I have been in contact with him, and he is familiar with the issues.	I have been in contact with him, and he is familiar with the issues	112676723	1475142286391	1475142286515	m	77
221142	2371734	I have been in contact with him, and he is familiar with the issues.	I have been in contact with him, and he is familiar with the issues	112676725	1475142286921	1475142287018	,	188
221142	2371734	I have been in contact with him, and he is familiar with the issues.	I have been in contact with him, and he is familiar with the issues	112676727	1475142287895	1475142288022	 	32
221142	2371734	I have been in contact with him, and he is familiar with the issues.	I have been in contact with him, and he is familiar with the issues	112676731	1475142288477	1475142288736	a	65
221142	2371734	I have been in contact with him, and he is familiar with the issues.	I have been in contact with him, and he is familiar with the issues	112676784	1475142288602	1475142288736	n	78
221142	2371734	I have been in contact with him, and he is familiar with the issues.	I have been in contact with him, and he is familiar with the issues	112676789	1475142288799	1475142288951	d	68
221142	2371734	I have been in contact with him, and he is familiar with the issues.	I have been in contact with him, and he is familiar with the issues	112676794	1475142288982	1475142289087	 	32
221142	2371734	I have been in contact with him, and he is familiar with the issues.	I have been in contact with him, and he is familiar with the issues	112676798	1475142289966	1475142290103	h	72
221142	2371734	I have been in contact with him, and he is familiar with the issues.	I have been in contact with him, and he is familiar with the issues	112676801	1475142290058	1475142290173	e	69
221142	2371734	I have been in contact with him, and he is familiar with the issues.	I have been in contact with him, and he is familiar with the issues	112676867	1475142290157	1475142290240	 	32
221142	2371734	I have been in contact with him, and he is familiar with the issues.	I have been in contact with him, and he is familiar with the issues	112676868	1475142290412	1475142290508	i	73
221142	2371734	I have been in contact with him, and he is familiar with the issues.	I have been in contact with him, and he is familiar with the issues	112676870	1475142290539	1475142290642	s	83
221142	2371734	I have been in contact with him, and he is familiar with the issues.	I have been in contact with him, and he is familiar with the issues	112676871	1475142290673	1475142290760	 	32
221142	2371734	I have been in contact with him, and he is familiar with the issues.	I have been in contact with him, and he is familiar with the issues	112676873	1475142291699	1475142291912	f	70
221142	2371734	I have been in contact with him, and he is familiar with the issues.	I have been in contact with him, and he is familiar with the issues	112676898	1475142291855	1475142292045	a	65
221142	2371734	I have been in contact with him, and he is familiar with the issues.	I have been in contact with him, and he is familiar with the issues	112676899	1475142291976	1475142292179	m	77
221142	2371734	I have been in contact with him, and he is familiar with the issues.	I have been in contact with him, and he is familiar with the issues	112676901	1475142292123	1475142292226	i	73
221142	2371734	I have been in contact with him, and he is familiar with the issues.	I have been in contact with him, and he is familiar with the issues	112676903	1475142292475	1475142292577	l	76
221142	2371734	I have been in contact with him, and he is familiar with the issues.	I have been in contact with him, and he is familiar with the issues	112676906	1475142292640	1475142292756	l	76
221142	2371734	I have been in contact with him, and he is familiar with the issues.	I have been in contact with him, and he is familiar with the issues	112676907	1475142292802	1475142292910	i	73
221142	2371734	I have been in contact with him, and he is familiar with the issues.	I have been in contact with him, and he is familiar with the issues	112677081	1475142293663	1475142293732	BKSP	8
221142	2371734	I have been in contact with him, and he is familiar with the issues.	I have been in contact with him, and he is familiar with the issues	112677083	1475142293935	1475142294000	BKSP	8
221142	2371734	I have been in contact with him, and he is familiar with the issues.	I have been in contact with him, and he is familiar with the issues	112677085	1475142294907	1475142295014	i	73
221142	2371734	I have been in contact with him, and he is familiar with the issues.	I have been in contact with him, and he is familiar with the issues	112677090	1475142295077	1475142295362	a	65
221142	2371734	I have been in contact with him, and he is familiar with the issues.	I have been in contact with him, and he is familiar with the issues	112677087	1475142295212	1475142295347	r	82
221142	2371734	I have been in contact with him, and he is familiar with the issues.	I have been in contact with him, and he is familiar with the issues	112677092	1475142295378	1475142295481	 	32
221142	2371734	I have been in contact with him, and he is familiar with the issues.	I have been in contact with him, and he is familiar with the issues	112677093	1475142297052	1475142297205	w	87
221142	2371734	I have been in contact with him, and he is familiar with the issues.	I have been in contact with him, and he is familiar with the issues	112677141	1475142297152	1475142297269	i	73
221142	2371734	I have been in contact with him, and he is familiar with the issues.	I have been in contact with him, and he is familiar with the issues	112677144	1475142297332	1475142297450	t	84
221142	2371734	I have been in contact with him, and he is familiar with the issues.	I have been in contact with him, and he is familiar with the issues	112677149	1475142297466	1475142297599	h	72
221142	2371734	I have been in contact with him, and he is familiar with the issues.	I have been in contact with him, and he is familiar with the issues	112677154	1475142297677	1475142297784	 	32
221142	2371734	I have been in contact with him, and he is familiar with the issues.	I have been in contact with him, and he is familiar with the issues	112677160	1475142298239	1475142298337	t	84
221142	2371734	I have been in contact with him, and he is familiar with the issues.	I have been in contact with him, and he is familiar with the issues	112677165	1475142298353	1475142298452	h	72
221142	2371734	I have been in contact with him, and he is familiar with the issues.	I have been in contact with him, and he is familiar with the issues	112677184	1475142298468	1475142298539	e	69
221142	2371734	I have been in contact with him, and he is familiar with the issues.	I have been in contact with him, and he is familiar with the issues	112677185	1475142298570	1475142298654	 	32
221142	2371734	I have been in contact with him, and he is familiar with the issues.	I have been in contact with him, and he is familiar with the issues	112677186	1475142298810	1475142298904	i	73
221142	2371734	I have been in contact with him, and he is familiar with the issues.	I have been in contact with him, and he is familiar with the issues	112677187	1475142299029	1475142299122	s	83
221142	2371734	I have been in contact with him, and he is familiar with the issues.	I have been in contact with him, and he is familiar with the issues	112677188	1475142299215	1475142299310	s	83
221142	2371734	I have been in contact with him, and he is familiar with the issues.	I have been in contact with him, and he is familiar with the issues	112677233	1475142299326	1475142299421	u	85
221142	2371734	I have been in contact with him, and he is familiar with the issues.	I have been in contact with him, and he is familiar with the issues	112677236	1475142299437	1475142299539	e	69
221142	2371734	I have been in contact with him, and he is familiar with the issues.	I have been in contact with him, and he is familiar with the issues	112677237	1475142299632	1475142299691	s	83
221142	2371762	Are you back in town?	Are you back in town?	112677419	1475142304887	1475142305067	CAPS_LOCK	20
221142	2371762	Are you back in town?	Are you back in town?	112677422	1475142305012	1475142305284	A	65
221142	2371762	Are you back in town?	Are you back in town?	112677426	1475142305161	1475142305346	CAPS_LOCK	20
221142	2371762	Are you back in town?	Are you back in town?	112677424	1475142305208	1475142305299	r	82
221142	2371762	Are you back in town?	Are you back in town?	112677428	1475142305377	1475142305502	e	69
221142	2371762	Are you back in town?	Are you back in town?	112677430	1475142305465	1475142305550	 	32
221142	2371762	Are you back in town?	Are you back in town?	112677432	1475142305596	1475142305668	y	89
221142	2371762	Are you back in town?	Are you back in town?	112677444	1475142305701	1475142305799	o	79
221142	2371762	Are you back in town?	Are you back in town?	112677445	1475142305924	1475142306031	u	85
221142	2371762	Are you back in town?	Are you back in town?	112677446	1475142306047	1475142306132	 	32
221142	2371762	Are you back in town?	Are you back in town?	112677448	1475142306195	1475142306284	b	66
221142	2371762	Are you back in town?	Are you back in town?	112677450	1475142306503	1475142306745	a	65
221142	2371762	Are you back in town?	Are you back in town?	112677483	1475142306630	1475142306761	c	67
221142	2371762	Are you back in town?	Are you back in town?	112677484	1475142306761	1475142306882	k	75
221142	2371762	Are you back in town?	Are you back in town?	112677485	1475142306897	1475142307000	 	32
221142	2371762	Are you back in town?	Are you back in town?	112677486	1475142307297	1475142307385	i	73
221142	2371762	Are you back in town?	Are you back in town?	112677487	1475142307479	1475142307552	n	78
221142	2371762	Are you back in town?	Are you back in town?	112677488	1475142307584	1475142307653	 	32
221142	2371762	Are you back in town?	Are you back in town?	112677506	1475142307748	1475142307836	t	84
221142	2371762	Are you back in town?	Are you back in town?	112677508	1475142307867	1475142307969	o	79
221142	2371762	Are you back in town?	Are you back in town?	112677511	1475142308156	1475142308300	w	87
221142	2371762	Are you back in town?	Are you back in town?	112677514	1475142308267	1475142308386	n	78
221142	2371762	Are you back in town?	Are you back in town?	112677518	1475142308605	1475142308755	SHIFT	16
221142	2371762	Are you back in town?	Are you back in town?	112677515	1475142308683	1475142308803	?	191
221142	2371768	There are several business issues outstanding.	There are several business issues outstanding	112677616	1475142311988	1475142312179	CAPS_LOCK	20
221142	2371768	There are several business issues outstanding.	There are several business issues outstanding	112677618	1475142312195	1475142312308	T	84
221142	2371768	There are several business issues outstanding.	There are several business issues outstanding	112677621	1475142312277	1475142312434	CAPS_LOCK	20
221142	2371768	There are several business issues outstanding.	There are several business issues outstanding	112677624	1475142312386	1475142312525	h	72
221142	2371768	There are several business issues outstanding.	There are several business issues outstanding	112677629	1475142312790	1475142312913	e	69
221142	2371768	There are several business issues outstanding.	There are several business issues outstanding	112677632	1475142312877	1475142312960	r	82
221142	2371768	There are several business issues outstanding.	There are several business issues outstanding	112677637	1475142312991	1475142313093	e	69
221142	2371768	There are several business issues outstanding.	There are several business issues outstanding	112677644	1475142313157	1475142313246	 	32
221142	2371768	There are several business issues outstanding.	There are several business issues outstanding	112677645	1475142313480	1475142313665	a	65
221142	2371768	There are several business issues outstanding.	There are several business issues outstanding	112677646	1475142313609	1475142313696	r	82
221142	2371768	There are several business issues outstanding.	There are several business issues outstanding	112677647	1475142313711	1475142313810	e	69
221142	2371768	There are several business issues outstanding.	There are several business issues outstanding	112677649	1475142313919	1475142313997	 	32
221142	2371768	There are several business issues outstanding.	There are several business issues outstanding	112677695	1475142314582	1475142314648	s	83
221142	2371768	There are several business issues outstanding.	There are several business issues outstanding	112677698	1475142314726	1475142314860	e	69
221142	2371768	There are several business issues outstanding.	There are several business issues outstanding	112677702	1475142315172	1475142315312	v	86
221142	2371768	There are several business issues outstanding.	There are several business issues outstanding	112677704	1475142315297	1475142315396	e	69
221142	2371768	There are several business issues outstanding.	There are several business issues outstanding	112677706	1475142315552	1475142315695	r	82
221142	2371768	There are several business issues outstanding.	There are several business issues outstanding	112677722	1475142315758	1475142315895	a	65
221142	2371768	There are several business issues outstanding.	There are several business issues outstanding	112677725	1475142315895	1475142316013	l	76
221142	2371768	There are several business issues outstanding.	There are several business issues outstanding	112677728	1475142316029	1475142316115	 	32
221142	2371768	There are several business issues outstanding.	There are several business issues outstanding	112677730	1475142316288	1475142316535	b	66
221142	2371768	There are several business issues outstanding.	There are several business issues outstanding	112677753	1475142316476	1475142316568	u	85
221142	2371768	There are several business issues outstanding.	There are several business issues outstanding	112677754	1475142317036	1475142317154	s	83
221142	2371768	There are several business issues outstanding.	There are several business issues outstanding	112677755	1475142317117	1475142317185	i	73
221142	2371768	There are several business issues outstanding.	There are several business issues outstanding	112677756	1475142317341	1475142317405	n	78
221142	2371768	There are several business issues outstanding.	There are several business issues outstanding	112677757	1475142317546	1475142317604	e	69
221142	2371768	There are several business issues outstanding.	There are several business issues outstanding	112677758	1475142317963	1475142318036	s	83
221142	2371768	There are several business issues outstanding.	There are several business issues outstanding	112677781	1475142318125	1475142318219	s	83
221142	2371768	There are several business issues outstanding.	There are several business issues outstanding	112677783	1475142318328	1475142318403	 	32
221142	2371768	There are several business issues outstanding.	There are several business issues outstanding	112677785	1475142319156	1475142319253	i	73
221142	2371768	There are several business issues outstanding.	There are several business issues outstanding	112677787	1475142319315	1475142319395	s	83
221142	2371768	There are several business issues outstanding.	There are several business issues outstanding	112677790	1475142319504	1475142319604	s	83
221142	2371768	There are several business issues outstanding.	There are several business issues outstanding	112677821	1475142319620	1475142319720	u	85
221142	2371768	There are several business issues outstanding.	There are several business issues outstanding	112677822	1475142319752	1475142319853	e	69
221142	2371768	There are several business issues outstanding.	There are several business issues outstanding	112677824	1475142319931	1475142320038	s	83
221142	2371768	There are several business issues outstanding.	There are several business issues outstanding	112677826	1475142320069	1475142320188	 	32
221142	2371768	There are several business issues outstanding.	There are several business issues outstanding	112677828	1475142320910	1475142321021	o	79
221142	2371768	There are several business issues outstanding.	There are several business issues outstanding	112677837	1475142321085	1475142321190	u	85
221142	2371768	There are several business issues outstanding.	There are several business issues outstanding	112677839	1475142321206	1475142321277	t	84
221142	2371768	There are several business issues outstanding.	There are several business issues outstanding	112677841	1475142321464	1475142321651	s	83
221142	2371768	There are several business issues outstanding.	There are several business issues outstanding	112677844	1475142321666	1475142321773	t	84
221142	2371768	There are several business issues outstanding.	There are several business issues outstanding	112677847	1475142321804	1475142321939	a	65
221142	2371768	There are several business issues outstanding.	There are several business issues outstanding	112677856	1475142322160	1475142322304	n	78
221142	2371768	There are several business issues outstanding.	There are several business issues outstanding	112677857	1475142322382	1475142322478	d	68
221142	2371768	There are several business issues outstanding.	There are several business issues outstanding	112677858	1475142322493	1475142322578	i	73
221142	2371768	There are several business issues outstanding.	There are several business issues outstanding	112677859	1475142322656	1475142322781	n	78
221142	2371768	There are several business issues outstanding.	There are several business issues outstanding	112677860	1475142322781	1475142322876	g	71
221142	2371775	This came as a shock to me.	this came as a shok to me	112677926	1475142326826	1475142326949	t	84
221142	2371775	This came as a shock to me.	this came as a shok to me	112677929	1475142326949	1475142327148	h	72
221142	2371775	This came as a shock to me.	this came as a shok to me	112677927	1475142327019	1475142327132	i	73
221142	2371775	This came as a shock to me.	this came as a shok to me	112677931	1475142327132	1475142327248	s	83
221142	2371775	This came as a shock to me.	this came as a shok to me	112677987	1475142327233	1475142327318	 	32
221142	2371775	This came as a shock to me.	this came as a shok to me	112677988	1475142328163	1475142328352	c	67
221142	2371775	This came as a shock to me.	this came as a shok to me	112677989	1475142328282	1475142328430	a	65
221142	2371775	This came as a shock to me.	this came as a shok to me	112677990	1475142328539	1475142328635	m	77
221142	2371775	This came as a shock to me.	this came as a shok to me	112677991	1475142328760	1475142328867	 	32
221142	2371775	This came as a shock to me.	this came as a shok to me	112677992	1475142329605	1475142329750	a	65
221142	2371775	This came as a shock to me.	this came as a shok to me	112678063	1475142329783	1475142329872	 	32
221142	2371775	This came as a shock to me.	this came as a shok to me	112678065	1475142330655	1475142330770	BKSP	8
221142	2371775	This came as a shock to me.	this came as a shok to me	112678067	1475142330863	1475142330928	BKSP	8
221142	2371775	This came as a shock to me.	this came as a shok to me	112678069	1475142331724	1475142331808	BKSP	8
221142	2371775	This came as a shock to me.	this came as a shok to me	112678071	1475142332214	1475142332323	e	69
221142	2371775	This came as a shock to me.	this came as a shok to me	112678073	1475142332401	1475142332506	 	32
221142	2371775	This came as a shock to me.	this came as a shok to me	112678107	1475142332584	1475142332822	a	65
221142	2371775	This came as a shock to me.	this came as a shok to me	112678075	1475142332675	1475142332806	s	83
221142	2371775	This came as a shock to me.	this came as a shok to me	112678109	1475142332854	1475142332958	 	32
221142	2371775	This came as a shock to me.	this came as a shok to me	112678111	1475142333348	1475142333458	a	65
221142	2371775	This came as a shock to me.	this came as a shok to me	112678112	1475142333536	1475142333610	 	32
221142	2371775	This came as a shock to me.	this came as a shok to me	112678113	1475142334519	1475142334627	c	67
221142	2371775	This came as a shock to me.	this came as a shok to me	112678114	1475142334783	1475142334893	h	72
221142	2371775	This came as a shock to me.	this came as a shok to me	112678149	1475142334988	1475142335141	o	79
221142	2371775	This came as a shock to me.	this came as a shok to me	112678151	1475142335157	1475142335262	c	67
221142	2371775	This came as a shock to me.	this came as a shok to me	112678154	1475142335262	1475142335394	k	75
221142	2371775	This came as a shock to me.	this came as a shok to me	112678157	1475142335394	1475142335479	 	32
221142	2371775	This came as a shock to me.	this came as a shok to me	112678159	1475142336404	1475142336513	BKSP	8
221142	2371775	This came as a shock to me.	this came as a shok to me	112678161	1475142336591	1475142336681	BKSP	8
221142	2371775	This came as a shock to me.	this came as a shok to me	112678164	1475142336759	1475142336850	BKSP	8
221142	2371775	This came as a shock to me.	this came as a shok to me	112678167	1475142336912	1475142336998	BKSP	8
221142	2371775	This came as a shock to me.	this came as a shok to me	112678171	1475142337076	1475142337165	BKSP	8
221142	2371775	This came as a shock to me.	this came as a shok to me	112678174	1475142337495	1475142337646	BKSP	8
221142	2371775	This came as a shock to me.	this came as a shok to me	112678177	1475142337975	1475142338129	s	83
221142	2371775	This came as a shock to me.	this came as a shok to me	112678181	1475142338225	1475142338366	h	72
221142	2371775	This came as a shock to me.	this came as a shok to me	112678182	1475142338333	1475142338433	o	79
221142	2371775	This came as a shock to me.	this came as a shok to me	112678183	1475142338511	1475142338637	k	75
221142	2371775	This came as a shock to me.	this came as a shok to me	112678184	1475142338601	1475142338703	 	32
221142	2371775	This came as a shock to me.	this came as a shok to me	112678186	1475142338749	1475142338850	t	84
221142	2371775	This came as a shock to me.	this came as a shok to me	112678191	1475142338850	1475142338966	o	79
221142	2371775	This came as a shock to me.	this came as a shok to me	112678192	1475142338966	1475142339054	 	32
221142	2371775	This came as a shock to me.	this came as a shok to me	112678194	1475142339054	1475142339152	m	77
221142	2371775	This came as a shock to me.	this came as a shok to me	112678196	1475142339136	1475142339218	e	69
221142	2371781	We will be dining fashionably late.	We well be dining fashionably late.	112678281	1475142342679	1475142342839	CAPS_LOCK	20
221142	2371781	We will be dining fashionably late.	We well be dining fashionably late.	112678283	1475142342823	1475142343049	W	87
221142	2371781	We will be dining fashionably late.	We well be dining fashionably late.	112678285	1475142342955	1475142343194	CAPS_LOCK	20
221142	2371781	We will be dining fashionably late.	We well be dining fashionably late.	112678287	1475142343158	1475142343258	e	69
221142	2371781	We will be dining fashionably late.	We well be dining fashionably late.	112678288	1475142343305	1475142343423	 	32
221142	2371781	We will be dining fashionably late.	We well be dining fashionably late.	112678289	1475142343879	1475142344092	w	87
221142	2371781	We will be dining fashionably late.	We well be dining fashionably late.	112678336	1475142343976	1475142344156	e	69
221142	2371781	We will be dining fashionably late.	We well be dining fashionably late.	112678337	1475142344249	1475142344359	l	76
221142	2371781	We will be dining fashionably late.	We well be dining fashionably late.	112678338	1475142344421	1475142344526	l	76
221142	2371781	We will be dining fashionably late.	We well be dining fashionably late.	112678339	1475142344526	1475142344643	 	32
221142	2371781	We will be dining fashionably late.	We well be dining fashionably late.	112678340	1475142345146	1475142345198	b	66
221142	2371781	We will be dining fashionably late.	We well be dining fashionably late.	112678341	1475142345712	1475142345827	e	69
221142	2371781	We will be dining fashionably late.	We well be dining fashionably late.	112678352	1475142345890	1475142345979	 	32
221142	2371781	We will be dining fashionably late.	We well be dining fashionably late.	112678354	1475142346026	1475142346166	d	68
221142	2371781	We will be dining fashionably late.	We well be dining fashionably late.	112678356	1475142346114	1475142346198	i	73
221142	2371781	We will be dining fashionably late.	We well be dining fashionably late.	112678359	1475142346310	1475142346412	n	78
221142	2371781	We will be dining fashionably late.	We well be dining fashionably late.	112678362	1475142346428	1475142346515	g	71
221142	2371781	We will be dining fashionably late.	We well be dining fashionably late.	112678393	1475142346531	1475142346615	i	73
221142	2371781	We will be dining fashionably late.	We well be dining fashionably late.	112678395	1475142346693	1475142346797	n	78
221142	2371781	We will be dining fashionably late.	We well be dining fashionably late.	112678397	1475142346797	1475142346898	g	71
221142	2371781	We will be dining fashionably late.	We well be dining fashionably late.	112678399	1475142347179	1475142347265	BKSP	8
221142	2371781	We will be dining fashionably late.	We well be dining fashionably late.	112678402	1475142347360	1475142347433	BKSP	8
221142	2371781	We will be dining fashionably late.	We well be dining fashionably late.	112678404	1475142347511	1475142347599	BKSP	8
221142	2371781	We will be dining fashionably late.	We well be dining fashionably late.	112678405	1475142347677	1475142347750	BKSP	8
221142	2371781	We will be dining fashionably late.	We well be dining fashionably late.	112678406	1475142348300	1475142348383	i	73
221142	2371781	We will be dining fashionably late.	We well be dining fashionably late.	112678407	1475142348461	1475142348604	n	78
221142	2371781	We will be dining fashionably late.	We well be dining fashionably late.	112678417	1475142348551	1475142348621	g	71
221142	2371781	We will be dining fashionably late.	We well be dining fashionably late.	112678418	1475142348699	1475142348785	 	32
221142	2371781	We will be dining fashionably late.	We well be dining fashionably late.	112678419	1475142349822	1475142349904	f	70
221142	2371781	We will be dining fashionably late.	We well be dining fashionably late.	112678420	1475142350294	1475142350497	a	65
221142	2371781	We will be dining fashionably late.	We well be dining fashionably late.	112678421	1475142350936	1475142351099	s	83
221142	2371781	We will be dining fashionably late.	We well be dining fashionably late.	112678444	1475142351068	1475142351290	h	72
221142	2371781	We will be dining fashionably late.	We well be dining fashionably late.	112678445	1475142351235	1475142351353	i	73
221142	2371781	We will be dining fashionably late.	We well be dining fashionably late.	112678446	1475142351541	1475142351623	o	79
221142	2371781	We will be dining fashionably late.	We well be dining fashionably late.	112678447	1475142351779	1475142351890	n	78
221142	2371781	We will be dining fashionably late.	We well be dining fashionably late.	112678448	1475142352077	1475142352189	a	65
221142	2371781	We will be dining fashionably late.	We well be dining fashionably late.	112678449	1475142352189	1475142352291	b	66
221142	2371781	We will be dining fashionably late.	We well be dining fashionably late.	112678477	1475142352480	1475142352591	l	76
221142	2371781	We will be dining fashionably late.	We well be dining fashionably late.	112678478	1475142352779	1475142352842	e	69
221142	2371781	We will be dining fashionably late.	We well be dining fashionably late.	112678479	1475142353297	1475142353470	BKSP	8
221142	2371781	We will be dining fashionably late.	We well be dining fashionably late.	112678480	1475142354144	1475142354275	y	89
221142	2371781	We will be dining fashionably late.	We well be dining fashionably late.	112678481	1475142354509	1475142354642	 	32
221142	2371781	We will be dining fashionably late.	We well be dining fashionably late.	112678482	1475142354705	1475142354841	l	76
221142	2371781	We will be dining fashionably late.	We well be dining fashionably late.	112678504	1475142354857	1475142354976	a	65
221142	2371781	We will be dining fashionably late.	We well be dining fashionably late.	112678506	1475142355163	1475142355346	t	84
221142	2371781	We will be dining fashionably late.	We well be dining fashionably late.	112678509	1475142355278	1475142355430	e	69
221142	2371781	We will be dining fashionably late.	We well be dining fashionably late.	112678511	1475142355377	1475142355493	.	190
221142	2371788	He is suffering from a strained left shoulder.	He is suffering from a strained left shoulder.	112678576	1475142358997	1475142359122	CAPS_LOCK	20
221142	2371788	He is suffering from a strained left shoulder.	He is suffering from a strained left shoulder.	112678579	1475142359107	1475142359216	H	72
221142	2371788	He is suffering from a strained left shoulder.	He is suffering from a strained left shoulder.	112678580	1475142359216	1475142359453	CAPS_LOCK	20
221142	2371788	He is suffering from a strained left shoulder.	He is suffering from a strained left shoulder.	112678581	1475142359372	1475142359515	e	69
221142	2371788	He is suffering from a strained left shoulder.	He is suffering from a strained left shoulder.	112678582	1475142359515	1475142359602	 	32
221142	2371788	He is suffering from a strained left shoulder.	He is suffering from a strained left shoulder.	112678583	1475142359758	1475142359868	i	73
221142	2371788	He is suffering from a strained left shoulder.	He is suffering from a strained left shoulder.	112678594	1475142359836	1475142359968	s	83
221142	2371788	He is suffering from a strained left shoulder.	He is suffering from a strained left shoulder.	112678597	1475142360014	1475142360118	 	32
221142	2371788	He is suffering from a strained left shoulder.	He is suffering from a strained left shoulder.	112678601	1475142360949	1475142361085	s	83
221142	2371788	He is suffering from a strained left shoulder.	He is suffering from a strained left shoulder.	112678605	1475142361052	1475142361108	u	85
221142	2371788	He is suffering from a strained left shoulder.	He is suffering from a strained left shoulder.	112678607	1475142361357	1475142361469	f	70
221142	2371788	He is suffering from a strained left shoulder.	He is suffering from a strained left shoulder.	112678608	1475142361547	1475142361655	f	70
221142	2371788	He is suffering from a strained left shoulder.	He is suffering from a strained left shoulder.	112678624	1475142361734	1475142361940	e	69
221142	2371788	He is suffering from a strained left shoulder.	He is suffering from a strained left shoulder.	112678625	1475142361853	1475142361971	r	82
221142	2371788	He is suffering from a strained left shoulder.	He is suffering from a strained left shoulder.	112678626	1475142362787	1475142362874	i	73
221142	2371788	He is suffering from a strained left shoulder.	He is suffering from a strained left shoulder.	112678627	1475142362983	1475142363110	n	78
221142	2371788	He is suffering from a strained left shoulder.	He is suffering from a strained left shoulder.	112678643	1475142363052	1475142363141	g	71
221142	2371788	He is suffering from a strained left shoulder.	He is suffering from a strained left shoulder.	112678644	1475142363252	1475142363357	 	32
221142	2371788	He is suffering from a strained left shoulder.	He is suffering from a strained left shoulder.	112678645	1475142363844	1475142364044	f	70
221142	2371788	He is suffering from a strained left shoulder.	He is suffering from a strained left shoulder.	112678646	1475142363973	1475142364125	r	82
221142	2371788	He is suffering from a strained left shoulder.	He is suffering from a strained left shoulder.	112678647	1475142364060	1475142364144	o	79
221142	2371788	He is suffering from a strained left shoulder.	He is suffering from a strained left shoulder.	112678649	1475142364254	1475142364327	m	77
221142	2371788	He is suffering from a strained left shoulder.	He is suffering from a strained left shoulder.	112678682	1475142364423	1475142364525	 	32
221142	2371788	He is suffering from a strained left shoulder.	He is suffering from a strained left shoulder.	112678684	1475142364603	1475142364771	a	65
221142	2371788	He is suffering from a strained left shoulder.	He is suffering from a strained left shoulder.	112678687	1475142364849	1475142364959	 	32
221142	2371788	He is suffering from a strained left shoulder.	He is suffering from a strained left shoulder.	112678690	1475142366076	1475142366163	s	83
221142	2371788	He is suffering from a strained left shoulder.	He is suffering from a strained left shoulder.	112678692	1475142366179	1475142366247	t	84
221142	2371788	He is suffering from a strained left shoulder.	He is suffering from a strained left shoulder.	112678698	1475142366312	1475142366398	r	82
221142	2371788	He is suffering from a strained left shoulder.	He is suffering from a strained left shoulder.	112678699	1475142366539	1475142366700	a	65
221142	2371788	He is suffering from a strained left shoulder.	He is suffering from a strained left shoulder.	112678700	1475142366630	1475142366731	i	73
221142	2371788	He is suffering from a strained left shoulder.	He is suffering from a strained left shoulder.	112678701	1475142366840	1475142366962	n	78
221142	2371788	He is suffering from a strained left shoulder.	He is suffering from a strained left shoulder.	112678702	1475142366978	1475142367064	e	69
221142	2371788	He is suffering from a strained left shoulder.	He is suffering from a strained left shoulder.	112678718	1475142367159	1475142367249	d	68
221142	2371788	He is suffering from a strained left shoulder.	He is suffering from a strained left shoulder.	112678719	1475142367311	1475142367414	 	32
221142	2371788	He is suffering from a strained left shoulder.	He is suffering from a strained left shoulder.	112678720	1475142368354	1475142368450	l	76
221142	2371788	He is suffering from a strained left shoulder.	He is suffering from a strained left shoulder.	112678721	1475142368559	1475142368816	e	69
221142	2371788	He is suffering from a strained left shoulder.	He is suffering from a strained left shoulder.	112678742	1475142368712	1475142368864	f	70
221142	2371788	He is suffering from a strained left shoulder.	He is suffering from a strained left shoulder.	112678744	1475142368880	1475142369015	t	84
221142	2371788	He is suffering from a strained left shoulder.	He is suffering from a strained left shoulder.	112678745	1475142369093	1475142369199	 	32
221142	2371788	He is suffering from a strained left shoulder.	He is suffering from a strained left shoulder.	112678746	1475142369511	1475142369617	s	83
221142	2371788	He is suffering from a strained left shoulder.	He is suffering from a strained left shoulder.	112678748	1475142369617	1475142369750	h	72
221142	2371788	He is suffering from a strained left shoulder.	He is suffering from a strained left shoulder.	112678750	1475142369828	1475142369949	o	79
221142	2371788	He is suffering from a strained left shoulder.	He is suffering from a strained left shoulder.	112678764	1475142369998	1475142370086	u	85
221142	2371788	He is suffering from a strained left shoulder.	He is suffering from a strained left shoulder.	112678765	1475142370213	1475142370349	l	76
221142	2371788	He is suffering from a strained left shoulder.	He is suffering from a strained left shoulder.	112678766	1475142370380	1475142370455	d	68
221142	2371788	He is suffering from a strained left shoulder.	He is suffering from a strained left shoulder.	112678767	1475142370627	1475142370821	e	69
221142	2371788	He is suffering from a strained left shoulder.	He is suffering from a strained left shoulder.	112678776	1475142370751	1475142370869	r	82
221142	2371788	He is suffering from a strained left shoulder.	He is suffering from a strained left shoulder.	112678777	1475142370916	1475142370990	.	190
221142	2371793	I'm on a conference call.	I'm on a conference call.	112678850	1475142377290	1475142377461	CAPS_LOCK	20
221142	2371793	I'm on a conference call.	I'm on a conference call.	112678851	1475142377446	1475142377532	I	73
221142	2371793	I'm on a conference call.	I'm on a conference call.	112678852	1475142377595	1475142377766	CAPS_LOCK	20
221142	2371793	I'm on a conference call.	I'm on a conference call.	112678853	1475142377907	1475142378015	'	222
221142	2371793	I'm on a conference call.	I'm on a conference call.	112678854	1475142378139	1475142378266	m	77
221142	2371793	I'm on a conference call.	I'm on a conference call.	112678855	1475142378486	1475142378599	 	32
221142	2371793	I'm on a conference call.	I'm on a conference call.	112678856	1475142378786	1475142378866	o	79
221142	2371793	I'm on a conference call.	I'm on a conference call.	112678873	1475142378978	1475142379098	n	78
221142	2371793	I'm on a conference call.	I'm on a conference call.	112678874	1475142379113	1475142379216	 	32
221142	2371793	I'm on a conference call.	I'm on a conference call.	112678875	1475142379247	1475142379412	a	65
221142	2371793	I'm on a conference call.	I'm on a conference call.	112678876	1475142379397	1475142379499	 	32
221142	2371793	I'm on a conference call.	I'm on a conference call.	112678877	1475142381368	1475142381539	c	67
221142	2371793	I'm on a conference call.	I'm on a conference call.	112678899	1475142381487	1475142381556	p	80
221142	2371793	I'm on a conference call.	I'm on a conference call.	112678900	1475142382122	1475142382205	n	78
221142	2371793	I'm on a conference call.	I'm on a conference call.	112678901	1475142382673	1475142382774	BKSP	8
221142	2371793	I'm on a conference call.	I'm on a conference call.	112678902	1475142382852	1475142382955	BKSP	8
221142	2371793	I'm on a conference call.	I'm on a conference call.	112678903	1475142383299	1475142383391	o	79
221142	2371793	I'm on a conference call.	I'm on a conference call.	112678904	1475142383516	1475142383623	n	78
221142	2371793	I'm on a conference call.	I'm on a conference call.	112678905	1475142383920	1475142384127	f	70
221142	2371793	I'm on a conference call.	I'm on a conference call.	112678906	1475142384070	1475142384206	e	69
221142	2371793	I'm on a conference call.	I'm on a conference call.	112678907	1475142384299	1475142384512	r	82
221142	2371793	I'm on a conference call.	I'm on a conference call.	112678908	1475142384442	1475142384605	e	69
221142	2371793	I'm on a conference call.	I'm on a conference call.	112678909	1475142384605	1475142384692	n	78
221142	2371793	I'm on a conference call.	I'm on a conference call.	112678910	1475142384723	1475142384908	c	67
221142	2371793	I'm on a conference call.	I'm on a conference call.	112678926	1475142384841	1475142385012	e	69
221142	2371793	I'm on a conference call.	I'm on a conference call.	112678928	1475142384961	1475142385074	 	32
221142	2371793	I'm on a conference call.	I'm on a conference call.	112678930	1475142385324	1475142385427	h	72
221142	2371793	I'm on a conference call.	I'm on a conference call.	112678933	1475142385583	1475142385739	a	65
221142	2371793	I'm on a conference call.	I'm on a conference call.	112678935	1475142385755	1475142385877	l	76
221142	2371793	I'm on a conference call.	I'm on a conference call.	112678937	1475142385955	1475142386076	l	76
221142	2371793	I'm on a conference call.	I'm on a conference call.	112678966	1475142386579	1475142386694	BKSP	8
221142	2371793	I'm on a conference call.	I'm on a conference call.	112678967	1475142386913	1475142387029	BKSP	8
221142	2371793	I'm on a conference call.	I'm on a conference call.	112678968	1475142387123	1475142387199	BKSP	8
221142	2371793	I'm on a conference call.	I'm on a conference call.	112678969	1475142387635	1475142387746	BKSP	8
221142	2371793	I'm on a conference call.	I'm on a conference call.	112678970	1475142388199	1475142388434	c	67
221142	2371793	I'm on a conference call.	I'm on a conference call.	112678971	1475142388345	1475142388567	a	65
221142	2371793	I'm on a conference call.	I'm on a conference call.	112678972	1475142388496	1475142388599	l	76
221142	2371793	I'm on a conference call.	I'm on a conference call.	112678973	1475142388645	1475142388766	l	76
221142	2371793	I'm on a conference call.	I'm on a conference call.	112678974	1475142388828	1475142388949	.	190
221142	2371798	I'll take up my problem with weak Scott H.	I'll take up my problem with hawk Scott H.	112679074	1475142392740	1475142392865	CAPS_LOCK	20
221142	2371798	I'll take up my problem with weak Scott H.	I'll take up my problem with hawk Scott H.	112679076	1475142392849	1475142392941	I	73
221142	2371798	I'll take up my problem with weak Scott H.	I'll take up my problem with hawk Scott H.	112679078	1475142392957	1475142393113	CAPS_LOCK	20
221142	2371798	I'll take up my problem with weak Scott H.	I'll take up my problem with hawk Scott H.	112679080	1475142395014	1475142395142	,	188
221142	2371798	I'll take up my problem with weak Scott H.	I'll take up my problem with hawk Scott H.	112679082	1475142395723	1475142395858	BKSP	8
221142	2371798	I'll take up my problem with weak Scott H.	I'll take up my problem with hawk Scott H.	112679084	1475142395967	1475142396109	.	190
221142	2371798	I'll take up my problem with weak Scott H.	I'll take up my problem with hawk Scott H.	112679085	1475142397002	1475142397113	BKSP	8
221142	2371798	I'll take up my problem with weak Scott H.	I'll take up my problem with hawk Scott H.	112679086	1475142398118	1475142398232	'	222
221142	2371798	I'll take up my problem with weak Scott H.	I'll take up my problem with hawk Scott H.	112679087	1475142398466	1475142398566	l	76
221142	2371798	I'll take up my problem with weak Scott H.	I'll take up my problem with hawk Scott H.	112679092	1475142399038	1475142399164	l	76
221142	2371798	I'll take up my problem with weak Scott H.	I'll take up my problem with hawk Scott H.	112679093	1475142399445	1475142399567	 	32
221142	2371798	I'll take up my problem with weak Scott H.	I'll take up my problem with hawk Scott H.	112679094	1475142399677	1475142399784	t	84
221142	2371798	I'll take up my problem with weak Scott H.	I'll take up my problem with hawk Scott H.	112679095	1475142399815	1475142399949	a	65
221142	2371798	I'll take up my problem with weak Scott H.	I'll take up my problem with hawk Scott H.	112679096	1475142399917	1475142400026	k	75
221142	2371798	I'll take up my problem with weak Scott H.	I'll take up my problem with hawk Scott H.	112679097	1475142400026	1475142400103	e	69
221142	2371798	I'll take up my problem with weak Scott H.	I'll take up my problem with hawk Scott H.	112679098	1475142400135	1475142400220	 	32
221142	2371798	I'll take up my problem with weak Scott H.	I'll take up my problem with hawk Scott H.	112679099	1475142400347	1475142400437	u	85
221142	2371798	I'll take up my problem with weak Scott H.	I'll take up my problem with hawk Scott H.	112679100	1475142400563	1475142400684	p	80
221142	2371798	I'll take up my problem with weak Scott H.	I'll take up my problem with hawk Scott H.	112679101	1475142400747	1475142400837	 	32
221142	2371798	I'll take up my problem with weak Scott H.	I'll take up my problem with hawk Scott H.	112679118	1475142400900	1475142401004	m	77
221142	2371798	I'll take up my problem with weak Scott H.	I'll take up my problem with hawk Scott H.	112679119	1475142401798	1475142401893	y	89
221142	2371798	I'll take up my problem with weak Scott H.	I'll take up my problem with hawk Scott H.	112679120	1475142402034	1475142402153	 	32
221142	2371798	I'll take up my problem with weak Scott H.	I'll take up my problem with hawk Scott H.	112679121	1475142402200	1475142402320	p	80
221142	2371798	I'll take up my problem with weak Scott H.	I'll take up my problem with hawk Scott H.	112679122	1475142402632	1475142402759	r	82
221142	2371798	I'll take up my problem with weak Scott H.	I'll take up my problem with hawk Scott H.	112679145	1475142402743	1475142402839	o	79
221142	2371798	I'll take up my problem with weak Scott H.	I'll take up my problem with hawk Scott H.	112679146	1475142402932	1475142403039	b	66
221142	2371798	I'll take up my problem with weak Scott H.	I'll take up my problem with hawk Scott H.	112679147	1475142403669	1475142403789	l	76
221142	2371798	I'll take up my problem with weak Scott H.	I'll take up my problem with hawk Scott H.	112679148	1475142403774	1475142403859	e	69
221142	2371798	I'll take up my problem with weak Scott H.	I'll take up my problem with hawk Scott H.	112679149	1475142404140	1475142404257	m	77
221142	2371798	I'll take up my problem with weak Scott H.	I'll take up my problem with hawk Scott H.	112679150	1475142404320	1475142404440	 	32
221142	2371798	I'll take up my problem with weak Scott H.	I'll take up my problem with hawk Scott H.	112679167	1475142404535	1475142404658	w	87
221142	2371798	I'll take up my problem with weak Scott H.	I'll take up my problem with hawk Scott H.	112679168	1475142404720	1475142404810	i	73
221142	2371798	I'll take up my problem with weak Scott H.	I'll take up my problem with hawk Scott H.	112679170	1475142404826	1475142404925	t	84
221142	2371798	I'll take up my problem with weak Scott H.	I'll take up my problem with hawk Scott H.	112679172	1475142404972	1475142405029	h	72
221142	2371798	I'll take up my problem with weak Scott H.	I'll take up my problem with hawk Scott H.	112679174	1475142405186	1475142405309	 	32
221142	2371798	I'll take up my problem with weak Scott H.	I'll take up my problem with hawk Scott H.	112679180	1475142405404	1475142405541	h	72
221142	2371798	I'll take up my problem with weak Scott H.	I'll take up my problem with hawk Scott H.	112679181	1475142405541	1475142405760	a	65
221142	2371798	I'll take up my problem with weak Scott H.	I'll take up my problem with hawk Scott H.	112679183	1475142405659	1475142405853	w	87
221142	2371798	I'll take up my problem with weak Scott H.	I'll take up my problem with hawk Scott H.	112679185	1475142405806	1475142405958	k	75
221142	2371798	I'll take up my problem with weak Scott H.	I'll take up my problem with hawk Scott H.	112679187	1475142406020	1475142406127	 	32
221142	2371798	I'll take up my problem with weak Scott H.	I'll take up my problem with hawk Scott H.	112679228	1475142406647	1475142406787	CAPS_LOCK	20
221142	2371798	I'll take up my problem with weak Scott H.	I'll take up my problem with hawk Scott H.	112679229	1475142406803	1475142406978	S	83
221142	2371798	I'll take up my problem with weak Scott H.	I'll take up my problem with hawk Scott H.	112679230	1475142406916	1475142407072	CAPS_LOCK	20
221142	2371798	I'll take up my problem with weak Scott H.	I'll take up my problem with hawk Scott H.	112679231	1475142407119	1475142407261	c	67
221142	2371798	I'll take up my problem with weak Scott H.	I'll take up my problem with hawk Scott H.	112679232	1475142407277	1475142407395	o	79
221142	2371798	I'll take up my problem with weak Scott H.	I'll take up my problem with hawk Scott H.	112679233	1475142407489	1475142407569	t	84
221142	2371798	I'll take up my problem with weak Scott H.	I'll take up my problem with hawk Scott H.	112679234	1475142407647	1475142407731	t	84
221142	2371798	I'll take up my problem with weak Scott H.	I'll take up my problem with hawk Scott H.	112679258	1475142407779	1475142407886	 	32
221142	2371798	I'll take up my problem with weak Scott H.	I'll take up my problem with hawk Scott H.	112679259	1475142408513	1475142408652	CAPS_LOCK	20
221142	2371798	I'll take up my problem with weak Scott H.	I'll take up my problem with hawk Scott H.	112679260	1475142408607	1475142408731	H	72
221142	2371798	I'll take up my problem with weak Scott H.	I'll take up my problem with hawk Scott H.	112679261	1475142408887	1475142409043	CAPS_LOCK	20
221142	2371804	Will it be delivered?	Will it be delivered?	112679310	1475142413244	1475142413477	CAPS_LOCK	20
221142	2371804	Will it be delivered?	Will it be delivered?	112679312	1475142413435	1475142413712	W	87
221142	2371804	Will it be delivered?	Will it be delivered?	112679316	1475142413603	1475142413792	CAPS_LOCK	20
221142	2371804	Will it be delivered?	Will it be delivered?	112679314	1475142413712	1475142413777	i	73
221142	2371804	Will it be delivered?	Will it be delivered?	112679318	1475142413870	1475142413988	l	76
221142	2371804	Will it be delivered?	Will it be delivered?	112679320	1475142414020	1475142414139	l	76
221142	2371804	Will it be delivered?	Will it be delivered?	112679332	1475142414123	1475142414210	 	32
221142	2371804	Will it be delivered?	Will it be delivered?	112679333	1475142414210	1475142414326	i	73
221142	2371804	Will it be delivered?	Will it be delivered?	112679334	1475142414373	1475142414472	t	84
221142	2371804	Will it be delivered?	Will it be delivered?	112679335	1475142414994	1475142415094	 	32
221142	2371804	Will it be delivered?	Will it be delivered?	112679336	1475142415141	1475142415242	b	66
221142	2371804	Will it be delivered?	Will it be delivered?	112679337	1475142415227	1475142415341	e	69
221142	2371804	Will it be delivered?	Will it be delivered?	112679338	1475142415388	1475142415483	 	32
221142	2371804	Will it be delivered?	Will it be delivered?	112679339	1475142415655	1475142415877	d	68
221142	2371804	Will it be delivered?	Will it be delivered?	112679340	1475142415775	1475142415923	e	69
221142	2371804	Will it be delivered?	Will it be delivered?	112679341	1475142415923	1475142416043	l	76
221142	2371804	Will it be delivered?	Will it be delivered?	112679343	1475142416105	1475142416195	i	73
221142	2371804	Will it be delivered?	Will it be delivered?	112679369	1475142416290	1475142416394	v	86
221142	2371804	Will it be delivered?	Will it be delivered?	112679372	1475142416472	1475142416645	e	69
221142	2371804	Will it be delivered?	Will it be delivered?	112679375	1475142416562	1475142416692	r	82
221142	2371804	Will it be delivered?	Will it be delivered?	112679378	1475142417632	1475142417731	e	69
221142	2371804	Will it be delivered?	Will it be delivered?	112679380	1475142417809	1475142417914	d	68
221142	2371804	Will it be delivered?	Will it be delivered?	112679392	1475142417993	1475142418402	SHIFT	16
221142	2371804	Will it be delivered?	Will it be delivered?	112679390	1475142418118	1475142418262	?	191
221142	2371807	This has now become the most pressing story in the capital.	This has now become the most pressing story in the capital	112679439	1475142422361	1475142422474	CAPS_LOCK	20
221142	2371807	This has now become the most pressing story in the capital.	This has now become the most pressing story in the capital	112679442	1475142422490	1475142422572	T	84
221142	2371807	This has now become the most pressing story in the capital.	This has now become the most pressing story in the capital	112679446	1475142422603	1475142422759	CAPS_LOCK	20
221142	2371807	This has now become the most pressing story in the capital.	This has now become the most pressing story in the capital	112679450	1475142422696	1475142422923	h	72
221142	2371807	This has now become the most pressing story in the capital.	This has now become the most pressing story in the capital	112679453	1475142422821	1475142422956	i	73
221142	2371807	This has now become the most pressing story in the capital.	This has now become the most pressing story in the capital	112679456	1475142422875	1475142423003	s	83
221142	2371807	This has now become the most pressing story in the capital.	This has now become the most pressing story in the capital	112679459	1475142423050	1475142423161	 	32
221142	2371807	This has now become the most pressing story in the capital.	This has now become the most pressing story in the capital	112679506	1475142423799	1475142423921	h	72
221142	2371807	This has now become the most pressing story in the capital.	This has now become the most pressing story in the capital	112679509	1475142423921	1475142424140	a	65
221142	2371807	This has now become the most pressing story in the capital.	This has now become the most pressing story in the capital	112679507	1475142424007	1475142424124	s	83
221142	2371807	This has now become the most pressing story in the capital.	This has now become the most pressing story in the capital	112679511	1475142424249	1475142424329	 	32
221142	2371807	This has now become the most pressing story in the capital.	This has now become the most pressing story in the capital	112679513	1475142425109	1475142425330	n	78
221142	2371807	This has now become the most pressing story in the capital.	This has now become the most pressing story in the capital	112679528	1475142425270	1475142425409	o	79
221142	2371807	This has now become the most pressing story in the capital.	This has now become the most pressing story in the capital	112679529	1475142425424	1475142425541	w	87
221142	2371807	This has now become the most pressing story in the capital.	This has now become the most pressing story in the capital	112679530	1475142425619	1475142425710	 	32
221142	2371807	This has now become the most pressing story in the capital.	This has now become the most pressing story in the capital	112679531	1475142425804	1475142425878	b	66
221142	2371807	This has now become the most pressing story in the capital.	This has now become the most pressing story in the capital	112679532	1475142425941	1475142426061	e	69
221142	2371807	This has now become the most pressing story in the capital.	This has now become the most pressing story in the capital	112679533	1475142427346	1475142427495	c	67
221142	2371807	This has now become the most pressing story in the capital.	This has now become the most pressing story in the capital	112679544	1475142427447	1475142427532	o	79
221142	2371807	This has now become the most pressing story in the capital.	This has now become the most pressing story in the capital	112679546	1475142427656	1475142427731	m	77
221142	2371807	This has now become the most pressing story in the capital.	This has now become the most pressing story in the capital	112679547	1475142427715	1475142427812	e	69
221142	2371807	This has now become the most pressing story in the capital.	This has now become the most pressing story in the capital	112679548	1475142427859	1475142427931	 	32
221142	2371807	This has now become the most pressing story in the capital.	This has now become the most pressing story in the capital	112679550	1475142428498	1475142428630	t	84
221142	2371807	This has now become the most pressing story in the capital.	This has now become the most pressing story in the capital	112679562	1475142428615	1475142428745	h	72
221142	2371807	This has now become the most pressing story in the capital.	This has now become the most pressing story in the capital	112679563	1475142428745	1475142428832	e	69
221142	2371807	This has now become the most pressing story in the capital.	This has now become the most pressing story in the capital	112679565	1475142428832	1475142428917	 	32
221142	2371807	This has now become the most pressing story in the capital.	This has now become the most pressing story in the capital	112679567	1475142429089	1475142429285	m	77
221142	2371807	This has now become the most pressing story in the capital.	This has now become the most pressing story in the capital	112679572	1475142429231	1475142429363	o	79
221142	2371807	This has now become the most pressing story in the capital.	This has now become the most pressing story in the capital	112679576	1475142430241	1475142430400	s	83
221142	2371807	This has now become the most pressing story in the capital.	This has now become the most pressing story in the capital	112679598	1475142430366	1475142430437	t	84
221142	2371807	This has now become the most pressing story in the capital.	This has now become the most pressing story in the capital	112679599	1475142430624	1475142430719	 	32
221142	2371807	This has now become the most pressing story in the capital.	This has now become the most pressing story in the capital	112679600	1475142430906	1475142431003	p	80
221142	2371807	This has now become the most pressing story in the capital.	This has now become the most pressing story in the capital	112679601	1475142430988	1475142431179	r	82
221142	2371807	This has now become the most pressing story in the capital.	This has now become the most pressing story in the capital	112679602	1475142431117	1475142431236	e	69
221142	2371807	This has now become the most pressing story in the capital.	This has now become the most pressing story in the capital	112679603	1475142431345	1475142431437	s	83
221142	2371807	This has now become the most pressing story in the capital.	This has now become the most pressing story in the capital	112679610	1475142431500	1475142431637	s	83
221142	2371807	This has now become the most pressing story in the capital.	This has now become the most pressing story in the capital	112679613	1475142431603	1475142431686	i	73
221142	2371807	This has now become the most pressing story in the capital.	This has now become the most pressing story in the capital	112679615	1475142431780	1475142431890	n	78
221142	2371807	This has now become the most pressing story in the capital.	This has now become the most pressing story in the capital	112679618	1475142431854	1475142431937	g	71
221142	2371807	This has now become the most pressing story in the capital.	This has now become the most pressing story in the capital	112679621	1475142432015	1475142432104	 	32
221142	2371807	This has now become the most pressing story in the capital.	This has now become the most pressing story in the capital	112679633	1475142432843	1475142433108	s	83
221142	2371807	This has now become the most pressing story in the capital.	This has now become the most pressing story in the capital	112679634	1475142433047	1475142433186	t	84
221142	2371807	This has now become the most pressing story in the capital.	This has now become the most pressing story in the capital	112679635	1475142433202	1475142433258	o	79
221142	2371807	This has now become the most pressing story in the capital.	This has now become the most pressing story in the capital	112679636	1475142433304	1475142433423	r	82
221142	2371807	This has now become the most pressing story in the capital.	This has now become the most pressing story in the capital	112679637	1475142433439	1475142433523	y	89
221142	2371807	This has now become the most pressing story in the capital.	This has now become the most pressing story in the capital	112679647	1475142433665	1475142433773	 	32
221142	2371807	This has now become the most pressing story in the capital.	This has now become the most pressing story in the capital	112679648	1475142434400	1475142434492	i	73
221142	2371807	This has now become the most pressing story in the capital.	This has now become the most pressing story in the capital	112679649	1475142434585	1475142434721	n	78
221142	2371807	This has now become the most pressing story in the capital.	This has now become the most pressing story in the capital	112679650	1475142434676	1475142434776	 	32
221142	2371807	This has now become the most pressing story in the capital.	This has now become the most pressing story in the capital	112679651	1475142434838	1475142434957	t	84
221142	2371807	This has now become the most pressing story in the capital.	This has now become the most pressing story in the capital	112679665	1475142435021	1475142435125	h	72
221142	2371807	This has now become the most pressing story in the capital.	This has now become the most pressing story in the capital	112679666	1475142435218	1475142435340	e	69
221142	2371807	This has now become the most pressing story in the capital.	This has now become the most pressing story in the capital	112679667	1475142435356	1475142435443	 	32
221142	2371807	This has now become the most pressing story in the capital.	This has now become the most pressing story in the capital	112679668	1475142436133	1475142436360	c	67
221142	2371807	This has now become the most pressing story in the capital.	This has now become the most pressing story in the capital	112679669	1475142436260	1475142436424	a	65
221142	2371807	This has now become the most pressing story in the capital.	This has now become the most pressing story in the capital	112679670	1475142436424	1475142436526	p	80
221142	2371807	This has now become the most pressing story in the capital.	This has now become the most pressing story in the capital	112679671	1475142436620	1475142436712	i	73
221142	2371807	This has now become the most pressing story in the capital.	This has now become the most pressing story in the capital	112679672	1475142436759	1475142436876	t	84
221142	2371807	This has now become the most pressing story in the capital.	This has now become the most pressing story in the capital	112679673	1475142436985	1475142437132	a	65
221142	2371807	This has now become the most pressing story in the capital.	This has now become the most pressing story in the capital	112679694	1475142437081	1475142437180	l	76
221142	2371813	If we don't get it, could be trouble.	If we don't get it, could be trouble	112679787	1475142440319	1475142440384	WIN	91
221142	2371813	If we don't get it, could be trouble.	If we don't get it, could be trouble	112679789	1475142442241	1475142442429	CAPS_LOCK	20
221142	2371813	If we don't get it, could be trouble.	If we don't get it, could be trouble	112679791	1475142442697	1475142442805	I	73
221142	2371813	If we don't get it, could be trouble.	If we don't get it, could be trouble	112679793	1475142442852	1475142442986	F	70
221142	2371813	If we don't get it, could be trouble.	If we don't get it, could be trouble	112679795	1475142444148	1475142444304	CAPS_LOCK	20
221142	2371813	If we don't get it, could be trouble.	If we don't get it, could be trouble	112679797	1475142444366	1475142444457	BKSP	8
221142	2371813	If we don't get it, could be trouble.	If we don't get it, could be trouble	112679798	1475142444488	1475142444590	f	70
221142	2371813	If we don't get it, could be trouble.	If we don't get it, could be trouble	112679799	1475142444668	1475142444805	 	32
221142	2371813	If we don't get it, could be trouble.	If we don't get it, could be trouble	112679800	1475142444945	1475142445157	w	87
221142	2371813	If we don't get it, could be trouble.	If we don't get it, could be trouble	112679810	1475142445025	1475142445205	e	69
221142	2371813	If we don't get it, could be trouble.	If we don't get it, could be trouble	112679811	1475142445189	1475142445307	 	32
221142	2371813	If we don't get it, could be trouble.	If we don't get it, could be trouble	112679812	1475142445811	1475142445925	d	68
221142	2371813	If we don't get it, could be trouble.	If we don't get it, could be trouble	112679813	1475142445941	1475142446027	o	79
221142	2371813	If we don't get it, could be trouble.	If we don't get it, could be trouble	112679814	1475142446121	1475142446225	n	78
221142	2371813	If we don't get it, could be trouble.	If we don't get it, could be trouble	112679815	1475142446553	1475142446644	'	222
221142	2371813	If we don't get it, could be trouble.	If we don't get it, could be trouble	112679838	1475142446659	1475142446744	t	84
221142	2371813	If we don't get it, could be trouble.	If we don't get it, could be trouble	112679839	1475142446837	1475142446928	 	32
221142	2371813	If we don't get it, could be trouble.	If we don't get it, could be trouble	112679840	1475142447478	1475142447595	g	71
221142	2371813	If we don't get it, could be trouble.	If we don't get it, could be trouble	112679841	1475142447580	1475142447700	e	69
221142	2371813	If we don't get it, could be trouble.	If we don't get it, could be trouble	112679896	1475142447649	1475142447748	t	84
221142	2371813	If we don't get it, could be trouble.	If we don't get it, could be trouble	112679897	1475142447794	1475142447899	 	32
221142	2371813	If we don't get it, could be trouble.	If we don't get it, could be trouble	112679898	1475142448369	1475142448480	i	73
221142	2371813	If we don't get it, could be trouble.	If we don't get it, could be trouble	112679899	1475142448957	1475142449062	t	84
221142	2371813	If we don't get it, could be trouble.	If we don't get it, could be trouble	112679901	1475142449547	1475142449633	 	32
221142	2371813	If we don't get it, could be trouble.	If we don't get it, could be trouble	112679902	1475142450069	1475142450166	BKSP	8
221142	2371813	If we don't get it, could be trouble.	If we don't get it, could be trouble	112679903	1475142450229	1475142450333	BKSP	8
221142	2371813	If we don't get it, could be trouble.	If we don't get it, could be trouble	112679904	1475142451242	1475142451320	,	188
221142	2371813	If we don't get it, could be trouble.	If we don't get it, could be trouble	112679920	1475142451351	1475142451468	 	32
221142	2371813	If we don't get it, could be trouble.	If we don't get it, could be trouble	112679921	1475142452361	1475142452503	c	67
221142	2371813	If we don't get it, could be trouble.	If we don't get it, could be trouble	112679922	1475142452407	1475142452518	o	79
221142	2371813	If we don't get it, could be trouble.	If we don't get it, could be trouble	112679923	1475142452565	1475142452655	u	85
221142	2371813	If we don't get it, could be trouble.	If we don't get it, could be trouble	112679924	1475142452748	1475142452890	l	76
221142	2371813	If we don't get it, could be trouble.	If we don't get it, could be trouble	112679929	1475142452837	1475142452937	d	68
221142	2371813	If we don't get it, could be trouble.	If we don't get it, could be trouble	112679931	1475142453030	1475142453121	 	32
221142	2371813	If we don't get it, could be trouble.	If we don't get it, could be trouble	112679934	1475142453355	1475142453456	b	66
221142	2371813	If we don't get it, could be trouble.	If we don't get it, could be trouble	112679938	1475142453471	1475142453573	e	69
221142	2371813	If we don't get it, could be trouble.	If we don't get it, could be trouble	112679941	1475142453558	1475142453657	 	32
221142	2371813	If we don't get it, could be trouble.	If we don't get it, could be trouble	112679944	1475142453844	1475142454060	t	84
221142	2371813	If we don't get it, could be trouble.	If we don't get it, could be trouble	112679960	1475142453971	1475142454139	r	82
221142	2371813	If we don't get it, could be trouble.	If we don't get it, could be trouble	112679961	1475142454201	1475142454274	u	85
221142	2371813	If we don't get it, could be trouble.	If we don't get it, could be trouble	112679962	1475142454887	1475142454989	BKSP	8
221142	2371813	If we don't get it, could be trouble.	If we don't get it, could be trouble	112679963	1475142455052	1475142455173	o	79
221142	2371813	If we don't get it, could be trouble.	If we don't get it, could be trouble	112679964	1475142455173	1475142455274	u	85
221142	2371813	If we don't get it, could be trouble.	If we don't get it, could be trouble	112679965	1475142455808	1475142455924	b	66
221142	2371813	If we don't get it, could be trouble.	If we don't get it, could be trouble	112679966	1475142456033	1475142456159	l	76
221142	2371813	If we don't get it, could be trouble.	If we don't get it, could be trouble	112679969	1475142456126	1475142456203	e	69
221142	2371819	I appreciate you moving so quickly on this.	I appreciate you moving so quickly on this.	112680065	1475142461391	1475142461515	CAPS_LOCK	20
221142	2371819	I appreciate you moving so quickly on this.	I appreciate you moving so quickly on this.	112680066	1475142461531	1475142461635	I	73
221142	2371819	I appreciate you moving so quickly on this.	I appreciate you moving so quickly on this.	112680067	1475142461604	1475142461713	CAPS_LOCK	20
221142	2371819	I appreciate you moving so quickly on this.	I appreciate you moving so quickly on this.	112680068	1475142461729	1475142461819	 	32
221142	2371819	I appreciate you moving so quickly on this.	I appreciate you moving so quickly on this.	112680069	1475142463060	1475142463216	a	65
221142	2371819	I appreciate you moving so quickly on this.	I appreciate you moving so quickly on this.	112680071	1475142463232	1475142463339	p	80
221142	2371819	I appreciate you moving so quickly on this.	I appreciate you moving so quickly on this.	112680075	1475142463402	1475142463505	p	80
221142	2371819	I appreciate you moving so quickly on this.	I appreciate you moving so quickly on this.	112680090	1475142463557	1475142463739	r	82
221142	2371819	I appreciate you moving so quickly on this.	I appreciate you moving so quickly on this.	112680092	1475142463670	1475142463833	e	69
221142	2371819	I appreciate you moving so quickly on this.	I appreciate you moving so quickly on this.	112680096	1475142464695	1475142464822	c	67
221142	2371819	I appreciate you moving so quickly on this.	I appreciate you moving so quickly on this.	112680099	1475142464838	1475142464924	i	73
221142	2371819	I appreciate you moving so quickly on this.	I appreciate you moving so quickly on this.	112680101	1475142464970	1475142465120	a	65
221142	2371819	I appreciate you moving so quickly on this.	I appreciate you moving so quickly on this.	112680137	1475142466079	1475142466192	t	84
221142	2371819	I appreciate you moving so quickly on this.	I appreciate you moving so quickly on this.	112680138	1475142466192	1475142466262	i	73
221142	2371819	I appreciate you moving so quickly on this.	I appreciate you moving so quickly on this.	112680139	1475142466465	1475142466622	c	67
221142	2371819	I appreciate you moving so quickly on this.	I appreciate you moving so quickly on this.	112680140	1475142466778	1475142466860	e	69
221142	2371819	I appreciate you moving so quickly on this.	I appreciate you moving so quickly on this.	112680141	1475142467348	1475142467475	BKSP	8
221142	2371819	I appreciate you moving so quickly on this.	I appreciate you moving so quickly on this.	112680143	1475142467537	1475142467660	BKSP	8
221142	2371819	I appreciate you moving so quickly on this.	I appreciate you moving so quickly on this.	112680147	1475142467660	1475142467848	v	86
221142	2371819	I appreciate you moving so quickly on this.	I appreciate you moving so quickly on this.	112680162	1475142467762	1475142467879	e	69
221142	2371819	I appreciate you moving so quickly on this.	I appreciate you moving so quickly on this.	112680164	1475142467958	1475142468062	 	32
221142	2371819	I appreciate you moving so quickly on this.	I appreciate you moving so quickly on this.	112680168	1475142468565	1475142468695	y	89
221142	2371819	I appreciate you moving so quickly on this.	I appreciate you moving so quickly on this.	112680171	1475142468663	1475142468764	o	79
221142	2371819	I appreciate you moving so quickly on this.	I appreciate you moving so quickly on this.	112680174	1475142468826	1475142468915	u	85
221142	2371819	I appreciate you moving so quickly on this.	I appreciate you moving so quickly on this.	112680177	1475142468978	1475142469064	 	32
221142	2371819	I appreciate you moving so quickly on this.	I appreciate you moving so quickly on this.	112680204	1475142469079	1475142469333	m	77
221142	2371819	I appreciate you moving so quickly on this.	I appreciate you moving so quickly on this.	112680205	1475142469291	1475142469490	o	79
221142	2371819	I appreciate you moving so quickly on this.	I appreciate you moving so quickly on this.	112680206	1475142470089	1475142470236	v	86
221142	2371819	I appreciate you moving so quickly on this.	I appreciate you moving so quickly on this.	112680207	1475142470200	1475142470282	i	73
221142	2371819	I appreciate you moving so quickly on this.	I appreciate you moving so quickly on this.	112680208	1475142470376	1475142470503	n	78
221142	2371819	I appreciate you moving so quickly on this.	I appreciate you moving so quickly on this.	112680249	1475142470487	1475142470570	g	71
221142	2371819	I appreciate you moving so quickly on this.	I appreciate you moving so quickly on this.	112680251	1475142470680	1475142470798	 	32
221142	2371819	I appreciate you moving so quickly on this.	I appreciate you moving so quickly on this.	112680253	1475142471334	1475142471467	s	83
221142	2371819	I appreciate you moving so quickly on this.	I appreciate you moving so quickly on this.	112680255	1475142471467	1475142471568	o	79
221142	2371819	I appreciate you moving so quickly on this.	I appreciate you moving so quickly on this.	112680257	1475142471677	1475142471788	 	32
221142	2371819	I appreciate you moving so quickly on this.	I appreciate you moving so quickly on this.	112680260	1475142473056	1475142473232	q	81
221142	2371819	I appreciate you moving so quickly on this.	I appreciate you moving so quickly on this.	112680280	1475142473328	1475142473421	u	85
221142	2371819	I appreciate you moving so quickly on this.	I appreciate you moving so quickly on this.	112680281	1475142473545	1475142473640	i	73
221142	2371819	I appreciate you moving so quickly on this.	I appreciate you moving so quickly on this.	112680283	1475142474030	1475142474176	c	67
221142	2371819	I appreciate you moving so quickly on this.	I appreciate you moving so quickly on this.	112680285	1475142474137	1475142474256	k	75
221142	2371819	I appreciate you moving so quickly on this.	I appreciate you moving so quickly on this.	112680286	1475142474365	1475142474488	l	76
221142	2371819	I appreciate you moving so quickly on this.	I appreciate you moving so quickly on this.	112680402	1475142474537	1475142474624	y	89
221142	2371819	I appreciate you moving so quickly on this.	I appreciate you moving so quickly on this.	112680404	1475142474826	1475142474939	 	32
221142	2371819	I appreciate you moving so quickly on this.	I appreciate you moving so quickly on this.	112680405	1475142481435	1475142481565	BKSP	8
221142	2371819	I appreciate you moving so quickly on this.	I appreciate you moving so quickly on this.	112680406	1475142482742	1475142482836	e	69
221142	2371819	I appreciate you moving so quickly on this.	I appreciate you moving so quickly on this.	112680407	1475142482914	1475142483004	 	32
221142	2371819	I appreciate you moving so quickly on this.	I appreciate you moving so quickly on this.	112680408	1475142484998	1475142485091	o	79
221142	2371819	I appreciate you moving so quickly on this.	I appreciate you moving so quickly on this.	112680420	1475142485185	1475142485323	n	78
221142	2371819	I appreciate you moving so quickly on this.	I appreciate you moving so quickly on this.	112680421	1475142485290	1475142485392	 	32
221142	2371819	I appreciate you moving so quickly on this.	I appreciate you moving so quickly on this.	112680422	1475142485408	1475142485573	t	84
221142	2371819	I appreciate you moving so quickly on this.	I appreciate you moving so quickly on this.	112680423	1475142485539	1475142485758	h	72
221142	2371819	I appreciate you moving so quickly on this.	I appreciate you moving so quickly on this.	112680440	1475142485657	1475142485758	i	73
221142	2371819	I appreciate you moving so quickly on this.	I appreciate you moving so quickly on this.	112680441	1475142485962	1475142486058	s	83
221142	2371819	I appreciate you moving so quickly on this.	I appreciate you moving so quickly on this.	112680443	1475142486245	1475142486342	.	190
221142	2371829	I wonder if RBS is another institution which could move quickly.	I wonder if RBS is another institution which could move quickly.	112680506	1475142490159	1475142490317	CAPS_LOCK	20
221142	2371829	I wonder if RBS is another institution which could move quickly.	I wonder if RBS is another institution which could move quickly.	112680507	1475142490348	1475142490542	I	73
221142	2371829	I wonder if RBS is another institution which could move quickly.	I wonder if RBS is another institution which could move quickly.	112680508	1475142490527	1475142490698	CAPS_LOCK	20
221142	2371829	I wonder if RBS is another institution which could move quickly.	I wonder if RBS is another institution which could move quickly.	112680509	1475142490730	1475142490849	 	32
221142	2371829	I wonder if RBS is another institution which could move quickly.	I wonder if RBS is another institution which could move quickly.	112680510	1475142490989	1475142491152	w	87
221142	2371829	I wonder if RBS is another institution which could move quickly.	I wonder if RBS is another institution which could move quickly.	112680511	1475142491114	1475142491215	o	79
221142	2371829	I wonder if RBS is another institution which could move quickly.	I wonder if RBS is another institution which could move quickly.	112680512	1475142491324	1475142491439	n	78
221142	2371829	I wonder if RBS is another institution which could move quickly.	I wonder if RBS is another institution which could move quickly.	112680560	1475142491406	1475142491577	d	68
221142	2371829	I wonder if RBS is another institution which could move quickly.	I wonder if RBS is another institution which could move quickly.	112680562	1475142491500	1475142491719	e	69
221142	2371829	I wonder if RBS is another institution which could move quickly.	I wonder if RBS is another institution which could move quickly.	112680566	1475142491633	1475142491766	r	82
221142	2371829	I wonder if RBS is another institution which could move quickly.	I wonder if RBS is another institution which could move quickly.	112680568	1475142491750	1475142491865	 	32
221142	2371829	I wonder if RBS is another institution which could move quickly.	I wonder if RBS is another institution which could move quickly.	112680572	1475142492983	1475142493072	i	73
221142	2371829	I wonder if RBS is another institution which could move quickly.	I wonder if RBS is another institution which could move quickly.	112680576	1475142493228	1475142493320	f	70
221142	2371829	I wonder if RBS is another institution which could move quickly.	I wonder if RBS is another institution which could move quickly.	112680599	1475142493447	1475142493537	 	32
221142	2371829	I wonder if RBS is another institution which could move quickly.	I wonder if RBS is another institution which could move quickly.	112680600	1475142493584	1475142493740	CAPS_LOCK	20
221142	2371829	I wonder if RBS is another institution which could move quickly.	I wonder if RBS is another institution which could move quickly.	112680603	1475142493802	1475142493903	R	82
221142	2371829	I wonder if RBS is another institution which could move quickly.	I wonder if RBS is another institution which could move quickly.	112680605	1475142493919	1475142494038	B	66
221142	2371829	I wonder if RBS is another institution which could move quickly.	I wonder if RBS is another institution which could move quickly.	112680608	1475142494053	1475142494156	S	83
221142	2371829	I wonder if RBS is another institution which could move quickly.	I wonder if RBS is another institution which could move quickly.	112680610	1475142494235	1475142494338	 	32
221142	2371829	I wonder if RBS is another institution which could move quickly.	I wonder if RBS is another institution which could move quickly.	112680631	1475142494543	1475142494652	CAPS_LOCK	20
221142	2371829	I wonder if RBS is another institution which could move quickly.	I wonder if RBS is another institution which could move quickly.	112680633	1475142495609	1475142495726	i	73
221142	2371829	I wonder if RBS is another institution which could move quickly.	I wonder if RBS is another institution which could move quickly.	112680635	1475142495676	1475142495774	s	83
221142	2371829	I wonder if RBS is another institution which could move quickly.	I wonder if RBS is another institution which could move quickly.	112680637	1475142495821	1475142495943	 	32
221142	2371829	I wonder if RBS is another institution which could move quickly.	I wonder if RBS is another institution which could move quickly.	112680639	1475142495908	1475142496140	a	65
221142	2371829	I wonder if RBS is another institution which could move quickly.	I wonder if RBS is another institution which could move quickly.	112680640	1475142496009	1475142496232	n	78
221142	2371829	I wonder if RBS is another institution which could move quickly.	I wonder if RBS is another institution which could move quickly.	112680641	1475142496156	1475142496296	o	79
221142	2371829	I wonder if RBS is another institution which could move quickly.	I wonder if RBS is another institution which could move quickly.	112680642	1475142496247	1475142496327	t	84
221142	2371829	I wonder if RBS is another institution which could move quickly.	I wonder if RBS is another institution which could move quickly.	112680643	1475142496374	1475142496510	h	72
221142	2371829	I wonder if RBS is another institution which could move quickly.	I wonder if RBS is another institution which could move quickly.	112680645	1475142496444	1475142496626	e	69
221142	2371829	I wonder if RBS is another institution which could move quickly.	I wonder if RBS is another institution which could move quickly.	112680727	1475142496541	1475142496657	r	82
221142	2371829	I wonder if RBS is another institution which could move quickly.	I wonder if RBS is another institution which could move quickly.	112680729	1475142496689	1475142496808	 	32
221142	2371829	I wonder if RBS is another institution which could move quickly.	I wonder if RBS is another institution which could move quickly.	112680730	1475142498675	1475142498779	i	73
221142	2371829	I wonder if RBS is another institution which could move quickly.	I wonder if RBS is another institution which could move quickly.	112680731	1475142498888	1475142498996	n	78
221142	2371829	I wonder if RBS is another institution which could move quickly.	I wonder if RBS is another institution which could move quickly.	112680732	1475142499841	1475142499961	s	83
221142	2371829	I wonder if RBS is another institution which could move quickly.	I wonder if RBS is another institution which could move quickly.	112680733	1475142501187	1475142501298	t	84
221142	2371829	I wonder if RBS is another institution which could move quickly.	I wonder if RBS is another institution which could move quickly.	112680748	1475142501314	1475142501400	i	73
221142	2371829	I wonder if RBS is another institution which could move quickly.	I wonder if RBS is another institution which could move quickly.	112680750	1475142501431	1475142501532	t	84
221142	2371829	I wonder if RBS is another institution which could move quickly.	I wonder if RBS is another institution which could move quickly.	112680752	1475142501532	1475142501601	u	85
221142	2371829	I wonder if RBS is another institution which could move quickly.	I wonder if RBS is another institution which could move quickly.	112680753	1475142501835	1475142501997	t	84
221142	2371829	I wonder if RBS is another institution which could move quickly.	I wonder if RBS is another institution which could move quickly.	112680772	1475142501981	1475142502152	i	73
221142	2371829	I wonder if RBS is another institution which could move quickly.	I wonder if RBS is another institution which could move quickly.	112680776	1475142502069	1475142502214	o	79
221142	2371829	I wonder if RBS is another institution which could move quickly.	I wonder if RBS is another institution which could move quickly.	112680778	1475142502308	1475142502417	n	78
221142	2371829	I wonder if RBS is another institution which could move quickly.	I wonder if RBS is another institution which could move quickly.	112680779	1475142502464	1475142502584	 	32
221142	2371829	I wonder if RBS is another institution which could move quickly.	I wonder if RBS is another institution which could move quickly.	112680780	1475142503274	1475142503401	w	87
221142	2371829	I wonder if RBS is another institution which could move quickly.	I wonder if RBS is another institution which could move quickly.	112680781	1475142503401	1475142503518	i	73
221142	2371829	I wonder if RBS is another institution which could move quickly.	I wonder if RBS is another institution which could move quickly.	112680797	1475142503785	1475142503903	c	67
221142	2371829	I wonder if RBS is another institution which could move quickly.	I wonder if RBS is another institution which could move quickly.	112680798	1475142503887	1475142504004	h	72
221142	2371829	I wonder if RBS is another institution which could move quickly.	I wonder if RBS is another institution which could move quickly.	112680799	1475142504082	1475142504203	 	32
221142	2371829	I wonder if RBS is another institution which could move quickly.	I wonder if RBS is another institution which could move quickly.	112680800	1475142504862	1475142505005	c	67
221142	2371829	I wonder if RBS is another institution which could move quickly.	I wonder if RBS is another institution which could move quickly.	112680824	1475142504971	1475142505073	o	79
221142	2371829	I wonder if RBS is another institution which could move quickly.	I wonder if RBS is another institution which could move quickly.	112680825	1475142505136	1475142505223	u	85
221142	2371829	I wonder if RBS is another institution which could move quickly.	I wonder if RBS is another institution which could move quickly.	112680826	1475142505363	1475142505504	l	76
221142	2371829	I wonder if RBS is another institution which could move quickly.	I wonder if RBS is another institution which could move quickly.	112680827	1475142505473	1475142505574	d	68
221142	2371829	I wonder if RBS is another institution which could move quickly.	I wonder if RBS is another institution which could move quickly.	112680828	1475142505637	1475142505741	 	32
221142	2371829	I wonder if RBS is another institution which could move quickly.	I wonder if RBS is another institution which could move quickly.	112680829	1475142506149	1475142506359	m	77
221142	2371829	I wonder if RBS is another institution which could move quickly.	I wonder if RBS is another institution which could move quickly.	112680871	1475142506288	1475142506423	o	79
221142	2371829	I wonder if RBS is another institution which could move quickly.	I wonder if RBS is another institution which could move quickly.	112680872	1475142506532	1475142506674	v	86
221142	2371829	I wonder if RBS is another institution which could move quickly.	I wonder if RBS is another institution which could move quickly.	112680874	1475142506659	1475142506743	e	69
221142	2371829	I wonder if RBS is another institution which could move quickly.	I wonder if RBS is another institution which could move quickly.	112680877	1475142506743	1475142506828	 	32
221142	2371829	I wonder if RBS is another institution which could move quickly.	I wonder if RBS is another institution which could move quickly.	112680881	1475142508019	1475142508188	q	81
221142	2371829	I wonder if RBS is another institution which could move quickly.	I wonder if RBS is another institution which could move quickly.	112680915	1475142508127	1475142508214	u	85
221142	2371829	I wonder if RBS is another institution which could move quickly.	I wonder if RBS is another institution which could move quickly.	112680918	1475142508323	1475142508426	i	73
221142	2371829	I wonder if RBS is another institution which could move quickly.	I wonder if RBS is another institution which could move quickly.	112680921	1475142509040	1475142509182	c	67
221142	2371829	I wonder if RBS is another institution which could move quickly.	I wonder if RBS is another institution which could move quickly.	112680924	1475142509112	1475142509244	k	75
221142	2371829	I wonder if RBS is another institution which could move quickly.	I wonder if RBS is another institution which could move quickly.	112680927	1475142509322	1475142509444	l	76
221142	2371829	I wonder if RBS is another institution which could move quickly.	I wonder if RBS is another institution which could move quickly.	112681010	1475142509396	1475142509489	y	89
221142	2371829	I wonder if RBS is another institution which could move quickly.	I wonder if RBS is another institution which could move quickly.	112681011	1475142510720	1475142510829	.	190
221142	2371843	Probably need to check with HR group providing services.	Probably need to check with HR group providing services.	112681269	1475142515598	1475142526942	h	72
221142	2371843	Probably need to check with HR group providing services.	Probably need to check with HR group providing services.	112681137	1475142520044	1475142520184	CAPS_LOCK	20
221142	2371843	Probably need to check with HR group providing services.	Probably need to check with HR group providing services.	112681141	1475142520215	1475142520343	P	80
221142	2371843	Probably need to check with HR group providing services.	Probably need to check with HR group providing services.	112681145	1475142520312	1475142520556	CAPS_LOCK	20
221142	2371843	Probably need to check with HR group providing services.	Probably need to check with HR group providing services.	112681149	1475142520515	1475142520676	r	82
221142	2371843	Probably need to check with HR group providing services.	Probably need to check with HR group providing services.	112681152	1475142520676	1475142520780	o	79
221142	2371843	Probably need to check with HR group providing services.	Probably need to check with HR group providing services.	112681154	1475142522351	1475142522466	b	66
221142	2371843	Probably need to check with HR group providing services.	Probably need to check with HR group providing services.	112681155	1475142522544	1475142522665	a	65
221142	2371843	Probably need to check with HR group providing services.	Probably need to check with HR group providing services.	112681199	1475142522665	1475142522781	b	66
221142	2371843	Probably need to check with HR group providing services.	Probably need to check with HR group providing services.	112681200	1475142522984	1475142523098	l	76
221142	2371843	Probably need to check with HR group providing services.	Probably need to check with HR group providing services.	112681201	1475142523239	1475142523318	y	89
221142	2371843	Probably need to check with HR group providing services.	Probably need to check with HR group providing services.	112681202	1475142523474	1475142523569	 	32
221142	2371843	Probably need to check with HR group providing services.	Probably need to check with HR group providing services.	112681204	1475142524320	1475142524421	n	78
221142	2371843	Probably need to check with HR group providing services.	Probably need to check with HR group providing services.	112681234	1475142524436	1475142524568	e	69
221142	2371843	Probably need to check with HR group providing services.	Probably need to check with HR group providing services.	112681235	1475142524646	1475142524752	e	69
221142	2371843	Probably need to check with HR group providing services.	Probably need to check with HR group providing services.	112681236	1475142524830	1475142524936	d	68
221142	2371843	Probably need to check with HR group providing services.	Probably need to check with HR group providing services.	112681237	1475142525014	1475142525136	 	32
221142	2371843	Probably need to check with HR group providing services.	Probably need to check with HR group providing services.	112681238	1475142525779	1475142525903	t	84
221142	2371843	Probably need to check with HR group providing services.	Probably need to check with HR group providing services.	112681264	1475142525918	1475142525990	o	79
221142	2371843	Probably need to check with HR group providing services.	Probably need to check with HR group providing services.	112681266	1475142526052	1475142526139	 	32
221142	2371843	Probably need to check with HR group providing services.	Probably need to check with HR group providing services.	112681268	1475142526279	1475142526405	c	67
221142	2371843	Probably need to check with HR group providing services.	Probably need to check with HR group providing services.	112681270	1475142527020	1475142527240	e	69
221142	2371843	Probably need to check with HR group providing services.	Probably need to check with HR group providing services.	112681323	1475142527140	1475142527335	a	65
221142	2371843	Probably need to check with HR group providing services.	Probably need to check with HR group providing services.	112681325	1475142527663	1475142527774	c	67
221142	2371843	Probably need to check with HR group providing services.	Probably need to check with HR group providing services.	112681328	1475142527821	1475142527877	k	75
221142	2371843	Probably need to check with HR group providing services.	Probably need to check with HR group providing services.	112681330	1475142528189	1475142528291	BKSP	8
221142	2371843	Probably need to check with HR group providing services.	Probably need to check with HR group providing services.	112681331	1475142528354	1475142528449	BKSP	8
221142	2371843	Probably need to check with HR group providing services.	Probably need to check with HR group providing services.	112681332	1475142528527	1475142528625	BKSP	8
221142	2371843	Probably need to check with HR group providing services.	Probably need to check with HR group providing services.	112681333	1475142528672	1475142528762	BKSP	8
221142	2371843	Probably need to check with HR group providing services.	Probably need to check with HR group providing services.	112681334	1475142528840	1475142528928	BKSP	8
221142	2371843	Probably need to check with HR group providing services.	Probably need to check with HR group providing services.	112681335	1475142529899	1475142530073	c	67
221142	2371843	Probably need to check with HR group providing services.	Probably need to check with HR group providing services.	112681336	1475142530120	1475142530259	h	72
221142	2371843	Probably need to check with HR group providing services.	Probably need to check with HR group providing services.	112681337	1475142530275	1475142530465	e	69
221142	2371843	Probably need to check with HR group providing services.	Probably need to check with HR group providing services.	112681379	1475142530378	1475142530575	a	65
221142	2371843	Probably need to check with HR group providing services.	Probably need to check with HR group providing services.	112681381	1475142530622	1475142530744	c	67
221142	2371843	Probably need to check with HR group providing services.	Probably need to check with HR group providing services.	112681383	1475142531217	1475142531344	BKSP	8
221142	2371843	Probably need to check with HR group providing services.	Probably need to check with HR group providing services.	112681385	1475142531718	1475142531862	BKSP	8
221142	2371843	Probably need to check with HR group providing services.	Probably need to check with HR group providing services.	112681389	1475142532159	1475142532254	c	67
221142	2371843	Probably need to check with HR group providing services.	Probably need to check with HR group providing services.	112681392	1475142532270	1475142532397	k	75
221142	2371843	Probably need to check with HR group providing services.	Probably need to check with HR group providing services.	112681395	1475142532397	1475142532483	 	32
221142	2371843	Probably need to check with HR group providing services.	Probably need to check with HR group providing services.	112681396	1475142533220	1475142533363	w	87
221142	2371843	Probably need to check with HR group providing services.	Probably need to check with HR group providing services.	112681404	1475142533321	1475142533418	i	73
221142	2371843	Probably need to check with HR group providing services.	Probably need to check with HR group providing services.	112681405	1475142533465	1475142533551	t	84
221142	2371843	Probably need to check with HR group providing services.	Probably need to check with HR group providing services.	112681407	1475142533582	1475142533684	h	72
221142	2371843	Probably need to check with HR group providing services.	Probably need to check with HR group providing services.	112681409	1475142533715	1475142533819	 	32
221142	2371843	Probably need to check with HR group providing services.	Probably need to check with HR group providing services.	112681411	1475142533960	1475142534116	CAPS_LOCK	20
221142	2371843	Probably need to check with HR group providing services.	Probably need to check with HR group providing services.	112681412	1475142534100	1475142534233	H	72
221142	2371843	Probably need to check with HR group providing services.	Probably need to check with HR group providing services.	112681479	1475142534218	1475142534317	R	82
221142	2371843	Probably need to check with HR group providing services.	Probably need to check with HR group providing services.	112681480	1475142534427	1475142534534	 	32
221142	2371843	Probably need to check with HR group providing services.	Probably need to check with HR group providing services.	112681481	1475142534690	1475142534799	CAPS_LOCK	20
221142	2371843	Probably need to check with HR group providing services.	Probably need to check with HR group providing services.	112681482	1475142536168	1475142536241	g	71
221142	2371843	Probably need to check with HR group providing services.	Probably need to check with HR group providing services.	112681483	1475142536601	1475142536753	r	82
221142	2371843	Probably need to check with HR group providing services.	Probably need to check with HR group providing services.	112681484	1475142536878	1475142536973	o	79
221142	2371843	Probably need to check with HR group providing services.	Probably need to check with HR group providing services.	112681485	1475142537316	1475142537427	u	85
221142	2371843	Probably need to check with HR group providing services.	Probably need to check with HR group providing services.	112681505	1475142537460	1475142537557	p	80
221142	2371843	Probably need to check with HR group providing services.	Probably need to check with HR group providing services.	112681506	1475142537635	1475142537724	 	32
221142	2371843	Probably need to check with HR group providing services.	Probably need to check with HR group providing services.	112681507	1475142538571	1475142538706	p	80
221142	2371843	Probably need to check with HR group providing services.	Probably need to check with HR group providing services.	112681510	1475142538706	1475142538809	r	82
221142	2371843	Probably need to check with HR group providing services.	Probably need to check with HR group providing services.	112681534	1475142538809	1475142538893	o	79
221142	2371843	Probably need to check with HR group providing services.	Probably need to check with HR group providing services.	112681536	1475142539065	1475142539160	v	86
221142	2371843	Probably need to check with HR group providing services.	Probably need to check with HR group providing services.	112681538	1475142539191	1475142539277	i	73
221142	2371843	Probably need to check with HR group providing services.	Probably need to check with HR group providing services.	112681541	1475142539371	1475142539492	d	68
221142	2371843	Probably need to check with HR group providing services.	Probably need to check with HR group providing services.	112681543	1475142539508	1475142539594	i	73
221142	2371843	Probably need to check with HR group providing services.	Probably need to check with HR group providing services.	112681545	1475142539703	1475142539798	n	78
221142	2371843	Probably need to check with HR group providing services.	Probably need to check with HR group providing services.	112681596	1475142539764	1475142539861	g	71
221142	2371843	Probably need to check with HR group providing services.	Probably need to check with HR group providing services.	112681597	1475142539924	1475142540027	 	32
221142	2371843	Probably need to check with HR group providing services.	Probably need to check with HR group providing services.	112681598	1475142541942	1475142542150	s	83
221142	2371843	Probably need to check with HR group providing services.	Probably need to check with HR group providing services.	112681599	1475142542095	1475142542244	e	69
221142	2371843	Probably need to check with HR group providing services.	Probably need to check with HR group providing services.	112681600	1475142542338	1475142542433	r	82
221142	2371843	Probably need to check with HR group providing services.	Probably need to check with HR group providing services.	112681601	1475142542574	1475142542716	v	86
221142	2371843	Probably need to check with HR group providing services.	Probably need to check with HR group providing services.	112681620	1475142542732	1475142542849	i	73
221142	2371843	Probably need to check with HR group providing services.	Probably need to check with HR group providing services.	112681622	1475142542927	1475142543096	c	67
221142	2371843	Probably need to check with HR group providing services.	Probably need to check with HR group providing services.	112681625	1475142543064	1475142543150	e	69
221142	2371843	Probably need to check with HR group providing services.	Probably need to check with HR group providing services.	112681628	1475142543306	1475142543401	s	83
221142	2371843	Probably need to check with HR group providing services.	Probably need to check with HR group providing services.	112681631	1475142544137	1475142544250	.	190
