PARTICIPANT_ID	TEST_SECTION_ID	SENTENCE	USER_INPUT	KEYSTROKE_ID	PRESS_TIME	RELEASE_TIME	LETTER	KEYCODE
227226	2435807	If we don't get it, could be trouble.	If we don't get it, could be trouble.	115689203	1475114879055	1475114879221	SHIFT	16
227226	2435807	If we don't get it, could be trouble.	If we don't get it, could be trouble.	115689205	1475114879165	1475114879237	I	73
227226	2435807	If we don't get it, could be trouble.	If we don't get it, could be trouble.	115689206	1475114879237	1475114879347	f	70
227226	2435807	If we don't get it, could be trouble.	If we don't get it, could be trouble.	115689207	1475114879535	1475114879659	 	32
227226	2435807	If we don't get it, could be trouble.	If we don't get it, could be trouble.	115689208	1475114879659	1475114879836	w	87
227226	2435807	If we don't get it, could be trouble.	If we don't get it, could be trouble.	115689243	1475114879768	1475114879933	e	69
227226	2435807	If we don't get it, could be trouble.	If we don't get it, could be trouble.	115689247	1475114879898	1475114879983	 	32
227226	2435807	If we don't get it, could be trouble.	If we don't get it, could be trouble.	115689249	1475114880092	1475114880285	d	68
227226	2435807	If we don't get it, could be trouble.	If we don't get it, could be trouble.	115689251	1475114880202	1475114880426	o	79
227226	2435807	If we don't get it, could be trouble.	If we don't get it, could be trouble.	115689252	1475114880442	1475114880585	n	78
227226	2435807	If we don't get it, could be trouble.	If we don't get it, could be trouble.	115689254	1475114881034	1475114881188	'	222
227226	2435807	If we don't get it, could be trouble.	If we don't get it, could be trouble.	115689291	1475114881160	1475114881342	t	84
227226	2435807	If we don't get it, could be trouble.	If we don't get it, could be trouble.	115689293	1475114881305	1475114881477	e	69
227226	2435807	If we don't get it, could be trouble.	If we don't get it, could be trouble.	115689295	1475114881702	1475114881805	 	32
227226	2435807	If we don't get it, could be trouble.	If we don't get it, could be trouble.	115689297	1475114882001	1475114882050	BKSP	8
227226	2435807	If we don't get it, could be trouble.	If we don't get it, could be trouble.	115689300	1475114882097	1475114882222	BKSP	8
227226	2435807	If we don't get it, could be trouble.	If we don't get it, could be trouble.	115689302	1475114882238	1475114882379	 	32
227226	2435807	If we don't get it, could be trouble.	If we don't get it, could be trouble.	115689305	1475114882410	1475114882562	g	71
227226	2435807	If we don't get it, could be trouble.	If we don't get it, could be trouble.	115689327	1475114882522	1475114882689	e	69
227226	2435807	If we don't get it, could be trouble.	If we don't get it, could be trouble.	115689328	1475114882653	1475114882810	t	84
227226	2435807	If we don't get it, could be trouble.	If we don't get it, could be trouble.	115689329	1475114882857	1475114882988	 	32
227226	2435807	If we don't get it, could be trouble.	If we don't get it, could be trouble.	115689331	1475114883035	1475114883175	i	73
227226	2435807	If we don't get it, could be trouble.	If we don't get it, could be trouble.	115689334	1475114883185	1475114883321	t	84
227226	2435807	If we don't get it, could be trouble.	If we don't get it, could be trouble.	115689337	1475114883612	1475114883805	,	188
227226	2435807	If we don't get it, could be trouble.	If we don't get it, could be trouble.	115689348	1475114883743	1475114883864	 	32
227226	2435807	If we don't get it, could be trouble.	If we don't get it, could be trouble.	115689350	1475114884004	1475114884178	c	67
227226	2435807	If we don't get it, could be trouble.	If we don't get it, could be trouble.	115689354	1475114884071	1475114884193	o	79
227226	2435807	If we don't get it, could be trouble.	If we don't get it, could be trouble.	115689357	1475114884138	1475114884248	u	85
227226	2435807	If we don't get it, could be trouble.	If we don't get it, could be trouble.	115689360	1475114884269	1475114884389	l	76
227226	2435807	If we don't get it, could be trouble.	If we don't get it, could be trouble.	115689391	1475114884347	1475114884495	d	68
227226	2435807	If we don't get it, could be trouble.	If we don't get it, could be trouble.	115689394	1475114884495	1475114884572	 	32
227226	2435807	If we don't get it, could be trouble.	If we don't get it, could be trouble.	115689398	1475114884691	1475114884790	b	66
227226	2435807	If we don't get it, could be trouble.	If we don't get it, could be trouble.	115689401	1475114885282	1475114885413	e	69
227226	2435807	If we don't get it, could be trouble.	If we don't get it, could be trouble.	115689404	1475114885358	1475114885461	 	32
227226	2435807	If we don't get it, could be trouble.	If we don't get it, could be trouble.	115689406	1475114885633	1475114885748	t	84
227226	2435807	If we don't get it, could be trouble.	If we don't get it, could be trouble.	115689418	1475114885810	1475114885961	r	82
227226	2435807	If we don't get it, could be trouble.	If we don't get it, could be trouble.	115689424	1475114885904	1475114886066	o	79
227226	2435807	If we don't get it, could be trouble.	If we don't get it, could be trouble.	115689420	1475114885971	1475114886050	u	85
227226	2435807	If we don't get it, could be trouble.	If we don't get it, could be trouble.	115689428	1475114886128	1475114886216	b	66
227226	2435807	If we don't get it, could be trouble.	If we don't get it, could be trouble.	115689434	1475114886248	1475114886367	l	76
227226	2435807	If we don't get it, could be trouble.	If we don't get it, could be trouble.	115689509	1475114886377	1475114886492	e	69
227226	2435807	If we don't get it, could be trouble.	If we don't get it, could be trouble.	115689512	1475114886602	1475114886763	.	190
227226	2435819	Have not added Westport on yet.	have not added Westport on yet.	115689667	1475114893279	1475114893409	SHIFT	16
227226	2435819	Have not added Westport on yet.	have not added Westport on yet.	115689669	1475114893409	1475114893493	h	72
227226	2435819	Have not added Westport on yet.	have not added Westport on yet.	115689673	1475114893493	1475114893675	a	65
227226	2435819	Have not added Westport on yet.	have not added Westport on yet.	115689676	1475114893602	1475114893744	v	86
227226	2435819	Have not added Westport on yet.	have not added Westport on yet.	115689677	1475114893691	1475114893838	e	69
227226	2435819	Have not added Westport on yet.	have not added Westport on yet.	115689696	1475114893791	1475114893865	 	32
227226	2435819	Have not added Westport on yet.	have not added Westport on yet.	115689699	1475114893927	1475114894054	n	78
227226	2435819	Have not added Westport on yet.	have not added Westport on yet.	115689702	1475114894019	1475114894129	o	79
227226	2435819	Have not added Westport on yet.	have not added Westport on yet.	115689705	1475114894102	1475114894269	t	84
227226	2435819	Have not added Westport on yet.	have not added Westport on yet.	115689707	1475114894224	1475114894305	 	32
227226	2435819	Have not added Westport on yet.	have not added Westport on yet.	115689708	1475114894336	1475114894505	a	65
227226	2435819	Have not added Westport on yet.	have not added Westport on yet.	115689739	1475114894488	1475114894595	d	68
227226	2435819	Have not added Westport on yet.	have not added Westport on yet.	115689741	1475114894642	1475114894722	d	68
227226	2435819	Have not added Westport on yet.	have not added Westport on yet.	115689743	1475114894816	1475114894888	e	69
227226	2435819	Have not added Westport on yet.	have not added Westport on yet.	115689745	1475114894966	1475114895122	d	68
227226	2435819	Have not added Westport on yet.	have not added Westport on yet.	115689748	1475114895096	1475114895233	 	32
227226	2435819	Have not added Westport on yet.	have not added Westport on yet.	115689751	1475114895436	1475114895656	w	87
227226	2435819	Have not added Westport on yet.	have not added Westport on yet.	115689854	1475114895593	1475114895755	e	69
227226	2435819	Have not added Westport on yet.	have not added Westport on yet.	115689858	1475114895817	1475114895994	s	83
227226	2435819	Have not added Westport on yet.	have not added Westport on yet.	115689861	1475114896181	1475114896244	BKSP	8
227226	2435819	Have not added Westport on yet.	have not added Westport on yet.	115689864	1475114896275	1475114896358	BKSP	8
227226	2435819	Have not added Westport on yet.	have not added Westport on yet.	115689866	1475114896420	1475114896499	BKSP	8
227226	2435819	Have not added Westport on yet.	have not added Westport on yet.	115689868	1475114896841	1475114897014	w	87
227226	2435819	Have not added Westport on yet.	have not added Westport on yet.	115689867	1475114896854	1475114896982	SHIFT	16
227226	2435819	Have not added Westport on yet.	have not added Westport on yet.	115689871	1475114897326	1475114897409	BKSP	8
227226	2435819	Have not added Westport on yet.	have not added Westport on yet.	115689874	1475114897689	1475114897938	w	87
227226	2435819	Have not added Westport on yet.	have not added Westport on yet.	115689877	1475114897922	1475114897984	e	69
227226	2435819	Have not added Westport on yet.	have not added Westport on yet.	115689879	1475114898338	1475114898385	BKSP	8
227226	2435819	Have not added Westport on yet.	have not added Westport on yet.	115689881	1475114898463	1475114898524	BKSP	8
227226	2435819	Have not added Westport on yet.	have not added Westport on yet.	115689911	1475114898591	1475114899051	SHIFT	16
227226	2435819	Have not added Westport on yet.	have not added Westport on yet.	115689882	1475114898756	1475114898946	W	87
227226	2435819	Have not added Westport on yet.	have not added Westport on yet.	115689913	1475114899426	1475114899629	e	69
227226	2435819	Have not added Westport on yet.	have not added Westport on yet.	115689915	1475114899524	1475114899754	s	83
227226	2435819	Have not added Westport on yet.	have not added Westport on yet.	115689917	1475114899926	1475114900071	t	84
227226	2435819	Have not added Westport on yet.	have not added Westport on yet.	115689919	1475114900399	1475114900514	p	80
227226	2435819	Have not added Westport on yet.	have not added Westport on yet.	115689939	1475114900472	1475114900643	o	79
227226	2435819	Have not added Westport on yet.	have not added Westport on yet.	115689941	1475114900605	1475114900691	r	82
227226	2435819	Have not added Westport on yet.	have not added Westport on yet.	115689943	1475114900769	1475114900914	t	84
227226	2435819	Have not added Westport on yet.	have not added Westport on yet.	115689945	1475114900945	1475114901066	 	32
227226	2435819	Have not added Westport on yet.	have not added Westport on yet.	115689949	1475114901160	1475114901314	o	79
227226	2435819	Have not added Westport on yet.	have not added Westport on yet.	115689995	1475114901285	1475114901444	n	78
227226	2435819	Have not added Westport on yet.	have not added Westport on yet.	115689997	1475114901425	1475114901555	 	32
227226	2435819	Have not added Westport on yet.	have not added Westport on yet.	115690001	1475114901680	1475114901841	y	89
227226	2435819	Have not added Westport on yet.	have not added Westport on yet.	115690005	1475114901785	1475114901953	e	69
227226	2435819	Have not added Westport on yet.	have not added Westport on yet.	115690009	1475114901894	1475114902067	r	82
227226	2435819	Have not added Westport on yet.	have not added Westport on yet.	115690014	1475114902585	1475114902655	BKSP	8
227226	2435819	Have not added Westport on yet.	have not added Westport on yet.	115690019	1475114902655	1475114902811	t	84
227226	2435819	Have not added Westport on yet.	have not added Westport on yet.	115690033	1475114902830	1475114902968	.	190
227226	2435830	The election will be clean and pure.	The election will be clean and pure.	115690164	1475114906976	1475114907134	SHIFT	16
227226	2435830	The election will be clean and pure.	The election will be clean and pure.	115690166	1475114907091	1475114907226	T	84
227226	2435830	The election will be clean and pure.	The election will be clean and pure.	115690171	1475114907184	1475114907278	h	72
227226	2435830	The election will be clean and pure.	The election will be clean and pure.	115690175	1475114907278	1475114907451	e	69
227226	2435830	The election will be clean and pure.	The election will be clean and pure.	115690178	1475114907372	1475114907498	 	32
227226	2435830	The election will be clean and pure.	The election will be clean and pure.	115690181	1475114907561	1475114907667	w	87
227226	2435830	The election will be clean and pure.	The election will be clean and pure.	115690232	1475114907648	1475114907877	e	69
227226	2435830	The election will be clean and pure.	The election will be clean and pure.	115690236	1475114907987	1475114908056	BKSP	8
227226	2435830	The election will be clean and pure.	The election will be clean and pure.	115690239	1475114908118	1475114908201	BKSP	8
227226	2435830	The election will be clean and pure.	The election will be clean and pure.	115690241	1475114908248	1475114908383	e	69
227226	2435830	The election will be clean and pure.	The election will be clean and pure.	115690243	1475114908321	1475114908445	l	76
227226	2435830	The election will be clean and pure.	The election will be clean and pure.	115690245	1475114908476	1475114908680	c	67
227226	2435830	The election will be clean and pure.	The election will be clean and pure.	115690247	1475114908637	1475114908820	e	69
227226	2435830	The election will be clean and pure.	The election will be clean and pure.	115690248	1475114909237	1475114909305	BKSP	8
227226	2435830	The election will be clean and pure.	The election will be clean and pure.	115690249	1475114909383	1475114909450	BKSP	8
227226	2435830	The election will be clean and pure.	The election will be clean and pure.	115690250	1475114909482	1475114909638	e	69
227226	2435830	The election will be clean and pure.	The election will be clean and pure.	115690258	1475114909581	1475114909759	c	67
227226	2435830	The election will be clean and pure.	The election will be clean and pure.	115690260	1475114909884	1475114910026	t	84
227226	2435830	The election will be clean and pure.	The election will be clean and pure.	115690261	1475114909982	1475114910144	i	73
227226	2435830	The election will be clean and pure.	The election will be clean and pure.	115690263	1475114910031	1475114910175	o	79
227226	2435830	The election will be clean and pure.	The election will be clean and pure.	115690265	1475114910076	1475114910175	n	78
227226	2435830	The election will be clean and pure.	The election will be clean and pure.	115690267	1475114910300	1475114910398	 	32
227226	2435830	The election will be clean and pure.	The election will be clean and pure.	115690279	1475114910448	1475114910638	w	87
227226	2435830	The election will be clean and pure.	The election will be clean and pure.	115690280	1475114910587	1475114910653	i	73
227226	2435830	The election will be clean and pure.	The election will be clean and pure.	115690283	1475114910716	1475114910794	l	76
227226	2435830	The election will be clean and pure.	The election will be clean and pure.	115690286	1475114910870	1475114910966	l	76
227226	2435830	The election will be clean and pure.	The election will be clean and pure.	115690310	1475114910909	1475114911005	 	32
227226	2435830	The election will be clean and pure.	The election will be clean and pure.	115690312	1475114911083	1475114911194	b	66
227226	2435830	The election will be clean and pure.	The election will be clean and pure.	115690314	1475114911170	1475114911329	e	69
227226	2435830	The election will be clean and pure.	The election will be clean and pure.	115690316	1475114911284	1475114911364	 	32
227226	2435830	The election will be clean and pure.	The election will be clean and pure.	115690317	1475114911505	1475114911716	c	67
227226	2435830	The election will be clean and pure.	The election will be clean and pure.	115690333	1475114911592	1475114911731	l	76
227226	2435830	The election will be clean and pure.	The election will be clean and pure.	115690334	1475114911691	1475114911831	e	69
227226	2435830	The election will be clean and pure.	The election will be clean and pure.	115690335	1475114911779	1475114911971	a	65
227226	2435830	The election will be clean and pure.	The election will be clean and pure.	115690336	1475114911894	1475114912017	n	78
227226	2435830	The election will be clean and pure.	The election will be clean and pure.	115690337	1475114912037	1475114912112	 	32
227226	2435830	The election will be clean and pure.	The election will be clean and pure.	115690338	1475114912174	1475114912294	a	65
227226	2435830	The election will be clean and pure.	The election will be clean and pure.	115690374	1475114912221	1475114912375	n	78
227226	2435830	The election will be clean and pure.	The election will be clean and pure.	115690375	1475114912422	1475114912539	d	68
227226	2435830	The election will be clean and pure.	The election will be clean and pure.	115690376	1475114912554	1475114912655	 	32
227226	2435830	The election will be clean and pure.	The election will be clean and pure.	115690378	1475114912967	1475114913169	p	80
227226	2435830	The election will be clean and pure.	The election will be clean and pure.	115690377	1475114913075	1475114913138	r	82
227226	2435830	The election will be clean and pure.	The election will be clean and pure.	115690380	1475114913169	1475114913300	u	85
227226	2435830	The election will be clean and pure.	The election will be clean and pure.	115690414	1475114913484	1475114913530	BKSP	8
227226	2435830	The election will be clean and pure.	The election will be clean and pure.	115690417	1475114913593	1475114913660	BKSP	8
227226	2435830	The election will be clean and pure.	The election will be clean and pure.	115690420	1475114913723	1475114913853	u	85
227226	2435830	The election will be clean and pure.	The election will be clean and pure.	115690423	1475114913815	1475114913951	r	82
227226	2435830	The election will be clean and pure.	The election will be clean and pure.	115690427	1475114913884	1475114914029	e	69
227226	2435830	The election will be clean and pure.	The election will be clean and pure.	115690430	1475114914107	1475114914258	.	190
227226	2435841	The matter was still being investigated.	The matter was still being investigated	115690667	1475114919982	1475114920159	SHIFT	16
227226	2435841	The matter was still being investigated.	The matter was still being investigated	115690670	1475114920107	1475114920217	T	84
227226	2435841	The matter was still being investigated.	The matter was still being investigated	115690676	1475114920159	1475114920264	h	72
227226	2435841	The matter was still being investigated.	The matter was still being investigated	115690681	1475114920295	1475114920482	e	69
227226	2435841	The matter was still being investigated.	The matter was still being investigated	115690685	1475114920414	1475114920513	 	32
227226	2435841	The matter was still being investigated.	The matter was still being investigated	115690688	1475114920560	1475114920627	w	87
227226	2435841	The matter was still being investigated.	The matter was still being investigated	115690716	1475114920903	1475114920966	BKSP	8
227226	2435841	The matter was still being investigated.	The matter was still being investigated	115690718	1475114921060	1475114921169	m	77
227226	2435841	The matter was still being investigated.	The matter was still being investigated	115690719	1475114921125	1475114921320	a	65
227226	2435841	The matter was still being investigated.	The matter was still being investigated	115690720	1475114921242	1475114921336	t	84
227226	2435841	The matter was still being investigated.	The matter was still being investigated	115690721	1475114921399	1475114921512	t	84
227226	2435841	The matter was still being investigated.	The matter was still being investigated	115690722	1475114921575	1475114921722	e	69
227226	2435841	The matter was still being investigated.	The matter was still being investigated	115690745	1475114921664	1475114921802	r	82
227226	2435841	The matter was still being investigated.	The matter was still being investigated	115690747	1475114921759	1475114921872	 	32
227226	2435841	The matter was still being investigated.	The matter was still being investigated	115690748	1475114921919	1475114922070	w	87
227226	2435841	The matter was still being investigated.	The matter was still being investigated	115690750	1475114922003	1475114922208	a	65
227226	2435841	The matter was still being investigated.	The matter was still being investigated	115690751	1475114922149	1475114922324	s	83
227226	2435841	The matter was still being investigated.	The matter was still being investigated	115690776	1475114922285	1475114922399	 	32
227226	2435841	The matter was still being investigated.	The matter was still being investigated	115690778	1475114922462	1475114922599	s	83
227226	2435841	The matter was still being investigated.	The matter was still being investigated	115690781	1475114922566	1475114922700	t	84
227226	2435841	The matter was still being investigated.	The matter was still being investigated	115690783	1475114922638	1475114922731	i	73
227226	2435841	The matter was still being investigated.	The matter was still being investigated	115690785	1475114922793	1475114922866	l	76
227226	2435841	The matter was still being investigated.	The matter was still being investigated	115690790	1475114922945	1475114923080	l	76
227226	2435841	The matter was still being investigated.	The matter was still being investigated	115690809	1475114922981	1475114923098	 	32
227226	2435841	The matter was still being investigated.	The matter was still being investigated	115690810	1475114923249	1475114923350	b	66
227226	2435841	The matter was still being investigated.	The matter was still being investigated	115690811	1475114923350	1475114923513	e	69
227226	2435841	The matter was still being investigated.	The matter was still being investigated	115690812	1475114923451	1475114923578	i	73
227226	2435841	The matter was still being investigated.	The matter was still being investigated	115690813	1475114923514	1475114923627	n	78
227226	2435841	The matter was still being investigated.	The matter was still being investigated	115690814	1475114923658	1475114923768	g	71
227226	2435841	The matter was still being investigated.	The matter was still being investigated	115690836	1475114923774	1475114923866	 	32
227226	2435841	The matter was still being investigated.	The matter was still being investigated	115690842	1475114924022	1475114924155	i	73
227226	2435841	The matter was still being investigated.	The matter was still being investigated	115690845	1475114924102	1475114924241	n	78
227226	2435841	The matter was still being investigated.	The matter was still being investigated	115690847	1475114924257	1475114924431	v	86
227226	2435841	The matter was still being investigated.	The matter was still being investigated	115690886	1475114924403	1475114924742	e	69
227226	2435841	The matter was still being investigated.	The matter was still being investigated	115690887	1475114924621	1475114924837	s	83
227226	2435841	The matter was still being investigated.	The matter was still being investigated	115690890	1475114924823	1475114924958	t	84
227226	2435841	The matter was still being investigated.	The matter was still being investigated	115690893	1475114924935	1475114925013	i	73
227226	2435841	The matter was still being investigated.	The matter was still being investigated	115690896	1475114925435	1475114925596	g	71
227226	2435841	The matter was still being investigated.	The matter was still being investigated	115690901	1475114925596	1475114925761	a	65
227226	2435841	The matter was still being investigated.	The matter was still being investigated	115690914	1475114925720	1475114925876	t	84
227226	2435841	The matter was still being investigated.	The matter was still being investigated	115690915	1475114925846	1475114925966	e	69
227226	2435850	Can you call me at home?	Can you call me at home?	115691017	1475114928992	1475114929107	SHIFT	16
227226	2435850	Can you call me at home?	Can you call me at home?	115691019	1475114929058	1475114929238	C	67
227226	2435850	Can you call me at home?	Can you call me at home?	115691023	1475114929211	1475114929367	a	65
227226	2435850	Can you call me at home?	Can you call me at home?	115691027	1475114929294	1475114929383	n	78
227226	2435850	Can you call me at home?	Can you call me at home?	115691031	1475114929414	1475114929524	 	32
227226	2435850	Can you call me at home?	Can you call me at home?	115691035	1475114929571	1475114929711	y	89
227226	2435850	Can you call me at home?	Can you call me at home?	115691053	1475114930039	1475114930216	o	79
227226	2435850	Can you call me at home?	Can you call me at home?	115691056	1475114930139	1475114930284	u	85
227226	2435850	Can you call me at home?	Can you call me at home?	115691059	1475114930300	1475114930380	l	76
227226	2435850	Can you call me at home?	Can you call me at home?	115691062	1475114930346	1475114930430	 	32
227226	2435850	Can you call me at home?	Can you call me at home?	115691067	1475114930508	1475114930680	c	67
227226	2435850	Can you call me at home?	Can you call me at home?	115691122	1475114930619	1475114930797	a	65
227226	2435850	Can you call me at home?	Can you call me at home?	115691125	1475114930891	1475114930945	BKSP	8
227226	2435850	Can you call me at home?	Can you call me at home?	115691128	1475114931008	1475114931069	BKSP	8
227226	2435850	Can you call me at home?	Can you call me at home?	115691130	1475114931144	1475114931216	BKSP	8
227226	2435850	Can you call me at home?	Can you call me at home?	115691132	1475114931278	1475114931378	BKSP	8
227226	2435850	Can you call me at home?	Can you call me at home?	115691133	1475114931456	1475114931559	 	32
227226	2435850	Can you call me at home?	Can you call me at home?	115691134	1475114931575	1475114931706	c	67
227226	2435850	Can you call me at home?	Can you call me at home?	115691136	1475114931617	1475114931785	a	65
227226	2435850	Can you call me at home?	Can you call me at home?	115691135	1475114931722	1475114931785	l	76
227226	2435850	Can you call me at home?	Can you call me at home?	115691137	1475114931847	1475114931972	l	76
227226	2435850	Can you call me at home?	Can you call me at home?	115691157	1475114931935	1475114932006	 	32
227226	2435850	Can you call me at home?	Can you call me at home?	115691161	1475114932135	1475114932223	m	77
227226	2435850	Can you call me at home?	Can you call me at home?	115691165	1475114932200	1475114932319	e	69
227226	2435850	Can you call me at home?	Can you call me at home?	115691170	1475114932335	1475114932409	 	32
227226	2435850	Can you call me at home?	Can you call me at home?	115691174	1475114932425	1475114932649	a	65
227226	2435850	Can you call me at home?	Can you call me at home?	115691190	1475114932616	1475114932766	t	84
227226	2435850	Can you call me at home?	Can you call me at home?	115691192	1475114932747	1475114932863	 	32
227226	2435850	Can you call me at home?	Can you call me at home?	115691195	1475114932941	1475114933046	h	72
227226	2435850	Can you call me at home?	Can you call me at home?	115691197	1475114933007	1475114933192	o	79
227226	2435850	Can you call me at home?	Can you call me at home?	115691200	1475114933154	1475114933252	m	77
227226	2435850	Can you call me at home?	Can you call me at home?	115691204	1475114933252	1475114933342	e	69
227226	2435850	Can you call me at home?	Can you call me at home?	115691209	1475114933380	1475114933669	SHIFT	16
227226	2435850	Can you call me at home?	Can you call me at home?	115691207	1475114933473	1475114933591	?	191
227226	2435857	Neil has been asking around.	Neil has been asking aroud.	115691485	1475114939529	1475114939695	SHIFT	16
227226	2435857	Neil has been asking around.	Neil has been asking aroud.	115691487	1475114939607	1475114939695	N	78
227226	2435857	Neil has been asking around.	Neil has been asking aroud.	115691489	1475114939742	1475114939896	e	69
227226	2435857	Neil has been asking around.	Neil has been asking aroud.	115691493	1475114939847	1475114939939	i	73
227226	2435857	Neil has been asking around.	Neil has been asking aroud.	115691496	1475114940002	1475114940149	l	76
227226	2435857	Neil has been asking around.	Neil has been asking aroud.	115691502	1475114940164	1475114940248	 	32
227226	2435857	Neil has been asking around.	Neil has been asking aroud.	115691524	1475114940396	1475114940499	h	72
227226	2435857	Neil has been asking around.	Neil has been asking aroud.	115691529	1475114940466	1475114940609	a	65
227226	2435857	Neil has been asking around.	Neil has been asking aroud.	115691533	1475114940589	1475114940754	s	83
227226	2435857	Neil has been asking around.	Neil has been asking aroud.	115691535	1475114940725	1475114940780	 	32
227226	2435857	Neil has been asking around.	Neil has been asking aroud.	115691538	1475114940846	1475114940979	b	66
227226	2435857	Neil has been asking around.	Neil has been asking aroud.	115691550	1475114940982	1475114941076	e	69
227226	2435857	Neil has been asking around.	Neil has been asking aroud.	115691553	1475114941138	1475114941248	e	69
227226	2435857	Neil has been asking around.	Neil has been asking aroud.	115691557	1475114941258	1475114941395	n	78
227226	2435857	Neil has been asking around.	Neil has been asking aroud.	115691560	1475114941358	1475114941467	 	32
227226	2435857	Neil has been asking around.	Neil has been asking aroud.	115691562	1475114941483	1475114941623	a	65
227226	2435857	Neil has been asking around.	Neil has been asking aroud.	115691580	1475114941596	1475114941804	s	83
227226	2435857	Neil has been asking around.	Neil has been asking aroud.	115691582	1475114941763	1475114941851	k	75
227226	2435857	Neil has been asking around.	Neil has been asking aroud.	115691586	1475114941939	1475114942059	i	73
227226	2435857	Neil has been asking around.	Neil has been asking aroud.	115691591	1475114942020	1475114942129	n	78
227226	2435857	Neil has been asking around.	Neil has been asking aroud.	115691593	1475114942135	1475114942260	g	71
227226	2435857	Neil has been asking around.	Neil has been asking aroud.	115691609	1475114942230	1475114942331	 	32
227226	2435857	Neil has been asking around.	Neil has been asking aroud.	115691611	1475114942371	1475114942601	a	65
227226	2435857	Neil has been asking around.	Neil has been asking aroud.	115691613	1475114942566	1475114942677	r	82
227226	2435857	Neil has been asking around.	Neil has been asking aroud.	115691615	1475114942657	1475114942787	o	79
227226	2435857	Neil has been asking around.	Neil has been asking aroud.	115691618	1475114942722	1475114942797	u	85
227226	2435857	Neil has been asking around.	Neil has been asking aroud.	115691623	1475114942888	1475114942976	n	78
227226	2435857	Neil has been asking around.	Neil has been asking aroud.	115691643	1475114943368	1475114943477	.	190
227226	2435864	I am working on the November producers today as a matter of fact.	I am working on the Novemeber producters today as a matter of fact.	115691885	1475114950694	1475114950872	SHIFT	16
227226	2435864	I am working on the November producers today as a matter of fact.	I am working on the Novemeber producters today as a matter of fact.	115691887	1475114950757	1475114950921	I	73
227226	2435864	I am working on the November producers today as a matter of fact.	I am working on the Novemeber producters today as a matter of fact.	115691890	1475114950888	1475114950993	 	32
227226	2435864	I am working on the November producers today as a matter of fact.	I am working on the Novemeber producters today as a matter of fact.	115691896	1475114951009	1475114951195	a	65
227226	2435864	I am working on the November producers today as a matter of fact.	I am working on the Novemeber producters today as a matter of fact.	115691902	1475114951133	1475114951317	m	77
227226	2435864	I am working on the November producers today as a matter of fact.	I am working on the Novemeber producters today as a matter of fact.	115691930	1475114951289	1475114951394	 	32
227226	2435864	I am working on the November producers today as a matter of fact.	I am working on the Novemeber producters today as a matter of fact.	115691935	1475114951487	1475114951680	w	87
227226	2435864	I am working on the November producers today as a matter of fact.	I am working on the Novemeber producters today as a matter of fact.	115691940	1475114951555	1475114951680	o	79
227226	2435864	I am working on the November producers today as a matter of fact.	I am working on the Novemeber producters today as a matter of fact.	115691944	1475114951695	1475114951794	r	82
227226	2435864	I am working on the November producers today as a matter of fact.	I am working on the Novemeber producters today as a matter of fact.	115691947	1475114951783	1475114951835	k	75
227226	2435864	I am working on the November producers today as a matter of fact.	I am working on the Novemeber producters today as a matter of fact.	115691950	1475114951929	1475114952060	i	73
227226	2435864	I am working on the November producers today as a matter of fact.	I am working on the Novemeber producters today as a matter of fact.	115692014	1475114952007	1475114952155	n	78
227226	2435864	I am working on the November producers today as a matter of fact.	I am working on the Novemeber producters today as a matter of fact.	115692016	1475114952170	1475114952289	 	32
227226	2435864	I am working on the November producers today as a matter of fact.	I am working on the Novemeber producters today as a matter of fact.	115692019	1475114952336	1475114952502	g	71
227226	2435864	I am working on the November producers today as a matter of fact.	I am working on the Novemeber producters today as a matter of fact.	115692022	1475114952712	1475114952777	BKSP	8
227226	2435864	I am working on the November producers today as a matter of fact.	I am working on the Novemeber producters today as a matter of fact.	115692026	1475114952831	1475114952898	BKSP	8
227226	2435864	I am working on the November producers today as a matter of fact.	I am working on the Novemeber producters today as a matter of fact.	115692029	1475114952939	1475114953023	BKSP	8
227226	2435864	I am working on the November producers today as a matter of fact.	I am working on the Novemeber producters today as a matter of fact.	115692031	1475114953039	1475114953174	g	71
227226	2435864	I am working on the November producers today as a matter of fact.	I am working on the Novemeber producters today as a matter of fact.	115692033	1475114953138	1475114953227	 	32
227226	2435864	I am working on the November producers today as a matter of fact.	I am working on the Novemeber producters today as a matter of fact.	115692035	1475114953533	1475114953577	BKSP	8
227226	2435864	I am working on the November producers today as a matter of fact.	I am working on the Novemeber producters today as a matter of fact.	115692039	1475114953655	1475114953711	BKSP	8
227226	2435864	I am working on the November producers today as a matter of fact.	I am working on the Novemeber producters today as a matter of fact.	115692045	1475114953800	1475114953863	n	78
227226	2435864	I am working on the November producers today as a matter of fact.	I am working on the Novemeber producters today as a matter of fact.	115692038	1475114953904	1475114954032	g	71
227226	2435864	I am working on the November producers today as a matter of fact.	I am working on the Novemeber producters today as a matter of fact.	115692042	1475114953998	1475114954050	 	32
227226	2435864	I am working on the November producers today as a matter of fact.	I am working on the Novemeber producters today as a matter of fact.	115692049	1475114954081	1475114954269	o	79
227226	2435864	I am working on the November producers today as a matter of fact.	I am working on the Novemeber producters today as a matter of fact.	115692053	1475114954185	1475114954308	n	78
227226	2435864	I am working on the November producers today as a matter of fact.	I am working on the Novemeber producters today as a matter of fact.	115692091	1475114954285	1475114954372	 	32
227226	2435864	I am working on the November producers today as a matter of fact.	I am working on the Novemeber producters today as a matter of fact.	115692094	1475114954372	1475114954478	t	84
227226	2435864	I am working on the November producers today as a matter of fact.	I am working on the Novemeber producters today as a matter of fact.	115692099	1475114954452	1475114954524	h	72
227226	2435864	I am working on the November producers today as a matter of fact.	I am working on the Novemeber producters today as a matter of fact.	115692102	1475114954555	1475114954675	e	69
227226	2435864	I am working on the November producers today as a matter of fact.	I am working on the Novemeber producters today as a matter of fact.	115692104	1475114954618	1475114954720	 	32
227226	2435864	I am working on the November producers today as a matter of fact.	I am working on the Novemeber producters today as a matter of fact.	115692106	1475114954774	1475114954892	n	78
227226	2435864	I am working on the November producers today as a matter of fact.	I am working on the Novemeber producters today as a matter of fact.	115692135	1475114954908	1475114955011	SHIFT	16
227226	2435864	I am working on the November producers today as a matter of fact.	I am working on the Novemeber producters today as a matter of fact.	115692137	1475114955152	1475114955221	BKSP	8
227226	2435864	I am working on the November producers today as a matter of fact.	I am working on the Novemeber producters today as a matter of fact.	115692139	1475114955284	1475114955337	BKSP	8
227226	2435864	I am working on the November producers today as a matter of fact.	I am working on the Novemeber producters today as a matter of fact.	115692143	1475114955409	1475114955612	SHIFT	16
227226	2435864	I am working on the November producers today as a matter of fact.	I am working on the Novemeber producters today as a matter of fact.	115692149	1475114955706	1475114955790	 	32
227226	2435864	I am working on the November producers today as a matter of fact.	I am working on the Novemeber producters today as a matter of fact.	115692159	1475114955821	1475114956018	SHIFT	16
227226	2435864	I am working on the November producers today as a matter of fact.	I am working on the Novemeber producters today as a matter of fact.	115692154	1475114955915	1475114956003	N	78
227226	2435864	I am working on the November producers today as a matter of fact.	I am working on the Novemeber producters today as a matter of fact.	115692163	1475114956050	1475114956149	o	79
227226	2435864	I am working on the November producers today as a matter of fact.	I am working on the Novemeber producters today as a matter of fact.	115692169	1475114956227	1475114956405	v	86
227226	2435864	I am working on the November producers today as a matter of fact.	I am working on the Novemeber producters today as a matter of fact.	115692265	1475114956362	1475114956509	e	69
227226	2435864	I am working on the November producers today as a matter of fact.	I am working on the Novemeber producters today as a matter of fact.	115692267	1475114956571	1475114956664	m	77
227226	2435864	I am working on the November producers today as a matter of fact.	I am working on the Novemeber producters today as a matter of fact.	115692269	1475114956695	1475114956842	e	69
227226	2435864	I am working on the November producers today as a matter of fact.	I am working on the Novemeber producters today as a matter of fact.	115692271	1475114956801	1475114956862	n	78
227226	2435864	I am working on the November producers today as a matter of fact.	I am working on the Novemeber producters today as a matter of fact.	115692273	1475114956925	1475114957039	t	84
227226	2435864	I am working on the November producers today as a matter of fact.	I am working on the Novemeber producters today as a matter of fact.	115692275	1475114957445	1475114957509	BKSP	8
227226	2435864	I am working on the November producers today as a matter of fact.	I am working on the Novemeber producters today as a matter of fact.	115692277	1475114957726	1475114957805	BKSP	8
227226	2435864	I am working on the November producers today as a matter of fact.	I am working on the Novemeber producters today as a matter of fact.	115692281	1475114958482	1475114958583	b	66
227226	2435864	I am working on the November producers today as a matter of fact.	I am working on the Novemeber producters today as a matter of fact.	115692305	1475114958595	1475114958734	e	69
227226	2435864	I am working on the November producers today as a matter of fact.	I am working on the Novemeber producters today as a matter of fact.	115692308	1475114958691	1475114958810	r	82
227226	2435864	I am working on the November producers today as a matter of fact.	I am working on the Novemeber producters today as a matter of fact.	115692312	1475114958826	1475114958920	 	32
227226	2435864	I am working on the November producers today as a matter of fact.	I am working on the Novemeber producters today as a matter of fact.	115692317	1475114959154	1475114959269	p	80
227226	2435864	I am working on the November producers today as a matter of fact.	I am working on the Novemeber producters today as a matter of fact.	115692322	1475114959285	1475114959396	r	82
227226	2435864	I am working on the November producers today as a matter of fact.	I am working on the Novemeber producters today as a matter of fact.	115692357	1475114959381	1475114959498	o	79
227226	2435864	I am working on the November producers today as a matter of fact.	I am working on the Novemeber producters today as a matter of fact.	115692366	1475114959560	1475114959827	d	68
227226	2435864	I am working on the November producers today as a matter of fact.	I am working on the Novemeber producters today as a matter of fact.	115692361	1475114959706	1475114959817	u	85
227226	2435864	I am working on the November producers today as a matter of fact.	I am working on the Novemeber producters today as a matter of fact.	115692371	1475114959794	1475114959909	c	67
227226	2435864	I am working on the November producers today as a matter of fact.	I am working on the Novemeber producters today as a matter of fact.	115692375	1475114960018	1475114960137	t	84
227226	2435864	I am working on the November producers today as a matter of fact.	I am working on the Novemeber producters today as a matter of fact.	115692378	1475114960477	1475114960600	e	69
227226	2435864	I am working on the November producers today as a matter of fact.	I am working on the Novemeber producters today as a matter of fact.	115692397	1475114960544	1475114960679	r	82
227226	2435864	I am working on the November producers today as a matter of fact.	I am working on the Novemeber producters today as a matter of fact.	115692399	1475114960992	1475114961173	s	83
227226	2435864	I am working on the November producers today as a matter of fact.	I am working on the Novemeber producters today as a matter of fact.	115692402	1475114961152	1475114961207	 	32
227226	2435864	I am working on the November producers today as a matter of fact.	I am working on the Novemeber producters today as a matter of fact.	115692405	1475114961394	1475114961540	t	84
227226	2435864	I am working on the November producers today as a matter of fact.	I am working on the Novemeber producters today as a matter of fact.	115692408	1475114961471	1475114961601	o	79
227226	2435864	I am working on the November producers today as a matter of fact.	I am working on the Novemeber producters today as a matter of fact.	115692411	1475114961617	1475114961742	d	68
227226	2435864	I am working on the November producers today as a matter of fact.	I am working on the Novemeber producters today as a matter of fact.	115692428	1475114961695	1475114961862	a	65
227226	2435864	I am working on the November producers today as a matter of fact.	I am working on the Novemeber producters today as a matter of fact.	115692434	1475114961777	1475114961915	y	89
227226	2435864	I am working on the November producers today as a matter of fact.	I am working on the Novemeber producters today as a matter of fact.	115692440	1475114961878	1475114961951	 	32
227226	2435864	I am working on the November producers today as a matter of fact.	I am working on the Novemeber producters today as a matter of fact.	115692447	1475114961997	1475114962154	a	65
227226	2435864	I am working on the November producers today as a matter of fact.	I am working on the Novemeber producters today as a matter of fact.	115692449	1475114962169	1475114962341	s	83
227226	2435864	I am working on the November producers today as a matter of fact.	I am working on the Novemeber producters today as a matter of fact.	115692515	1475114962320	1475114962435	 	32
227226	2435864	I am working on the November producers today as a matter of fact.	I am working on the Novemeber producters today as a matter of fact.	115692517	1475114962435	1475114962612	a	65
227226	2435864	I am working on the November producers today as a matter of fact.	I am working on the Novemeber producters today as a matter of fact.	115692521	1475114962595	1475114962700	w	87
227226	2435864	I am working on the November producers today as a matter of fact.	I am working on the Novemeber producters today as a matter of fact.	115692524	1475114962747	1475114962803	m	77
227226	2435864	I am working on the November producers today as a matter of fact.	I am working on the Novemeber producters today as a matter of fact.	115692530	1475114962992	1475114963054	BKSP	8
227226	2435864	I am working on the November producers today as a matter of fact.	I am working on the Novemeber producters today as a matter of fact.	115692534	1475114963101	1475114963190	BKSP	8
227226	2435864	I am working on the November producers today as a matter of fact.	I am working on the Novemeber producters today as a matter of fact.	115692538	1475114963692	1475114963752	BKSP	8
227226	2435864	I am working on the November producers today as a matter of fact.	I am working on the Novemeber producters today as a matter of fact.	115692542	1475114963935	1475114964028	a	65
227226	2435864	I am working on the November producers today as a matter of fact.	I am working on the Novemeber producters today as a matter of fact.	115692546	1475114964383	1475114964466	 	32
227226	2435864	I am working on the November producers today as a matter of fact.	I am working on the Novemeber producters today as a matter of fact.	115692557	1475114964590	1475114964717	m	77
227226	2435864	I am working on the November producers today as a matter of fact.	I am working on the Novemeber producters today as a matter of fact.	115692559	1475114964675	1475114964885	a	65
227226	2435864	I am working on the November producers today as a matter of fact.	I am working on the Novemeber producters today as a matter of fact.	115692566	1475114964831	1475114964924	t	84
227226	2435864	I am working on the November producers today as a matter of fact.	I am working on the Novemeber producters today as a matter of fact.	115692572	1475114965002	1475114965075	t	84
227226	2435864	I am working on the November producers today as a matter of fact.	I am working on the Novemeber producters today as a matter of fact.	115692576	1475114965138	1475114965257	e	69
227226	2435864	I am working on the November producers today as a matter of fact.	I am working on the Novemeber producters today as a matter of fact.	115692584	1475114965228	1475114965315	r	82
227226	2435864	I am working on the November producers today as a matter of fact.	I am working on the Novemeber producters today as a matter of fact.	115692586	1475114965330	1475114965382	 	32
227226	2435864	I am working on the November producers today as a matter of fact.	I am working on the Novemeber producters today as a matter of fact.	115692589	1475114965403	1475114965548	o	79
227226	2435864	I am working on the November producers today as a matter of fact.	I am working on the Novemeber producters today as a matter of fact.	115692592	1475114965502	1475114965648	f	70
227226	2435864	I am working on the November producers today as a matter of fact.	I am working on the Novemeber producters today as a matter of fact.	115692594	1475114965592	1475114965691	 	32
227226	2435864	I am working on the November producers today as a matter of fact.	I am working on the Novemeber producters today as a matter of fact.	115692596	1475114965880	1475114966030	f	70
227226	2435864	I am working on the November producers today as a matter of fact.	I am working on the Novemeber producters today as a matter of fact.	115692710	1475114965967	1475114966130	a	65
227226	2435864	I am working on the November producers today as a matter of fact.	I am working on the Novemeber producters today as a matter of fact.	115692712	1475114966097	1475114966280	c	67
227226	2435864	I am working on the November producers today as a matter of fact.	I am working on the Novemeber producters today as a matter of fact.	115692713	1475114966226	1475114966367	e	69
227226	2435864	I am working on the November producers today as a matter of fact.	I am working on the Novemeber producters today as a matter of fact.	115692714	1475114966845	1475114966966	BKSP	8
227226	2435864	I am working on the November producers today as a matter of fact.	I am working on the Novemeber producters today as a matter of fact.	115692715	1475114966966	1475114967143	t	84
227226	2435864	I am working on the November producers today as a matter of fact.	I am working on the Novemeber producters today as a matter of fact.	115692716	1475114967966	1475114968113	.	190
227226	2435889	The House would give them equal treatment with US banks.	The House would give them equal treatment with US Banks.	115693223	1475114978899	1475114979097	SHIFT	16
227226	2435889	The House would give them equal treatment with US banks.	The House would give them equal treatment with US Banks.	115693224	1475114979039	1475114979191	T	84
227226	2435889	The House would give them equal treatment with US banks.	The House would give them equal treatment with US Banks.	115693226	1475114979238	1475114979367	h	72
227226	2435889	The House would give them equal treatment with US banks.	The House would give them equal treatment with US Banks.	115693229	1475114979664	1475114979811	e	69
227226	2435889	The House would give them equal treatment with US banks.	The House would give them equal treatment with US Banks.	115693232	1475114979752	1475114979904	 	32
227226	2435889	The House would give them equal treatment with US banks.	The House would give them equal treatment with US Banks.	115693235	1475114979935	1475114980128	SHIFT	16
227226	2435889	The House would give them equal treatment with US banks.	The House would give them equal treatment with US Banks.	115693269	1475114980045	1475114980143	H	72
227226	2435889	The House would give them equal treatment with US banks.	The House would give them equal treatment with US Banks.	115693270	1475114980174	1475114980377	o	79
227226	2435889	The House would give them equal treatment with US banks.	The House would give them equal treatment with US Banks.	115693271	1475114980353	1475114980478	u	85
227226	2435889	The House would give them equal treatment with US banks.	The House would give them equal treatment with US Banks.	115693272	1475114980525	1475114980728	s	83
227226	2435889	The House would give them equal treatment with US banks.	The House would give them equal treatment with US Banks.	115693273	1475114980642	1475114980821	e	69
227226	2435889	The House would give them equal treatment with US banks.	The House would give them equal treatment with US Banks.	115693274	1475114980837	1475114980967	 	32
227226	2435889	The House would give them equal treatment with US banks.	The House would give them equal treatment with US Banks.	115693286	1475114981012	1475114981155	w	87
227226	2435889	The House would give them equal treatment with US banks.	The House would give them equal treatment with US Banks.	115693288	1475114981087	1475114981222	o	79
227226	2435889	The House would give them equal treatment with US banks.	The House would give them equal treatment with US Banks.	115693291	1475114981159	1475114981285	u	85
227226	2435889	The House would give them equal treatment with US banks.	The House would give them equal treatment with US Banks.	115693292	1475114981316	1475114981441	l	76
227226	2435889	The House would give them equal treatment with US banks.	The House would give them equal treatment with US Banks.	115693328	1475114981405	1475114981536	d	68
227226	2435889	The House would give them equal treatment with US banks.	The House would give them equal treatment with US Banks.	115693329	1475114981488	1475114981617	 	32
227226	2435889	The House would give them equal treatment with US banks.	The House would give them equal treatment with US Banks.	115693330	1475114981681	1475114981806	v	86
227226	2435889	The House would give them equal treatment with US banks.	The House would give them equal treatment with US Banks.	115693331	1475114982045	1475114982143	BKSP	8
227226	2435889	The House would give them equal treatment with US banks.	The House would give them equal treatment with US Banks.	115693333	1475114982143	1475114982254	g	71
227226	2435889	The House would give them equal treatment with US banks.	The House would give them equal treatment with US Banks.	115693337	1475114982269	1475114982373	i	73
227226	2435889	The House would give them equal treatment with US banks.	The House would give them equal treatment with US Banks.	115693351	1475114982389	1475114982672	v	86
227226	2435889	The House would give them equal treatment with US banks.	The House would give them equal treatment with US Banks.	115693340	1475114982509	1475114982647	e	69
227226	2435889	The House would give them equal treatment with US banks.	The House would give them equal treatment with US Banks.	115693354	1475114982922	1475114983035	 	32
227226	2435889	The House would give them equal treatment with US banks.	The House would give them equal treatment with US Banks.	115693358	1475114983035	1475114983157	t	84
227226	2435889	The House would give them equal treatment with US banks.	The House would give them equal treatment with US Banks.	115693362	1475114983129	1475114983244	h	72
227226	2435889	The House would give them equal treatment with US banks.	The House would give them equal treatment with US Banks.	115693365	1475114983213	1475114983363	e	69
227226	2435889	The House would give them equal treatment with US banks.	The House would give them equal treatment with US Banks.	115693417	1475114983343	1475114983529	m	77
227226	2435889	The House would give them equal treatment with US banks.	The House would give them equal treatment with US Banks.	115693420	1475114983504	1475114983650	 	32
227226	2435889	The House would give them equal treatment with US banks.	The House would give them equal treatment with US Banks.	115693423	1475114983898	1475114984091	w	87
227226	2435889	The House would give them equal treatment with US banks.	The House would give them equal treatment with US Banks.	115693425	1475114984051	1475114984182	u	85
227226	2435889	The House would give them equal treatment with US banks.	The House would give them equal treatment with US Banks.	115693427	1475114984369	1475114984426	BKSP	8
227226	2435889	The House would give them equal treatment with US banks.	The House would give them equal treatment with US Banks.	115693429	1475114984489	1475114984556	BKSP	8
227226	2435889	The House would give them equal treatment with US banks.	The House would give them equal treatment with US Banks.	115693430	1475114984631	1475114984808	u	85
227226	2435889	The House would give them equal treatment with US banks.	The House would give them equal treatment with US Banks.	115693511	1475114984760	1475114984936	q	81
227226	2435889	The House would give them equal treatment with US banks.	The House would give them equal treatment with US Banks.	115693513	1475114985162	1475114985330	BKSP	8
227226	2435889	The House would give them equal treatment with US banks.	The House would give them equal treatment with US Banks.	115693516	1475114985451	1475114985561	BKSP	8
227226	2435889	The House would give them equal treatment with US banks.	The House would give them equal treatment with US Banks.	115693525	1475114986104	1475114986337	e	69
227226	2435889	The House would give them equal treatment with US banks.	The House would give them equal treatment with US Banks.	115693519	1475114986259	1475114986321	w	87
227226	2435889	The House would give them equal treatment with US banks.	The House would give them equal treatment with US Banks.	115693531	1475114986697	1475114986806	BKSP	8
227226	2435889	The House would give them equal treatment with US banks.	The House would give them equal treatment with US Banks.	115693536	1475114986806	1475114986991	q	81
227226	2435889	The House would give them equal treatment with US banks.	The House would give them equal treatment with US Banks.	115693539	1475114986946	1475114987155	u	85
227226	2435889	The House would give them equal treatment with US banks.	The House would give them equal treatment with US Banks.	115693542	1475114987202	1475114987404	a	65
227226	2435889	The House would give them equal treatment with US banks.	The House would give them equal treatment with US Banks.	115693558	1475114987318	1475114987541	l	76
227226	2435889	The House would give them equal treatment with US banks.	The House would give them equal treatment with US Banks.	115693561	1475114987497	1475114987603	 	32
227226	2435889	The House would give them equal treatment with US banks.	The House would give them equal treatment with US Banks.	115693564	1475114987712	1475114987833	r	82
227226	2435889	The House would give them equal treatment with US banks.	The House would give them equal treatment with US Banks.	115693569	1475114988130	1475114988255	BKSP	8
227226	2435889	The House would give them equal treatment with US banks.	The House would give them equal treatment with US Banks.	115693573	1475114988193	1475114988295	t	84
227226	2435889	The House would give them equal treatment with US banks.	The House would give them equal treatment with US Banks.	115693576	1475114988357	1475114988546	r	82
227226	2435889	The House would give them equal treatment with US banks.	The House would give them equal treatment with US Banks.	115693605	1475114988450	1475114988649	e	69
227226	2435889	The House would give them equal treatment with US banks.	The House would give them equal treatment with US Banks.	115693606	1475114988552	1475114988793	a	65
227226	2435889	The House would give them equal treatment with US banks.	The House would give them equal treatment with US Banks.	115693607	1475114988743	1475114988968	t	84
227226	2435889	The House would give them equal treatment with US banks.	The House would give them equal treatment with US Banks.	115693609	1475114988904	1475114989081	e	69
227226	2435889	The House would give them equal treatment with US banks.	The House would give them equal treatment with US Banks.	115693612	1475114989571	1475114989641	BKSP	8
227226	2435889	The House would give them equal treatment with US banks.	The House would give them equal treatment with US Banks.	115693616	1475114989750	1475114989837	m	77
227226	2435889	The House would give them equal treatment with US banks.	The House would give them equal treatment with US Banks.	115693620	1475114989837	1475114989982	e	69
227226	2435889	The House would give them equal treatment with US banks.	The House would give them equal treatment with US Banks.	115693636	1475114989909	1475114990025	n	78
227226	2435889	The House would give them equal treatment with US banks.	The House would give them equal treatment with US Banks.	115693637	1475114990040	1475114990180	t	84
227226	2435889	The House would give them equal treatment with US banks.	The House would give them equal treatment with US Banks.	115693638	1475114990180	1475114990285	 	32
227226	2435889	The House would give them equal treatment with US banks.	The House would give them equal treatment with US Banks.	115693640	1475114990316	1475114990499	w	87
227226	2435889	The House would give them equal treatment with US banks.	The House would give them equal treatment with US Banks.	115693643	1475114990415	1475114990564	i	73
227226	2435889	The House would give them equal treatment with US banks.	The House would give them equal treatment with US Banks.	115693690	1475114990546	1475114990691	t	84
227226	2435889	The House would give them equal treatment with US banks.	The House would give them equal treatment with US Banks.	115693691	1475114990629	1475114990800	h	72
227226	2435889	The House would give them equal treatment with US banks.	The House would give them equal treatment with US Banks.	115693692	1475114990738	1475114990853	 	32
227226	2435889	The House would give them equal treatment with US banks.	The House would give them equal treatment with US Banks.	115693699	1475114990915	1475114991468	SHIFT	16
227226	2435889	The House would give them equal treatment with US banks.	The House would give them equal treatment with US Banks.	115693694	1475114991031	1475114991160	U	85
227226	2435889	The House would give them equal treatment with US banks.	The House would give them equal treatment with US Banks.	115693696	1475114991164	1475114991374	S	83
227226	2435889	The House would give them equal treatment with US banks.	The House would give them equal treatment with US Banks.	115693704	1475114991499	1475114991603	 	32
227226	2435889	The House would give them equal treatment with US banks.	The House would give them equal treatment with US Banks.	115693757	1475114991641	1475114991783	SHIFT	16
227226	2435889	The House would give them equal treatment with US banks.	The House would give them equal treatment with US Banks.	115693759	1475114991719	1475114991848	B	66
227226	2435889	The House would give them equal treatment with US banks.	The House would give them equal treatment with US Banks.	115693762	1475114991990	1475114992010	a	65
227226	2435889	The House would give them equal treatment with US banks.	The House would give them equal treatment with US Banks.	115693766	1475114992015	1475114992130	n	78
227226	2435889	The House would give them equal treatment with US banks.	The House would give them equal treatment with US Banks.	115693771	1475114992682	1475114992801	k	75
227226	2435889	The House would give them equal treatment with US banks.	The House would give them equal treatment with US Banks.	115693803	1475114992788	1475114992938	s	83
227226	2435889	The House would give them equal treatment with US banks.	The House would give them equal treatment with US Banks.	115693805	1475114993113	1475114993243	.	190
227226	2435907	Miller might have to wait until Sunday.	Miller might have to wait until Sunday.	115693999	1475114998012	1475114998201	SHIFT	16
227226	2435907	Miller might have to wait until Sunday.	Miller might have to wait until Sunday.	115693996	1475114998092	1475114998186	M	77
227226	2435907	Miller might have to wait until Sunday.	Miller might have to wait until Sunday.	115694002	1475114998233	1475114998315	i	73
227226	2435907	Miller might have to wait until Sunday.	Miller might have to wait until Sunday.	115694005	1475114998396	1475114998462	l	76
227226	2435907	Miller might have to wait until Sunday.	Miller might have to wait until Sunday.	115694008	1475114998525	1475114998664	l	76
227226	2435907	Miller might have to wait until Sunday.	Miller might have to wait until Sunday.	115694038	1475114998628	1475114998765	e	69
227226	2435907	Miller might have to wait until Sunday.	Miller might have to wait until Sunday.	115694042	1475114998731	1475114998864	r	82
227226	2435907	Miller might have to wait until Sunday.	Miller might have to wait until Sunday.	115694046	1475114998843	1475114998952	 	32
227226	2435907	Miller might have to wait until Sunday.	Miller might have to wait until Sunday.	115694049	1475114999030	1475114999160	m	77
227226	2435907	Miller might have to wait until Sunday.	Miller might have to wait until Sunday.	115694054	1475114999164	1475114999291	i	73
227226	2435907	Miller might have to wait until Sunday.	Miller might have to wait until Sunday.	115694057	1475114999291	1475114999426	g	71
227226	2435907	Miller might have to wait until Sunday.	Miller might have to wait until Sunday.	115694075	1475114999348	1475114999469	h	72
227226	2435907	Miller might have to wait until Sunday.	Miller might have to wait until Sunday.	115694079	1475114999484	1475114999621	t	84
227226	2435907	Miller might have to wait until Sunday.	Miller might have to wait until Sunday.	115694080	1475114999571	1475114999655	 	32
227226	2435907	Miller might have to wait until Sunday.	Miller might have to wait until Sunday.	115694082	1475114999733	1475114999862	h	72
227226	2435907	Miller might have to wait until Sunday.	Miller might have to wait until Sunday.	115694084	1475114999822	1475114999974	a	65
227226	2435907	Miller might have to wait until Sunday.	Miller might have to wait until Sunday.	115694085	1475114999931	1475115000077	v	86
227226	2435907	Miller might have to wait until Sunday.	Miller might have to wait until Sunday.	115694090	1475115000040	1475115000176	e	69
227226	2435907	Miller might have to wait until Sunday.	Miller might have to wait until Sunday.	115694095	1475115000092	1475115000176	 	32
227226	2435907	Miller might have to wait until Sunday.	Miller might have to wait until Sunday.	115694101	1475115000207	1475115000339	t	84
227226	2435907	Miller might have to wait until Sunday.	Miller might have to wait until Sunday.	115694106	1475115000301	1475115000468	o	79
227226	2435907	Miller might have to wait until Sunday.	Miller might have to wait until Sunday.	115694116	1475115000415	1475115000533	 	32
227226	2435907	Miller might have to wait until Sunday.	Miller might have to wait until Sunday.	115694118	1475115000609	1475115000780	w	87
227226	2435907	Miller might have to wait until Sunday.	Miller might have to wait until Sunday.	115694122	1475115000707	1475115000899	a	65
227226	2435907	Miller might have to wait until Sunday.	Miller might have to wait until Sunday.	115694124	1475115000827	1475115000946	i	73
227226	2435907	Miller might have to wait until Sunday.	Miller might have to wait until Sunday.	115694126	1475115000954	1475115001127	t	84
227226	2435907	Miller might have to wait until Sunday.	Miller might have to wait until Sunday.	115694162	1475115001108	1475115001244	 	32
227226	2435907	Miller might have to wait until Sunday.	Miller might have to wait until Sunday.	115694164	1475115001557	1475115001629	u	85
227226	2435907	Miller might have to wait until Sunday.	Miller might have to wait until Sunday.	115694168	1475115001693	1475115001796	n	78
227226	2435907	Miller might have to wait until Sunday.	Miller might have to wait until Sunday.	115694171	1475115001889	1475115002011	t	84
227226	2435907	Miller might have to wait until Sunday.	Miller might have to wait until Sunday.	115694175	1475115001967	1475115002077	i	73
227226	2435907	Miller might have to wait until Sunday.	Miller might have to wait until Sunday.	115694177	1475115002092	1475115002139	l	76
227226	2435907	Miller might have to wait until Sunday.	Miller might have to wait until Sunday.	115694242	1475115002151	1475115002275	l	76
227226	2435907	Miller might have to wait until Sunday.	Miller might have to wait until Sunday.	115694243	1475115002998	1475115003077	BKSP	8
227226	2435907	Miller might have to wait until Sunday.	Miller might have to wait until Sunday.	115694245	1475115003139	1475115003249	 	32
227226	2435907	Miller might have to wait until Sunday.	Miller might have to wait until Sunday.	115694247	1475115003327	1475115003483	SHIFT	16
227226	2435907	Miller might have to wait until Sunday.	Miller might have to wait until Sunday.	115694250	1475115003536	1475115003762	s	83
227226	2435907	Miller might have to wait until Sunday.	Miller might have to wait until Sunday.	115694255	1475115003676	1475115003777	u	85
227226	2435907	Miller might have to wait until Sunday.	Miller might have to wait until Sunday.	115694258	1475115003902	1475115004030	n	78
227226	2435907	Miller might have to wait until Sunday.	Miller might have to wait until Sunday.	115694326	1475115004186	1475115004238	BKSP	8
227226	2435907	Miller might have to wait until Sunday.	Miller might have to wait until Sunday.	115694329	1475115004318	1475115004390	BKSP	8
227226	2435907	Miller might have to wait until Sunday.	Miller might have to wait until Sunday.	115694332	1475115004405	1475115004644	SHIFT	16
227226	2435907	Miller might have to wait until Sunday.	Miller might have to wait until Sunday.	115694339	1475115004484	1475115004759	S	83
227226	2435907	Miller might have to wait until Sunday.	Miller might have to wait until Sunday.	115694335	1475115004608	1475115004697	U	85
227226	2435907	Miller might have to wait until Sunday.	Miller might have to wait until Sunday.	115694342	1475115004853	1475115004921	BKSP	8
227226	2435907	Miller might have to wait until Sunday.	Miller might have to wait until Sunday.	115694346	1475115004993	1475115005056	BKSP	8
227226	2435907	Miller might have to wait until Sunday.	Miller might have to wait until Sunday.	115694353	1475115005118	1475115005222	BKSP	8
227226	2435907	Miller might have to wait until Sunday.	Miller might have to wait until Sunday.	115694360	1475115005207	1475115005397	SHIFT	16
227226	2435907	Miller might have to wait until Sunday.	Miller might have to wait until Sunday.	115694368	1475115005269	1475115005482	S	83
227226	2435907	Miller might have to wait until Sunday.	Miller might have to wait until Sunday.	115694366	1475115005379	1475115005451	U	85
227226	2435907	Miller might have to wait until Sunday.	Miller might have to wait until Sunday.	115694374	1475115005590	1475115005718	n	78
227226	2435907	Miller might have to wait until Sunday.	Miller might have to wait until Sunday.	115694404	1475115005954	1475115006029	BKSP	8
227226	2435907	Miller might have to wait until Sunday.	Miller might have to wait until Sunday.	115694406	1475115006097	1475115006124	BKSP	8
227226	2435907	Miller might have to wait until Sunday.	Miller might have to wait until Sunday.	115694411	1475115006285	1475115006364	u	85
227226	2435907	Miller might have to wait until Sunday.	Miller might have to wait until Sunday.	115694416	1475115006532	1475115006669	n	78
227226	2435907	Miller might have to wait until Sunday.	Miller might have to wait until Sunday.	115694421	1475115006669	1475115006806	d	68
227226	2435907	Miller might have to wait until Sunday.	Miller might have to wait until Sunday.	115694425	1475115006759	1475115006923	a	65
227226	2435907	Miller might have to wait until Sunday.	Miller might have to wait until Sunday.	115694445	1475115006868	1475115006983	y	89
227226	2435907	Miller might have to wait until Sunday.	Miller might have to wait until Sunday.	115694448	1475115007284	1475115007405	.	190
227226	2435921	The loans were allegedly made to players.	The loans were allegedly made to players	115694682	1475115012394	1475115012552	SHIFT	16
227226	2435921	The loans were allegedly made to players.	The loans were allegedly made to players	115694684	1475115012504	1475115012647	T	84
227226	2435921	The loans were allegedly made to players.	The loans were allegedly made to players	115694686	1475115012597	1475115012706	h	72
227226	2435921	The loans were allegedly made to players.	The loans were allegedly made to players	115694688	1475115012706	1475115012868	e	69
227226	2435921	The loans were allegedly made to players.	The loans were allegedly made to players	115694691	1475115012785	1475115012915	 	32
227226	2435921	The loans were allegedly made to players.	The loans were allegedly made to players	115694694	1475115012930	1475115013040	l	76
227226	2435921	The loans were allegedly made to players.	The loans were allegedly made to players	115694698	1475115013107	1475115013250	o	79
227226	2435921	The loans were allegedly made to players.	The loans were allegedly made to players	115694699	1475115013212	1475115013405	a	65
227226	2435921	The loans were allegedly made to players.	The loans were allegedly made to players	115694702	1475115013362	1475115013492	n	78
227226	2435921	The loans were allegedly made to players.	The loans were allegedly made to players	115694705	1475115013537	1475115013696	s	83
227226	2435921	The loans were allegedly made to players.	The loans were allegedly made to players	115694732	1475115013671	1475115013802	 	32
227226	2435921	The loans were allegedly made to players.	The loans were allegedly made to players	115694734	1475115013927	1475115014123	w	87
227226	2435921	The loans were allegedly made to players.	The loans were allegedly made to players	115694737	1475115014035	1475115014150	e	69
227226	2435921	The loans were allegedly made to players.	The loans were allegedly made to players	115694740	1475115014110	1475115014258	r	82
227226	2435921	The loans were allegedly made to players.	The loans were allegedly made to players	115694744	1475115014223	1475115014394	e	69
227226	2435921	The loans were allegedly made to players.	The loans were allegedly made to players	115694769	1475115014363	1475115014441	 	32
227226	2435921	The loans were allegedly made to players.	The loans were allegedly made to players	115694770	1475115014535	1475115014718	a	65
227226	2435921	The loans were allegedly made to players.	The loans were allegedly made to players	115694774	1475115014660	1475115014718	l	76
227226	2435921	The loans were allegedly made to players.	The loans were allegedly made to players	115694778	1475115014794	1475115014926	l	76
227226	2435921	The loans were allegedly made to players.	The loans were allegedly made to players	115694783	1475115014911	1475115015180	e	69
227226	2435921	The loans were allegedly made to players.	The loans were allegedly made to players	115694811	1475115015162	1475115015343	g	71
227226	2435921	The loans were allegedly made to players.	The loans were allegedly made to players	115694813	1475115015689	1475115015806	e	69
227226	2435921	The loans were allegedly made to players.	The loans were allegedly made to players	115694815	1475115015946	1475115016124	d	68
227226	2435921	The loans were allegedly made to players.	The loans were allegedly made to players	115694817	1475115016233	1475115016410	l	76
227226	2435921	The loans were allegedly made to players.	The loans were allegedly made to players	115694818	1475115016338	1475115016535	y	89
227226	2435921	The loans were allegedly made to players.	The loans were allegedly made to players	115694844	1475115016475	1475115016591	 	32
227226	2435921	The loans were allegedly made to players.	The loans were allegedly made to players	115694846	1475115016702	1475115016812	m	77
227226	2435921	The loans were allegedly made to players.	The loans were allegedly made to players	115694848	1475115016797	1475115016972	a	65
227226	2435921	The loans were allegedly made to players.	The loans were allegedly made to players	115694850	1475115016920	1475115016993	k	75
227226	2435921	The loans were allegedly made to players.	The loans were allegedly made to players	115694854	1475115017024	1475115017192	e	69
227226	2435921	The loans were allegedly made to players.	The loans were allegedly made to players	115694858	1475115017370	1475115017414	BKSP	8
227226	2435921	The loans were allegedly made to players.	The loans were allegedly made to players	115694862	1475115017477	1475115017575	BKSP	8
227226	2435921	The loans were allegedly made to players.	The loans were allegedly made to players	115694887	1475115017531	1475115017635	d	68
227226	2435921	The loans were allegedly made to players.	The loans were allegedly made to players	115694888	1475115017697	1475115017842	e	69
227226	2435921	The loans were allegedly made to players.	The loans were allegedly made to players	115694889	1475115017780	1475115017858	 	32
227226	2435921	The loans were allegedly made to players.	The loans were allegedly made to players	115694890	1475115017905	1475115018046	t	84
227226	2435921	The loans were allegedly made to players.	The loans were allegedly made to players	115694891	1475115017973	1475115018165	o	79
227226	2435921	The loans were allegedly made to players.	The loans were allegedly made to players	115694892	1475115018290	1475115018431	p	80
227226	2435921	The loans were allegedly made to players.	The loans were allegedly made to players	115694956	1475115018626	1475115018717	l	76
227226	2435921	The loans were allegedly made to players.	The loans were allegedly made to players	115694961	1475115018889	1475115018959	BKSP	8
227226	2435921	The loans were allegedly made to players.	The loans were allegedly made to players	115694964	1475115019007	1475115019095	BKSP	8
227226	2435921	The loans were allegedly made to players.	The loans were allegedly made to players	115694970	1475115019129	1475115019228	 	32
227226	2435921	The loans were allegedly made to players.	The loans were allegedly made to players	115694973	1475115019321	1475115019426	p	80
227226	2435921	The loans were allegedly made to players.	The loans were allegedly made to players	115694978	1475115019769	1475115019892	l	76
227226	2435921	The loans were allegedly made to players.	The loans were allegedly made to players	115694985	1475115019902	1475115020150	a	65
227226	2435921	The loans were allegedly made to players.	The loans were allegedly made to players	115695008	1475115020066	1475115020197	y	89
227226	2435921	The loans were allegedly made to players.	The loans were allegedly made to players	115695010	1475115020275	1475115020410	e	69
227226	2435921	The loans were allegedly made to players.	The loans were allegedly made to players	115695016	1475115020365	1475115020472	r	82
227226	2435921	The loans were allegedly made to players.	The loans were allegedly made to players	115695020	1475115020488	1475115020680	s	83
227226	2435938	Both sides had indicated interest in a cessation of hostilities	Both sides had indicated interest in a cessation of hostilities	115696323	1475115047081	1475115047310	SHIFT	16
227226	2435938	Both sides had indicated interest in a cessation of hostilities	Both sides had indicated interest in a cessation of hostilities	115696321	1475115047175	1475115047294	B	66
227226	2435938	Both sides had indicated interest in a cessation of hostilities	Both sides had indicated interest in a cessation of hostilities	115696325	1475115047310	1475115047447	o	79
227226	2435938	Both sides had indicated interest in a cessation of hostilities	Both sides had indicated interest in a cessation of hostilities	115696327	1475115047420	1475115047607	t	84
227226	2435938	Both sides had indicated interest in a cessation of hostilities	Both sides had indicated interest in a cessation of hostilities	115696330	1475115047521	1475115047744	h	72
227226	2435938	Both sides had indicated interest in a cessation of hostilities	Both sides had indicated interest in a cessation of hostilities	115696368	1475115047686	1475115047831	 	32
227226	2435938	Both sides had indicated interest in a cessation of hostilities	Both sides had indicated interest in a cessation of hostilities	115696376	1475115047847	1475115048005	s	83
227226	2435938	Both sides had indicated interest in a cessation of hostilities	Both sides had indicated interest in a cessation of hostilities	115696381	1475115047925	1475115048092	i	73
227226	2435938	Both sides had indicated interest in a cessation of hostilities	Both sides had indicated interest in a cessation of hostilities	115696386	1475115048067	1475115048160	d	68
227226	2435938	Both sides had indicated interest in a cessation of hostilities	Both sides had indicated interest in a cessation of hostilities	115696390	1475115048238	1475115048420	e	69
227226	2435938	Both sides had indicated interest in a cessation of hostilities	Both sides had indicated interest in a cessation of hostilities	115696413	1475115048306	1475115048499	s	83
227226	2435938	Both sides had indicated interest in a cessation of hostilities	Both sides had indicated interest in a cessation of hostilities	115696415	1475115048482	1475115048589	 	32
227226	2435938	Both sides had indicated interest in a cessation of hostilities	Both sides had indicated interest in a cessation of hostilities	115696418	1475115048639	1475115048832	h	72
227226	2435938	Both sides had indicated interest in a cessation of hostilities	Both sides had indicated interest in a cessation of hostilities	115696422	1475115048733	1475115048902	a	65
227226	2435938	Both sides had indicated interest in a cessation of hostilities	Both sides had indicated interest in a cessation of hostilities	115696428	1475115048996	1475115049175	d	68
227226	2435938	Both sides had indicated interest in a cessation of hostilities	Both sides had indicated interest in a cessation of hostilities	115696435	1475115049194	1475115049320	 	32
227226	2435938	Both sides had indicated interest in a cessation of hostilities	Both sides had indicated interest in a cessation of hostilities	115696460	1475115049412	1475115049557	i	73
227226	2435938	Both sides had indicated interest in a cessation of hostilities	Both sides had indicated interest in a cessation of hostilities	115696461	1475115049520	1475115049660	n	78
227226	2435938	Both sides had indicated interest in a cessation of hostilities	Both sides had indicated interest in a cessation of hostilities	115696463	1475115049676	1475115049848	d	68
227226	2435938	Both sides had indicated interest in a cessation of hostilities	Both sides had indicated interest in a cessation of hostilities	115696465	1475115049864	1475115049989	i	73
227226	2435938	Both sides had indicated interest in a cessation of hostilities	Both sides had indicated interest in a cessation of hostilities	115696469	1475115049989	1475115050149	c	67
227226	2435938	Both sides had indicated interest in a cessation of hostilities	Both sides had indicated interest in a cessation of hostilities	115696519	1475115050319	1475115050602	a	65
227226	2435938	Both sides had indicated interest in a cessation of hostilities	Both sides had indicated interest in a cessation of hostilities	115696523	1475115050493	1475115050686	t	84
227226	2435938	Both sides had indicated interest in a cessation of hostilities	Both sides had indicated interest in a cessation of hostilities	115696528	1475115050633	1475115050764	e	69
227226	2435938	Both sides had indicated interest in a cessation of hostilities	Both sides had indicated interest in a cessation of hostilities	115696534	1475115050827	1475115051025	d	68
227226	2435938	Both sides had indicated interest in a cessation of hostilities	Both sides had indicated interest in a cessation of hostilities	115696540	1475115051025	1475115051129	 	32
227226	2435938	Both sides had indicated interest in a cessation of hostilities	Both sides had indicated interest in a cessation of hostilities	115696562	1475115051170	1475115051333	i	73
227226	2435938	Both sides had indicated interest in a cessation of hostilities	Both sides had indicated interest in a cessation of hostilities	115696566	1475115051276	1475115051456	n	78
227226	2435938	Both sides had indicated interest in a cessation of hostilities	Both sides had indicated interest in a cessation of hostilities	115696574	1475115051714	1475115051800	t	84
227226	2435938	Both sides had indicated interest in a cessation of hostilities	Both sides had indicated interest in a cessation of hostilities	115696580	1475115051878	1475115052001	e	69
227226	2435938	Both sides had indicated interest in a cessation of hostilities	Both sides had indicated interest in a cessation of hostilities	115696634	1475115051953	1475115052112	r	82
227226	2435938	Both sides had indicated interest in a cessation of hostilities	Both sides had indicated interest in a cessation of hostilities	115696635	1475115052144	1475115052367	e	69
227226	2435938	Both sides had indicated interest in a cessation of hostilities	Both sides had indicated interest in a cessation of hostilities	115696636	1475115052201	1475115052377	s	83
227226	2435938	Both sides had indicated interest in a cessation of hostilities	Both sides had indicated interest in a cessation of hostilities	115696638	1475115052342	1475115052489	t	84
227226	2435938	Both sides had indicated interest in a cessation of hostilities	Both sides had indicated interest in a cessation of hostilities	115696642	1475115052504	1475115052538	e	69
227226	2435938	Both sides had indicated interest in a cessation of hostilities	Both sides had indicated interest in a cessation of hostilities	115696644	1475115053128	1475115053208	BKSP	8
227226	2435938	Both sides had indicated interest in a cessation of hostilities	Both sides had indicated interest in a cessation of hostilities	115696647	1475115053270	1475115053343	 	32
227226	2435938	Both sides had indicated interest in a cessation of hostilities	Both sides had indicated interest in a cessation of hostilities	115696660	1475115053405	1475115053556	i	73
227226	2435938	Both sides had indicated interest in a cessation of hostilities	Both sides had indicated interest in a cessation of hostilities	115696661	1475115053504	1475115053641	n	78
227226	2435938	Both sides had indicated interest in a cessation of hostilities	Both sides had indicated interest in a cessation of hostilities	115696662	1475115053619	1475115053697	 	32
227226	2435938	Both sides had indicated interest in a cessation of hostilities	Both sides had indicated interest in a cessation of hostilities	115696663	1475115053712	1475115053899	a	65
227226	2435938	Both sides had indicated interest in a cessation of hostilities	Both sides had indicated interest in a cessation of hostilities	115696717	1475115053811	1475115053931	 	32
227226	2435938	Both sides had indicated interest in a cessation of hostilities	Both sides had indicated interest in a cessation of hostilities	115696719	1475115054172	1475115054322	c	67
227226	2435938	Both sides had indicated interest in a cessation of hostilities	Both sides had indicated interest in a cessation of hostilities	115696722	1475115054338	1475115054590	e	69
227226	2435938	Both sides had indicated interest in a cessation of hostilities	Both sides had indicated interest in a cessation of hostilities	115696723	1475115054550	1475115054649	s	83
227226	2435938	Both sides had indicated interest in a cessation of hostilities	Both sides had indicated interest in a cessation of hostilities	115696726	1475115054696	1475115054865	s	83
227226	2435938	Both sides had indicated interest in a cessation of hostilities	Both sides had indicated interest in a cessation of hostilities	115696751	1475115054826	1475115055014	a	65
227226	2435938	Both sides had indicated interest in a cessation of hostilities	Both sides had indicated interest in a cessation of hostilities	115696754	1475115054952	1475115055164	t	84
227226	2435938	Both sides had indicated interest in a cessation of hostilities	Both sides had indicated interest in a cessation of hostilities	115696757	1475115055124	1475115055306	i	73
227226	2435938	Both sides had indicated interest in a cessation of hostilities	Both sides had indicated interest in a cessation of hostilities	115696765	1475115055197	1475115055384	o	79
227226	2435938	Both sides had indicated interest in a cessation of hostilities	Both sides had indicated interest in a cessation of hostilities	115696761	1475115055243	1475115055368	n	78
227226	2435938	Both sides had indicated interest in a cessation of hostilities	Both sides had indicated interest in a cessation of hostilities	115696768	1475115055431	1475115055535	 	32
227226	2435938	Both sides had indicated interest in a cessation of hostilities	Both sides had indicated interest in a cessation of hostilities	115696798	1475115055571	1475115055704	o	79
227226	2435938	Both sides had indicated interest in a cessation of hostilities	Both sides had indicated interest in a cessation of hostilities	115696804	1475115055670	1475115055839	f	70
227226	2435938	Both sides had indicated interest in a cessation of hostilities	Both sides had indicated interest in a cessation of hostilities	115696807	1475115055785	1475115055895	 	32
227226	2435938	Both sides had indicated interest in a cessation of hostilities	Both sides had indicated interest in a cessation of hostilities	115696811	1475115055958	1475115056078	h	72
227226	2435938	Both sides had indicated interest in a cessation of hostilities	Both sides had indicated interest in a cessation of hostilities	115696815	1475115056211	1475115056332	o	79
227226	2435938	Both sides had indicated interest in a cessation of hostilities	Both sides had indicated interest in a cessation of hostilities	115696868	1475115056773	1475115056968	s	83
227226	2435938	Both sides had indicated interest in a cessation of hostilities	Both sides had indicated interest in a cessation of hostilities	115696873	1475115056920	1475115057086	t	84
227226	2435938	Both sides had indicated interest in a cessation of hostilities	Both sides had indicated interest in a cessation of hostilities	115696877	1475115057164	1475115057265	i	73
227226	2435938	Both sides had indicated interest in a cessation of hostilities	Both sides had indicated interest in a cessation of hostilities	115696880	1475115057368	1475115057493	l	76
227226	2435938	Both sides had indicated interest in a cessation of hostilities	Both sides had indicated interest in a cessation of hostilities	115696883	1475115057587	1475115057692	i	73
227226	2435938	Both sides had indicated interest in a cessation of hostilities	Both sides had indicated interest in a cessation of hostilities	115696957	1475115057811	1475115057986	t	84
227226	2435938	Both sides had indicated interest in a cessation of hostilities	Both sides had indicated interest in a cessation of hostilities	115696960	1475115057932	1475115058055	i	73
227226	2435938	Both sides had indicated interest in a cessation of hostilities	Both sides had indicated interest in a cessation of hostilities	115696966	1475115058055	1475115058244	e	69
227226	2435938	Both sides had indicated interest in a cessation of hostilities	Both sides had indicated interest in a cessation of hostilities	115696974	1475115058141	1475115058322	s	83
227226	2435938	Both sides had indicated interest in a cessation of hostilities	Both sides had indicated interest in a cessation of hostilities	115696981	1475115059197	1475115059384	.	190
227226	2435938	Both sides had indicated interest in a cessation of hostilities	Both sides had indicated interest in a cessation of hostilities	115697012	1475115059632	1475115059701	BKSP	8
227226	2435976	I'll give him 10.	I'll give him 10.	115697165	1475115062071	1475115062254	SHIFT	16
227226	2435976	I'll give him 10.	I'll give him 10.	115697162	1475115062149	1475115062254	I	73
227226	2435976	I'll give him 10.	I'll give him 10.	115697167	1475115062520	1475115062617	'	222
227226	2435976	I'll give him 10.	I'll give him 10.	115697173	1475115062664	1475115062728	l	76
227226	2435976	I'll give him 10.	I'll give him 10.	115697179	1475115062805	1475115062940	l	76
227226	2435976	I'll give him 10.	I'll give him 10.	115697209	1475115062910	1475115063019	 	32
227226	2435976	I'll give him 10.	I'll give him 10.	115697212	1475115063097	1475115063211	g	71
227226	2435976	I'll give him 10.	I'll give him 10.	115697215	1475115063180	1475115063317	i	73
227226	2435976	I'll give him 10.	I'll give him 10.	115697218	1475115063348	1475115063502	v	86
227226	2435976	I'll give him 10.	I'll give him 10.	115697221	1475115063442	1475115063655	e	69
227226	2435976	I'll give him 10.	I'll give him 10.	115697272	1475115063592	1475115063684	 	32
227226	2435976	I'll give him 10.	I'll give him 10.	115697275	1475115063746	1475115063858	h	72
227226	2435976	I'll give him 10.	I'll give him 10.	115697278	1475115063821	1475115063998	i	73
227226	2435976	I'll give him 10.	I'll give him 10.	115697282	1475115063967	1475115064119	m	77
227226	2435976	I'll give him 10.	I'll give him 10.	115697286	1475115064082	1475115064202	 	32
227226	2435976	I'll give him 10.	I'll give him 10.	115697287	1475115064585	1475115064712	1	49
227226	2435976	I'll give him 10.	I'll give him 10.	115697336	1475115064731	1475115064832	9	57
227226	2435976	I'll give him 10.	I'll give him 10.	115697339	1475115065120	1475115065254	BKSP	8
227226	2435976	I'll give him 10.	I'll give him 10.	115697344	1475115065317	1475115065436	0	48
227226	2435976	I'll give him 10.	I'll give him 10.	115697349	1475115065592	1475115065709	.	190
227226	2435990	I was planning to attend.	I was planning to attend.	115697432	1475115067812	1475115067968	SHIFT	16
227226	2435990	I was planning to attend.	I was planning to attend.	115697436	1475115067890	1475115068097	I	73
227226	2435990	I was planning to attend.	I was planning to attend.	115697440	1475115067983	1475115068113	 	32
227226	2435990	I was planning to attend.	I was planning to attend.	115697443	1475115068128	1475115068301	w	87
227226	2435990	I was planning to attend.	I was planning to attend.	115697446	1475115068232	1475115068457	a	65
227226	2435990	I was planning to attend.	I was planning to attend.	115697468	1475115068364	1475115068540	s	83
227226	2435990	I was planning to attend.	I was planning to attend.	115697470	1475115068512	1475115068604	 	32
227226	2435990	I was planning to attend.	I was planning to attend.	115697474	1475115068732	1475115068864	p	80
227226	2435990	I was planning to attend.	I was planning to attend.	115697478	1475115068963	1475115069083	l	76
227226	2435990	I was planning to attend.	I was planning to attend.	115697492	1475115069083	1475115069333	a	65
227226	2435990	I was planning to attend.	I was planning to attend.	115697481	1475115069254	1475115069322	n	78
227226	2435990	I was planning to attend.	I was planning to attend.	115697494	1475115069396	1475115069447	n	78
227226	2435990	I was planning to attend.	I was planning to attend.	115697497	1475115069525	1475115069640	i	73
227226	2435990	I was planning to attend.	I was planning to attend.	115697500	1475115069593	1475115069702	n	78
227226	2435990	I was planning to attend.	I was planning to attend.	115697504	1475115069734	1475115069847	g	71
227226	2435990	I was planning to attend.	I was planning to attend.	115697556	1475115069817	1475115069908	 	32
227226	2435990	I was planning to attend.	I was planning to attend.	115697559	1475115070158	1475115070303	t	84
227226	2435990	I was planning to attend.	I was planning to attend.	115697562	1475115070223	1475115070386	o	79
227226	2435990	I was planning to attend.	I was planning to attend.	115697565	1475115070318	1475115070453	 	32
227226	2435990	I was planning to attend.	I was planning to attend.	115697569	1475115070609	1475115070785	a	65
227226	2435990	I was planning to attend.	I was planning to attend.	115697595	1475115070723	1475115070804	t	84
227226	2435990	I was planning to attend.	I was planning to attend.	115697599	1475115070897	1475115070994	t	84
227226	2435990	I was planning to attend.	I was planning to attend.	115697605	1475115070967	1475115071145	e	69
227226	2435990	I was planning to attend.	I was planning to attend.	115697609	1475115071171	1475115071291	n	78
227226	2435990	I was planning to attend.	I was planning to attend.	115697613	1475115071307	1475115071446	d	68
227226	2435990	I was planning to attend.	I was planning to attend.	115697616	1475115071571	1475115071685	.	190
227226	2435996	He is listed as probable for this week's game.	He is listed as probable for this week's game.	115697708	1475115073348	1475115073493	SHIFT	16
227226	2435996	He is listed as probable for this week's game.	He is listed as probable for this week's game.	115697710	1475115073442	1475115073509	H	72
227226	2435996	He is listed as probable for this week's game.	He is listed as probable for this week's game.	115697712	1475115073555	1475115073717	e	69
227226	2435996	He is listed as probable for this week's game.	He is listed as probable for this week's game.	115697716	1475115073702	1475115073775	 	32
227226	2435996	He is listed as probable for this week's game.	He is listed as probable for this week's game.	115697721	1475115073791	1475115073938	i	73
227226	2435996	He is listed as probable for this week's game.	He is listed as probable for this week's game.	115697757	1475115073895	1475115074035	s	83
227226	2435996	He is listed as probable for this week's game.	He is listed as probable for this week's game.	115697758	1475115073983	1475115074067	 	32
227226	2435996	He is listed as probable for this week's game.	He is listed as probable for this week's game.	115697759	1475115074129	1475115074302	l	76
227226	2435996	He is listed as probable for this week's game.	He is listed as probable for this week's game.	115697760	1475115074249	1475115074411	i	73
227226	2435996	He is listed as probable for this week's game.	He is listed as probable for this week's game.	115697761	1475115074458	1475115074639	s	83
227226	2435996	He is listed as probable for this week's game.	He is listed as probable for this week's game.	115697810	1475115074602	1475115074737	t	84
227226	2435996	He is listed as probable for this week's game.	He is listed as probable for this week's game.	115697816	1475115074831	1475115074941	e	69
227226	2435996	He is listed as probable for this week's game.	He is listed as probable for this week's game.	115697824	1475115075015	1475115075186	d	68
227226	2435996	He is listed as probable for this week's game.	He is listed as probable for this week's game.	115697830	1475115075202	1475115075262	 	32
227226	2435996	He is listed as probable for this week's game.	He is listed as probable for this week's game.	115697836	1475115075296	1475115075494	a	65
227226	2435996	He is listed as probable for this week's game.	He is listed as probable for this week's game.	115697839	1475115075541	1475115075704	s	83
227226	2435996	He is listed as probable for this week's game.	He is listed as probable for this week's game.	115697868	1475115075676	1475115075807	 	32
227226	2435996	He is listed as probable for this week's game.	He is listed as probable for this week's game.	115697874	1475115075990	1475115076099	p	80
227226	2435996	He is listed as probable for this week's game.	He is listed as probable for this week's game.	115697877	1475115076114	1475115076265	r	82
227226	2435996	He is listed as probable for this week's game.	He is listed as probable for this week's game.	115697879	1475115076212	1475115076343	o	79
227226	2435996	He is listed as probable for this week's game.	He is listed as probable for this week's game.	115697883	1475115076442	1475115076572	b	66
227226	2435996	He is listed as probable for this week's game.	He is listed as probable for this week's game.	115697915	1475115076551	1475115076717	a	65
227226	2435996	He is listed as probable for this week's game.	He is listed as probable for this week's game.	115697918	1475115076683	1475115076770	b	66
227226	2435996	He is listed as probable for this week's game.	He is listed as probable for this week's game.	115697919	1475115076910	1475115077068	l	76
227226	2435996	He is listed as probable for this week's game.	He is listed as probable for this week's game.	115697921	1475115077056	1475115077213	e	69
227226	2435996	He is listed as probable for this week's game.	He is listed as probable for this week's game.	115697922	1475115077242	1475115077287	 	32
227226	2435996	He is listed as probable for this week's game.	He is listed as probable for this week's game.	115697923	1475115077443	1475115077556	f	70
227226	2435996	He is listed as probable for this week's game.	He is listed as probable for this week's game.	115697931	1475115077515	1475115077619	o	79
227226	2435996	He is listed as probable for this week's game.	He is listed as probable for this week's game.	115697934	1475115077619	1475115077756	r	82
227226	2435996	He is listed as probable for this week's game.	He is listed as probable for this week's game.	115697937	1475115077718	1475115077811	 	32
227226	2435996	He is listed as probable for this week's game.	He is listed as probable for this week's game.	115697946	1475115077827	1475115077946	t	84
227226	2435996	He is listed as probable for this week's game.	He is listed as probable for this week's game.	115697955	1475115077889	1475115078037	h	72
227226	2435996	He is listed as probable for this week's game.	He is listed as probable for this week's game.	115697962	1475115078053	1475115078134	e	69
227226	2435996	He is listed as probable for this week's game.	He is listed as probable for this week's game.	115698013	1475115078373	1475115078442	BKSP	8
227226	2435996	He is listed as probable for this week's game.	He is listed as probable for this week's game.	115698015	1475115078536	1475115078635	i	73
227226	2435996	He is listed as probable for this week's game.	He is listed as probable for this week's game.	115698019	1475115078635	1475115078774	s	83
227226	2435996	He is listed as probable for this week's game.	He is listed as probable for this week's game.	115698022	1475115078734	1475115078837	 	32
227226	2435996	He is listed as probable for this week's game.	He is listed as probable for this week's game.	115698024	1475115078947	1475115079140	w	87
227226	2435996	He is listed as probable for this week's game.	He is listed as probable for this week's game.	115698080	1475115079062	1475115079198	e	69
227226	2435996	He is listed as probable for this week's game.	He is listed as probable for this week's game.	115698084	1475115079245	1475115079436	e	69
227226	2435996	He is listed as probable for this week's game.	He is listed as probable for this week's game.	115698088	1475115079386	1475115079554	k	75
227226	2435996	He is listed as probable for this week's game.	He is listed as probable for this week's game.	115698092	1475115079726	1475115079858	'	222
227226	2435996	He is listed as probable for this week's game.	He is listed as probable for this week's game.	115698095	1475115079843	1475115079952	s	83
227226	2435996	He is listed as probable for this week's game.	He is listed as probable for this week's game.	115698099	1475115079998	1475115080129	 	32
227226	2435996	He is listed as probable for this week's game.	He is listed as probable for this week's game.	115698145	1475115080355	1475115080480	g	71
227226	2435996	He is listed as probable for this week's game.	He is listed as probable for this week's game.	115698148	1475115080425	1475115080570	a	65
227226	2435996	He is listed as probable for this week's game.	He is listed as probable for this week's game.	115698150	1475115080509	1475115080636	m	77
227226	2435996	He is listed as probable for this week's game.	He is listed as probable for this week's game.	115698153	1475115080636	1475115080780	e	69
227226	2435996	He is listed as probable for this week's game.	He is listed as probable for this week's game.	115698155	1475115080780	1475115080905	.	190
227226	2436003	Tell her to get my expense report done.	Tell her to get my expense report done.	115699463	1475115104759	1475115105009	SHIFT	16
227226	2436003	Tell her to get my expense report done.	Tell her to get my expense report done.	115699465	1475115104915	1475115105119	T	84
227226	2436003	Tell her to get my expense report done.	Tell her to get my expense report done.	115699467	1475115105150	1475115105310	e	69
227226	2436003	Tell her to get my expense report done.	Tell her to get my expense report done.	115699469	1475115105482	1475115105550	l	76
227226	2436003	Tell her to get my expense report done.	Tell her to get my expense report done.	115699476	1475115105644	1475115105822	l	76
227226	2436003	Tell her to get my expense report done.	Tell her to get my expense report done.	115699482	1475115106088	1475115106170	 	32
227226	2436003	Tell her to get my expense report done.	Tell her to get my expense report done.	115699509	1475115106221	1475115106358	h	72
227226	2436003	Tell her to get my expense report done.	Tell her to get my expense report done.	115699515	1475115106316	1475115106443	e	69
227226	2436003	Tell her to get my expense report done.	Tell her to get my expense report done.	115699520	1475115106415	1475115106514	r	82
227226	2436003	Tell her to get my expense report done.	Tell her to get my expense report done.	115699526	1475115106545	1475115106612	 	32
227226	2436003	Tell her to get my expense report done.	Tell her to get my expense report done.	115699529	1475115106659	1475115106764	t	84
227226	2436003	Tell her to get my expense report done.	Tell her to get my expense report done.	115699535	1475115106717	1475115106904	o	79
227226	2436003	Tell her to get my expense report done.	Tell her to get my expense report done.	115699538	1475115106825	1475115106920	 	32
227226	2436003	Tell her to get my expense report done.	Tell her to get my expense report done.	115699541	1475115107029	1475115107180	g	71
227226	2436003	Tell her to get my expense report done.	Tell her to get my expense report done.	115699543	1475115107133	1475115107316	e	69
227226	2436003	Tell her to get my expense report done.	Tell her to get my expense report done.	115699546	1475115107282	1475115107431	t	84
227226	2436003	Tell her to get my expense report done.	Tell her to get my expense report done.	115699632	1475115107405	1475115107484	 	32
227226	2436003	Tell her to get my expense report done.	Tell her to get my expense report done.	115699634	1475115107578	1475115107667	m	77
227226	2436003	Tell her to get my expense report done.	Tell her to get my expense report done.	115699636	1475115108307	1475115108494	y	89
227226	2436003	Tell her to get my expense report done.	Tell her to get my expense report done.	115699639	1475115108416	1475115108556	 	32
227226	2436003	Tell her to get my expense report done.	Tell her to get my expense report done.	115699642	1475115108709	1475115108780	e	69
227226	2436003	Tell her to get my expense report done.	Tell her to get my expense report done.	115699645	1475115108889	1475115109117	x	88
227226	2436003	Tell her to get my expense report done.	Tell her to get my expense report done.	115699662	1475115109086	1475115109238	p	80
227226	2436003	Tell her to get my expense report done.	Tell her to get my expense report done.	115699665	1475115109253	1475115109389	e	69
227226	2436003	Tell her to get my expense report done.	Tell her to get my expense report done.	115699670	1475115109452	1475115109576	n	78
227226	2436003	Tell her to get my expense report done.	Tell her to get my expense report done.	115699673	1475115109608	1475115109624	s	83
227226	2436003	Tell her to get my expense report done.	Tell her to get my expense report done.	115699680	1475115109629	1475115109835	s	83
227226	2436003	Tell her to get my expense report done.	Tell her to get my expense report done.	115699777	1475115109775	1475115109942	e	69
227226	2436003	Tell her to get my expense report done.	Tell her to get my expense report done.	115699779	1475115110303	1475115110348	BKSP	8
227226	2436003	Tell her to get my expense report done.	Tell her to get my expense report done.	115699782	1475115110442	1475115110535	BKSP	8
227226	2436003	Tell her to get my expense report done.	Tell her to get my expense report done.	115699787	1475115110596	1475115110738	e	69
227226	2436003	Tell her to get my expense report done.	Tell her to get my expense report done.	115699790	1475115110738	1475115110894	 	32
227226	2436003	Tell her to get my expense report done.	Tell her to get my expense report done.	115699792	1475115111050	1475115111228	r	82
227226	2436003	Tell her to get my expense report done.	Tell her to get my expense report done.	115699794	1475115111149	1475115111364	e	69
227226	2436003	Tell her to get my expense report done.	Tell her to get my expense report done.	115699838	1475115111290	1475115111421	p	80
227226	2436003	Tell her to get my expense report done.	Tell her to get my expense report done.	115699841	1475115111398	1475115111572	o	79
227226	2436003	Tell her to get my expense report done.	Tell her to get my expense report done.	115699846	1475115111510	1475115111619	r	82
227226	2436003	Tell her to get my expense report done.	Tell her to get my expense report done.	115699852	1475115111681	1475115111848	t	84
227226	2436003	Tell her to get my expense report done.	Tell her to get my expense report done.	115699858	1475115112233	1475115112316	 	32
227226	2436003	Tell her to get my expense report done.	Tell her to get my expense report done.	115699865	1475115112473	1475115112599	d	68
227226	2436003	Tell her to get my expense report done.	Tell her to get my expense report done.	115699883	1475115112567	1475115112720	o	79
227226	2436003	Tell her to get my expense report done.	Tell her to get my expense report done.	115699886	1475115112686	1475115112814	n	78
227226	2436003	Tell her to get my expense report done.	Tell her to get my expense report done.	115699892	1475115112860	1475115113004	e	69
227226	2436003	Tell her to get my expense report done.	Tell her to get my expense report done.	115699899	1475115113114	1475115113322	.	190
