PARTICIPANT_ID	TEST_SECTION_ID	SENTENCE	USER_INPUT	KEYSTROKE_ID	PRESS_TIME	RELEASE_TIME	LETTER	KEYCODE
22858	246201	Bradford has yet to prove himself as a Fantasy player.	Bradford has yet to prove himself as a Fantacy player. 	11697850	1472187911358	1472187911522	SHIFT	16
22858	246201	Bradford has yet to prove himself as a Fantasy player.	Bradford has yet to prove himself as a Fantacy player. 	11697852	1472187911452	1472187911569	B	66
22858	246201	Bradford has yet to prove himself as a Fantasy player.	Bradford has yet to prove himself as a Fantacy player. 	11697854	1472187911740	1472187911852	r	82
22858	246201	Bradford has yet to prove himself as a Fantasy player.	Bradford has yet to prove himself as a Fantacy player. 	11697856	1472187911852	1472187911951	a	65
22858	246201	Bradford has yet to prove himself as a Fantasy player.	Bradford has yet to prove himself as a Fantacy player. 	11697858	1472187912279	1472187912447	d	68
22858	246201	Bradford has yet to prove himself as a Fantasy player.	Bradford has yet to prove himself as a Fantacy player. 	11697859	1472187912857	1472187912989	f	70
22858	246201	Bradford has yet to prove himself as a Fantasy player.	Bradford has yet to prove himself as a Fantacy player. 	11697893	1472187912951	1472187913084	o	79
22858	246201	Bradford has yet to prove himself as a Fantasy player.	Bradford has yet to prove himself as a Fantacy player. 	11697894	1472187913224	1472187913367	r	82
22858	246201	Bradford has yet to prove himself as a Fantasy player.	Bradford has yet to prove himself as a Fantacy player. 	11697895	1472187913838	1472187913976	d	68
22858	246201	Bradford has yet to prove himself as a Fantasy player.	Bradford has yet to prove himself as a Fantacy player. 	11697896	1472187913937	1472187914082	 	32
22858	246201	Bradford has yet to prove himself as a Fantasy player.	Bradford has yet to prove himself as a Fantacy player. 	11697897	1472187914441	1472187914538	h	72
22858	246201	Bradford has yet to prove himself as a Fantasy player.	Bradford has yet to prove himself as a Fantacy player. 	11697933	1472187914505	1472187914618	a	65
22858	246201	Bradford has yet to prove himself as a Fantasy player.	Bradford has yet to prove himself as a Fantacy player. 	11697936	1472187914759	1472187914852	s	83
22858	246201	Bradford has yet to prove himself as a Fantasy player.	Bradford has yet to prove himself as a Fantacy player. 	11697938	1472187914852	1472187915000	 	32
22858	246201	Bradford has yet to prove himself as a Fantasy player.	Bradford has yet to prove himself as a Fantacy player. 	11697940	1472187915594	1472187915701	y	89
22858	246201	Bradford has yet to prove himself as a Fantasy player.	Bradford has yet to prove himself as a Fantacy player. 	11697942	1472187915919	1472187916054	e	69
22858	246201	Bradford has yet to prove himself as a Fantasy player.	Bradford has yet to prove himself as a Fantacy player. 	11697982	1472187915987	1472187916134	t	84
22858	246201	Bradford has yet to prove himself as a Fantasy player.	Bradford has yet to prove himself as a Fantacy player. 	11697986	1472187916118	1472187916264	 	32
22858	246201	Bradford has yet to prove himself as a Fantasy player.	Bradford has yet to prove himself as a Fantacy player. 	11697989	1472187917347	1472187917498	t	84
22858	246201	Bradford has yet to prove himself as a Fantasy player.	Bradford has yet to prove himself as a Fantacy player. 	11697994	1472187917576	1472187917746	o	79
22858	246201	Bradford has yet to prove himself as a Fantasy player.	Bradford has yet to prove himself as a Fantacy player. 	11697998	1472187917730	1472187917927	 	32
22858	246201	Bradford has yet to prove himself as a Fantasy player.	Bradford has yet to prove himself as a Fantacy player. 	11698001	1472187918052	1472187918167	p	80
22858	246201	Bradford has yet to prove himself as a Fantasy player.	Bradford has yet to prove himself as a Fantacy player. 	11698023	1472187918558	1472187918689	r	82
22858	246201	Bradford has yet to prove himself as a Fantasy player.	Bradford has yet to prove himself as a Fantacy player. 	11698026	1472187918651	1472187918813	o	79
22858	246201	Bradford has yet to prove himself as a Fantasy player.	Bradford has yet to prove himself as a Fantacy player. 	11698029	1472187919047	1472187919166	v	86
22858	246201	Bradford has yet to prove himself as a Fantasy player.	Bradford has yet to prove himself as a Fantacy player. 	11698032	1472187919150	1472187919266	e	69
22858	246201	Bradford has yet to prove himself as a Fantasy player.	Bradford has yet to prove himself as a Fantacy player. 	11698035	1472187919313	1472187919415	 	32
22858	246201	Bradford has yet to prove himself as a Fantasy player.	Bradford has yet to prove himself as a Fantacy player. 	11698096	1472187920548	1472187920650	h	72
22858	246201	Bradford has yet to prove himself as a Fantasy player.	Bradford has yet to prove himself as a Fantacy player. 	11698097	1472187920884	1472187920967	i	73
22858	246201	Bradford has yet to prove himself as a Fantasy player.	Bradford has yet to prove himself as a Fantacy player. 	11698098	1472187921326	1472187921463	m	77
22858	246201	Bradford has yet to prove himself as a Fantasy player.	Bradford has yet to prove himself as a Fantacy player. 	11698099	1472187921494	1472187921645	s	83
22858	246201	Bradford has yet to prove himself as a Fantasy player.	Bradford has yet to prove himself as a Fantacy player. 	11698101	1472187921926	1472187922083	e	69
22858	246201	Bradford has yet to prove himself as a Fantasy player.	Bradford has yet to prove himself as a Fantacy player. 	11698154	1472187922000	1472187922178	l	76
22858	246201	Bradford has yet to prove himself as a Fantasy player.	Bradford has yet to prove himself as a Fantacy player. 	11698156	1472187922521	1472187922668	f	70
22858	246201	Bradford has yet to prove himself as a Fantasy player.	Bradford has yet to prove himself as a Fantacy player. 	11698159	1472187922616	1472187922777	 	32
22858	246201	Bradford has yet to prove himself as a Fantasy player.	Bradford has yet to prove himself as a Fantacy player. 	11698163	1472187923026	1472187923169	a	65
22858	246201	Bradford has yet to prove himself as a Fantasy player.	Bradford has yet to prove himself as a Fantacy player. 	11698166	1472187923779	1472187923920	s	83
22858	246201	Bradford has yet to prove himself as a Fantasy player.	Bradford has yet to prove himself as a Fantacy player. 	11698212	1472187923882	1472187924045	 	32
22858	246201	Bradford has yet to prove himself as a Fantasy player.	Bradford has yet to prove himself as a Fantacy player. 	11698214	1472187924107	1472187924246	a	65
22858	246201	Bradford has yet to prove himself as a Fantasy player.	Bradford has yet to prove himself as a Fantacy player. 	11698216	1472187924230	1472187924346	 	32
22858	246201	Bradford has yet to prove himself as a Fantasy player.	Bradford has yet to prove himself as a Fantacy player. 	11698221	1472187925353	1472187925546	SHIFT	16
22858	246201	Bradford has yet to prove himself as a Fantasy player.	Bradford has yet to prove himself as a Fantacy player. 	11698218	1472187925415	1472187925500	F	70
22858	246201	Bradford has yet to prove himself as a Fantasy player.	Bradford has yet to prove himself as a Fantacy player. 	11698224	1472187925562	1472187925713	a	65
22858	246201	Bradford has yet to prove himself as a Fantasy player.	Bradford has yet to prove himself as a Fantacy player. 	11698225	1472187925978	1472187926081	n	78
22858	246201	Bradford has yet to prove himself as a Fantasy player.	Bradford has yet to prove himself as a Fantacy player. 	11698251	1472187926284	1472187926400	t	84
22858	246201	Bradford has yet to prove himself as a Fantasy player.	Bradford has yet to prove himself as a Fantacy player. 	11698252	1472187926366	1472187926479	a	65
22858	246201	Bradford has yet to prove himself as a Fantasy player.	Bradford has yet to prove himself as a Fantacy player. 	11698253	1472187926807	1472187926929	c	67
22858	246201	Bradford has yet to prove himself as a Fantasy player.	Bradford has yet to prove himself as a Fantacy player. 	11698254	1472187927759	1472187927896	y	89
22858	246201	Bradford has yet to prove himself as a Fantasy player.	Bradford has yet to prove himself as a Fantacy player. 	11698353	1472187927863	1472187928027	 	32
22858	246201	Bradford has yet to prove himself as a Fantasy player.	Bradford has yet to prove himself as a Fantacy player. 	11698355	1472187930175	1472187930264	p	80
22858	246201	Bradford has yet to prove himself as a Fantasy player.	Bradford has yet to prove himself as a Fantacy player. 	11698357	1472187930404	1472187930513	l	76
22858	246201	Bradford has yet to prove himself as a Fantasy player.	Bradford has yet to prove himself as a Fantacy player. 	11698361	1472187930498	1472187930626	a	65
22858	246201	Bradford has yet to prove himself as a Fantasy player.	Bradford has yet to prove himself as a Fantacy player. 	11698364	1472187930782	1472187930926	y	89
22858	246201	Bradford has yet to prove himself as a Fantasy player.	Bradford has yet to prove himself as a Fantacy player. 	11698366	1472187931113	1472187931232	e	69
22858	246201	Bradford has yet to prove himself as a Fantasy player.	Bradford has yet to prove himself as a Fantacy player. 	11698406	1472187931181	1472187931296	r	82
22858	246201	Bradford has yet to prove himself as a Fantasy player.	Bradford has yet to prove himself as a Fantacy player. 	11698407	1472187932361	1472187932545	.	190
22858	246201	Bradford has yet to prove himself as a Fantasy player.	Bradford has yet to prove himself as a Fantacy player. 	11698409	1472187932432	1472187932576	 	32
22858	246214	I will not be available.	I will not be available. 	11698502	1472187936338	1472187936511	SHIFT	16
22858	246214	I will not be available.	I will not be available. 	11698503	1472187936416	1472187936558	I	73
22858	246214	I will not be available.	I will not be available. 	11698504	1472187936558	1472187936677	 	32
22858	246214	I will not be available.	I will not be available. 	11698505	1472187937553	1472187937680	w	87
22858	246214	I will not be available.	I will not be available. 	11698507	1472187937633	1472187937744	i	73
22858	246214	I will not be available.	I will not be available. 	11698511	1472187937931	1472187938013	l	76
22858	246214	I will not be available.	I will not be available. 	11698538	1472187938092	1472187938255	l	76
22858	246214	I will not be available.	I will not be available. 	11698540	1472187938239	1472187938405	 	32
22858	246214	I will not be available.	I will not be available. 	11698542	1472187938749	1472187938980	n	78
22858	246214	I will not be available.	I will not be available. 	11698545	1472187938922	1472187939058	o	79
22858	246214	I will not be available.	I will not be available. 	11698549	1472187939355	1472187939497	t	84
22858	246214	I will not be available.	I will not be available. 	11698591	1472187939459	1472187939640	 	32
22858	246214	I will not be available.	I will not be available. 	11698594	1472187939921	1472187940048	b	66
22858	246214	I will not be available.	I will not be available. 	11698596	1472187939995	1472187940141	e	69
22858	246214	I will not be available.	I will not be available. 	11698600	1472187940157	1472187940291	 	32
22858	246214	I will not be available.	I will not be available. 	11698601	1472187940728	1472187940846	a	65
22858	246214	I will not be available.	I will not be available. 	11698616	1472187940779	1472187940878	v	86
22858	246214	I will not be available.	I will not be available. 	11698617	1472187940956	1472187941059	a	65
22858	246214	I will not be available.	I will not be available. 	11698618	1472187941279	1472187941360	i	73
22858	246214	I will not be available.	I will not be available. 	11698619	1472187941516	1472187941612	l	76
22858	246214	I will not be available.	I will not be available. 	11698620	1472187941659	1472187941774	a	65
22858	246214	I will not be available.	I will not be available. 	11698621	1472187942133	1472187942212	b	66
22858	246214	I will not be available.	I will not be available. 	11698669	1472187942885	1472187943012	l	76
22858	246214	I will not be available.	I will not be available. 	11698671	1472187942960	1472187943106	e	69
22858	246214	I will not be available.	I will not be available. 	11698672	1472187943332	1472187943472	.	190
22858	246214	I will not be available.	I will not be available. 	11698673	1472187943425	1472187943517	 	32
22858	246223	Thanks again for thinking of me.	Thanks again for thinking of me.	11698774	1472187947081	1472187947293	SHIFT	16
22858	246223	Thanks again for thinking of me.	Thanks again for thinking of me.	11698776	1472187947209	1472187947324	T	84
22858	246223	Thanks again for thinking of me.	Thanks again for thinking of me.	11698778	1472187947495	1472187947592	h	72
22858	246223	Thanks again for thinking of me.	Thanks again for thinking of me.	11698780	1472187947576	1472187947704	a	65
22858	246223	Thanks again for thinking of me.	Thanks again for thinking of me.	11698782	1472187947735	1472187947824	n	78
22858	246223	Thanks again for thinking of me.	Thanks again for thinking of me.	11698783	1472187948292	1472187948443	k	75
22858	246223	Thanks again for thinking of me.	Thanks again for thinking of me.	11698822	1472187948389	1472187948491	s	83
22858	246223	Thanks again for thinking of me.	Thanks again for thinking of me.	11698823	1472187948538	1472187948670	 	32
22858	246223	Thanks again for thinking of me.	Thanks again for thinking of me.	11698824	1472187948906	1472187949076	a	65
22858	246223	Thanks again for thinking of me.	Thanks again for thinking of me.	11698825	1472187949023	1472187949154	g	71
22858	246223	Thanks again for thinking of me.	Thanks again for thinking of me.	11698826	1472187949216	1472187949323	a	65
22858	246223	Thanks again for thinking of me.	Thanks again for thinking of me.	11698827	1472187949510	1472187949638	i	73
22858	246223	Thanks again for thinking of me.	Thanks again for thinking of me.	11698861	1472187949904	1472187950080	n	78
22858	246223	Thanks again for thinking of me.	Thanks again for thinking of me.	11698863	1472187950064	1472187950173	 	32
22858	246223	Thanks again for thinking of me.	Thanks again for thinking of me.	11698864	1472187950532	1472187950686	f	70
22858	246223	Thanks again for thinking of me.	Thanks again for thinking of me.	11698868	1472187950670	1472187950834	o	79
22858	246223	Thanks again for thinking of me.	Thanks again for thinking of me.	11698871	1472187950834	1472187950976	r	82
22858	246223	Thanks again for thinking of me.	Thanks again for thinking of me.	11698907	1472187950939	1472187951103	 	32
22858	246223	Thanks again for thinking of me.	Thanks again for thinking of me.	11698910	1472187951275	1472187951409	t	84
22858	246223	Thanks again for thinking of me.	Thanks again for thinking of me.	11698913	1472187951357	1472187951534	h	72
22858	246223	Thanks again for thinking of me.	Thanks again for thinking of me.	11698916	1472187951690	1472187951820	i	73
22858	246223	Thanks again for thinking of me.	Thanks again for thinking of me.	11698918	1472187952007	1472187952121	n	78
22858	246223	Thanks again for thinking of me.	Thanks again for thinking of me.	11698920	1472187952323	1472187952405	k	75
22858	246223	Thanks again for thinking of me.	Thanks again for thinking of me.	11698938	1472187952579	1472187952656	i	73
22858	246223	Thanks again for thinking of me.	Thanks again for thinking of me.	11698939	1472187953109	1472187953232	n	78
22858	246223	Thanks again for thinking of me.	Thanks again for thinking of me.	11698941	1472187953192	1472187953304	g	71
22858	246223	Thanks again for thinking of me.	Thanks again for thinking of me.	11698945	1472187953351	1472187953485	 	32
22858	246223	Thanks again for thinking of me.	Thanks again for thinking of me.	11698949	1472187953594	1472187953706	o	79
22858	246223	Thanks again for thinking of me.	Thanks again for thinking of me.	11699053	1472187953926	1472187954058	f	70
22858	246223	Thanks again for thinking of me.	Thanks again for thinking of me.	11699054	1472187954022	1472187954198	 	32
22858	246223	Thanks again for thinking of me.	Thanks again for thinking of me.	11699056	1472187954526	1472187954675	m	77
22858	246223	Thanks again for thinking of me.	Thanks again for thinking of me.	11699059	1472187954639	1472187954768	e	69
22858	246223	Thanks again for thinking of me.	Thanks again for thinking of me.	11699066	1472187956385	1472187956596	.	190
22858	246230	Now go get washed up for dinner.	Now go get washed up for dinner. 	11699243	1472187960599	1472187960785	SHIFT	16
22858	246230	Now go get washed up for dinner.	Now go get washed up for dinner. 	11699246	1472187960661	1472187960816	N	78
22858	246230	Now go get washed up for dinner.	Now go get washed up for dinner. 	11699250	1472187961396	1472187961501	o	79
22858	246230	Now go get washed up for dinner.	Now go get washed up for dinner. 	11699253	1472187961501	1472187961603	w	87
22858	246230	Now go get washed up for dinner.	Now go get washed up for dinner. 	11699255	1472187961603	1472187961750	 	32
22858	246230	Now go get washed up for dinner.	Now go get washed up for dinner. 	11699257	1472187962204	1472187962337	g	71
22858	246230	Now go get washed up for dinner.	Now go get washed up for dinner. 	11699308	1472187962272	1472187962464	o	79
22858	246230	Now go get washed up for dinner.	Now go get washed up for dinner. 	11699310	1472187962511	1472187962684	 	32
22858	246230	Now go get washed up for dinner.	Now go get washed up for dinner. 	11699312	1472187963135	1472187963272	g	71
22858	246230	Now go get washed up for dinner.	Now go get washed up for dinner. 	11699313	1472187963219	1472187963366	e	69
22858	246230	Now go get washed up for dinner.	Now go get washed up for dinner. 	11699314	1472187963428	1472187963518	t	84
22858	246230	Now go get washed up for dinner.	Now go get washed up for dinner. 	11699316	1472187963581	1472187963715	 	32
22858	246230	Now go get washed up for dinner.	Now go get washed up for dinner. 	11699362	1472187963762	1472187963868	w	87
22858	246230	Now go get washed up for dinner.	Now go get washed up for dinner. 	11699364	1472187964040	1472187964120	a	65
22858	246230	Now go get washed up for dinner.	Now go get washed up for dinner. 	11699366	1472187964276	1472187964369	s	83
22858	246230	Now go get washed up for dinner.	Now go get washed up for dinner. 	11699367	1472187964463	1472187964552	h	72
22858	246230	Now go get washed up for dinner.	Now go get washed up for dinner. 	11699368	1472187964630	1472187964749	e	69
22858	246230	Now go get washed up for dinner.	Now go get washed up for dinner. 	11699393	1472187964890	1472187965004	d	68
22858	246230	Now go get washed up for dinner.	Now go get washed up for dinner. 	11699395	1472187964954	1472187965127	 	32
22858	246230	Now go get washed up for dinner.	Now go get washed up for dinner. 	11699398	1472187965346	1472187965432	u	85
22858	246230	Now go get washed up for dinner.	Now go get washed up for dinner. 	11699402	1472187965603	1472187965714	p	80
22858	246230	Now go get washed up for dinner.	Now go get washed up for dinner. 	11699405	1472187965792	1472187965950	 	32
22858	246230	Now go get washed up for dinner.	Now go get washed up for dinner. 	11699457	1472187966594	1472187966726	f	70
22858	246230	Now go get washed up for dinner.	Now go get washed up for dinner. 	11699460	1472187966682	1472187966829	o	79
22858	246230	Now go get washed up for dinner.	Now go get washed up for dinner. 	11699463	1472187966845	1472187966961	r	82
22858	246230	Now go get washed up for dinner.	Now go get washed up for dinner. 	11699469	1472187966945	1472187967109	 	32
22858	246230	Now go get washed up for dinner.	Now go get washed up for dinner. 	11699474	1472187967534	1472187967683	d	68
22858	246230	Now go get washed up for dinner.	Now go get washed up for dinner. 	11699537	1472187967631	1472187967777	i	73
22858	246230	Now go get washed up for dinner.	Now go get washed up for dinner. 	11699539	1472187967996	1472187968065	n	78
22858	246230	Now go get washed up for dinner.	Now go get washed up for dinner. 	11699541	1472187968128	1472187968251	n	78
22858	246230	Now go get washed up for dinner.	Now go get washed up for dinner. 	11699543	1472187968215	1472187968313	e	69
22858	246230	Now go get washed up for dinner.	Now go get washed up for dinner. 	11699545	1472187968438	1472187968534	r	82
22858	246230	Now go get washed up for dinner.	Now go get washed up for dinner. 	11699546	1472187969193	1472187969414	.	190
22858	246230	Now go get washed up for dinner.	Now go get washed up for dinner. 	11699550	1472187969281	1472187969366	 	32
22858	246241	In a couple of weeks.	In a couple of weeks.	11699687	1472187972364	1472187972497	SHIFT	16
22858	246241	In a couple of weeks.	In a couple of weeks.	11699688	1472187972426	1472187972575	I	73
22858	246241	In a couple of weeks.	In a couple of weeks.	11699689	1472187973251	1472187973378	n	78
22858	246241	In a couple of weeks.	In a couple of weeks.	11699690	1472187973362	1472187973493	 	32
22858	246241	In a couple of weeks.	In a couple of weeks.	11699691	1472187973883	1472187974026	a	65
22858	246241	In a couple of weeks.	In a couple of weeks.	11699692	1472187974041	1472187974176	 	32
22858	246241	In a couple of weeks.	In a couple of weeks.	11699742	1472187974819	1472187974948	c	67
22858	246241	In a couple of weeks.	In a couple of weeks.	11699745	1472187974868	1472187974994	o	79
22858	246241	In a couple of weeks.	In a couple of weeks.	11699750	1472187975119	1472187975228	u	85
22858	246241	In a couple of weeks.	In a couple of weeks.	11699754	1472187975399	1472187975480	p	80
22858	246241	In a couple of weeks.	In a couple of weeks.	11699756	1472187975854	1472187976030	l	76
22858	246241	In a couple of weeks.	In a couple of weeks.	11699800	1472187975961	1472187976078	e	69
22858	246241	In a couple of weeks.	In a couple of weeks.	11699804	1472187976078	1472187976239	 	32
22858	246241	In a couple of weeks.	In a couple of weeks.	11699806	1472187976774	1472187976897	o	79
22858	246241	In a couple of weeks.	In a couple of weeks.	11699810	1472187976845	1472187976991	f	70
22858	246241	In a couple of weeks.	In a couple of weeks.	11699814	1472187976975	1472187977172	 	32
22858	246241	In a couple of weeks.	In a couple of weeks.	11699818	1472187977296	1472187977410	e	69
22858	246241	In a couple of weeks.	In a couple of weeks.	11699886	1472187977739	1472187977879	BKSP	8
22858	246241	In a couple of weeks.	In a couple of weeks.	11699887	1472187977843	1472187977973	w	87
22858	246241	In a couple of weeks.	In a couple of weeks.	11699888	1472187978067	1472187978178	e	69
22858	246241	In a couple of weeks.	In a couple of weeks.	11699890	1472187978240	1472187978374	e	69
22858	246241	In a couple of weeks.	In a couple of weeks.	11699894	1472187978955	1472187979080	k	75
22858	246241	In a couple of weeks.	In a couple of weeks.	11699913	1472187979013	1472187979127	s	83
22858	246241	In a couple of weeks.	In a couple of weeks.	11699914	1472187979582	1472187979771	.	190
22858	246252	I didn't think we had it.	I didn't think we had it.	11700080	1472187983603	1472187983744	SHIFT	16
22858	246252	I didn't think we had it.	I didn't think we had it.	11700081	1472187983650	1472187983831	I	73
22858	246252	I didn't think we had it.	I didn't think we had it.	11700082	1472187983790	1472187983955	 	32
22858	246252	I didn't think we had it.	I didn't think we had it.	11700084	1472187984236	1472187984362	d	68
22858	246252	I didn't think we had it.	I didn't think we had it.	11700086	1472187984309	1472187984425	i	73
22858	246252	I didn't think we had it.	I didn't think we had it.	11700087	1472187984471	1472187984551	d	68
22858	246252	I didn't think we had it.	I didn't think we had it.	11700157	1472187985264	1472187985360	n	78
22858	246252	I didn't think we had it.	I didn't think we had it.	11700160	1472187986298	1472187986409	'	222
22858	246252	I didn't think we had it.	I didn't think we had it.	11700162	1472187986409	1472187986524	t	84
22858	246252	I didn't think we had it.	I didn't think we had it.	11700164	1472187986524	1472187986656	 	32
22858	246252	I didn't think we had it.	I didn't think we had it.	11700166	1472187986749	1472187986909	t	84
22858	246252	I didn't think we had it.	I didn't think we had it.	11700198	1472187986829	1472187986978	h	72
22858	246252	I didn't think we had it.	I didn't think we had it.	11700200	1472187987149	1472187987306	i	73
22858	246252	I didn't think we had it.	I didn't think we had it.	11700201	1472187987401	1472187987537	n	78
22858	246252	I didn't think we had it.	I didn't think we had it.	11700202	1472187987662	1472187987773	k	75
22858	246252	I didn't think we had it.	I didn't think we had it.	11700204	1472187987819	1472187987970	 	32
22858	246252	I didn't think we had it.	I didn't think we had it.	11700206	1472187988141	1472187988240	w	87
22858	246252	I didn't think we had it.	I didn't think we had it.	11700228	1472187988367	1472187988478	e	69
22858	246252	I didn't think we had it.	I didn't think we had it.	11700230	1472187988478	1472187988652	 	32
22858	246252	I didn't think we had it.	I didn't think we had it.	11700233	1472187988746	1472187988877	h	72
22858	246252	I didn't think we had it.	I didn't think we had it.	11700237	1472187988810	1472187988940	a	65
22858	246252	I didn't think we had it.	I didn't think we had it.	11700239	1472187989111	1472187989239	d	68
22858	246252	I didn't think we had it.	I didn't think we had it.	11700248	1472187989255	1472187989419	 	32
22858	246252	I didn't think we had it.	I didn't think we had it.	11700250	1472187989826	1472187989984	i	73
22858	246252	I didn't think we had it.	I didn't think we had it.	11700252	1472187990265	1472187990356	t	84
22858	246261	Southern forces said they had shot down three northern warplanes.	Southern forces said they had shot down three northern warplanes.	11701139	1472187990700	1472188019960	.	190
22858	246261	Southern forces said they had shot down three northern warplanes.	Southern forces said they had shot down three northern warplanes.	11700384	1472187995314	1472187995520	SHIFT	16
22858	246261	Southern forces said they had shot down three northern warplanes.	Southern forces said they had shot down three northern warplanes.	11700386	1472187995424	1472187995520	S	83
22858	246261	Southern forces said they had shot down three northern warplanes.	Southern forces said they had shot down three northern warplanes.	11700388	1472187996195	1472187996303	o	79
22858	246261	Southern forces said they had shot down three northern warplanes.	Southern forces said they had shot down three northern warplanes.	11700390	1472187996506	1472187996620	u	85
22858	246261	Southern forces said they had shot down three northern warplanes.	Southern forces said they had shot down three northern warplanes.	11700392	1472187996792	1472187996924	t	84
22858	246261	Southern forces said they had shot down three northern warplanes.	Southern forces said they had shot down three northern warplanes.	11700447	1472187996858	1472187997004	h	72
22858	246261	Southern forces said they had shot down three northern warplanes.	Southern forces said they had shot down three northern warplanes.	11700450	1472187997113	1472187997236	e	69
22858	246261	Southern forces said they had shot down three northern warplanes.	Southern forces said they had shot down three northern warplanes.	11700453	1472187997346	1472187997450	r	82
22858	246261	Southern forces said they had shot down three northern warplanes.	Southern forces said they had shot down three northern warplanes.	11700454	1472187997746	1472187997918	n	78
22858	246261	Southern forces said they had shot down three northern warplanes.	Southern forces said they had shot down three northern warplanes.	11700457	1472187997884	1472187998050	 	32
22858	246261	Southern forces said they had shot down three northern warplanes.	Southern forces said they had shot down three northern warplanes.	11700459	1472187998536	1472187998657	f	70
22858	246261	Southern forces said they had shot down three northern warplanes.	Southern forces said they had shot down three northern warplanes.	11700547	1472187998605	1472187998722	o	79
22858	246261	Southern forces said they had shot down three northern warplanes.	Southern forces said they had shot down three northern warplanes.	11700548	1472187998800	1472187998902	r	82
22858	246261	Southern forces said they had shot down three northern warplanes.	Southern forces said they had shot down three northern warplanes.	11700549	1472187999293	1472187999417	c	67
22858	246261	Southern forces said they had shot down three northern warplanes.	Southern forces said they had shot down three northern warplanes.	11700550	1472188001126	1472188001219	e	69
22858	246261	Southern forces said they had shot down three northern warplanes.	Southern forces said they had shot down three northern warplanes.	11700551	1472188002254	1472188002367	s	83
22858	246261	Southern forces said they had shot down three northern warplanes.	Southern forces said they had shot down three northern warplanes.	11700586	1472188002352	1472188002531	 	32
22858	246261	Southern forces said they had shot down three northern warplanes.	Southern forces said they had shot down three northern warplanes.	11700589	1472188003221	1472188003397	s	83
22858	246261	Southern forces said they had shot down three northern warplanes.	Southern forces said they had shot down three northern warplanes.	11700592	1472188003522	1472188003719	a	65
22858	246261	Southern forces said they had shot down three northern warplanes.	Southern forces said they had shot down three northern warplanes.	11700596	1472188003635	1472188003766	i	73
22858	246261	Southern forces said they had shot down three northern warplanes.	Southern forces said they had shot down three northern warplanes.	11700600	1472188003813	1472188003950	d	68
22858	246261	Southern forces said they had shot down three northern warplanes.	Southern forces said they had shot down three northern warplanes.	11700662	1472188003917	1472188004056	 	32
22858	246261	Southern forces said they had shot down three northern warplanes.	Southern forces said they had shot down three northern warplanes.	11700664	1472188005272	1472188005387	t	84
22858	246261	Southern forces said they had shot down three northern warplanes.	Southern forces said they had shot down three northern warplanes.	11700665	1472188005321	1472188005511	h	72
22858	246261	Southern forces said they had shot down three northern warplanes.	Southern forces said they had shot down three northern warplanes.	11700666	1472188005667	1472188005836	e	69
22858	246261	Southern forces said they had shot down three northern warplanes.	Southern forces said they had shot down three northern warplanes.	11700668	1472188005784	1472188005933	y	89
22858	246261	Southern forces said they had shot down three northern warplanes.	Southern forces said they had shot down three northern warplanes.	11700758	1472188005898	1472188006071	 	32
22858	246261	Southern forces said they had shot down three northern warplanes.	Southern forces said they had shot down three northern warplanes.	11700761	1472188006243	1472188006451	h	72
22858	246261	Southern forces said they had shot down three northern warplanes.	Southern forces said they had shot down three northern warplanes.	11700765	1472188006367	1472188006514	a	65
22858	246261	Southern forces said they had shot down three northern warplanes.	Southern forces said they had shot down three northern warplanes.	11700768	1472188006779	1472188006954	d	68
22858	246261	Southern forces said they had shot down three northern warplanes.	Southern forces said they had shot down three northern warplanes.	11700771	1472188006914	1472188007048	 	32
22858	246261	Southern forces said they had shot down three northern warplanes.	Southern forces said they had shot down three northern warplanes.	11700774	1472188008316	1472188008435	s	83
22858	246261	Southern forces said they had shot down three northern warplanes.	Southern forces said they had shot down three northern warplanes.	11700829	1472188008385	1472188008515	h	72
22858	246261	Southern forces said they had shot down three northern warplanes.	Southern forces said they had shot down three northern warplanes.	11700831	1472188008937	1472188009033	o	79
22858	246261	Southern forces said they had shot down three northern warplanes.	Southern forces said they had shot down three northern warplanes.	11700833	1472188009205	1472188009318	t	84
22858	246261	Southern forces said they had shot down three northern warplanes.	Southern forces said they had shot down three northern warplanes.	11700834	1472188009285	1472188009429	 	32
22858	246261	Southern forces said they had shot down three northern warplanes.	Southern forces said they had shot down three northern warplanes.	11700835	1472188009790	1472188009931	d	68
22858	246261	Southern forces said they had shot down three northern warplanes.	Southern forces said they had shot down three northern warplanes.	11700837	1472188009931	1472188010078	o	79
22858	246261	Southern forces said they had shot down three northern warplanes.	Southern forces said they had shot down three northern warplanes.	11700873	1472188010629	1472188010821	w	87
22858	246261	Southern forces said they had shot down three northern warplanes.	Southern forces said they had shot down three northern warplanes.	11700874	1472188010779	1472188010899	n	78
22858	246261	Southern forces said they had shot down three northern warplanes.	Southern forces said they had shot down three northern warplanes.	11700876	1472188010899	1472188011014	 	32
22858	246261	Southern forces said they had shot down three northern warplanes.	Southern forces said they had shot down three northern warplanes.	11700878	1472188012080	1472188012201	t	84
22858	246261	Southern forces said they had shot down three northern warplanes.	Southern forces said they had shot down three northern warplanes.	11700927	1472188012119	1472188012295	h	72
22858	246261	Southern forces said they had shot down three northern warplanes.	Southern forces said they had shot down three northern warplanes.	11700929	1472188012389	1472188012500	r	82
22858	246261	Southern forces said they had shot down three northern warplanes.	Southern forces said they had shot down three northern warplanes.	11700932	1472188012703	1472188012767	e	69
22858	246261	Southern forces said they had shot down three northern warplanes.	Southern forces said they had shot down three northern warplanes.	11700937	1472188012892	1472188013015	e	69
22858	246261	Southern forces said they had shot down three northern warplanes.	Southern forces said they had shot down three northern warplanes.	11700940	1472188013015	1472188013179	 	32
22858	246261	Southern forces said they had shot down three northern warplanes.	Southern forces said they had shot down three northern warplanes.	11700944	1472188014008	1472188014201	n	78
22858	246261	Southern forces said they had shot down three northern warplanes.	Southern forces said they had shot down three northern warplanes.	11700986	1472188014146	1472188014327	o	79
22858	246261	Southern forces said they had shot down three northern warplanes.	Southern forces said they had shot down three northern warplanes.	11700989	1472188014672	1472188014797	r	82
22858	246261	Southern forces said they had shot down three northern warplanes.	Southern forces said they had shot down three northern warplanes.	11700992	1472188014922	1472188015034	t	84
22858	246261	Southern forces said they had shot down three northern warplanes.	Southern forces said they had shot down three northern warplanes.	11700995	1472188014999	1472188015128	h	72
22858	246261	Southern forces said they had shot down three northern warplanes.	Southern forces said they had shot down three northern warplanes.	11700998	1472188015237	1472188015348	e	69
22858	246261	Southern forces said they had shot down three northern warplanes.	Southern forces said they had shot down three northern warplanes.	11701002	1472188015457	1472188015564	r	82
22858	246261	Southern forces said they had shot down three northern warplanes.	Southern forces said they had shot down three northern warplanes.	11701062	1472188016035	1472188016174	n	78
22858	246261	Southern forces said they had shot down three northern warplanes.	Southern forces said they had shot down three northern warplanes.	11701065	1472188016129	1472188016294	 	32
22858	246261	Southern forces said they had shot down three northern warplanes.	Southern forces said they had shot down three northern warplanes.	11701069	1472188017030	1472188017114	w	87
22858	246261	Southern forces said they had shot down three northern warplanes.	Southern forces said they had shot down three northern warplanes.	11701074	1472188017616	1472188017717	a	65
22858	246261	Southern forces said they had shot down three northern warplanes.	Southern forces said they had shot down three northern warplanes.	11701099	1472188017667	1472188017796	r	82
22858	246261	Southern forces said they had shot down three northern warplanes.	Southern forces said they had shot down three northern warplanes.	11701101	1472188018234	1472188018346	p	80
22858	246261	Southern forces said they had shot down three northern warplanes.	Southern forces said they had shot down three northern warplanes.	11701103	1472188018486	1472188018597	l	76
22858	246261	Southern forces said they had shot down three northern warplanes.	Southern forces said they had shot down three northern warplanes.	11701105	1472188018582	1472188018726	a	65
22858	246261	Southern forces said they had shot down three northern warplanes.	Southern forces said they had shot down three northern warplanes.	11701106	1472188019085	1472188019217	n	78
22858	246261	Southern forces said they had shot down three northern warplanes.	Southern forces said they had shot down three northern warplanes.	11701135	1472188019180	1472188019313	e	69
22858	246261	Southern forces said they had shot down three northern warplanes.	Southern forces said they had shot down three northern warplanes.	11701136	1472188019500	1472188019675	s	83
22858	246275	You have a nice holiday too.	You have a nice holiday too.	11701349	1472188024675	1472188024814	SHIFT	16
22858	246275	You have a nice holiday too.	You have a nice holiday too.	11701351	1472188024737	1472188024876	Y	89
22858	246275	You have a nice holiday too.	You have a nice holiday too.	11701353	1472188025126	1472188025212	o	79
22858	246275	You have a nice holiday too.	You have a nice holiday too.	11701357	1472188025353	1472188025510	u	85
22858	246275	You have a nice holiday too.	You have a nice holiday too.	11701360	1472188025476	1472188025609	 	32
22858	246275	You have a nice holiday too.	You have a nice holiday too.	11701364	1472188025687	1472188025822	h	72
22858	246275	You have a nice holiday too.	You have a nice holiday too.	11701376	1472188025763	1472188025896	a	65
22858	246275	You have a nice holiday too.	You have a nice holiday too.	11701377	1472188026083	1472188026214	v	86
22858	246275	You have a nice holiday too.	You have a nice holiday too.	11701380	1472188026162	1472188026325	e	69
22858	246275	You have a nice holiday too.	You have a nice holiday too.	11701384	1472188026325	1472188026473	 	32
22858	246275	You have a nice holiday too.	You have a nice holiday too.	11701388	1472188026598	1472188026717	a	65
22858	246275	You have a nice holiday too.	You have a nice holiday too.	11701416	1472188026678	1472188026855	 	32
22858	246275	You have a nice holiday too.	You have a nice holiday too.	11701417	1472188027421	1472188027588	n	78
22858	246275	You have a nice holiday too.	You have a nice holiday too.	11701418	1472188027573	1472188027678	i	73
22858	246275	You have a nice holiday too.	You have a nice holiday too.	11701419	1472188027849	1472188027945	c	67
22858	246275	You have a nice holiday too.	You have a nice holiday too.	11701420	1472188028070	1472188028161	e	69
22858	246275	You have a nice holiday too.	You have a nice holiday too.	11701421	1472188028192	1472188028358	 	32
22858	246275	You have a nice holiday too.	You have a nice holiday too.	11701452	1472188028561	1472188028675	h	72
22858	246275	You have a nice holiday too.	You have a nice holiday too.	11701453	1472188028880	1472188028960	o	79
22858	246275	You have a nice holiday too.	You have a nice holiday too.	11701454	1472188029100	1472188029180	l	76
22858	246275	You have a nice holiday too.	You have a nice holiday too.	11701455	1472188029352	1472188029460	i	73
22858	246275	You have a nice holiday too.	You have a nice holiday too.	11701456	1472188029663	1472188029838	d	68
22858	246275	You have a nice holiday too.	You have a nice holiday too.	11701482	1472188029965	1472188030112	a	65
22858	246275	You have a nice holiday too.	You have a nice holiday too.	11701485	1472188030045	1472188030205	y	89
22858	246275	You have a nice holiday too.	You have a nice holiday too.	11701493	1472188030205	1472188030341	 	32
22858	246275	You have a nice holiday too.	You have a nice holiday too.	11701500	1472188030872	1472188030975	t	84
22858	246275	You have a nice holiday too.	You have a nice holiday too.	11701505	1472188030991	1472188031061	o	79
22858	246275	You have a nice holiday too.	You have a nice holiday too.	11701535	1472188031141	1472188031242	o	79
22858	246275	You have a nice holiday too.	You have a nice holiday too.	11701536	1472188031460	1472188031620	.	190
22858	246283	I'm still in Dallas!	I 'm still in Dallas!	11701735	1472188036817	1472188036974	SHIFT	16
22858	246283	I'm still in Dallas!	I 'm still in Dallas!	11701737	1472188036880	1472188037029	I	73
22858	246283	I'm still in Dallas!	I 'm still in Dallas!	11701739	1472188036989	1472188037200	 	32
22858	246283	I'm still in Dallas!	I 'm still in Dallas!	11701741	1472188038234	1472188038341	'	222
22858	246283	I'm still in Dallas!	I 'm still in Dallas!	11701743	1472188038606	1472188038743	m	77
22858	246283	I'm still in Dallas!	I 'm still in Dallas!	11701784	1472188038707	1472188038838	 	32
22858	246283	I'm still in Dallas!	I 'm still in Dallas!	11701785	1472188039166	1472188039309	s	83
22858	246283	I'm still in Dallas!	I 'm still in Dallas!	11701786	1472188039261	1472188039372	t	84
22858	246283	I'm still in Dallas!	I 'm still in Dallas!	11701787	1472188039715	1472188039807	i	73
22858	246283	I'm still in Dallas!	I 'm still in Dallas!	11701788	1472188039979	1472188040042	l	76
22858	246283	I'm still in Dallas!	I 'm still in Dallas!	11701789	1472188040120	1472188040253	l	76
22858	246283	I'm still in Dallas!	I 'm still in Dallas!	11701805	1472188040364	1472188040476	 	32
22858	246283	I'm still in Dallas!	I 'm still in Dallas!	11701807	1472188040426	1472188040585	i	73
22858	246283	I'm still in Dallas!	I 'm still in Dallas!	11701813	1472188040741	1472188040925	n	78
22858	246283	I'm still in Dallas!	I 'm still in Dallas!	11701817	1472188040856	1472188041003	 	32
22858	246283	I'm still in Dallas!	I 'm still in Dallas!	11701821	1472188041268	1472188041491	SHIFT	16
22858	246283	I'm still in Dallas!	I 'm still in Dallas!	11701851	1472188041422	1472188041540	D	68
22858	246283	I'm still in Dallas!	I 'm still in Dallas!	11701852	1472188041618	1472188041738	a	65
22858	246283	I'm still in Dallas!	I 'm still in Dallas!	11701853	1472188042066	1472188042141	l	76
22858	246283	I'm still in Dallas!	I 'm still in Dallas!	11701854	1472188042219	1472188042352	l	76
22858	246283	I'm still in Dallas!	I 'm still in Dallas!	11701856	1472188042664	1472188042771	a	65
22858	246283	I'm still in Dallas!	I 'm still in Dallas!	11701858	1472188042896	1472188043020	s	83
22858	246283	I'm still in Dallas!	I 'm still in Dallas!	11701868	1472188044165	1472188044408	SHIFT	16
22858	246283	I'm still in Dallas!	I 'm still in Dallas!	11701871	1472188044321	1472188044439	!	49
22858	246289	The former minister is accused of receiving seven billion lira.	The former minister is accused of receiving seven billion lira.	11702075	1472188052666	1472188052885	SHIFT	16
22858	246289	The former minister is accused of receiving seven billion lira.	The former minister is accused of receiving seven billion lira.	11702073	1472188052775	1472188052869	I	73
22858	246289	The former minister is accused of receiving seven billion lira.	The former minister is accused of receiving seven billion lira.	11702076	1472188053244	1472188053336	BKSP	8
22858	246289	The former minister is accused of receiving seven billion lira.	The former minister is accused of receiving seven billion lira.	11702078	1472188053679	1472188053903	SHIFT	16
22858	246289	The former minister is accused of receiving seven billion lira.	The former minister is accused of receiving seven billion lira.	11702080	1472188053821	1472188053918	T	84
22858	246289	The former minister is accused of receiving seven billion lira.	The former minister is accused of receiving seven billion lira.	11702082	1472188054074	1472188054137	h	72
22858	246289	The former minister is accused of receiving seven billion lira.	The former minister is accused of receiving seven billion lira.	11702084	1472188054168	1472188054284	e	69
22858	246289	The former minister is accused of receiving seven billion lira.	The former minister is accused of receiving seven billion lira.	11702085	1472188054299	1472188054448	 	32
22858	246289	The former minister is accused of receiving seven billion lira.	The former minister is accused of receiving seven billion lira.	11702097	1472188054777	1472188054920	f	70
22858	246289	The former minister is accused of receiving seven billion lira.	The former minister is accused of receiving seven billion lira.	11702099	1472188054868	1472188055029	o	79
22858	246289	The former minister is accused of receiving seven billion lira.	The former minister is accused of receiving seven billion lira.	11702101	1472188055076	1472188055203	r	82
22858	246289	The former minister is accused of receiving seven billion lira.	The former minister is accused of receiving seven billion lira.	11702104	1472188055359	1472188055499	m	77
22858	246289	The former minister is accused of receiving seven billion lira.	The former minister is accused of receiving seven billion lira.	11702108	1472188055561	1472188055621	r	82
22858	246289	The former minister is accused of receiving seven billion lira.	The former minister is accused of receiving seven billion lira.	11702135	1472188055936	1472188056062	BKSP	8
22858	246289	The former minister is accused of receiving seven billion lira.	The former minister is accused of receiving seven billion lira.	11702136	1472188056019	1472188056164	e	69
22858	246289	The former minister is accused of receiving seven billion lira.	The former minister is accused of receiving seven billion lira.	11702137	1472188056274	1472188056414	r	82
22858	246289	The former minister is accused of receiving seven billion lira.	The former minister is accused of receiving seven billion lira.	11702138	1472188056446	1472188056597	 	32
22858	246289	The former minister is accused of receiving seven billion lira.	The former minister is accused of receiving seven billion lira.	11702139	1472188057224	1472188057370	m	77
22858	246289	The former minister is accused of receiving seven billion lira.	The former minister is accused of receiving seven billion lira.	11702171	1472188057333	1472188057497	i	73
22858	246289	The former minister is accused of receiving seven billion lira.	The former minister is accused of receiving seven billion lira.	11702173	1472188058310	1472188058453	n	78
22858	246289	The former minister is accused of receiving seven billion lira.	The former minister is accused of receiving seven billion lira.	11702175	1472188058385	1472188058578	i	73
22858	246289	The former minister is accused of receiving seven billion lira.	The former minister is accused of receiving seven billion lira.	11702177	1472188059266	1472188059401	s	83
22858	246289	The former minister is accused of receiving seven billion lira.	The former minister is accused of receiving seven billion lira.	11702179	1472188059335	1472188059495	t	84
22858	246289	The former minister is accused of receiving seven billion lira.	The former minister is accused of receiving seven billion lira.	11702181	1472188059526	1472188059633	e	69
22858	246289	The former minister is accused of receiving seven billion lira.	The former minister is accused of receiving seven billion lira.	11702213	1472188059728	1472188059870	r	82
22858	246289	The former minister is accused of receiving seven billion lira.	The former minister is accused of receiving seven billion lira.	11702216	1472188059832	1472188059996	 	32
22858	246289	The former minister is accused of receiving seven billion lira.	The former minister is accused of receiving seven billion lira.	11702218	1472188060763	1472188060885	i	73
22858	246289	The former minister is accused of receiving seven billion lira.	The former minister is accused of receiving seven billion lira.	11702220	1472188060835	1472188060980	s	83
22858	246289	The former minister is accused of receiving seven billion lira.	The former minister is accused of receiving seven billion lira.	11702222	1472188061027	1472188061195	 	32
22858	246289	The former minister is accused of receiving seven billion lira.	The former minister is accused of receiving seven billion lira.	11702244	1472188061367	1472188061465	a	65
22858	246289	The former minister is accused of receiving seven billion lira.	The former minister is accused of receiving seven billion lira.	11702246	1472188061699	1472188061752	c	67
22858	246289	The former minister is accused of receiving seven billion lira.	The former minister is accused of receiving seven billion lira.	11702248	1472188061861	1472188061996	c	67
22858	246289	The former minister is accused of receiving seven billion lira.	The former minister is accused of receiving seven billion lira.	11702249	1472188062043	1472188062118	u	85
22858	246289	The former minister is accused of receiving seven billion lira.	The former minister is accused of receiving seven billion lira.	11702250	1472188062211	1472188062299	s	83
22858	246289	The former minister is accused of receiving seven billion lira.	The former minister is accused of receiving seven billion lira.	11702311	1472188062441	1472188062517	e	69
22858	246289	The former minister is accused of receiving seven billion lira.	The former minister is accused of receiving seven billion lira.	11702312	1472188062969	1472188063101	d	68
22858	246289	The former minister is accused of receiving seven billion lira.	The former minister is accused of receiving seven billion lira.	11702314	1472188063065	1472188063257	 	32
22858	246289	The former minister is accused of receiving seven billion lira.	The former minister is accused of receiving seven billion lira.	11702316	1472188064104	1472188064199	o	79
22858	246289	The former minister is accused of receiving seven billion lira.	The former minister is accused of receiving seven billion lira.	11702318	1472188064433	1472188064552	d	68
22858	246289	The former minister is accused of receiving seven billion lira.	The former minister is accused of receiving seven billion lira.	11702378	1472188064516	1472188064663	 	32
22858	246289	The former minister is accused of receiving seven billion lira.	The former minister is accused of receiving seven billion lira.	11702380	1472188065524	1472188065584	BKSP	8
22858	246289	The former minister is accused of receiving seven billion lira.	The former minister is accused of receiving seven billion lira.	11702382	1472188065677	1472188065766	BKSP	8
22858	246289	The former minister is accused of receiving seven billion lira.	The former minister is accused of receiving seven billion lira.	11702384	1472188066234	1472188066373	f	70
22858	246289	The former minister is accused of receiving seven billion lira.	The former minister is accused of receiving seven billion lira.	11702386	1472188066314	1472188066509	 	32
22858	246289	The former minister is accused of receiving seven billion lira.	The former minister is accused of receiving seven billion lira.	11702388	1472188067120	1472188067199	r	82
22858	246289	The former minister is accused of receiving seven billion lira.	The former minister is accused of receiving seven billion lira.	11702390	1472188067340	1472188067416	e	69
22858	246289	The former minister is accused of receiving seven billion lira.	The former minister is accused of receiving seven billion lira.	11702393	1472188067853	1472188068010	c	67
22858	246289	The former minister is accused of receiving seven billion lira.	The former minister is accused of receiving seven billion lira.	11702422	1472188068182	1472188068280	e	69
22858	246289	The former minister is accused of receiving seven billion lira.	The former minister is accused of receiving seven billion lira.	11702426	1472188068264	1472188068394	i	73
22858	246289	The former minister is accused of receiving seven billion lira.	The former minister is accused of receiving seven billion lira.	11702430	1472188069178	1472188069318	v	86
22858	246289	The former minister is accused of receiving seven billion lira.	The former minister is accused of receiving seven billion lira.	11702433	1472188069279	1472188069396	i	73
22858	246289	The former minister is accused of receiving seven billion lira.	The former minister is accused of receiving seven billion lira.	11702436	1472188069568	1472188069695	n	78
22858	246289	The former minister is accused of receiving seven billion lira.	The former minister is accused of receiving seven billion lira.	11702480	1472188069836	1472188069946	g	71
22858	246289	The former minister is accused of receiving seven billion lira.	The former minister is accused of receiving seven billion lira.	11702481	1472188069946	1472188070078	 	32
22858	246289	The former minister is accused of receiving seven billion lira.	The former minister is accused of receiving seven billion lira.	11702484	1472188071051	1472188071163	s	83
22858	246289	The former minister is accused of receiving seven billion lira.	The former minister is accused of receiving seven billion lira.	11702485	1472188071319	1472188071414	e	69
22858	246289	The former minister is accused of receiving seven billion lira.	The former minister is accused of receiving seven billion lira.	11702489	1472188071772	1472188071880	v	86
22858	246289	The former minister is accused of receiving seven billion lira.	The former minister is accused of receiving seven billion lira.	11702533	1472188071816	1472188071944	e	69
22858	246289	The former minister is accused of receiving seven billion lira.	The former minister is accused of receiving seven billion lira.	11702536	1472188072147	1472188072324	n	78
22858	246289	The former minister is accused of receiving seven billion lira.	The former minister is accused of receiving seven billion lira.	11702540	1472188072309	1472188072428	 	32
22858	246289	The former minister is accused of receiving seven billion lira.	The former minister is accused of receiving seven billion lira.	11702544	1472188072787	1472188072976	b	66
22858	246289	The former minister is accused of receiving seven billion lira.	The former minister is accused of receiving seven billion lira.	11702546	1472188073007	1472188073119	i	73
22858	246289	The former minister is accused of receiving seven billion lira.	The former minister is accused of receiving seven billion lira.	11702548	1472188073509	1472188073565	l	76
22858	246289	The former minister is accused of receiving seven billion lira.	The former minister is accused of receiving seven billion lira.	11702561	1472188073628	1472188073713	l	76
22858	246289	The former minister is accused of receiving seven billion lira.	The former minister is accused of receiving seven billion lira.	11702563	1472188073853	1472188073946	i	73
22858	246289	The former minister is accused of receiving seven billion lira.	The former minister is accused of receiving seven billion lira.	11702565	1472188074073	1472188074147	o	79
22858	246289	The former minister is accused of receiving seven billion lira.	The former minister is accused of receiving seven billion lira.	11702567	1472188074695	1472188074822	n	78
22858	246289	The former minister is accused of receiving seven billion lira.	The former minister is accused of receiving seven billion lira.	11702634	1472188074780	1472188074910	 	32
22858	246289	The former minister is accused of receiving seven billion lira.	The former minister is accused of receiving seven billion lira.	11702636	1472188075693	1472188075762	l	76
22858	246289	The former minister is accused of receiving seven billion lira.	The former minister is accused of receiving seven billion lira.	11702638	1472188075902	1472188076011	i	73
22858	246289	The former minister is accused of receiving seven billion lira.	The former minister is accused of receiving seven billion lira.	11702639	1472188076214	1472188076326	r	82
22858	246289	The former minister is accused of receiving seven billion lira.	The former minister is accused of receiving seven billion lira.	11702640	1472188076732	1472188076860	a	65
22858	246306	The wind was strong and gusting.	The wind was strong and gusting.	11702708	1472188080176	1472188080311	SHIFT	16
22858	246306	The wind was strong and gusting.	The wind was strong and gusting.	11702710	1472188080238	1472188080326	T	84
22858	246306	The wind was strong and gusting.	The wind was strong and gusting.	11702712	1472188080498	1472188080610	h	72
22858	246306	The wind was strong and gusting.	The wind was strong and gusting.	11702715	1472188080594	1472188080724	e	69
22858	246306	The wind was strong and gusting.	The wind was strong and gusting.	11702718	1472188080740	1472188080872	 	32
22858	246306	The wind was strong and gusting.	The wind was strong and gusting.	11702721	1472188081075	1472188081238	w	87
22858	246306	The wind was strong and gusting.	The wind was strong and gusting.	11702758	1472188081253	1472188081389	i	73
22858	246306	The wind was strong and gusting.	The wind was strong and gusting.	11702761	1472188081938	1472188082041	n	78
22858	246306	The wind was strong and gusting.	The wind was strong and gusting.	11702764	1472188082353	1472188082511	d	68
22858	246306	The wind was strong and gusting.	The wind was strong and gusting.	11702766	1472188082443	1472188082620	 	32
22858	246306	The wind was strong and gusting.	The wind was strong and gusting.	11702768	1472188082995	1472188083123	w	87
22858	246306	The wind was strong and gusting.	The wind was strong and gusting.	11702788	1472188083264	1472188083329	a	65
22858	246306	The wind was strong and gusting.	The wind was strong and gusting.	11702791	1472188083453	1472188083558	s	83
22858	246306	The wind was strong and gusting.	The wind was strong and gusting.	11702794	1472188083557	1472188083704	 	32
22858	246306	The wind was strong and gusting.	The wind was strong and gusting.	11702797	1472188084032	1472188084158	s	83
22858	246306	The wind was strong and gusting.	The wind was strong and gusting.	11702801	1472188084532	1472188084625	t	84
22858	246306	The wind was strong and gusting.	The wind was strong and gusting.	11702827	1472188084735	1472188084824	r	82
22858	246306	The wind was strong and gusting.	The wind was strong and gusting.	11702830	1472188085089	1472188085190	o	79
22858	246306	The wind was strong and gusting.	The wind was strong and gusting.	11702833	1472188085612	1472188085743	n	78
22858	246306	The wind was strong and gusting.	The wind was strong and gusting.	11702836	1472188085692	1472188085930	g	71
22858	246306	The wind was strong and gusting.	The wind was strong and gusting.	11702891	1472188085915	1472188085970	 	32
22858	246306	The wind was strong and gusting.	The wind was strong and gusting.	11702895	1472188085954	1472188086135	a	65
22858	246306	The wind was strong and gusting.	The wind was strong and gusting.	11702899	1472188086197	1472188086339	n	78
22858	246306	The wind was strong and gusting.	The wind was strong and gusting.	11702902	1472188088077	1472188088206	d	68
22858	246306	The wind was strong and gusting.	The wind was strong and gusting.	11702905	1472188088175	1472188088353	 	32
22858	246306	The wind was strong and gusting.	The wind was strong and gusting.	11702907	1472188088524	1472188088606	g	71
22858	246306	The wind was strong and gusting.	The wind was strong and gusting.	11702977	1472188089311	1472188089391	u	85
22858	246306	The wind was strong and gusting.	The wind was strong and gusting.	11702979	1472188090346	1472188090460	s	83
22858	246306	The wind was strong and gusting.	The wind was strong and gusting.	11702982	1472188090395	1472188090506	t	84
22858	246306	The wind was strong and gusting.	The wind was strong and gusting.	11702985	1472188090865	1472188090977	i	73
22858	246306	The wind was strong and gusting.	The wind was strong and gusting.	11702987	1472188091180	1472188091320	n	78
22858	246306	The wind was strong and gusting.	The wind was strong and gusting.	11703019	1472188091885	1472188092008	g	71
22858	246314	It's going to be ludicrous.	It's going to be ludicrous.	11703188	1472188097955	1472188098105	SHIFT	16
22858	246314	It's going to be ludicrous.	It's going to be ludicrous.	11703190	1472188098017	1472188098152	I	73
22858	246314	It's going to be ludicrous.	It's going to be ludicrous.	11703192	1472188098934	1472188099067	t	84
22858	246314	It's going to be ludicrous.	It's going to be ludicrous.	11703194	1472188099051	1472188099247	'	222
22858	246314	It's going to be ludicrous.	It's going to be ludicrous.	11703198	1472188099512	1472188099639	s	83
22858	246314	It's going to be ludicrous.	It's going to be ludicrous.	11703231	1472188099572	1472188099734	 	32
22858	246314	It's going to be ludicrous.	It's going to be ludicrous.	11703234	1472188100251	1472188100388	g	71
22858	246314	It's going to be ludicrous.	It's going to be ludicrous.	11703237	1472188100320	1472188100466	o	79
22858	246314	It's going to be ludicrous.	It's going to be ludicrous.	11703240	1472188100560	1472188100684	i	73
22858	246314	It's going to be ludicrous.	It's going to be ludicrous.	11703242	1472188100967	1472188101088	n	78
22858	246314	It's going to be ludicrous.	It's going to be ludicrous.	11703261	1472188101038	1472188101184	g	71
22858	246314	It's going to be ludicrous.	It's going to be ludicrous.	11703262	1472188101199	1472188101334	 	32
22858	246314	It's going to be ludicrous.	It's going to be ludicrous.	11703263	1472188101536	1472188101718	t	84
22858	246314	It's going to be ludicrous.	It's going to be ludicrous.	11703264	1472188101702	1472188101889	o	79
22858	246314	It's going to be ludicrous.	It's going to be ludicrous.	11703265	1472188101848	1472188102045	 	32
22858	246314	It's going to be ludicrous.	It's going to be ludicrous.	11703266	1472188102155	1472188102272	b	66
22858	246314	It's going to be ludicrous.	It's going to be ludicrous.	11703305	1472188102221	1472188102383	e	69
22858	246314	It's going to be ludicrous.	It's going to be ludicrous.	11703308	1472188102414	1472188102566	 	32
22858	246314	It's going to be ludicrous.	It's going to be ludicrous.	11703312	1472188103147	1472188103220	l	76
22858	246314	It's going to be ludicrous.	It's going to be ludicrous.	11703314	1472188103422	1472188103535	u	85
22858	246314	It's going to be ludicrous.	It's going to be ludicrous.	11703316	1472188104489	1472188104604	d	68
22858	246314	It's going to be ludicrous.	It's going to be ludicrous.	11703358	1472188104569	1472188104700	i	73
22858	246314	It's going to be ludicrous.	It's going to be ludicrous.	11703360	1472188105263	1472188105383	c	67
22858	246314	It's going to be ludicrous.	It's going to be ludicrous.	11703362	1472188105916	1472188106019	r	82
22858	246314	It's going to be ludicrous.	It's going to be ludicrous.	11703364	1472188105955	1472188106097	o	79
22858	246314	It's going to be ludicrous.	It's going to be ludicrous.	11703365	1472188106238	1472188106333	u	85
22858	246314	It's going to be ludicrous.	It's going to be ludicrous.	11703367	1472188106443	1472188106560	s	83
22858	246321	I'm still in FW.	I'm still in FW.	11703515	1472188112503	1472188112648	SHIFT	16
22858	246321	I'm still in FW.	I'm still in FW.	11703516	1472188112549	1472188112664	I	73
22858	246321	I'm still in FW.	I'm still in FW.	11703517	1472188113432	1472188113531	'	222
22858	246321	I'm still in FW.	I'm still in FW.	11703518	1472188113827	1472188113951	m	77
22858	246321	I'm still in FW.	I'm still in FW.	11703519	1472188113914	1472188114045	 	32
22858	246321	I'm still in FW.	I'm still in FW.	11703521	1472188114404	1472188114518	s	83
22858	246321	I'm still in FW.	I'm still in FW.	11703546	1472188114468	1472188114597	t	84
22858	246321	I'm still in FW.	I'm still in FW.	11703547	1472188114972	1472188115049	i	73
22858	246321	I'm still in FW.	I'm still in FW.	11703548	1472188115205	1472188115269	l	76
22858	246321	I'm still in FW.	I'm still in FW.	11703549	1472188115332	1472188115463	l	76
22858	246321	I'm still in FW.	I'm still in FW.	11703551	1472188115541	1472188115651	 	32
22858	246321	I'm still in FW.	I'm still in FW.	11703589	1472188115617	1472188115762	i	73
22858	246321	I'm still in FW.	I'm still in FW.	11703590	1472188115918	1472188116100	n	78
22858	246321	I'm still in FW.	I'm still in FW.	11703591	1472188116045	1472188116193	 	32
22858	246321	I'm still in FW.	I'm still in FW.	11703594	1472188116349	1472188116942	SHIFT	16
22858	246321	I'm still in FW.	I'm still in FW.	11703592	1472188116474	1472188116565	F	70
22858	246321	I'm still in FW.	I'm still in FW.	11703593	1472188116767	1472188116911	W	87
22858	246321	I'm still in FW.	I'm still in FW.	11703595	1472188117507	1472188117707	.	190
22858	246327	The move was a further twist in the long-running dispute.	The move was further twist in the long-running dispute.	11703788	1472188126477	1472188126643	SHIFT	16
22858	246327	The move was a further twist in the long-running dispute.	The move was further twist in the long-running dispute.	11703791	1472188126539	1472188126658	T	84
22858	246327	The move was a further twist in the long-running dispute.	The move was further twist in the long-running dispute.	11703795	1472188126799	1472188126926	h	72
22858	246327	The move was a further twist in the long-running dispute.	The move was further twist in the long-running dispute.	11703799	1472188126941	1472188127043	w	87
22858	246327	The move was a further twist in the long-running dispute.	The move was further twist in the long-running dispute.	11703801	1472188127402	1472188127480	BKSP	8
22858	246327	The move was a further twist in the long-running dispute.	The move was further twist in the long-running dispute.	11703803	1472188127573	1472188127660	BKSP	8
22858	246327	The move was a further twist in the long-running dispute.	The move was further twist in the long-running dispute.	11703805	1472188127707	1472188127810	e	69
22858	246327	The move was a further twist in the long-running dispute.	The move was further twist in the long-running dispute.	11703845	1472188127794	1472188127925	 	32
22858	246327	The move was a further twist in the long-running dispute.	The move was further twist in the long-running dispute.	11703846	1472188128221	1472188128294	BKSP	8
22858	246327	The move was a further twist in the long-running dispute.	The move was further twist in the long-running dispute.	11703847	1472188128404	1472188128478	BKSP	8
22858	246327	The move was a further twist in the long-running dispute.	The move was further twist in the long-running dispute.	11703848	1472188129230	1472188129328	h	72
22858	246327	The move was a further twist in the long-running dispute.	The move was further twist in the long-running dispute.	11703849	1472188129263	1472188129406	e	69
22858	246327	The move was a further twist in the long-running dispute.	The move was further twist in the long-running dispute.	11703850	1472188129500	1472188129624	 	32
22858	246327	The move was a further twist in the long-running dispute.	The move was further twist in the long-running dispute.	11703851	1472188130190	1472188130341	m	77
22858	246327	The move was a further twist in the long-running dispute.	The move was further twist in the long-running dispute.	11703864	1472188130293	1472188130446	o	79
22858	246327	The move was a further twist in the long-running dispute.	The move was further twist in the long-running dispute.	11703866	1472188130973	1472188131108	v	86
22858	246327	The move was a further twist in the long-running dispute.	The move was further twist in the long-running dispute.	11703868	1472188131124	1472188131226	e	69
22858	246327	The move was a further twist in the long-running dispute.	The move was further twist in the long-running dispute.	11703870	1472188131257	1472188131374	 	32
22858	246327	The move was a further twist in the long-running dispute.	The move was further twist in the long-running dispute.	11703872	1472188132080	1472188132192	w	87
22858	246327	The move was a further twist in the long-running dispute.	The move was further twist in the long-running dispute.	11703874	1472188132332	1472188132412	a	65
22858	246327	The move was a further twist in the long-running dispute.	The move was further twist in the long-running dispute.	11703905	1472188132539	1472188132673	s	83
22858	246327	The move was a further twist in the long-running dispute.	The move was further twist in the long-running dispute.	11703908	1472188132657	1472188132789	 	32
22858	246327	The move was a further twist in the long-running dispute.	The move was further twist in the long-running dispute.	11703913	1472188134138	1472188134225	f	70
22858	246327	The move was a further twist in the long-running dispute.	The move was further twist in the long-running dispute.	11703917	1472188134553	1472188134642	u	85
22858	246327	The move was a further twist in the long-running dispute.	The move was further twist in the long-running dispute.	11703920	1472188134829	1472188134956	r	82
22858	246327	The move was a further twist in the long-running dispute.	The move was further twist in the long-running dispute.	11703943	1472188135176	1472188135275	t	84
22858	246327	The move was a further twist in the long-running dispute.	The move was further twist in the long-running dispute.	11703945	1472188135416	1472188135523	h	72
22858	246327	The move was a further twist in the long-running dispute.	The move was further twist in the long-running dispute.	11703946	1472188135508	1472188135638	e	69
22858	246327	The move was a further twist in the long-running dispute.	The move was further twist in the long-running dispute.	11703947	1472188135700	1472188135792	r	82
22858	246327	The move was a further twist in the long-running dispute.	The move was further twist in the long-running dispute.	11703948	1472188136590	1472188136737	 	32
22858	246327	The move was a further twist in the long-running dispute.	The move was further twist in the long-running dispute.	11703989	1472188137272	1472188137393	t	84
22858	246327	The move was a further twist in the long-running dispute.	The move was further twist in the long-running dispute.	11703991	1472188137342	1472188137424	e	69
22858	246327	The move was a further twist in the long-running dispute.	The move was further twist in the long-running dispute.	11703994	1472188137705	1472188137806	BKSP	8
22858	246327	The move was a further twist in the long-running dispute.	The move was further twist in the long-running dispute.	11703995	1472188137869	1472188137971	w	87
22858	246327	The move was a further twist in the long-running dispute.	The move was further twist in the long-running dispute.	11703996	1472188138221	1472188138370	i	73
22858	246327	The move was a further twist in the long-running dispute.	The move was further twist in the long-running dispute.	11703997	1472188138713	1472188138842	s	83
22858	246327	The move was a further twist in the long-running dispute.	The move was further twist in the long-running dispute.	11704004	1472188138793	1472188138953	t	84
22858	246327	The move was a further twist in the long-running dispute.	The move was further twist in the long-running dispute.	11704005	1472188138953	1472188139118	 	32
22858	246327	The move was a further twist in the long-running dispute.	The move was further twist in the long-running dispute.	11704006	1472188139949	1472188140060	i	73
22858	246327	The move was a further twist in the long-running dispute.	The move was further twist in the long-running dispute.	11704007	1472188140341	1472188140486	n	78
22858	246327	The move was a further twist in the long-running dispute.	The move was further twist in the long-running dispute.	11704008	1472188140470	1472188140605	 	32
22858	246327	The move was a further twist in the long-running dispute.	The move was further twist in the long-running dispute.	11704009	1472188140636	1472188140770	t	84
22858	246327	The move was a further twist in the long-running dispute.	The move was further twist in the long-running dispute.	11704064	1472188140754	1472188140855	h	72
22858	246327	The move was a further twist in the long-running dispute.	The move was further twist in the long-running dispute.	11704066	1472188140948	1472188141101	e	69
22858	246327	The move was a further twist in the long-running dispute.	The move was further twist in the long-running dispute.	11704068	1472188141059	1472188141218	 	32
22858	246327	The move was a further twist in the long-running dispute.	The move was further twist in the long-running dispute.	11704070	1472188142158	1472188142240	l	76
22858	246327	The move was a further twist in the long-running dispute.	The move was further twist in the long-running dispute.	11704071	1472188142411	1472188142507	o	79
22858	246327	The move was a further twist in the long-running dispute.	The move was further twist in the long-running dispute.	11704072	1472188143163	1472188143291	n	78
22858	246327	The move was a further twist in the long-running dispute.	The move was further twist in the long-running dispute.	11704127	1472188143240	1472188143354	g	71
22858	246327	The move was a further twist in the long-running dispute.	The move was further twist in the long-running dispute.	11704131	1472188145188	1472188145303	-	189
22858	246327	The move was a further twist in the long-running dispute.	The move was further twist in the long-running dispute.	11704134	1472188145709	1472188145821	r	82
22858	246327	The move was a further twist in the long-running dispute.	The move was further twist in the long-running dispute.	11704136	1472188146195	1472188146297	u	85
22858	246327	The move was a further twist in the long-running dispute.	The move was further twist in the long-running dispute.	11704138	1472188146531	1472188146590	n	78
22858	246327	The move was a further twist in the long-running dispute.	The move was further twist in the long-running dispute.	11704139	1472188146652	1472188146755	n	78
22858	246327	The move was a further twist in the long-running dispute.	The move was further twist in the long-running dispute.	11704177	1472188146851	1472188146985	i	73
22858	246327	The move was a further twist in the long-running dispute.	The move was further twist in the long-running dispute.	11704180	1472188147063	1472188147202	n	78
22858	246327	The move was a further twist in the long-running dispute.	The move was further twist in the long-running dispute.	11704185	1472188147641	1472188147792	g	71
22858	246327	The move was a further twist in the long-running dispute.	The move was further twist in the long-running dispute.	11704190	1472188147737	1472188147870	 	32
22858	246327	The move was a further twist in the long-running dispute.	The move was further twist in the long-running dispute.	11704193	1472188149296	1472188149406	d	68
22858	246327	The move was a further twist in the long-running dispute.	The move was further twist in the long-running dispute.	11704206	1472188149357	1472188149531	i	73
22858	246327	The move was a further twist in the long-running dispute.	The move was further twist in the long-running dispute.	11704208	1472188149594	1472188149772	s	83
22858	246327	The move was a further twist in the long-running dispute.	The move was further twist in the long-running dispute.	11704209	1472188149721	1472188149866	p	80
22858	246327	The move was a further twist in the long-running dispute.	The move was further twist in the long-running dispute.	11704211	1472188150147	1472188150332	u	85
22858	246327	The move was a further twist in the long-running dispute.	The move was further twist in the long-running dispute.	11704213	1472188150425	1472188150552	t	84
22858	246327	The move was a further twist in the long-running dispute.	The move was further twist in the long-running dispute.	11704216	1472188150723	1472188150851	e	69
22858	246341	He did not return to the game, and is listed as day to day.	He did not return to the game, and is listed as day to day.	11704765	1472188152260	1472188181507	.	190
22858	246341	He did not return to the game, and is listed as day to day.	He did not return to the game, and is listed as day to day.	11704268	1472188154783	1472188154799	o	79
22858	246341	He did not return to the game, and is listed as day to day.	He did not return to the game, and is listed as day to day.	11704272	1472188154994	1472188155182	SHIFT	16
22858	246341	He did not return to the game, and is listed as day to day.	He did not return to the game, and is listed as day to day.	11704277	1472188155025	1472188155198	H	72
22858	246341	He did not return to the game, and is listed as day to day.	He did not return to the game, and is listed as day to day.	11704282	1472188155338	1472188155461	e	69
22858	246341	He did not return to the game, and is listed as day to day.	He did not return to the game, and is listed as day to day.	11704285	1472188155418	1472188155597	 	32
22858	246341	He did not return to the game, and is listed as day to day.	He did not return to the game, and is listed as day to day.	11704287	1472188155972	1472188156105	d	68
22858	246341	He did not return to the game, and is listed as day to day.	He did not return to the game, and is listed as day to day.	11704323	1472188156052	1472188156170	i	73
22858	246341	He did not return to the game, and is listed as day to day.	He did not return to the game, and is listed as day to day.	11704324	1472188156201	1472188156317	d	68
22858	246341	He did not return to the game, and is listed as day to day.	He did not return to the game, and is listed as day to day.	11704326	1472188156317	1472188156512	 	32
22858	246341	He did not return to the game, and is listed as day to day.	He did not return to the game, and is listed as day to day.	11704330	1472188157108	1472188157295	n	78
22858	246341	He did not return to the game, and is listed as day to day.	He did not return to the game, and is listed as day to day.	11704333	1472188157342	1472188157404	o	79
22858	246341	He did not return to the game, and is listed as day to day.	He did not return to the game, and is listed as day to day.	11704336	1472188158312	1472188158327	t	84
22858	246341	He did not return to the game, and is listed as day to day.	He did not return to the game, and is listed as day to day.	11704392	1472188158636	1472188159734	BKSP	8
22858	246341	He did not return to the game, and is listed as day to day.	He did not return to the game, and is listed as day to day.	11704394	1472188160109	1472188160284	SHIFT	16
22858	246341	He did not return to the game, and is listed as day to day.	He did not return to the game, and is listed as day to day.	11704396	1472188160190	1472188160300	H	72
22858	246341	He did not return to the game, and is listed as day to day.	He did not return to the game, and is listed as day to day.	11704398	1472188160362	1472188160487	e	69
22858	246341	He did not return to the game, and is listed as day to day.	He did not return to the game, and is listed as day to day.	11704399	1472188160451	1472188160611	 	32
22858	246341	He did not return to the game, and is listed as day to day.	He did not return to the game, and is listed as day to day.	11704400	1472188161084	1472188161184	i	68
22858	246341	He did not return to the game, and is listed as day to day.	He did not return to the game, and is listed as day to day.	11704429	1472188161358	1472188161466	d	68
22858	246341	He did not return to the game, and is listed as day to day.	He did not return to the game, and is listed as day to day.	11704432	1472188161528	1472188161650	 	32
22858	246341	He did not return to the game, and is listed as day to day.	He did not return to the game, and is listed as day to day.	11704435	1472188162886	1472188162952	n	78
22858	246341	He did not return to the game, and is listed as day to day.	He did not return to the game, and is listed as day to day.	11704437	1472188163342	1472188163433	o	79
22858	246341	He did not return to the game, and is listed as day to day.	He did not return to the game, and is listed as day to day.	11704438	1472188163589	1472188163685	t	84
22858	246341	He did not return to the game, and is listed as day to day.	He did not return to the game, and is listed as day to day.	11704508	1472188163669	1472188163813	 	32
22858	246341	He did not return to the game, and is listed as day to day.	He did not return to the game, and is listed as day to day.	11704510	1472188164018	1472188164162	r	82
22858	246341	He did not return to the game, and is listed as day to day.	He did not return to the game, and is listed as day to day.	11704514	1472188164759	1472188164884	e	69
22858	246341	He did not return to the game, and is listed as day to day.	He did not return to the game, and is listed as day to day.	11704517	1472188164833	1472188164946	t	84
22858	246341	He did not return to the game, and is listed as day to day.	He did not return to the game, and is listed as day to day.	11704519	1472188165450	1472188165580	u	85
22858	246341	He did not return to the game, and is listed as day to day.	He did not return to the game, and is listed as day to day.	11704520	1472188166409	1472188166585	r	82
22858	246341	He did not return to the game, and is listed as day to day.	He did not return to the game, and is listed as day to day.	11704553	1472188166530	1472188166681	n	78
22858	246341	He did not return to the game, and is listed as day to day.	He did not return to the game, and is listed as day to day.	11704555	1472188166665	1472188166812	 	32
22858	246341	He did not return to the game, and is listed as day to day.	He did not return to the game, and is listed as day to day.	11704557	1472188168309	1472188168435	t	84
22858	246341	He did not return to the game, and is listed as day to day.	He did not return to the game, and is listed as day to day.	11704558	1472188168382	1472188168528	o	79
22858	246341	He did not return to the game, and is listed as day to day.	He did not return to the game, and is listed as day to day.	11704560	1472188168513	1472188168676	 	32
22858	246341	He did not return to the game, and is listed as day to day.	He did not return to the game, and is listed as day to day.	11704561	1472188168738	1472188168884	t	84
22858	246341	He did not return to the game, and is listed as day to day.	He did not return to the game, and is listed as day to day.	11704577	1472188168847	1472188168979	h	72
22858	246341	He did not return to the game, and is listed as day to day.	He did not return to the game, and is listed as day to day.	11704578	1472188169042	1472188169178	e	69
22858	246341	He did not return to the game, and is listed as day to day.	He did not return to the game, and is listed as day to day.	11704579	1472188169162	1472188169310	 	32
22858	246341	He did not return to the game, and is listed as day to day.	He did not return to the game, and is listed as day to day.	11704580	1472188169703	1472188169812	g	71
22858	246341	He did not return to the game, and is listed as day to day.	He did not return to the game, and is listed as day to day.	11704581	1472188169797	1472188169944	a	65
22858	246341	He did not return to the game, and is listed as day to day.	He did not return to the game, and is listed as day to day.	11704582	1472188170302	1472188170430	m	77
22858	246341	He did not return to the game, and is listed as day to day.	He did not return to the game, and is listed as day to day.	11704614	1472188170397	1472188170505	e	69
22858	246341	He did not return to the game, and is listed as day to day.	He did not return to the game, and is listed as day to day.	11704615	1472188170895	1472188171047	,	188
22858	246341	He did not return to the game, and is listed as day to day.	He did not return to the game, and is listed as day to day.	11704616	1472188170963	1472188171109	 	32
22858	246341	He did not return to the game, and is listed as day to day.	He did not return to the game, and is listed as day to day.	11704617	1472188171530	1472188171675	a	65
22858	246341	He did not return to the game, and is listed as day to day.	He did not return to the game, and is listed as day to day.	11704618	1472188172398	1472188172533	n	78
22858	246341	He did not return to the game, and is listed as day to day.	He did not return to the game, and is listed as day to day.	11704630	1472188172496	1472188172643	d	68
22858	246341	He did not return to the game, and is listed as day to day.	He did not return to the game, and is listed as day to day.	11704632	1472188172643	1472188172808	 	32
22858	246341	He did not return to the game, and is listed as day to day.	He did not return to the game, and is listed as day to day.	11704636	1472188173232	1472188173373	i	73
22858	246341	He did not return to the game, and is listed as day to day.	He did not return to the game, and is listed as day to day.	11704638	1472188173315	1472188173460	s	83
22858	246341	He did not return to the game, and is listed as day to day.	He did not return to the game, and is listed as day to day.	11704643	1472188173460	1472188173593	 	32
22858	246341	He did not return to the game, and is listed as day to day.	He did not return to the game, and is listed as day to day.	11704646	1472188174392	1472188174463	l	76
22858	246341	He did not return to the game, and is listed as day to day.	He did not return to the game, and is listed as day to day.	11704659	1472188174606	1472188174712	i	73
22858	246341	He did not return to the game, and is listed as day to day.	He did not return to the game, and is listed as day to day.	11704661	1472188174977	1472188175113	s	83
22858	246341	He did not return to the game, and is listed as day to day.	He did not return to the game, and is listed as day to day.	11704663	1472188175031	1472188175160	t	84
22858	246341	He did not return to the game, and is listed as day to day.	He did not return to the game, and is listed as day to day.	11704664	1472188175238	1472188175349	e	69
22858	246341	He did not return to the game, and is listed as day to day.	He did not return to the game, and is listed as day to day.	11704665	1472188175505	1472188175643	d	68
22858	246341	He did not return to the game, and is listed as day to day.	He did not return to the game, and is listed as day to day.	11704679	1472188175658	1472188175792	 	32
22858	246341	He did not return to the game, and is listed as day to day.	He did not return to the game, and is listed as day to day.	11704680	1472188176497	1472188176609	a	65
22858	246341	He did not return to the game, and is listed as day to day.	He did not return to the game, and is listed as day to day.	11704681	1472188176749	1472188176901	s	83
22858	246341	He did not return to the game, and is listed as day to day.	He did not return to the game, and is listed as day to day.	11704682	1472188176860	1472188177039	 	32
22858	246341	He did not return to the game, and is listed as day to day.	He did not return to the game, and is listed as day to day.	11704684	1472188177148	1472188177306	d	68
22858	246341	He did not return to the game, and is listed as day to day.	He did not return to the game, and is listed as day to day.	11704716	1472188177448	1472188177592	a	65
22858	246341	He did not return to the game, and is listed as day to day.	He did not return to the game, and is listed as day to day.	11704718	1472188177890	1472188178072	y	89
22858	246341	He did not return to the game, and is listed as day to day.	He did not return to the game, and is listed as day to day.	11704721	1472188178119	1472188178306	 	32
22858	246341	He did not return to the game, and is listed as day to day.	He did not return to the game, and is listed as day to day.	11704724	1472188179795	1472188179949	t	84
22858	246341	He did not return to the game, and is listed as day to day.	He did not return to the game, and is listed as day to day.	11704757	1472188179910	1472188180026	o	79
22858	246341	He did not return to the game, and is listed as day to day.	He did not return to the game, and is listed as day to day.	11704759	1472188180026	1472188180204	 	32
22858	246341	He did not return to the game, and is listed as day to day.	He did not return to the game, and is listed as day to day.	11704760	1472188180423	1472188180605	d	68
22858	246341	He did not return to the game, and is listed as day to day.	He did not return to the game, and is listed as day to day.	11704761	1472188180620	1472188180773	a	65
22858	246341	He did not return to the game, and is listed as day to day.	He did not return to the game, and is listed as day to day.	11704763	1472188180788	1472188180876	y	89
