PARTICIPANT_ID	TEST_SECTION_ID	SENTENCE	USER_INPUT	KEYSTROKE_ID	PRESS_TIME	RELEASE_TIME	LETTER	KEYCODE
228875	2452718	Hey TK, how are you doing?	Hey Tk, how are you doing?	116496283	1475183101527	1475183105464	SHIFT	16
228875	2452718	Hey TK, how are you doing?	Hey Tk, how are you doing?	116496281	1475183105252	1475183105406	NA	72
228875	2452718	Hey TK, how are you doing?	Hey Tk, how are you doing?	116496285	1475183105803	1475183105961	NA	69
228875	2452718	Hey TK, how are you doing?	Hey Tk, how are you doing?	116496287	1475183105944	1475183106069	NA	89
228875	2452718	Hey TK, how are you doing?	Hey Tk, how are you doing?	116496292	1475183106269	1475183106402	NA	32
228875	2452718	Hey TK, how are you doing?	Hey Tk, how are you doing?	116496337	1475183106543	1475183106848	SHIFT	16
228875	2452718	Hey TK, how are you doing?	Hey Tk, how are you doing?	116496297	1475183106718	1475183106827	NA	84
228875	2452718	Hey TK, how are you doing?	Hey Tk, how are you doing?	116496340	1475183107113	1475183107244	NA	75
228875	2452718	Hey TK, how are you doing?	Hey Tk, how are you doing?	116496342	1475183107610	1475183107698	NA	188
228875	2452718	Hey TK, how are you doing?	Hey Tk, how are you doing?	116496345	1475183107846	1475183107943	NA	32
228875	2452718	Hey TK, how are you doing?	Hey Tk, how are you doing?	116496348	1475183108225	1475183108318	NA	72
228875	2452718	Hey TK, how are you doing?	Hey Tk, how are you doing?	116496349	1475183108414	1475183108520	NA	79
228875	2452718	Hey TK, how are you doing?	Hey Tk, how are you doing?	116496371	1475183109069	1475183109196	NA	87
228875	2452718	Hey TK, how are you doing?	Hey Tk, how are you doing?	116496373	1475183109351	1475183109414	NA	32
228875	2452718	Hey TK, how are you doing?	Hey Tk, how are you doing?	116496375	1475183109543	1475183109736	NA	65
228875	2452718	Hey TK, how are you doing?	Hey Tk, how are you doing?	116496377	1475183109737	1475183109853	NA	82
228875	2452718	Hey TK, how are you doing?	Hey Tk, how are you doing?	116496405	1475183109795	1475183109921	NA	69
228875	2452718	Hey TK, how are you doing?	Hey Tk, how are you doing?	116496407	1475183110162	1475183110279	NA	32
228875	2452718	Hey TK, how are you doing?	Hey Tk, how are you doing?	116496409	1475183110811	1475183110914	NA	89
228875	2452718	Hey TK, how are you doing?	Hey Tk, how are you doing?	116496411	1475183110991	1475183111181	NA	79
228875	2452718	Hey TK, how are you doing?	Hey Tk, how are you doing?	116496412	1475183111144	1475183111267	NA	85
228875	2452718	Hey TK, how are you doing?	Hey Tk, how are you doing?	116496413	1475183111462	1475183111574	NA	32
228875	2452718	Hey TK, how are you doing?	Hey Tk, how are you doing?	116496442	1475183111750	1475183111873	NA	68
228875	2452718	Hey TK, how are you doing?	Hey Tk, how are you doing?	116496443	1475183111984	1475183112142	NA	79
228875	2452718	Hey TK, how are you doing?	Hey Tk, how are you doing?	116496445	1475183112132	1475183112255	NA	73
228875	2452718	Hey TK, how are you doing?	Hey Tk, how are you doing?	116496447	1475183112487	1475183112578	NA	78
228875	2452718	Hey TK, how are you doing?	Hey Tk, how are you doing?	116496449	1475183112772	1475183112840	NA	71
228875	2452718	Hey TK, how are you doing?	Hey Tk, how are you doing?	116496500	1475183113104	1475183113755	SHIFT	16
228875	2452718	Hey TK, how are you doing?	Hey Tk, how are you doing?	116496499	1475183113515	1475183113631	NA	190
228875	2452718	Hey TK, how are you doing?	Hey Tk, how are you doing?	116496501	1475183114681	1475183114817		8
228875	2452718	Hey TK, how are you doing?	Hey Tk, how are you doing?	116496503	1475183114997	1475183115366	SHIFT	16
228875	2452718	Hey TK, how are you doing?	Hey Tk, how are you doing?	116496502	1475183115199	1475183115350	NA	191
228875	2452735	I will be out on Friday, but any other day is fine.	I will be out on Friday, but any other day is fine.	116496986	1475183132369	1475183132894	SHIFT	16
228875	2452735	I will be out on Friday, but any other day is fine.	I will be out on Friday, but any other day is fine.	116496984	1475183132722	1475183132813	NA	73
228875	2452735	I will be out on Friday, but any other day is fine.	I will be out on Friday, but any other day is fine.	116496991	1475183133104	1475183133219	NA	32
228875	2452735	I will be out on Friday, but any other day is fine.	I will be out on Friday, but any other day is fine.	116496997	1475183133371	1475183133513	NA	87
228875	2452735	I will be out on Friday, but any other day is fine.	I will be out on Friday, but any other day is fine.	116497001	1475183133591	1475183133662	NA	73
228875	2452735	I will be out on Friday, but any other day is fine.	I will be out on Friday, but any other day is fine.	116497003	1475183133786	1475183133856	NA	76
228875	2452735	I will be out on Friday, but any other day is fine.	I will be out on Friday, but any other day is fine.	116497020	1475183133915	1475183133991	NA	76
228875	2452735	I will be out on Friday, but any other day is fine.	I will be out on Friday, but any other day is fine.	116497021	1475183134188	1475183134295	NA	32
228875	2452735	I will be out on Friday, but any other day is fine.	I will be out on Friday, but any other day is fine.	116497022	1475183134488	1475183134630	NA	66
228875	2452735	I will be out on Friday, but any other day is fine.	I will be out on Friday, but any other day is fine.	116497024	1475183134646	1475183134758	NA	69
228875	2452735	I will be out on Friday, but any other day is fine.	I will be out on Friday, but any other day is fine.	116497025	1475183134781	1475183134874	NA	32
228875	2452735	I will be out on Friday, but any other day is fine.	I will be out on Friday, but any other day is fine.	116497084	1475183135059	1475183135193	NA	79
228875	2452735	I will be out on Friday, but any other day is fine.	I will be out on Friday, but any other day is fine.	116497086	1475183135492	1475183135589	NA	84
228875	2452735	I will be out on Friday, but any other day is fine.	I will be out on Friday, but any other day is fine.	116497088	1475183135865	1475183135956	NA	32
228875	2452735	I will be out on Friday, but any other day is fine.	I will be out on Friday, but any other day is fine.	116497091	1475183136525	1475183136594		8
228875	2452735	I will be out on Friday, but any other day is fine.	I will be out on Friday, but any other day is fine.	116497094	1475183136687	1475183136766		8
228875	2452735	I will be out on Friday, but any other day is fine.	I will be out on Friday, but any other day is fine.	116497123	1475183137584	1475183137677	NA	85
228875	2452735	I will be out on Friday, but any other day is fine.	I will be out on Friday, but any other day is fine.	116497125	1475183137887	1475183137977	NA	84
228875	2452735	I will be out on Friday, but any other day is fine.	I will be out on Friday, but any other day is fine.	116497127	1475183138160	1475183138262	NA	32
228875	2452735	I will be out on Friday, but any other day is fine.	I will be out on Friday, but any other day is fine.	116497129	1475183138455	1475183138590	NA	79
228875	2452735	I will be out on Friday, but any other day is fine.	I will be out on Friday, but any other day is fine.	116497131	1475183138692	1475183138782	NA	78
228875	2452735	I will be out on Friday, but any other day is fine.	I will be out on Friday, but any other day is fine.	116497178	1475183138889	1475183138999	NA	32
228875	2452735	I will be out on Friday, but any other day is fine.	I will be out on Friday, but any other day is fine.	116497180	1475183139431	1475183139722	SHIFT	16
228875	2452735	I will be out on Friday, but any other day is fine.	I will be out on Friday, but any other day is fine.	116497179	1475183139584	1475183139691	NA	70
228875	2452735	I will be out on Friday, but any other day is fine.	I will be out on Friday, but any other day is fine.	116497181	1475183139789	1475183139863	NA	82
228875	2452735	I will be out on Friday, but any other day is fine.	I will be out on Friday, but any other day is fine.	116497182	1475183140102	1475183140181	NA	73
228875	2452735	I will be out on Friday, but any other day is fine.	I will be out on Friday, but any other day is fine.	116497184	1475183140453	1475183140539	NA	68
228875	2452735	I will be out on Friday, but any other day is fine.	I will be out on Friday, but any other day is fine.	116497252	1475183140593	1475183140721	NA	65
228875	2452735	I will be out on Friday, but any other day is fine.	I will be out on Friday, but any other day is fine.	116497255	1475183140901	1475183140987	NA	89
228875	2452735	I will be out on Friday, but any other day is fine.	I will be out on Friday, but any other day is fine.	116497258	1475183141985	1475183142086	NA	188
228875	2452735	I will be out on Friday, but any other day is fine.	I will be out on Friday, but any other day is fine.	116497260	1475183142302	1475183142405	NA	32
228875	2452735	I will be out on Friday, but any other day is fine.	I will be out on Friday, but any other day is fine.	116497289	1475183142588	1475183143088	SHIFT	16
228875	2452735	I will be out on Friday, but any other day is fine.	I will be out on Friday, but any other day is fine.	116497262	1475183142894	1475183143002	NA	66
228875	2452735	I will be out on Friday, but any other day is fine.	I will be out on Friday, but any other day is fine.	116497291	1475183143434	1475183143572	NA	85
228875	2452735	I will be out on Friday, but any other day is fine.	I will be out on Friday, but any other day is fine.	116497292	1475183143636	1475183143750	NA	84
228875	2452735	I will be out on Friday, but any other day is fine.	I will be out on Friday, but any other day is fine.	116497293	1475183144332	1475183144400		8
228875	2452735	I will be out on Friday, but any other day is fine.	I will be out on Friday, but any other day is fine.	116497294	1475183144493	1475183144565		8
228875	2452735	I will be out on Friday, but any other day is fine.	I will be out on Friday, but any other day is fine.	116497295	1475183144665	1475183144753		8
228875	2452735	I will be out on Friday, but any other day is fine.	I will be out on Friday, but any other day is fine.	116497313	1475183145327	1475183145427	NA	66
228875	2452735	I will be out on Friday, but any other day is fine.	I will be out on Friday, but any other day is fine.	116497314	1475183145520	1475183145634	NA	85
228875	2452735	I will be out on Friday, but any other day is fine.	I will be out on Friday, but any other day is fine.	116497315	1475183145690	1475183145781	NA	84
228875	2452735	I will be out on Friday, but any other day is fine.	I will be out on Friday, but any other day is fine.	116497316	1475183145982	1475183146084	NA	32
228875	2452735	I will be out on Friday, but any other day is fine.	I will be out on Friday, but any other day is fine.	116497317	1475183146147	1475183146294	NA	65
228875	2452735	I will be out on Friday, but any other day is fine.	I will be out on Friday, but any other day is fine.	116497358	1475183146299	1475183146401	NA	78
228875	2452735	I will be out on Friday, but any other day is fine.	I will be out on Friday, but any other day is fine.	116497360	1475183146569	1475183146644	NA	89
228875	2452735	I will be out on Friday, but any other day is fine.	I will be out on Friday, but any other day is fine.	116497362	1475183146815	1475183146900	NA	32
228875	2452735	I will be out on Friday, but any other day is fine.	I will be out on Friday, but any other day is fine.	116497363	1475183147093	1475183147215	NA	79
228875	2452735	I will be out on Friday, but any other day is fine.	I will be out on Friday, but any other day is fine.	116497365	1475183147531	1475183147621	NA	84
228875	2452735	I will be out on Friday, but any other day is fine.	I will be out on Friday, but any other day is fine.	116497424	1475183147761	1475183147860	NA	72
228875	2452735	I will be out on Friday, but any other day is fine.	I will be out on Friday, but any other day is fine.	116497427	1475183147969	1475183148088	NA	69
228875	2452735	I will be out on Friday, but any other day is fine.	I will be out on Friday, but any other day is fine.	116497433	1475183148161	1475183148242	NA	82
228875	2452735	I will be out on Friday, but any other day is fine.	I will be out on Friday, but any other day is fine.	116497437	1475183148656	1475183148779	NA	32
228875	2452735	I will be out on Friday, but any other day is fine.	I will be out on Friday, but any other day is fine.	116497442	1475183149376	1475183149471	NA	68
228875	2452735	I will be out on Friday, but any other day is fine.	I will be out on Friday, but any other day is fine.	116497482	1475183149543	1475183149661	NA	65
228875	2452735	I will be out on Friday, but any other day is fine.	I will be out on Friday, but any other day is fine.	116497485	1475183149832	1475183149922	NA	89
228875	2452735	I will be out on Friday, but any other day is fine.	I will be out on Friday, but any other day is fine.	116497486	1475183150422	1475183150544	NA	32
228875	2452735	I will be out on Friday, but any other day is fine.	I will be out on Friday, but any other day is fine.	116497489	1475183150831	1475183150912	NA	73
228875	2452735	I will be out on Friday, but any other day is fine.	I will be out on Friday, but any other day is fine.	116497490	1475183151010	1475183151124	NA	83
228875	2452735	I will be out on Friday, but any other day is fine.	I will be out on Friday, but any other day is fine.	116497522	1475183151179	1475183151281	NA	32
228875	2452735	I will be out on Friday, but any other day is fine.	I will be out on Friday, but any other day is fine.	116497523	1475183151496	1475183151573	NA	70
228875	2452735	I will be out on Friday, but any other day is fine.	I will be out on Friday, but any other day is fine.	116497524	1475183151732	1475183151824	NA	73
228875	2452735	I will be out on Friday, but any other day is fine.	I will be out on Friday, but any other day is fine.	116497525	1475183152085	1475183152168	NA	78
228875	2452735	I will be out on Friday, but any other day is fine.	I will be out on Friday, but any other day is fine.	116497526	1475183152233	1475183152330	NA	69
228875	2452735	I will be out on Friday, but any other day is fine.	I will be out on Friday, but any other day is fine.	116497540	1475183152691	1475183152778	NA	190
228875	2452757	This time, Nigel Mansell will not be left behind on a restart.	This time, Nigel Mansell will not be left behind on a restart.	116497791	1475183161025	1475183161347	SHIFT	16
228875	2452757	This time, Nigel Mansell will not be left behind on a restart.	This time, Nigel Mansell will not be left behind on a restart.	116497789	1475183161175	1475183161266	NA	84
228875	2452757	This time, Nigel Mansell will not be left behind on a restart.	This time, Nigel Mansell will not be left behind on a restart.	116497793	1475183161401	1475183161481	NA	72
228875	2452757	This time, Nigel Mansell will not be left behind on a restart.	This time, Nigel Mansell will not be left behind on a restart.	116497796	1475183161601	1475183161681	NA	73
228875	2452757	This time, Nigel Mansell will not be left behind on a restart.	This time, Nigel Mansell will not be left behind on a restart.	116497798	1475183161747	1475183161888	NA	83
228875	2452757	This time, Nigel Mansell will not be left behind on a restart.	This time, Nigel Mansell will not be left behind on a restart.	116497800	1475183161899	1475183162006	NA	32
228875	2452757	This time, Nigel Mansell will not be left behind on a restart.	This time, Nigel Mansell will not be left behind on a restart.	116497830	1475183162191	1475183162267	NA	84
228875	2452757	This time, Nigel Mansell will not be left behind on a restart.	This time, Nigel Mansell will not be left behind on a restart.	116497831	1475183162420	1475183162504	NA	73
228875	2452757	This time, Nigel Mansell will not be left behind on a restart.	This time, Nigel Mansell will not be left behind on a restart.	116497833	1475183162678	1475183162767	NA	77
228875	2452757	This time, Nigel Mansell will not be left behind on a restart.	This time, Nigel Mansell will not be left behind on a restart.	116497835	1475183162842	1475183162948	NA	69
228875	2452757	This time, Nigel Mansell will not be left behind on a restart.	This time, Nigel Mansell will not be left behind on a restart.	116497837	1475183163199	1475183163278	NA	188
228875	2452757	This time, Nigel Mansell will not be left behind on a restart.	This time, Nigel Mansell will not be left behind on a restart.	116497898	1475183163400	1475183163503	NA	32
228875	2452757	This time, Nigel Mansell will not be left behind on a restart.	This time, Nigel Mansell will not be left behind on a restart.	116497900	1475183163783	1475183164181	SHIFT	16
228875	2452757	This time, Nigel Mansell will not be left behind on a restart.	This time, Nigel Mansell will not be left behind on a restart.	116497899	1475183164078	1475183164170	NA	78
228875	2452757	This time, Nigel Mansell will not be left behind on a restart.	This time, Nigel Mansell will not be left behind on a restart.	116497901	1475183164332	1475183164414	NA	73
228875	2452757	This time, Nigel Mansell will not be left behind on a restart.	This time, Nigel Mansell will not be left behind on a restart.	116497902	1475183164783	1475183164883	NA	71
228875	2452757	This time, Nigel Mansell will not be left behind on a restart.	This time, Nigel Mansell will not be left behind on a restart.	116497903	1475183164955	1475183165081	NA	69
228875	2452757	This time, Nigel Mansell will not be left behind on a restart.	This time, Nigel Mansell will not be left behind on a restart.	116497975	1475183165269	1475183165371	NA	76
228875	2452757	This time, Nigel Mansell will not be left behind on a restart.	This time, Nigel Mansell will not be left behind on a restart.	116497977	1475183165575	1475183165720	NA	32
228875	2452757	This time, Nigel Mansell will not be left behind on a restart.	This time, Nigel Mansell will not be left behind on a restart.	116497979	1475183166334	1475183166709	SHIFT	16
228875	2452757	This time, Nigel Mansell will not be left behind on a restart.	This time, Nigel Mansell will not be left behind on a restart.	116497978	1475183166523	1475183166617	NA	77
228875	2452757	This time, Nigel Mansell will not be left behind on a restart.	This time, Nigel Mansell will not be left behind on a restart.	116497980	1475183167833	1475183167977	NA	65
228875	2452757	This time, Nigel Mansell will not be left behind on a restart.	This time, Nigel Mansell will not be left behind on a restart.	116497983	1475183168023	1475183168106	NA	78
228875	2452757	This time, Nigel Mansell will not be left behind on a restart.	This time, Nigel Mansell will not be left behind on a restart.	116498014	1475183168259	1475183168381	NA	83
228875	2452757	This time, Nigel Mansell will not be left behind on a restart.	This time, Nigel Mansell will not be left behind on a restart.	116498015	1475183168519	1475183168637	NA	69
228875	2452757	This time, Nigel Mansell will not be left behind on a restart.	This time, Nigel Mansell will not be left behind on a restart.	116498016	1475183168812	1475183168886	NA	76
228875	2452757	This time, Nigel Mansell will not be left behind on a restart.	This time, Nigel Mansell will not be left behind on a restart.	116498017	1475183168955	1475183169041	NA	76
228875	2452757	This time, Nigel Mansell will not be left behind on a restart.	This time, Nigel Mansell will not be left behind on a restart.	116498018	1475183169211	1475183169343	NA	32
228875	2452757	This time, Nigel Mansell will not be left behind on a restart.	This time, Nigel Mansell will not be left behind on a restart.	116498058	1475183169696	1475183169840	NA	87
228875	2452757	This time, Nigel Mansell will not be left behind on a restart.	This time, Nigel Mansell will not be left behind on a restart.	116498060	1475183169918	1475183169995	NA	73
228875	2452757	This time, Nigel Mansell will not be left behind on a restart.	This time, Nigel Mansell will not be left behind on a restart.	116498064	1475183170145	1475183170222	NA	76
228875	2452757	This time, Nigel Mansell will not be left behind on a restart.	This time, Nigel Mansell will not be left behind on a restart.	116498068	1475183170282	1475183170363	NA	76
228875	2452757	This time, Nigel Mansell will not be left behind on a restart.	This time, Nigel Mansell will not be left behind on a restart.	116498072	1475183170551	1475183170648	NA	32
228875	2452757	This time, Nigel Mansell will not be left behind on a restart.	This time, Nigel Mansell will not be left behind on a restart.	116498091	1475183170789	1475183170912	NA	78
228875	2452757	This time, Nigel Mansell will not be left behind on a restart.	This time, Nigel Mansell will not be left behind on a restart.	116498092	1475183171004	1475183171094	NA	79
228875	2452757	This time, Nigel Mansell will not be left behind on a restart.	This time, Nigel Mansell will not be left behind on a restart.	116498094	1475183171343	1475183171434	NA	84
228875	2452757	This time, Nigel Mansell will not be left behind on a restart.	This time, Nigel Mansell will not be left behind on a restart.	116498096	1475183171677	1475183171781	NA	32
228875	2452757	This time, Nigel Mansell will not be left behind on a restart.	This time, Nigel Mansell will not be left behind on a restart.	116498098	1475183171993	1475183172072	NA	66
228875	2452757	This time, Nigel Mansell will not be left behind on a restart.	This time, Nigel Mansell will not be left behind on a restart.	116498117	1475183172178	1475183172290	NA	69
228875	2452757	This time, Nigel Mansell will not be left behind on a restart.	This time, Nigel Mansell will not be left behind on a restart.	116498119	1475183172339	1475183172448	NA	32
228875	2452757	This time, Nigel Mansell will not be left behind on a restart.	This time, Nigel Mansell will not be left behind on a restart.	116498121	1475183172780	1475183172899	NA	76
228875	2452757	This time, Nigel Mansell will not be left behind on a restart.	This time, Nigel Mansell will not be left behind on a restart.	116498123	1475183173073	1475183173169	NA	69
228875	2452757	This time, Nigel Mansell will not be left behind on a restart.	This time, Nigel Mansell will not be left behind on a restart.	116498125	1475183173363	1475183173592	NA	70
228875	2452757	This time, Nigel Mansell will not be left behind on a restart.	This time, Nigel Mansell will not be left behind on a restart.	116498167	1475183173576	1475183173690	NA	84
228875	2452757	This time, Nigel Mansell will not be left behind on a restart.	This time, Nigel Mansell will not be left behind on a restart.	116498169	1475183174209	1475183174309	NA	32
228875	2452757	This time, Nigel Mansell will not be left behind on a restart.	This time, Nigel Mansell will not be left behind on a restart.	116498171	1475183174677	1475183174763	NA	66
228875	2452757	This time, Nigel Mansell will not be left behind on a restart.	This time, Nigel Mansell will not be left behind on a restart.	116498173	1475183174876	1475183174989	NA	69
228875	2452757	This time, Nigel Mansell will not be left behind on a restart.	This time, Nigel Mansell will not be left behind on a restart.	116498177	1475183175155	1475183175404	NA	72
228875	2452757	This time, Nigel Mansell will not be left behind on a restart.	This time, Nigel Mansell will not be left behind on a restart.	116498230	1475183175364	1475183175506	NA	73
228875	2452757	This time, Nigel Mansell will not be left behind on a restart.	This time, Nigel Mansell will not be left behind on a restart.	116498231	1475183175643	1475183175756	NA	78
228875	2452757	This time, Nigel Mansell will not be left behind on a restart.	This time, Nigel Mansell will not be left behind on a restart.	116498232	1475183175821	1475183175925	NA	68
228875	2452757	This time, Nigel Mansell will not be left behind on a restart.	This time, Nigel Mansell will not be left behind on a restart.	116498233	1475183176119	1475183176238	NA	32
228875	2452757	This time, Nigel Mansell will not be left behind on a restart.	This time, Nigel Mansell will not be left behind on a restart.	116498236	1475183176819	1475183176910	NA	79
228875	2452757	This time, Nigel Mansell will not be left behind on a restart.	This time, Nigel Mansell will not be left behind on a restart.	116498239	1475183177168	1475183177259	NA	82
228875	2452757	This time, Nigel Mansell will not be left behind on a restart.	This time, Nigel Mansell will not be left behind on a restart.	116498298	1475183178107	1475183178212		8
228875	2452757	This time, Nigel Mansell will not be left behind on a restart.	This time, Nigel Mansell will not be left behind on a restart.	116498299	1475183178499	1475183178576	NA	78
228875	2452757	This time, Nigel Mansell will not be left behind on a restart.	This time, Nigel Mansell will not be left behind on a restart.	116498300	1475183178693	1475183178797	NA	32
228875	2452757	This time, Nigel Mansell will not be left behind on a restart.	This time, Nigel Mansell will not be left behind on a restart.	116498301	1475183178896	1475183179013	NA	65
228875	2452757	This time, Nigel Mansell will not be left behind on a restart.	This time, Nigel Mansell will not be left behind on a restart.	116498302	1475183179138	1475183179249	NA	32
228875	2452757	This time, Nigel Mansell will not be left behind on a restart.	This time, Nigel Mansell will not be left behind on a restart.	116498332	1475183179728	1475183179877	NA	82
228875	2452757	This time, Nigel Mansell will not be left behind on a restart.	This time, Nigel Mansell will not be left behind on a restart.	116498335	1475183179835	1475183179962	NA	69
228875	2452757	This time, Nigel Mansell will not be left behind on a restart.	This time, Nigel Mansell will not be left behind on a restart.	116498338	1475183180105	1475183180262	NA	83
228875	2452757	This time, Nigel Mansell will not be left behind on a restart.	This time, Nigel Mansell will not be left behind on a restart.	116498341	1475183180415	1475183180512	NA	84
228875	2452757	This time, Nigel Mansell will not be left behind on a restart.	This time, Nigel Mansell will not be left behind on a restart.	116498343	1475183180559	1475183180683	NA	65
228875	2452757	This time, Nigel Mansell will not be left behind on a restart.	This time, Nigel Mansell will not be left behind on a restart.	116498349	1475183180772	1475183180897	NA	82
228875	2452757	This time, Nigel Mansell will not be left behind on a restart.	This time, Nigel Mansell will not be left behind on a restart.	116498350	1475183180932	1475183181063	NA	84
228875	2452757	This time, Nigel Mansell will not be left behind on a restart.	This time, Nigel Mansell will not be left behind on a restart.	116498351	1475183181530	1475183181616	NA	190
228875	2452774	I decided that I am going to stay here!	I decided that I mam going to stay here!	116498512	1475183185621	1475183185982	SHIFT	16
228875	2452774	I decided that I am going to stay here!	I decided that I mam going to stay here!	116498507	1475183185761	1475183185885	NA	73
228875	2452774	I decided that I am going to stay here!	I decided that I mam going to stay here!	116498518	1475183186111	1475183186213	NA	32
228875	2452774	I decided that I am going to stay here!	I decided that I mam going to stay here!	116498523	1475183186425	1475183186495	NA	68
228875	2452774	I decided that I am going to stay here!	I decided that I mam going to stay here!	116498528	1475183186594	1475183186669	NA	69
228875	2452774	I decided that I am going to stay here!	I decided that I mam going to stay here!	116498532	1475183187018	1475183187099	NA	67
228875	2452774	I decided that I am going to stay here!	I decided that I mam going to stay here!	116498560	1475183187334	1475183187425	NA	73
228875	2452774	I decided that I am going to stay here!	I decided that I mam going to stay here!	116498562	1475183187627	1475183187719	NA	68
228875	2452774	I decided that I am going to stay here!	I decided that I mam going to stay here!	116498565	1475183187821	1475183187895	NA	69
228875	2452774	I decided that I am going to stay here!	I decided that I mam going to stay here!	116498567	1475183187995	1475183188087	NA	68
228875	2452774	I decided that I am going to stay here!	I decided that I mam going to stay here!	116498569	1475183188260	1475183188374	NA	32
228875	2452774	I decided that I am going to stay here!	I decided that I mam going to stay here!	116498581	1475183188575	1475183188649	NA	84
228875	2452774	I decided that I am going to stay here!	I decided that I mam going to stay here!	116498583	1475183188758	1475183188858	NA	72
228875	2452774	I decided that I am going to stay here!	I decided that I mam going to stay here!	116498588	1475183188851	1475183188979	NA	65
228875	2452774	I decided that I am going to stay here!	I decided that I mam going to stay here!	116498592	1475183189034	1475183189114	NA	84
228875	2452774	I decided that I am going to stay here!	I decided that I mam going to stay here!	116498596	1475183189255	1475183189356	NA	32
228875	2452774	I decided that I am going to stay here!	I decided that I mam going to stay here!	116498641	1475183189511	1475183189593	NA	73
228875	2452774	I decided that I am going to stay here!	I decided that I mam going to stay here!	116498644	1475183190514	1475183190641		8
228875	2452774	I decided that I am going to stay here!	I decided that I mam going to stay here!	116498649	1475183190723	1475183191133	SHIFT	16
228875	2452774	I decided that I am going to stay here!	I decided that I mam going to stay here!	116498647	1475183190957	1475183191080	NA	73
228875	2452774	I decided that I am going to stay here!	I decided that I mam going to stay here!	116498651	1475183191316	1475183191445	NA	32
228875	2452774	I decided that I am going to stay here!	I decided that I mam going to stay here!	116498654	1475183191461	1475183191618	NA	77
228875	2452774	I decided that I am going to stay here!	I decided that I mam going to stay here!	116498708	1475183191705	1475183191835	NA	32
228875	2452774	I decided that I am going to stay here!	I decided that I mam going to stay here!	116498710	1475183193118	1475183193209		8
228875	2452774	I decided that I am going to stay here!	I decided that I mam going to stay here!	116498712	1475183193361	1475183193490	NA	65
228875	2452774	I decided that I am going to stay here!	I decided that I mam going to stay here!	116498715	1475183193538	1475183193628	NA	77
228875	2452774	I decided that I am going to stay here!	I decided that I mam going to stay here!	116498716	1475183193764	1475183193861	NA	32
228875	2452774	I decided that I am going to stay here!	I decided that I mam going to stay here!	116498756	1475183194196	1475183194292	NA	71
228875	2452774	I decided that I am going to stay here!	I decided that I mam going to stay here!	116498757	1475183194502	1475183194616	NA	79
228875	2452774	I decided that I am going to stay here!	I decided that I mam going to stay here!	116498758	1475183194661	1475183194777	NA	73
228875	2452774	I decided that I am going to stay here!	I decided that I mam going to stay here!	116498759	1475183195005	1475183195104	NA	78
228875	2452774	I decided that I am going to stay here!	I decided that I mam going to stay here!	116498761	1475183195295	1475183195376	NA	71
228875	2452774	I decided that I am going to stay here!	I decided that I mam going to stay here!	116498800	1475183195538	1475183195651	NA	32
228875	2452774	I decided that I am going to stay here!	I decided that I mam going to stay here!	116498802	1475183195830	1475183195912	NA	84
228875	2452774	I decided that I am going to stay here!	I decided that I mam going to stay here!	116498804	1475183196136	1475183196238	NA	73
228875	2452774	I decided that I am going to stay here!	I decided that I mam going to stay here!	116498806	1475183196747	1475183196834		8
228875	2452774	I decided that I am going to stay here!	I decided that I mam going to stay here!	116498808	1475183197024	1475183197131	NA	79
228875	2452774	I decided that I am going to stay here!	I decided that I mam going to stay here!	116498836	1475183197351	1475183197461	NA	32
228875	2452774	I decided that I am going to stay here!	I decided that I mam going to stay here!	116498837	1475183197577	1475183197690	NA	83
228875	2452774	I decided that I am going to stay here!	I decided that I mam going to stay here!	116498838	1475183197726	1475183197813	NA	84
228875	2452774	I decided that I am going to stay here!	I decided that I mam going to stay here!	116498839	1475183197884	1475183197991	NA	65
228875	2452774	I decided that I am going to stay here!	I decided that I mam going to stay here!	116498841	1475183198074	1475183198177	NA	89
228875	2452774	I decided that I am going to stay here!	I decided that I mam going to stay here!	116498879	1475183198399	1475183198506	NA	32
228875	2452774	I decided that I am going to stay here!	I decided that I mam going to stay here!	116498881	1475183198596	1475183198719	NA	72
228875	2452774	I decided that I am going to stay here!	I decided that I mam going to stay here!	116498882	1475183198764	1475183198887	NA	69
228875	2452774	I decided that I am going to stay here!	I decided that I mam going to stay here!	116498883	1475183198940	1475183199028	NA	82
228875	2452774	I decided that I am going to stay here!	I decided that I mam going to stay here!	116498885	1475183199076	1475183199170	NA	69
228875	2452774	I decided that I am going to stay here!	I decided that I mam going to stay here!	116498901	1475183199390	1475183199904	SHIFT	16
228875	2452774	I decided that I am going to stay here!	I decided that I mam going to stay here!	116498900	1475183199728	1475183199828	NA	49
228875	2452784	More than million landmines lie unexploded in at least 62 countries.	More than million landmines lie unexploded in at least 62 countries.	116499077	1475183205302	1475183205819	SHIFT	16
228875	2452784	More than million landmines lie unexploded in at least 62 countries.	More than million landmines lie unexploded in at least 62 countries.	116499075	1475183205602	1475183205699	NA	77
228875	2452784	More than million landmines lie unexploded in at least 62 countries.	More than million landmines lie unexploded in at least 62 countries.	116499079	1475183205860	1475183205934	NA	79
228875	2452784	More than million landmines lie unexploded in at least 62 countries.	More than million landmines lie unexploded in at least 62 countries.	116499080	1475183206176	1475183206256	NA	82
228875	2452784	More than million landmines lie unexploded in at least 62 countries.	More than million landmines lie unexploded in at least 62 countries.	116499081	1475183206306	1475183206440	NA	69
228875	2452784	More than million landmines lie unexploded in at least 62 countries.	More than million landmines lie unexploded in at least 62 countries.	116499082	1475183206475	1475183206578	NA	32
228875	2452784	More than million landmines lie unexploded in at least 62 countries.	More than million landmines lie unexploded in at least 62 countries.	116499115	1475183206731	1475183206805	NA	84
228875	2452784	More than million landmines lie unexploded in at least 62 countries.	More than million landmines lie unexploded in at least 62 countries.	116499116	1475183206913	1475183207002	NA	72
228875	2452784	More than million landmines lie unexploded in at least 62 countries.	More than million landmines lie unexploded in at least 62 countries.	116499117	1475183207018	1475183207143	NA	65
228875	2452784	More than million landmines lie unexploded in at least 62 countries.	More than million landmines lie unexploded in at least 62 countries.	116499118	1475183207231	1475183207333	NA	78
228875	2452784	More than million landmines lie unexploded in at least 62 countries.	More than million landmines lie unexploded in at least 62 countries.	116499119	1475183207514	1475183207627	NA	32
228875	2452784	More than million landmines lie unexploded in at least 62 countries.	More than million landmines lie unexploded in at least 62 countries.	116499133	1475183207750	1475183207847	NA	77
228875	2452784	More than million landmines lie unexploded in at least 62 countries.	More than million landmines lie unexploded in at least 62 countries.	116499134	1475183208020	1475183208078	NA	73
228875	2452784	More than million landmines lie unexploded in at least 62 countries.	More than million landmines lie unexploded in at least 62 countries.	116499135	1475183208230	1475183208293	NA	76
228875	2452784	More than million landmines lie unexploded in at least 62 countries.	More than million landmines lie unexploded in at least 62 countries.	116499137	1475183208372	1475183208451	NA	76
228875	2452784	More than million landmines lie unexploded in at least 62 countries.	More than million landmines lie unexploded in at least 62 countries.	116499139	1475183208674	1475183208748	NA	73
228875	2452784	More than million landmines lie unexploded in at least 62 countries.	More than million landmines lie unexploded in at least 62 countries.	116499184	1475183208832	1475183208929	NA	79
228875	2452784	More than million landmines lie unexploded in at least 62 countries.	More than million landmines lie unexploded in at least 62 countries.	116499185	1475183209201	1475183209287	NA	78
228875	2452784	More than million landmines lie unexploded in at least 62 countries.	More than million landmines lie unexploded in at least 62 countries.	116499186	1475183209551	1475183209690	NA	32
228875	2452784	More than million landmines lie unexploded in at least 62 countries.	More than million landmines lie unexploded in at least 62 countries.	116499188	1475183210327	1475183210431	NA	76
228875	2452784	More than million landmines lie unexploded in at least 62 countries.	More than million landmines lie unexploded in at least 62 countries.	116499191	1475183210485	1475183210610	NA	65
228875	2452784	More than million landmines lie unexploded in at least 62 countries.	More than million landmines lie unexploded in at least 62 countries.	116499264	1475183211507	1475183211597	NA	78
228875	2452784	More than million landmines lie unexploded in at least 62 countries.	More than million landmines lie unexploded in at least 62 countries.	116499266	1475183212249	1475183212329	NA	68
228875	2452784	More than million landmines lie unexploded in at least 62 countries.	More than million landmines lie unexploded in at least 62 countries.	116499269	1475183212578	1475183212675	NA	77
228875	2452784	More than million landmines lie unexploded in at least 62 countries.	More than million landmines lie unexploded in at least 62 countries.	116499271	1475183212812	1475183212882	NA	73
228875	2452784	More than million landmines lie unexploded in at least 62 countries.	More than million landmines lie unexploded in at least 62 countries.	116499274	1475183213032	1475183213112	NA	78
228875	2452784	More than million landmines lie unexploded in at least 62 countries.	More than million landmines lie unexploded in at least 62 countries.	116499316	1475183213268	1475183213359	NA	69
228875	2452784	More than million landmines lie unexploded in at least 62 countries.	More than million landmines lie unexploded in at least 62 countries.	116499319	1475183213518	1475183213614	NA	83
228875	2452784	More than million landmines lie unexploded in at least 62 countries.	More than million landmines lie unexploded in at least 62 countries.	116499323	1475183214299	1475183214412	NA	32
228875	2452784	More than million landmines lie unexploded in at least 62 countries.	More than million landmines lie unexploded in at least 62 countries.	116499327	1475183214765	1475183214858	NA	76
228875	2452784	More than million landmines lie unexploded in at least 62 countries.	More than million landmines lie unexploded in at least 62 countries.	116499330	1475183215218	1475183215304	NA	73
228875	2452784	More than million landmines lie unexploded in at least 62 countries.	More than million landmines lie unexploded in at least 62 countries.	116499363	1475183215725	1475183215832	NA	69
228875	2452784	More than million landmines lie unexploded in at least 62 countries.	More than million landmines lie unexploded in at least 62 countries.	116499364	1475183215975	1475183216078	NA	32
228875	2452784	More than million landmines lie unexploded in at least 62 countries.	More than million landmines lie unexploded in at least 62 countries.	116499366	1475183216573	1475183216657	NA	85
228875	2452784	More than million landmines lie unexploded in at least 62 countries.	More than million landmines lie unexploded in at least 62 countries.	116499368	1475183216785	1475183216905	NA	78
228875	2452784	More than million landmines lie unexploded in at least 62 countries.	More than million landmines lie unexploded in at least 62 countries.	116499370	1475183217187	1475183217300	NA	69
228875	2452784	More than million landmines lie unexploded in at least 62 countries.	More than million landmines lie unexploded in at least 62 countries.	116499406	1475183217858	1475183217960	NA	88
228875	2452784	More than million landmines lie unexploded in at least 62 countries.	More than million landmines lie unexploded in at least 62 countries.	116499409	1475183218372	1475183218453	NA	80
228875	2452784	More than million landmines lie unexploded in at least 62 countries.	More than million landmines lie unexploded in at least 62 countries.	116499411	1475183218548	1475183218667	NA	76
228875	2452784	More than million landmines lie unexploded in at least 62 countries.	More than million landmines lie unexploded in at least 62 countries.	116499413	1475183218777	1475183218861	NA	79
228875	2452784	More than million landmines lie unexploded in at least 62 countries.	More than million landmines lie unexploded in at least 62 countries.	116499415	1475183219125	1475183219222	NA	68
228875	2452784	More than million landmines lie unexploded in at least 62 countries.	More than million landmines lie unexploded in at least 62 countries.	116499452	1475183219315	1475183219403	NA	69
228875	2452784	More than million landmines lie unexploded in at least 62 countries.	More than million landmines lie unexploded in at least 62 countries.	116499453	1475183219517	1475183219615	NA	68
228875	2452784	More than million landmines lie unexploded in at least 62 countries.	More than million landmines lie unexploded in at least 62 countries.	116499454	1475183219926	1475183220039	NA	32
228875	2452784	More than million landmines lie unexploded in at least 62 countries.	More than million landmines lie unexploded in at least 62 countries.	116499455	1475183220894	1475183220968	NA	73
228875	2452784	More than million landmines lie unexploded in at least 62 countries.	More than million landmines lie unexploded in at least 62 countries.	116499456	1475183221133	1475183221232	NA	78
228875	2452784	More than million landmines lie unexploded in at least 62 countries.	More than million landmines lie unexploded in at least 62 countries.	116499486	1475183221441	1475183221548	NA	32
228875	2452784	More than million landmines lie unexploded in at least 62 countries.	More than million landmines lie unexploded in at least 62 countries.	116499488	1475183221698	1475183221866	NA	65
228875	2452784	More than million landmines lie unexploded in at least 62 countries.	More than million landmines lie unexploded in at least 62 countries.	116499490	1475183221928	1475183222018	NA	84
228875	2452784	More than million landmines lie unexploded in at least 62 countries.	More than million landmines lie unexploded in at least 62 countries.	116499492	1475183222234	1475183222331	NA	32
228875	2452784	More than million landmines lie unexploded in at least 62 countries.	More than million landmines lie unexploded in at least 62 countries.	116499493	1475183222514	1475183222606	NA	76
228875	2452784	More than million landmines lie unexploded in at least 62 countries.	More than million landmines lie unexploded in at least 62 countries.	116499522	1475183222710	1475183222810	NA	69
228875	2452784	More than million landmines lie unexploded in at least 62 countries.	More than million landmines lie unexploded in at least 62 countries.	116499524	1475183222995	1475183223113	NA	65
228875	2452784	More than million landmines lie unexploded in at least 62 countries.	More than million landmines lie unexploded in at least 62 countries.	116499525	1475183223252	1475183223382	NA	83
228875	2452784	More than million landmines lie unexploded in at least 62 countries.	More than million landmines lie unexploded in at least 62 countries.	116499526	1475183223377	1475183223484	NA	84
228875	2452784	More than million landmines lie unexploded in at least 62 countries.	More than million landmines lie unexploded in at least 62 countries.	116499528	1475183223817	1475183223947	NA	32
228875	2452784	More than million landmines lie unexploded in at least 62 countries.	More than million landmines lie unexploded in at least 62 countries.	116499592	1475183224457	1475183224601	NA	54
228875	2452784	More than million landmines lie unexploded in at least 62 countries.	More than million landmines lie unexploded in at least 62 countries.	116499593	1475183224955	1475183225046	NA	50
228875	2452784	More than million landmines lie unexploded in at least 62 countries.	More than million landmines lie unexploded in at least 62 countries.	116499595	1475183225465	1475183225606	NA	32
228875	2452784	More than million landmines lie unexploded in at least 62 countries.	More than million landmines lie unexploded in at least 62 countries.	116499597	1475183225921	1475183225998	NA	67
228875	2452784	More than million landmines lie unexploded in at least 62 countries.	More than million landmines lie unexploded in at least 62 countries.	116499598	1475183226315	1475183226485	NA	79
228875	2452784	More than million landmines lie unexploded in at least 62 countries.	More than million landmines lie unexploded in at least 62 countries.	116499619	1475183226528	1475183226620	NA	85
228875	2452784	More than million landmines lie unexploded in at least 62 countries.	More than million landmines lie unexploded in at least 62 countries.	116499620	1475183226793	1475183226895	NA	78
228875	2452784	More than million landmines lie unexploded in at least 62 countries.	More than million landmines lie unexploded in at least 62 countries.	116499621	1475183227218	1475183227305	NA	84
228875	2452784	More than million landmines lie unexploded in at least 62 countries.	More than million landmines lie unexploded in at least 62 countries.	116499622	1475183227448	1475183227531	NA	82
228875	2452784	More than million landmines lie unexploded in at least 62 countries.	More than million landmines lie unexploded in at least 62 countries.	116499623	1475183227791	1475183227875	NA	73
228875	2452784	More than million landmines lie unexploded in at least 62 countries.	More than million landmines lie unexploded in at least 62 countries.	116499655	1475183228114	1475183228194	NA	69
228875	2452784	More than million landmines lie unexploded in at least 62 countries.	More than million landmines lie unexploded in at least 62 countries.	116499659	1475183228265	1475183228367	NA	83
228875	2452784	More than million landmines lie unexploded in at least 62 countries.	More than million landmines lie unexploded in at least 62 countries.	116499662	1475183229160	1475183229236	NA	190
228875	2452798	Who should I contact regarding severance?	Whi should i contact regarding severance?	116499961	1475183239529	1475183239913	SHIFT	16
228875	2452798	Who should I contact regarding severance?	Whi should i contact regarding severance?	116499959	1475183239713	1475183239820	NA	87
228875	2452798	Who should I contact regarding severance?	Whi should i contact regarding severance?	116499963	1475183240139	1475183240339	NA	72
228875	2452798	Who should I contact regarding severance?	Whi should i contact regarding severance?	116499965	1475183240288	1475183240434	NA	73
228875	2452798	Who should I contact regarding severance?	Whi should i contact regarding severance?	116499967	1475183240632	1475183240733	NA	32
228875	2452798	Who should I contact regarding severance?	Whi should i contact regarding severance?	116499968	1475183240826	1475183240934	NA	83
228875	2452798	Who should I contact regarding severance?	Whi should i contact regarding severance?	116499974	1475183241199	1475183241283	NA	72
228875	2452798	Who should I contact regarding severance?	Whi should i contact regarding severance?	116499975	1475183241443	1475183241632	NA	79
228875	2452798	Who should I contact regarding severance?	Whi should i contact regarding severance?	116499976	1475183241624	1475183241739	NA	85
228875	2452798	Who should I contact regarding severance?	Whi should i contact regarding severance?	116499977	1475183241879	1475183242004	NA	76
228875	2452798	Who should I contact regarding severance?	Whi should i contact regarding severance?	116499978	1475183242281	1475183242349	NA	68
228875	2452798	Who should I contact regarding severance?	Whi should i contact regarding severance?	116500025	1475183242504	1475183242589	NA	32
228875	2452798	Who should I contact regarding severance?	Whi should i contact regarding severance?	116500027	1475183242897	1475183242984	NA	73
228875	2452798	Who should I contact regarding severance?	Whi should i contact regarding severance?	116500030	1475183243157	1475183243264	NA	32
228875	2452798	Who should I contact regarding severance?	Whi should i contact regarding severance?	116500032	1475183243539	1475183243616	NA	86
228875	2452798	Who should I contact regarding severance?	Whi should i contact regarding severance?	116500034	1475183244097	1475183244189		8
228875	2452798	Who should I contact regarding severance?	Whi should i contact regarding severance?	116500065	1475183244554	1475183244670	NA	67
228875	2452798	Who should I contact regarding severance?	Whi should i contact regarding severance?	116500067	1475183244710	1475183244813	NA	79
228875	2452798	Who should I contact regarding severance?	Whi should i contact regarding severance?	116500069	1475183244952	1475183245043	NA	78
228875	2452798	Who should I contact regarding severance?	Whi should i contact regarding severance?	116500073	1475183245274	1475183245345	NA	84
228875	2452798	Who should I contact regarding severance?	Whi should i contact regarding severance?	116500076	1475183245436	1475183245586	NA	65
228875	2452798	Who should I contact regarding severance?	Whi should i contact regarding severance?	116500100	1475183245810	1475183245923	NA	67
228875	2452798	Who should I contact regarding severance?	Whi should i contact regarding severance?	116500103	1475183245977	1475183246074	NA	84
228875	2452798	Who should I contact regarding severance?	Whi should i contact regarding severance?	116500106	1475183246224	1475183246347	NA	32
228875	2452798	Who should I contact regarding severance?	Whi should i contact regarding severance?	116500109	1475183246502	1475183246657	NA	82
228875	2452798	Who should I contact regarding severance?	Whi should i contact regarding severance?	116500135	1475183246604	1475183246713	NA	69
228875	2452798	Who should I contact regarding severance?	Whi should i contact regarding severance?	116500137	1475183247096	1475183247187	NA	71
228875	2452798	Who should I contact regarding severance?	Whi should i contact regarding severance?	116500139	1475183247228	1475183247351	NA	65
228875	2452798	Who should I contact regarding severance?	Whi should i contact regarding severance?	116500141	1475183247442	1475183247518	NA	82
228875	2452798	Who should I contact regarding severance?	Whi should i contact regarding severance?	116500142	1475183247982	1475183248094	NA	68
228875	2452798	Who should I contact regarding severance?	Whi should i contact regarding severance?	116500143	1475183248165	1475183248266	NA	73
228875	2452798	Who should I contact regarding severance?	Whi should i contact regarding severance?	116500176	1475183248377	1475183248500	NA	78
228875	2452798	Who should I contact regarding severance?	Whi should i contact regarding severance?	116500177	1475183248669	1475183248758	NA	71
228875	2452798	Who should I contact regarding severance?	Whi should i contact regarding severance?	116500178	1475183249094	1475183249195	NA	32
228875	2452798	Who should I contact regarding severance?	Whi should i contact regarding severance?	116500179	1475183249531	1475183249676	NA	83
228875	2452798	Who should I contact regarding severance?	Whi should i contact regarding severance?	116500251	1475183249660	1475183249767	NA	69
228875	2452798	Who should I contact regarding severance?	Whi should i contact regarding severance?	116500252	1475183250277	1475183250364	NA	86
228875	2452798	Who should I contact regarding severance?	Whi should i contact regarding severance?	116500253	1475183250427	1475183250556	NA	69
228875	2452798	Who should I contact regarding severance?	Whi should i contact regarding severance?	116500254	1475183250635	1475183250714	NA	82
228875	2452798	Who should I contact regarding severance?	Whi should i contact regarding severance?	116500255	1475183251994	1475183252156	NA	65
228875	2452798	Who should I contact regarding severance?	Whi should i contact regarding severance?	116500310	1475183252140	1475183252233	NA	78
228875	2452798	Who should I contact regarding severance?	Whi should i contact regarding severance?	116500312	1475183252498	1475183252584	NA	67
228875	2452798	Who should I contact regarding severance?	Whi should i contact regarding severance?	116500315	1475183252681	1475183252799	NA	69
228875	2452798	Who should I contact regarding severance?	Whi should i contact regarding severance?	116500319	1475183253432	1475183253553	NA	190
228875	2452798	Who should I contact regarding severance?	Whi should i contact regarding severance?	116500321	1475183254030	1475183254121		8
228875	2452798	Who should I contact regarding severance?	Whi should i contact regarding severance?	116500324	1475183254515	1475183254594	NA	191
228875	2452812	I don't want to let my nanny go home if you think you need me.	I din't want to let my nanny go home if you think you need me.	116500579	1475183263438	1475183263535	NA	73
228875	2452812	I don't want to let my nanny go home if you think you need me.	I din't want to let my nanny go home if you think you need me.	116500581	1475183263906	1475183264013	NA	32
228875	2452812	I don't want to let my nanny go home if you think you need me.	I din't want to let my nanny go home if you think you need me.	116500582	1475183264125	1475183264257	NA	68
228875	2452812	I don't want to let my nanny go home if you think you need me.	I din't want to let my nanny go home if you think you need me.	116500583	1475183264304	1475183264395	NA	73
228875	2452812	I don't want to let my nanny go home if you think you need me.	I din't want to let my nanny go home if you think you need me.	116500584	1475183264586	1475183264655	NA	78
228875	2452812	I don't want to let my nanny go home if you think you need me.	I din't want to let my nanny go home if you think you need me.	116500619	1475183265094	1475183265177	NA	222
228875	2452812	I don't want to let my nanny go home if you think you need me.	I din't want to let my nanny go home if you think you need me.	116500621	1475183265542	1475183265618	NA	84
228875	2452812	I don't want to let my nanny go home if you think you need me.	I din't want to let my nanny go home if you think you need me.	116500623	1475183265819	1475183265921	NA	32
228875	2452812	I don't want to let my nanny go home if you think you need me.	I din't want to let my nanny go home if you think you need me.	116500625	1475183266219	1475183266326	NA	87
228875	2452812	I don't want to let my nanny go home if you think you need me.	I din't want to let my nanny go home if you think you need me.	116500629	1475183266468	1475183266602	NA	65
228875	2452812	I don't want to let my nanny go home if you think you need me.	I din't want to let my nanny go home if you think you need me.	116500643	1475183266860	1475183266945	NA	78
228875	2452812	I don't want to let my nanny go home if you think you need me.	I din't want to let my nanny go home if you think you need me.	116500645	1475183267147	1475183267206	NA	84
228875	2452812	I don't want to let my nanny go home if you think you need me.	I din't want to let my nanny go home if you think you need me.	116500647	1475183267411	1475183267502	NA	32
228875	2452812	I don't want to let my nanny go home if you think you need me.	I din't want to let my nanny go home if you think you need me.	116500649	1475183267700	1475183267841	NA	84
228875	2452812	I don't want to let my nanny go home if you think you need me.	I din't want to let my nanny go home if you think you need me.	116500651	1475183267950	1475183268040	NA	79
228875	2452812	I don't want to let my nanny go home if you think you need me.	I din't want to let my nanny go home if you think you need me.	116500685	1475183268334	1475183268434	NA	32
228875	2452812	I don't want to let my nanny go home if you think you need me.	I din't want to let my nanny go home if you think you need me.	116500687	1475183268834	1475183268935	NA	76
228875	2452812	I don't want to let my nanny go home if you think you need me.	I din't want to let my nanny go home if you think you need me.	116500689	1475183269246	1475183269354	NA	69
228875	2452812	I don't want to let my nanny go home if you think you need me.	I din't want to let my nanny go home if you think you need me.	116500691	1475183269393	1475183269484	NA	84
228875	2452812	I don't want to let my nanny go home if you think you need me.	I din't want to let my nanny go home if you think you need me.	116500692	1475183269723	1475183269830	NA	32
228875	2452812	I don't want to let my nanny go home if you think you need me.	I din't want to let my nanny go home if you think you need me.	116500712	1475183270304	1475183270416	NA	77
228875	2452812	I don't want to let my nanny go home if you think you need me.	I din't want to let my nanny go home if you think you need me.	116500716	1475183270592	1475183270662	NA	89
228875	2452812	I don't want to let my nanny go home if you think you need me.	I din't want to let my nanny go home if you think you need me.	116500719	1475183270870	1475183270962	NA	32
228875	2452812	I don't want to let my nanny go home if you think you need me.	I din't want to let my nanny go home if you think you need me.	116500722	1475183271057	1475183271159	NA	78
228875	2452812	I don't want to let my nanny go home if you think you need me.	I din't want to let my nanny go home if you think you need me.	116500724	1475183271177	1475183271316	NA	65
228875	2452812	I don't want to let my nanny go home if you think you need me.	I din't want to let my nanny go home if you think you need me.	116500747	1475183271351	1475183271421	NA	78
228875	2452812	I don't want to let my nanny go home if you think you need me.	I din't want to let my nanny go home if you think you need me.	116500750	1475183271492	1475183271578	NA	78
228875	2452812	I don't want to let my nanny go home if you think you need me.	I din't want to let my nanny go home if you think you need me.	116500752	1475183271733	1475183271802	NA	89
228875	2452812	I don't want to let my nanny go home if you think you need me.	I din't want to let my nanny go home if you think you need me.	116500755	1475183271994	1475183272101	NA	32
228875	2452812	I don't want to let my nanny go home if you think you need me.	I din't want to let my nanny go home if you think you need me.	116500758	1475183272259	1475183272341	NA	71
228875	2452812	I don't want to let my nanny go home if you think you need me.	I din't want to let my nanny go home if you think you need me.	116500785	1475183272464	1475183272562	NA	79
228875	2452812	I don't want to let my nanny go home if you think you need me.	I din't want to let my nanny go home if you think you need me.	116500787	1475183272720	1475183272837	NA	32
228875	2452812	I don't want to let my nanny go home if you think you need me.	I din't want to let my nanny go home if you think you need me.	116500791	1475183272968	1475183273054	NA	72
228875	2452812	I don't want to let my nanny go home if you think you need me.	I din't want to let my nanny go home if you think you need me.	116500794	1475183273143	1475183273233	NA	79
228875	2452812	I don't want to let my nanny go home if you think you need me.	I din't want to let my nanny go home if you think you need me.	116500796	1475183273429	1475183273525	NA	77
228875	2452812	I don't want to let my nanny go home if you think you need me.	I din't want to let my nanny go home if you think you need me.	116500860	1475183273639	1475183273759	NA	69
228875	2452812	I don't want to let my nanny go home if you think you need me.	I din't want to let my nanny go home if you think you need me.	116500862	1475183274565	1475183274662	NA	32
228875	2452812	I don't want to let my nanny go home if you think you need me.	I din't want to let my nanny go home if you think you need me.	116500864	1475183274961	1475183275042	NA	73
228875	2452812	I don't want to let my nanny go home if you think you need me.	I din't want to let my nanny go home if you think you need me.	116500866	1475183275339	1475183275430	NA	70
228875	2452812	I don't want to let my nanny go home if you think you need me.	I din't want to let my nanny go home if you think you need me.	116500867	1475183275668	1475183275755	NA	32
228875	2452812	I don't want to let my nanny go home if you think you need me.	I din't want to let my nanny go home if you think you need me.	116500915	1475183276050	1475183276140	NA	89
228875	2452812	I don't want to let my nanny go home if you think you need me.	I din't want to let my nanny go home if you think you need me.	116500916	1475183276342	1475183276488	NA	79
228875	2452812	I don't want to let my nanny go home if you think you need me.	I din't want to let my nanny go home if you think you need me.	116500918	1475183276499	1475183276627	NA	85
228875	2452812	I don't want to let my nanny go home if you think you need me.	I din't want to let my nanny go home if you think you need me.	116500920	1475183276932	1475183277038	NA	32
228875	2452812	I don't want to let my nanny go home if you think you need me.	I din't want to let my nanny go home if you think you need me.	116500922	1475183277440	1475183277456	NA	84
228875	2452812	I don't want to let my nanny go home if you think you need me.	I din't want to let my nanny go home if you think you need me.	116500939	1475183277736	1475183277738	NA	72
228875	2452812	I don't want to let my nanny go home if you think you need me.	I din't want to let my nanny go home if you think you need me.	116500940	1475183277830	1475183277915	NA	73
228875	2452812	I don't want to let my nanny go home if you think you need me.	I din't want to let my nanny go home if you think you need me.	116500941	1475183278041	1475183278196	NA	78
228875	2452812	I don't want to let my nanny go home if you think you need me.	I din't want to let my nanny go home if you think you need me.	116500943	1475183278400	1475183278498	NA	75
228875	2452812	I don't want to let my nanny go home if you think you need me.	I din't want to let my nanny go home if you think you need me.	116500944	1475183278650	1475183278779	NA	32
228875	2452812	I don't want to let my nanny go home if you think you need me.	I din't want to let my nanny go home if you think you need me.	116500960	1475183278975	1475183279048	NA	89
228875	2452812	I don't want to let my nanny go home if you think you need me.	I din't want to let my nanny go home if you think you need me.	116500961	1475183279192	1475183279399	NA	79
228875	2452812	I don't want to let my nanny go home if you think you need me.	I din't want to let my nanny go home if you think you need me.	116500962	1475183279362	1475183279477	NA	85
228875	2452812	I don't want to let my nanny go home if you think you need me.	I din't want to let my nanny go home if you think you need me.	116500964	1475183279651	1475183279780	NA	32
228875	2452812	I don't want to let my nanny go home if you think you need me.	I din't want to let my nanny go home if you think you need me.	116500966	1475183279904	1475183280034	NA	78
228875	2452812	I don't want to let my nanny go home if you think you need me.	I din't want to let my nanny go home if you think you need me.	116500983	1475183280122	1475183280192	NA	69
228875	2452812	I don't want to let my nanny go home if you think you need me.	I din't want to let my nanny go home if you think you need me.	116500984	1475183280281	1475183280388	NA	69
228875	2452812	I don't want to let my nanny go home if you think you need me.	I din't want to let my nanny go home if you think you need me.	116500985	1475183280447	1475183280530	NA	68
228875	2452812	I don't want to let my nanny go home if you think you need me.	I din't want to let my nanny go home if you think you need me.	116500986	1475183280721	1475183280818	NA	32
228875	2452812	I don't want to let my nanny go home if you think you need me.	I din't want to let my nanny go home if you think you need me.	116500988	1475183280949	1475183281050	NA	77
228875	2452812	I don't want to let my nanny go home if you think you need me.	I din't want to let my nanny go home if you think you need me.	116501005	1475183281109	1475183281238	NA	69
228875	2452812	I don't want to let my nanny go home if you think you need me.	I din't want to let my nanny go home if you think you need me.	116501007	1475183281558	1475183281646	NA	190
228875	2452826	Most recent surveys put them in a dead heat.	Most recent surveys put them in a dead heat.	116501191	1475183288627	1475183289328	SHIFT	16
228875	2452826	Most recent surveys put them in a dead heat.	Most recent surveys put them in a dead heat.	116501187	1475183289134	1475183289307	NA	77
228875	2452826	Most recent surveys put them in a dead heat.	Most recent surveys put them in a dead heat.	116501194	1475183289412	1475183289558	NA	79
228875	2452826	Most recent surveys put them in a dead heat.	Most recent surveys put them in a dead heat.	116501197	1475183289603	1475183289768	NA	83
228875	2452826	Most recent surveys put them in a dead heat.	Most recent surveys put them in a dead heat.	116501200	1475183289795	1475183289880	NA	84
228875	2452826	Most recent surveys put them in a dead heat.	Most recent surveys put them in a dead heat.	116501202	1475183290067	1475183290157	NA	32
228875	2452826	Most recent surveys put them in a dead heat.	Most recent surveys put them in a dead heat.	116501261	1475183290326	1475183290513	NA	82
228875	2452826	Most recent surveys put them in a dead heat.	Most recent surveys put them in a dead heat.	116501265	1475183290434	1475183290541	NA	69
228875	2452826	Most recent surveys put them in a dead heat.	Most recent surveys put them in a dead heat.	116501269	1475183290705	1475183290793	NA	67
228875	2452826	Most recent surveys put them in a dead heat.	Most recent surveys put them in a dead heat.	116501272	1475183290946	1475183291025	NA	69
228875	2452826	Most recent surveys put them in a dead heat.	Most recent surveys put them in a dead heat.	116501273	1475183291474	1475183291477	NA	78
228875	2452826	Most recent surveys put them in a dead heat.	Most recent surveys put them in a dead heat.	116501310	1475183291562	1475183291627	NA	84
228875	2452826	Most recent surveys put them in a dead heat.	Most recent surveys put them in a dead heat.	116501311	1475183291817	1475183291904	NA	32
228875	2452826	Most recent surveys put them in a dead heat.	Most recent surveys put them in a dead heat.	116501312	1475183292248	1475183292373	NA	83
228875	2452826	Most recent surveys put them in a dead heat.	Most recent surveys put them in a dead heat.	116501313	1475183292830	1475183292931	NA	85
228875	2452826	Most recent surveys put them in a dead heat.	Most recent surveys put them in a dead heat.	116501314	1475183293152	1475183293235	NA	82
228875	2452826	Most recent surveys put them in a dead heat.	Most recent surveys put them in a dead heat.	116501366	1475183293746	1475183293836	NA	86
228875	2452826	Most recent surveys put them in a dead heat.	Most recent surveys put them in a dead heat.	116501368	1475183293911	1475183294024	NA	69
228875	2452826	Most recent surveys put them in a dead heat.	Most recent surveys put them in a dead heat.	116501370	1475183294102	1475183294209	NA	89
228875	2452826	Most recent surveys put them in a dead heat.	Most recent surveys put them in a dead heat.	116501374	1475183294356	1475183294474	NA	83
228875	2452826	Most recent surveys put them in a dead heat.	Most recent surveys put them in a dead heat.	116501377	1475183294617	1475183294740	NA	32
228875	2452826	Most recent surveys put them in a dead heat.	Most recent surveys put them in a dead heat.	116501455	1475183295489	1475183295624	NA	80
228875	2452826	Most recent surveys put them in a dead heat.	Most recent surveys put them in a dead heat.	116501456	1475183295792	1475183295871	NA	85
228875	2452826	Most recent surveys put them in a dead heat.	Most recent surveys put them in a dead heat.	116501457	1475183296123	1475183296212	NA	84
228875	2452826	Most recent surveys put them in a dead heat.	Most recent surveys put them in a dead heat.	116501460	1475183296610	1475183296739	NA	32
228875	2452826	Most recent surveys put them in a dead heat.	Most recent surveys put them in a dead heat.	116501463	1475183297022	1475183297103	NA	84
228875	2452826	Most recent surveys put them in a dead heat.	Most recent surveys put them in a dead heat.	116501505	1475183297210	1475183297309	NA	72
228875	2452826	Most recent surveys put them in a dead heat.	Most recent surveys put them in a dead heat.	116501506	1475183297374	1475183297496	NA	69
228875	2452826	Most recent surveys put them in a dead heat.	Most recent surveys put them in a dead heat.	116501507	1475183297676	1475183297763	NA	77
228875	2452826	Most recent surveys put them in a dead heat.	Most recent surveys put them in a dead heat.	116501509	1475183297876	1475183297973	NA	32
228875	2452826	Most recent surveys put them in a dead heat.	Most recent surveys put them in a dead heat.	116501511	1475183298254	1475183298336	NA	73
228875	2452826	Most recent surveys put them in a dead heat.	Most recent surveys put them in a dead heat.	116501553	1475183298420	1475183298532	NA	78
228875	2452826	Most recent surveys put them in a dead heat.	Most recent surveys put them in a dead heat.	116501560	1475183298659	1475183298766	NA	32
228875	2452826	Most recent surveys put them in a dead heat.	Most recent surveys put them in a dead heat.	116501566	1475183299017	1475183299124	NA	65
228875	2452826	Most recent surveys put them in a dead heat.	Most recent surveys put them in a dead heat.	116501570	1475183299153	1475183299259	NA	32
228875	2452826	Most recent surveys put them in a dead heat.	Most recent surveys put them in a dead heat.	116501573	1475183299431	1475183299513	NA	68
228875	2452826	Most recent surveys put them in a dead heat.	Most recent surveys put them in a dead heat.	116501631	1475183299615	1475183299703	NA	69
228875	2452826	Most recent surveys put them in a dead heat.	Most recent surveys put them in a dead heat.	116501633	1475183299992	1475183300087	NA	65
228875	2452826	Most recent surveys put them in a dead heat.	Most recent surveys put them in a dead heat.	116501635	1475183300153	1475183300232	NA	68
228875	2452826	Most recent surveys put them in a dead heat.	Most recent surveys put them in a dead heat.	116501639	1475183300508	1475183300588	NA	32
228875	2452826	Most recent surveys put them in a dead heat.	Most recent surveys put them in a dead heat.	116501641	1475183300972	1475183301060	NA	72
228875	2452826	Most recent surveys put them in a dead heat.	Most recent surveys put them in a dead heat.	116501686	1475183301207	1475183301292	NA	69
228875	2452826	Most recent surveys put them in a dead heat.	Most recent surveys put them in a dead heat.	116501690	1475183301459	1475183301587	NA	65
228875	2452826	Most recent surveys put them in a dead heat.	Most recent surveys put them in a dead heat.	116501694	1475183301627	1475183301714	NA	84
228875	2452826	Most recent surveys put them in a dead heat.	Most recent surveys put them in a dead heat.	116501699	1475183301999	1475183302091	NA	190
228875	2452839	The move is also against our law.	The move is also against oue law.	116501856	1475183306812	1475183307301	SHIFT	16
228875	2452839	The move is also against our law.	The move is also against oue law.	116501855	1475183307165	1475183307249	NA	84
228875	2452839	The move is also against our law.	The move is also against oue law.	116501857	1475183307400	1475183307493	NA	72
228875	2452839	The move is also against our law.	The move is also against oue law.	116501858	1475183307569	1475183307710	NA	69
228875	2452839	The move is also against our law.	The move is also against oue law.	116501859	1475183307750	1475183307847	NA	32
228875	2452839	The move is also against our law.	The move is also against oue law.	116501860	1475183307958	1475183308048	NA	77
228875	2452839	The move is also against our law.	The move is also against oue law.	116501894	1475183308173	1475183308253	NA	79
228875	2452839	The move is also against our law.	The move is also against oue law.	116501896	1475183308661	1475183308743	NA	86
228875	2452839	The move is also against our law.	The move is also against oue law.	116501898	1475183308811	1475183308919	NA	69
228875	2452839	The move is also against our law.	The move is also against oue law.	116501899	1475183308972	1475183309051	NA	32
228875	2452839	The move is also against our law.	The move is also against oue law.	116501901	1475183309219	1475183309300	NA	73
228875	2452839	The move is also against our law.	The move is also against oue law.	116501942	1475183309369	1475183309496	NA	83
228875	2452839	The move is also against our law.	The move is also against oue law.	116501945	1475183309551	1475183309644	NA	32
228875	2452839	The move is also against our law.	The move is also against oue law.	116501948	1475183309929	1475183310062	NA	65
228875	2452839	The move is also against our law.	The move is also against oue law.	116501950	1475183310138	1475183310230	NA	76
228875	2452839	The move is also against our law.	The move is also against oue law.	116501951	1475183310476	1475183310543	NA	83
228875	2452839	The move is also against our law.	The move is also against oue law.	116501974	1475183310619	1475183310718	NA	79
228875	2452839	The move is also against our law.	The move is also against oue law.	116501977	1475183310921	1475183311011	NA	32
228875	2452839	The move is also against our law.	The move is also against oue law.	116501981	1475183311143	1475183311265	NA	65
228875	2452839	The move is also against our law.	The move is also against oue law.	116501985	1475183311310	1475183311387	NA	71
228875	2452839	The move is also against our law.	The move is also against oue law.	116501988	1475183311452	1475183311543	NA	65
228875	2452839	The move is also against our law.	The move is also against oue law.	116502043	1475183311720	1475183311813	NA	73
228875	2452839	The move is also against our law.	The move is also against oue law.	116502045	1475183311996	1475183312083	NA	78
228875	2452839	The move is also against our law.	The move is also against oue law.	116502048	1475183312466	1475183312567	NA	83
228875	2452839	The move is also against our law.	The move is also against oue law.	116502050	1475183312671	1475183312745	NA	84
228875	2452839	The move is also against our law.	The move is also against oue law.	116502052	1475183313100	1475183313186	NA	32
228875	2452839	The move is also against our law.	The move is also against oue law.	116502104	1475183313589	1475183313674	NA	79
228875	2452839	The move is also against our law.	The move is also against oue law.	116502105	1475183314077	1475183314158	NA	85
228875	2452839	The move is also against our law.	The move is also against oue law.	116502106	1475183314240	1475183314348	NA	69
228875	2452839	The move is also against our law.	The move is also against oue law.	116502107	1475183314429	1475183314517	NA	32
228875	2452839	The move is also against our law.	The move is also against oue law.	116502108	1475183314889	1475183314980	NA	76
228875	2452839	The move is also against our law.	The move is also against oue law.	116502167	1475183315063	1475183315186	NA	65
228875	2452839	The move is also against our law.	The move is also against oue law.	116502170	1475183315300	1475183315370	NA	87
228875	2452839	The move is also against our law.	The move is also against oue law.	116502171	1475183316307	1475183316373	NA	190
228875	2452851	I would suggest you and Mark address this together.	I would suggest you and Mark address this togther.	116502582	1475183328172	1475183328980	SHIFT	16
228875	2452851	I would suggest you and Mark address this together.	I would suggest you and Mark address this togther.	116502577	1475183328745	1475183328858	NA	73
228875	2452851	I would suggest you and Mark address this together.	I would suggest you and Mark address this togther.	116502586	1475183329184	1475183329296	NA	32
228875	2452851	I would suggest you and Mark address this together.	I would suggest you and Mark address this togther.	116502589	1475183329378	1475183329508	NA	87
228875	2452851	I would suggest you and Mark address this together.	I would suggest you and Mark address this togther.	116502594	1475183329536	1475183329675	NA	79
228875	2452851	I would suggest you and Mark address this together.	I would suggest you and Mark address this togther.	116502596	1475183329728	1475183329837	NA	85
228875	2452851	I would suggest you and Mark address this together.	I would suggest you and Mark address this togther.	116502641	1475183330076	1475183330168	NA	76
228875	2452851	I would suggest you and Mark address this together.	I would suggest you and Mark address this togther.	116502645	1475183330443	1475183330516	NA	68
228875	2452851	I would suggest you and Mark address this together.	I would suggest you and Mark address this togther.	116502651	1475183330699	1475183330783	NA	32
228875	2452851	I would suggest you and Mark address this together.	I would suggest you and Mark address this togther.	116502655	1475183330945	1475183331057	NA	83
228875	2452851	I would suggest you and Mark address this together.	I would suggest you and Mark address this togther.	116502662	1475183331103	1475183331181	NA	85
228875	2452851	I would suggest you and Mark address this together.	I would suggest you and Mark address this togther.	116502706	1475183331568	1475183331631	NA	71
228875	2452851	I would suggest you and Mark address this together.	I would suggest you and Mark address this togther.	116502708	1475183331713	1475183331800	NA	71
228875	2452851	I would suggest you and Mark address this together.	I would suggest you and Mark address this togther.	116502710	1475183331913	1475183332006	NA	69
228875	2452851	I would suggest you and Mark address this together.	I would suggest you and Mark address this togther.	116502712	1475183332182	1475183332279	NA	83
228875	2452851	I would suggest you and Mark address this together.	I would suggest you and Mark address this togther.	116502714	1475183332345	1475183332438	NA	84
228875	2452851	I would suggest you and Mark address this together.	I would suggest you and Mark address this togther.	116502773	1475183332633	1475183332715	NA	32
228875	2452851	I would suggest you and Mark address this together.	I would suggest you and Mark address this togther.	116502777	1475183333082	1475183333162	NA	89
228875	2452851	I would suggest you and Mark address this together.	I would suggest you and Mark address this togther.	116502780	1475183333346	1475183333469	NA	79
228875	2452851	I would suggest you and Mark address this together.	I would suggest you and Mark address this togther.	116502788	1475183333523	1475183333618	NA	85
228875	2452851	I would suggest you and Mark address this together.	I would suggest you and Mark address this togther.	116502792	1475183333822	1475183333929	NA	32
228875	2452851	I would suggest you and Mark address this together.	I would suggest you and Mark address this togther.	116502842	1475183334023	1475183334151	NA	65
228875	2452851	I would suggest you and Mark address this together.	I would suggest you and Mark address this togther.	116502843	1475183334146	1475183334244	NA	78
228875	2452851	I would suggest you and Mark address this together.	I would suggest you and Mark address this togther.	116502846	1475183334482	1475183334557	NA	68
228875	2452851	I would suggest you and Mark address this together.	I would suggest you and Mark address this togther.	116502848	1475183334631	1475183334728	NA	32
228875	2452851	I would suggest you and Mark address this together.	I would suggest you and Mark address this togther.	116502881	1475183334853	1475183335533	SHIFT	16
228875	2452851	I would suggest you and Mark address this together.	I would suggest you and Mark address this togther.	116502850	1475183335296	1475183335403	NA	77
228875	2452851	I would suggest you and Mark address this together.	I would suggest you and Mark address this togther.	116502884	1475183335737	1475183335910	NA	65
228875	2452851	I would suggest you and Mark address this together.	I would suggest you and Mark address this togther.	116502889	1475183335876	1475183335994	NA	82
228875	2452851	I would suggest you and Mark address this together.	I would suggest you and Mark address this togther.	116502892	1475183336571	1475183336657	NA	75
228875	2452851	I would suggest you and Mark address this together.	I would suggest you and Mark address this togther.	116502896	1475183336809	1475183336895	NA	32
228875	2452851	I would suggest you and Mark address this together.	I would suggest you and Mark address this togther.	116502902	1475183337022	1475183337125	NA	65
228875	2452851	I would suggest you and Mark address this together.	I would suggest you and Mark address this togther.	116502951	1475183337242	1475183337313	NA	68
228875	2452851	I would suggest you and Mark address this together.	I would suggest you and Mark address this togther.	116502954	1475183337391	1475183337478	NA	68
228875	2452851	I would suggest you and Mark address this together.	I would suggest you and Mark address this togther.	116502957	1475183337777	1475183337874	NA	82
228875	2452851	I would suggest you and Mark address this together.	I would suggest you and Mark address this togther.	116502961	1475183338259	1475183338335	NA	69
228875	2452851	I would suggest you and Mark address this together.	I would suggest you and Mark address this togther.	116502962	1475183338456	1475183338539	NA	83
228875	2452851	I would suggest you and Mark address this together.	I would suggest you and Mark address this togther.	116503012	1475183338652	1475183338710	NA	83
228875	2452851	I would suggest you and Mark address this together.	I would suggest you and Mark address this togther.	116503014	1475183338912	1475183339031	NA	32
228875	2452851	I would suggest you and Mark address this together.	I would suggest you and Mark address this togther.	116503017	1475183339907	1475183339986	NA	84
228875	2452851	I would suggest you and Mark address this together.	I would suggest you and Mark address this togther.	116503020	1475183340105	1475183340191	NA	72
228875	2452851	I would suggest you and Mark address this together.	I would suggest you and Mark address this togther.	116503022	1475183340295	1475183340365	NA	73
228875	2452851	I would suggest you and Mark address this together.	I would suggest you and Mark address this togther.	116503076	1475183340429	1475183340552	NA	83
228875	2452851	I would suggest you and Mark address this together.	I would suggest you and Mark address this togther.	116503078	1475183340692	1475183340778	NA	32
228875	2452851	I would suggest you and Mark address this together.	I would suggest you and Mark address this togther.	116503080	1475183341772	1475183341854	NA	84
228875	2452851	I would suggest you and Mark address this together.	I would suggest you and Mark address this togther.	116503082	1475183342097	1475183342184	NA	79
228875	2452851	I would suggest you and Mark address this together.	I would suggest you and Mark address this togther.	116503084	1475183342652	1475183342749	NA	71
228875	2452851	I would suggest you and Mark address this together.	I would suggest you and Mark address this togther.	116503131	1475183343208	1475183343284	NA	84
228875	2452851	I would suggest you and Mark address this together.	I would suggest you and Mark address this togther.	116503134	1475183343416	1475183343513	NA	72
228875	2452851	I would suggest you and Mark address this together.	I would suggest you and Mark address this togther.	116503138	1475183343605	1475183343707	NA	69
228875	2452851	I would suggest you and Mark address this together.	I would suggest you and Mark address this togther.	116503141	1475183343770	1475183343845	NA	82
228875	2452851	I would suggest you and Mark address this together.	I would suggest you and Mark address this togther.	116503145	1475183344436	1475183344517	NA	190
228875	2452871	I heard it was at 5?	I heard it was at 5?	116503367	1475183349286	1475183349962	SHIFT	16
228875	2452871	I heard it was at 5?	I heard it was at 5?	116503364	1475183349736	1475183349838	NA	73
228875	2452871	I heard it was at 5?	I heard it was at 5?	116503368	1475183350072	1475183350185	NA	32
228875	2452871	I heard it was at 5?	I heard it was at 5?	116503369	1475183350321	1475183350409	NA	72
228875	2452871	I heard it was at 5?	I heard it was at 5?	116503370	1475183350503	1475183350607	NA	69
228875	2452871	I heard it was at 5?	I heard it was at 5?	116503372	1475183350745	1475183350879	NA	65
228875	2452871	I heard it was at 5?	I heard it was at 5?	116503420	1475183350941	1475183351027	NA	82
228875	2452871	I heard it was at 5?	I heard it was at 5?	116503423	1475183351127	1475183351216	NA	68
228875	2452871	I heard it was at 5?	I heard it was at 5?	116503430	1475183351423	1475183351522	NA	32
228875	2452871	I heard it was at 5?	I heard it was at 5?	116503433	1475183351956	1475183352064	NA	73
228875	2452871	I heard it was at 5?	I heard it was at 5?	116503436	1475183352263	1475183352349	NA	84
228875	2452871	I heard it was at 5?	I heard it was at 5?	116503487	1475183352858	1475183352948	NA	32
228875	2452871	I heard it was at 5?	I heard it was at 5?	116503488	1475183353254	1475183353333	NA	87
228875	2452871	I heard it was at 5?	I heard it was at 5?	116503489	1475183353388	1475183353503	NA	65
228875	2452871	I heard it was at 5?	I heard it was at 5?	116503490	1475183353545	1475183353627	NA	83
228875	2452871	I heard it was at 5?	I heard it was at 5?	116503491	1475183353828	1475183353920	NA	32
228875	2452871	I heard it was at 5?	I heard it was at 5?	116503540	1475183354005	1475183354118	NA	65
228875	2452871	I heard it was at 5?	I heard it was at 5?	116503543	1475183354240	1475183354326	NA	84
228875	2452871	I heard it was at 5?	I heard it was at 5?	116503546	1475183354536	1475183354633	NA	32
228875	2452871	I heard it was at 5?	I heard it was at 5?	116503549	1475183354886	1475183354958	NA	53
228875	2452871	I heard it was at 5?	I heard it was at 5?	116503561	1475183355266	1475183356148	SHIFT	16
228875	2452871	I heard it was at 5?	I heard it was at 5?	116503552	1475183355884	1475183356015	NA	191
228875	2452881	Need you or John to step out.	Need you or john to step out.	116503855	1475183362655	1475183364193	SHIFT	16
228875	2452881	Need you or John to step out.	Need you or john to step out.	116503853	1475183363917	1475183364095	NA	78
228875	2452881	Need you or John to step out.	Need you or john to step out.	116503857	1475183364438	1475183364515	NA	69
228875	2452881	Need you or John to step out.	Need you or john to step out.	116503858	1475183364625	1475183364706	NA	69
228875	2452881	Need you or John to step out.	Need you or john to step out.	116503859	1475183364820	1475183364905	NA	68
228875	2452881	Need you or John to step out.	Need you or john to step out.	116503860	1475183365169	1475183365291	NA	32
228875	2452881	Need you or John to step out.	Need you or john to step out.	116503923	1475183365543	1475183365618	NA	89
228875	2452881	Need you or John to step out.	Need you or john to step out.	116503925	1475183365853	1475183366036	NA	79
228875	2452881	Need you or John to step out.	Need you or john to step out.	116503927	1475183366072	1475183366153	NA	85
228875	2452881	Need you or John to step out.	Need you or john to step out.	116503929	1475183366719	1475183366883	NA	32
228875	2452881	Need you or John to step out.	Need you or john to step out.	116503931	1475183367025	1475183367117	NA	79
228875	2452881	Need you or John to step out.	Need you or john to step out.	116503972	1475183367230	1475183367353	NA	82
228875	2452881	Need you or John to step out.	Need you or john to step out.	116503974	1475183367424	1475183367536	NA	32
228875	2452881	Need you or John to step out.	Need you or john to step out.	116503979	1475183367919	1475183368005	NA	74
228875	2452881	Need you or John to step out.	Need you or john to step out.	116503981	1475183368103	1475183368194	NA	79
228875	2452881	Need you or John to step out.	Need you or john to step out.	116503983	1475183368606	1475183368685	NA	72
228875	2452881	Need you or John to step out.	Need you or john to step out.	116504020	1475183368812	1475183368892	NA	78
228875	2452881	Need you or John to step out.	Need you or john to step out.	116504022	1475183369001	1475183369093	NA	32
228875	2452881	Need you or John to step out.	Need you or john to step out.	116504029	1475183369281	1475183369404	NA	84
228875	2452881	Need you or John to step out.	Need you or john to step out.	116504033	1475183369415	1475183369517	NA	79
228875	2452881	Need you or John to step out.	Need you or john to step out.	116504036	1475183369669	1475183369769	NA	32
228875	2452881	Need you or John to step out.	Need you or john to step out.	116504083	1475183370054	1475183370182	NA	84
228875	2452881	Need you or John to step out.	Need you or john to step out.	116504084	1475183370367	1475183370485	NA	69
228875	2452881	Need you or John to step out.	Need you or john to step out.	116504086	1475183370601	1475183370683	NA	80
228875	2452881	Need you or John to step out.	Need you or john to step out.	116504089	1475183371457	1475183371528		8
228875	2452881	Need you or John to step out.	Need you or john to step out.	116504092	1475183371606	1475183371682		8
228875	2452881	Need you or John to step out.	Need you or john to step out.	116504151	1475183371747	1475183371833		8
228875	2452881	Need you or John to step out.	Need you or john to step out.	116504153	1475183372304	1475183372443	NA	83
228875	2452881	Need you or John to step out.	Need you or john to step out.	116504155	1475183372661	1475183372742	NA	84
228875	2452881	Need you or John to step out.	Need you or john to step out.	116504156	1475183372781	1475183372927	NA	69
228875	2452881	Need you or John to step out.	Need you or john to step out.	116504157	1475183373052	1475183373154	NA	80
228875	2452881	Need you or John to step out.	Need you or john to step out.	116504192	1475183373303	1475183373422	NA	32
228875	2452881	Need you or John to step out.	Need you or john to step out.	116504194	1475183373550	1475183373749	NA	79
228875	2452881	Need you or John to step out.	Need you or john to step out.	116504195	1475183373713	1475183373857	NA	85
228875	2452881	Need you or John to step out.	Need you or john to step out.	116504196	1475183373981	1475183374078	NA	84
228875	2452881	Need you or John to step out.	Need you or john to step out.	116504197	1475183374912	1475183374988	NA	190
228875	2452893	he Fed will continue to have oversight over 38 US banks.	he Fed will continue to have oversight over 38 US banks.	116504426	1475183379676	1475183380363	SHIFT	16
228875	2452893	he Fed will continue to have oversight over 38 US banks.	he Fed will continue to have oversight over 38 US banks.	116504427	1475183380959	1475183381056	NA	72
228875	2452893	he Fed will continue to have oversight over 38 US banks.	he Fed will continue to have oversight over 38 US banks.	116504431	1475183381114	1475183381243	NA	69
228875	2452893	he Fed will continue to have oversight over 38 US banks.	he Fed will continue to have oversight over 38 US banks.	116504434	1475183381281	1475183381388	NA	32
228875	2452893	he Fed will continue to have oversight over 38 US banks.	he Fed will continue to have oversight over 38 US banks.	116504437	1475183381468	1475183381792	SHIFT	16
228875	2452893	he Fed will continue to have oversight over 38 US banks.	he Fed will continue to have oversight over 38 US banks.	116504438	1475183381658	1475183381807	NA	70
228875	2452893	he Fed will continue to have oversight over 38 US banks.	he Fed will continue to have oversight over 38 US banks.	116504439	1475183381907	1475183381993	NA	69
228875	2452893	he Fed will continue to have oversight over 38 US banks.	he Fed will continue to have oversight over 38 US banks.	116504484	1475183382115	1475183382201	NA	68
228875	2452893	he Fed will continue to have oversight over 38 US banks.	he Fed will continue to have oversight over 38 US banks.	116504485	1475183382436	1475183382544	NA	32
228875	2452893	he Fed will continue to have oversight over 38 US banks.	he Fed will continue to have oversight over 38 US banks.	116504486	1475183382750	1475183382889	NA	87
228875	2452893	he Fed will continue to have oversight over 38 US banks.	he Fed will continue to have oversight over 38 US banks.	116504487	1475183382949	1475183383023	NA	73
228875	2452893	he Fed will continue to have oversight over 38 US banks.	he Fed will continue to have oversight over 38 US banks.	116504488	1475183383159	1475183383228	NA	76
228875	2452893	he Fed will continue to have oversight over 38 US banks.	he Fed will continue to have oversight over 38 US banks.	116504529	1475183383305	1475183383386	NA	76
228875	2452893	he Fed will continue to have oversight over 38 US banks.	he Fed will continue to have oversight over 38 US banks.	116504533	1475183383533	1475183383630	NA	32
228875	2452893	he Fed will continue to have oversight over 38 US banks.	he Fed will continue to have oversight over 38 US banks.	116504535	1475183383851	1475183383926	NA	67
228875	2452893	he Fed will continue to have oversight over 38 US banks.	he Fed will continue to have oversight over 38 US banks.	116504537	1475183384165	1475183384257	NA	79
228875	2452893	he Fed will continue to have oversight over 38 US banks.	he Fed will continue to have oversight over 38 US banks.	116504539	1475183384448	1475183384530	NA	78
228875	2452893	he Fed will continue to have oversight over 38 US banks.	he Fed will continue to have oversight over 38 US banks.	116504598	1475183384807	1475183384876	NA	84
228875	2452893	he Fed will continue to have oversight over 38 US banks.	he Fed will continue to have oversight over 38 US banks.	116504599	1475183385060	1475183385143	NA	73
228875	2452893	he Fed will continue to have oversight over 38 US banks.	he Fed will continue to have oversight over 38 US banks.	116504600	1475183385508	1475183385600	NA	78
228875	2452893	he Fed will continue to have oversight over 38 US banks.	he Fed will continue to have oversight over 38 US banks.	116504601	1475183386132	1475183386224	NA	85
228875	2452893	he Fed will continue to have oversight over 38 US banks.	he Fed will continue to have oversight over 38 US banks.	116504602	1475183386267	1475183386408	NA	69
228875	2452893	he Fed will continue to have oversight over 38 US banks.	he Fed will continue to have oversight over 38 US banks.	116504635	1475183386576	1475183386673	NA	32
228875	2452893	he Fed will continue to have oversight over 38 US banks.	he Fed will continue to have oversight over 38 US banks.	116504637	1475183386906	1475183386978	NA	84
228875	2452893	he Fed will continue to have oversight over 38 US banks.	he Fed will continue to have oversight over 38 US banks.	116504640	1475183387176	1475183387255	NA	79
228875	2452893	he Fed will continue to have oversight over 38 US banks.	he Fed will continue to have oversight over 38 US banks.	116504642	1475183387409	1475183387517	NA	32
228875	2452893	he Fed will continue to have oversight over 38 US banks.	he Fed will continue to have oversight over 38 US banks.	116504643	1475183387646	1475183387738	NA	72
228875	2452893	he Fed will continue to have oversight over 38 US banks.	he Fed will continue to have oversight over 38 US banks.	116504675	1475183387804	1475183387933	NA	65
228875	2452893	he Fed will continue to have oversight over 38 US banks.	he Fed will continue to have oversight over 38 US banks.	116504678	1475183387977	1475183388074	NA	86
228875	2452893	he Fed will continue to have oversight over 38 US banks.	he Fed will continue to have oversight over 38 US banks.	116504681	1475183388129	1475183388277	NA	69
228875	2452893	he Fed will continue to have oversight over 38 US banks.	he Fed will continue to have oversight over 38 US banks.	116504686	1475183388467	1475183388574	NA	32
228875	2452893	he Fed will continue to have oversight over 38 US banks.	he Fed will continue to have oversight over 38 US banks.	116504689	1475183389128	1475183389196	NA	79
228875	2452893	he Fed will continue to have oversight over 38 US banks.	he Fed will continue to have oversight over 38 US banks.	116504725	1475183389625	1475183389696	NA	86
228875	2452893	he Fed will continue to have oversight over 38 US banks.	he Fed will continue to have oversight over 38 US banks.	116504728	1475183389802	1475183389894	NA	69
228875	2452893	he Fed will continue to have oversight over 38 US banks.	he Fed will continue to have oversight over 38 US banks.	116504735	1475183389953	1475183390039	NA	82
228875	2452893	he Fed will continue to have oversight over 38 US banks.	he Fed will continue to have oversight over 38 US banks.	116504741	1475183390168	1475183390291	NA	83
228875	2452893	he Fed will continue to have oversight over 38 US banks.	he Fed will continue to have oversight over 38 US banks.	116504748	1475183390532	1475183390611	NA	73
228875	2452893	he Fed will continue to have oversight over 38 US banks.	he Fed will continue to have oversight over 38 US banks.	116504806	1475183390976	1475183391055	NA	71
228875	2452893	he Fed will continue to have oversight over 38 US banks.	he Fed will continue to have oversight over 38 US banks.	116504808	1475183391151	1475183391291	NA	72
228875	2452893	he Fed will continue to have oversight over 38 US banks.	he Fed will continue to have oversight over 38 US banks.	116504810	1475183391384	1475183391473	NA	84
228875	2452893	he Fed will continue to have oversight over 38 US banks.	he Fed will continue to have oversight over 38 US banks.	116504812	1475183391927	1475183392048	NA	32
228875	2452893	he Fed will continue to have oversight over 38 US banks.	he Fed will continue to have oversight over 38 US banks.	116504814	1475183392393	1475183392486	NA	79
228875	2452893	he Fed will continue to have oversight over 38 US banks.	he Fed will continue to have oversight over 38 US banks.	116504880	1475183392806	1475183392896	NA	86
228875	2452893	he Fed will continue to have oversight over 38 US banks.	he Fed will continue to have oversight over 38 US banks.	116504882	1475183392971	1475183393104	NA	69
228875	2452893	he Fed will continue to have oversight over 38 US banks.	he Fed will continue to have oversight over 38 US banks.	116504884	1475183393155	1475183393246	NA	82
228875	2452893	he Fed will continue to have oversight over 38 US banks.	he Fed will continue to have oversight over 38 US banks.	116504886	1475183393582	1475183393726	NA	32
228875	2452893	he Fed will continue to have oversight over 38 US banks.	he Fed will continue to have oversight over 38 US banks.	116504888	1475183395180	1475183395309	NA	51
228875	2452893	he Fed will continue to have oversight over 38 US banks.	he Fed will continue to have oversight over 38 US banks.	116504954	1475183395406	1475183395486	NA	56
228875	2452893	he Fed will continue to have oversight over 38 US banks.	he Fed will continue to have oversight over 38 US banks.	116504956	1475183395818	1475183395964	NA	32
228875	2452893	he Fed will continue to have oversight over 38 US banks.	he Fed will continue to have oversight over 38 US banks.	116504960	1475183396208	1475183396899	SHIFT	16
228875	2452893	he Fed will continue to have oversight over 38 US banks.	he Fed will continue to have oversight over 38 US banks.	116504958	1475183396333	1475183396444	NA	85
228875	2452893	he Fed will continue to have oversight over 38 US banks.	he Fed will continue to have oversight over 38 US banks.	116504959	1475183396675	1475183396756	NA	83
228875	2452893	he Fed will continue to have oversight over 38 US banks.	he Fed will continue to have oversight over 38 US banks.	116504961	1475183397092	1475183397183	NA	32
228875	2452893	he Fed will continue to have oversight over 38 US banks.	he Fed will continue to have oversight over 38 US banks.	116505005	1475183397521	1475183397583	NA	66
228875	2452893	he Fed will continue to have oversight over 38 US banks.	he Fed will continue to have oversight over 38 US banks.	116505008	1475183397660	1475183397800	NA	65
228875	2452893	he Fed will continue to have oversight over 38 US banks.	he Fed will continue to have oversight over 38 US banks.	116505011	1475183397804	1475183397941	NA	78
228875	2452893	he Fed will continue to have oversight over 38 US banks.	he Fed will continue to have oversight over 38 US banks.	116505015	1475183398369	1475183398459	NA	75
228875	2452893	he Fed will continue to have oversight over 38 US banks.	he Fed will continue to have oversight over 38 US banks.	116505018	1475183398536	1475183398647	NA	83
228875	2452893	he Fed will continue to have oversight over 38 US banks.	he Fed will continue to have oversight over 38 US banks.	116505047	1475183399266	1475183399352	NA	190
228875	2452910	Some million shares changed hands on the New York Stock.	Some millions shares changed hands on the New York Stock.	116505243	1475183404149	1475183404505	SHIFT	16
228875	2452910	Some million shares changed hands on the New York Stock.	Some millions shares changed hands on the New York Stock.	116505242	1475183404304	1475183404393	NA	83
228875	2452910	Some million shares changed hands on the New York Stock.	Some millions shares changed hands on the New York Stock.	116505244	1475183404704	1475183404781	NA	79
228875	2452910	Some million shares changed hands on the New York Stock.	Some millions shares changed hands on the New York Stock.	116505246	1475183405082	1475183405173	NA	77
228875	2452910	Some million shares changed hands on the New York Stock.	Some millions shares changed hands on the New York Stock.	116505248	1475183405268	1475183405338	NA	69
228875	2452910	Some million shares changed hands on the New York Stock.	Some millions shares changed hands on the New York Stock.	116505250	1475183405417	1475183405495	NA	32
228875	2452910	Some million shares changed hands on the New York Stock.	Some millions shares changed hands on the New York Stock.	116505294	1475183405855	1475183405934	NA	77
228875	2452910	Some million shares changed hands on the New York Stock.	Some millions shares changed hands on the New York Stock.	116505297	1475183406084	1475183406148	NA	73
228875	2452910	Some million shares changed hands on the New York Stock.	Some millions shares changed hands on the New York Stock.	116505300	1475183406299	1475183406357	NA	76
228875	2452910	Some million shares changed hands on the New York Stock.	Some millions shares changed hands on the New York Stock.	116505302	1475183406419	1475183406525	NA	76
228875	2452910	Some million shares changed hands on the New York Stock.	Some millions shares changed hands on the New York Stock.	116505305	1475183406696	1475183406763	NA	73
228875	2452910	Some million shares changed hands on the New York Stock.	Some millions shares changed hands on the New York Stock.	116505333	1475183406873	1475183406954	NA	79
228875	2452910	Some million shares changed hands on the New York Stock.	Some millions shares changed hands on the New York Stock.	116505335	1475183407158	1475183407245	NA	78
228875	2452910	Some million shares changed hands on the New York Stock.	Some millions shares changed hands on the New York Stock.	116505338	1475183407393	1475183407532	NA	83
228875	2452910	Some million shares changed hands on the New York Stock.	Some millions shares changed hands on the New York Stock.	116505340	1475183407616	1475183407719	NA	32
228875	2452910	Some million shares changed hands on the New York Stock.	Some millions shares changed hands on the New York Stock.	116505346	1475183408442	1475183408527	NA	83
228875	2452910	Some million shares changed hands on the New York Stock.	Some millions shares changed hands on the New York Stock.	116505394	1475183409071	1475183409157	NA	72
228875	2452910	Some million shares changed hands on the New York Stock.	Some millions shares changed hands on the New York Stock.	116505395	1475183409236	1475183409359	NA	65
228875	2452910	Some million shares changed hands on the New York Stock.	Some millions shares changed hands on the New York Stock.	116505396	1475183409394	1475183409583	NA	82
228875	2452910	Some million shares changed hands on the New York Stock.	Some millions shares changed hands on the New York Stock.	116505397	1475183409546	1475183409676	NA	69
228875	2452910	Some million shares changed hands on the New York Stock.	Some millions shares changed hands on the New York Stock.	116505399	1475183409781	1475183409927	NA	83
228875	2452910	Some million shares changed hands on the New York Stock.	Some millions shares changed hands on the New York Stock.	116505432	1475183410063	1475183410182	NA	32
228875	2452910	Some million shares changed hands on the New York Stock.	Some millions shares changed hands on the New York Stock.	116505433	1475183410495	1475183410579	NA	67
228875	2452910	Some million shares changed hands on the New York Stock.	Some millions shares changed hands on the New York Stock.	116505434	1475183410719	1475183410819	NA	72
228875	2452910	Some million shares changed hands on the New York Stock.	Some millions shares changed hands on the New York Stock.	116505435	1475183410871	1475183410999	NA	65
228875	2452910	Some million shares changed hands on the New York Stock.	Some millions shares changed hands on the New York Stock.	116505436	1475183411026	1475183411141	NA	78
228875	2452910	Some million shares changed hands on the New York Stock.	Some millions shares changed hands on the New York Stock.	116505495	1475183411800	1475183411906	NA	71
228875	2452910	Some million shares changed hands on the New York Stock.	Some millions shares changed hands on the New York Stock.	116505496	1475183411960	1475183412103	NA	69
228875	2452910	Some million shares changed hands on the New York Stock.	Some millions shares changed hands on the New York Stock.	116505497	1475183412138	1475183412223	NA	68
228875	2452910	Some million shares changed hands on the New York Stock.	Some millions shares changed hands on the New York Stock.	116505499	1475183412549	1475183412657	NA	32
228875	2452910	Some million shares changed hands on the New York Stock.	Some millions shares changed hands on the New York Stock.	116505502	1475183412962	1475183413040	NA	72
228875	2452910	Some million shares changed hands on the New York Stock.	Some millions shares changed hands on the New York Stock.	116505536	1475183413094	1475183413231	NA	65
228875	2452910	Some million shares changed hands on the New York Stock.	Some millions shares changed hands on the New York Stock.	116505537	1475183413226	1475183413328	NA	78
228875	2452910	Some million shares changed hands on the New York Stock.	Some millions shares changed hands on the New York Stock.	116505538	1475183413623	1475183413704	NA	68
228875	2452910	Some million shares changed hands on the New York Stock.	Some millions shares changed hands on the New York Stock.	116505539	1475183413755	1475183413895	NA	83
228875	2452910	Some million shares changed hands on the New York Stock.	Some millions shares changed hands on the New York Stock.	116505540	1475183414116	1475183414220	NA	32
228875	2452910	Some million shares changed hands on the New York Stock.	Some millions shares changed hands on the New York Stock.	116505598	1475183414502	1475183414577	NA	73
228875	2452910	Some million shares changed hands on the New York Stock.	Some millions shares changed hands on the New York Stock.	116505599	1475183415028	1475183415104		8
228875	2452910	Some million shares changed hands on the New York Stock.	Some millions shares changed hands on the New York Stock.	116505600	1475183415345	1475183415434	NA	79
228875	2452910	Some million shares changed hands on the New York Stock.	Some millions shares changed hands on the New York Stock.	116505601	1475183415601	1475183415698	NA	78
228875	2452910	Some million shares changed hands on the New York Stock.	Some millions shares changed hands on the New York Stock.	116505603	1475183415933	1475183416031	NA	32
228875	2452910	Some million shares changed hands on the New York Stock.	Some millions shares changed hands on the New York Stock.	116505637	1475183416327	1475183416403	NA	84
228875	2452910	Some million shares changed hands on the New York Stock.	Some millions shares changed hands on the New York Stock.	116505639	1475183416519	1475183416600	NA	72
228875	2452910	Some million shares changed hands on the New York Stock.	Some millions shares changed hands on the New York Stock.	116505641	1475183416676	1475183416803	NA	69
228875	2452910	Some million shares changed hands on the New York Stock.	Some millions shares changed hands on the New York Stock.	116505643	1475183416904	1475183417001	NA	32
228875	2452910	Some million shares changed hands on the New York Stock.	Some millions shares changed hands on the New York Stock.	116505726	1475183417137	1475183417571	SHIFT	16
228875	2452910	Some million shares changed hands on the New York Stock.	Some millions shares changed hands on the New York Stock.	116505645	1475183417312	1475183417418	NA	78
228875	2452910	Some million shares changed hands on the New York Stock.	Some millions shares changed hands on the New York Stock.	116505729	1475183417853	1475183418005	NA	87
228875	2452910	Some million shares changed hands on the New York Stock.	Some millions shares changed hands on the New York Stock.	116505733	1475183418542	1475183418629		8
228875	2452910	Some million shares changed hands on the New York Stock.	Some millions shares changed hands on the New York Stock.	116505736	1475183418984	1475183419069	NA	69
228875	2452910	Some million shares changed hands on the New York Stock.	Some millions shares changed hands on the New York Stock.	116505737	1475183419150	1475183419307	NA	87
228875	2452910	Some million shares changed hands on the New York Stock.	Some millions shares changed hands on the New York Stock.	116505740	1475183419757	1475183419880	NA	32
228875	2452910	Some million shares changed hands on the New York Stock.	Some millions shares changed hands on the New York Stock.	116505827	1475183420020	1475183420547	SHIFT	16
228875	2452910	Some million shares changed hands on the New York Stock.	Some millions shares changed hands on the New York Stock.	116505824	1475183420322	1475183420429	NA	89
228875	2452910	Some million shares changed hands on the New York Stock.	Some millions shares changed hands on the New York Stock.	116505831	1475183420771	1475183420868	NA	79
228875	2452910	Some million shares changed hands on the New York Stock.	Some millions shares changed hands on the New York Stock.	116505834	1475183421534	1475183421688	NA	82
228875	2452910	Some million shares changed hands on the New York Stock.	Some millions shares changed hands on the New York Stock.	116505836	1475183421656	1475183421795	NA	75
228875	2452910	Some million shares changed hands on the New York Stock.	Some millions shares changed hands on the New York Stock.	116505838	1475183422066	1475183422179	NA	32
228875	2452910	Some million shares changed hands on the New York Stock.	Some millions shares changed hands on the New York Stock.	116505932	1475183422341	1475183422816	SHIFT	16
228875	2452910	Some million shares changed hands on the New York Stock.	Some millions shares changed hands on the New York Stock.	116505930	1475183422631	1475183422731	NA	83
228875	2452910	Some million shares changed hands on the New York Stock.	Some millions shares changed hands on the New York Stock.	116505935	1475183423030	1475183423116	NA	84
228875	2452910	Some million shares changed hands on the New York Stock.	Some millions shares changed hands on the New York Stock.	116505937	1475183423372	1475183423459	NA	79
228875	2452910	Some million shares changed hands on the New York Stock.	Some millions shares changed hands on the New York Stock.	116505939	1475183423860	1475183423930	NA	67
228875	2452910	Some million shares changed hands on the New York Stock.	Some millions shares changed hands on the New York Stock.	116505941	1475183425118	1475183425198	NA	75
228875	2452910	Some million shares changed hands on the New York Stock.	Some millions shares changed hands on the New York Stock.	116505980	1475183425687	1475183425780	NA	191
228875	2452910	Some million shares changed hands on the New York Stock.	Some millions shares changed hands on the New York Stock.	116505982	1475183426259	1475183426356		8
228875	2452910	Some million shares changed hands on the New York Stock.	Some millions shares changed hands on the New York Stock.	116505983	1475183426580	1475183426693	NA	190
228875	2452927	We don't have any ability to veto their decisions.	We don't have any ability to veto their decisions.	116506256	1475183433444	1475183434967	SHIFT	16
228875	2452927	We don't have any ability to veto their decisions.	We don't have any ability to veto their decisions.	116506249	1475183433711	1475183433926	NA	87
228875	2452927	We don't have any ability to veto their decisions.	We don't have any ability to veto their decisions.	116506251	1475183433855	1475183434001	NA	69
228875	2452927	We don't have any ability to veto their decisions.	We don't have any ability to veto their decisions.	116506254	1475183434659	1475183434756		8
228875	2452927	We don't have any ability to veto their decisions.	We don't have any ability to veto their decisions.	116506257	1475183435141	1475183435222	NA	69
228875	2452927	We don't have any ability to veto their decisions.	We don't have any ability to veto their decisions.	116506258	1475183435500	1475183435597	NA	32
228875	2452927	We don't have any ability to veto their decisions.	We don't have any ability to veto their decisions.	116506291	1475183435811	1475183435929	NA	68
228875	2452927	We don't have any ability to veto their decisions.	We don't have any ability to veto their decisions.	116506293	1475183435939	1475183436041	NA	79
228875	2452927	We don't have any ability to veto their decisions.	We don't have any ability to veto their decisions.	116506295	1475183436190	1475183436280	NA	78
228875	2452927	We don't have any ability to veto their decisions.	We don't have any ability to veto their decisions.	116506298	1475183436609	1475183436685	NA	222
228875	2452927	We don't have any ability to veto their decisions.	We don't have any ability to veto their decisions.	116506301	1475183436972	1475183437065	NA	84
228875	2452927	We don't have any ability to veto their decisions.	We don't have any ability to veto their decisions.	116506341	1475183437327	1475183437452	NA	32
228875	2452927	We don't have any ability to veto their decisions.	We don't have any ability to veto their decisions.	116506343	1475183437773	1475183437856	NA	72
228875	2452927	We don't have any ability to veto their decisions.	We don't have any ability to veto their decisions.	116506346	1475183437918	1475183438042	NA	65
228875	2452927	We don't have any ability to veto their decisions.	We don't have any ability to veto their decisions.	116506349	1475183438113	1475183438209	NA	86
228875	2452927	We don't have any ability to veto their decisions.	We don't have any ability to veto their decisions.	116506352	1475183438305	1475183438433	NA	69
228875	2452927	We don't have any ability to veto their decisions.	We don't have any ability to veto their decisions.	116506374	1475183438477	1475183438584	NA	32
228875	2452927	We don't have any ability to veto their decisions.	We don't have any ability to veto their decisions.	116506378	1475183438666	1475183438796	NA	65
228875	2452927	We don't have any ability to veto their decisions.	We don't have any ability to veto their decisions.	116506379	1475183438835	1475183438941	NA	78
228875	2452927	We don't have any ability to veto their decisions.	We don't have any ability to veto their decisions.	116506383	1475183439092	1475183439166	NA	89
228875	2452927	We don't have any ability to veto their decisions.	We don't have any ability to veto their decisions.	116506384	1475183439371	1475183439461	NA	32
228875	2452927	We don't have any ability to veto their decisions.	We don't have any ability to veto their decisions.	116506428	1475183439564	1475183439703	NA	65
228875	2452927	We don't have any ability to veto their decisions.	We don't have any ability to veto their decisions.	116506432	1475183439815	1475183439901	NA	66
228875	2452927	We don't have any ability to veto their decisions.	We don't have any ability to veto their decisions.	116506435	1475183440114	1475183440201	NA	73
228875	2452927	We don't have any ability to veto their decisions.	We don't have any ability to veto their decisions.	116506437	1475183440362	1475183440458	NA	76
228875	2452927	We don't have any ability to veto their decisions.	We don't have any ability to veto their decisions.	116506443	1475183440584	1475183440666	NA	73
228875	2452927	We don't have any ability to veto their decisions.	We don't have any ability to veto their decisions.	116506480	1475183440886	1475183441025	NA	84
228875	2452927	We don't have any ability to veto their decisions.	We don't have any ability to veto their decisions.	116506481	1475183440988	1475183441113	NA	89
228875	2452927	We don't have any ability to veto their decisions.	We don't have any ability to veto their decisions.	116506483	1475183441415	1475183441477	NA	32
228875	2452927	We don't have any ability to veto their decisions.	We don't have any ability to veto their decisions.	116506485	1475183441807	1475183441888	NA	84
228875	2452927	We don't have any ability to veto their decisions.	We don't have any ability to veto their decisions.	116506487	1475183442113	1475183442196	NA	79
228875	2452927	We don't have any ability to veto their decisions.	We don't have any ability to veto their decisions.	116506526	1475183442388	1475183442484	NA	32
228875	2452927	We don't have any ability to veto their decisions.	We don't have any ability to veto their decisions.	116506528	1475183442690	1475183442771	NA	86
228875	2452927	We don't have any ability to veto their decisions.	We don't have any ability to veto their decisions.	116506530	1475183442870	1475183442993	NA	69
228875	2452927	We don't have any ability to veto their decisions.	We don't have any ability to veto their decisions.	116506531	1475183443050	1475183443136	NA	84
228875	2452927	We don't have any ability to veto their decisions.	We don't have any ability to veto their decisions.	116506533	1475183443450	1475183443550	NA	79
228875	2452927	We don't have any ability to veto their decisions.	We don't have any ability to veto their decisions.	116506574	1475183443879	1475183443924	NA	32
228875	2452927	We don't have any ability to veto their decisions.	We don't have any ability to veto their decisions.	116506576	1475183444342	1475183444345	NA	84
228875	2452927	We don't have any ability to veto their decisions.	We don't have any ability to veto their decisions.	116506577	1475183444400	1475183444491	NA	72
228875	2452927	We don't have any ability to veto their decisions.	We don't have any ability to veto their decisions.	116506579	1475183445037	1475183445178	NA	69
228875	2452927	We don't have any ability to veto their decisions.	We don't have any ability to veto their decisions.	116506582	1475183445400	1475183445473	NA	73
228875	2452927	We don't have any ability to veto their decisions.	We don't have any ability to veto their decisions.	116506613	1475183445582	1475183445690	NA	82
228875	2452927	We don't have any ability to veto their decisions.	We don't have any ability to veto their decisions.	116506614	1475183445833	1475183445928	NA	32
228875	2452927	We don't have any ability to veto their decisions.	We don't have any ability to veto their decisions.	116506615	1475183446524	1475183446615	NA	68
228875	2452927	We don't have any ability to veto their decisions.	We don't have any ability to veto their decisions.	116506616	1475183446785	1475183446865	NA	69
228875	2452927	We don't have any ability to veto their decisions.	We don't have any ability to veto their decisions.	116506618	1475183447265	1475183447341	NA	67
228875	2452927	We don't have any ability to veto their decisions.	We don't have any ability to veto their decisions.	116506677	1475183447566	1475183447645	NA	73
228875	2452927	We don't have any ability to veto their decisions.	We don't have any ability to veto their decisions.	116506680	1475183447784	1475183447886	NA	83
228875	2452927	We don't have any ability to veto their decisions.	We don't have any ability to veto their decisions.	116506683	1475183448007	1475183448087	NA	73
228875	2452927	We don't have any ability to veto their decisions.	We don't have any ability to veto their decisions.	116506685	1475183448218	1475183448302	NA	79
228875	2452927	We don't have any ability to veto their decisions.	We don't have any ability to veto their decisions.	116506687	1475183448524	1475183448604	NA	78
228875	2452927	We don't have any ability to veto their decisions.	We don't have any ability to veto their decisions.	116506746	1475183449063	1475183449176	NA	83
228875	2452927	We don't have any ability to veto their decisions.	We don't have any ability to veto their decisions.	116506750	1475183449866	1475183449949	NA	190
