PARTICIPANT_ID	TEST_SECTION_ID	SENTENCE	USER_INPUT	KEYSTROKE_ID	PRESS_TIME	RELEASE_TIME	LETTER	KEYCODE
229997	2464094	At least then one person in Denver would be able to get in.	At least then one person in Denver would be able to get in.	117037902	1475154756577	1475154756661	CAPS_LOCK	20
229997	2464094	At least then one person in Denver would be able to get in.	At least then one person in Denver would be able to get in.	117037908	1475154756661	1475154756735	A	65
229997	2464094	At least then one person in Denver would be able to get in.	At least then one person in Denver would be able to get in.	117037915	1475154756735	1475154756860	CAPS_LOCK	20
229997	2464094	At least then one person in Denver would be able to get in.	At least then one person in Denver would be able to get in.	117037918	1475154756907	1475154757052	t	84
229997	2464094	At least then one person in Denver would be able to get in.	At least then one person in Denver would be able to get in.	117037922	1475154757018	1475154757119	 	32
229997	2464094	At least then one person in Denver would be able to get in.	At least then one person in Denver would be able to get in.	117037928	1475154757150	1475154757236	l	76
229997	2464094	At least then one person in Denver would be able to get in.	At least then one person in Denver would be able to get in.	117037935	1475154757210	1475154757332	e	69
229997	2464094	At least then one person in Denver would be able to get in.	At least then one person in Denver would be able to get in.	117037937	1475154757286	1475154757436	a	65
229997	2464094	At least then one person in Denver would be able to get in.	At least then one person in Denver would be able to get in.	117037940	1475154757332	1475154757455	s	83
229997	2464094	At least then one person in Denver would be able to get in.	At least then one person in Denver would be able to get in.	117037942	1475154757418	1475154757505	t	84
229997	2464094	At least then one person in Denver would be able to get in.	At least then one person in Denver would be able to get in.	117037947	1475154757455	1475154757567	 	32
229997	2464094	At least then one person in Denver would be able to get in.	At least then one person in Denver would be able to get in.	117037952	1475154757567	1475154757638	t	84
229997	2464094	At least then one person in Denver would be able to get in.	At least then one person in Denver would be able to get in.	117037972	1475154757604	1475154757676	h	72
229997	2464094	At least then one person in Denver would be able to get in.	At least then one person in Denver would be able to get in.	117037975	1475154757689	1475154757786	e	69
229997	2464094	At least then one person in Denver would be able to get in.	At least then one person in Denver would be able to get in.	117037976	1475154757786	1475154757819	 	78
229997	2464094	At least then one person in Denver would be able to get in.	At least then one person in Denver would be able to get in.	117037978	1475154757912	1475154757971	o	79
229997	2464094	At least then one person in Denver would be able to get in.	At least then one person in Denver would be able to get in.	117037979	1475154757971	1475154758089	n	78
229997	2464094	At least then one person in Denver would be able to get in.	At least then one person in Denver would be able to get in.	117038024	1475154758057	1475154758167	e	69
229997	2464094	At least then one person in Denver would be able to get in.	At least then one person in Denver would be able to get in.	117038026	1475154758089	1475154758183	 	32
229997	2464094	At least then one person in Denver would be able to get in.	At least then one person in Denver would be able to get in.	117038028	1475154758495	1475154758596	p	80
229997	2464094	At least then one person in Denver would be able to get in.	At least then one person in Denver would be able to get in.	117038030	1475154758569	1475154758668	e	69
229997	2464094	At least then one person in Denver would be able to get in.	At least then one person in Denver would be able to get in.	117038031	1475154758642	1475154758733	r	82
229997	2464094	At least then one person in Denver would be able to get in.	At least then one person in Denver would be able to get in.	117038032	1475154758733	1475154758834	s	83
229997	2464094	At least then one person in Denver would be able to get in.	At least then one person in Denver would be able to get in.	117038040	1475154758834	1475154758935	o	79
229997	2464094	At least then one person in Denver would be able to get in.	At least then one person in Denver would be able to get in.	117038042	1475154758935	1475154759028	n	78
229997	2464094	At least then one person in Denver would be able to get in.	At least then one person in Denver would be able to get in.	117038045	1475154759003	1475154759104	 	32
229997	2464094	At least then one person in Denver would be able to get in.	At least then one person in Denver would be able to get in.	117038048	1475154759038	1475154759104	i	73
229997	2464094	At least then one person in Denver would be able to get in.	At least then one person in Denver would be able to get in.	117038051	1475154759195	1475154759268	n	78
229997	2464094	At least then one person in Denver would be able to get in.	At least then one person in Denver would be able to get in.	117038060	1475154759268	1475154759367	 	32
229997	2464094	At least then one person in Denver would be able to get in.	At least then one person in Denver would be able to get in.	117038062	1475154759336	1475154759398	CAPS_LOCK	20
229997	2464094	At least then one person in Denver would be able to get in.	At least then one person in Denver would be able to get in.	117038064	1475154759398	1475154759501	D	68
229997	2464094	At least then one person in Denver would be able to get in.	At least then one person in Denver would be able to get in.	117038067	1475154759501	1475154759563	CAPS_LOCK	20
229997	2464094	At least then one person in Denver would be able to get in.	At least then one person in Denver would be able to get in.	117038068	1475154759596	1475154759684	e	69
229997	2464094	At least then one person in Denver would be able to get in.	At least then one person in Denver would be able to get in.	117038070	1475154759684	1475154759772	n	78
229997	2464094	At least then one person in Denver would be able to get in.	At least then one person in Denver would be able to get in.	117038079	1475154759742	1475154759851	v	86
229997	2464094	At least then one person in Denver would be able to get in.	At least then one person in Denver would be able to get in.	117038081	1475154759851	1475154759964	e	69
229997	2464094	At least then one person in Denver would be able to get in.	At least then one person in Denver would be able to get in.	117038086	1475154759919	1475154760012	r	82
229997	2464094	At least then one person in Denver would be able to get in.	At least then one person in Denver would be able to get in.	117038089	1475154759987	1475154760087	 	32
229997	2464094	At least then one person in Denver would be able to get in.	At least then one person in Denver would be able to get in.	117038096	1475154760022	1475154760140	w	87
229997	2464094	At least then one person in Denver would be able to get in.	At least then one person in Denver would be able to get in.	117038114	1475154760087	1475154760154	o	79
229997	2464094	At least then one person in Denver would be able to get in.	At least then one person in Denver would be able to get in.	117038117	1475154760216	1475154760270	u	85
229997	2464094	At least then one person in Denver would be able to get in.	At least then one person in Denver would be able to get in.	117038120	1475154760380	1475154760454	l	76
229997	2464094	At least then one person in Denver would be able to get in.	At least then one person in Denver would be able to get in.	117038123	1475154760422	1475154760501	d	68
229997	2464094	At least then one person in Denver would be able to get in.	At least then one person in Denver would be able to get in.	117038125	1475154760501	1475154760616	 	32
229997	2464094	At least then one person in Denver would be able to get in.	At least then one person in Denver would be able to get in.	117038126	1475154760616	1475154760721	b	66
229997	2464094	At least then one person in Denver would be able to get in.	At least then one person in Denver would be able to get in.	117038169	1475154760671	1475154760783	e	69
229997	2464094	At least then one person in Denver would be able to get in.	At least then one person in Denver would be able to get in.	117038172	1475154760939	1475154761018	 	32
229997	2464094	At least then one person in Denver would be able to get in.	At least then one person in Denver would be able to get in.	117038173	1475154761018	1475154761132	a	65
229997	2464094	At least then one person in Denver would be able to get in.	At least then one person in Denver would be able to get in.	117038174	1475154761102	1475154761200	b	66
229997	2464094	At least then one person in Denver would be able to get in.	At least then one person in Denver would be able to get in.	117038175	1475154761247	1475154761335	l	76
229997	2464094	At least then one person in Denver would be able to get in.	At least then one person in Denver would be able to get in.	117038176	1475154761413	1475154761571	e	69
229997	2464094	At least then one person in Denver would be able to get in.	At least then one person in Denver would be able to get in.	117038185	1475154761502	1475154761599	 	32
229997	2464094	At least then one person in Denver would be able to get in.	At least then one person in Denver would be able to get in.	117038189	1475154761538	1475154761599	t	84
229997	2464094	At least then one person in Denver would be able to get in.	At least then one person in Denver would be able to get in.	117038195	1475154761599	1475154761705	o	79
229997	2464094	At least then one person in Denver would be able to get in.	At least then one person in Denver would be able to get in.	117038200	1475154761671	1475154761779	 	32
229997	2464094	At least then one person in Denver would be able to get in.	At least then one person in Denver would be able to get in.	117038204	1475154761752	1475154761803	g	71
229997	2464094	At least then one person in Denver would be able to get in.	At least then one person in Denver would be able to get in.	117038207	1475154761819	1475154761956	e	69
229997	2464094	At least then one person in Denver would be able to get in.	At least then one person in Denver would be able to get in.	117038245	1475154761886	1475154761958	t	84
229997	2464094	At least then one person in Denver would be able to get in.	At least then one person in Denver would be able to get in.	117038247	1475154761958	1475154762003	 	32
229997	2464094	At least then one person in Denver would be able to get in.	At least then one person in Denver would be able to get in.	117038249	1475154761980	1475154762036	i	73
229997	2464094	At least then one person in Denver would be able to get in.	At least then one person in Denver would be able to get in.	117038252	1475154762072	1475154762151	n	78
229997	2464094	At least then one person in Denver would be able to get in.	At least then one person in Denver would be able to get in.	117038257	1475154762182	1475154762253	.	190
229997	2464094	At least then one person in Denver would be able to get in.	At least then one person in Denver would be able to get in.	117038264	1475154762684	1475154762768	 	32
229997	2464094	At least then one person in Denver would be able to get in.	At least then one person in Denver would be able to get in.	117038363	1475154763119	1475154763218	BKSP	8
229997	2464107	Are you being a baby?	Are you being a baby?	117038482	1475154766363	1475154766425	CAPS_LOCK	20
229997	2464107	Are you being a baby?	Are you being a baby?	117038487	1475154766425	1475154766517	A	65
229997	2464107	Are you being a baby?	Are you being a baby?	117038491	1475154766517	1475154766611	CAPS_LOCK	20
229997	2464107	Are you being a baby?	Are you being a baby?	117038495	1475154766736	1475154766868	r	82
229997	2464107	Are you being a baby?	Are you being a baby?	117038497	1475154766835	1475154766966	 	69
229997	2464107	Are you being a baby?	Are you being a baby?	117038501	1475154766966	1475154767015	y	89
229997	2464107	Are you being a baby?	Are you being a baby?	117038504	1475154767078	1475154767170	o	79
229997	2464107	Are you being a baby?	Are you being a baby?	117038508	1475154767121	1475154767170	u	85
229997	2464107	Are you being a baby?	Are you being a baby?	117038512	1475154767186	1475154767254	 	32
229997	2464107	Are you being a baby?	Are you being a baby?	117038516	1475154767254	1475154767354	b	66
229997	2464107	Are you being a baby?	Are you being a baby?	117038528	1475154767320	1475154767434	e	69
229997	2464107	Are you being a baby?	Are you being a baby?	117038524	1475154767354	1475154767403	i	73
229997	2464107	Are you being a baby?	Are you being a baby?	117038532	1475154767481	1475154767571	n	78
229997	2464107	Are you being a baby?	Are you being a baby?	117038538	1475154767521	1475154767618	g	71
229997	2464107	Are you being a baby?	Are you being a baby?	117038543	1475154767618	1475154767671	a	32
229997	2464107	Are you being a baby?	Are you being a baby?	117038560	1475154767750	1475154767836	 	32
229997	2464107	Are you being a baby?	Are you being a baby?	117038562	1475154767803	1475154767906	b	66
229997	2464107	Are you being a baby?	Are you being a baby?	117038566	1475154767854	1475154767968	a	65
229997	2464107	Are you being a baby?	Are you being a baby?	117038569	1475154767968	1475154768028	b	66
229997	2464107	Are you being a baby?	Are you being a baby?	117038572	1475154768126	1475154768187	y	89
229997	2464107	Are you being a baby?	Are you being a baby?	117038586	1475154768172	1475154768383	SHIFT	16
229997	2464107	Are you being a baby?	Are you being a baby?	117038584	1475154768223	1475154768305	?	191
229997	2464110	I talked to Duran.	I talked to Duran.	117038679	1475154769633	1475154769735	CAPS_LOCK	20
229997	2464110	I talked to Duran.	I talked to Duran.	117038682	1475154769970	1475154770067	I	73
229997	2464110	I talked to Duran.	I talked to Duran.	117038684	1475154770067	1475154770181	CAPS_LOCK	20
229997	2464110	I talked to Duran.	I talked to Duran.	117038688	1475154770145	1475154770270	 	32
229997	2464110	I talked to Duran.	I talked to Duran.	117038692	1475154770235	1475154770336	t	84
229997	2464110	I talked to Duran.	I talked to Duran.	117038697	1475154770286	1475154770421	a	65
229997	2464110	I talked to Duran.	I talked to Duran.	117038701	1475154770383	1475154770436	l	76
229997	2464110	I talked to Duran.	I talked to Duran.	117038704	1475154770495	1475154770587	k	75
229997	2464110	I talked to Duran.	I talked to Duran.	117038708	1475154770553	1475154770655	e	69
229997	2464110	I talked to Duran.	I talked to Duran.	117038712	1475154770619	1475154770670	d	68
229997	2464110	I talked to Duran.	I talked to Duran.	117038716	1475154770670	1475154770795	 	32
229997	2464110	I talked to Duran.	I talked to Duran.	117038747	1475154770768	1475154770837	t	84
229997	2464110	I talked to Duran.	I talked to Duran.	117038749	1475154770811	1475154770900	o	79
229997	2464110	I talked to Duran.	I talked to Duran.	117038751	1475154770900	1475154770969	 	32
229997	2464110	I talked to Duran.	I talked to Duran.	117038755	1475154770985	1475154771067	d	68
229997	2464110	I talked to Duran.	I talked to Duran.	117038759	1475154771229	1475154771333	BKSP	8
229997	2464110	I talked to Duran.	I talked to Duran.	117038763	1475154771302	1475154771380	CAPS_LOCK	20
229997	2464110	I talked to Duran.	I talked to Duran.	117038768	1475154771380	1475154771453	D	68
229997	2464110	I talked to Duran.	I talked to Duran.	117038772	1475154771453	1475154771548	CAPS_LOCK	20
229997	2464110	I talked to Duran.	I talked to Duran.	117038778	1475154771531	1475154771603	u	85
229997	2464110	I talked to Duran.	I talked to Duran.	117038779	1475154771603	1475154771692	r	82
229997	2464110	I talked to Duran.	I talked to Duran.	117038781	1475154771652	1475154771769	a	65
229997	2464110	I talked to Duran.	I talked to Duran.	117038783	1475154771705	1475154771769	n	78
229997	2464110	I talked to Duran.	I talked to Duran.	117038786	1475154771878	1475154771969	.	190
229997	2464118	He disputed reports that Wheatley would be out four weeks.	He disputed reports that Wheatley would be out four weeks.	117038907	1475154773179	1475154773337	CAPS_LOCK	20
229997	2464118	He disputed reports that Wheatley would be out four weeks.	He disputed reports that Wheatley would be out four weeks.	117038909	1475154773462	1475154773551	H	72
229997	2464118	He disputed reports that Wheatley would be out four weeks.	He disputed reports that Wheatley would be out four weeks.	117038912	1475154773551	1475154773661	CAPS_LOCK	20
229997	2464118	He disputed reports that Wheatley would be out four weeks.	He disputed reports that Wheatley would be out four weeks.	117038915	1475154773692	1475154773769	e	69
229997	2464118	He disputed reports that Wheatley would be out four weeks.	He disputed reports that Wheatley would be out four weeks.	117038918	1475154773785	1475154773870	 	32
229997	2464118	He disputed reports that Wheatley would be out four weeks.	He disputed reports that Wheatley would be out four weeks.	117038921	1475154773821	1475154773901	s	83
229997	2464118	He disputed reports that Wheatley would be out four weeks.	He disputed reports that Wheatley would be out four weeks.	117038926	1475154774042	1475154774134	BKSP	8
229997	2464118	He disputed reports that Wheatley would be out four weeks.	He disputed reports that Wheatley would be out four weeks.	117038929	1475154774134	1475154774219	d	68
229997	2464118	He disputed reports that Wheatley would be out four weeks.	He disputed reports that Wheatley would be out four weeks.	117038935	1475154774219	1475154774285	i	73
229997	2464118	He disputed reports that Wheatley would be out four weeks.	He disputed reports that Wheatley would be out four weeks.	117038940	1475154774285	1475154774395	s	83
229997	2464118	He disputed reports that Wheatley would be out four weeks.	He disputed reports that Wheatley would be out four weeks.	117038945	1475154774376	1475154774453	p	80
229997	2464118	He disputed reports that Wheatley would be out four weeks.	He disputed reports that Wheatley would be out four weeks.	117038950	1475154774562	1475154774636	u	85
229997	2464118	He disputed reports that Wheatley would be out four weeks.	He disputed reports that Wheatley would be out four weeks.	117038956	1475154774651	1475154774720	t	84
229997	2464118	He disputed reports that Wheatley would be out four weeks.	He disputed reports that Wheatley would be out four weeks.	117038987	1475154774819	1475154774843	t	84
229997	2464118	He disputed reports that Wheatley would be out four weeks.	He disputed reports that Wheatley would be out four weeks.	117038993	1475154775073	1475154775164	BKSP	8
229997	2464118	He disputed reports that Wheatley would be out four weeks.	He disputed reports that Wheatley would be out four weeks.	117038998	1475154775320	1475154775452	e	69
229997	2464118	He disputed reports that Wheatley would be out four weeks.	He disputed reports that Wheatley would be out four weeks.	117039005	1475154775386	1475154775468	d	68
229997	2464118	He disputed reports that Wheatley would be out four weeks.	He disputed reports that Wheatley would be out four weeks.	117039008	1475154775484	1475154775612	 	32
229997	2464118	He disputed reports that Wheatley would be out four weeks.	He disputed reports that Wheatley would be out four weeks.	117039045	1475154775583	1475154775655	t	84
229997	2464118	He disputed reports that Wheatley would be out four weeks.	He disputed reports that Wheatley would be out four weeks.	117039047	1475154775670	1475154775720	h	72
229997	2464118	He disputed reports that Wheatley would be out four weeks.	He disputed reports that Wheatley would be out four weeks.	117039051	1475154775845	1475154775918	BKSP	8
229997	2464118	He disputed reports that Wheatley would be out four weeks.	He disputed reports that Wheatley would be out four weeks.	117039054	1475154775981	1475154776067	BKSP	8
229997	2464118	He disputed reports that Wheatley would be out four weeks.	He disputed reports that Wheatley would be out four weeks.	117039058	1475154776067	1475154776131	r	82
229997	2464118	He disputed reports that Wheatley would be out four weeks.	He disputed reports that Wheatley would be out four weeks.	117039062	1475154776103	1475154776219	e	69
229997	2464118	He disputed reports that Wheatley would be out four weeks.	He disputed reports that Wheatley would be out four weeks.	117039070	1475154776155	1475154776219	p	80
229997	2464118	He disputed reports that Wheatley would be out four weeks.	He disputed reports that Wheatley would be out four weeks.	117039077	1475154776297	1475154776388	o	79
229997	2464118	He disputed reports that Wheatley would be out four weeks.	He disputed reports that Wheatley would be out four weeks.	117039091	1475154776353	1475154776455	r	82
229997	2464118	He disputed reports that Wheatley would be out four weeks.	He disputed reports that Wheatley would be out four weeks.	117039096	1475154776414	1475154776533	t	84
229997	2464118	He disputed reports that Wheatley would be out four weeks.	He disputed reports that Wheatley would be out four weeks.	117039101	1475154776533	1475154776635	s	83
229997	2464118	He disputed reports that Wheatley would be out four weeks.	He disputed reports that Wheatley would be out four weeks.	117039107	1475154776602	1475154776712	 	32
229997	2464118	He disputed reports that Wheatley would be out four weeks.	He disputed reports that Wheatley would be out four weeks.	117039111	1475154776712	1475154776786	t	84
229997	2464118	He disputed reports that Wheatley would be out four weeks.	He disputed reports that Wheatley would be out four weeks.	117039115	1475154776818	1475154776916	h	72
229997	2464118	He disputed reports that Wheatley would be out four weeks.	He disputed reports that Wheatley would be out four weeks.	117039135	1475154776917	1475154777004	a	65
229997	2464118	He disputed reports that Wheatley would be out four weeks.	He disputed reports that Wheatley would be out four weeks.	117039137	1475154776969	1475154777067	t	84
229997	2464118	He disputed reports that Wheatley would be out four weeks.	He disputed reports that Wheatley would be out four weeks.	117039139	1475154777035	1475154777117	 	32
229997	2464118	He disputed reports that Wheatley would be out four weeks.	He disputed reports that Wheatley would be out four weeks.	117039140	1475154777117	1475154777251	CAPS_LOCK	20
229997	2464118	He disputed reports that Wheatley would be out four weeks.	He disputed reports that Wheatley would be out four weeks.	117039144	1475154777211	1475154777316	W	87
229997	2464118	He disputed reports that Wheatley would be out four weeks.	He disputed reports that Wheatley would be out four weeks.	117039148	1475154777316	1475154777455	CAPS_LOCK	20
229997	2464118	He disputed reports that Wheatley would be out four weeks.	He disputed reports that Wheatley would be out four weeks.	117039168	1475154777426	1475154777486	h	72
229997	2464118	He disputed reports that Wheatley would be out four weeks.	He disputed reports that Wheatley would be out four weeks.	117039172	1475154777533	1475154777653	e	69
229997	2464118	He disputed reports that Wheatley would be out four weeks.	He disputed reports that Wheatley would be out four weeks.	117039178	1475154777617	1475154777751	a	65
229997	2464118	He disputed reports that Wheatley would be out four weeks.	He disputed reports that Wheatley would be out four weeks.	117039176	1475154777685	1475154777720	e	69
229997	2464118	He disputed reports that Wheatley would be out four weeks.	He disputed reports that Wheatley would be out four weeks.	117039180	1475154777751	1475154777820	t	84
229997	2464118	He disputed reports that Wheatley would be out four weeks.	He disputed reports that Wheatley would be out four weeks.	117039183	1475154777913	1475154777992	l	76
229997	2464118	He disputed reports that Wheatley would be out four weeks.	He disputed reports that Wheatley would be out four weeks.	117039198	1475154777992	1475154778120	e	69
229997	2464118	He disputed reports that Wheatley would be out four weeks.	He disputed reports that Wheatley would be out four weeks.	117039201	1475154778053	1475154778163	y	89
229997	2464118	He disputed reports that Wheatley would be out four weeks.	He disputed reports that Wheatley would be out four weeks.	117039206	1475154778120	1475154778219	 	32
229997	2464118	He disputed reports that Wheatley would be out four weeks.	He disputed reports that Wheatley would be out four weeks.	117039211	1475154778359	1475154778475	w	87
229997	2464118	He disputed reports that Wheatley would be out four weeks.	He disputed reports that Wheatley would be out four weeks.	117039344	1475154778450	1475154778518	h	72
229997	2464118	He disputed reports that Wheatley would be out four weeks.	He disputed reports that Wheatley would be out four weeks.	117039347	1475154778643	1475154778686	BKSP	8
229997	2464118	He disputed reports that Wheatley would be out four weeks.	He disputed reports that Wheatley would be out four weeks.	117039349	1475154778779	1475154778837	BKSP	8
229997	2464118	He disputed reports that Wheatley would be out four weeks.	He disputed reports that Wheatley would be out four weeks.	117039352	1475154778959	1475154779009	BKSP	8
229997	2464118	He disputed reports that Wheatley would be out four weeks.	He disputed reports that Wheatley would be out four weeks.	117039354	1475154779678	1475154779736	BKSP	8
229997	2464118	He disputed reports that Wheatley would be out four weeks.	He disputed reports that Wheatley would be out four weeks.	117039357	1475154779845	1475154779918	BKSP	8
229997	2464118	He disputed reports that Wheatley would be out four weeks.	He disputed reports that Wheatley would be out four weeks.	117039360	1475154780012	1475154780069	BKSP	8
229997	2464118	He disputed reports that Wheatley would be out four weeks.	He disputed reports that Wheatley would be out four weeks.	117039366	1475154780179	1475154780221	BKSP	8
229997	2464118	He disputed reports that Wheatley would be out four weeks.	He disputed reports that Wheatley would be out four weeks.	117039372	1475154780346	1475154780434	BKSP	8
229997	2464118	He disputed reports that Wheatley would be out four weeks.	He disputed reports that Wheatley would be out four weeks.	117039377	1475154780591	1475154780637	t	84
229997	2464118	He disputed reports that Wheatley would be out four weeks.	He disputed reports that Wheatley would be out four weeks.	117039382	1475154780653	1475154780744	l	76
229997	2464118	He disputed reports that Wheatley would be out four weeks.	He disputed reports that Wheatley would be out four weeks.	117039386	1475154780791	1475154780904	e	69
229997	2464118	He disputed reports that Wheatley would be out four weeks.	He disputed reports that Wheatley would be out four weeks.	117039391	1475154780868	1475154780954	y	89
229997	2464118	He disputed reports that Wheatley would be out four weeks.	He disputed reports that Wheatley would be out four weeks.	117039471	1475154780904	1475154781014	 	32
229997	2464118	He disputed reports that Wheatley would be out four weeks.	He disputed reports that Wheatley would be out four weeks.	117039474	1475154781483	1475154781537	o	87
229997	2464118	He disputed reports that Wheatley would be out four weeks.	He disputed reports that Wheatley would be out four weeks.	117039478	1475154781646	1475154781718	u	85
229997	2464118	He disputed reports that Wheatley would be out four weeks.	He disputed reports that Wheatley would be out four weeks.	117039484	1475154781870	1475154782151	CTRL	17
229997	2464118	He disputed reports that Wheatley would be out four weeks.	He disputed reports that Wheatley would be out four weeks.	117039488	1475154782518	1475154782721	CTRL	17
229997	2464118	He disputed reports that Wheatley would be out four weeks.	He disputed reports that Wheatley would be out four weeks.	117039493	1475154782988	1475154783052	l	76
229997	2464118	He disputed reports that Wheatley would be out four weeks.	He disputed reports that Wheatley would be out four weeks.	117039497	1475154783052	1475154783155	d	68
229997	2464118	He disputed reports that Wheatley would be out four weeks.	He disputed reports that Wheatley would be out four weeks.	117039508	1475154783135	1475154783235	 	32
229997	2464118	He disputed reports that Wheatley would be out four weeks.	He disputed reports that Wheatley would be out four weeks.	117039512	1475154783375	1475154783487	b	66
229997	2464118	He disputed reports that Wheatley would be out four weeks.	He disputed reports that Wheatley would be out four weeks.	117039514	1475154783452	1475154783554	e	69
229997	2464118	He disputed reports that Wheatley would be out four weeks.	He disputed reports that Wheatley would be out four weeks.	117039517	1475154783502	1475154783601	 	32
229997	2464118	He disputed reports that Wheatley would be out four weeks.	He disputed reports that Wheatley would be out four weeks.	117039521	1475154783686	1475154783736	o	79
229997	2464118	He disputed reports that Wheatley would be out four weeks.	He disputed reports that Wheatley would be out four weeks.	117039525	1475154783815	1475154783907	u	85
229997	2464118	He disputed reports that Wheatley would be out four weeks.	He disputed reports that Wheatley would be out four weeks.	117039563	1475154783884	1475154783952	t	84
229997	2464118	He disputed reports that Wheatley would be out four weeks.	He disputed reports that Wheatley would be out four weeks.	117039566	1475154783952	1475154784075	 	32
229997	2464118	He disputed reports that Wheatley would be out four weeks.	He disputed reports that Wheatley would be out four weeks.	117039569	1475154784050	1475154784104	f	70
229997	2464118	He disputed reports that Wheatley would be out four weeks.	He disputed reports that Wheatley would be out four weeks.	117039571	1475154784104	1475154784185	o	79
229997	2464118	He disputed reports that Wheatley would be out four weeks.	He disputed reports that Wheatley would be out four weeks.	117039574	1475154784185	1475154784253	r	82
229997	2464118	He disputed reports that Wheatley would be out four weeks.	He disputed reports that Wheatley would be out four weeks.	117039576	1475154784503	1475154784568	BKSP	8
229997	2464118	He disputed reports that Wheatley would be out four weeks.	He disputed reports that Wheatley would be out four weeks.	117039579	1475154784631	1475154784739	u	85
229997	2464118	He disputed reports that Wheatley would be out four weeks.	He disputed reports that Wheatley would be out four weeks.	117039584	1475154784701	1475154784800	r	82
229997	2464118	He disputed reports that Wheatley would be out four weeks.	He disputed reports that Wheatley would be out four weeks.	117039585	1475154784800	1475154784884	 	32
229997	2464118	He disputed reports that Wheatley would be out four weeks.	He disputed reports that Wheatley would be out four weeks.	117039586	1475154784963	1475154785087	w	87
229997	2464118	He disputed reports that Wheatley would be out four weeks.	He disputed reports that Wheatley would be out four weeks.	117039587	1475154785052	1475154785102	e	69
229997	2464118	He disputed reports that Wheatley would be out four weeks.	He disputed reports that Wheatley would be out four weeks.	117039590	1475154785209	1475154785253	e	69
229997	2464118	He disputed reports that Wheatley would be out four weeks.	He disputed reports that Wheatley would be out four weeks.	117039592	1475154785268	1475154785337	k	75
229997	2464118	He disputed reports that Wheatley would be out four weeks.	He disputed reports that Wheatley would be out four weeks.	117039603	1475154785366	1475154785475	s	83
229997	2464118	He disputed reports that Wheatley would be out four weeks.	He disputed reports that Wheatley would be out four weeks.	117039609	1475154785434	1475154785518	.	190
229997	2464130	Bob,I'll take Denver to Win.	Bob, I'll take Denver to Win.	117039724	1475154786742	1475154786869	CAPS_LOCK	20
229997	2464130	Bob,I'll take Denver to Win.	Bob, I'll take Denver to Win.	117039726	1475154786978	1475154787083	B	66
229997	2464130	Bob,I'll take Denver to Win.	Bob, I'll take Denver to Win.	117039730	1475154787052	1475154787193	CAPS_LOCK	20
229997	2464130	Bob,I'll take Denver to Win.	Bob, I'll take Denver to Win.	117039737	1475154787224	1475154787316	o	79
229997	2464130	Bob,I'll take Denver to Win.	Bob, I'll take Denver to Win.	117039743	1475154787332	1475154787433	b	66
229997	2464130	Bob,I'll take Denver to Win.	Bob, I'll take Denver to Win.	117039748	1475154787542	1475154787633	,	188
229997	2464130	Bob,I'll take Denver to Win.	Bob, I'll take Denver to Win.	117039753	1475154787711	1475154787800	 	32
229997	2464130	Bob,I'll take Denver to Win.	Bob, I'll take Denver to Win.	117039903	1475154787769	1475154787870	CAPS_LOCK	20
229997	2464130	Bob,I'll take Denver to Win.	Bob, I'll take Denver to Win.	117039908	1475154787838	1475154787917	I	73
229997	2464130	Bob,I'll take Denver to Win.	Bob, I'll take Denver to Win.	117039915	1475154787948	1475154788083	CAPS_LOCK	20
229997	2464130	Bob,I'll take Denver to Win.	Bob, I'll take Denver to Win.	117039922	1475154788058	1475154788119	'	192
229997	2464130	Bob,I'll take Denver to Win.	Bob, I'll take Denver to Win.	117039930	1475154788213	1475154788269	l	76
229997	2464130	Bob,I'll take Denver to Win.	Bob, I'll take Denver to Win.	117039934	1475154788347	1475154788418	l	76
229997	2464130	Bob,I'll take Denver to Win.	Bob, I'll take Denver to Win.	117039937	1475154788899	1475154788953	BKSP	8
229997	2464130	Bob,I'll take Denver to Win.	Bob, I'll take Denver to Win.	117039939	1475154789046	1475154789103	BKSP	8
229997	2464130	Bob,I'll take Denver to Win.	Bob, I'll take Denver to Win.	117039940	1475154789196	1475154789253	BKSP	8
229997	2464130	Bob,I'll take Denver to Win.	Bob, I'll take Denver to Win.	117039942	1475154789362	1475154789420	BKSP	8
229997	2464130	Bob,I'll take Denver to Win.	Bob, I'll take Denver to Win.	117039944	1475154789510	1475154789569	BKSP	8
229997	2464130	Bob,I'll take Denver to Win.	Bob, I'll take Denver to Win.	117039947	1475154790087	1475154790215	 	32
229997	2464130	Bob,I'll take Denver to Win.	Bob, I'll take Denver to Win.	117039955	1475154790215	1475154790294	CAPS_LOCK	20
229997	2464130	Bob,I'll take Denver to Win.	Bob, I'll take Denver to Win.	117039956	1475154790294	1475154790369	I	73
229997	2464130	Bob,I'll take Denver to Win.	Bob, I'll take Denver to Win.	117039957	1475154790400	1475154790553	CAPS_LOCK	20
229997	2464130	Bob,I'll take Denver to Win.	Bob, I'll take Denver to Win.	117039959	1475154790509	1475154790584	'	192
229997	2464130	Bob,I'll take Denver to Win.	Bob, I'll take Denver to Win.	117039962	1475154790679	1475154790736	l	76
229997	2464130	Bob,I'll take Denver to Win.	Bob, I'll take Denver to Win.	117039967	1475154790814	1475154790916	l	76
229997	2464130	Bob,I'll take Denver to Win.	Bob, I'll take Denver to Win.	117039972	1475154790931	1475154791048	 	32
229997	2464130	Bob,I'll take Denver to Win.	Bob, I'll take Denver to Win.	117039983	1475154791048	1475154791136	t	84
229997	2464130	Bob,I'll take Denver to Win.	Bob, I'll take Denver to Win.	117039988	1475154791102	1475154791221	a	65
229997	2464130	Bob,I'll take Denver to Win.	Bob, I'll take Denver to Win.	117039996	1475154791183	1475154791275	k	75
229997	2464130	Bob,I'll take Denver to Win.	Bob, I'll take Denver to Win.	117040003	1475154791252	1475154791380	e	69
229997	2464130	Bob,I'll take Denver to Win.	Bob, I'll take Denver to Win.	117040010	1475154791380	1475154791435	 	32
229997	2464130	Bob,I'll take Denver to Win.	Bob, I'll take Denver to Win.	117040032	1475154791600	1475154791694	CAPS_LOCK	20
229997	2464130	Bob,I'll take Denver to Win.	Bob, I'll take Denver to Win.	117040036	1475154791694	1475154791784	D	68
229997	2464130	Bob,I'll take Denver to Win.	Bob, I'll take Denver to Win.	117040042	1475154791784	1475154791877	CAPS_LOCK	20
229997	2464130	Bob,I'll take Denver to Win.	Bob, I'll take Denver to Win.	117040046	1475154791893	1475154791999	e	69
229997	2464130	Bob,I'll take Denver to Win.	Bob, I'll take Denver to Win.	117040049	1475154791999	1475154792099	n	78
229997	2464130	Bob,I'll take Denver to Win.	Bob, I'll take Denver to Win.	117040052	1475154792099	1475154792169	v	86
229997	2464130	Bob,I'll take Denver to Win.	Bob, I'll take Denver to Win.	117040057	1475154792169	1475154792303	e	69
229997	2464130	Bob,I'll take Denver to Win.	Bob, I'll take Denver to Win.	117040061	1475154792267	1475154792327	r	82
229997	2464130	Bob,I'll take Denver to Win.	Bob, I'll take Denver to Win.	117040064	1475154792358	1475154792451	 	32
229997	2464130	Bob,I'll take Denver to Win.	Bob, I'll take Denver to Win.	117040071	1475154792418	1475154792453	t	84
229997	2464130	Bob,I'll take Denver to Win.	Bob, I'll take Denver to Win.	117040076	1475154792500	1475154792586	o	79
229997	2464130	Bob,I'll take Denver to Win.	Bob, I'll take Denver to Win.	117040084	1475154792552	1475154792653	 	32
229997	2464130	Bob,I'll take Denver to Win.	Bob, I'll take Denver to Win.	117040121	1475154792617	1475154792687	w	87
229997	2464130	Bob,I'll take Denver to Win.	Bob, I'll take Denver to Win.	117040124	1475154792759	1475154792958	CAPS_LOCK	20
229997	2464130	Bob,I'll take Denver to Win.	Bob, I'll take Denver to Win.	117040128	1475154792958	1475154793035	BKSP	8
229997	2464130	Bob,I'll take Denver to Win.	Bob, I'll take Denver to Win.	117040135	1475154793082	1475154793167	W	87
229997	2464130	Bob,I'll take Denver to Win.	Bob, I'll take Denver to Win.	117040144	1475154793151	1475154793323	CAPS_LOCK	20
229997	2464130	Bob,I'll take Denver to Win.	Bob, I'll take Denver to Win.	117040152	1475154793339	1475154793370	i	73
229997	2464130	Bob,I'll take Denver to Win.	Bob, I'll take Denver to Win.	117040161	1475154793433	1475154793532	n	78
229997	2464130	Bob,I'll take Denver to Win.	Bob, I'll take Denver to Win.	117040165	1475154793564	1475154793651	.	190
229997	2464142	I was runner-up three times.	I was runner-up three times.	117040471	1475154799044	1475154799131	CAPS_LOCK	20
229997	2464142	I was runner-up three times.	I was runner-up three times.	117040472	1475154799131	1475154799216	I	73
229997	2464142	I was runner-up three times.	I was runner-up three times.	117040476	1475154799201	1475154799295	CAPS_LOCK	20
229997	2464142	I was runner-up three times.	I was runner-up three times.	117040480	1475154799295	1475154799418	 	32
229997	2464142	I was runner-up three times.	I was runner-up three times.	117040484	1475154799352	1475154799454	w	87
229997	2464142	I was runner-up three times.	I was runner-up three times.	117040487	1475154799418	1475154799539	a	65
229997	2464142	I was runner-up three times.	I was runner-up three times.	117040496	1475154799501	1475154799579	s	83
229997	2464142	I was runner-up three times.	I was runner-up three times.	117040501	1475154799554	1475154799681	 	32
229997	2464142	I was runner-up three times.	I was runner-up three times.	117040505	1475154799681	1475154799736	r	82
229997	2464142	I was runner-up three times.	I was runner-up three times.	117040508	1475154799736	1475154799802	u	85
229997	2464142	I was runner-up three times.	I was runner-up three times.	117040515	1475154799896	1475154799936	n	78
229997	2464142	I was runner-up three times.	I was runner-up three times.	117040518	1475154800014	1475154800123	n	78
229997	2464142	I was runner-up three times.	I was runner-up three times.	117040547	1475154800123	1475154800217	e	69
229997	2464142	I was runner-up three times.	I was runner-up three times.	117040549	1475154800184	1475154800267	r	82
229997	2464142	I was runner-up three times.	I was runner-up three times.	117040554	1475154800674	1475154800736	-	189
229997	2464142	I was runner-up three times.	I was runner-up three times.	117040559	1475154800767	1475154800851	u	85
229997	2464142	I was runner-up three times.	I was runner-up three times.	117040563	1475154800882	1475154800966	p	80
229997	2464142	I was runner-up three times.	I was runner-up three times.	117040582	1475154801030	1475154801101	 	32
229997	2464142	I was runner-up three times.	I was runner-up three times.	117040587	1475154801163	1475154801271	t	84
229997	2464142	I was runner-up three times.	I was runner-up three times.	117040590	1475154801286	1475154801386	h	72
229997	2464142	I was runner-up three times.	I was runner-up three times.	117040594	1475154801386	1475154801476	r	82
229997	2464142	I was runner-up three times.	I was runner-up three times.	117040630	1475154801452	1475154801504	e	69
229997	2464142	I was runner-up three times.	I was runner-up three times.	117040631	1475154801566	1475154801686	e	69
229997	2464142	I was runner-up three times.	I was runner-up three times.	117040632	1475154801650	1475154801752	 	32
229997	2464142	I was runner-up three times.	I was runner-up three times.	117040633	1475154801702	1475154801779	t	84
229997	2464142	I was runner-up three times.	I was runner-up three times.	117040635	1475154801752	1475154801802	i	73
229997	2464142	I was runner-up three times.	I was runner-up three times.	117040638	1475154801901	1475154801952	m	77
229997	2464142	I was runner-up three times.	I was runner-up three times.	117040640	1475154801975	1475154802076	e	69
229997	2464142	I was runner-up three times.	I was runner-up three times.	117040642	1475154802051	1475154802134	s	83
229997	2464149	I was a bit rusty but I didn't want to miss the elections back home.	I was a bit rusty but i didn't want to miss the elecctions back home.	117041159	1475154802076	1475154811964	.	190
229997	2464149	I was a bit rusty but I didn't want to miss the elections back home.	I was a bit rusty but i didn't want to miss the elecctions back home.	117040720	1475154803140	1475154803235	CAPS_LOCK	20
229997	2464149	I was a bit rusty but I didn't want to miss the elections back home.	I was a bit rusty but i didn't want to miss the elecctions back home.	117040722	1475154803236	1475154803301	I	73
229997	2464149	I was a bit rusty but I didn't want to miss the elections back home.	I was a bit rusty but i didn't want to miss the elecctions back home.	117040727	1475154803317	1475154803379	CAPS_LOCK	20
229997	2464149	I was a bit rusty but I didn't want to miss the elections back home.	I was a bit rusty but i didn't want to miss the elecctions back home.	117040735	1475154803379	1475154803470	 	32
229997	2464149	I was a bit rusty but I didn't want to miss the elections back home.	I was a bit rusty but i didn't want to miss the elecctions back home.	117040742	1475154803420	1475154803537	w	87
229997	2464149	I was a bit rusty but I didn't want to miss the elections back home.	I was a bit rusty but i didn't want to miss the elecctions back home.	117040750	1475154803501	1475154803595	a	65
229997	2464149	I was a bit rusty but I didn't want to miss the elections back home.	I was a bit rusty but i didn't want to miss the elecctions back home.	117040755	1475154803568	1475154803659	s	83
229997	2464149	I was a bit rusty but I didn't want to miss the elections back home.	I was a bit rusty but i didn't want to miss the elecctions back home.	117040758	1475154803635	1475154803719	 	32
229997	2464149	I was a bit rusty but I didn't want to miss the elections back home.	I was a bit rusty but i didn't want to miss the elecctions back home.	117040762	1475154803685	1475154803800	a	65
229997	2464149	I was a bit rusty but I didn't want to miss the elections back home.	I was a bit rusty but i didn't want to miss the elecctions back home.	117040765	1475154803800	1475154803891	 	32
229997	2464149	I was a bit rusty but I didn't want to miss the elections back home.	I was a bit rusty but i didn't want to miss the elecctions back home.	117040767	1475154803867	1475154803965	b	66
229997	2464149	I was a bit rusty but I didn't want to miss the elections back home.	I was a bit rusty but i didn't want to miss the elecctions back home.	117040769	1475154803965	1475154804050	i	73
229997	2464149	I was a bit rusty but I didn't want to miss the elections back home.	I was a bit rusty but i didn't want to miss the elecctions back home.	117040775	1475154804050	1475154804133	t	84
229997	2464149	I was a bit rusty but I didn't want to miss the elections back home.	I was a bit rusty but i didn't want to miss the elecctions back home.	117040778	1475154804133	1475154804252	 	32
229997	2464149	I was a bit rusty but I didn't want to miss the elections back home.	I was a bit rusty but i didn't want to miss the elecctions back home.	117040781	1475154804224	1475154804301	r	82
229997	2464149	I was a bit rusty but I didn't want to miss the elections back home.	I was a bit rusty but i didn't want to miss the elecctions back home.	117040785	1475154804348	1475154804416	u	85
229997	2464149	I was a bit rusty but I didn't want to miss the elections back home.	I was a bit rusty but i didn't want to miss the elecctions back home.	117040789	1475154804416	1475154804543	s	83
229997	2464149	I was a bit rusty but I didn't want to miss the elections back home.	I was a bit rusty but i didn't want to miss the elecctions back home.	117040838	1475154804484	1475154804582	t	84
229997	2464149	I was a bit rusty but I didn't want to miss the elections back home.	I was a bit rusty but i didn't want to miss the elecctions back home.	117040844	1475154804676	1475154804734	y	89
229997	2464149	I was a bit rusty but I didn't want to miss the elections back home.	I was a bit rusty but i didn't want to miss the elecctions back home.	117040850	1475154804750	1475154804834	 	32
229997	2464149	I was a bit rusty but I didn't want to miss the elections back home.	I was a bit rusty but i didn't want to miss the elecctions back home.	117040855	1475154804975	1475154805067	b	66
229997	2464149	I was a bit rusty but I didn't want to miss the elections back home.	I was a bit rusty but i didn't want to miss the elecctions back home.	117040858	1475154805114	1475154805199	u	85
229997	2464149	I was a bit rusty but I didn't want to miss the elections back home.	I was a bit rusty but i didn't want to miss the elecctions back home.	117040863	1475154805465	1475154805534	t	84
229997	2464149	I was a bit rusty but I didn't want to miss the elections back home.	I was a bit rusty but i didn't want to miss the elecctions back home.	117040878	1475154805534	1475154805601	 	32
229997	2464149	I was a bit rusty but I didn't want to miss the elections back home.	I was a bit rusty but i didn't want to miss the elecctions back home.	117040881	1475154805632	1475154805732	i	73
229997	2464149	I was a bit rusty but I didn't want to miss the elections back home.	I was a bit rusty but i didn't want to miss the elecctions back home.	117040884	1475154805660	1475154805732	CAPS_LOCK	20
229997	2464149	I was a bit rusty but I didn't want to miss the elections back home.	I was a bit rusty but i didn't want to miss the elecctions back home.	117040889	1475154805779	1475154805867	 	32
229997	2464149	I was a bit rusty but I didn't want to miss the elections back home.	I was a bit rusty but i didn't want to miss the elecctions back home.	117040892	1475154805820	1475154805945	CAPS_LOCK	20
229997	2464149	I was a bit rusty but I didn't want to miss the elections back home.	I was a bit rusty but i didn't want to miss the elecctions back home.	117040895	1475154806023	1475154806133	d	68
229997	2464149	I was a bit rusty but I didn't want to miss the elections back home.	I was a bit rusty but i didn't want to miss the elecctions back home.	117040896	1475154806180	1475154806244	i	73
229997	2464149	I was a bit rusty but I didn't want to miss the elections back home.	I was a bit rusty but i didn't want to miss the elecctions back home.	117040907	1475154806219	1475154806335	d	68
229997	2464149	I was a bit rusty but I didn't want to miss the elections back home.	I was a bit rusty but i didn't want to miss the elecctions back home.	117040912	1475154806271	1475154806351	n	78
229997	2464149	I was a bit rusty but I didn't want to miss the elections back home.	I was a bit rusty but i didn't want to miss the elecctions back home.	117040915	1475154806367	1475154806491	'	192
229997	2464149	I was a bit rusty but I didn't want to miss the elections back home.	I was a bit rusty but i didn't want to miss the elecctions back home.	117040920	1475154806465	1475154806565	t	84
229997	2464149	I was a bit rusty but I didn't want to miss the elections back home.	I was a bit rusty but i didn't want to miss the elecctions back home.	117040926	1475154806565	1475154806650	 	32
229997	2464149	I was a bit rusty but I didn't want to miss the elections back home.	I was a bit rusty but i didn't want to miss the elecctions back home.	117040929	1475154806772	1475154806894	w	87
229997	2464149	I was a bit rusty but I didn't want to miss the elections back home.	I was a bit rusty but i didn't want to miss the elecctions back home.	117040947	1475154806894	1475154806968	o	79
229997	2464149	I was a bit rusty but I didn't want to miss the elections back home.	I was a bit rusty but i didn't want to miss the elecctions back home.	117040950	1475154807186	1475154807236	BKSP	8
229997	2464149	I was a bit rusty but I didn't want to miss the elections back home.	I was a bit rusty but i didn't want to miss the elecctions back home.	117040953	1475154807283	1475154807396	a	65
229997	2464149	I was a bit rusty but I didn't want to miss the elections back home.	I was a bit rusty but i didn't want to miss the elecctions back home.	117040956	1475154807366	1475154807434	n	78
229997	2464149	I was a bit rusty but I didn't want to miss the elections back home.	I was a bit rusty but i didn't want to miss the elecctions back home.	117040958	1475154807434	1475154807517	t	84
229997	2464149	I was a bit rusty but I didn't want to miss the elections back home.	I was a bit rusty but i didn't want to miss the elecctions back home.	117040960	1475154807532	1475154807643	 	32
229997	2464149	I was a bit rusty but I didn't want to miss the elections back home.	I was a bit rusty but i didn't want to miss the elecctions back home.	117040961	1475154807601	1475154807671	t	84
229997	2464149	I was a bit rusty but I didn't want to miss the elections back home.	I was a bit rusty but i didn't want to miss the elecctions back home.	117040963	1475154807671	1475154807735	o	79
229997	2464149	I was a bit rusty but I didn't want to miss the elections back home.	I was a bit rusty but i didn't want to miss the elecctions back home.	117040966	1475154807735	1475154807834	 	32
229997	2464149	I was a bit rusty but I didn't want to miss the elections back home.	I was a bit rusty but i didn't want to miss the elecctions back home.	117040969	1475154807834	1475154807900	m	77
229997	2464149	I was a bit rusty but I didn't want to miss the elections back home.	I was a bit rusty but i didn't want to miss the elecctions back home.	117040972	1475154807994	1475154808083	i	73
229997	2464149	I was a bit rusty but I didn't want to miss the elections back home.	I was a bit rusty but i didn't want to miss the elecctions back home.	117040975	1475154808083	1475154808144	s	83
229997	2464149	I was a bit rusty but I didn't want to miss the elections back home.	I was a bit rusty but i didn't want to miss the elecctions back home.	117040979	1475154808206	1475154808319	s	83
229997	2464149	I was a bit rusty but I didn't want to miss the elections back home.	I was a bit rusty but i didn't want to miss the elecctions back home.	117040980	1475154808284	1475154808402	 	32
229997	2464149	I was a bit rusty but I didn't want to miss the elections back home.	I was a bit rusty but i didn't want to miss the elecctions back home.	117040981	1475154808350	1475154808433	t	84
229997	2464149	I was a bit rusty but I didn't want to miss the elections back home.	I was a bit rusty but i didn't want to miss the elecctions back home.	117040982	1475154808433	1475154808520	h	72
229997	2464149	I was a bit rusty but I didn't want to miss the elections back home.	I was a bit rusty but i didn't want to miss the elecctions back home.	117041011	1475154808485	1475154808558	e	69
229997	2464149	I was a bit rusty but I didn't want to miss the elections back home.	I was a bit rusty but i didn't want to miss the elecctions back home.	117041016	1475154808574	1475154808666	 	32
229997	2464149	I was a bit rusty but I didn't want to miss the elections back home.	I was a bit rusty but i didn't want to miss the elecctions back home.	117041020	1475154808666	1475154808736	e	69
229997	2464149	I was a bit rusty but I didn't want to miss the elections back home.	I was a bit rusty but i didn't want to miss the elecctions back home.	117041022	1475154808736	1475154808824	l	76
229997	2464149	I was a bit rusty but I didn't want to miss the elections back home.	I was a bit rusty but i didn't want to miss the elecctions back home.	117041025	1475154808824	1475154808968	e	69
229997	2464149	I was a bit rusty but I didn't want to miss the elections back home.	I was a bit rusty but i didn't want to miss the elecctions back home.	117041068	1475154808900	1475154808987	c	67
229997	2464149	I was a bit rusty but I didn't want to miss the elections back home.	I was a bit rusty but i didn't want to miss the elecctions back home.	117041070	1475154809580	1475154809697	c	67
229997	2464149	I was a bit rusty but I didn't want to miss the elections back home.	I was a bit rusty but i didn't want to miss the elecctions back home.	117041074	1475154809806	1475154809899	t	84
229997	2464149	I was a bit rusty but I didn't want to miss the elections back home.	I was a bit rusty but i didn't want to miss the elecctions back home.	117041081	1475154809899	1475154809951	i	73
229997	2464149	I was a bit rusty but I didn't want to miss the elections back home.	I was a bit rusty but i didn't want to miss the elecctions back home.	117041085	1475154810045	1475154810153	o	79
229997	2464149	I was a bit rusty but I didn't want to miss the elections back home.	I was a bit rusty but i didn't want to miss the elecctions back home.	117041126	1475154810102	1475154810199	n	78
229997	2464149	I was a bit rusty but I didn't want to miss the elections back home.	I was a bit rusty but i didn't want to miss the elecctions back home.	117041128	1475154810199	1475154810269	 	32
229997	2464149	I was a bit rusty but I didn't want to miss the elections back home.	I was a bit rusty but i didn't want to miss the elecctions back home.	117041130	1475154810613	1475154810749	BKSP	8
229997	2464149	I was a bit rusty but I didn't want to miss the elections back home.	I was a bit rusty but i didn't want to miss the elecctions back home.	117041132	1475154810827	1475154810979	s	83
229997	2464149	I was a bit rusty but I didn't want to miss the elections back home.	I was a bit rusty but i didn't want to miss the elecctions back home.	117041134	1475154810979	1475154811067	 	32
229997	2464149	I was a bit rusty but I didn't want to miss the elections back home.	I was a bit rusty but i didn't want to miss the elecctions back home.	117041136	1475154811114	1475154811184	b	66
229997	2464149	I was a bit rusty but I didn't want to miss the elections back home.	I was a bit rusty but i didn't want to miss the elecctions back home.	117041138	1475154811262	1475154811319	a	65
229997	2464149	I was a bit rusty but I didn't want to miss the elections back home.	I was a bit rusty but i didn't want to miss the elecctions back home.	117041142	1475154811291	1475154811368	c	67
229997	2464149	I was a bit rusty but I didn't want to miss the elections back home.	I was a bit rusty but i didn't want to miss the elecctions back home.	117041144	1475154811319	1475154811430	k	75
229997	2464149	I was a bit rusty but I didn't want to miss the elections back home.	I was a bit rusty but i didn't want to miss the elecctions back home.	117041147	1475154811446	1475154811518	 	32
229997	2464149	I was a bit rusty but I didn't want to miss the elections back home.	I was a bit rusty but i didn't want to miss the elecctions back home.	117041149	1475154811518	1475154811585	h	72
229997	2464149	I was a bit rusty but I didn't want to miss the elections back home.	I was a bit rusty but i didn't want to miss the elecctions back home.	117041151	1475154811585	1475154811643	o	79
229997	2464149	I was a bit rusty but I didn't want to miss the elections back home.	I was a bit rusty but i didn't want to miss the elecctions back home.	117041154	1475154811728	1475154811785	m	77
229997	2464149	I was a bit rusty but I didn't want to miss the elections back home.	I was a bit rusty but i didn't want to miss the elecctions back home.	117041156	1475154811843	1475154811916	e	69
229997	2464164	Liverpool failed again in when they were beaten at Wembley.	Liverpool failed again in when they were beaten at Wembley.	117041271	1475154813297	1475154813454	CAPS_LOCK	20
229997	2464164	Liverpool failed again in when they were beaten at Wembley.	Liverpool failed again in when they were beaten at Wembley.	117041273	1475154813594	1475154813682	L	76
229997	2464164	Liverpool failed again in when they were beaten at Wembley.	Liverpool failed again in when they were beaten at Wembley.	117041277	1475154813635	1475154813803	CAPS_LOCK	20
229997	2464164	Liverpool failed again in when they were beaten at Wembley.	Liverpool failed again in when they were beaten at Wembley.	117041280	1475154813776	1475154813835	i	73
229997	2464164	Liverpool failed again in when they were beaten at Wembley.	Liverpool failed again in when they were beaten at Wembley.	117041285	1475154813835	1475154813917	v	86
229997	2464164	Liverpool failed again in when they were beaten at Wembley.	Liverpool failed again in when they were beaten at Wembley.	117041289	1475154813917	1475154814052	e	69
229997	2464164	Liverpool failed again in when they were beaten at Wembley.	Liverpool failed again in when they were beaten at Wembley.	117041305	1475154814016	1475154814107	r	82
229997	2464164	Liverpool failed again in when they were beaten at Wembley.	Liverpool failed again in when they were beaten at Wembley.	117041308	1475154814087	1475154814134	p	80
229997	2464164	Liverpool failed again in when they were beaten at Wembley.	Liverpool failed again in when they were beaten at Wembley.	117041311	1475154814212	1475154814284	o	79
229997	2464164	Liverpool failed again in when they were beaten at Wembley.	Liverpool failed again in when they were beaten at Wembley.	117041314	1475154814362	1475154814402	o	79
229997	2464164	Liverpool failed again in when they were beaten at Wembley.	Liverpool failed again in when they were beaten at Wembley.	117041318	1475154814481	1475154814571	l	76
229997	2464164	Liverpool failed again in when they were beaten at Wembley.	Liverpool failed again in when they were beaten at Wembley.	117041323	1475154814572	1475154814640	f	32
229997	2464164	Liverpool failed again in when they were beaten at Wembley.	Liverpool failed again in when they were beaten at Wembley.	117041327	1475154814663	1475154814766	a	65
229997	2464164	Liverpool failed again in when they were beaten at Wembley.	Liverpool failed again in when they were beaten at Wembley.	117041325	1475154814692	1475154814734	i	73
229997	2464164	Liverpool failed again in when they were beaten at Wembley.	Liverpool failed again in when they were beaten at Wembley.	117041331	1475154814813	1475154814915	l	76
229997	2464164	Liverpool failed again in when they were beaten at Wembley.	Liverpool failed again in when they were beaten at Wembley.	117041334	1475154814915	1475154815002	e	69
229997	2464164	Liverpool failed again in when they were beaten at Wembley.	Liverpool failed again in when they were beaten at Wembley.	117041337	1475154814953	1475154815034	d	68
229997	2464164	Liverpool failed again in when they were beaten at Wembley.	Liverpool failed again in when they were beaten at Wembley.	117041339	1475154815034	1475154815103	 	32
229997	2464164	Liverpool failed again in when they were beaten at Wembley.	Liverpool failed again in when they were beaten at Wembley.	117041342	1475154815068	1475154815168	a	65
229997	2464164	Liverpool failed again in when they were beaten at Wembley.	Liverpool failed again in when they were beaten at Wembley.	117041347	1475154815168	1475154815268	g	71
229997	2464164	Liverpool failed again in when they were beaten at Wembley.	Liverpool failed again in when they were beaten at Wembley.	117041351	1475154815242	1475154815318	a	65
229997	2464164	Liverpool failed again in when they were beaten at Wembley.	Liverpool failed again in when they were beaten at Wembley.	117041354	1475154815318	1475154815396	i	73
229997	2464164	Liverpool failed again in when they were beaten at Wembley.	Liverpool failed again in when they were beaten at Wembley.	117041357	1475154815373	1475154815451	n	78
229997	2464164	Liverpool failed again in when they were beaten at Wembley.	Liverpool failed again in when they were beaten at Wembley.	117041360	1475154815451	1475154815536	 	32
229997	2464164	Liverpool failed again in when they were beaten at Wembley.	Liverpool failed again in when they were beaten at Wembley.	117041367	1475154815485	1475154815536	i	73
229997	2464164	Liverpool failed again in when they were beaten at Wembley.	Liverpool failed again in when they were beaten at Wembley.	117041373	1475154815618	1475154815708	n	78
229997	2464164	Liverpool failed again in when they were beaten at Wembley.	Liverpool failed again in when they were beaten at Wembley.	117041381	1475154815669	1475154815764	 	32
229997	2464164	Liverpool failed again in when they were beaten at Wembley.	Liverpool failed again in when they were beaten at Wembley.	117041393	1475154815729	1475154815801	w	87
229997	2464164	Liverpool failed again in when they were beaten at Wembley.	Liverpool failed again in when they were beaten at Wembley.	117041400	1475154815816	1475154815886	h	72
229997	2464164	Liverpool failed again in when they were beaten at Wembley.	Liverpool failed again in when they were beaten at Wembley.	117041405	1475154815902	1475154815953	e	69
229997	2464164	Liverpool failed again in when they were beaten at Wembley.	Liverpool failed again in when they were beaten at Wembley.	117041411	1475154815984	1475154816061	n	78
229997	2464164	Liverpool failed again in when they were beaten at Wembley.	Liverpool failed again in when they were beaten at Wembley.	117041414	1475154816020	1475154816119	 	32
229997	2464164	Liverpool failed again in when they were beaten at Wembley.	Liverpool failed again in when they were beaten at Wembley.	117041423	1475154816070	1475154816172	t	84
229997	2464164	Liverpool failed again in when they were beaten at Wembley.	Liverpool failed again in when they were beaten at Wembley.	117041426	1475154816173	1475154816252	h	72
229997	2464164	Liverpool failed again in when they were beaten at Wembley.	Liverpool failed again in when they were beaten at Wembley.	117041428	1475154816225	1475154816335	e	69
229997	2464164	Liverpool failed again in when they were beaten at Wembley.	Liverpool failed again in when they were beaten at Wembley.	117041430	1475154816285	1475154816366	y	89
229997	2464164	Liverpool failed again in when they were beaten at Wembley.	Liverpool failed again in when they were beaten at Wembley.	117041432	1475154816366	1475154816444	 	32
229997	2464164	Liverpool failed again in when they were beaten at Wembley.	Liverpool failed again in when they were beaten at Wembley.	117041439	1475154816419	1475154816548	w	87
229997	2464164	Liverpool failed again in when they were beaten at Wembley.	Liverpool failed again in when they were beaten at Wembley.	117041443	1475154816484	1475154816577	e	69
229997	2464164	Liverpool failed again in when they were beaten at Wembley.	Liverpool failed again in when they were beaten at Wembley.	117041448	1475154816577	1475154816703	r	82
229997	2464164	Liverpool failed again in when they were beaten at Wembley.	Liverpool failed again in when they were beaten at Wembley.	117041452	1475154816667	1475154816770	e	69
229997	2464164	Liverpool failed again in when they were beaten at Wembley.	Liverpool failed again in when they were beaten at Wembley.	117041456	1475154816740	1475154816832	 	32
229997	2464164	Liverpool failed again in when they were beaten at Wembley.	Liverpool failed again in when they were beaten at Wembley.	117041459	1475154816832	1475154816903	b	66
229997	2464164	Liverpool failed again in when they were beaten at Wembley.	Liverpool failed again in when they were beaten at Wembley.	117041462	1475154816918	1475154817068	e	69
229997	2464164	Liverpool failed again in when they were beaten at Wembley.	Liverpool failed again in when they were beaten at Wembley.	117041464	1475154816969	1475154817070	a	65
229997	2464164	Liverpool failed again in when they were beaten at Wembley.	Liverpool failed again in when they were beaten at Wembley.	117041465	1475154817034	1475154817172	t	84
229997	2464164	Liverpool failed again in when they were beaten at Wembley.	Liverpool failed again in when they were beaten at Wembley.	117041466	1475154817148	1475154817244	e	69
229997	2464164	Liverpool failed again in when they were beaten at Wembley.	Liverpool failed again in when they were beaten at Wembley.	117041498	1475154817218	1475154817316	n	78
229997	2464164	Liverpool failed again in when they were beaten at Wembley.	Liverpool failed again in when they were beaten at Wembley.	117041505	1475154817316	1475154817385	 	32
229997	2464164	Liverpool failed again in when they were beaten at Wembley.	Liverpool failed again in when they were beaten at Wembley.	117041511	1475154817349	1475154817447	CAPS_LOCK	20
229997	2464164	Liverpool failed again in when they were beaten at Wembley.	Liverpool failed again in when they were beaten at Wembley.	117041515	1475154817447	1475154817542	A	65
229997	2464164	Liverpool failed again in when they were beaten at Wembley.	Liverpool failed again in when they were beaten at Wembley.	117041518	1475154817573	1475154817698	CAPS_LOCK	20
229997	2464164	Liverpool failed again in when they were beaten at Wembley.	Liverpool failed again in when they were beaten at Wembley.	117041521	1475154817748	1475154817819	BKSP	8
229997	2464164	Liverpool failed again in when they were beaten at Wembley.	Liverpool failed again in when they were beaten at Wembley.	117041525	1475154817850	1475154817972	a	65
229997	2464164	Liverpool failed again in when they were beaten at Wembley.	Liverpool failed again in when they were beaten at Wembley.	117041532	1475154817949	1475154818052	t	84
229997	2464164	Liverpool failed again in when they were beaten at Wembley.	Liverpool failed again in when they were beaten at Wembley.	117041570	1475154818018	1475154818101	 	32
229997	2464164	Liverpool failed again in when they were beaten at Wembley.	Liverpool failed again in when they were beaten at Wembley.	117041574	1475154818085	1475154818204	CAPS_LOCK	20
229997	2464164	Liverpool failed again in when they were beaten at Wembley.	Liverpool failed again in when they were beaten at Wembley.	117041577	1475154818179	1475154818267	W	87
229997	2464164	Liverpool failed again in when they were beaten at Wembley.	Liverpool failed again in when they were beaten at Wembley.	117041580	1475154818267	1475154818361	CAPS_LOCK	20
229997	2464164	Liverpool failed again in when they were beaten at Wembley.	Liverpool failed again in when they were beaten at Wembley.	117041581	1475154818408	1475154818515	e	69
229997	2464164	Liverpool failed again in when they were beaten at Wembley.	Liverpool failed again in when they were beaten at Wembley.	117041584	1475154818672	1475154818752	m	77
229997	2464164	Liverpool failed again in when they were beaten at Wembley.	Liverpool failed again in when they were beaten at Wembley.	117041587	1475154818846	1475154818902	b	66
229997	2464164	Liverpool failed again in when they were beaten at Wembley.	Liverpool failed again in when they were beaten at Wembley.	117041590	1475154818984	1475154819068	l	76
229997	2464164	Liverpool failed again in when they were beaten at Wembley.	Liverpool failed again in when they were beaten at Wembley.	117041591	1475154819104	1475154819187	e	69
229997	2464164	Liverpool failed again in when they were beaten at Wembley.	Liverpool failed again in when they were beaten at Wembley.	117041595	1475154819136	1475154819234	y	89
229997	2464164	Liverpool failed again in when they were beaten at Wembley.	Liverpool failed again in when they were beaten at Wembley.	117041599	1475154819234	1475154819303	.	190
229997	2464167	Would you please send runner to get this?	Would you please send runner to get this?	117041684	1475154820686	1475154820827	CAPS_LOCK	20
229997	2464167	Would you please send runner to get this?	Would you please send runner to get this?	117041687	1475154820920	1475154821017	W	87
229997	2464167	Would you please send runner to get this?	Would you please send runner to get this?	117041691	1475154820986	1475154821119	CAPS_LOCK	20
229997	2464167	Would you please send runner to get this?	Would you please send runner to get this?	117041695	1475154821079	1475154821119	o	79
229997	2464167	Would you please send runner to get this?	Would you please send runner to get this?	117041698	1475154821198	1475154821253	u	85
229997	2464167	Would you please send runner to get this?	Would you please send runner to get this?	117041701	1475154821363	1475154821451	l	76
229997	2464167	Would you please send runner to get this?	Would you please send runner to get this?	117041706	1475154821451	1475154821548	d	68
229997	2464167	Would you please send runner to get this?	Would you please send runner to get this?	117041705	1475154821502	1475154821635	 	32
229997	2464167	Would you please send runner to get this?	Would you please send runner to get this?	117041709	1475154821576	1475154821651	y	89
229997	2464167	Would you please send runner to get this?	Would you please send runner to get this?	117041712	1475154821651	1475154821734	o	79
229997	2464167	Would you please send runner to get this?	Would you please send runner to get this?	117041715	1475154821734	1475154821802	u	85
229997	2464167	Would you please send runner to get this?	Would you please send runner to get this?	117041718	1475154821802	1475154821870	 	32
229997	2464167	Would you please send runner to get this?	Would you please send runner to get this?	117041725	1475154821836	1475154821889	p	80
229997	2464167	Would you please send runner to get this?	Would you please send runner to get this?	117041726	1475154821967	1475154822084	l	76
229997	2464167	Would you please send runner to get this?	Would you please send runner to get this?	117041727	1475154822036	1475154822103	e	69
229997	2464167	Would you please send runner to get this?	Would you please send runner to get this?	117041728	1475154822068	1475154822212	a	65
229997	2464167	Would you please send runner to get this?	Would you please send runner to get this?	117041730	1475154822119	1475154822274	s	83
229997	2464167	Would you please send runner to get this?	Would you please send runner to get this?	117041741	1475154822229	1475154822303	e	69
229997	2464167	Would you please send runner to get this?	Would you please send runner to get this?	117041745	1475154822303	1475154822405	 	32
229997	2464167	Would you please send runner to get this?	Would you please send runner to get this?	117041748	1475154822369	1475154822503	s	83
229997	2464167	Would you please send runner to get this?	Would you please send runner to get this?	117041752	1475154822467	1475154822550	e	69
229997	2464167	Would you please send runner to get this?	Would you please send runner to get this?	117041754	1475154822590	1475154822669	n	78
229997	2464167	Would you please send runner to get this?	Would you please send runner to get this?	117041770	1475154822651	1475154822718	d	68
229997	2464167	Would you please send runner to get this?	Would you please send runner to get this?	117041772	1475154822718	1475154822828	 	32
229997	2464167	Would you please send runner to get this?	Would you please send runner to get this?	117041775	1475154822801	1475154822869	r	82
229997	2464167	Would you please send runner to get this?	Would you please send runner to get this?	117041780	1475154822869	1475154822919	u	85
229997	2464167	Would you please send runner to get this?	Would you please send runner to get this?	117041784	1475154822997	1475154823067	n	78
229997	2464167	Would you please send runner to get this?	Would you please send runner to get this?	117041790	1475154823148	1475154823237	n	78
229997	2464167	Would you please send runner to get this?	Would you please send runner to get this?	117041796	1475154823219	1475154823303	e	69
229997	2464167	Would you please send runner to get this?	Would you please send runner to get this?	117041799	1475154823266	1475154823334	r	82
229997	2464167	Would you please send runner to get this?	Would you please send runner to get this?	117041802	1475154823334	1475154823451	 	32
229997	2464167	Would you please send runner to get this?	Would you please send runner to get this?	117041804	1475154823417	1475154823485	t	84
229997	2464167	Would you please send runner to get this?	Would you please send runner to get this?	117041807	1475154823485	1475154823586	o	79
229997	2464167	Would you please send runner to get this?	Would you please send runner to get this?	117041811	1475154823536	1475154823619	 	32
229997	2464167	Would you please send runner to get this?	Would you please send runner to get this?	117041813	1475154823586	1475154823635	g	71
229997	2464167	Would you please send runner to get this?	Would you please send runner to get this?	117041814	1475154823651	1475154823756	e	69
229997	2464167	Would you please send runner to get this?	Would you please send runner to get this?	117041816	1475154823718	1475154823786	t	84
229997	2464167	Would you please send runner to get this?	Would you please send runner to get this?	117041819	1475154823801	1475154823884	 	32
229997	2464167	Would you please send runner to get this?	Would you please send runner to get this?	117041822	1475154823884	1475154823953	t	84
229997	2464167	Would you please send runner to get this?	Would you please send runner to get this?	117041868	1475154823920	1475154823982	h	72
229997	2464167	Would you please send runner to get this?	Would you please send runner to get this?	117041870	1475154823998	1475154824021	i	73
229997	2464167	Would you please send runner to get this?	Would you please send runner to get this?	117041872	1475154824053	1475154824148	s	83
229997	2464167	Would you please send runner to get this?	Would you please send runner to get this?	117041874	1475154824102	1475154824268	SHIFT	16
229997	2464167	Would you please send runner to get this?	Would you please send runner to get this?	117041873	1475154824180	1475154824251	?	190
229997	2464167	Would you please send runner to get this?	Would you please send runner to get this?	117041875	1475154824591	1475154824620	BKSP	8
229997	2464167	Would you please send runner to get this?	Would you please send runner to get this?	117041876	1475154824854	1475154824918	BKSP	8
229997	2464167	Would you please send runner to get this?	Would you please send runner to get this?	117041878	1475154824996	1475154825134	SHIFT	16
229997	2464167	Would you please send runner to get this?	Would you please send runner to get this?	117041871	1475154825074	1475154825160	?	191
229997	2464173	It wasn't an easy day to play.	It wasn't an easy day to play.	117041945	1475154826438	1475154826532	CAPS_LOCK	20
229997	2464173	It wasn't an easy day to play.	It wasn't an easy day to play.	117041948	1475154826564	1475154826649	I	73
229997	2464173	It wasn't an easy day to play.	It wasn't an easy day to play.	117041951	1475154826618	1475154826748	CAPS_LOCK	20
229997	2464173	It wasn't an easy day to play.	It wasn't an easy day to play.	117041955	1475154826712	1475154826785	t	84
229997	2464173	It wasn't an easy day to play.	It wasn't an easy day to play.	117041958	1475154826785	1475154826883	 	32
229997	2464173	It wasn't an easy day to play.	It wasn't an easy day to play.	117041962	1475154827118	1475154827252	w	87
229997	2464173	It wasn't an easy day to play.	It wasn't an easy day to play.	117041977	1475154827185	1475154827319	a	65
229997	2464173	It wasn't an easy day to play.	It wasn't an easy day to play.	117041980	1475154827279	1475154827351	s	83
229997	2464173	It wasn't an easy day to play.	It wasn't an easy day to play.	117041984	1475154827460	1475154827534	n	78
229997	2464173	It wasn't an easy day to play.	It wasn't an easy day to play.	117041988	1475154827550	1475154827648	'	192
229997	2464173	It wasn't an easy day to play.	It wasn't an easy day to play.	117041992	1475154827648	1475154827702	t	84
229997	2464173	It wasn't an easy day to play.	It wasn't an easy day to play.	117041994	1475154827733	1475154827833	 	32
229997	2464173	It wasn't an easy day to play.	It wasn't an easy day to play.	117042010	1475154827833	1475154827932	e	69
229997	2464173	It wasn't an easy day to play.	It wasn't an easy day to play.	117042014	1475154827901	1475154827952	a	65
229997	2464173	It wasn't an easy day to play.	It wasn't an easy day to play.	117042019	1475154828124	1475154828200	BKSP	8
229997	2464173	It wasn't an easy day to play.	It wasn't an easy day to play.	117042025	1475154828340	1475154828385	BKSP	8
229997	2464173	It wasn't an easy day to play.	It wasn't an easy day to play.	117042028	1475154828431	1475154828532	a	65
229997	2464173	It wasn't an easy day to play.	It wasn't an easy day to play.	117042031	1475154828532	1475154828617	n	78
229997	2464173	It wasn't an easy day to play.	It wasn't an easy day to play.	117042035	1475154828617	1475154828752	 	32
229997	2464173	It wasn't an easy day to play.	It wasn't an easy day to play.	117042054	1475154828716	1475154828833	e	69
229997	2464173	It wasn't an easy day to play.	It wasn't an easy day to play.	117042059	1475154828752	1475154828900	a	65
229997	2464173	It wasn't an easy day to play.	It wasn't an easy day to play.	117042063	1475154828833	1475154828947	s	83
229997	2464173	It wasn't an easy day to play.	It wasn't an easy day to play.	117042066	1475154828947	1475154829080	y	89
229997	2464173	It wasn't an easy day to play.	It wasn't an easy day to play.	117042068	1475154829080	1475154829135	 	32
229997	2464173	It wasn't an easy day to play.	It wasn't an easy day to play.	117042071	1475154829196	1475154829286	d	68
229997	2464173	It wasn't an easy day to play.	It wasn't an easy day to play.	117042080	1475154829252	1475154829371	a	65
229997	2464173	It wasn't an easy day to play.	It wasn't an easy day to play.	117042082	1475154829418	1475154829499	y	89
229997	2464173	It wasn't an easy day to play.	It wasn't an easy day to play.	117042084	1475154829515	1475154829626	 	32
229997	2464173	It wasn't an easy day to play.	It wasn't an easy day to play.	117042087	1475154829600	1475154829667	t	84
229997	2464173	It wasn't an easy day to play.	It wasn't an easy day to play.	117042089	1475154829667	1475154829702	o	79
229997	2464173	It wasn't an easy day to play.	It wasn't an easy day to play.	117042091	1475154829702	1475154829798	 	32
229997	2464173	It wasn't an easy day to play.	It wasn't an easy day to play.	117042096	1475154829798	1475154829852	p	80
229997	2464173	It wasn't an easy day to play.	It wasn't an easy day to play.	117042098	1475154829915	1475154829970	l	76
229997	2464173	It wasn't an easy day to play.	It wasn't an easy day to play.	117042101	1475154829970	1475154830069	a	65
229997	2464173	It wasn't an easy day to play.	It wasn't an easy day to play.	117042105	1475154830020	1475154830103	y	89
229997	2464173	It wasn't an easy day to play.	It wasn't an easy day to play.	117042103	1475154830069	1475154830138	.	190
229997	2464180	We're not adversarial in this, but we want to know what's going on.	We're not adversarial in this, but we want to know what's going on.	117042184	1475154831302	1475154831443	CAPS_LOCK	20
229997	2464180	We're not adversarial in this, but we want to know what's going on.	We're not adversarial in this, but we want to know what's going on.	117042187	1475154831443	1475154831533	W	87
229997	2464180	We're not adversarial in this, but we want to know what's going on.	We're not adversarial in this, but we want to know what's going on.	117042190	1475154831517	1475154831642	CAPS_LOCK	20
229997	2464180	We're not adversarial in this, but we want to know what's going on.	We're not adversarial in this, but we want to know what's going on.	117042196	1475154831642	1475154831702	e	69
229997	2464180	We're not adversarial in this, but we want to know what's going on.	We're not adversarial in this, but we want to know what's going on.	117042202	1475154831749	1475154831836	'	192
229997	2464180	We're not adversarial in this, but we want to know what's going on.	We're not adversarial in this, but we want to know what's going on.	117042206	1475154831802	1475154831892	r	82
229997	2464180	We're not adversarial in this, but we want to know what's going on.	We're not adversarial in this, but we want to know what's going on.	117042215	1475154831868	1475154831936	e	69
229997	2464180	We're not adversarial in this, but we want to know what's going on.	We're not adversarial in this, but we want to know what's going on.	117042217	1475154831936	1475154832044	 	32
229997	2464180	We're not adversarial in this, but we want to know what's going on.	We're not adversarial in this, but we want to know what's going on.	117042220	1475154832017	1475154832084	n	78
229997	2464180	We're not adversarial in this, but we want to know what's going on.	We're not adversarial in this, but we want to know what's going on.	117042222	1475154832084	1475154832197	o	79
229997	2464180	We're not adversarial in this, but we want to know what's going on.	We're not adversarial in this, but we want to know what's going on.	117042224	1475154832197	1475154832284	t	84
229997	2464180	We're not adversarial in this, but we want to know what's going on.	We're not adversarial in this, but we want to know what's going on.	117042228	1475154832284	1475154832340	 	32
229997	2464180	We're not adversarial in this, but we want to know what's going on.	We're not adversarial in this, but we want to know what's going on.	117042254	1475154832316	1475154832444	a	65
229997	2464180	We're not adversarial in this, but we want to know what's going on.	We're not adversarial in this, but we want to know what's going on.	117042257	1475154832415	1475154832500	d	68
229997	2464180	We're not adversarial in this, but we want to know what's going on.	We're not adversarial in this, but we want to know what's going on.	117042260	1475154832578	1475154832667	v	86
229997	2464180	We're not adversarial in this, but we want to know what's going on.	We're not adversarial in this, but we want to know what's going on.	117042263	1475154832667	1475154832786	e	69
229997	2464180	We're not adversarial in this, but we want to know what's going on.	We're not adversarial in this, but we want to know what's going on.	117042265	1475154832757	1475154832802	r	82
229997	2464180	We're not adversarial in this, but we want to know what's going on.	We're not adversarial in this, but we want to know what's going on.	117042270	1475154832912	1475154832985	s	83
229997	2464180	We're not adversarial in this, but we want to know what's going on.	We're not adversarial in this, but we want to know what's going on.	117042308	1475154833212	1475154833301	BKSP	8
229997	2464180	We're not adversarial in this, but we want to know what's going on.	We're not adversarial in this, but we want to know what's going on.	117042311	1475154833597	1475154833735	s	83
229997	2464180	We're not adversarial in this, but we want to know what's going on.	We're not adversarial in this, but we want to know what's going on.	117042313	1475154833699	1475154833837	a	65
229997	2464180	We're not adversarial in this, but we want to know what's going on.	We're not adversarial in this, but we want to know what's going on.	117042315	1475154833837	1475154833918	r	82
229997	2464180	We're not adversarial in this, but we want to know what's going on.	We're not adversarial in this, but we want to know what's going on.	117042317	1475154834012	1475154834068	i	73
229997	2464180	We're not adversarial in this, but we want to know what's going on.	We're not adversarial in this, but we want to know what's going on.	117042321	1475154834115	1475154834228	a	65
229997	2464180	We're not adversarial in this, but we want to know what's going on.	We're not adversarial in this, but we want to know what's going on.	117042333	1475154834200	1475154834288	l	76
229997	2464180	We're not adversarial in this, but we want to know what's going on.	We're not adversarial in this, but we want to know what's going on.	117042336	1475154834288	1475154834382	 	32
229997	2464180	We're not adversarial in this, but we want to know what's going on.	We're not adversarial in this, but we want to know what's going on.	117042339	1475154834569	1475154834635	i	73
229997	2464180	We're not adversarial in this, but we want to know what's going on.	We're not adversarial in this, but we want to know what's going on.	117042342	1475154834728	1475154834801	n	78
229997	2464180	We're not adversarial in this, but we want to know what's going on.	We're not adversarial in this, but we want to know what's going on.	117042345	1475154834817	1475154834902	 	32
229997	2464180	We're not adversarial in this, but we want to know what's going on.	We're not adversarial in this, but we want to know what's going on.	117042349	1475154834845	1475154834918	t	84
229997	2464180	We're not adversarial in this, but we want to know what's going on.	We're not adversarial in this, but we want to know what's going on.	117042351	1475154834918	1475154834986	h	72
229997	2464180	We're not adversarial in this, but we want to know what's going on.	We're not adversarial in this, but we want to know what's going on.	117042354	1475154834948	1475154834986	i	73
229997	2464180	We're not adversarial in this, but we want to know what's going on.	We're not adversarial in this, but we want to know what's going on.	117042357	1475154835017	1475154835140	s	83
229997	2464180	We're not adversarial in this, but we want to know what's going on.	We're not adversarial in this, but we want to know what's going on.	117042360	1475154835117	1475154835184	,	188
229997	2464180	We're not adversarial in this, but we want to know what's going on.	We're not adversarial in this, but we want to know what's going on.	117042363	1475154835184	1475154835268	 	32
229997	2464180	We're not adversarial in this, but we want to know what's going on.	We're not adversarial in this, but we want to know what's going on.	117042364	1475154835236	1475154835295	b	66
229997	2464180	We're not adversarial in this, but we want to know what's going on.	We're not adversarial in this, but we want to know what's going on.	117042368	1475154835311	1475154835393	u	85
229997	2464180	We're not adversarial in this, but we want to know what's going on.	We're not adversarial in this, but we want to know what's going on.	117042372	1475154835393	1475154835481	t	84
229997	2464180	We're not adversarial in this, but we want to know what's going on.	We're not adversarial in this, but we want to know what's going on.	117042377	1475154835481	1475154835588	 	32
229997	2464180	We're not adversarial in this, but we want to know what's going on.	We're not adversarial in this, but we want to know what's going on.	117042381	1475154835550	1475154835652	w	87
229997	2464180	We're not adversarial in this, but we want to know what's going on.	We're not adversarial in this, but we want to know what's going on.	117042386	1475154835603	1475154835702	e	69
229997	2464180	We're not adversarial in this, but we want to know what's going on.	We're not adversarial in this, but we want to know what's going on.	117042389	1475154835702	1475154835803	 	32
229997	2464180	We're not adversarial in this, but we want to know what's going on.	We're not adversarial in this, but we want to know what's going on.	117042392	1475154835767	1475154835868	w	87
229997	2464180	We're not adversarial in this, but we want to know what's going on.	We're not adversarial in this, but we want to know what's going on.	117042396	1475154835803	1475154835919	a	65
229997	2464180	We're not adversarial in this, but we want to know what's going on.	We're not adversarial in this, but we want to know what's going on.	117042400	1475154835868	1475154835970	n	78
229997	2464180	We're not adversarial in this, but we want to know what's going on.	We're not adversarial in this, but we want to know what's going on.	117042405	1475154835919	1475154836015	t	84
229997	2464180	We're not adversarial in this, but we want to know what's going on.	We're not adversarial in this, but we want to know what's going on.	117042407	1475154836015	1475154836108	 	32
229997	2464180	We're not adversarial in this, but we want to know what's going on.	We're not adversarial in this, but we want to know what's going on.	117042411	1475154836072	1475154836152	t	84
229997	2464180	We're not adversarial in this, but we want to know what's going on.	We're not adversarial in this, but we want to know what's going on.	117042414	1475154836152	1475154836203	o	79
229997	2464180	We're not adversarial in this, but we want to know what's going on.	We're not adversarial in this, but we want to know what's going on.	117042420	1475154836203	1475154836299	 	32
229997	2464180	We're not adversarial in this, but we want to know what's going on.	We're not adversarial in this, but we want to know what's going on.	117042428	1475154836299	1475154836373	k	75
229997	2464180	We're not adversarial in this, but we want to know what's going on.	We're not adversarial in this, but we want to know what's going on.	117042442	1475154836348	1475154836441	n	78
229997	2464180	We're not adversarial in this, but we want to know what's going on.	We're not adversarial in this, but we want to know what's going on.	117042447	1475154836473	1475154836577	o	79
229997	2464180	We're not adversarial in this, but we want to know what's going on.	We're not adversarial in this, but we want to know what's going on.	117042450	1475154836503	1475154836596	w	87
229997	2464180	We're not adversarial in this, but we want to know what's going on.	We're not adversarial in this, but we want to know what's going on.	117042451	1475154836577	1475154836692	 	32
229997	2464180	We're not adversarial in this, but we want to know what's going on.	We're not adversarial in this, but we want to know what's going on.	117042453	1475154836666	1475154836766	w	87
229997	2464180	We're not adversarial in this, but we want to know what's going on.	We're not adversarial in this, but we want to know what's going on.	117042458	1475154836782	1475154836844	h	72
229997	2464180	We're not adversarial in this, but we want to know what's going on.	We're not adversarial in this, but we want to know what's going on.	117042470	1475154836868	1475154836986	a	65
229997	2464180	We're not adversarial in this, but we want to know what's going on.	We're not adversarial in this, but we want to know what's going on.	117042475	1475154836949	1475154837036	t	84
229997	2464180	We're not adversarial in this, but we want to know what's going on.	We're not adversarial in this, but we want to know what's going on.	117042477	1475154837037	1475154837132	'	192
229997	2464180	We're not adversarial in this, but we want to know what's going on.	We're not adversarial in this, but we want to know what's going on.	117042479	1475154837100	1475154837228	s	83
229997	2464180	We're not adversarial in this, but we want to know what's going on.	We're not adversarial in this, but we want to know what's going on.	117042483	1475154837182	1475154837284	 	32
229997	2464180	We're not adversarial in this, but we want to know what's going on.	We're not adversarial in this, but we want to know what's going on.	117042485	1475154837230	1475154837319	g	71
229997	2464180	We're not adversarial in this, but we want to know what's going on.	We're not adversarial in this, but we want to know what's going on.	117042488	1475154837284	1475154837335	o	79
229997	2464180	We're not adversarial in this, but we want to know what's going on.	We're not adversarial in this, but we want to know what's going on.	117042490	1475154837429	1475154837501	i	73
229997	2464180	We're not adversarial in this, but we want to know what's going on.	We're not adversarial in this, but we want to know what's going on.	117042493	1475154837501	1475154837628	n	78
229997	2464180	We're not adversarial in this, but we want to know what's going on.	We're not adversarial in this, but we want to know what's going on.	117042499	1475154837532	1475154837630	g	71
229997	2464180	We're not adversarial in this, but we want to know what's going on.	We're not adversarial in this, but we want to know what's going on.	117042505	1475154837570	1475154837685	 	32
229997	2464180	We're not adversarial in this, but we want to know what's going on.	We're not adversarial in this, but we want to know what's going on.	117042513	1475154837631	1475154837685	o	79
229997	2464180	We're not adversarial in this, but we want to know what's going on.	We're not adversarial in this, but we want to know what's going on.	117042519	1475154837716	1475154837803	n	78
229997	2464188	I'm fully recovered and back on pace.	I'm fully recovered and back on pace.	117042623	1475154839120	1475154839216	CAPS_LOCK	20
229997	2464188	I'm fully recovered and back on pace.	I'm fully recovered and back on pace.	117042625	1475154839216	1475154839301	I	73
229997	2464188	I'm fully recovered and back on pace.	I'm fully recovered and back on pace.	117042627	1475154839301	1475154839410	CAPS_LOCK	20
229997	2464188	I'm fully recovered and back on pace.	I'm fully recovered and back on pace.	117042630	1475154839410	1475154839468	'	192
229997	2464188	I'm fully recovered and back on pace.	I'm fully recovered and back on pace.	117042634	1475154839562	1475154839649	m	77
229997	2464188	I'm fully recovered and back on pace.	I'm fully recovered and back on pace.	117042638	1475154839680	1475154839816	 	32
229997	2464188	I'm fully recovered and back on pace.	I'm fully recovered and back on pace.	117042682	1475154839719	1475154839816	f	70
229997	2464188	I'm fully recovered and back on pace.	I'm fully recovered and back on pace.	117042684	1475154839934	1475154839984	l	76
229997	2464188	I'm fully recovered and back on pace.	I'm fully recovered and back on pace.	117042688	1475154840156	1475154840252	BKSP	8
229997	2464188	I'm fully recovered and back on pace.	I'm fully recovered and back on pace.	117042691	1475154840562	1475154840634	u	85
229997	2464188	I'm fully recovered and back on pace.	I'm fully recovered and back on pace.	117042693	1475154840728	1475154840785	l	76
229997	2464188	I'm fully recovered and back on pace.	I'm fully recovered and back on pace.	117042697	1475154840863	1475154840964	l	76
229997	2464188	I'm fully recovered and back on pace.	I'm fully recovered and back on pace.	117042704	1475154840917	1475154840992	y	89
229997	2464188	I'm fully recovered and back on pace.	I'm fully recovered and back on pace.	117042707	1475154841023	1475154841133	 	32
229997	2464188	I'm fully recovered and back on pace.	I'm fully recovered and back on pace.	117042713	1475154841100	1475154841212	r	82
229997	2464188	I'm fully recovered and back on pace.	I'm fully recovered and back on pace.	117042717	1475154841183	1475154841282	e	69
229997	2464188	I'm fully recovered and back on pace.	I'm fully recovered and back on pace.	117042719	1475154841314	1475154841415	c	67
229997	2464188	I'm fully recovered and back on pace.	I'm fully recovered and back on pace.	117042725	1475154841446	1475154841553	o	79
229997	2464188	I'm fully recovered and back on pace.	I'm fully recovered and back on pace.	117042730	1475154841502	1475154841576	v	86
229997	2464188	I'm fully recovered and back on pace.	I'm fully recovered and back on pace.	117042732	1475154841607	1475154841724	e	69
229997	2464188	I'm fully recovered and back on pace.	I'm fully recovered and back on pace.	117042734	1475154841699	1475154841790	r	82
229997	2464188	I'm fully recovered and back on pace.	I'm fully recovered and back on pace.	117042737	1475154841790	1475154841899	e	69
229997	2464188	I'm fully recovered and back on pace.	I'm fully recovered and back on pace.	117042741	1475154841899	1475154842002	d	68
229997	2464188	I'm fully recovered and back on pace.	I'm fully recovered and back on pace.	117042754	1475154841935	1475154842068	 	32
229997	2464188	I'm fully recovered and back on pace.	I'm fully recovered and back on pace.	117042759	1475154842002	1475154842135	a	65
229997	2464188	I'm fully recovered and back on pace.	I'm fully recovered and back on pace.	117042766	1475154842084	1475154842180	n	78
229997	2464188	I'm fully recovered and back on pace.	I'm fully recovered and back on pace.	117042773	1475154842150	1475154842249	d	68
229997	2464188	I'm fully recovered and back on pace.	I'm fully recovered and back on pace.	117042777	1475154842249	1475154842356	 	32
229997	2464188	I'm fully recovered and back on pace.	I'm fully recovered and back on pace.	117042787	1475154842332	1475154842415	b	66
229997	2464188	I'm fully recovered and back on pace.	I'm fully recovered and back on pace.	117042789	1475154842462	1475154842570	a	65
229997	2464188	I'm fully recovered and back on pace.	I'm fully recovered and back on pace.	117042790	1475154842518	1475154842635	c	67
229997	2464188	I'm fully recovered and back on pace.	I'm fully recovered and back on pace.	117042791	1475154842601	1475154842667	k	75
229997	2464188	I'm fully recovered and back on pace.	I'm fully recovered and back on pace.	117042792	1475154842682	1475154842765	 	32
229997	2464188	I'm fully recovered and back on pace.	I'm fully recovered and back on pace.	117042793	1475154842781	1475154842844	o	79
229997	2464188	I'm fully recovered and back on pace.	I'm fully recovered and back on pace.	117042797	1475154842819	1475154842924	n	78
229997	2464188	I'm fully recovered and back on pace.	I'm fully recovered and back on pace.	117042799	1475154842900	1475154842951	 	32
229997	2464188	I'm fully recovered and back on pace.	I'm fully recovered and back on pace.	117042802	1475154842951	1475154843019	p	80
229997	2464188	I'm fully recovered and back on pace.	I'm fully recovered and back on pace.	117042805	1475154843050	1475154843133	a	65
229997	2464188	I'm fully recovered and back on pace.	I'm fully recovered and back on pace.	117042808	1475154843133	1475154843218	c	67
229997	2464192	Binoche welcomed the movie industry to the French riviera.	Binoce welcomed the movie industry to the French rivera.	117042984	1475154843218	1475154846468	.	69
229997	2464192	Binoche welcomed the movie industry to the French riviera.	Binoce welcomed the movie industry to the French rivera.	117042920	1475154844463	1475154844604	CAPS_LOCK	20
229997	2464192	Binoche welcomed the movie industry to the French riviera.	Binoce welcomed the movie industry to the French rivera.	117042924	1475154844659	1475154844701	I	73
229997	2464192	Binoche welcomed the movie industry to the French riviera.	Binoce welcomed the movie industry to the French rivera.	117042928	1475154844998	1475154845084	BKSP	8
229997	2464192	Binoche welcomed the movie industry to the French riviera.	Binoce welcomed the movie industry to the French rivera.	117042931	1475154845099	1475154845191	B	66
229997	2464192	Binoche welcomed the movie industry to the French riviera.	Binoce welcomed the movie industry to the French rivera.	117042936	1475154845191	1475154845332	CAPS_LOCK	20
229997	2464192	Binoche welcomed the movie industry to the French riviera.	Binoce welcomed the movie industry to the French rivera.	117042941	1475154845316	1475154845352	c	67
229997	2464192	Binoche welcomed the movie industry to the French riviera.	Binoce welcomed the movie industry to the French rivera.	117042947	1475154845508	1475154845584	BKSP	8
229997	2464192	Binoche welcomed the movie industry to the French riviera.	Binoce welcomed the movie industry to the French rivera.	117042953	1475154845662	1475154845750	i	73
229997	2464192	Binoche welcomed the movie industry to the French riviera.	Binoce welcomed the movie industry to the French rivera.	117042956	1475154845766	1475154845833	n	78
229997	2464192	Binoche welcomed the movie industry to the French riviera.	Binoce welcomed the movie industry to the French rivera.	117042971	1475154846020	1475154846085	o	79
229997	2464192	Binoche welcomed the movie industry to the French riviera.	Binoce welcomed the movie industry to the French rivera.	117042975	1475154846116	1475154846167	c	67
229997	2464192	Binoche welcomed the movie industry to the French riviera.	Binoce welcomed the movie industry to the French rivera.	117042978	1475154846277	1475154846385	h	72
229997	2464192	Binoche welcomed the movie industry to the French riviera.	Binoce welcomed the movie industry to the French rivera.	117042989	1475154846432	1475154846501	 	32
229997	2464192	Binoche welcomed the movie industry to the French riviera.	Binoce welcomed the movie industry to the French rivera.	117042994	1475154846595	1475154846703	w	87
229997	2464192	Binoche welcomed the movie industry to the French riviera.	Binoce welcomed the movie industry to the French rivera.	117043010	1475154846667	1475154846720	e	69
229997	2464192	Binoche welcomed the movie industry to the French riviera.	Binoce welcomed the movie industry to the French rivera.	117043012	1475154846736	1475154846817	l	76
229997	2464192	Binoche welcomed the movie industry to the French riviera.	Binoce welcomed the movie industry to the French rivera.	117043014	1475154846832	1475154846933	c	67
229997	2464192	Binoche welcomed the movie industry to the French riviera.	Binoce welcomed the movie industry to the French rivera.	117043019	1475154846933	1475154846986	o	79
229997	2464192	Binoche welcomed the movie industry to the French riviera.	Binoce welcomed the movie industry to the French rivera.	117043022	1475154847064	1475154847172	m	77
229997	2464192	Binoche welcomed the movie industry to the French riviera.	Binoce welcomed the movie industry to the French rivera.	117043031	1475154847149	1475154847251	e	69
229997	2464192	Binoche welcomed the movie industry to the French riviera.	Binoce welcomed the movie industry to the French rivera.	117043033	1475154847201	1475154847283	d	68
229997	2464192	Binoche welcomed the movie industry to the French riviera.	Binoce welcomed the movie industry to the French rivera.	117043035	1475154847283	1475154847412	 	32
229997	2464192	Binoche welcomed the movie industry to the French riviera.	Binoce welcomed the movie industry to the French rivera.	117043039	1475154847366	1475154847434	t	84
229997	2464192	Binoche welcomed the movie industry to the French riviera.	Binoce welcomed the movie industry to the French rivera.	117043043	1475154847434	1475154847501	h	72
229997	2464192	Binoche welcomed the movie industry to the French riviera.	Binoce welcomed the movie industry to the French rivera.	117043048	1475154847501	1475154847588	e	69
229997	2464192	Binoche welcomed the movie industry to the French riviera.	Binoce welcomed the movie industry to the French rivera.	117043055	1475154847568	1475154847628	 	32
229997	2464192	Binoche welcomed the movie industry to the French riviera.	Binoce welcomed the movie industry to the French rivera.	117043058	1475154847645	1475154847701	m	77
229997	2464192	Binoche welcomed the movie industry to the French riviera.	Binoce welcomed the movie industry to the French rivera.	117043062	1475154847826	1475154847884	o	79
229997	2464192	Binoche welcomed the movie industry to the French riviera.	Binoce welcomed the movie industry to the French rivera.	117043064	1475154847884	1475154847966	v	86
229997	2464192	Binoche welcomed the movie industry to the French riviera.	Binoce welcomed the movie industry to the French rivera.	117043068	1475154847981	1475154848050	i	73
229997	2464192	Binoche welcomed the movie industry to the French riviera.	Binoce welcomed the movie industry to the French rivera.	117043072	1475154848050	1475154848164	e	69
229997	2464192	Binoche welcomed the movie industry to the French riviera.	Binoce welcomed the movie industry to the French rivera.	117043085	1475154848132	1475154848210	 	32
229997	2464192	Binoche welcomed the movie industry to the French riviera.	Binoce welcomed the movie industry to the French rivera.	117043087	1475154848257	1475154848302	i	73
229997	2464192	Binoche welcomed the movie industry to the French riviera.	Binoce welcomed the movie industry to the French rivera.	117043088	1475154848396	1475154848483	n	78
229997	2464192	Binoche welcomed the movie industry to the French riviera.	Binoce welcomed the movie industry to the French rivera.	117043090	1475154848483	1475154848550	d	68
229997	2464192	Binoche welcomed the movie industry to the French riviera.	Binoce welcomed the movie industry to the French rivera.	117043094	1475154848612	1475154848665	u	85
229997	2464192	Binoche welcomed the movie industry to the French riviera.	Binoce welcomed the movie industry to the French rivera.	117043100	1475154848759	1475154848819	n	78
229997	2464192	Binoche welcomed the movie industry to the French riviera.	Binoce welcomed the movie industry to the French rivera.	117043127	1475154849129	1475154849228	BKSP	8
229997	2464192	Binoche welcomed the movie industry to the French riviera.	Binoce welcomed the movie industry to the French rivera.	117043133	1475154849185	1475154849299	s	83
229997	2464192	Binoche welcomed the movie industry to the French riviera.	Binoce welcomed the movie industry to the French rivera.	117043140	1475154849299	1475154849367	t	84
229997	2464192	Binoche welcomed the movie industry to the French riviera.	Binoce welcomed the movie industry to the French rivera.	117043148	1475154849367	1475154849501	r	82
229997	2464192	Binoche welcomed the movie industry to the French riviera.	Binoce welcomed the movie industry to the French rivera.	117043154	1475154849450	1475154849548	y	89
229997	2464192	Binoche welcomed the movie industry to the French riviera.	Binoce welcomed the movie industry to the French rivera.	117043159	1475154849548	1475154849634	 	32
229997	2464192	Binoche welcomed the movie industry to the French riviera.	Binoce welcomed the movie industry to the French rivera.	117043187	1475154849975	1475154850050	t	84
229997	2464192	Binoche welcomed the movie industry to the French riviera.	Binoce welcomed the movie industry to the French rivera.	117043190	1475154850082	1475154850150	o	79
229997	2464192	Binoche welcomed the movie industry to the French riviera.	Binoce welcomed the movie industry to the French rivera.	117043195	1475154850165	1475154850281	 	32
229997	2464192	Binoche welcomed the movie industry to the French riviera.	Binoce welcomed the movie industry to the French rivera.	117043197	1475154850453	1475154850533	t	84
229997	2464192	Binoche welcomed the movie industry to the French riviera.	Binoce welcomed the movie industry to the French rivera.	117043202	1475154850564	1475154850636	h	72
229997	2464192	Binoche welcomed the movie industry to the French riviera.	Binoce welcomed the movie industry to the French rivera.	117043232	1475154850612	1475154850730	e	69
229997	2464192	Binoche welcomed the movie industry to the French riviera.	Binoce welcomed the movie industry to the French rivera.	117043234	1475154850730	1475154850785	 	32
229997	2464192	Binoche welcomed the movie industry to the French riviera.	Binoce welcomed the movie industry to the French rivera.	117043236	1475154850879	1475154850973	CAPS_LOCK	20
229997	2464192	Binoche welcomed the movie industry to the French riviera.	Binoce welcomed the movie industry to the French rivera.	117043237	1475154850973	1475154851051	F	70
229997	2464192	Binoche welcomed the movie industry to the French riviera.	Binoce welcomed the movie industry to the French rivera.	117043238	1475154851067	1475154851217	CAPS_LOCK	20
229997	2464192	Binoche welcomed the movie industry to the French riviera.	Binoce welcomed the movie industry to the French rivera.	117043240	1475154851145	1475154851232	r	82
229997	2464192	Binoche welcomed the movie industry to the French riviera.	Binoce welcomed the movie industry to the French rivera.	117043242	1475154851232	1475154851301	e	69
229997	2464192	Binoche welcomed the movie industry to the French riviera.	Binoce welcomed the movie industry to the French rivera.	117043244	1475154851301	1475154851398	n	78
229997	2464192	Binoche welcomed the movie industry to the French riviera.	Binoce welcomed the movie industry to the French rivera.	117043253	1475154851417	1475154851549	c	67
229997	2464192	Binoche welcomed the movie industry to the French riviera.	Binoce welcomed the movie industry to the French rivera.	117043256	1475154851531	1475154851600	h	72
229997	2464192	Binoche welcomed the movie industry to the French riviera.	Binoce welcomed the movie industry to the French rivera.	117043263	1475154851600	1475154851699	 	32
229997	2464192	Binoche welcomed the movie industry to the French riviera.	Binoce welcomed the movie industry to the French rivera.	117043268	1475154851730	1475154851800	r	82
229997	2464192	Binoche welcomed the movie industry to the French riviera.	Binoce welcomed the movie industry to the French rivera.	117043272	1475154851846	1475154851940	i	73
229997	2464192	Binoche welcomed the movie industry to the French riviera.	Binoce welcomed the movie industry to the French rivera.	117043309	1475154851917	1475154851984	v	86
229997	2464192	Binoche welcomed the movie industry to the French riviera.	Binoce welcomed the movie industry to the French rivera.	117043311	1475154851984	1475154852119	e	69
229997	2464192	Binoche welcomed the movie industry to the French riviera.	Binoce welcomed the movie industry to the French rivera.	117043313	1475154852082	1475154852166	r	82
229997	2464192	Binoche welcomed the movie industry to the French riviera.	Binoce welcomed the movie industry to the French rivera.	117043316	1475154852166	1475154852233	i	73
229997	2464192	Binoche welcomed the movie industry to the French riviera.	Binoce welcomed the movie industry to the French rivera.	117043319	1475154852265	1475154852413	a	65
229997	2464192	Binoche welcomed the movie industry to the French riviera.	Binoce welcomed the movie industry to the French rivera.	117043322	1475154852629	1475154852684	BKSP	8
229997	2464192	Binoche welcomed the movie industry to the French riviera.	Binoce welcomed the movie industry to the French rivera.	117043327	1475154852777	1475154852834	BKSP	8
229997	2464192	Binoche welcomed the movie industry to the French riviera.	Binoce welcomed the movie industry to the French rivera.	117043331	1475154852866	1475154852956	a	65
229997	2464198	Do we have New York sorted out?	Do we have New York sorted out?	117043402	1475154854199	1475154854339	CAPS_LOCK	20
229997	2464198	Do we have New York sorted out?	Do we have New York sorted out?	117043404	1475154854370	1475154854417	W	87
229997	2464198	Do we have New York sorted out?	Do we have New York sorted out?	117043413	1475154854605	1475154854715	BKSP	8
229997	2464198	Do we have New York sorted out?	Do we have New York sorted out?	117043416	1475154854715	1475154854798	D	68
229997	2464198	Do we have New York sorted out?	Do we have New York sorted out?	117043421	1475154854767	1475154854899	CAPS_LOCK	20
229997	2464198	Do we have New York sorted out?	Do we have New York sorted out?	117043425	1475154854861	1475154854949	o	79
229997	2464198	Do we have New York sorted out?	Do we have New York sorted out?	117043429	1475154854949	1475154855068	 	32
229997	2464198	Do we have New York sorted out?	Do we have New York sorted out?	117043434	1475154855034	1475154855134	w	87
229997	2464198	Do we have New York sorted out?	Do we have New York sorted out?	117043435	1475154855084	1475154855188	e	69
229997	2464198	Do we have New York sorted out?	Do we have New York sorted out?	117043437	1475154855172	1475154855249	 	32
229997	2464198	Do we have New York sorted out?	Do we have New York sorted out?	117043440	1475154855311	1475154855412	h	72
229997	2464198	Do we have New York sorted out?	Do we have New York sorted out?	117043442	1475154855388	1475154855507	a	65
229997	2464198	Do we have New York sorted out?	Do we have New York sorted out?	117043490	1475154855480	1475154855568	v	86
229997	2464198	Do we have New York sorted out?	Do we have New York sorted out?	117043498	1475154855518	1475154855618	e	69
229997	2464198	Do we have New York sorted out?	Do we have New York sorted out?	117043503	1475154855568	1475154855696	 	32
229997	2464198	Do we have New York sorted out?	Do we have New York sorted out?	117043509	1475154855852	1475154855930	CAPS_LOCK	20
229997	2464198	Do we have New York sorted out?	Do we have New York sorted out?	117043514	1475154855930	1475154856016	N	78
229997	2464198	Do we have New York sorted out?	Do we have New York sorted out?	117043520	1475154856016	1475154856094	CAPS_LOCK	20
229997	2464198	Do we have New York sorted out?	Do we have New York sorted out?	117043525	1475154856141	1475154856262	e	69
229997	2464198	Do we have New York sorted out?	Do we have New York sorted out?	117043530	1475154856497	1475154856598	w	87
229997	2464198	Do we have New York sorted out?	Do we have New York sorted out?	117043538	1475154856598	1475154856681	 	32
229997	2464198	Do we have New York sorted out?	Do we have New York sorted out?	117043543	1475154856650	1475154856775	CAPS_LOCK	20
229997	2464198	Do we have New York sorted out?	Do we have New York sorted out?	117043547	1475154856791	1475154856866	Y	89
229997	2464198	Do we have New York sorted out?	Do we have New York sorted out?	117043551	1475154856866	1475154857012	CAPS_LOCK	20
229997	2464198	Do we have New York sorted out?	Do we have New York sorted out?	117043553	1475154856975	1475154857049	o	79
229997	2464198	Do we have New York sorted out?	Do we have New York sorted out?	117043554	1475154857049	1475154857133	r	82
229997	2464198	Do we have New York sorted out?	Do we have New York sorted out?	117043556	1475154857133	1475154857236	k	75
229997	2464198	Do we have New York sorted out?	Do we have New York sorted out?	117043576	1475154857215	1475154857302	 	32
229997	2464198	Do we have New York sorted out?	Do we have New York sorted out?	117043578	1475154857267	1475154857412	s	83
229997	2464198	Do we have New York sorted out?	Do we have New York sorted out?	117043581	1475154857443	1475154857524	o	79
229997	2464198	Do we have New York sorted out?	Do we have New York sorted out?	117043583	1475154857525	1475154857583	r	82
229997	2464198	Do we have New York sorted out?	Do we have New York sorted out?	117043585	1475154857687	1475154857750	t	84
229997	2464198	Do we have New York sorted out?	Do we have New York sorted out?	117043586	1475154857750	1475154857916	e	69
229997	2464198	Do we have New York sorted out?	Do we have New York sorted out?	117043604	1475154857856	1475154857936	d	68
229997	2464198	Do we have New York sorted out?	Do we have New York sorted out?	117043607	1475154857900	1475154857985	 	32
229997	2464198	Do we have New York sorted out?	Do we have New York sorted out?	117043611	1475154857936	1475154857985	o	79
229997	2464198	Do we have New York sorted out?	Do we have New York sorted out?	117043616	1475154858079	1475154858118	u	85
229997	2464198	Do we have New York sorted out?	Do we have New York sorted out?	117043620	1475154858150	1475154858232	t	84
229997	2464198	Do we have New York sorted out?	Do we have New York sorted out?	117043624	1475154858185	1475154858357	SHIFT	16
229997	2464198	Do we have New York sorted out?	Do we have New York sorted out?	117043627	1475154858279	1475154858388	?	191
229997	2464204	Money wise that is.	Money wise that is.	117043689	1475154859895	1475154860034	CAPS_LOCK	20
229997	2464204	Money wise that is.	Money wise that is.	117043690	1475154860034	1475154860116	M	77
229997	2464204	Money wise that is.	Money wise that is.	117043692	1475154860116	1475154860210	CAPS_LOCK	20
229997	2464204	Money wise that is.	Money wise that is.	117043695	1475154860226	1475154860347	o	79
229997	2464204	Money wise that is.	Money wise that is.	117043699	1475154860347	1475154860384	n	66
229997	2464204	Money wise that is.	Money wise that is.	117043703	1475154860400	1475154860513	e	69
229997	2464204	Money wise that is.	Money wise that is.	117043720	1475154860646	1475154860732	BKSP	8
229997	2464204	Money wise that is.	Money wise that is.	117043721	1475154860810	1475154860884	BKSP	8
229997	2464204	Money wise that is.	Money wise that is.	117043722	1475154860953	1475154861016	BKSP	8
229997	2464204	Money wise that is.	Money wise that is.	117043723	1475154861016	1475154861099	n	78
229997	2464204	Money wise that is.	Money wise that is.	117043725	1475154861099	1475154861228	e	69
229997	2464204	Money wise that is.	Money wise that is.	117043727	1475154861198	1475154861267	y	89
229997	2464204	Money wise that is.	Money wise that is.	117043729	1475154861267	1475154861380	 	32
229997	2464204	Money wise that is.	Money wise that is.	117043737	1475154861334	1475154861424	w	87
229997	2464204	Money wise that is.	Money wise that is.	117043740	1475154861455	1475154861548	i	73
229997	2464204	Money wise that is.	Money wise that is.	117043743	1475154861548	1475154861652	s	83
229997	2464204	Money wise that is.	Money wise that is.	117043748	1475154861580	1475154861678	e	69
229997	2464204	Money wise that is.	Money wise that is.	117043751	1475154861678	1475154861797	 	32
229997	2464204	Money wise that is.	Money wise that is.	117043754	1475154861797	1475154861876	a	65
229997	2464204	Money wise that is.	Money wise that is.	117043784	1475154861850	1475154861877	t	84
229997	2464204	Money wise that is.	Money wise that is.	117043787	1475154862270	1475154862317	BKSP	8
229997	2464204	Money wise that is.	Money wise that is.	117043789	1475154862415	1475154862514	t	84
229997	2464204	Money wise that is.	Money wise that is.	117043792	1475154862514	1475154862588	h	72
229997	2464204	Money wise that is.	Money wise that is.	117043795	1475154862567	1475154862700	a	65
229997	2464204	Money wise that is.	Money wise that is.	117043799	1475154862633	1475154862732	t	84
229997	2464204	Money wise that is.	Money wise that is.	117043801	1475154862841	1475154863016	CTRL	17
229997	2464204	Money wise that is.	Money wise that is.	117043805	1475154862919	1475154863016	BKSP	8
229997	2464204	Money wise that is.	Money wise that is.	117043807	1475154863078	1475154863149	t	84
229997	2464204	Money wise that is.	Money wise that is.	117043808	1475154863176	1475154863284	h	72
229997	2464204	Money wise that is.	Money wise that is.	117043809	1475154863250	1475154863350	a	65
229997	2464204	Money wise that is.	Money wise that is.	117043811	1475154863301	1475154863404	t	84
229997	2464204	Money wise that is.	Money wise that is.	117043813	1475154863366	1475154863465	 	32
229997	2464204	Money wise that is.	Money wise that is.	117043817	1475154863528	1475154863631	s	83
229997	2464204	Money wise that is.	Money wise that is.	117043835	1475154863758	1475154863849	BKSP	8
229997	2464204	Money wise that is.	Money wise that is.	117043836	1475154863911	1475154863967	i	73
229997	2464204	Money wise that is.	Money wise that is.	117043837	1475154863998	1475154864124	s	83
