PARTICIPANT_ID	TEST_SECTION_ID	SENTENCE	USER_INPUT	KEYSTROKE_ID	PRESS_TIME	RELEASE_TIME	LETTER	KEYCODE
230851	2472047	Trip was good I presume?	Trip was good i Presume?	117418833	1475162066447	1475162066583	SHIFT	16
230851	2472047	Trip was good I presume?	Trip was good i Presume?	117418836	1475162066518	1475162066598	T	84
230851	2472047	Trip was good I presume?	Trip was good i Presume?	117418845	1475162066661	1475162066802	r	82
230851	2472047	Trip was good I presume?	Trip was good i Presume?	117418840	1475162066740	1475162066787	i	73
230851	2472047	Trip was good I presume?	Trip was good i Presume?	117418849	1475162066880	1475162067003	p	80
230851	2472047	Trip was good I presume?	Trip was good i Presume?	117418858	1475162066968	1475162067122	 	32
230851	2472047	Trip was good I presume?	Trip was good i Presume?	117418860	1475162067070	1475162067169	w	87
230851	2472047	Trip was good I presume?	Trip was good i Presume?	117418864	1475162067153	1475162067291	a	65
230851	2472047	Trip was good I presume?	Trip was good i Presume?	117418869	1475162067237	1475162067339	s	83
230851	2472047	Trip was good I presume?	Trip was good i Presume?	117418873	1475162067299	1475162067468	 	32
230851	2472047	Trip was good I presume?	Trip was good i Presume?	117418884	1475162067355	1475162067523	g	71
230851	2472047	Trip was good I presume?	Trip was good i Presume?	117418883	1475162067406	1475162067484	o	79
230851	2472047	Trip was good I presume?	Trip was good i Presume?	117418885	1475162067555	1475162067651	o	79
230851	2472047	Trip was good I presume?	Trip was good i Presume?	117418886	1475162067608	1475162067710	d	68
230851	2472047	Trip was good I presume?	Trip was good i Presume?	117418889	1475162067675	1475162067741	 	32
230851	2472047	Trip was good I presume?	Trip was good i Presume?	117418894	1475162067725	1475162067855	i	73
230851	2472047	Trip was good I presume?	Trip was good i Presume?	117418921	1475162067823	1475162068042	 	16
230851	2472047	Trip was good I presume?	Trip was good i Presume?	117418924	1475162067971	1475162068120	P	80
230851	2472047	Trip was good I presume?	Trip was good i Presume?	117418928	1475162068105	1475162068229	r	82
230851	2472047	Trip was good I presume?	Trip was good i Presume?	117418932	1475162068165	1475162068276	e	69
230851	2472047	Trip was good I presume?	Trip was good i Presume?	117418935	1475162068338	1475162068475	s	83
230851	2472047	Trip was good I presume?	Trip was good i Presume?	117418937	1475162068476	1475162068562	u	85
230851	2472047	Trip was good I presume?	Trip was good i Presume?	117418950	1475162068658	1475162068772	m	77
230851	2472047	Trip was good I presume?	Trip was good i Presume?	117418951	1475162068729	1475162068916	e	69
230851	2472047	Trip was good I presume?	Trip was good i Presume?	117418952	1475162068814	1475162068979	SHIFT	16
230851	2472047	Trip was good I presume?	Trip was good i Presume?	117418953	1475162068876	1475162069010	?	191
230851	2472056	I have an AM doctor's appointment.	I have an AM doctor's appointment.	117419166	1475162072277	1475162072486	SHIFT	16
230851	2472056	I have an AM doctor's appointment.	I have an AM doctor's appointment.	117419168	1475162072386	1475162072539	I	73
230851	2472056	I have an AM doctor's appointment.	I have an AM doctor's appointment.	117419170	1475162072502	1475162072632	 	32
230851	2472056	I have an AM doctor's appointment.	I have an AM doctor's appointment.	117419172	1475162072632	1475162072787	h	72
230851	2472056	I have an AM doctor's appointment.	I have an AM doctor's appointment.	117419173	1475162072690	1475162072867	a	65
230851	2472056	I have an AM doctor's appointment.	I have an AM doctor's appointment.	117419193	1475162072802	1475162072938	v	86
230851	2472056	I have an AM doctor's appointment.	I have an AM doctor's appointment.	117419197	1475162072851	1475162072963	e	69
230851	2472056	I have an AM doctor's appointment.	I have an AM doctor's appointment.	117419203	1475162072923	1475162073037	 	32
230851	2472056	I have an AM doctor's appointment.	I have an AM doctor's appointment.	117419207	1475162073006	1475162073143	a	65
230851	2472056	I have an AM doctor's appointment.	I have an AM doctor's appointment.	117419210	1475162073091	1475162073242	n	78
230851	2472056	I have an AM doctor's appointment.	I have an AM doctor's appointment.	117419212	1475162073189	1475162073305	 	32
230851	2472056	I have an AM doctor's appointment.	I have an AM doctor's appointment.	117419236	1475162073258	1475162073555	SHIFT	16
230851	2472056	I have an AM doctor's appointment.	I have an AM doctor's appointment.	117419214	1475162073305	1475162073495	A	65
230851	2472056	I have an AM doctor's appointment.	I have an AM doctor's appointment.	117419240	1475162073438	1475162073587	M	77
230851	2472056	I have an AM doctor's appointment.	I have an AM doctor's appointment.	117419245	1475162073571	1475162073706	 	32
230851	2472056	I have an AM doctor's appointment.	I have an AM doctor's appointment.	117419248	1475162073690	1475162073819	d	68
230851	2472056	I have an AM doctor's appointment.	I have an AM doctor's appointment.	117419252	1475162073778	1475162073930	o	79
230851	2472056	I have an AM doctor's appointment.	I have an AM doctor's appointment.	117419256	1475162073879	1475162073977	c	67
230851	2472056	I have an AM doctor's appointment.	I have an AM doctor's appointment.	117419259	1475162074055	1475162074148	t	84
230851	2472056	I have an AM doctor's appointment.	I have an AM doctor's appointment.	117419264	1475162074115	1475162074227	o	79
230851	2472056	I have an AM doctor's appointment.	I have an AM doctor's appointment.	117419266	1475162074212	1475162074344	r	82
230851	2472056	I have an AM doctor's appointment.	I have an AM doctor's appointment.	117419268	1475162074328	1475162074452	'	222
230851	2472056	I have an AM doctor's appointment.	I have an AM doctor's appointment.	117419270	1475162074415	1475162074486	s	83
230851	2472056	I have an AM doctor's appointment.	I have an AM doctor's appointment.	117419272	1475162074502	1475162074600	 	32
230851	2472056	I have an AM doctor's appointment.	I have an AM doctor's appointment.	117419311	1475162074535	1475162074685	a	65
230851	2472056	I have an AM doctor's appointment.	I have an AM doctor's appointment.	117419314	1475162074632	1475162074716	p	80
230851	2472056	I have an AM doctor's appointment.	I have an AM doctor's appointment.	117419315	1475162074794	1475162074899	p	80
230851	2472056	I have an AM doctor's appointment.	I have an AM doctor's appointment.	117419317	1475162074962	1475162075066	o	79
230851	2472056	I have an AM doctor's appointment.	I have an AM doctor's appointment.	117419318	1475162075146	1475162075251	i	73
230851	2472056	I have an AM doctor's appointment.	I have an AM doctor's appointment.	117419319	1475162075345	1475162075468	n	78
230851	2472056	I have an AM doctor's appointment.	I have an AM doctor's appointment.	117419354	1475162075453	1475162075558	t	84
230851	2472056	I have an AM doctor's appointment.	I have an AM doctor's appointment.	117419357	1475162075542	1475162075675	m	77
230851	2472056	I have an AM doctor's appointment.	I have an AM doctor's appointment.	117419362	1475162075606	1475162075773	e	69
230851	2472056	I have an AM doctor's appointment.	I have an AM doctor's appointment.	117419370	1475162075706	1475162075859	t	84
230851	2472056	I have an AM doctor's appointment.	I have an AM doctor's appointment.	117419375	1475162075820	1475162075922	n	78
230851	2472056	I have an AM doctor's appointment.	I have an AM doctor's appointment.	117419378	1475162076062	1475162076143	BKSP	8
230851	2472056	I have an AM doctor's appointment.	I have an AM doctor's appointment.	117419384	1475162076205	1475162076293	BKSP	8
230851	2472056	I have an AM doctor's appointment.	I have an AM doctor's appointment.	117419390	1475162076402	1475162076507	n	78
230851	2472056	I have an AM doctor's appointment.	I have an AM doctor's appointment.	117419379	1475162076476	1475162076598	t	84
230851	2472056	I have an AM doctor's appointment.	I have an AM doctor's appointment.	117419383	1475162076583	1475162076694	.	190
230851	2472066	Probably will be working.	Probably will be working.	117419550	1475162079159	1475162079427	SHIFT	16
230851	2472066	Probably will be working.	Probably will be working.	117419553	1475162079331	1475162079427	P	80
230851	2472066	Probably will be working.	Probably will be working.	117419556	1475162079427	1475162079528	r	82
230851	2472066	Probably will be working.	Probably will be working.	117419558	1475162079512	1475162079649	o	79
230851	2472066	Probably will be working.	Probably will be working.	117419560	1475162079596	1475162079695	b	66
230851	2472066	Probably will be working.	Probably will be working.	117419563	1475162079711	1475162079849	a	65
230851	2472066	Probably will be working.	Probably will be working.	117419565	1475162079780	1475162079865	b	66
230851	2472066	Probably will be working.	Probably will be working.	117419568	1475162079849	1475162080011	l	76
230851	2472066	Probably will be working.	Probably will be working.	117419572	1475162079963	1475162080049	y	89
230851	2472066	Probably will be working.	Probably will be working.	117419576	1475162080034	1475162080147	 	32
230851	2472066	Probably will be working.	Probably will be working.	117419596	1475162080088	1475162080247	w	87
230851	2472066	Probably will be working.	Probably will be working.	117419593	1475162080139	1475162080215	i	73
230851	2472066	Probably will be working.	Probably will be working.	117419602	1475162080278	1475162080352	l	76
230851	2472066	Probably will be working.	Probably will be working.	117419610	1475162080399	1475162080554	l	76
230851	2472066	Probably will be working.	Probably will be working.	117419616	1475162080451	1475162080554	 	32
230851	2472066	Probably will be working.	Probably will be working.	117419622	1475162080487	1475162080635	b	66
230851	2472066	Probably will be working.	Probably will be working.	117419627	1475162080586	1475162080670	e	69
230851	2472066	Probably will be working.	Probably will be working.	117419631	1475162080670	1475162080819	 	32
230851	2472066	Probably will be working.	Probably will be working.	117419635	1475162080768	1475162080887	w	87
230851	2472066	Probably will be working.	Probably will be working.	117419639	1475162080819	1475162080903	o	79
230851	2472066	Probably will be working.	Probably will be working.	117419653	1475162080919	1475162081055	r	82
230851	2472066	Probably will be working.	Probably will be working.	117419643	1475162080963	1475162081039	k	75
230851	2472066	Probably will be working.	Probably will be working.	117419657	1475162081102	1475162081175	i	73
230851	2472066	Probably will be working.	Probably will be working.	117419661	1475162081237	1475162081322	n	78
230851	2472066	Probably will be working.	Probably will be working.	117419665	1475162081306	1475162081421	g	71
230851	2472070	He pleaded guilty in February under an agreement with the government.	He pleaded guilty in February under an agreement with the government.	117420389	1475162081421	1475162093900	.	190
230851	2472070	He pleaded guilty in February under an agreement with the government.	He pleaded guilty in February under an agreement with the government.	117419839	1475162084303	1475162084477	SHIFT	16
230851	2472070	He pleaded guilty in February under an agreement with the government.	He pleaded guilty in February under an agreement with the government.	117419842	1475162084381	1475162084544	H	72
230851	2472070	He pleaded guilty in February under an agreement with the government.	He pleaded guilty in February under an agreement with the government.	117419845	1475162084493	1475162084663	e	69
230851	2472070	He pleaded guilty in February under an agreement with the government.	He pleaded guilty in February under an agreement with the government.	117419848	1475162084607	1475162084728	 	32
230851	2472070	He pleaded guilty in February under an agreement with the government.	He pleaded guilty in February under an agreement with the government.	117419851	1475162084663	1475162084744	p	80
230851	2472070	He pleaded guilty in February under an agreement with the government.	He pleaded guilty in February under an agreement with the government.	117419855	1475162084806	1475162084963	l	76
230851	2472070	He pleaded guilty in February under an agreement with the government.	He pleaded guilty in February under an agreement with the government.	117419867	1475162084911	1475162085029	e	69
230851	2472070	He pleaded guilty in February under an agreement with the government.	He pleaded guilty in February under an agreement with the government.	117419870	1475162085013	1475162085171	a	65
230851	2472070	He pleaded guilty in February under an agreement with the government.	He pleaded guilty in February under an agreement with the government.	117419875	1475162085130	1475162085261	d	68
230851	2472070	He pleaded guilty in February under an agreement with the government.	He pleaded guilty in February under an agreement with the government.	117419879	1475162085230	1475162085384	e	69
230851	2472070	He pleaded guilty in February under an agreement with the government.	He pleaded guilty in February under an agreement with the government.	117419884	1475162085330	1475162085416	d	68
230851	2472070	He pleaded guilty in February under an agreement with the government.	He pleaded guilty in February under an agreement with the government.	117419903	1475162085416	1475162085552	 	32
230851	2472070	He pleaded guilty in February under an agreement with the government.	He pleaded guilty in February under an agreement with the government.	117419913	1475162085485	1475162085630	g	71
230851	2472070	He pleaded guilty in February under an agreement with the government.	He pleaded guilty in February under an agreement with the government.	117419907	1475162085523	1475162085614	u	85
230851	2472070	He pleaded guilty in February under an agreement with the government.	He pleaded guilty in February under an agreement with the government.	117419918	1475162085661	1475162085736	i	73
230851	2472070	He pleaded guilty in February under an agreement with the government.	He pleaded guilty in February under an agreement with the government.	117419934	1475162085814	1475162085936	l	76
230851	2472070	He pleaded guilty in February under an agreement with the government.	He pleaded guilty in February under an agreement with the government.	117419921	1475162085869	1475162085921	t	84
230851	2472070	He pleaded guilty in February under an agreement with the government.	He pleaded guilty in February under an agreement with the government.	117419938	1475162085968	1475162086104	y	89
230851	2472070	He pleaded guilty in February under an agreement with the government.	He pleaded guilty in February under an agreement with the government.	117419940	1475162086052	1475162086154	 	32
230851	2472070	He pleaded guilty in February under an agreement with the government.	He pleaded guilty in February under an agreement with the government.	117419942	1475162086089	1475162086170	i	73
230851	2472070	He pleaded guilty in February under an agreement with the government.	He pleaded guilty in February under an agreement with the government.	117419944	1475162086232	1475162086353	n	78
230851	2472070	He pleaded guilty in February under an agreement with the government.	He pleaded guilty in February under an agreement with the government.	117419966	1475162086267	1475162086387	 	32
230851	2472070	He pleaded guilty in February under an agreement with the government.	He pleaded guilty in February under an agreement with the government.	117419970	1475162086353	1475162086490	SHIFT	16
230851	2472070	He pleaded guilty in February under an agreement with the government.	He pleaded guilty in February under an agreement with the government.	117419978	1475162086418	1475162086555	F	70
230851	2472070	He pleaded guilty in February under an agreement with the government.	He pleaded guilty in February under an agreement with the government.	117419982	1475162086521	1475162086638	e	69
230851	2472070	He pleaded guilty in February under an agreement with the government.	He pleaded guilty in February under an agreement with the government.	117419984	1475162086638	1475162086724	b	66
230851	2472070	He pleaded guilty in February under an agreement with the government.	He pleaded guilty in February under an agreement with the government.	117419985	1475162086811	1475162086923	r	82
230851	2472070	He pleaded guilty in February under an agreement with the government.	He pleaded guilty in February under an agreement with the government.	117419995	1475162086874	1475162087007	u	85
230851	2472070	He pleaded guilty in February under an agreement with the government.	He pleaded guilty in February under an agreement with the government.	117419997	1475162087054	1475162087259	a	65
230851	2472070	He pleaded guilty in February under an agreement with the government.	He pleaded guilty in February under an agreement with the government.	117420001	1475162087157	1475162087290	r	82
230851	2472070	He pleaded guilty in February under an agreement with the government.	He pleaded guilty in February under an agreement with the government.	117420005	1475162087368	1475162087497	y	89
230851	2472070	He pleaded guilty in February under an agreement with the government.	He pleaded guilty in February under an agreement with the government.	117420007	1475162087446	1475162087579	 	32
230851	2472070	He pleaded guilty in February under an agreement with the government.	He pleaded guilty in February under an agreement with the government.	117420019	1475162087544	1475162087613	u	85
230851	2472070	He pleaded guilty in February under an agreement with the government.	He pleaded guilty in February under an agreement with the government.	117420025	1475162087676	1475162087832	n	78
230851	2472070	He pleaded guilty in February under an agreement with the government.	He pleaded guilty in February under an agreement with the government.	117420022	1475162087730	1475162087814	d	68
230851	2472070	He pleaded guilty in February under an agreement with the government.	He pleaded guilty in February under an agreement with the government.	117420027	1475162087798	1475162087931	e	69
230851	2472070	He pleaded guilty in February under an agreement with the government.	He pleaded guilty in February under an agreement with the government.	117420028	1475162087864	1475162088001	r	82
230851	2472070	He pleaded guilty in February under an agreement with the government.	He pleaded guilty in February under an agreement with the government.	117420049	1475162087933	1475162088066	 	32
230851	2472070	He pleaded guilty in February under an agreement with the government.	He pleaded guilty in February under an agreement with the government.	117420052	1475162088001	1475162088115	a	65
230851	2472070	He pleaded guilty in February under an agreement with the government.	He pleaded guilty in February under an agreement with the government.	117420053	1475162088066	1475162088180	n	78
230851	2472070	He pleaded guilty in February under an agreement with the government.	He pleaded guilty in February under an agreement with the government.	117420055	1475162088258	1475162088365	a	65
230851	2472070	He pleaded guilty in February under an agreement with the government.	He pleaded guilty in February under an agreement with the government.	117420060	1475162088523	1475162088618	BKSP	8
230851	2472070	He pleaded guilty in February under an agreement with the government.	He pleaded guilty in February under an agreement with the government.	117420065	1475162088633	1475162088750	 	32
230851	2472070	He pleaded guilty in February under an agreement with the government.	He pleaded guilty in February under an agreement with the government.	117420102	1475162088734	1475162088834	a	65
230851	2472070	He pleaded guilty in February under an agreement with the government.	He pleaded guilty in February under an agreement with the government.	117420104	1475162089083	1475162089156	g	71
230851	2472070	He pleaded guilty in February under an agreement with the government.	He pleaded guilty in February under an agreement with the government.	117420108	1475162089375	1475162089509	r	82
230851	2472070	He pleaded guilty in February under an agreement with the government.	He pleaded guilty in February under an agreement with the government.	117420110	1475162089477	1475162089589	e	69
230851	2472070	He pleaded guilty in February under an agreement with the government.	He pleaded guilty in February under an agreement with the government.	117420113	1475162089651	1475162089711	e	69
230851	2472070	He pleaded guilty in February under an agreement with the government.	He pleaded guilty in February under an agreement with the government.	117420122	1475162089695	1475162089783	m	77
230851	2472070	He pleaded guilty in February under an agreement with the government.	He pleaded guilty in February under an agreement with the government.	117420124	1475162089799	1475162089876	e	69
230851	2472070	He pleaded guilty in February under an agreement with the government.	He pleaded guilty in February under an agreement with the government.	117420129	1475162089845	1475162089977	n	78
230851	2472070	He pleaded guilty in February under an agreement with the government.	He pleaded guilty in February under an agreement with the government.	117420134	1475162089907	1475162089993	t	84
230851	2472070	He pleaded guilty in February under an agreement with the government.	He pleaded guilty in February under an agreement with the government.	117420142	1475162089993	1475162090091	 	32
230851	2472070	He pleaded guilty in February under an agreement with the government.	He pleaded guilty in February under an agreement with the government.	117420183	1475162090030	1475162090147	w	87
230851	2472070	He pleaded guilty in February under an agreement with the government.	He pleaded guilty in February under an agreement with the government.	117420188	1475162090093	1475162090195	i	85
230851	2472070	He pleaded guilty in February under an agreement with the government.	He pleaded guilty in February under an agreement with the government.	117420192	1475162090157	1475162090243	t	84
230851	2472070	He pleaded guilty in February under an agreement with the government.	He pleaded guilty in February under an agreement with the government.	117420197	1475162090415	1475162090482	BKSP	8
230851	2472070	He pleaded guilty in February under an agreement with the government.	He pleaded guilty in February under an agreement with the government.	117420201	1475162090560	1475162090616	BKSP	8
230851	2472070	He pleaded guilty in February under an agreement with the government.	He pleaded guilty in February under an agreement with the government.	117420204	1475162090694	1475162090801	BKSP	8
230851	2472070	He pleaded guilty in February under an agreement with the government.	He pleaded guilty in February under an agreement with the government.	117420205	1475162090766	1475162090883	i	73
230851	2472070	He pleaded guilty in February under an agreement with the government.	He pleaded guilty in February under an agreement with the government.	117420206	1475162090817	1475162090899	t	84
230851	2472070	He pleaded guilty in February under an agreement with the government.	He pleaded guilty in February under an agreement with the government.	117420208	1475162090946	1475162091048	h	72
230851	2472070	He pleaded guilty in February under an agreement with the government.	He pleaded guilty in February under an agreement with the government.	117420210	1475162091048	1475162091200	 	32
230851	2472070	He pleaded guilty in February under an agreement with the government.	He pleaded guilty in February under an agreement with the government.	117420215	1475162091101	1475162091231	t	84
230851	2472070	He pleaded guilty in February under an agreement with the government.	He pleaded guilty in February under an agreement with the government.	117420218	1475162091215	1475162091347	h	72
230851	2472070	He pleaded guilty in February under an agreement with the government.	He pleaded guilty in February under an agreement with the government.	117420234	1475162091332	1475162091451	e	69
230851	2472070	He pleaded guilty in February under an agreement with the government.	He pleaded guilty in February under an agreement with the government.	117420237	1475162091388	1475162091569	 	32
230851	2472070	He pleaded guilty in February under an agreement with the government.	He pleaded guilty in February under an agreement with the government.	117420244	1475162091477	1475162091584	g	71
230851	2472070	He pleaded guilty in February under an agreement with the government.	He pleaded guilty in February under an agreement with the government.	117420246	1475162091569	1475162091691	o	79
230851	2472070	He pleaded guilty in February under an agreement with the government.	He pleaded guilty in February under an agreement with the government.	117420253	1475162091654	1475162091803	v	86
230851	2472070	He pleaded guilty in February under an agreement with the government.	He pleaded guilty in February under an agreement with the government.	117420272	1475162091754	1475162091923	e	69
230851	2472070	He pleaded guilty in February under an agreement with the government.	He pleaded guilty in February under an agreement with the government.	117420274	1475162091870	1475162091960	r	78
230851	2472070	He pleaded guilty in February under an agreement with the government.	He pleaded guilty in February under an agreement with the government.	117420278	1475162092054	1475162092155	m	77
230851	2472070	He pleaded guilty in February under an agreement with the government.	He pleaded guilty in February under an agreement with the government.	117420280	1475162092202	1475162092322	e	78
230851	2472070	He pleaded guilty in February under an agreement with the government.	He pleaded guilty in February under an agreement with the government.	117420346	1475162092493	1475162092578	BKSP	8
230851	2472070	He pleaded guilty in February under an agreement with the government.	He pleaded guilty in February under an agreement with the government.	117420348	1475162092656	1475162092727	BKSP	8
230851	2472070	He pleaded guilty in February under an agreement with the government.	He pleaded guilty in February under an agreement with the government.	117420354	1475162092806	1475162092893	BKSP	8
230851	2472070	He pleaded guilty in February under an agreement with the government.	He pleaded guilty in February under an agreement with the government.	117420358	1475162092956	1475162093030	BKSP	8
230851	2472070	He pleaded guilty in February under an agreement with the government.	He pleaded guilty in February under an agreement with the government.	117420362	1475162093092	1475162093149	BKSP	8
230851	2472070	He pleaded guilty in February under an agreement with the government.	He pleaded guilty in February under an agreement with the government.	117420368	1475162093164	1475162093298	r	82
230851	2472070	He pleaded guilty in February under an agreement with the government.	He pleaded guilty in February under an agreement with the government.	117420372	1475162093233	1475162093330	n	78
230851	2472070	He pleaded guilty in February under an agreement with the government.	He pleaded guilty in February under an agreement with the government.	117420378	1475162093423	1475162093515	m	77
230851	2472070	He pleaded guilty in February under an agreement with the government.	He pleaded guilty in February under an agreement with the government.	117420383	1475162093546	1475162093667	e	69
230851	2472070	He pleaded guilty in February under an agreement with the government.	He pleaded guilty in February under an agreement with the government.	117420377	1475162093616	1475162093717	n	78
230851	2472070	He pleaded guilty in February under an agreement with the government.	He pleaded guilty in February under an agreement with the government.	117420384	1475162093701	1475162093829	t	84
230851	2472083	US ships will also lead a second task force.	Us ships will also lead a second task force.	117420573	1475162096614	1475162096800	SHIFT	16
230851	2472083	US ships will also lead a second task force.	Us ships will also lead a second task force.	117420576	1475162096676	1475162096838	U	85
230851	2472083	US ships will also lead a second task force.	Us ships will also lead a second task force.	117420580	1475162096800	1475162096931	s	83
230851	2472083	US ships will also lead a second task force.	Us ships will also lead a second task force.	117420585	1475162096916	1475162097050	 	32
230851	2472083	US ships will also lead a second task force.	Us ships will also lead a second task force.	117420588	1475162097018	1475162097106	SHIFT	16
230851	2472083	US ships will also lead a second task force.	Us ships will also lead a second task force.	117420591	1475162097065	1475162097153	S	83
230851	2472083	US ships will also lead a second task force.	Us ships will also lead a second task force.	117420594	1475162097216	1475162097352	h	72
230851	2472083	US ships will also lead a second task force.	Us ships will also lead a second task force.	117420661	1475162097447	1475162097523	BKSP	8
230851	2472083	US ships will also lead a second task force.	Us ships will also lead a second task force.	117420666	1475162097585	1475162097683	BKSP	8
230851	2472083	US ships will also lead a second task force.	Us ships will also lead a second task force.	117420672	1475162097642	1475162097708	s	83
230851	2472083	US ships will also lead a second task force.	Us ships will also lead a second task force.	117420679	1475162097739	1475162097874	h	72
230851	2472083	US ships will also lead a second task force.	Us ships will also lead a second task force.	117420674	1475162097777	1475162097858	i	85
230851	2472083	US ships will also lead a second task force.	Us ships will also lead a second task force.	117420684	1475162098092	1475162098178	BKSP	8
230851	2472083	US ships will also lead a second task force.	Us ships will also lead a second task force.	117420689	1475162098256	1475162098345	BKSP	8
230851	2472083	US ships will also lead a second task force.	Us ships will also lead a second task force.	117420693	1475162098360	1475162098444	i	73
230851	2472083	US ships will also lead a second task force.	Us ships will also lead a second task force.	117420696	1475162098509	1475162098659	p	80
230851	2472083	US ships will also lead a second task force.	Us ships will also lead a second task force.	117420702	1475162098612	1475162098659	s	83
230851	2472083	US ships will also lead a second task force.	Us ships will also lead a second task force.	117420708	1475162098675	1475162098786	 	32
230851	2472083	US ships will also lead a second task force.	Us ships will also lead a second task force.	117420713	1475162098747	1475162098865	w	87
230851	2472083	US ships will also lead a second task force.	Us ships will also lead a second task force.	117420731	1475162098799	1475162098865	i	73
230851	2472083	US ships will also lead a second task force.	Us ships will also lead a second task force.	117420734	1475162098928	1475162098999	l	76
230851	2472083	US ships will also lead a second task force.	Us ships will also lead a second task force.	117420737	1475162099061	1475162099155	l	76
230851	2472083	US ships will also lead a second task force.	Us ships will also lead a second task force.	117420740	1475162099099	1475162099218	 	32
230851	2472083	US ships will also lead a second task force.	Us ships will also lead a second task force.	117420741	1475162099147	1475162099251	a	65
230851	2472083	US ships will also lead a second task force.	Us ships will also lead a second task force.	117420749	1475162099218	1475162099317	l	76
230851	2472083	US ships will also lead a second task force.	Us ships will also lead a second task force.	117420754	1475162099317	1475162099444	s	83
230851	2472083	US ships will also lead a second task force.	Us ships will also lead a second task force.	117420758	1475162099369	1475162099467	o	79
230851	2472083	US ships will also lead a second task force.	Us ships will also lead a second task force.	117420763	1475162099467	1475162099588	 	32
230851	2472083	US ships will also lead a second task force.	Us ships will also lead a second task force.	117420791	1475162099519	1475162099649	l	76
230851	2472083	US ships will also lead a second task force.	Us ships will also lead a second task force.	117420794	1475162099573	1475162099756	e	69
230851	2472083	US ships will also lead a second task force.	Us ships will also lead a second task force.	117420797	1475162099665	1475162099772	a	65
230851	2472083	US ships will also lead a second task force.	Us ships will also lead a second task force.	117420799	1475162099721	1475162099842	d	68
230851	2472083	US ships will also lead a second task force.	Us ships will also lead a second task force.	117420801	1475162099787	1475162099891	 	32
230851	2472083	US ships will also lead a second task force.	Us ships will also lead a second task force.	117420803	1475162099860	1475162099960	a	65
230851	2472083	US ships will also lead a second task force.	Us ships will also lead a second task force.	117420805	1475162099960	1475162100099	 	32
230851	2472083	US ships will also lead a second task force.	Us ships will also lead a second task force.	117420835	1475162100054	1475162100100	s	83
230851	2472083	US ships will also lead a second task force.	Us ships will also lead a second task force.	117420838	1475162100160	1475162100325	e	69
230851	2472083	US ships will also lead a second task force.	Us ships will also lead a second task force.	117420840	1475162100271	1475162100466	c	67
230851	2472083	US ships will also lead a second task force.	Us ships will also lead a second task force.	117420845	1475162100434	1475162100525	o	79
230851	2472083	US ships will also lead a second task force.	Us ships will also lead a second task force.	117420850	1475162100883	1475162101027	n	78
230851	2472083	US ships will also lead a second task force.	Us ships will also lead a second task force.	117420861	1475162100992	1475162101078	d	68
230851	2472083	US ships will also lead a second task force.	Us ships will also lead a second task force.	117420862	1475162101078	1475162101212	 	32
230851	2472083	US ships will also lead a second task force.	Us ships will also lead a second task force.	117420865	1475162101155	1475162101274	t	84
230851	2472083	US ships will also lead a second task force.	Us ships will also lead a second task force.	117420868	1475162101259	1475162101365	a	65
230851	2472083	US ships will also lead a second task force.	Us ships will also lead a second task force.	117420869	1475162101315	1475162101450	s	83
230851	2472083	US ships will also lead a second task force.	Us ships will also lead a second task force.	117420882	1475162101381	1475162101498	k	75
230851	2472083	US ships will also lead a second task force.	Us ships will also lead a second task force.	117420884	1475162101452	1475162101582	 	32
230851	2472083	US ships will also lead a second task force.	Us ships will also lead a second task force.	117420885	1475162101514	1475162101598	f	70
230851	2472083	US ships will also lead a second task force.	Us ships will also lead a second task force.	117420887	1475162101582	1475162101701	o	79
230851	2472083	US ships will also lead a second task force.	Us ships will also lead a second task force.	117420891	1475162101648	1475162101748	r	82
230851	2472083	US ships will also lead a second task force.	Us ships will also lead a second task force.	117420896	1475162101826	1475162101952	c	67
230851	2472092	Charlie Garner will once again be Oakland's feature back.	Charle Garner will once again be Oaklad's feature bakc.	117421077	1475162101869	1475162104827	e	69
230851	2472092	Charlie Garner will once again be Oakland's feature back.	Charle Garner will once again be Oaklad's feature bakc.	117421032	1475162104150	1475162104284	SHIFT	16
230851	2472092	Charlie Garner will once again be Oakland's feature back.	Charle Garner will once again be Oaklad's feature bakc.	117421037	1475162104249	1475162104351	C	67
230851	2472092	Charlie Garner will once again be Oakland's feature back.	Charle Garner will once again be Oaklad's feature bakc.	117421042	1475162104300	1475162104427	h	72
230851	2472092	Charlie Garner will once again be Oakland's feature back.	Charle Garner will once again be Oaklad's feature bakc.	117421047	1475162104382	1475162104532	a	65
230851	2472092	Charlie Garner will once again be Oakland's feature back.	Charle Garner will once again be Oaklad's feature bakc.	117421072	1475162104450	1475162104579	r	82
230851	2472092	Charlie Garner will once again be Oakland's feature back.	Charle Garner will once again be Oaklad's feature bakc.	117421074	1475162104516	1475162104601	l	76
230851	2472092	Charlie Garner will once again be Oakland's feature back.	Charle Garner will once again be Oaklad's feature bakc.	117421076	1475162104663	1475162104801	i	73
230851	2472092	Charlie Garner will once again be Oakland's feature back.	Charle Garner will once again be Oaklad's feature bakc.	117421081	1475162104785	1475162104953	 	32
230851	2472092	Charlie Garner will once again be Oakland's feature back.	Charle Garner will once again be Oaklad's feature bakc.	117421079	1475162104837	1475162104937	SHIFT	16
230851	2472092	Charlie Garner will once again be Oakland's feature back.	Charle Garner will once again be Oaklad's feature bakc.	117421083	1475162104899	1475162105015	G	71
230851	2472092	Charlie Garner will once again be Oakland's feature back.	Charle Garner will once again be Oaklad's feature bakc.	117421085	1475162105046	1475162105170	a	65
230851	2472092	Charlie Garner will once again be Oakland's feature back.	Charle Garner will once again be Oaklad's feature bakc.	117421089	1475162105099	1475162105205	r	82
230851	2472092	Charlie Garner will once again be Oakland's feature back.	Charle Garner will once again be Oaklad's feature bakc.	117421092	1475162105154	1475162105306	n	78
230851	2472092	Charlie Garner will once again be Oakland's feature back.	Charle Garner will once again be Oaklad's feature bakc.	117421095	1475162105252	1475162105357	e	69
230851	2472092	Charlie Garner will once again be Oakland's feature back.	Charle Garner will once again be Oaklad's feature bakc.	117421098	1475162105306	1475162105419	r	82
230851	2472092	Charlie Garner will once again be Oakland's feature back.	Charle Garner will once again be Oaklad's feature bakc.	117421103	1475162105357	1475162105490	 	32
230851	2472092	Charlie Garner will once again be Oakland's feature back.	Charle Garner will once again be Oaklad's feature bakc.	117421128	1475162105440	1475162105572	w	87
230851	2472092	Charlie Garner will once again be Oakland's feature back.	Charle Garner will once again be Oaklad's feature bakc.	117421126	1475162105475	1475162105541	i	73
230851	2472092	Charlie Garner will once again be Oakland's feature back.	Charle Garner will once again be Oaklad's feature bakc.	117421133	1475162105619	1475162105691	l	76
230851	2472092	Charlie Garner will once again be Oakland's feature back.	Charle Garner will once again be Oaklad's feature bakc.	117421138	1475162105744	1475162105825	l	76
230851	2472092	Charlie Garner will once again be Oakland's feature back.	Charle Garner will once again be Oaklad's feature bakc.	117421142	1475162105809	1475162105922	 	32
230851	2472092	Charlie Garner will once again be Oakland's feature back.	Charle Garner will once again be Oaklad's feature bakc.	117421151	1475162105906	1475162105976	o	79
230851	2472092	Charlie Garner will once again be Oakland's feature back.	Charle Garner will once again be Oaklad's feature bakc.	117421160	1475162106038	1475162106195	n	78
230851	2472092	Charlie Garner will once again be Oakland's feature back.	Charle Garner will once again be Oaklad's feature bakc.	117421168	1475162106095	1475162106229	c	67
230851	2472092	Charlie Garner will once again be Oakland's feature back.	Charle Garner will once again be Oaklad's feature bakc.	117421173	1475162106143	1475162106244	e	69
230851	2472092	Charlie Garner will once again be Oakland's feature back.	Charle Garner will once again be Oaklad's feature bakc.	117421176	1475162106227	1475162106395	 	32
230851	2472092	Charlie Garner will once again be Oakland's feature back.	Charle Garner will once again be Oaklad's feature bakc.	117421179	1475162106294	1475162106427	a	65
230851	2472092	Charlie Garner will once again be Oakland's feature back.	Charle Garner will once again be Oaklad's feature bakc.	117421180	1475162106380	1475162106571	g	71
230851	2472092	Charlie Garner will once again be Oakland's feature back.	Charle Garner will once again be Oaklad's feature bakc.	117421190	1475162106494	1475162106662	a	65
230851	2472092	Charlie Garner will once again be Oakland's feature back.	Charle Garner will once again be Oaklad's feature bakc.	117421189	1475162106525	1475162106600	i	73
230851	2472092	Charlie Garner will once again be Oakland's feature back.	Charle Garner will once again be Oaklad's feature bakc.	117421192	1475162106662	1475162106803	n	78
230851	2472092	Charlie Garner will once again be Oakland's feature back.	Charle Garner will once again be Oaklad's feature bakc.	117421195	1475162106714	1475162106832	 	32
230851	2472092	Charlie Garner will once again be Oakland's feature back.	Charle Garner will once again be Oaklad's feature bakc.	117421197	1475162106765	1475162106915	b	66
230851	2472092	Charlie Garner will once again be Oakland's feature back.	Charle Garner will once again be Oaklad's feature bakc.	117421199	1475162106847	1475162106948	e	69
230851	2472092	Charlie Garner will once again be Oakland's feature back.	Charle Garner will once again be Oaklad's feature bakc.	117421225	1475162106917	1475162107030	 	32
230851	2472092	Charlie Garner will once again be Oakland's feature back.	Charle Garner will once again be Oaklad's feature bakc.	117421230	1475162106983	1475162107134	SHIFT	16
230851	2472092	Charlie Garner will once again be Oakland's feature back.	Charle Garner will once again be Oaklad's feature bakc.	117421237	1475162107061	1475162107180	O	79
230851	2472092	Charlie Garner will once again be Oakland's feature back.	Charle Garner will once again be Oaklad's feature bakc.	117421242	1475162107196	1475162107335	a	65
230851	2472092	Charlie Garner will once again be Oakland's feature back.	Charle Garner will once again be Oaklad's feature bakc.	117421246	1475162107269	1475162107351	k	75
230851	2472092	Charlie Garner will once again be Oakland's feature back.	Charle Garner will once again be Oaklad's feature bakc.	117421248	1475162107429	1475162107552	l	76
230851	2472092	Charlie Garner will once again be Oakland's feature back.	Charle Garner will once again be Oaklad's feature bakc.	117421257	1475162107501	1475162107587	a	65
230851	2472092	Charlie Garner will once again be Oakland's feature back.	Charle Garner will once again be Oaklad's feature bakc.	117421260	1475162107552	1475162107698	d	68
230851	2472092	Charlie Garner will once again be Oakland's feature back.	Charle Garner will once again be Oaklad's feature bakc.	117421266	1475162107666	1475162107803	'	222
230851	2472092	Charlie Garner will once again be Oakland's feature back.	Charle Garner will once again be Oaklad's feature bakc.	117421272	1475162107782	1475162107891	s	83
230851	2472092	Charlie Garner will once again be Oakland's feature back.	Charle Garner will once again be Oaklad's feature bakc.	117421277	1475162107855	1475162107988	 	32
230851	2472092	Charlie Garner will once again be Oakland's feature back.	Charle Garner will once again be Oaklad's feature bakc.	117421288	1475162107921	1475162108087	f	70
230851	2472092	Charlie Garner will once again be Oakland's feature back.	Charle Garner will once again be Oaklad's feature bakc.	117421289	1475162107988	1475162108203	e	69
230851	2472092	Charlie Garner will once again be Oakland's feature back.	Charle Garner will once again be Oaklad's feature bakc.	117421291	1475162108087	1475162108240	a	65
230851	2472092	Charlie Garner will once again be Oakland's feature back.	Charle Garner will once again be Oaklad's feature bakc.	117421292	1475162108187	1475162108291	t	84
230851	2472092	Charlie Garner will once again be Oakland's feature back.	Charle Garner will once again be Oaklad's feature bakc.	117421294	1475162108240	1475162108394	u	85
230851	2472092	Charlie Garner will once again be Oakland's feature back.	Charle Garner will once again be Oaklad's feature bakc.	117421319	1475162108353	1475162108463	r	82
230851	2472092	Charlie Garner will once again be Oakland's feature back.	Charle Garner will once again be Oaklad's feature bakc.	117421323	1475162108408	1475162108523	e	69
230851	2472092	Charlie Garner will once again be Oakland's feature back.	Charle Garner will once again be Oaklad's feature bakc.	117421327	1475162108463	1475162108609	 	32
230851	2472092	Charlie Garner will once again be Oakland's feature back.	Charle Garner will once again be Oaklad's feature bakc.	117421333	1475162108541	1475162108656	b	66
230851	2472092	Charlie Garner will once again be Oakland's feature back.	Charle Garner will once again be Oaklad's feature bakc.	117421344	1475162108674	1475162108822	a	65
230851	2472092	Charlie Garner will once again be Oakland's feature back.	Charle Garner will once again be Oaklad's feature bakc.	117421340	1475162108726	1475162108806	c	75
230851	2472099	I'm looking forward to the long weekend!	I'm looking forward to the long weekend!	117421495	1475162111439	1475162111590	SHIFT	16
230851	2472099	I'm looking forward to the long weekend!	I'm looking forward to the long weekend!	117421492	1475162111488	1475162111575	I	73
230851	2472099	I'm looking forward to the long weekend!	I'm looking forward to the long weekend!	117421502	1475162111746	1475162111828	'	222
230851	2472099	I'm looking forward to the long weekend!	I'm looking forward to the long weekend!	117421506	1475162111937	1475162112059	m	77
230851	2472099	I'm looking forward to the long weekend!	I'm looking forward to the long weekend!	117421510	1475162112027	1475162112127	 	32
230851	2472099	I'm looking forward to the long weekend!	I'm looking forward to the long weekend!	117421513	1475162112158	1475162112230	l	76
230851	2472099	I'm looking forward to the long weekend!	I'm looking forward to the long weekend!	117421535	1475162112294	1475162112363	o	79
230851	2472099	I'm looking forward to the long weekend!	I'm looking forward to the long weekend!	117421538	1475162112425	1475162112513	o	79
230851	2472099	I'm looking forward to the long weekend!	I'm looking forward to the long weekend!	117421542	1475162112559	1475162112646	k	75
230851	2472099	I'm looking forward to the long weekend!	I'm looking forward to the long weekend!	117421546	1475162112709	1475162112783	i	73
230851	2472099	I'm looking forward to the long weekend!	I'm looking forward to the long weekend!	117421549	1475162112829	1475162112947	g	78
230851	2472099	I'm looking forward to the long weekend!	I'm looking forward to the long weekend!	117421589	1475162112932	1475162113084	 	32
230851	2472099	I'm looking forward to the long weekend!	I'm looking forward to the long weekend!	117421591	1475162113033	1475162113105	f	70
230851	2472099	I'm looking forward to the long weekend!	I'm looking forward to the long weekend!	117421594	1475162113068	1475162113197	o	79
230851	2472099	I'm looking forward to the long weekend!	I'm looking forward to the long weekend!	117421599	1475162113181	1475162113269	f	70
230851	2472099	I'm looking forward to the long weekend!	I'm looking forward to the long weekend!	117421604	1475162113457	1475162113566	BKSP	8
230851	2472099	I'm looking forward to the long weekend!	I'm looking forward to the long weekend!	117421608	1475162113581	1475162113731	r	82
230851	2472099	I'm looking forward to the long weekend!	I'm looking forward to the long weekend!	117421612	1475162113715	1475162113890	w	87
230851	2472099	I'm looking forward to the long weekend!	I'm looking forward to the long weekend!	117421614	1475162113773	1475162113968	a	65
230851	2472099	I'm looking forward to the long weekend!	I'm looking forward to the long weekend!	117421613	1475162113838	1475162113906	r	82
230851	2472099	I'm looking forward to the long weekend!	I'm looking forward to the long weekend!	117421616	1475162113968	1475162114054	d	68
230851	2472099	I'm looking forward to the long weekend!	I'm looking forward to the long weekend!	117421617	1475162114039	1475162114159	 	32
230851	2472099	I'm looking forward to the long weekend!	I'm looking forward to the long weekend!	117421623	1475162114109	1475162114241	t	84
230851	2472099	I'm looking forward to the long weekend!	I'm looking forward to the long weekend!	117421624	1475162114175	1475162114276	o	79
230851	2472099	I'm looking forward to the long weekend!	I'm looking forward to the long weekend!	117421625	1475162114241	1475162114360	 	32
230851	2472099	I'm looking forward to the long weekend!	I'm looking forward to the long weekend!	117421626	1475162114291	1475162114457	t	84
230851	2472099	I'm looking forward to the long weekend!	I'm looking forward to the long weekend!	117421650	1475162114360	1475162114465	h	72
230851	2472099	I'm looking forward to the long weekend!	I'm looking forward to the long weekend!	117421653	1475162114425	1475162114560	e	69
230851	2472099	I'm looking forward to the long weekend!	I'm looking forward to the long weekend!	117421656	1475162114493	1475162114611	 	32
230851	2472099	I'm looking forward to the long weekend!	I'm looking forward to the long weekend!	117421660	1475162114544	1475162114611	l	76
230851	2472099	I'm looking forward to the long weekend!	I'm looking forward to the long weekend!	117421664	1475162114705	1475162114753	0	48
230851	2472099	I'm looking forward to the long weekend!	I'm looking forward to the long weekend!	117421668	1475162114737	1475162114769	o	79
230851	2472099	I'm looking forward to the long weekend!	I'm looking forward to the long weekend!	117421673	1475162114841	1475162114978	n	78
230851	2472099	I'm looking forward to the long weekend!	I'm looking forward to the long weekend!	117421703	1475162114873	1475162114993	g	71
230851	2472099	I'm looking forward to the long weekend!	I'm looking forward to the long weekend!	117421709	1475162114945	1475162115081	 	32
230851	2472099	I'm looking forward to the long weekend!	I'm looking forward to the long weekend!	117421715	1475162115030	1475162115148	w	87
230851	2472099	I'm looking forward to the long weekend!	I'm looking forward to the long weekend!	117421717	1475162115098	1475162115179	e	69
230851	2472099	I'm looking forward to the long weekend!	I'm looking forward to the long weekend!	117421720	1475162115272	1475162115362	e	69
230851	2472099	I'm looking forward to the long weekend!	I'm looking forward to the long weekend!	117421722	1475162115409	1475162115560	k	75
230851	2472099	I'm looking forward to the long weekend!	I'm looking forward to the long weekend!	117421839	1475162115545	1475162115665	e	69
230851	2472099	I'm looking forward to the long weekend!	I'm looking forward to the long weekend!	117421842	1475162115631	1475162115777	n	78
230851	2472099	I'm looking forward to the long weekend!	I'm looking forward to the long weekend!	117421847	1475162115734	1475162115833	d	68
230851	2472099	I'm looking forward to the long weekend!	I'm looking forward to the long weekend!	117421851	1475162115833	1475162116002	SHIFT	16
230851	2472099	I'm looking forward to the long weekend!	I'm looking forward to the long weekend!	117421856	1475162115927	1475162116049	!	49
230851	2472099	I'm looking forward to the long weekend!	I'm looking forward to the long weekend!	117421863	1475162116206	1475162116953	ARW_LEFT	37
230851	2472099	I'm looking forward to the long weekend!	I'm looking forward to the long weekend!	117421866	1475162117050	1475162117173	ARW_LEFT	37
230851	2472099	I'm looking forward to the long weekend!	I'm looking forward to the long weekend!	117421870	1475162117235	1475162117322	ARW_LEFT	37
230851	2472099	I'm looking forward to the long weekend!	I'm looking forward to the long weekend!	117421875	1475162117400	1475162117507	ARW_LEFT	37
230851	2472099	I'm looking forward to the long weekend!	I'm looking forward to the long weekend!	117421876	1475162117647	1475162117711	BKSP	8
230851	2472115	Did we plan that?	Did we plan that?	117422021	1475162120548	1475162120696	SHIFT	16
230851	2472115	Did we plan that?	Did we plan that?	117422026	1475162120644	1475162120761	D	68
230851	2472115	Did we plan that?	Did we plan that?	117422030	1475162120825	1475162120944	i	73
230851	2472115	Did we plan that?	Did we plan that?	117422032	1475162121038	1475162121117	BKSP	8
230851	2472115	Did we plan that?	Did we plan that?	117422037	1475162121242	1475162121385	i	73
230851	2472115	Did we plan that?	Did we plan that?	117422042	1475162121333	1475162121432	d	68
230851	2472115	Did we plan that?	Did we plan that?	117422045	1475162121432	1475162121519	 	32
230851	2472115	Did we plan that?	Did we plan that?	117422051	1475162121503	1475162121637	w	87
230851	2472115	Did we plan that?	Did we plan that?	117422055	1475162121554	1475162121703	e	69
230851	2472115	Did we plan that?	Did we plan that?	117422061	1475162121637	1475162121770	 	32
230851	2472115	Did we plan that?	Did we plan that?	117422057	1475162121687	1475162121754	p	80
230851	2472115	Did we plan that?	Did we plan that?	117422065	1475162121832	1475162121929	l	76
230851	2472115	Did we plan that?	Did we plan that?	117422080	1475162121888	1475162121990	a	65
230851	2472115	Did we plan that?	Did we plan that?	117422088	1475162121990	1475162122088	n	78
230851	2472115	Did we plan that?	Did we plan that?	117422095	1475162122025	1475162122192	 	32
230851	2472115	Did we plan that?	Did we plan that?	117422102	1475162122104	1475162122207	t	84
230851	2472115	Did we plan that?	Did we plan that?	117422108	1475162122145	1475162122258	h	72
230851	2472115	Did we plan that?	Did we plan that?	117422112	1475162122223	1475162122292	a	65
230851	2472115	Did we plan that?	Did we plan that?	117422118	1475162122292	1475162122405	t	84
230851	2472115	Did we plan that?	Did we plan that?	117422126	1475162122358	1475162122491	SHIFT	16
230851	2472115	Did we plan that?	Did we plan that?	117422121	1475162122389	1475162122475	?	191
230851	2472119	I guess the next time I'll see you is for Superbowl.	i guess the next time I'll see you is for Superbowl.	117422298	1475162125023	1475162125160	i	73
230851	2472119	I guess the next time I'll see you is for Superbowl.	i guess the next time I'll see you is for Superbowl.	117422305	1475162125105	1475162125241	 	32
230851	2472119	I guess the next time I'll see you is for Superbowl.	i guess the next time I'll see you is for Superbowl.	117422310	1475162125160	1475162125293	g	71
230851	2472119	I guess the next time I'll see you is for Superbowl.	i guess the next time I'll see you is for Superbowl.	117422315	1475162125241	1475162125361	u	85
230851	2472119	I guess the next time I'll see you is for Superbowl.	i guess the next time I'll see you is for Superbowl.	117422334	1475162125293	1475162125394	e	69
230851	2472119	I guess the next time I'll see you is for Superbowl.	i guess the next time I'll see you is for Superbowl.	117422337	1475162125457	1475162125526	s	83
230851	2472119	I guess the next time I'll see you is for Superbowl.	i guess the next time I'll see you is for Superbowl.	117422339	1475162125619	1475162125678	s	83
230851	2472119	I guess the next time I'll see you is for Superbowl.	i guess the next time I'll see you is for Superbowl.	117422340	1475162125678	1475162125811	 	32
230851	2472119	I guess the next time I'll see you is for Superbowl.	i guess the next time I'll see you is for Superbowl.	117422351	1475162125745	1475162125904	t	84
230851	2472119	I guess the next time I'll see you is for Superbowl.	i guess the next time I'll see you is for Superbowl.	117422352	1475162125796	1475162125914	h	72
230851	2472119	I guess the next time I'll see you is for Superbowl.	i guess the next time I'll see you is for Superbowl.	117422353	1475162125861	1475162125997	e	69
230851	2472119	I guess the next time I'll see you is for Superbowl.	i guess the next time I'll see you is for Superbowl.	117422355	1475162125930	1475162126064	 	32
230851	2472119	I guess the next time I'll see you is for Superbowl.	i guess the next time I'll see you is for Superbowl.	117422359	1475162125997	1475162126147	n	78
230851	2472119	I guess the next time I'll see you is for Superbowl.	i guess the next time I'll see you is for Superbowl.	117422366	1475162126064	1475162126163	e	69
230851	2472119	I guess the next time I'll see you is for Superbowl.	i guess the next time I'll see you is for Superbowl.	117422372	1475162126194	1475162126264	x	88
230851	2472119	I guess the next time I'll see you is for Superbowl.	i guess the next time I'll see you is for Superbowl.	117422392	1475162126327	1475162126433	t	84
230851	2472119	I guess the next time I'll see you is for Superbowl.	i guess the next time I'll see you is for Superbowl.	117422394	1475162126409	1475162126568	 	32
230851	2472119	I guess the next time I'll see you is for Superbowl.	i guess the next time I'll see you is for Superbowl.	117422399	1475162126487	1475162126615	t	84
230851	2472119	I guess the next time I'll see you is for Superbowl.	i guess the next time I'll see you is for Superbowl.	117422398	1475162126520	1475162126599	i	73
230851	2472119	I guess the next time I'll see you is for Superbowl.	i guess the next time I'll see you is for Superbowl.	117422401	1475162126662	1475162126769	m	77
230851	2472119	I guess the next time I'll see you is for Superbowl.	i guess the next time I'll see you is for Superbowl.	117422457	1475162126713	1475162126835	e	69
230851	2472119	I guess the next time I'll see you is for Superbowl.	i guess the next time I'll see you is for Superbowl.	117422458	1475162126769	1475162126898	 	32
230851	2472119	I guess the next time I'll see you is for Superbowl.	i guess the next time I'll see you is for Superbowl.	117422459	1475162126945	1475162127101	SHIFT	16
230851	2472119	I guess the next time I'll see you is for Superbowl.	i guess the next time I'll see you is for Superbowl.	117422460	1475162126991	1475162127101	I	73
230851	2472119	I guess the next time I'll see you is for Superbowl.	i guess the next time I'll see you is for Superbowl.	117422462	1475162127195	1475162127278	'	222
230851	2472119	I guess the next time I'll see you is for Superbowl.	i guess the next time I'll see you is for Superbowl.	117422467	1475162127372	1475162127460	k	75
230851	2472119	I guess the next time I'll see you is for Superbowl.	i guess the next time I'll see you is for Superbowl.	117422472	1475162127632	1475162127706	BKSP	8
230851	2472119	I guess the next time I'll see you is for Superbowl.	i guess the next time I'll see you is for Superbowl.	117422477	1475162127769	1475162127856	l	76
230851	2472119	I guess the next time I'll see you is for Superbowl.	i guess the next time I'll see you is for Superbowl.	117422513	1475162127919	1475162128033	l	76
230851	2472119	I guess the next time I'll see you is for Superbowl.	i guess the next time I'll see you is for Superbowl.	117422519	1475162127976	1475162128088	 	32
230851	2472119	I guess the next time I'll see you is for Superbowl.	i guess the next time I'll see you is for Superbowl.	117422523	1475162128044	1475162128125	s	83
230851	2472119	I guess the next time I'll see you is for Superbowl.	i guess the next time I'll see you is for Superbowl.	117422528	1475162128188	1475162128432	e	69
230851	2472119	I guess the next time I'll see you is for Superbowl.	i guess the next time I'll see you is for Superbowl.	117422533	1475162128543	1475162128668	 	32
230851	2472119	I guess the next time I'll see you is for Superbowl.	i guess the next time I'll see you is for Superbowl.	117422563	1475162128794	1475162128910	BKSP	8
230851	2472119	I guess the next time I'll see you is for Superbowl.	i guess the next time I'll see you is for Superbowl.	117422564	1475162128894	1475162128980	e	69
230851	2472119	I guess the next time I'll see you is for Superbowl.	i guess the next time I'll see you is for Superbowl.	117422567	1475162128965	1475162129101	 	32
230851	2472119	I guess the next time I'll see you is for Superbowl.	i guess the next time I'll see you is for Superbowl.	117422575	1475162129031	1475162129163	y	89
230851	2472119	I guess the next time I'll see you is for Superbowl.	i guess the next time I'll see you is for Superbowl.	117422571	1475162129065	1475162129116	o	79
230851	2472119	I guess the next time I'll see you is for Superbowl.	i guess the next time I'll see you is for Superbowl.	117422581	1475162129194	1475162129284	u	85
230851	2472119	I guess the next time I'll see you is for Superbowl.	i guess the next time I'll see you is for Superbowl.	117422590	1475162129268	1475162129365	 	32
230851	2472119	I guess the next time I'll see you is for Superbowl.	i guess the next time I'll see you is for Superbowl.	117422592	1475162129349	1475162129496	i	73
230851	2472119	I guess the next time I'll see you is for Superbowl.	i guess the next time I'll see you is for Superbowl.	117422595	1475162129449	1475162129535	s	83
230851	2472119	I guess the next time I'll see you is for Superbowl.	i guess the next time I'll see you is for Superbowl.	117422599	1475162129520	1475162129685	 	32
230851	2472119	I guess the next time I'll see you is for Superbowl.	i guess the next time I'll see you is for Superbowl.	117422601	1475162129600	1475162129701	f	70
230851	2472119	I guess the next time I'll see you is for Superbowl.	i guess the next time I'll see you is for Superbowl.	117422634	1475162129685	1475162129823	o	79
230851	2472119	I guess the next time I'll see you is for Superbowl.	i guess the next time I'll see you is for Superbowl.	117422638	1475162129769	1475162129873	r	82
230851	2472119	I guess the next time I'll see you is for Superbowl.	i guess the next time I'll see you is for Superbowl.	117422642	1475162129823	1475162129951	 	32
230851	2472119	I guess the next time I'll see you is for Superbowl.	i guess the next time I'll see you is for Superbowl.	117422647	1475162129874	1475162129973	SHIFT	16
230851	2472119	I guess the next time I'll see you is for Superbowl.	i guess the next time I'll see you is for Superbowl.	117422653	1475162129935	1475162130029	S	83
230851	2472119	I guess the next time I'll see you is for Superbowl.	i guess the next time I'll see you is for Superbowl.	117422660	1475162129973	1475162130045	u	85
230851	2472119	I guess the next time I'll see you is for Superbowl.	i guess the next time I'll see you is for Superbowl.	117422667	1475162130123	1475162130273	p	80
230851	2472119	I guess the next time I'll see you is for Superbowl.	i guess the next time I'll see you is for Superbowl.	117422681	1475162130161	1475162130273	e	69
230851	2472119	I guess the next time I'll see you is for Superbowl.	i guess the next time I'll see you is for Superbowl.	117422684	1475162130206	1475162130273	r	82
230851	2472119	I guess the next time I'll see you is for Superbowl.	i guess the next time I'll see you is for Superbowl.	117422689	1475162130336	1475162130439	b	66
230851	2472119	I guess the next time I'll see you is for Superbowl.	i guess the next time I'll see you is for Superbowl.	117422694	1475162130377	1475162130473	o	79
230851	2472119	I guess the next time I'll see you is for Superbowl.	i guess the next time I'll see you is for Superbowl.	117422697	1475162130488	1475162130623	w	87
230851	2472119	I guess the next time I'll see you is for Superbowl.	i guess the next time I'll see you is for Superbowl.	117422700	1475162130542	1475162130623	l	76
230851	2472134	Binoche welcomed the movie industry to the French riviera.	Binoche welcomed the movie industry to the French riviera.	117422872	1475162133305	1475162133499	SHIFT	16
230851	2472134	Binoche welcomed the movie industry to the French riviera.	Binoche welcomed the movie industry to the French riviera.	117422874	1475162133435	1475162133577	B	66
230851	2472134	Binoche welcomed the movie industry to the French riviera.	Binoche welcomed the movie industry to the French riviera.	117422878	1475162133530	1475162133626	i	73
230851	2472134	Binoche welcomed the movie industry to the French riviera.	Binoche welcomed the movie industry to the French riviera.	117422881	1475162133985	1475162134065	n	78
230851	2472134	Binoche welcomed the movie industry to the French riviera.	Binoche welcomed the movie industry to the French riviera.	117422885	1475162134159	1475162134260	o	79
230851	2472134	Binoche welcomed the movie industry to the French riviera.	Binoche welcomed the movie industry to the French riviera.	117422926	1475162134245	1475162134361	c	67
230851	2472134	Binoche welcomed the movie industry to the French riviera.	Binoche welcomed the movie industry to the French riviera.	117422928	1475162134361	1475162134485	h	72
230851	2472134	Binoche welcomed the movie industry to the French riviera.	Binoche welcomed the movie industry to the French riviera.	117422930	1475162134415	1475162134500	e	69
230851	2472134	Binoche welcomed the movie industry to the French riviera.	Binoche welcomed the movie industry to the French riviera.	117422931	1475162134485	1475162134612	 	32
230851	2472134	Binoche welcomed the movie industry to the French riviera.	Binoche welcomed the movie industry to the French riviera.	117422932	1475162134597	1475162134682	w	87
230851	2472134	Binoche welcomed the movie industry to the French riviera.	Binoche welcomed the movie industry to the French riviera.	117422933	1475162134932	1475162135051	e	69
230851	2472134	Binoche welcomed the movie industry to the French riviera.	Binoche welcomed the movie industry to the French riviera.	117422955	1475162135035	1475162135135	l	76
230851	2472134	Binoche welcomed the movie industry to the French riviera.	Binoche welcomed the movie industry to the French riviera.	117422961	1475162135120	1475162135255	c	67
230851	2472134	Binoche welcomed the movie industry to the French riviera.	Binoche welcomed the movie industry to the French riviera.	117422969	1475162135203	1475162135270	o	79
230851	2472134	Binoche welcomed the movie industry to the French riviera.	Binoche welcomed the movie industry to the French riviera.	117422972	1475162135333	1475162135490	m	77
230851	2472134	Binoche welcomed the movie industry to the French riviera.	Binoche welcomed the movie industry to the French riviera.	117422990	1475162135372	1475162135505	e	69
230851	2472134	Binoche welcomed the movie industry to the French riviera.	Binoche welcomed the movie industry to the French riviera.	117422993	1475162135453	1475162135538	d	68
230851	2472134	Binoche welcomed the movie industry to the French riviera.	Binoche welcomed the movie industry to the French riviera.	117423000	1475162135522	1475162135673	 	32
230851	2472134	Binoche welcomed the movie industry to the French riviera.	Binoche welcomed the movie industry to the French riviera.	117423007	1475162135621	1475162135768	t	84
230851	2472134	Binoche welcomed the movie industry to the French riviera.	Binoche welcomed the movie industry to the French riviera.	117423015	1475162135656	1475162135784	h	72
230851	2472134	Binoche welcomed the movie industry to the French riviera.	Binoche welcomed the movie industry to the French riviera.	117423020	1475162135722	1475162135889	e	69
230851	2472134	Binoche welcomed the movie industry to the French riviera.	Binoche welcomed the movie industry to the French riviera.	117423042	1475162135807	1475162135956	 	32
230851	2472134	Binoche welcomed the movie industry to the French riviera.	Binoche welcomed the movie industry to the French riviera.	117423052	1475162135858	1475162135956	m	77
230851	2472134	Binoche welcomed the movie industry to the French riviera.	Binoche welcomed the movie industry to the French riviera.	117423060	1475162136019	1475162136113	o	79
230851	2472134	Binoche welcomed the movie industry to the French riviera.	Binoche welcomed the movie industry to the French riviera.	117423066	1475162136089	1475162136175	v	86
230851	2472134	Binoche welcomed the movie industry to the French riviera.	Binoche welcomed the movie industry to the French riviera.	117423071	1475162136175	1475162136280	i	73
230851	2472134	Binoche welcomed the movie industry to the French riviera.	Binoche welcomed the movie industry to the French riviera.	117423077	1475162136243	1475162136360	e	69
230851	2472134	Binoche welcomed the movie industry to the French riviera.	Binoche welcomed the movie industry to the French riviera.	117423092	1475162136294	1475162136442	 	32
230851	2472134	Binoche welcomed the movie industry to the French riviera.	Binoche welcomed the movie industry to the French riviera.	117423088	1475162136360	1475162136427	i	73
230851	2472134	Binoche welcomed the movie industry to the French riviera.	Binoche welcomed the movie industry to the French riviera.	117423095	1475162136491	1475162136577	n	78
230851	2472134	Binoche welcomed the movie industry to the French riviera.	Binoche welcomed the movie industry to the French riviera.	117423098	1475162136562	1475162136612	d	68
230851	2472134	Binoche welcomed the movie industry to the French riviera.	Binoche welcomed the movie industry to the French riviera.	117423102	1475162136658	1475162136779	s	85
230851	2472134	Binoche welcomed the movie industry to the French riviera.	Binoche welcomed the movie industry to the French riviera.	117423137	1475162136763	1475162136859	t	84
230851	2472134	Binoche welcomed the movie industry to the French riviera.	Binoche welcomed the movie industry to the French riviera.	117423139	1475162136921	1475162136966	r	82
230851	2472134	Binoche welcomed the movie industry to the French riviera.	Binoche welcomed the movie industry to the French riviera.	117423142	1475162137028	1475162137118	y	89
230851	2472134	Binoche welcomed the movie industry to the French riviera.	Binoche welcomed the movie industry to the French riviera.	117423144	1475162137102	1475162137208	 	32
230851	2472134	Binoche welcomed the movie industry to the French riviera.	Binoche welcomed the movie industry to the French riviera.	117423146	1475162137165	1475162137283	t	84
230851	2472134	Binoche welcomed the movie industry to the French riviera.	Binoche welcomed the movie industry to the French riviera.	117423147	1475162137232	1475162137314	o	79
230851	2472134	Binoche welcomed the movie industry to the French riviera.	Binoche welcomed the movie industry to the French riviera.	117423148	1475162137298	1475162137416	 	32
230851	2472134	Binoche welcomed the movie industry to the French riviera.	Binoche welcomed the movie industry to the French riviera.	117423150	1475162137366	1475162137499	t	84
230851	2472134	Binoche welcomed the movie industry to the French riviera.	Binoche welcomed the movie industry to the French riviera.	117423153	1475162137400	1475162137535	h	72
230851	2472134	Binoche welcomed the movie industry to the French riviera.	Binoche welcomed the movie industry to the French riviera.	117423158	1475162137483	1475162137584	e	69
230851	2472134	Binoche welcomed the movie industry to the French riviera.	Binoche welcomed the movie industry to the French riviera.	117423188	1475162137551	1475162137729	 	32
230851	2472134	Binoche welcomed the movie industry to the French riviera.	Binoche welcomed the movie industry to the French riviera.	117423191	1475162137602	1475162137745	SHIFT	16
230851	2472134	Binoche welcomed the movie industry to the French riviera.	Binoche welcomed the movie industry to the French riviera.	117423195	1475162137696	1475162137785	F	70
230851	2472134	Binoche welcomed the movie industry to the French riviera.	Binoche welcomed the movie industry to the French riviera.	117423200	1475162137847	1475162137971	r	82
230851	2472134	Binoche welcomed the movie industry to the French riviera.	Binoche welcomed the movie industry to the French riviera.	117423203	1475162137903	1475162138065	e	69
230851	2472134	Binoche welcomed the movie industry to the French riviera.	Binoche welcomed the movie industry to the French riviera.	117423207	1475162138034	1475162138171	n	78
230851	2472134	Binoche welcomed the movie industry to the French riviera.	Binoche welcomed the movie industry to the French riviera.	117423243	1475162138140	1475162138289	c	67
230851	2472134	Binoche welcomed the movie industry to the French riviera.	Binoche welcomed the movie industry to the French riviera.	117423246	1475162138238	1475162138384	h	72
230851	2472134	Binoche welcomed the movie industry to the French riviera.	Binoche welcomed the movie industry to the French riviera.	117423248	1475162138322	1475162138454	 	32
230851	2472134	Binoche welcomed the movie industry to the French riviera.	Binoche welcomed the movie industry to the French riviera.	117423252	1475162138596	1475162138706	r	82
230851	2472134	Binoche welcomed the movie industry to the French riviera.	Binoche welcomed the movie industry to the French riviera.	117423258	1475162138722	1475162138870	i	73
230851	2472134	Binoche welcomed the movie industry to the French riviera.	Binoche welcomed the movie industry to the French riviera.	117423264	1475162138886	1475162139037	v	86
230851	2472134	Binoche welcomed the movie industry to the French riviera.	Binoche welcomed the movie industry to the French riviera.	117423323	1475162139037	1475162139210	e	69
230851	2472134	Binoche welcomed the movie industry to the French riviera.	Binoche welcomed the movie industry to the French riviera.	117423327	1475162139140	1475162139304	r	82
230851	2472134	Binoche welcomed the movie industry to the French riviera.	Binoche welcomed the movie industry to the French riviera.	117423331	1475162139429	1475162139512	BKSP	8
230851	2472134	Binoche welcomed the movie industry to the French riviera.	Binoche welcomed the movie industry to the French riviera.	117423337	1475162139577	1475162139708	i	73
230851	2472134	Binoche welcomed the movie industry to the French riviera.	Binoche welcomed the movie industry to the French riviera.	117423341	1475162139708	1475162139827	e	69
230851	2472134	Binoche welcomed the movie industry to the French riviera.	Binoche welcomed the movie industry to the French riviera.	117423345	1475162139998	1475162140161	r	82
230851	2472134	Binoche welcomed the movie industry to the French riviera.	Binoche welcomed the movie industry to the French riviera.	117423460	1475162140256	1475162140365	a	65
230851	2472134	Binoche welcomed the movie industry to the French riviera.	Binoche welcomed the movie industry to the French riviera.	117423465	1475162140835	1475162140919	BKSP	8
230851	2472134	Binoche welcomed the movie industry to the French riviera.	Binoche welcomed the movie industry to the French riviera.	117423469	1475162140997	1475162141089	BKSP	8
230851	2472134	Binoche welcomed the movie industry to the French riviera.	Binoche welcomed the movie industry to the French riviera.	117423476	1475162141167	1475162141239	BKSP	8
230851	2472134	Binoche welcomed the movie industry to the French riviera.	Binoche welcomed the movie industry to the French riviera.	117423481	1475162141317	1475162141406	BKSP	8
230851	2472134	Binoche welcomed the movie industry to the French riviera.	Binoche welcomed the movie industry to the French riviera.	117423489	1475162141470	1475162141556	BKSP	8
230851	2472134	Binoche welcomed the movie industry to the French riviera.	Binoche welcomed the movie industry to the French riviera.	117423497	1475162141634	1475162141726	BKSP	8
230851	2472134	Binoche welcomed the movie industry to the French riviera.	Binoche welcomed the movie industry to the French riviera.	117423503	1475162141741	1475162141897	i	73
230851	2472134	Binoche welcomed the movie industry to the French riviera.	Binoche welcomed the movie industry to the French riviera.	117423508	1475162141857	1475162141963	e	69
230851	2472134	Binoche welcomed the movie industry to the French riviera.	Binoche welcomed the movie industry to the French riviera.	117423513	1475162141912	1475162142057	r	82
230851	2472134	Binoche welcomed the movie industry to the French riviera.	Binoche welcomed the movie industry to the French riviera.	117423472	1475162142041	1475162142161	a	65
230851	2472134	Binoche welcomed the movie industry to the French riviera.	Binoche welcomed the movie industry to the French riviera.	117423478	1475162142113	1475162142195	.	190
230851	2472146	We controlled the race from the start and I'm satisfied.	We controlled the race from the start and I'm satisfied.	117423624	1475162144545	1475162144727	SHIFT	16
230851	2472146	We controlled the race from the start and I'm satisfied.	We controlled the race from the start and I'm satisfied.	117423626	1475162144643	1475162144758	W	87
230851	2472146	We controlled the race from the start and I'm satisfied.	We controlled the race from the start and I'm satisfied.	117423628	1475162144836	1475162144937	e	69
230851	2472146	We controlled the race from the start and I'm satisfied.	We controlled the race from the start and I'm satisfied.	117423631	1475162144898	1475162145032	 	32
230851	2472146	We controlled the race from the start and I'm satisfied.	We controlled the race from the start and I'm satisfied.	117423643	1475162144985	1475162145097	c	67
230851	2472146	We controlled the race from the start and I'm satisfied.	We controlled the race from the start and I'm satisfied.	117423636	1475162145032	1475162145082	o	79
230851	2472146	We controlled the race from the start and I'm satisfied.	We controlled the race from the start and I'm satisfied.	117423644	1475162145161	1475162145250	n	78
230851	2472146	We controlled the race from the start and I'm satisfied.	We controlled the race from the start and I'm satisfied.	117423645	1475162145209	1475162145250	t	84
230851	2472146	We controlled the race from the start and I'm satisfied.	We controlled the race from the start and I'm satisfied.	117423647	1475162145312	1475162145430	r	82
230851	2472146	We controlled the race from the start and I'm satisfied.	We controlled the race from the start and I'm satisfied.	117423646	1475162145352	1475162145415	o	79
230851	2472146	We controlled the race from the start and I'm satisfied.	We controlled the race from the start and I'm satisfied.	117423648	1475162145479	1475162145549	l	76
230851	2472146	We controlled the race from the start and I'm satisfied.	We controlled the race from the start and I'm satisfied.	117423654	1475162145599	1475162145744	l	76
230851	2472146	We controlled the race from the start and I'm satisfied.	We controlled the race from the start and I'm satisfied.	117423655	1475162145664	1475162145784	e	69
230851	2472146	We controlled the race from the start and I'm satisfied.	We controlled the race from the start and I'm satisfied.	117423656	1475162145712	1475162145799	d	68
230851	2472146	We controlled the race from the start and I'm satisfied.	We controlled the race from the start and I'm satisfied.	117423657	1475162145799	1475162145920	 	32
230851	2472146	We controlled the race from the start and I'm satisfied.	We controlled the race from the start and I'm satisfied.	117423660	1475162145852	1475162146017	t	84
230851	2472146	We controlled the race from the start and I'm satisfied.	We controlled the race from the start and I'm satisfied.	117423662	1475162145920	1475162146038	h	72
230851	2472146	We controlled the race from the start and I'm satisfied.	We controlled the race from the start and I'm satisfied.	117423664	1475162145985	1475162146104	e	69
230851	2472146	We controlled the race from the start and I'm satisfied.	We controlled the race from the start and I'm satisfied.	117423668	1475162146053	1475162146187	 	32
230851	2472146	We controlled the race from the start and I'm satisfied.	We controlled the race from the start and I'm satisfied.	117423671	1475162146104	1475162146218	r	82
230851	2472146	We controlled the race from the start and I'm satisfied.	We controlled the race from the start and I'm satisfied.	117423692	1475162146202	1475162146353	a	65
230851	2472146	We controlled the race from the start and I'm satisfied.	We controlled the race from the start and I'm satisfied.	117423698	1475162146305	1475162146424	c	67
230851	2472146	We controlled the race from the start and I'm satisfied.	We controlled the race from the start and I'm satisfied.	117423703	1475162146387	1475162146506	e	69
230851	2472146	We controlled the race from the start and I'm satisfied.	We controlled the race from the start and I'm satisfied.	117423708	1475162146449	1475162146573	 	32
230851	2472146	We controlled the race from the start and I'm satisfied.	We controlled the race from the start and I'm satisfied.	117423715	1475162146490	1475162146573	f	70
230851	2472146	We controlled the race from the start and I'm satisfied.	We controlled the race from the start and I'm satisfied.	117423719	1475162146635	1475162146757	r	82
230851	2472146	We controlled the race from the start and I'm satisfied.	We controlled the race from the start and I'm satisfied.	117423725	1475162146689	1475162146757	o	79
230851	2472146	We controlled the race from the start and I'm satisfied.	We controlled the race from the start and I'm satisfied.	117423732	1475162146820	1475162146926	m	77
230851	2472146	We controlled the race from the start and I'm satisfied.	We controlled the race from the start and I'm satisfied.	117423738	1475162146872	1475162146977	 	32
230851	2472146	We controlled the race from the start and I'm satisfied.	We controlled the race from the start and I'm satisfied.	117423745	1475162146926	1475162147059	t	84
230851	2472146	We controlled the race from the start and I'm satisfied.	We controlled the race from the start and I'm satisfied.	117423762	1475162146992	1475162147142	h	72
230851	2472146	We controlled the race from the start and I'm satisfied.	We controlled the race from the start and I'm satisfied.	117423753	1475162147059	1475162147127	e	69
230851	2472146	We controlled the race from the start and I'm satisfied.	We controlled the race from the start and I'm satisfied.	117423769	1475162147127	1475162147312	 	32
230851	2472146	We controlled the race from the start and I'm satisfied.	We controlled the race from the start and I'm satisfied.	117423766	1475162147192	1475162147305	s	83
230851	2472146	We controlled the race from the start and I'm satisfied.	We controlled the race from the start and I'm satisfied.	117423773	1475162147260	1475162147359	t	84
230851	2472146	We controlled the race from the start and I'm satisfied.	We controlled the race from the start and I'm satisfied.	117423775	1475162147343	1475162147479	a	65
230851	2472146	We controlled the race from the start and I'm satisfied.	We controlled the race from the start and I'm satisfied.	117423784	1475162147425	1475162147495	r	82
230851	2472146	We controlled the race from the start and I'm satisfied.	We controlled the race from the start and I'm satisfied.	117423788	1475162147543	1475162147656	t	84
230851	2472146	We controlled the race from the start and I'm satisfied.	We controlled the race from the start and I'm satisfied.	117423792	1475162147596	1475162147731	 	32
230851	2472146	We controlled the race from the start and I'm satisfied.	We controlled the race from the start and I'm satisfied.	117423796	1475162147682	1475162147785	a	65
230851	2472146	We controlled the race from the start and I'm satisfied.	We controlled the race from the start and I'm satisfied.	117423801	1475162147731	1475162147865	n	78
230851	2472146	We controlled the race from the start and I'm satisfied.	We controlled the race from the start and I'm satisfied.	117423856	1475162147815	1475162147904	d	68
230851	2472146	We controlled the race from the start and I'm satisfied.	We controlled the race from the start and I'm satisfied.	117423860	1475162147881	1475162147963	 	32
230851	2472146	We controlled the race from the start and I'm satisfied.	We controlled the race from the start and I'm satisfied.	117423865	1475162147921	1475162148064	SHIFT	16
230851	2472146	We controlled the race from the start and I'm satisfied.	We controlled the race from the start and I'm satisfied.	117423871	1475162147979	1475162148064	I	73
230851	2472146	We controlled the race from the start and I'm satisfied.	We controlled the race from the start and I'm satisfied.	117423880	1475162148520	1475162148618	'	222
230851	2472146	We controlled the race from the start and I'm satisfied.	We controlled the race from the start and I'm satisfied.	117423884	1475162148758	1475162148867	m	77
230851	2472146	We controlled the race from the start and I'm satisfied.	We controlled the race from the start and I'm satisfied.	117423887	1475162149023	1475162149120	 	32
230851	2472146	We controlled the race from the start and I'm satisfied.	We controlled the race from the start and I'm satisfied.	117423910	1475162149153	1475162149284	s	83
230851	2472146	We controlled the race from the start and I'm satisfied.	We controlled the race from the start and I'm satisfied.	117423916	1475162149299	1475162149388	t	84
230851	2472146	We controlled the race from the start and I'm satisfied.	We controlled the race from the start and I'm satisfied.	117423921	1475162149626	1475162149737	BKSP	8
230851	2472146	We controlled the race from the start and I'm satisfied.	We controlled the race from the start and I'm satisfied.	117423927	1475162149693	1475162149791	a	65
230851	2472146	We controlled the race from the start and I'm satisfied.	We controlled the race from the start and I'm satisfied.	117423929	1475162149775	1475162149878	t	84
230851	2472146	We controlled the race from the start and I'm satisfied.	We controlled the race from the start and I'm satisfied.	117423942	1475162149826	1475162149953	i	73
230851	2472146	We controlled the race from the start and I'm satisfied.	We controlled the race from the start and I'm satisfied.	117423943	1475162149911	1475162150029	s	83
230851	2472146	We controlled the race from the start and I'm satisfied.	We controlled the race from the start and I'm satisfied.	117423944	1475162149994	1475162150104	f	70
230851	2472146	We controlled the race from the start and I'm satisfied.	We controlled the race from the start and I'm satisfied.	117423947	1475162150060	1475162150176	i	73
230851	2472146	We controlled the race from the start and I'm satisfied.	We controlled the race from the start and I'm satisfied.	117423951	1475162150145	1475162150246	e	69
230851	2472146	We controlled the race from the start and I'm satisfied.	We controlled the race from the start and I'm satisfied.	117423952	1475162150195	1475162150321	d	68
230851	2472146	We controlled the race from the start and I'm satisfied.	We controlled the race from the start and I'm satisfied.	117423957	1475162150262	1475162150362	.	190
230851	2472159	The artist assures me it is a turkey.	The artist assuresx me it is a turkey.	117424137	1475162153385	1475162153533	SHIFT	16
230851	2472159	The artist assures me it is a turkey.	The artist assuresx me it is a turkey.	117424141	1475162153480	1475162153608	T	84
230851	2472159	The artist assures me it is a turkey.	The artist assuresx me it is a turkey.	117424145	1475162153564	1475162153684	h	72
230851	2472159	The artist assures me it is a turkey.	The artist assuresx me it is a turkey.	117424147	1475162153617	1475162153715	e	69
230851	2472159	The artist assures me it is a turkey.	The artist assuresx me it is a turkey.	117424155	1475162153715	1475162153851	 	32
230851	2472159	The artist assures me it is a turkey.	The artist assuresx me it is a turkey.	117424172	1475162153799	1475162153952	a	65
230851	2472159	The artist assures me it is a turkey.	The artist assuresx me it is a turkey.	117424174	1475162153867	1475162153967	r	82
230851	2472159	The artist assures me it is a turkey.	The artist assuresx me it is a turkey.	117424176	1475162154014	1475162154135	t	84
230851	2472159	The artist assures me it is a turkey.	The artist assuresx me it is a turkey.	117424177	1475162154053	1475162154208	i	73
230851	2472159	The artist assures me it is a turkey.	The artist assuresx me it is a turkey.	117424178	1475162154166	1475162154299	s	83
230851	2472159	The artist assures me it is a turkey.	The artist assuresx me it is a turkey.	117424195	1475162154284	1475162154406	t	84
230851	2472159	The artist assures me it is a turkey.	The artist assuresx me it is a turkey.	117424199	1475162154369	1475162154473	 	32
230851	2472159	The artist assures me it is a turkey.	The artist assuresx me it is a turkey.	117424206	1475162154421	1475162154540	a	65
230851	2472159	The artist assures me it is a turkey.	The artist assuresx me it is a turkey.	117424211	1475162154504	1475162154587	s	83
230851	2472159	The artist assures me it is a turkey.	The artist assuresx me it is a turkey.	117424215	1475162154651	1475162154741	s	83
230851	2472159	The artist assures me it is a turkey.	The artist assuresx me it is a turkey.	117424232	1475162154712	1475162154856	u	85
230851	2472159	The artist assures me it is a turkey.	The artist assuresx me it is a turkey.	117424235	1475162154774	1475162154909	r	82
230851	2472159	The artist assures me it is a turkey.	The artist assuresx me it is a turkey.	117424238	1475162154856	1475162154924	e	69
230851	2472159	The artist assures me it is a turkey.	The artist assuresx me it is a turkey.	117424243	1475162154987	1475162155092	s	83
230851	2472159	The artist assures me it is a turkey.	The artist assuresx me it is a turkey.	117424240	1475162155026	1475162155076	x	88
230851	2472159	The artist assures me it is a turkey.	The artist assuresx me it is a turkey.	117424246	1475162155123	1475162155255	 	32
230851	2472159	The artist assures me it is a turkey.	The artist assuresx me it is a turkey.	117424264	1475162155271	1475162155421	m	77
230851	2472159	The artist assures me it is a turkey.	The artist assuresx me it is a turkey.	117424268	1475162155405	1475162155545	e	69
230851	2472159	The artist assures me it is a turkey.	The artist assuresx me it is a turkey.	117424271	1475162155478	1475162155591	 	32
230851	2472159	The artist assures me it is a turkey.	The artist assuresx me it is a turkey.	117424278	1475162155623	1475162155763	i	73
230851	2472159	The artist assures me it is a turkey.	The artist assuresx me it is a turkey.	117424306	1475162155711	1475162155862	t	84
230851	2472159	The artist assures me it is a turkey.	The artist assuresx me it is a turkey.	117424309	1475162155778	1475162155931	 	32
230851	2472159	The artist assures me it is a turkey.	The artist assuresx me it is a turkey.	117424313	1475162155878	1475162156036	i	73
230851	2472159	The artist assures me it is a turkey.	The artist assuresx me it is a turkey.	117424315	1475162155962	1475162156052	s	83
230851	2472159	The artist assures me it is a turkey.	The artist assuresx me it is a turkey.	117424318	1475162156036	1475162156150	 	32
230851	2472159	The artist assures me it is a turkey.	The artist assuresx me it is a turkey.	117424344	1475162156115	1475162156264	a	65
230851	2472159	The artist assures me it is a turkey.	The artist assuresx me it is a turkey.	117424349	1475162156229	1475162156400	 	32
230851	2472159	The artist assures me it is a turkey.	The artist assuresx me it is a turkey.	117424354	1475162156314	1475162156447	t	84
230851	2472159	The artist assures me it is a turkey.	The artist assuresx me it is a turkey.	117424359	1475162156431	1475162156532	u	85
230851	2472159	The artist assures me it is a turkey.	The artist assuresx me it is a turkey.	117424362	1475162156516	1475162156631	r	82
230851	2472159	The artist assures me it is a turkey.	The artist assuresx me it is a turkey.	117424366	1475162156615	1475162156701	k	75
230851	2472159	The artist assures me it is a turkey.	The artist assuresx me it is a turkey.	117424368	1475162156685	1475162156801	e	69
230851	2472159	The artist assures me it is a turkey.	The artist assuresx me it is a turkey.	117424371	1475162156735	1475162156853	y	89
230851	2472159	The artist assures me it is a turkey.	The artist assuresx me it is a turkey.	117424376	1475162156786	1475162156884	.	190
230851	2472172	Doug Chapman will likely get the start in Bennett s absence.	Doug Chapman will likely get the start in Bennett s absence.	117424587	1475162159251	1475162159442	SHIFT	16
230851	2472172	Doug Chapman will likely get the start in Bennett s absence.	Doug Chapman will likely get the start in Bennett s absence.	117424589	1475162159383	1475162159503	D	68
230851	2472172	Doug Chapman will likely get the start in Bennett s absence.	Doug Chapman will likely get the start in Bennett s absence.	117424591	1475162159460	1475162159550	o	79
230851	2472172	Doug Chapman will likely get the start in Bennett s absence.	Doug Chapman will likely get the start in Bennett s absence.	117424592	1475162159644	1475162159771	u	85
230851	2472172	Doug Chapman will likely get the start in Bennett s absence.	Doug Chapman will likely get the start in Bennett s absence.	117424593	1475162159736	1475162159834	g	71
230851	2472172	Doug Chapman will likely get the start in Bennett s absence.	Doug Chapman will likely get the start in Bennett s absence.	117424594	1475162159880	1475162160001	 	32
230851	2472172	Doug Chapman will likely get the start in Bennett s absence.	Doug Chapman will likely get the start in Bennett s absence.	117424610	1475162159938	1475162160080	SHIFT	16
230851	2472172	Doug Chapman will likely get the start in Bennett s absence.	Doug Chapman will likely get the start in Bennett s absence.	117424614	1475162160032	1475162160140	C	67
230851	2472172	Doug Chapman will likely get the start in Bennett s absence.	Doug Chapman will likely get the start in Bennett s absence.	117424620	1475162160088	1475162160171	h	72
230851	2472172	Doug Chapman will likely get the start in Bennett s absence.	Doug Chapman will likely get the start in Bennett s absence.	117424625	1475162160171	1475162160304	a	65
230851	2472172	Doug Chapman will likely get the start in Bennett s absence.	Doug Chapman will likely get the start in Bennett s absence.	117424633	1475162160272	1475162160340	p	80
230851	2472172	Doug Chapman will likely get the start in Bennett s absence.	Doug Chapman will likely get the start in Bennett s absence.	117424638	1475162160434	1475162160523	m	77
230851	2472172	Doug Chapman will likely get the start in Bennett s absence.	Doug Chapman will likely get the start in Bennett s absence.	117424650	1475162160507	1475162160627	a	65
230851	2472172	Doug Chapman will likely get the start in Bennett s absence.	Doug Chapman will likely get the start in Bennett s absence.	117424653	1475162160596	1475162160674	n	78
230851	2472172	Doug Chapman will likely get the start in Bennett s absence.	Doug Chapman will likely get the start in Bennett s absence.	117424657	1475162160643	1475162160742	 	32
230851	2472172	Doug Chapman will likely get the start in Bennett s absence.	Doug Chapman will likely get the start in Bennett s absence.	117424660	1475162160726	1475162160810	w	87
230851	2472172	Doug Chapman will likely get the start in Bennett s absence.	Doug Chapman will likely get the start in Bennett s absence.	117424664	1475162160768	1475162160826	i	73
230851	2472172	Doug Chapman will likely get the start in Bennett s absence.	Doug Chapman will likely get the start in Bennett s absence.	117424668	1475162160888	1475162160962	l	76
230851	2472172	Doug Chapman will likely get the start in Bennett s absence.	Doug Chapman will likely get the start in Bennett s absence.	117424687	1475162161010	1475162161111	l	76
230851	2472172	Doug Chapman will likely get the start in Bennett s absence.	Doug Chapman will likely get the start in Bennett s absence.	117424689	1475162161126	1475162161200	 	32
230851	2472172	Doug Chapman will likely get the start in Bennett s absence.	Doug Chapman will likely get the start in Bennett s absence.	117424690	1475162161184	1475162161261	l	76
230851	2472172	Doug Chapman will likely get the start in Bennett s absence.	Doug Chapman will likely get the start in Bennett s absence.	117424691	1475162161323	1475162161396	i	73
230851	2472172	Doug Chapman will likely get the start in Bennett s absence.	Doug Chapman will likely get the start in Bennett s absence.	117424692	1475162161459	1475162161552	k	75
230851	2472172	Doug Chapman will likely get the start in Bennett s absence.	Doug Chapman will likely get the start in Bennett s absence.	117424721	1475162161528	1475162161613	e	69
230851	2472172	Doug Chapman will likely get the start in Bennett s absence.	Doug Chapman will likely get the start in Bennett s absence.	117424730	1475162161613	1475162161719	l	76
230851	2472172	Doug Chapman will likely get the start in Bennett s absence.	Doug Chapman will likely get the start in Bennett s absence.	117424739	1475162161680	1475162161751	y	89
230851	2472172	Doug Chapman will likely get the start in Bennett s absence.	Doug Chapman will likely get the start in Bennett s absence.	117424748	1475162161735	1475162161865	 	32
230851	2472172	Doug Chapman will likely get the start in Bennett s absence.	Doug Chapman will likely get the start in Bennett s absence.	117424758	1475162161832	1475162161899	g	71
230851	2472172	Doug Chapman will likely get the start in Bennett s absence.	Doug Chapman will likely get the start in Bennett s absence.	117424763	1475162161899	1475162162032	e	69
230851	2472172	Doug Chapman will likely get the start in Bennett s absence.	Doug Chapman will likely get the start in Bennett s absence.	117424766	1475162161966	1475162162064	t	84
230851	2472172	Doug Chapman will likely get the start in Bennett s absence.	Doug Chapman will likely get the start in Bennett s absence.	117424769	1475162162048	1475162162177	 	32
230851	2472172	Doug Chapman will likely get the start in Bennett s absence.	Doug Chapman will likely get the start in Bennett s absence.	117424773	1475162162118	1475162162267	t	84
230851	2472172	Doug Chapman will likely get the start in Bennett s absence.	Doug Chapman will likely get the start in Bennett s absence.	117424775	1475162162193	1475162162319	h	72
230851	2472172	Doug Chapman will likely get the start in Bennett s absence.	Doug Chapman will likely get the start in Bennett s absence.	117424794	1475162162251	1475162162336	e	69
230851	2472172	Doug Chapman will likely get the start in Bennett s absence.	Doug Chapman will likely get the start in Bennett s absence.	117424798	1475162162304	1475162162535	 	32
230851	2472172	Doug Chapman will likely get the start in Bennett s absence.	Doug Chapman will likely get the start in Bennett s absence.	117424796	1475162162401	1475162162504	s	83
230851	2472172	Doug Chapman will likely get the start in Bennett s absence.	Doug Chapman will likely get the start in Bennett s absence.	117424800	1475162162457	1475162162552	t	84
230851	2472172	Doug Chapman will likely get the start in Bennett s absence.	Doug Chapman will likely get the start in Bennett s absence.	117424803	1475162162552	1475162162703	a	65
230851	2472172	Doug Chapman will likely get the start in Bennett s absence.	Doug Chapman will likely get the start in Bennett s absence.	117424806	1475162162606	1475162162703	r	82
230851	2472172	Doug Chapman will likely get the start in Bennett s absence.	Doug Chapman will likely get the start in Bennett s absence.	117424809	1475162162750	1475162162865	t	84
230851	2472172	Doug Chapman will likely get the start in Bennett s absence.	Doug Chapman will likely get the start in Bennett s absence.	117424821	1475162162808	1475162162927	 	32
230851	2472172	Doug Chapman will likely get the start in Bennett s absence.	Doug Chapman will likely get the start in Bennett s absence.	117424825	1475162162878	1475162162942	i	73
230851	2472172	Doug Chapman will likely get the start in Bennett s absence.	Doug Chapman will likely get the start in Bennett s absence.	117424831	1475162163005	1475162163126	n	78
230851	2472172	Doug Chapman will likely get the start in Bennett s absence.	Doug Chapman will likely get the start in Bennett s absence.	117424833	1475162163042	1475162163189	 	32
230851	2472172	Doug Chapman will likely get the start in Bennett s absence.	Doug Chapman will likely get the start in Bennett s absence.	117424837	1475162163089	1475162163208	SHIFT	16
230851	2472172	Doug Chapman will likely get the start in Bennett s absence.	Doug Chapman will likely get the start in Bennett s absence.	117424839	1475162163173	1475162163257	B	66
230851	2472172	Doug Chapman will likely get the start in Bennett s absence.	Doug Chapman will likely get the start in Bennett s absence.	117424841	1475162163273	1475162163377	e	69
230851	2472172	Doug Chapman will likely get the start in Bennett s absence.	Doug Chapman will likely get the start in Bennett s absence.	117424913	1475162163341	1475162163456	n	78
230851	2472172	Doug Chapman will likely get the start in Bennett s absence.	Doug Chapman will likely get the start in Bennett s absence.	117424916	1475162163473	1475162163558	e	69
230851	2472172	Doug Chapman will likely get the start in Bennett s absence.	Doug Chapman will likely get the start in Bennett s absence.	117424921	1475162163948	1475162164045	BKSP	8
230851	2472172	Doug Chapman will likely get the start in Bennett s absence.	Doug Chapman will likely get the start in Bennett s absence.	117424925	1475162164123	1475162164228	n	78
230851	2472172	Doug Chapman will likely get the start in Bennett s absence.	Doug Chapman will likely get the start in Bennett s absence.	117424929	1475162164275	1475162164363	e	69
230851	2472172	Doug Chapman will likely get the start in Bennett s absence.	Doug Chapman will likely get the start in Bennett s absence.	117424934	1475162164378	1475162164476	t	84
230851	2472172	Doug Chapman will likely get the start in Bennett s absence.	Doug Chapman will likely get the start in Bennett s absence.	117424939	1475162164524	1475162164662	t	84
230851	2472172	Doug Chapman will likely get the start in Bennett s absence.	Doug Chapman will likely get the start in Bennett s absence.	117424960	1475162164847	1475162164933	 	32
230851	2472172	Doug Chapman will likely get the start in Bennett s absence.	Doug Chapman will likely get the start in Bennett s absence.	117424965	1475162165058	1475162165137	s	83
230851	2472172	Doug Chapman will likely get the start in Bennett s absence.	Doug Chapman will likely get the start in Bennett s absence.	117424969	1475162165153	1475162165251	 	32
230851	2472172	Doug Chapman will likely get the start in Bennett s absence.	Doug Chapman will likely get the start in Bennett s absence.	117424973	1475162165282	1475162165385	a	65
230851	2472172	Doug Chapman will likely get the start in Bennett s absence.	Doug Chapman will likely get the start in Bennett s absence.	117424978	1475162165401	1475162165504	b	66
230851	2472172	Doug Chapman will likely get the start in Bennett s absence.	Doug Chapman will likely get the start in Bennett s absence.	117424988	1475162165552	1475162165638	s	83
230851	2472172	Doug Chapman will likely get the start in Bennett s absence.	Doug Chapman will likely get the start in Bennett s absence.	117424990	1475162165700	1475162165808	e	69
230851	2472172	Doug Chapman will likely get the start in Bennett s absence.	Doug Chapman will likely get the start in Bennett s absence.	117424993	1475162165774	1475162165887	n	78
230851	2472172	Doug Chapman will likely get the start in Bennett s absence.	Doug Chapman will likely get the start in Bennett s absence.	117424996	1475162165872	1475162165992	c	67
230851	2472172	Doug Chapman will likely get the start in Bennett s absence.	Doug Chapman will likely get the start in Bennett s absence.	117424995	1475162165909	1475162166040	e	69
230851	2472172	Doug Chapman will likely get the start in Bennett s absence.	Doug Chapman will likely get the start in Bennett s absence.	117424997	1475162165992	1475162166075	.	190
230851	2472183	However, he's not worth starting on your Fantasy team.	However, he's not worth starting on your Fantasy team.	117425213	1475162168475	1475162168639	SHIFT	16
230851	2472183	However, he's not worth starting on your Fantasy team.	However, he's not worth starting on your Fantasy team.	117425211	1475162168538	1475162168624	H	72
230851	2472183	However, he's not worth starting on your Fantasy team.	However, he's not worth starting on your Fantasy team.	117425229	1475162168702	1475162168840	o	79
230851	2472183	However, he's not worth starting on your Fantasy team.	However, he's not worth starting on your Fantasy team.	117425218	1475162168760	1475162168794	w	87
230851	2472183	However, he's not worth starting on your Fantasy team.	However, he's not worth starting on your Fantasy team.	117425241	1475162168887	1475162169053	e	69
230851	2472183	However, he's not worth starting on your Fantasy team.	However, he's not worth starting on your Fantasy team.	117425265	1475162169038	1475162169143	v	86
230851	2472183	However, he's not worth starting on your Fantasy team.	However, he's not worth starting on your Fantasy team.	117425270	1475162169143	1475162169297	e	69
230851	2472183	However, he's not worth starting on your Fantasy team.	However, he's not worth starting on your Fantasy team.	117425274	1475162169211	1475162169344	r	82
230851	2472183	However, he's not worth starting on your Fantasy team.	However, he's not worth starting on your Fantasy team.	117425278	1475162169289	1475162169414	,	188
230851	2472183	However, he's not worth starting on your Fantasy team.	However, he's not worth starting on your Fantasy team.	117425281	1475162169378	1475162169505	 	32
230851	2472183	However, he's not worth starting on your Fantasy team.	However, he's not worth starting on your Fantasy team.	117425318	1475162169445	1475162169564	h	72
230851	2472183	However, he's not worth starting on your Fantasy team.	However, he's not worth starting on your Fantasy team.	117425324	1475162169611	1475162169727	e	69
230851	2472183	However, he's not worth starting on your Fantasy team.	However, he's not worth starting on your Fantasy team.	117425329	1475162169837	1475162169980	'	222
230851	2472183	However, he's not worth starting on your Fantasy team.	However, he's not worth starting on your Fantasy team.	117425334	1475162169980	1475162170075	s	83
230851	2472183	However, he's not worth starting on your Fantasy team.	However, he's not worth starting on your Fantasy team.	117425342	1475162170075	1475162170218	 	32
230851	2472183	However, he's not worth starting on your Fantasy team.	However, he's not worth starting on your Fantasy team.	117425358	1475162170165	1475162170265	n	78
230851	2472183	However, he's not worth starting on your Fantasy team.	However, he's not worth starting on your Fantasy team.	117425363	1475162170234	1475162170349	o	79
230851	2472183	However, he's not worth starting on your Fantasy team.	However, he's not worth starting on your Fantasy team.	117425371	1475162170349	1475162170467	t	84
230851	2472183	However, he's not worth starting on your Fantasy team.	However, he's not worth starting on your Fantasy team.	117425377	1475162170451	1475162170570	 	32
230851	2472183	However, he's not worth starting on your Fantasy team.	However, he's not worth starting on your Fantasy team.	117425382	1475162170519	1475162170655	w	87
230851	2472183	However, he's not worth starting on your Fantasy team.	However, he's not worth starting on your Fantasy team.	117425394	1475162170602	1475162170721	o	79
230851	2472183	However, he's not worth starting on your Fantasy team.	However, he's not worth starting on your Fantasy team.	117425396	1475162170655	1475162170752	r	82
230851	2472183	However, he's not worth starting on your Fantasy team.	However, he's not worth starting on your Fantasy team.	117425398	1475162170799	1475162170902	t	84
230851	2472183	However, he's not worth starting on your Fantasy team.	However, he's not worth starting on your Fantasy team.	117425401	1475162170969	1475162171088	h	72
230851	2472183	However, he's not worth starting on your Fantasy team.	However, he's not worth starting on your Fantasy team.	117425407	1475162171055	1475162171185	 	32
230851	2472183	However, he's not worth starting on your Fantasy team.	However, he's not worth starting on your Fantasy team.	117425418	1475162171154	1475162171257	s	83
230851	2472183	However, he's not worth starting on your Fantasy team.	However, he's not worth starting on your Fantasy team.	117425421	1475162171213	1475162171320	t	84
230851	2472183	However, he's not worth starting on your Fantasy team.	However, he's not worth starting on your Fantasy team.	117425424	1475162171320	1475162171426	a	65
230851	2472183	However, he's not worth starting on your Fantasy team.	However, he's not worth starting on your Fantasy team.	117425427	1475162171376	1475162171458	r	82
230851	2472183	However, he's not worth starting on your Fantasy team.	However, he's not worth starting on your Fantasy team.	117425443	1475162171492	1475162171627	t	84
230851	2472183	However, he's not worth starting on your Fantasy team.	However, he's not worth starting on your Fantasy team.	117425431	1475162171552	1475162171627	i	73
230851	2472183	However, he's not worth starting on your Fantasy team.	However, he's not worth starting on your Fantasy team.	117425446	1475162171676	1475162171762	n	78
230851	2472183	However, he's not worth starting on your Fantasy team.	However, he's not worth starting on your Fantasy team.	117425449	1475162171728	1475162171856	g	71
230851	2472183	However, he's not worth starting on your Fantasy team.	However, he's not worth starting on your Fantasy team.	117425454	1475162171793	1475162171904	 	32
230851	2472183	However, he's not worth starting on your Fantasy team.	However, he's not worth starting on your Fantasy team.	117425456	1475162171857	1475162171928	o	79
230851	2472183	However, he's not worth starting on your Fantasy team.	However, he's not worth starting on your Fantasy team.	117425461	1475162171990	1475162172080	n	78
230851	2472183	However, he's not worth starting on your Fantasy team.	However, he's not worth starting on your Fantasy team.	117425469	1475162172046	1475162172229	 	32
230851	2472183	However, he's not worth starting on your Fantasy team.	However, he's not worth starting on your Fantasy team.	117425475	1475162172113	1475162172229	y	89
230851	2472183	However, he's not worth starting on your Fantasy team.	However, he's not worth starting on your Fantasy team.	117425479	1475162172169	1475162172245	o	79
230851	2472183	However, he's not worth starting on your Fantasy team.	However, he's not worth starting on your Fantasy team.	117425497	1475162172310	1475162172448	r	85
230851	2472183	However, he's not worth starting on your Fantasy team.	However, he's not worth starting on your Fantasy team.	117425499	1475162172412	1475162172544	 	16
230851	2472183	However, he's not worth starting on your Fantasy team.	However, he's not worth starting on your Fantasy team.	117425501	1475162172529	1475162172648	F	70
230851	2472183	However, he's not worth starting on your Fantasy team.	However, he's not worth starting on your Fantasy team.	117425503	1475162172614	1475162172761	a	65
230851	2472183	However, he's not worth starting on your Fantasy team.	However, he's not worth starting on your Fantasy team.	117425505	1475162172730	1475162172861	n	78
230851	2472183	However, he's not worth starting on your Fantasy team.	However, he's not worth starting on your Fantasy team.	117425508	1475162172894	1475162173045	t	84
230851	2472183	However, he's not worth starting on your Fantasy team.	However, he's not worth starting on your Fantasy team.	117425511	1475162173061	1475162173203	a	65
230851	2472183	However, he's not worth starting on your Fantasy team.	However, he's not worth starting on your Fantasy team.	117425528	1475162173151	1475162173267	s	83
230851	2472183	However, he's not worth starting on your Fantasy team.	However, he's not worth starting on your Fantasy team.	117425533	1475162173283	1475162173417	y	89
230851	2472183	However, he's not worth starting on your Fantasy team.	However, he's not worth starting on your Fantasy team.	117425536	1475162173401	1475162173535	 	32
230851	2472183	However, he's not worth starting on your Fantasy team.	However, he's not worth starting on your Fantasy team.	117425538	1475162173535	1475162173696	t	84
230851	2472183	However, he's not worth starting on your Fantasy team.	However, he's not worth starting on your Fantasy team.	117425546	1475162173606	1475162173791	e	69
230851	2472183	However, he's not worth starting on your Fantasy team.	However, he's not worth starting on your Fantasy team.	117425553	1475162173641	1475162173806	a	65
230851	2472183	However, he's not worth starting on your Fantasy team.	However, he's not worth starting on your Fantasy team.	117425548	1475162173726	1475162173791	m	77
230851	2472183	However, he's not worth starting on your Fantasy team.	However, he's not worth starting on your Fantasy team.	117425558	1475162173871	1475162173955	.	190
230851	2472199	I don't have Lost Creek yet - hopefully before you leave.	I don't have Lost Creek yet - hopefully before you leave.	117425793	1475162176459	1475162176622	SHIFT	16
230851	2472199	I don't have Lost Creek yet - hopefully before you leave.	I don't have Lost Creek yet - hopefully before you leave.	117425795	1475162176553	1475162176672	I	73
230851	2472199	I don't have Lost Creek yet - hopefully before you leave.	I don't have Lost Creek yet - hopefully before you leave.	117425800	1475162176638	1475162176737	 	32
230851	2472199	I don't have Lost Creek yet - hopefully before you leave.	I don't have Lost Creek yet - hopefully before you leave.	117425805	1475162176722	1475162176842	d	68
230851	2472199	I don't have Lost Creek yet - hopefully before you leave.	I don't have Lost Creek yet - hopefully before you leave.	117425811	1475162176807	1475162176908	o	79
230851	2472199	I don't have Lost Creek yet - hopefully before you leave.	I don't have Lost Creek yet - hopefully before you leave.	117425817	1475162177142	1475162177195	BKSP	8
230851	2472199	I don't have Lost Creek yet - hopefully before you leave.	I don't have Lost Creek yet - hopefully before you leave.	117425822	1475162177366	1475162177445	o	79
230851	2472199	I don't have Lost Creek yet - hopefully before you leave.	I don't have Lost Creek yet - hopefully before you leave.	117425836	1475162177509	1475162177580	n	78
230851	2472199	I don't have Lost Creek yet - hopefully before you leave.	I don't have Lost Creek yet - hopefully before you leave.	117425839	1475162177674	1475162177785	'	222
230851	2472199	I don't have Lost Creek yet - hopefully before you leave.	I don't have Lost Creek yet - hopefully before you leave.	117425847	1475162177747	1475162177883	t	84
230851	2472199	I don't have Lost Creek yet - hopefully before you leave.	I don't have Lost Creek yet - hopefully before you leave.	117425855	1475162177830	1475162177966	 	32
230851	2472199	I don't have Lost Creek yet - hopefully before you leave.	I don't have Lost Creek yet - hopefully before you leave.	117425886	1475162177914	1475162178034	h	72
230851	2472199	I don't have Lost Creek yet - hopefully before you leave.	I don't have Lost Creek yet - hopefully before you leave.	117425892	1475162177982	1475162178118	a	65
230851	2472199	I don't have Lost Creek yet - hopefully before you leave.	I don't have Lost Creek yet - hopefully before you leave.	117425897	1475162178080	1475162178199	v	86
230851	2472199	I don't have Lost Creek yet - hopefully before you leave.	I don't have Lost Creek yet - hopefully before you leave.	117425901	1475162178133	1475162178240	e	69
230851	2472199	I don't have Lost Creek yet - hopefully before you leave.	I don't have Lost Creek yet - hopefully before you leave.	117425907	1475162178214	1475162178314	 	32
230851	2472199	I don't have Lost Creek yet - hopefully before you leave.	I don't have Lost Creek yet - hopefully before you leave.	117425928	1475162178267	1475162178419	SHIFT	16
230851	2472199	I don't have Lost Creek yet - hopefully before you leave.	I don't have Lost Creek yet - hopefully before you leave.	117425915	1475162178330	1475162178403	L	76
230851	2472199	I don't have Lost Creek yet - hopefully before you leave.	I don't have Lost Creek yet - hopefully before you leave.	117425934	1475162178466	1475162178601	o	79
230851	2472199	I don't have Lost Creek yet - hopefully before you leave.	I don't have Lost Creek yet - hopefully before you leave.	117425942	1475162178536	1475162178621	s	83
230851	2472199	I don't have Lost Creek yet - hopefully before you leave.	I don't have Lost Creek yet - hopefully before you leave.	117425948	1475162178585	1475162178688	t	84
230851	2472199	I don't have Lost Creek yet - hopefully before you leave.	I don't have Lost Creek yet - hopefully before you leave.	117425951	1475162178652	1475162178800	 	32
230851	2472199	I don't have Lost Creek yet - hopefully before you leave.	I don't have Lost Creek yet - hopefully before you leave.	117425961	1475162178689	1475162178816	SHIFT	16
230851	2472199	I don't have Lost Creek yet - hopefully before you leave.	I don't have Lost Creek yet - hopefully before you leave.	117425964	1475162178769	1475162178837	C	67
230851	2472199	I don't have Lost Creek yet - hopefully before you leave.	I don't have Lost Creek yet - hopefully before you leave.	117425969	1475162178915	1475162179023	r	82
230851	2472199	I don't have Lost Creek yet - hopefully before you leave.	I don't have Lost Creek yet - hopefully before you leave.	117425972	1475162178972	1475162179069	e	69
230851	2472199	I don't have Lost Creek yet - hopefully before you leave.	I don't have Lost Creek yet - hopefully before you leave.	117425977	1475162179132	1475162179240	e	69
230851	2472199	I don't have Lost Creek yet - hopefully before you leave.	I don't have Lost Creek yet - hopefully before you leave.	117425982	1475162179174	1475162179324	k	75
230851	2472199	I don't have Lost Creek yet - hopefully before you leave.	I don't have Lost Creek yet - hopefully before you leave.	117425997	1475162179271	1475162179422	 	32
230851	2472199	I don't have Lost Creek yet - hopefully before you leave.	I don't have Lost Creek yet - hopefully before you leave.	117426004	1475162179324	1475162179438	y	89
230851	2472199	I don't have Lost Creek yet - hopefully before you leave.	I don't have Lost Creek yet - hopefully before you leave.	117426011	1475162179438	1475162179576	e	69
230851	2472199	I don't have Lost Creek yet - hopefully before you leave.	I don't have Lost Creek yet - hopefully before you leave.	117426018	1475162179511	1475162179627	t	84
230851	2472199	I don't have Lost Creek yet - hopefully before you leave.	I don't have Lost Creek yet - hopefully before you leave.	117426022	1475162179591	1475162179674	 	32
230851	2472199	I don't have Lost Creek yet - hopefully before you leave.	I don't have Lost Creek yet - hopefully before you leave.	117426032	1475162179659	1475162179789	-	189
230851	2472199	I don't have Lost Creek yet - hopefully before you leave.	I don't have Lost Creek yet - hopefully before you leave.	117426034	1475162179773	1475162179897	 	32
230851	2472199	I don't have Lost Creek yet - hopefully before you leave.	I don't have Lost Creek yet - hopefully before you leave.	117426039	1475162179843	1475162179994	h	72
230851	2472199	I don't have Lost Creek yet - hopefully before you leave.	I don't have Lost Creek yet - hopefully before you leave.	117426037	1475162179929	1475162179994	o	79
230851	2472199	I don't have Lost Creek yet - hopefully before you leave.	I don't have Lost Creek yet - hopefully before you leave.	117426043	1475162180057	1475162180163	p	80
230851	2472199	I don't have Lost Creek yet - hopefully before you leave.	I don't have Lost Creek yet - hopefully before you leave.	117426058	1475162180112	1475162180231	e	69
230851	2472199	I don't have Lost Creek yet - hopefully before you leave.	I don't have Lost Creek yet - hopefully before you leave.	117426062	1475162180179	1475162180310	f	70
230851	2472199	I don't have Lost Creek yet - hopefully before you leave.	I don't have Lost Creek yet - hopefully before you leave.	117426068	1475162180246	1475162180326	u	85
230851	2472199	I don't have Lost Creek yet - hopefully before you leave.	I don't have Lost Creek yet - hopefully before you leave.	117426071	1475162180388	1475162180476	l	76
230851	2472199	I don't have Lost Creek yet - hopefully before you leave.	I don't have Lost Creek yet - hopefully before you leave.	117426096	1475162180523	1475162180680	l	76
230851	2472199	I don't have Lost Creek yet - hopefully before you leave.	I don't have Lost Creek yet - hopefully before you leave.	117426079	1475162180566	1475162180665	y	89
230851	2472199	I don't have Lost Creek yet - hopefully before you leave.	I don't have Lost Creek yet - hopefully before you leave.	117426098	1475162180633	1475162180785	 	32
230851	2472199	I don't have Lost Creek yet - hopefully before you leave.	I don't have Lost Creek yet - hopefully before you leave.	117426100	1475162180746	1475162180816	b	66
230851	2472199	I don't have Lost Creek yet - hopefully before you leave.	I don't have Lost Creek yet - hopefully before you leave.	117426103	1475162180801	1475162180935	e	69
230851	2472199	I don't have Lost Creek yet - hopefully before you leave.	I don't have Lost Creek yet - hopefully before you leave.	117426106	1475162180896	1475162180982	f	70
230851	2472199	I don't have Lost Creek yet - hopefully before you leave.	I don't have Lost Creek yet - hopefully before you leave.	117426109	1475162180967	1475162181104	o	79
230851	2472199	I don't have Lost Creek yet - hopefully before you leave.	I don't have Lost Creek yet - hopefully before you leave.	117426117	1475162181034	1475162181152	r	82
230851	2472199	I don't have Lost Creek yet - hopefully before you leave.	I don't have Lost Creek yet - hopefully before you leave.	117426121	1475162181112	1475162181217	e	69
230851	2472199	I don't have Lost Creek yet - hopefully before you leave.	I don't have Lost Creek yet - hopefully before you leave.	117426132	1475162181168	1475162181319	 	32
230851	2472199	I don't have Lost Creek yet - hopefully before you leave.	I don't have Lost Creek yet - hopefully before you leave.	117426138	1475162181235	1475162181367	y	89
230851	2472199	I don't have Lost Creek yet - hopefully before you leave.	I don't have Lost Creek yet - hopefully before you leave.	117426127	1475162181271	1475162181304	o	79
230851	2472199	I don't have Lost Creek yet - hopefully before you leave.	I don't have Lost Creek yet - hopefully before you leave.	117426146	1475162181398	1475162181488	u	85
230851	2472199	I don't have Lost Creek yet - hopefully before you leave.	I don't have Lost Creek yet - hopefully before you leave.	117426155	1475162181457	1475162181583	 	32
230851	2472199	I don't have Lost Creek yet - hopefully before you leave.	I don't have Lost Creek yet - hopefully before you leave.	117426159	1475162181567	1475162181688	l	76
230851	2472199	I don't have Lost Creek yet - hopefully before you leave.	I don't have Lost Creek yet - hopefully before you leave.	117426164	1475162181600	1475162181777	e	69
230851	2472199	I don't have Lost Creek yet - hopefully before you leave.	I don't have Lost Creek yet - hopefully before you leave.	117426169	1475162181672	1475162181821	a	65
230851	2472199	I don't have Lost Creek yet - hopefully before you leave.	I don't have Lost Creek yet - hopefully before you leave.	117426174	1475162181759	1475162181889	v	86
230851	2472199	I don't have Lost Creek yet - hopefully before you leave.	I don't have Lost Creek yet - hopefully before you leave.	117426177	1475162181821	1475162181937	e	69
230851	2472199	I don't have Lost Creek yet - hopefully before you leave.	I don't have Lost Creek yet - hopefully before you leave.	117426182	1475162181904	1475162181989	.	190
