PARTICIPANT_ID	TEST_SECTION_ID	SENTENCE	USER_INPUT	KEYSTROKE_ID	PRESS_TIME	RELEASE_TIME	LETTER	KEYCODE
231555	2478656	He refused to elaborate on the delay.	He refused to elaborate on the delay.	117730563	1475167296676	1475167296859	SHIFT	16
231555	2478656	He refused to elaborate on the delay.	He refused to elaborate on the delay.	117730573	1475167296776	1475167296893	H	72
231555	2478656	He refused to elaborate on the delay.	He refused to elaborate on the delay.	117730583	1475167296918	1475167297049	e	69
231555	2478656	He refused to elaborate on the delay.	He refused to elaborate on the delay.	117730592	1475167297005	1475167297121	 	32
231555	2478656	He refused to elaborate on the delay.	He refused to elaborate on the delay.	117730597	1475167297114	1475167297219	r	82
231555	2478656	He refused to elaborate on the delay.	He refused to elaborate on the delay.	117730599	1475167297276	1475167297377	e	69
231555	2478656	He refused to elaborate on the delay.	He refused to elaborate on the delay.	117730633	1475167297792	1475167297878	f	70
231555	2478656	He refused to elaborate on the delay.	He refused to elaborate on the delay.	117730635	1475167297879	1475167297995	u	85
231555	2478656	He refused to elaborate on the delay.	He refused to elaborate on the delay.	117730637	1475167297972	1475167298060	s	83
231555	2478656	He refused to elaborate on the delay.	He refused to elaborate on the delay.	117730643	1475167298123	1475167298195	e	69
231555	2478656	He refused to elaborate on the delay.	He refused to elaborate on the delay.	117730648	1475167298246	1475167298372	d	68
231555	2478656	He refused to elaborate on the delay.	He refused to elaborate on the delay.	117730692	1475167298327	1475167298437	 	32
231555	2478656	He refused to elaborate on the delay.	He refused to elaborate on the delay.	117730698	1475167298668	1475167298791	t	84
231555	2478656	He refused to elaborate on the delay.	He refused to elaborate on the delay.	117730703	1475167298762	1475167298870	o	79
231555	2478656	He refused to elaborate on the delay.	He refused to elaborate on the delay.	117730706	1475167298913	1475167299014	 	32
231555	2478656	He refused to elaborate on the delay.	He refused to elaborate on the delay.	117730711	1475167299045	1475167299138	e	69
231555	2478656	He refused to elaborate on the delay.	He refused to elaborate on the delay.	117730712	1475167299153	1475167299268	l	76
231555	2478656	He refused to elaborate on the delay.	He refused to elaborate on the delay.	117730733	1475167299290	1475167299415	a	65
231555	2478656	He refused to elaborate on the delay.	He refused to elaborate on the delay.	117730737	1475167299407	1475167299582	b	66
231555	2478656	He refused to elaborate on the delay.	He refused to elaborate on the delay.	117730741	1475167299501	1475167299663	o	79
231555	2478656	He refused to elaborate on the delay.	He refused to elaborate on the delay.	117730747	1475167299636	1475167299716	r	82
231555	2478656	He refused to elaborate on the delay.	He refused to elaborate on the delay.	117730752	1475167299798	1475167299906	a	65
231555	2478656	He refused to elaborate on the delay.	He refused to elaborate on the delay.	117730794	1475167300023	1475167300183	t	84
231555	2478656	He refused to elaborate on the delay.	He refused to elaborate on the delay.	117730800	1475167300100	1475167300267	e	69
231555	2478656	He refused to elaborate on the delay.	He refused to elaborate on the delay.	117730808	1475167300279	1475167300389	 	32
231555	2478656	He refused to elaborate on the delay.	He refused to elaborate on the delay.	117730815	1475167300497	1475167300613	o	79
231555	2478656	He refused to elaborate on the delay.	He refused to elaborate on the delay.	117730829	1475167300607	1475167300712	n	78
231555	2478656	He refused to elaborate on the delay.	He refused to elaborate on the delay.	117730834	1475167300785	1475167300876	 	32
231555	2478656	He refused to elaborate on the delay.	He refused to elaborate on the delay.	117730841	1475167300874	1475167301003	t	84
231555	2478656	He refused to elaborate on the delay.	He refused to elaborate on the delay.	117730849	1475167300960	1475167301065	h	72
231555	2478656	He refused to elaborate on the delay.	He refused to elaborate on the delay.	117730856	1475167301072	1475167301164	e	69
231555	2478656	He refused to elaborate on the delay.	He refused to elaborate on the delay.	117730888	1475167301148	1475167301254	 	32
231555	2478656	He refused to elaborate on the delay.	He refused to elaborate on the delay.	117730892	1475167301275	1475167301353	d	68
231555	2478656	He refused to elaborate on the delay.	He refused to elaborate on the delay.	117730897	1475167301418	1475167301502	e	69
231555	2478656	He refused to elaborate on the delay.	He refused to elaborate on the delay.	117730900	1475167301479	1475167301592	l	76
231555	2478656	He refused to elaborate on the delay.	He refused to elaborate on the delay.	117730903	1475167301596	1475167301708	a	65
231555	2478656	He refused to elaborate on the delay.	He refused to elaborate on the delay.	117730905	1475167301863	1475167301960	y	89
231555	2478656	He refused to elaborate on the delay.	He refused to elaborate on the delay.	117730909	1475167302046	1475167302159	.	190
231555	2478674	And if he's not, then he doesn't play.	And if he's not, then he doesn't play	117731090	1475167304702	1475167304867	SHIFT	16
231555	2478674	And if he's not, then he doesn't play.	And if he's not, then he doesn't play	117731093	1475167304780	1475167304917	A	65
231555	2478674	And if he's not, then he doesn't play.	And if he's not, then he doesn't play	117731097	1475167304919	1475167305028	n	78
231555	2478674	And if he's not, then he doesn't play.	And if he's not, then he doesn't play	117731100	1475167305018	1475167305119	d	68
231555	2478674	And if he's not, then he doesn't play.	And if he's not, then he doesn't play	117731103	1475167305103	1475167305191	 	32
231555	2478674	And if he's not, then he doesn't play.	And if he's not, then he doesn't play	117731106	1475167305249	1475167305368	i	73
231555	2478674	And if he's not, then he doesn't play.	And if he's not, then he doesn't play	117731151	1475167305438	1475167305531	f	70
231555	2478674	And if he's not, then he doesn't play.	And if he's not, then he doesn't play	117731154	1475167305550	1475167305670	 	32
231555	2478674	And if he's not, then he doesn't play.	And if he's not, then he doesn't play	117731157	1475167306001	1475167306045	h	72
231555	2478674	And if he's not, then he doesn't play.	And if he's not, then he doesn't play	117731160	1475167306548	1475167306667	h	72
231555	2478674	And if he's not, then he doesn't play.	And if he's not, then he doesn't play	117731163	1475167306674	1475167306800	e	69
231555	2478674	And if he's not, then he doesn't play.	And if he's not, then he doesn't play	117731213	1475167306849	1475167306986	'	222
231555	2478674	And if he's not, then he doesn't play.	And if he's not, then he doesn't play	117731214	1475167306957	1475167307095	s	83
231555	2478674	And if he's not, then he doesn't play.	And if he's not, then he doesn't play	117731215	1475167307093	1475167307178	 	32
231555	2478674	And if he's not, then he doesn't play.	And if he's not, then he doesn't play	117731217	1475167307342	1475167307527	n	78
231555	2478674	And if he's not, then he doesn't play.	And if he's not, then he doesn't play	117731229	1475167307430	1475167307598	o	79
231555	2478674	And if he's not, then he doesn't play.	And if he's not, then he doesn't play	117731235	1475167307567	1475167307675	t	84
231555	2478674	And if he's not, then he doesn't play.	And if he's not, then he doesn't play	117731240	1475167307699	1475167307801	,	188
231555	2478674	And if he's not, then he doesn't play.	And if he's not, then he doesn't play	117731244	1475167307870	1475167307962	 	32
231555	2478674	And if he's not, then he doesn't play.	And if he's not, then he doesn't play	117731250	1475167307956	1475167308059	t	84
231555	2478674	And if he's not, then he doesn't play.	And if he's not, then he doesn't play	117731329	1475167308034	1475167308151	h	72
231555	2478674	And if he's not, then he doesn't play.	And if he's not, then he doesn't play	117731336	1475167308159	1475167308282	e	69
231555	2478674	And if he's not, then he doesn't play.	And if he's not, then he doesn't play	117731343	1475167308248	1475167308358	n	78
231555	2478674	And if he's not, then he doesn't play.	And if he's not, then he doesn't play	117731348	1475167308421	1475167308527	 	32
231555	2478674	And if he's not, then he doesn't play.	And if he's not, then he doesn't play	117731353	1475167309065	1475167309209	h	72
231555	2478674	And if he's not, then he doesn't play.	And if he's not, then he doesn't play	117731376	1475167309181	1475167309285	e	69
231555	2478674	And if he's not, then he doesn't play.	And if he's not, then he doesn't play	117731380	1475167309305	1475167309403	 	32
231555	2478674	And if he's not, then he doesn't play.	And if he's not, then he doesn't play	117731385	1475167309401	1475167309489	d	68
231555	2478674	And if he's not, then he doesn't play.	And if he's not, then he doesn't play	117731391	1475167309485	1475167309597	o	79
231555	2478674	And if he's not, then he doesn't play.	And if he's not, then he doesn't play	117731395	1475167309564	1475167309651	e	69
231555	2478674	And if he's not, then he doesn't play.	And if he's not, then he doesn't play	117731398	1475167309709	1475167309822	s	83
231555	2478674	And if he's not, then he doesn't play.	And if he's not, then he doesn't play	117731449	1475167309777	1475167309891	n	78
231555	2478674	And if he's not, then he doesn't play.	And if he's not, then he doesn't play	117731456	1475167310070	1475167310185	'	222
231555	2478674	And if he's not, then he doesn't play.	And if he's not, then he doesn't play	117731460	1475167310196	1475167310302	t	84
231555	2478674	And if he's not, then he doesn't play.	And if he's not, then he doesn't play	117731464	1475167310276	1475167310359	 	32
231555	2478674	And if he's not, then he doesn't play.	And if he's not, then he doesn't play	117731467	1475167310443	1475167310652	p	80
231555	2478674	And if he's not, then he doesn't play.	And if he's not, then he doesn't play	117731636	1475167310576	1475167310711	l	76
231555	2478674	And if he's not, then he doesn't play.	And if he's not, then he doesn't play	117731637	1475167310726	1475167310848	a	65
231555	2478674	And if he's not, then he doesn't play.	And if he's not, then he doesn't play	117731639	1475167311137	1475167311229	y	89
231555	2478674	And if he's not, then he doesn't play.	And if he's not, then he doesn't play	117731641	1475167312876	1475167312972	BKSP	8
231555	2478690	US ships will also lead a second task force.	US ships will also lead a second task force.	117731944	1475167315856	1475167316493	SHIFT	16
231555	2478690	US ships will also lead a second task force.	US ships will also lead a second task force.	117731930	1475167316020	1475167316124	U	85
231555	2478690	US ships will also lead a second task force.	US ships will also lead a second task force.	117731938	1475167316223	1475167316355	S	83
231555	2478690	US ships will also lead a second task force.	US ships will also lead a second task force.	117731950	1475167316784	1475167316877	BKSP	8
231555	2478690	US ships will also lead a second task force.	US ships will also lead a second task force.	117731955	1475167316958	1475167317023	BKSP	8
231555	2478690	US ships will also lead a second task force.	US ships will also lead a second task force.	117731963	1475167317501	1475167318104	SHIFT	16
231555	2478690	US ships will also lead a second task force.	US ships will also lead a second task force.	117731958	1475167317642	1475167317760	U	85
231555	2478690	US ships will also lead a second task force.	US ships will also lead a second task force.	117731961	1475167317794	1475167317936	S	83
231555	2478690	US ships will also lead a second task force.	US ships will also lead a second task force.	117731985	1475167318059	1475167318158	 	32
231555	2478690	US ships will also lead a second task force.	US ships will also lead a second task force.	117731988	1475167318310	1475167318407	s	83
231555	2478690	US ships will also lead a second task force.	US ships will also lead a second task force.	117731995	1475167318431	1475167318517	h	72
231555	2478690	US ships will also lead a second task force.	US ships will also lead a second task force.	117732000	1475167318624	1475167318825	i	73
231555	2478690	US ships will also lead a second task force.	US ships will also lead a second task force.	117732006	1475167318739	1475167318893	p	80
231555	2478690	US ships will also lead a second task force.	US ships will also lead a second task force.	117732061	1475167318883	1475167319012	s	83
231555	2478690	US ships will also lead a second task force.	US ships will also lead a second task force.	117732062	1475167319039	1475167319160	 	32
231555	2478690	US ships will also lead a second task force.	US ships will also lead a second task force.	117732063	1475167319370	1475167319512	w	87
231555	2478690	US ships will also lead a second task force.	US ships will also lead a second task force.	117732065	1475167319487	1475167319629	i	73
231555	2478690	US ships will also lead a second task force.	US ships will also lead a second task force.	117732069	1475167319665	1475167319778	l	76
231555	2478690	US ships will also lead a second task force.	US ships will also lead a second task force.	117732072	1475167319842	1475167319950	l	76
231555	2478690	US ships will also lead a second task force.	US ships will also lead a second task force.	117732146	1475167319996	1475167320128	 	32
231555	2478690	US ships will also lead a second task force.	US ships will also lead a second task force.	117732152	1475167320129	1475167320247	a	65
231555	2478690	US ships will also lead a second task force.	US ships will also lead a second task force.	117732156	1475167320290	1475167320440	s	83
231555	2478690	US ships will also lead a second task force.	US ships will also lead a second task force.	117732159	1475167320393	1475167320508	l	76
231555	2478690	US ships will also lead a second task force.	US ships will also lead a second task force.	117732161	1475167320727	1475167320815	BKSP	8
231555	2478690	US ships will also lead a second task force.	US ships will also lead a second task force.	117732162	1475167320883	1475167320984	BKSP	8
231555	2478690	US ships will also lead a second task force.	US ships will also lead a second task force.	117732164	1475167321190	1475167321302	l	76
231555	2478690	US ships will also lead a second task force.	US ships will also lead a second task force.	117732187	1475167321306	1475167321453	s	83
231555	2478690	US ships will also lead a second task force.	US ships will also lead a second task force.	117732189	1475167321378	1475167321482	o	79
231555	2478690	US ships will also lead a second task force.	US ships will also lead a second task force.	117732191	1475167321585	1475167321707	 	32
231555	2478690	US ships will also lead a second task force.	US ships will also lead a second task force.	117732192	1475167321804	1475167321923	l	76
231555	2478690	US ships will also lead a second task force.	US ships will also lead a second task force.	117732193	1475167321964	1475167322070	e	69
231555	2478690	US ships will also lead a second task force.	US ships will also lead a second task force.	117732205	1475167322148	1475167322218	a	65
231555	2478690	US ships will also lead a second task force.	US ships will also lead a second task force.	117732207	1475167322304	1475167322375	d	68
231555	2478690	US ships will also lead a second task force.	US ships will also lead a second task force.	117732210	1475167322389	1475167322499	 	32
231555	2478690	US ships will also lead a second task force.	US ships will also lead a second task force.	117732214	1475167322500	1475167322613	a	65
231555	2478690	US ships will also lead a second task force.	US ships will also lead a second task force.	117732221	1475167322744	1475167322842	 	32
231555	2478690	US ships will also lead a second task force.	US ships will also lead a second task force.	117732254	1475167323352	1475167323458	s	83
231555	2478690	US ships will also lead a second task force.	US ships will also lead a second task force.	117732256	1475167323498	1475167323603	e	69
231555	2478690	US ships will also lead a second task force.	US ships will also lead a second task force.	117732258	1475167323684	1475167323770	c	67
231555	2478690	US ships will also lead a second task force.	US ships will also lead a second task force.	117732261	1475167323754	1475167323912	o	79
231555	2478690	US ships will also lead a second task force.	US ships will also lead a second task force.	117732301	1475167323856	1475167323957	n	78
231555	2478690	US ships will also lead a second task force.	US ships will also lead a second task force.	117732305	1475167323941	1475167324037	d	68
231555	2478690	US ships will also lead a second task force.	US ships will also lead a second task force.	117732310	1475167324085	1475167324170	 	32
231555	2478690	US ships will also lead a second task force.	US ships will also lead a second task force.	117732313	1475167324346	1475167324430	t	84
231555	2478690	US ships will also lead a second task force.	US ships will also lead a second task force.	117732316	1475167324558	1475167324646	a	65
231555	2478690	US ships will also lead a second task force.	US ships will also lead a second task force.	117732322	1475167324695	1475167324796	s	83
231555	2478690	US ships will also lead a second task force.	US ships will also lead a second task force.	117732363	1475167324740	1475167324850	k	75
231555	2478690	US ships will also lead a second task force.	US ships will also lead a second task force.	117732366	1475167324879	1475167324978	 	32
231555	2478690	US ships will also lead a second task force.	US ships will also lead a second task force.	117732372	1475167325026	1475167325136	f	70
231555	2478690	US ships will also lead a second task force.	US ships will also lead a second task force.	117732376	1475167325174	1475167325320	o	79
231555	2478690	US ships will also lead a second task force.	US ships will also lead a second task force.	117732381	1475167325271	1475167325367	r	82
231555	2478690	US ships will also lead a second task force.	US ships will also lead a second task force.	117732386	1475167325457	1475167325556	c	67
231555	2478690	US ships will also lead a second task force.	US ships will also lead a second task force.	117732396	1475167325633	1475167325731	e	69
231555	2478708	That calendar was enough to put me on a diet.	That calendar was enough to put me on a diet.	117733309	1475167325788	1475167335320	.	190
231555	2478708	That calendar was enough to put me on a diet.	That calendar was enough to put me on a diet.	117732586	1475167328126	1475167328333	SHIFT	16
231555	2478708	That calendar was enough to put me on a diet.	That calendar was enough to put me on a diet.	117732581	1475167328236	1475167328330	T	84
231555	2478708	That calendar was enough to put me on a diet.	That calendar was enough to put me on a diet.	117732591	1475167328429	1475167328542	h	72
231555	2478708	That calendar was enough to put me on a diet.	That calendar was enough to put me on a diet.	117732594	1475167328515	1475167328654	a	65
231555	2478708	That calendar was enough to put me on a diet.	That calendar was enough to put me on a diet.	117732597	1475167328618	1475167328735	t	84
231555	2478708	That calendar was enough to put me on a diet.	That calendar was enough to put me on a diet.	117732601	1475167328753	1475167328877	 	32
231555	2478708	That calendar was enough to put me on a diet.	That calendar was enough to put me on a diet.	117732614	1475167328884	1475167329018	c	67
231555	2478708	That calendar was enough to put me on a diet.	That calendar was enough to put me on a diet.	117732618	1475167328955	1475167329087	a	65
231555	2478708	That calendar was enough to put me on a diet.	That calendar was enough to put me on a diet.	117732622	1475167329049	1475167329155	l	76
231555	2478708	That calendar was enough to put me on a diet.	That calendar was enough to put me on a diet.	117732626	1475167329188	1475167329295	e	69
231555	2478708	That calendar was enough to put me on a diet.	That calendar was enough to put me on a diet.	117732653	1475167329293	1475167329384	n	78
231555	2478708	That calendar was enough to put me on a diet.	That calendar was enough to put me on a diet.	117732656	1475167329381	1475167329478	d	68
231555	2478708	That calendar was enough to put me on a diet.	That calendar was enough to put me on a diet.	117732661	1475167329529	1475167329635	e	69
231555	2478708	That calendar was enough to put me on a diet.	That calendar was enough to put me on a diet.	117732666	1475167329678	1475167329792	r	82
231555	2478708	That calendar was enough to put me on a diet.	That calendar was enough to put me on a diet.	117732674	1475167329792	1475167329919	 	32
231555	2478708	That calendar was enough to put me on a diet.	That calendar was enough to put me on a diet.	117732680	1475167329974	1475167330046	w	87
231555	2478708	That calendar was enough to put me on a diet.	That calendar was enough to put me on a diet.	117732703	1475167330128	1475167330231	a	65
231555	2478708	That calendar was enough to put me on a diet.	That calendar was enough to put me on a diet.	117732707	1475167330276	1475167330380	s	83
231555	2478708	That calendar was enough to put me on a diet.	That calendar was enough to put me on a diet.	117732714	1475167330361	1475167330457	 	32
231555	2478708	That calendar was enough to put me on a diet.	That calendar was enough to put me on a diet.	117732719	1475167330449	1475167330551	e	69
231555	2478708	That calendar was enough to put me on a diet.	That calendar was enough to put me on a diet.	117732723	1475167330554	1475167330691	n	78
231555	2478708	That calendar was enough to put me on a diet.	That calendar was enough to put me on a diet.	117732794	1475167330641	1475167330834	o	79
231555	2478708	That calendar was enough to put me on a diet.	That calendar was enough to put me on a diet.	117732802	1475167330817	1475167330948	u	85
231555	2478708	That calendar was enough to put me on a diet.	That calendar was enough to put me on a diet.	117732807	1475167330959	1475167331074	g	71
231555	2478708	That calendar was enough to put me on a diet.	That calendar was enough to put me on a diet.	117732814	1475167331111	1475167331222	h	72
231555	2478708	That calendar was enough to put me on a diet.	That calendar was enough to put me on a diet.	117732819	1475167331320	1475167331444	 	32
231555	2478708	That calendar was enough to put me on a diet.	That calendar was enough to put me on a diet.	117732823	1475167331656	1475167331707	t	84
231555	2478708	That calendar was enough to put me on a diet.	That calendar was enough to put me on a diet.	117732905	1475167331727	1475167331842	o	79
231555	2478708	That calendar was enough to put me on a diet.	That calendar was enough to put me on a diet.	117732908	1475167331917	1475167332023	 	32
231555	2478708	That calendar was enough to put me on a diet.	That calendar was enough to put me on a diet.	117732911	1475167332549	1475167332690	p	80
231555	2478708	That calendar was enough to put me on a diet.	That calendar was enough to put me on a diet.	117732914	1475167332688	1475167332831	u	85
231555	2478708	That calendar was enough to put me on a diet.	That calendar was enough to put me on a diet.	117732917	1475167332876	1475167332993	t	84
231555	2478708	That calendar was enough to put me on a diet.	That calendar was enough to put me on a diet.	117732976	1475167333006	1475167333134	 	32
231555	2478708	That calendar was enough to put me on a diet.	That calendar was enough to put me on a diet.	117732979	1475167333153	1475167333289	m	77
231555	2478708	That calendar was enough to put me on a diet.	That calendar was enough to put me on a diet.	117732984	1475167333637	1475167333753	e	69
231555	2478708	That calendar was enough to put me on a diet.	That calendar was enough to put me on a diet.	117732989	1475167333742	1475167333851	 	32
231555	2478708	That calendar was enough to put me on a diet.	That calendar was enough to put me on a diet.	117732993	1475167333952	1475167334150	o	79
231555	2478708	That calendar was enough to put me on a diet.	That calendar was enough to put me on a diet.	117733010	1475167334044	1475167334229	n	78
231555	2478708	That calendar was enough to put me on a diet.	That calendar was enough to put me on a diet.	117733012	1475167334289	1475167334398	 	32
231555	2478708	That calendar was enough to put me on a diet.	That calendar was enough to put me on a diet.	117733014	1475167334418	1475167334535	a	65
231555	2478708	That calendar was enough to put me on a diet.	That calendar was enough to put me on a diet.	117733017	1475167334515	1475167334628	 	32
231555	2478708	That calendar was enough to put me on a diet.	That calendar was enough to put me on a diet.	117733022	1475167334625	1475167334732	d	68
231555	2478708	That calendar was enough to put me on a diet.	That calendar was enough to put me on a diet.	117733298	1475167334707	1475167334832	i	73
231555	2478708	That calendar was enough to put me on a diet.	That calendar was enough to put me on a diet.	117733301	1475167334912	1475167335031	e	69
231555	2478708	That calendar was enough to put me on a diet.	That calendar was enough to put me on a diet.	117733306	1475167335099	1475167335223	t	84
231555	2478708	That calendar was enough to put me on a diet.	That calendar was enough to put me on a diet.	117733312	1475167338675	1475167338715	BKSP	8
231555	2478708	That calendar was enough to put me on a diet.	That calendar was enough to put me on a diet.	117733314	1475167338951	1475167339035	BKSP	8
231555	2478708	That calendar was enough to put me on a diet.	That calendar was enough to put me on a diet.	117733318	1475167339521	1475167339660	a	65
231555	2478708	That calendar was enough to put me on a diet.	That calendar was enough to put me on a diet.	117733320	1475167339944	1475167340032	BKSP	8
231555	2478708	That calendar was enough to put me on a diet.	That calendar was enough to put me on a diet.	117733325	1475167340389	1475167340517	d	68
231555	2478708	That calendar was enough to put me on a diet.	That calendar was enough to put me on a diet.	117733317	1475167340463	1475167340594	a	65
231555	2478728	We use this functionality a lot when pathing pools.	We use this functionality a lot when pathing pools.	117733494	1475167342773	1475167343005	SHIFT	16
231555	2478728	We use this functionality a lot when pathing pools.	We use this functionality a lot when pathing pools.	117733497	1475167342922	1475167343052	W	87
231555	2478728	We use this functionality a lot when pathing pools.	We use this functionality a lot when pathing pools.	117733501	1475167343102	1475167343220	e	69
231555	2478728	We use this functionality a lot when pathing pools.	We use this functionality a lot when pathing pools.	117733505	1475167343212	1475167343332	 	32
231555	2478728	We use this functionality a lot when pathing pools.	We use this functionality a lot when pathing pools.	117733508	1475167343412	1475167343520	u	85
231555	2478728	We use this functionality a lot when pathing pools.	We use this functionality a lot when pathing pools.	117733546	1475167343475	1475167343588	s	83
231555	2478728	We use this functionality a lot when pathing pools.	We use this functionality a lot when pathing pools.	117733548	1475167343622	1475167343754	e	69
231555	2478728	We use this functionality a lot when pathing pools.	We use this functionality a lot when pathing pools.	117733552	1475167343768	1475167343900	 	32
231555	2478728	We use this functionality a lot when pathing pools.	We use this functionality a lot when pathing pools.	117733556	1475167344131	1475167344237	t	84
231555	2478728	We use this functionality a lot when pathing pools.	We use this functionality a lot when pathing pools.	117733563	1475167344210	1475167344409	h	72
231555	2478728	We use this functionality a lot when pathing pools.	We use this functionality a lot when pathing pools.	117733669	1475167344315	1475167344482	i	73
231555	2478728	We use this functionality a lot when pathing pools.	We use this functionality a lot when pathing pools.	117733674	1475167344459	1475167344580	s	83
231555	2478728	We use this functionality a lot when pathing pools.	We use this functionality a lot when pathing pools.	117733681	1475167344625	1475167344747	 	32
231555	2478728	We use this functionality a lot when pathing pools.	We use this functionality a lot when pathing pools.	117733686	1475167345260	1475167345366	f	70
231555	2478728	We use this functionality a lot when pathing pools.	We use this functionality a lot when pathing pools.	117733691	1475167345372	1475167345480	u	85
231555	2478728	We use this functionality a lot when pathing pools.	We use this functionality a lot when pathing pools.	117733696	1475167345665	1475167345780	n	78
231555	2478728	We use this functionality a lot when pathing pools.	We use this functionality a lot when pathing pools.	117733721	1475167345813	1475167345915	c	67
231555	2478728	We use this functionality a lot when pathing pools.	We use this functionality a lot when pathing pools.	117733726	1475167346061	1475167346163	t	84
231555	2478728	We use this functionality a lot when pathing pools.	We use this functionality a lot when pathing pools.	117733734	1475167346190	1475167346338	i	73
231555	2478728	We use this functionality a lot when pathing pools.	We use this functionality a lot when pathing pools.	117733739	1475167346316	1475167346434	o	79
231555	2478728	We use this functionality a lot when pathing pools.	We use this functionality a lot when pathing pools.	117733809	1475167346426	1475167346545	n	78
231555	2478728	We use this functionality a lot when pathing pools.	We use this functionality a lot when pathing pools.	117733814	1475167346577	1475167346691	a	65
231555	2478728	We use this functionality a lot when pathing pools.	We use this functionality a lot when pathing pools.	117733816	1475167347041	1475167347149	l	76
231555	2478728	We use this functionality a lot when pathing pools.	We use this functionality a lot when pathing pools.	117733819	1475167347201	1475167347343	i	73
231555	2478728	We use this functionality a lot when pathing pools.	We use this functionality a lot when pathing pools.	117733824	1475167347363	1475167347450	t	84
231555	2478728	We use this functionality a lot when pathing pools.	We use this functionality a lot when pathing pools.	117733827	1475167347495	1475167347599	y	89
231555	2478728	We use this functionality a lot when pathing pools.	We use this functionality a lot when pathing pools.	117733945	1475167347655	1475167347781	 	32
231555	2478728	We use this functionality a lot when pathing pools.	We use this functionality a lot when pathing pools.	117733948	1475167348470	1475167348599	a	65
231555	2478728	We use this functionality a lot when pathing pools.	We use this functionality a lot when pathing pools.	117733951	1475167348612	1475167348700	 	32
231555	2478728	We use this functionality a lot when pathing pools.	We use this functionality a lot when pathing pools.	117733956	1475167348932	1475167349069	l	76
231555	2478728	We use this functionality a lot when pathing pools.	We use this functionality a lot when pathing pools.	117733959	1475167349121	1475167349270	o	79
231555	2478728	We use this functionality a lot when pathing pools.	We use this functionality a lot when pathing pools.	117734006	1475167349265	1475167349383	t	84
231555	2478728	We use this functionality a lot when pathing pools.	We use this functionality a lot when pathing pools.	117734012	1475167349373	1475167349495	 	32
231555	2478728	We use this functionality a lot when pathing pools.	We use this functionality a lot when pathing pools.	117734018	1475167349784	1475167349899	w	87
231555	2478728	We use this functionality a lot when pathing pools.	We use this functionality a lot when pathing pools.	117734022	1475167349878	1475167349985	h	72
231555	2478728	We use this functionality a lot when pathing pools.	We use this functionality a lot when pathing pools.	117734026	1475167349982	1475167350101	e	69
231555	2478728	We use this functionality a lot when pathing pools.	We use this functionality a lot when pathing pools.	117734083	1475167350067	1475167350164	n	78
231555	2478728	We use this functionality a lot when pathing pools.	We use this functionality a lot when pathing pools.	117734086	1475167350245	1475167350347	 	32
231555	2478728	We use this functionality a lot when pathing pools.	We use this functionality a lot when pathing pools.	117734092	1475167350685	1475167350803	p	80
231555	2478728	We use this functionality a lot when pathing pools.	We use this functionality a lot when pathing pools.	117734096	1475167350823	1475167350915	a	65
231555	2478728	We use this functionality a lot when pathing pools.	We use this functionality a lot when pathing pools.	117734098	1475167351032	1475167351142	t	84
231555	2478728	We use this functionality a lot when pathing pools.	We use this functionality a lot when pathing pools.	117734134	1475167351088	1475167351227	h	72
231555	2478728	We use this functionality a lot when pathing pools.	We use this functionality a lot when pathing pools.	117734139	1475167351189	1475167351337	i	73
231555	2478728	We use this functionality a lot when pathing pools.	We use this functionality a lot when pathing pools.	117734145	1475167351319	1475167351422	n	78
231555	2478728	We use this functionality a lot when pathing pools.	We use this functionality a lot when pathing pools.	117734154	1475167351420	1475167351508	g	71
231555	2478728	We use this functionality a lot when pathing pools.	We use this functionality a lot when pathing pools.	117734159	1475167351512	1475167351603	 	32
231555	2478728	We use this functionality a lot when pathing pools.	We use this functionality a lot when pathing pools.	117734163	1475167351677	1475167351839	p	80
231555	2478728	We use this functionality a lot when pathing pools.	We use this functionality a lot when pathing pools.	117734279	1475167351790	1475167351924	o	79
231555	2478728	We use this functionality a lot when pathing pools.	We use this functionality a lot when pathing pools.	117734283	1475167351965	1475167352064	o	79
231555	2478728	We use this functionality a lot when pathing pools.	We use this functionality a lot when pathing pools.	117734286	1475167352168	1475167352276	l	76
231555	2478728	We use this functionality a lot when pathing pools.	We use this functionality a lot when pathing pools.	117734291	1475167352307	1475167352418	s	83
231555	2478728	We use this functionality a lot when pathing pools.	We use this functionality a lot when pathing pools.	117734294	1475167352646	1475167352779	.	190
231555	2478746	Pilot Nick Young said communications at Sanaa airport were excellent.	Pilot Nick Young said communications at Sanaa airport were excellent.	117734464	1475167356471	1475167356677	SHIFT	16
231555	2478746	Pilot Nick Young said communications at Sanaa airport were excellent.	Pilot Nick Young said communications at Sanaa airport were excellent.	117734466	1475167356604	1475167356808	P	80
231555	2478746	Pilot Nick Young said communications at Sanaa airport were excellent.	Pilot Nick Young said communications at Sanaa airport were excellent.	117734470	1475167356757	1475167356927	i	73
231555	2478746	Pilot Nick Young said communications at Sanaa airport were excellent.	Pilot Nick Young said communications at Sanaa airport were excellent.	117734474	1475167356977	1475167357074	l	76
231555	2478746	Pilot Nick Young said communications at Sanaa airport were excellent.	Pilot Nick Young said communications at Sanaa airport were excellent.	117734479	1475167357153	1475167357265	o	79
231555	2478746	Pilot Nick Young said communications at Sanaa airport were excellent.	Pilot Nick Young said communications at Sanaa airport were excellent.	117734483	1475167357313	1475167357385	r	82
231555	2478746	Pilot Nick Young said communications at Sanaa airport were excellent.	Pilot Nick Young said communications at Sanaa airport were excellent.	117734562	1475167357613	1475167357710	BKSP	8
231555	2478746	Pilot Nick Young said communications at Sanaa airport were excellent.	Pilot Nick Young said communications at Sanaa airport were excellent.	117734570	1475167357723	1475167357833	t	84
231555	2478746	Pilot Nick Young said communications at Sanaa airport were excellent.	Pilot Nick Young said communications at Sanaa airport were excellent.	117734578	1475167357882	1475167358013	 	32
231555	2478746	Pilot Nick Young said communications at Sanaa airport were excellent.	Pilot Nick Young said communications at Sanaa airport were excellent.	117734585	1475167358217	1475167358420	SHIFT	16
231555	2478746	Pilot Nick Young said communications at Sanaa airport were excellent.	Pilot Nick Young said communications at Sanaa airport were excellent.	117734592	1475167358383	1475167358582	N	78
231555	2478746	Pilot Nick Young said communications at Sanaa airport were excellent.	Pilot Nick Young said communications at Sanaa airport were excellent.	117734595	1475167358568	1475167358667	i	73
231555	2478746	Pilot Nick Young said communications at Sanaa airport were excellent.	Pilot Nick Young said communications at Sanaa airport were excellent.	117734600	1475167358682	1475167358805	c	67
231555	2478746	Pilot Nick Young said communications at Sanaa airport were excellent.	Pilot Nick Young said communications at Sanaa airport were excellent.	117734670	1475167358802	1475167358917	k	75
231555	2478746	Pilot Nick Young said communications at Sanaa airport were excellent.	Pilot Nick Young said communications at Sanaa airport were excellent.	117734673	1475167358978	1475167359095	 	32
231555	2478746	Pilot Nick Young said communications at Sanaa airport were excellent.	Pilot Nick Young said communications at Sanaa airport were excellent.	117734679	1475167359169	1475167359608	SHIFT	16
231555	2478746	Pilot Nick Young said communications at Sanaa airport were excellent.	Pilot Nick Young said communications at Sanaa airport were excellent.	117734684	1475167359520	1475167359640	Y	89
231555	2478746	Pilot Nick Young said communications at Sanaa airport were excellent.	Pilot Nick Young said communications at Sanaa airport were excellent.	117734690	1475167359669	1475167359829	o	79
231555	2478746	Pilot Nick Young said communications at Sanaa airport were excellent.	Pilot Nick Young said communications at Sanaa airport were excellent.	117734693	1475167359792	1475167359930	u	85
231555	2478746	Pilot Nick Young said communications at Sanaa airport were excellent.	Pilot Nick Young said communications at Sanaa airport were excellent.	117734696	1475167360027	1475167360142	n	78
231555	2478746	Pilot Nick Young said communications at Sanaa airport were excellent.	Pilot Nick Young said communications at Sanaa airport were excellent.	117734766	1475167360223	1475167360321	f	70
231555	2478746	Pilot Nick Young said communications at Sanaa airport were excellent.	Pilot Nick Young said communications at Sanaa airport were excellent.	117734770	1475167360362	1475167360508	 	32
231555	2478746	Pilot Nick Young said communications at Sanaa airport were excellent.	Pilot Nick Young said communications at Sanaa airport were excellent.	117734776	1475167360748	1475167360820	=	187
231555	2478746	Pilot Nick Young said communications at Sanaa airport were excellent.	Pilot Nick Young said communications at Sanaa airport were excellent.	117734782	1475167360903	1475167361027	BKSP	8
231555	2478746	Pilot Nick Young said communications at Sanaa airport were excellent.	Pilot Nick Young said communications at Sanaa airport were excellent.	117734787	1475167361070	1475167361155	BKSP	8
231555	2478746	Pilot Nick Young said communications at Sanaa airport were excellent.	Pilot Nick Young said communications at Sanaa airport were excellent.	117734793	1475167361203	1475167361320	BKSP	8
231555	2478746	Pilot Nick Young said communications at Sanaa airport were excellent.	Pilot Nick Young said communications at Sanaa airport were excellent.	117734798	1475167361674	1475167361794	g	71
231555	2478746	Pilot Nick Young said communications at Sanaa airport were excellent.	Pilot Nick Young said communications at Sanaa airport were excellent.	117734880	1475167361791	1475167361897	 	32
231555	2478746	Pilot Nick Young said communications at Sanaa airport were excellent.	Pilot Nick Young said communications at Sanaa airport were excellent.	117734886	1475167362720	1475167362865	s	83
231555	2478746	Pilot Nick Young said communications at Sanaa airport were excellent.	Pilot Nick Young said communications at Sanaa airport were excellent.	117734895	1475167362802	1475167362937	a	65
231555	2478746	Pilot Nick Young said communications at Sanaa airport were excellent.	Pilot Nick Young said communications at Sanaa airport were excellent.	117734901	1475167362897	1475167363013	i	73
231555	2478746	Pilot Nick Young said communications at Sanaa airport were excellent.	Pilot Nick Young said communications at Sanaa airport were excellent.	117734905	1475167362993	1475167363099	d	68
231555	2478746	Pilot Nick Young said communications at Sanaa airport were excellent.	Pilot Nick Young said communications at Sanaa airport were excellent.	117734944	1475167363092	1475167363193	 	32
231555	2478746	Pilot Nick Young said communications at Sanaa airport were excellent.	Pilot Nick Young said communications at Sanaa airport were excellent.	117734949	1475167363215	1475167363319	c	67
231555	2478746	Pilot Nick Young said communications at Sanaa airport were excellent.	Pilot Nick Young said communications at Sanaa airport were excellent.	117734956	1475167363301	1475167363425	o	79
231555	2478746	Pilot Nick Young said communications at Sanaa airport were excellent.	Pilot Nick Young said communications at Sanaa airport were excellent.	117734964	1475167363429	1475167363530	m	77
231555	2478746	Pilot Nick Young said communications at Sanaa airport were excellent.	Pilot Nick Young said communications at Sanaa airport were excellent.	117734968	1475167363611	1475167363729	m	77
231555	2478746	Pilot Nick Young said communications at Sanaa airport were excellent.	Pilot Nick Young said communications at Sanaa airport were excellent.	117734972	1475167363832	1475167363918	u	85
231555	2478746	Pilot Nick Young said communications at Sanaa airport were excellent.	Pilot Nick Young said communications at Sanaa airport were excellent.	117735087	1475167363978	1475167364121	n	78
231555	2478746	Pilot Nick Young said communications at Sanaa airport were excellent.	Pilot Nick Young said communications at Sanaa airport were excellent.	117735089	1475167364260	1475167364380	c	67
231555	2478746	Pilot Nick Young said communications at Sanaa airport were excellent.	Pilot Nick Young said communications at Sanaa airport were excellent.	117735093	1475167364617	1475167364741	BKSP	8
231555	2478746	Pilot Nick Young said communications at Sanaa airport were excellent.	Pilot Nick Young said communications at Sanaa airport were excellent.	117735098	1475167365064	1475167365163	BKSP	8
231555	2478746	Pilot Nick Young said communications at Sanaa airport were excellent.	Pilot Nick Young said communications at Sanaa airport were excellent.	117735102	1475167365658	1475167365757	n	78
231555	2478746	Pilot Nick Young said communications at Sanaa airport were excellent.	Pilot Nick Young said communications at Sanaa airport were excellent.	117735106	1475167365881	1475167365993	i	73
231555	2478746	Pilot Nick Young said communications at Sanaa airport were excellent.	Pilot Nick Young said communications at Sanaa airport were excellent.	117735110	1475167366041	1475167366184	c	67
231555	2478746	Pilot Nick Young said communications at Sanaa airport were excellent.	Pilot Nick Young said communications at Sanaa airport were excellent.	117735144	1475167366108	1475167366252	a	65
231555	2478746	Pilot Nick Young said communications at Sanaa airport were excellent.	Pilot Nick Young said communications at Sanaa airport were excellent.	117735147	1475167366377	1475167366483	t	84
231555	2478746	Pilot Nick Young said communications at Sanaa airport were excellent.	Pilot Nick Young said communications at Sanaa airport were excellent.	117735150	1475167366460	1475167366609	i	73
231555	2478746	Pilot Nick Young said communications at Sanaa airport were excellent.	Pilot Nick Young said communications at Sanaa airport were excellent.	117735153	1475167366564	1475167366694	o	79
231555	2478746	Pilot Nick Young said communications at Sanaa airport were excellent.	Pilot Nick Young said communications at Sanaa airport were excellent.	117735156	1475167366713	1475167366836	n	78
231555	2478746	Pilot Nick Young said communications at Sanaa airport were excellent.	Pilot Nick Young said communications at Sanaa airport were excellent.	117735159	1475167366861	1475167366976	s	83
231555	2478746	Pilot Nick Young said communications at Sanaa airport were excellent.	Pilot Nick Young said communications at Sanaa airport were excellent.	117735251	1475167366996	1475167367111	 	32
231555	2478746	Pilot Nick Young said communications at Sanaa airport were excellent.	Pilot Nick Young said communications at Sanaa airport were excellent.	117735254	1475167367217	1475167367343	a	65
231555	2478746	Pilot Nick Young said communications at Sanaa airport were excellent.	Pilot Nick Young said communications at Sanaa airport were excellent.	117735258	1475167367505	1475167367599	t	84
231555	2478746	Pilot Nick Young said communications at Sanaa airport were excellent.	Pilot Nick Young said communications at Sanaa airport were excellent.	117735261	1475167367649	1475167367794	 	32
231555	2478746	Pilot Nick Young said communications at Sanaa airport were excellent.	Pilot Nick Young said communications at Sanaa airport were excellent.	117735342	1475167367845	1475167368543	SHIFT	16
231555	2478746	Pilot Nick Young said communications at Sanaa airport were excellent.	Pilot Nick Young said communications at Sanaa airport were excellent.	117735266	1475167368282	1475167368447	S	83
231555	2478746	Pilot Nick Young said communications at Sanaa airport were excellent.	Pilot Nick Young said communications at Sanaa airport were excellent.	117735345	1475167368916	1475167369035	a	65
231555	2478746	Pilot Nick Young said communications at Sanaa airport were excellent.	Pilot Nick Young said communications at Sanaa airport were excellent.	117735348	1475167369294	1475167369434	n	78
231555	2478746	Pilot Nick Young said communications at Sanaa airport were excellent.	Pilot Nick Young said communications at Sanaa airport were excellent.	117735351	1475167369490	1475167369592	a	65
231555	2478746	Pilot Nick Young said communications at Sanaa airport were excellent.	Pilot Nick Young said communications at Sanaa airport were excellent.	117735356	1475167369684	1475167369803	a	65
231555	2478746	Pilot Nick Young said communications at Sanaa airport were excellent.	Pilot Nick Young said communications at Sanaa airport were excellent.	117735360	1475167369954	1475167370082	 	32
231555	2478746	Pilot Nick Young said communications at Sanaa airport were excellent.	Pilot Nick Young said communications at Sanaa airport were excellent.	117735399	1475167370152	1475167370274	a	65
231555	2478746	Pilot Nick Young said communications at Sanaa airport were excellent.	Pilot Nick Young said communications at Sanaa airport were excellent.	117735400	1475167370304	1475167370466	i	73
231555	2478746	Pilot Nick Young said communications at Sanaa airport were excellent.	Pilot Nick Young said communications at Sanaa airport were excellent.	117735401	1475167370494	1475167370611	r	82
231555	2478746	Pilot Nick Young said communications at Sanaa airport were excellent.	Pilot Nick Young said communications at Sanaa airport were excellent.	117735402	1475167370622	1475167370780	p	80
231555	2478746	Pilot Nick Young said communications at Sanaa airport were excellent.	Pilot Nick Young said communications at Sanaa airport were excellent.	117735478	1475167370713	1475167370897	o	79
231555	2478746	Pilot Nick Young said communications at Sanaa airport were excellent.	Pilot Nick Young said communications at Sanaa airport were excellent.	117735481	1475167371069	1475167371138	r	82
231555	2478746	Pilot Nick Young said communications at Sanaa airport were excellent.	Pilot Nick Young said communications at Sanaa airport were excellent.	117735484	1475167371333	1475167371447	t	84
231555	2478746	Pilot Nick Young said communications at Sanaa airport were excellent.	Pilot Nick Young said communications at Sanaa airport were excellent.	117735486	1475167371547	1475167371709	 	32
231555	2478746	Pilot Nick Young said communications at Sanaa airport were excellent.	Pilot Nick Young said communications at Sanaa airport were excellent.	117735489	1475167372012	1475167372113	w	87
231555	2478746	Pilot Nick Young said communications at Sanaa airport were excellent.	Pilot Nick Young said communications at Sanaa airport were excellent.	117735493	1475167372178	1475167372291	e	69
231555	2478746	Pilot Nick Young said communications at Sanaa airport were excellent.	Pilot Nick Young said communications at Sanaa airport were excellent.	117735516	1475167372349	1475167372448	r	82
231555	2478746	Pilot Nick Young said communications at Sanaa airport were excellent.	Pilot Nick Young said communications at Sanaa airport were excellent.	117735519	1475167372520	1475167372622	e	69
231555	2478746	Pilot Nick Young said communications at Sanaa airport were excellent.	Pilot Nick Young said communications at Sanaa airport were excellent.	117735520	1475167372592	1475167372745	 	32
231555	2478746	Pilot Nick Young said communications at Sanaa airport were excellent.	Pilot Nick Young said communications at Sanaa airport were excellent.	117735522	1475167372686	1475167372774	e	69
231555	2478746	Pilot Nick Young said communications at Sanaa airport were excellent.	Pilot Nick Young said communications at Sanaa airport were excellent.	117735527	1475167372889	1475167372957	x	88
231555	2478746	Pilot Nick Young said communications at Sanaa airport were excellent.	Pilot Nick Young said communications at Sanaa airport were excellent.	117735556	1475167373015	1475167373132	c	67
231555	2478746	Pilot Nick Young said communications at Sanaa airport were excellent.	Pilot Nick Young said communications at Sanaa airport were excellent.	117735559	1475167373220	1475167373337	e	69
231555	2478746	Pilot Nick Young said communications at Sanaa airport were excellent.	Pilot Nick Young said communications at Sanaa airport were excellent.	117735565	1475167373310	1475167373422	l	76
231555	2478746	Pilot Nick Young said communications at Sanaa airport were excellent.	Pilot Nick Young said communications at Sanaa airport were excellent.	117735570	1475167373456	1475167373573	l	76
231555	2478746	Pilot Nick Young said communications at Sanaa airport were excellent.	Pilot Nick Young said communications at Sanaa airport were excellent.	117735693	1475167373542	1475167373654	e	69
231555	2478746	Pilot Nick Young said communications at Sanaa airport were excellent.	Pilot Nick Young said communications at Sanaa airport were excellent.	117735696	1475167373641	1475167373765	m	77
231555	2478746	Pilot Nick Young said communications at Sanaa airport were excellent.	Pilot Nick Young said communications at Sanaa airport were excellent.	117735699	1475167373733	1475167373841	t	84
231555	2478746	Pilot Nick Young said communications at Sanaa airport were excellent.	Pilot Nick Young said communications at Sanaa airport were excellent.	117735701	1475167374381	1475167374487	BKSP	8
231555	2478746	Pilot Nick Young said communications at Sanaa airport were excellent.	Pilot Nick Young said communications at Sanaa airport were excellent.	117735704	1475167374545	1475167374646	BKSP	8
231555	2478746	Pilot Nick Young said communications at Sanaa airport were excellent.	Pilot Nick Young said communications at Sanaa airport were excellent.	117735706	1475167375087	1475167375195	n	78
231555	2478746	Pilot Nick Young said communications at Sanaa airport were excellent.	Pilot Nick Young said communications at Sanaa airport were excellent.	117735711	1475167375270	1475167375375	t	84
231555	2478746	Pilot Nick Young said communications at Sanaa airport were excellent.	Pilot Nick Young said communications at Sanaa airport were excellent.	117735715	1475167375436	1475167375535	.	190
231555	2478777	Sun Jiazheng, 50, takes over as radio, film and television minister.	Sun Jiazheng, 50, takes over as radio, film and television minister.	117735877	1475167377894	1475167378092	SHIFT	16
231555	2478777	Sun Jiazheng, 50, takes over as radio, film and television minister.	Sun Jiazheng, 50, takes over as radio, film and television minister.	117735879	1475167377998	1475167378137	S	83
231555	2478777	Sun Jiazheng, 50, takes over as radio, film and television minister.	Sun Jiazheng, 50, takes over as radio, film and television minister.	117735882	1475167378113	1475167378255	u	85
231555	2478777	Sun Jiazheng, 50, takes over as radio, film and television minister.	Sun Jiazheng, 50, takes over as radio, film and television minister.	117735885	1475167378291	1475167378405	n	78
231555	2478777	Sun Jiazheng, 50, takes over as radio, film and television minister.	Sun Jiazheng, 50, takes over as radio, film and television minister.	117735890	1475167378486	1475167378597	 	32
231555	2478777	Sun Jiazheng, 50, takes over as radio, film and television minister.	Sun Jiazheng, 50, takes over as radio, film and television minister.	117735894	1475167379045	1475167379315	SHIFT	16
231555	2478777	Sun Jiazheng, 50, takes over as radio, film and television minister.	Sun Jiazheng, 50, takes over as radio, film and television minister.	117735972	1475167379218	1475167379321	J	74
231555	2478777	Sun Jiazheng, 50, takes over as radio, film and television minister.	Sun Jiazheng, 50, takes over as radio, film and television minister.	117735976	1475167379357	1475167379465	i	73
231555	2478777	Sun Jiazheng, 50, takes over as radio, film and television minister.	Sun Jiazheng, 50, takes over as radio, film and television minister.	117735984	1475167379490	1475167379609	a	65
231555	2478777	Sun Jiazheng, 50, takes over as radio, film and television minister.	Sun Jiazheng, 50, takes over as radio, film and television minister.	117735989	1475167380599	1475167380729	z	90
231555	2478777	Sun Jiazheng, 50, takes over as radio, film and television minister.	Sun Jiazheng, 50, takes over as radio, film and television minister.	117735991	1475167380723	1475167380842	h	72
231555	2478777	Sun Jiazheng, 50, takes over as radio, film and television minister.	Sun Jiazheng, 50, takes over as radio, film and television minister.	117735995	1475167380865	1475167380975	e	69
231555	2478777	Sun Jiazheng, 50, takes over as radio, film and television minister.	Sun Jiazheng, 50, takes over as radio, film and television minister.	117736090	1475167380945	1475167381052	n	78
231555	2478777	Sun Jiazheng, 50, takes over as radio, film and television minister.	Sun Jiazheng, 50, takes over as radio, film and television minister.	117736092	1475167381164	1475167381279	g	71
231555	2478777	Sun Jiazheng, 50, takes over as radio, film and television minister.	Sun Jiazheng, 50, takes over as radio, film and television minister.	117736094	1475167381894	1475167381995	,	188
231555	2478777	Sun Jiazheng, 50, takes over as radio, film and television minister.	Sun Jiazheng, 50, takes over as radio, film and television minister.	117736096	1475167382089	1475167382196	 	32
231555	2478777	Sun Jiazheng, 50, takes over as radio, film and television minister.	Sun Jiazheng, 50, takes over as radio, film and television minister.	117736097	1475167383100	1475167383211	5	53
231555	2478777	Sun Jiazheng, 50, takes over as radio, film and television minister.	Sun Jiazheng, 50, takes over as radio, film and television minister.	117736142	1475167383176	1475167383283	0	48
231555	2478777	Sun Jiazheng, 50, takes over as radio, film and television minister.	Sun Jiazheng, 50, takes over as radio, film and television minister.	117736145	1475167383364	1475167383520	,	188
231555	2478777	Sun Jiazheng, 50, takes over as radio, film and television minister.	Sun Jiazheng, 50, takes over as radio, film and television minister.	117736149	1475167383617	1475167383736	 	32
231555	2478777	Sun Jiazheng, 50, takes over as radio, film and television minister.	Sun Jiazheng, 50, takes over as radio, film and television minister.	117736152	1475167384091	1475167384189	t	84
231555	2478777	Sun Jiazheng, 50, takes over as radio, film and television minister.	Sun Jiazheng, 50, takes over as radio, film and television minister.	117736156	1475167384313	1475167384425	a	65
231555	2478777	Sun Jiazheng, 50, takes over as radio, film and television minister.	Sun Jiazheng, 50, takes over as radio, film and television minister.	117736181	1475167384411	1475167384521	k	75
231555	2478777	Sun Jiazheng, 50, takes over as radio, film and television minister.	Sun Jiazheng, 50, takes over as radio, film and television minister.	117736184	1475167384497	1475167384584	e	69
231555	2478777	Sun Jiazheng, 50, takes over as radio, film and television minister.	Sun Jiazheng, 50, takes over as radio, film and television minister.	117736188	1475167384656	1475167384763	s	83
231555	2478777	Sun Jiazheng, 50, takes over as radio, film and television minister.	Sun Jiazheng, 50, takes over as radio, film and television minister.	117736192	1475167384750	1475167384861	 	32
231555	2478777	Sun Jiazheng, 50, takes over as radio, film and television minister.	Sun Jiazheng, 50, takes over as radio, film and television minister.	117736196	1475167384927	1475167385044	o	79
231555	2478777	Sun Jiazheng, 50, takes over as radio, film and television minister.	Sun Jiazheng, 50, takes over as radio, film and television minister.	117736266	1475167385033	1475167385138	v	86
231555	2478777	Sun Jiazheng, 50, takes over as radio, film and television minister.	Sun Jiazheng, 50, takes over as radio, film and television minister.	117736270	1475167385249	1475167385409	e	69
231555	2478777	Sun Jiazheng, 50, takes over as radio, film and television minister.	Sun Jiazheng, 50, takes over as radio, film and television minister.	117736276	1475167385359	1475167385492	r	82
231555	2478777	Sun Jiazheng, 50, takes over as radio, film and television minister.	Sun Jiazheng, 50, takes over as radio, film and television minister.	117736279	1475167385525	1475167385652	 	32
231555	2478777	Sun Jiazheng, 50, takes over as radio, film and television minister.	Sun Jiazheng, 50, takes over as radio, film and television minister.	117736282	1475167385894	1475167386011	a	65
231555	2478777	Sun Jiazheng, 50, takes over as radio, film and television minister.	Sun Jiazheng, 50, takes over as radio, film and television minister.	117736285	1475167386082	1475167386189	s	83
231555	2478777	Sun Jiazheng, 50, takes over as radio, film and television minister.	Sun Jiazheng, 50, takes over as radio, film and television minister.	117736326	1475167386234	1475167386353	 	32
231555	2478777	Sun Jiazheng, 50, takes over as radio, film and television minister.	Sun Jiazheng, 50, takes over as radio, film and television minister.	117736329	1475167386398	1475167386486	r	82
231555	2478777	Sun Jiazheng, 50, takes over as radio, film and television minister.	Sun Jiazheng, 50, takes over as radio, film and television minister.	117736331	1475167386612	1475167386695	a	65
231555	2478777	Sun Jiazheng, 50, takes over as radio, film and television minister.	Sun Jiazheng, 50, takes over as radio, film and television minister.	117736333	1475167386811	1475167386930	d	68
231555	2478777	Sun Jiazheng, 50, takes over as radio, film and television minister.	Sun Jiazheng, 50, takes over as radio, film and television minister.	117736420	1475167386923	1475167387116	i	73
231555	2478777	Sun Jiazheng, 50, takes over as radio, film and television minister.	Sun Jiazheng, 50, takes over as radio, film and television minister.	117736422	1475167387045	1475167387202	o	79
231555	2478777	Sun Jiazheng, 50, takes over as radio, film and television minister.	Sun Jiazheng, 50, takes over as radio, film and television minister.	117736431	1475167387286	1475167387367	,	188
231555	2478777	Sun Jiazheng, 50, takes over as radio, film and television minister.	Sun Jiazheng, 50, takes over as radio, film and television minister.	117736436	1475167387656	1475167387791	 	32
231555	2478777	Sun Jiazheng, 50, takes over as radio, film and television minister.	Sun Jiazheng, 50, takes over as radio, film and television minister.	117736441	1475167388054	1475167388166	f	70
231555	2478777	Sun Jiazheng, 50, takes over as radio, film and television minister.	Sun Jiazheng, 50, takes over as radio, film and television minister.	117736445	1475167388177	1475167388301	i	73
231555	2478777	Sun Jiazheng, 50, takes over as radio, film and television minister.	Sun Jiazheng, 50, takes over as radio, film and television minister.	117736494	1475167388477	1475167388608	l	76
231555	2478777	Sun Jiazheng, 50, takes over as radio, film and television minister.	Sun Jiazheng, 50, takes over as radio, film and television minister.	117736498	1475167388678	1475167388768	m	77
231555	2478777	Sun Jiazheng, 50, takes over as radio, film and television minister.	Sun Jiazheng, 50, takes over as radio, film and television minister.	117736502	1475167388879	1475167388989	 	32
231555	2478777	Sun Jiazheng, 50, takes over as radio, film and television minister.	Sun Jiazheng, 50, takes over as radio, film and television minister.	117736506	1475167389020	1475167389133	a	65
231555	2478777	Sun Jiazheng, 50, takes over as radio, film and television minister.	Sun Jiazheng, 50, takes over as radio, film and television minister.	117736509	1475167389135	1475167389266	n	78
231555	2478777	Sun Jiazheng, 50, takes over as radio, film and television minister.	Sun Jiazheng, 50, takes over as radio, film and television minister.	117736525	1475167389239	1475167389339	d	68
231555	2478777	Sun Jiazheng, 50, takes over as radio, film and television minister.	Sun Jiazheng, 50, takes over as radio, film and television minister.	117736528	1475167389348	1475167389482	 	32
231555	2478777	Sun Jiazheng, 50, takes over as radio, film and television minister.	Sun Jiazheng, 50, takes over as radio, film and television minister.	117736531	1475167389516	1475167389603	t	84
231555	2478777	Sun Jiazheng, 50, takes over as radio, film and television minister.	Sun Jiazheng, 50, takes over as radio, film and television minister.	117736533	1475167389716	1475167389807	e	69
231555	2478777	Sun Jiazheng, 50, takes over as radio, film and television minister.	Sun Jiazheng, 50, takes over as radio, film and television minister.	117736534	1475167389774	1475167389896	l	76
231555	2478777	Sun Jiazheng, 50, takes over as radio, film and television minister.	Sun Jiazheng, 50, takes over as radio, film and television minister.	117736565	1475167389856	1475167389950	e	69
231555	2478777	Sun Jiazheng, 50, takes over as radio, film and television minister.	Sun Jiazheng, 50, takes over as radio, film and television minister.	117736568	1475167390058	1475167390149	v	86
231555	2478777	Sun Jiazheng, 50, takes over as radio, film and television minister.	Sun Jiazheng, 50, takes over as radio, film and television minister.	117736570	1475167390141	1475167390263	i	73
231555	2478777	Sun Jiazheng, 50, takes over as radio, film and television minister.	Sun Jiazheng, 50, takes over as radio, film and television minister.	117736575	1475167390278	1475167390387	s	83
231555	2478777	Sun Jiazheng, 50, takes over as radio, film and television minister.	Sun Jiazheng, 50, takes over as radio, film and television minister.	117736578	1475167390549	1475167390691	i	73
231555	2478777	Sun Jiazheng, 50, takes over as radio, film and television minister.	Sun Jiazheng, 50, takes over as radio, film and television minister.	117736605	1475167390642	1475167390814	o	79
231555	2478777	Sun Jiazheng, 50, takes over as radio, film and television minister.	Sun Jiazheng, 50, takes over as radio, film and television minister.	117736606	1475167390806	1475167390921	n	78
231555	2478777	Sun Jiazheng, 50, takes over as radio, film and television minister.	Sun Jiazheng, 50, takes over as radio, film and television minister.	117736607	1475167391043	1475167391167	 	32
231555	2478777	Sun Jiazheng, 50, takes over as radio, film and television minister.	Sun Jiazheng, 50, takes over as radio, film and television minister.	117736608	1475167391481	1475167391564	m	77
231555	2478777	Sun Jiazheng, 50, takes over as radio, film and television minister.	Sun Jiazheng, 50, takes over as radio, film and television minister.	117736609	1475167391609	1475167391744	i	73
231555	2478777	Sun Jiazheng, 50, takes over as radio, film and television minister.	Sun Jiazheng, 50, takes over as radio, film and television minister.	117736610	1475167391749	1475167391911	n	78
231555	2478777	Sun Jiazheng, 50, takes over as radio, film and television minister.	Sun Jiazheng, 50, takes over as radio, film and television minister.	117736646	1475167391866	1475167391999	i	73
231555	2478777	Sun Jiazheng, 50, takes over as radio, film and television minister.	Sun Jiazheng, 50, takes over as radio, film and television minister.	117736649	1475167392037	1475167392151	s	83
231555	2478777	Sun Jiazheng, 50, takes over as radio, film and television minister.	Sun Jiazheng, 50, takes over as radio, film and television minister.	117736653	1475167392284	1475167392399	t	84
231555	2478777	Sun Jiazheng, 50, takes over as radio, film and television minister.	Sun Jiazheng, 50, takes over as radio, film and television minister.	117736655	1475167392492	1475167392616	e	69
231555	2478777	Sun Jiazheng, 50, takes over as radio, film and television minister.	Sun Jiazheng, 50, takes over as radio, film and television minister.	117736656	1475167392598	1475167392730	r	82
231555	2478777	Sun Jiazheng, 50, takes over as radio, film and television minister.	Sun Jiazheng, 50, takes over as radio, film and television minister.	117736657	1475167392721	1475167392832	.	190
231555	2478797	I was trying to remember what Bobby said.	I was trying to remember what Bobby said.	117736809	1475167394923	1475167395103	SHIFT	16
231555	2478797	I was trying to remember what Bobby said.	I was trying to remember what Bobby said.	117736811	1475167395019	1475167395119	I	73
231555	2478797	I was trying to remember what Bobby said.	I was trying to remember what Bobby said.	117736814	1475167395220	1475167395326	 	32
231555	2478797	I was trying to remember what Bobby said.	I was trying to remember what Bobby said.	117736815	1475167395305	1475167395387	w	87
231555	2478797	I was trying to remember what Bobby said.	I was trying to remember what Bobby said.	117736818	1475167395434	1475167395538	a	65
231555	2478797	I was trying to remember what Bobby said.	I was trying to remember what Bobby said.	117736821	1475167395571	1475167395692	s	83
231555	2478797	I was trying to remember what Bobby said.	I was trying to remember what Bobby said.	117736854	1475167395672	1475167395782	 	32
231555	2478797	I was trying to remember what Bobby said.	I was trying to remember what Bobby said.	117736858	1475167395845	1475167395965	t	84
231555	2478797	I was trying to remember what Bobby said.	I was trying to remember what Bobby said.	117736860	1475167395900	1475167396026	r	82
231555	2478797	I was trying to remember what Bobby said.	I was trying to remember what Bobby said.	117736863	1475167396048	1475167396143	y	89
231555	2478797	I was trying to remember what Bobby said.	I was trying to remember what Bobby said.	117736867	1475167396163	1475167396320	i	73
231555	2478797	I was trying to remember what Bobby said.	I was trying to remember what Bobby said.	117736910	1475167396248	1475167396383	n	78
231555	2478797	I was trying to remember what Bobby said.	I was trying to remember what Bobby said.	117736913	1475167396394	1475167396495	g	71
231555	2478797	I was trying to remember what Bobby said.	I was trying to remember what Bobby said.	117736917	1475167396499	1475167396617	 	32
231555	2478797	I was trying to remember what Bobby said.	I was trying to remember what Bobby said.	117736922	1475167396854	1475167396967	t	84
231555	2478797	I was trying to remember what Bobby said.	I was trying to remember what Bobby said.	117736927	1475167396935	1475167397039	o	79
231555	2478797	I was trying to remember what Bobby said.	I was trying to remember what Bobby said.	117736931	1475167397102	1475167397215	 	32
231555	2478797	I was trying to remember what Bobby said.	I was trying to remember what Bobby said.	117736957	1475167397255	1475167397372	r	82
231555	2478797	I was trying to remember what Bobby said.	I was trying to remember what Bobby said.	117736959	1475167397311	1475167397462	e	69
231555	2478797	I was trying to remember what Bobby said.	I was trying to remember what Bobby said.	117736963	1475167397498	1475167397597	m	77
231555	2478797	I was trying to remember what Bobby said.	I was trying to remember what Bobby said.	117736969	1475167397893	1475167398001	e	69
231555	2478797	I was trying to remember what Bobby said.	I was trying to remember what Bobby said.	117736977	1475167398023	1475167398130	m	77
231555	2478797	I was trying to remember what Bobby said.	I was trying to remember what Bobby said.	117737017	1475167398238	1475167398355	b	66
231555	2478797	I was trying to remember what Bobby said.	I was trying to remember what Bobby said.	117737018	1475167398361	1475167398485	e	69
231555	2478797	I was trying to remember what Bobby said.	I was trying to remember what Bobby said.	117737021	1475167398478	1475167398579	r	82
231555	2478797	I was trying to remember what Bobby said.	I was trying to remember what Bobby said.	117737026	1475167398656	1475167398787	 	32
231555	2478797	I was trying to remember what Bobby said.	I was trying to remember what Bobby said.	117737031	1475167399096	1475167399205	w	87
231555	2478797	I was trying to remember what Bobby said.	I was trying to remember what Bobby said.	117737060	1475167399195	1475167399303	h	72
231555	2478797	I was trying to remember what Bobby said.	I was trying to remember what Bobby said.	117737061	1475167399294	1475167399411	a	65
231555	2478797	I was trying to remember what Bobby said.	I was trying to remember what Bobby said.	117737062	1475167399393	1475167399569	t	84
231555	2478797	I was trying to remember what Bobby said.	I was trying to remember what Bobby said.	117737063	1475167399530	1475167399674	 	32
231555	2478797	I was trying to remember what Bobby said.	I was trying to remember what Bobby said.	117737064	1475167399647	1475167399807	SHIFT	16
231555	2478797	I was trying to remember what Bobby said.	I was trying to remember what Bobby said.	117737065	1475167399744	1475167399893	B	66
231555	2478797	I was trying to remember what Bobby said.	I was trying to remember what Bobby said.	117737100	1475167399883	1475167400044	o	79
231555	2478797	I was trying to remember what Bobby said.	I was trying to remember what Bobby said.	117737104	1475167400041	1475167400154	b	66
231555	2478797	I was trying to remember what Bobby said.	I was trying to remember what Bobby said.	117737108	1475167400204	1475167400303	b	66
231555	2478797	I was trying to remember what Bobby said.	I was trying to remember what Bobby said.	117737114	1475167400266	1475167400375	y	89
231555	2478797	I was trying to remember what Bobby said.	I was trying to remember what Bobby said.	117737120	1475167400399	1475167400512	 	32
231555	2478797	I was trying to remember what Bobby said.	I was trying to remember what Bobby said.	117737126	1475167400715	1475167400861	s	83
231555	2478797	I was trying to remember what Bobby said.	I was trying to remember what Bobby said.	117737145	1475167400801	1475167400930	a	65
231555	2478797	I was trying to remember what Bobby said.	I was trying to remember what Bobby said.	117737148	1475167400890	1475167401007	i	73
231555	2478797	I was trying to remember what Bobby said.	I was trying to remember what Bobby said.	117737152	1475167400977	1475167401092	d	68
231555	2478797	I was trying to remember what Bobby said.	I was trying to remember what Bobby said.	117737155	1475167401133	1475167401245	.	190
231555	2478809	Mike is putting pressure on me.	MIke is putting pressure on me.	117737240	1475167403439	1475167403626	SHIFT	16
231555	2478809	Mike is putting pressure on me.	MIke is putting pressure on me.	117737244	1475167403531	1475167403659	M	77
231555	2478809	Mike is putting pressure on me.	MIke is putting pressure on me.	117737246	1475167403618	1475167403733	I	73
231555	2478809	Mike is putting pressure on me.	MIke is putting pressure on me.	117737248	1475167403791	1475167403902	k	75
231555	2478809	Mike is putting pressure on me.	MIke is putting pressure on me.	117737250	1475167403917	1475167404023	e	69
231555	2478809	Mike is putting pressure on me.	MIke is putting pressure on me.	117737272	1475167403999	1475167404111	 	32
231555	2478809	Mike is putting pressure on me.	MIke is putting pressure on me.	117737273	1475167404161	1475167404278	i	73
231555	2478809	Mike is putting pressure on me.	MIke is putting pressure on me.	117737274	1475167404285	1475167404395	s	83
231555	2478809	Mike is putting pressure on me.	MIke is putting pressure on me.	117737275	1475167404372	1475167404476	 	32
231555	2478809	Mike is putting pressure on me.	MIke is putting pressure on me.	117737276	1475167404555	1475167404679	p	80
231555	2478809	Mike is putting pressure on me.	MIke is putting pressure on me.	117737277	1475167404798	1475167404949	u	85
231555	2478809	Mike is putting pressure on me.	MIke is putting pressure on me.	117737353	1475167405390	1475167405501	t	84
231555	2478809	Mike is putting pressure on me.	MIke is putting pressure on me.	117737356	1475167405864	1475167405966	t	84
231555	2478809	Mike is putting pressure on me.	MIke is putting pressure on me.	117737361	1475167406189	1475167406342	i	73
231555	2478809	Mike is putting pressure on me.	MIke is putting pressure on me.	117737366	1475167406281	1475167406417	n	78
231555	2478809	Mike is putting pressure on me.	MIke is putting pressure on me.	117737371	1475167406436	1475167406540	g	71
231555	2478809	Mike is putting pressure on me.	MIke is putting pressure on me.	117737437	1475167406495	1475167406601	 	32
231555	2478809	Mike is putting pressure on me.	MIke is putting pressure on me.	117737440	1475167407227	1475167407382	p	80
231555	2478809	Mike is putting pressure on me.	MIke is putting pressure on me.	117737443	1475167407358	1475167407497	r	82
231555	2478809	Mike is putting pressure on me.	MIke is putting pressure on me.	117737449	1475167407425	1475167407550	e	69
231555	2478809	Mike is putting pressure on me.	MIke is putting pressure on me.	117737456	1475167407641	1475167407722	s	83
231555	2478809	Mike is putting pressure on me.	MIke is putting pressure on me.	117737460	1475167407774	1475167407882	s	83
231555	2478809	Mike is putting pressure on me.	MIke is putting pressure on me.	117737479	1475167407915	1475167408047	u	85
231555	2478809	Mike is putting pressure on me.	MIke is putting pressure on me.	117737483	1475167408039	1475167408169	r	82
231555	2478809	Mike is putting pressure on me.	MIke is putting pressure on me.	117737488	1475167408102	1475167408227	e	69
231555	2478809	Mike is putting pressure on me.	MIke is putting pressure on me.	117737493	1475167408189	1475167408272	 	32
231555	2478809	Mike is putting pressure on me.	MIke is putting pressure on me.	117737494	1475167408331	1475167408473	o	79
231555	2478809	Mike is putting pressure on me.	MIke is putting pressure on me.	117737522	1475167408454	1475167408542	n	78
231555	2478809	Mike is putting pressure on me.	MIke is putting pressure on me.	117737525	1475167408630	1475167408729	 	32
231555	2478809	Mike is putting pressure on me.	MIke is putting pressure on me.	117737529	1475167408756	1475167408887	m	77
231555	2478809	Mike is putting pressure on me.	MIke is putting pressure on me.	117737532	1475167408857	1475167408959	e	69
231555	2478809	Mike is putting pressure on me.	MIke is putting pressure on me.	117737534	1475167409307	1475167409385	.	190
231555	2478817	Will call later to explain.	Will call later to explain.	117737664	1475167411488	1475167411693	SHIFT	16
231555	2478817	Will call later to explain.	Will call later to explain.	117737666	1475167411623	1475167411771	W	87
231555	2478817	Will call later to explain.	Will call later to explain.	117737669	1475167411718	1475167411877	i	73
231555	2478817	Will call later to explain.	Will call later to explain.	117737672	1475167411924	1475167412006	l	76
231555	2478817	Will call later to explain.	Will call later to explain.	117737675	1475167412071	1475167412195	l	76
231555	2478817	Will call later to explain.	Will call later to explain.	117737679	1475167412243	1475167412355	 	32
231555	2478817	Will call later to explain.	Will call later to explain.	117737721	1475167412346	1475167412494	c	67
231555	2478817	Will call later to explain.	Will call later to explain.	117737722	1475167412442	1475167412548	a	65
231555	2478817	Will call later to explain.	Will call later to explain.	117737723	1475167412521	1475167412611	l	76
231555	2478817	Will call later to explain.	Will call later to explain.	117737724	1475167412692	1475167412767	l	76
231555	2478817	Will call later to explain.	Will call later to explain.	117737725	1475167412913	1475167413033	 	32
231555	2478817	Will call later to explain.	Will call later to explain.	117737726	1475167413327	1475167413421	l	76
231555	2478817	Will call later to explain.	Will call later to explain.	117737757	1475167413448	1475167413542	a	65
231555	2478817	Will call later to explain.	Will call later to explain.	117737758	1475167413653	1475167413788	t	84
231555	2478817	Will call later to explain.	Will call later to explain.	117737760	1475167413745	1475167413882	e	69
231555	2478817	Will call later to explain.	Will call later to explain.	117737762	1475167413877	1475167414008	r	82
231555	2478817	Will call later to explain.	Will call later to explain.	117737764	1475167414039	1475167414130	 	32
231555	2478817	Will call later to explain.	Will call later to explain.	117737807	1475167414215	1475167414317	t	84
231555	2478817	Will call later to explain.	Will call later to explain.	117737810	1475167414274	1475167414393	o	79
231555	2478817	Will call later to explain.	Will call later to explain.	117737814	1475167414432	1475167414552	 	32
231555	2478817	Will call later to explain.	Will call later to explain.	117737819	1475167414528	1475167414616	e	69
231555	2478817	Will call later to explain.	Will call later to explain.	117737824	1475167414706	1475167414808	x	88
231555	2478817	Will call later to explain.	Will call later to explain.	117737854	1475167414805	1475167414949	p	80
231555	2478817	Will call later to explain.	Will call later to explain.	117737856	1475167414884	1475167414999	l	76
231555	2478817	Will call later to explain.	Will call later to explain.	117737858	1475167414965	1475167415080	a	65
231555	2478817	Will call later to explain.	Will call later to explain.	117737862	1475167415066	1475167415244	i	73
231555	2478817	Will call later to explain.	Will call later to explain.	117737865	1475167415185	1475167415331	n	78
231555	2478817	Will call later to explain.	Will call later to explain.	117737870	1475167415711	1475167415813	.	190
231555	2478825	I got the impression that this is a message for internal use.	I got the impression that this is a message for internal use.	117738041	1475167417975	1475167418162	SHIFT	16
231555	2478825	I got the impression that this is a message for internal use.	I got the impression that this is a message for internal use.	117738044	1475167418079	1475167418196	I	73
231555	2478825	I got the impression that this is a message for internal use.	I got the impression that this is a message for internal use.	117738047	1475167418171	1475167418318	 	32
231555	2478825	I got the impression that this is a message for internal use.	I got the impression that this is a message for internal use.	117738052	1475167418320	1475167418414	g	71
231555	2478825	I got the impression that this is a message for internal use.	I got the impression that this is a message for internal use.	117738054	1475167418380	1475167418522	o	79
231555	2478825	I got the impression that this is a message for internal use.	I got the impression that this is a message for internal use.	117738104	1475167418489	1475167418594	t	84
231555	2478825	I got the impression that this is a message for internal use.	I got the impression that this is a message for internal use.	117738109	1475167418605	1475167418732	 	32
231555	2478825	I got the impression that this is a message for internal use.	I got the impression that this is a message for internal use.	117738113	1475167419181	1475167419285	t	84
231555	2478825	I got the impression that this is a message for internal use.	I got the impression that this is a message for internal use.	117738115	1475167419267	1475167419372	h	72
231555	2478825	I got the impression that this is a message for internal use.	I got the impression that this is a message for internal use.	117738120	1475167419393	1475167419499	e	69
231555	2478825	I got the impression that this is a message for internal use.	I got the impression that this is a message for internal use.	117738160	1475167419440	1475167419553	 	32
231555	2478825	I got the impression that this is a message for internal use.	I got the impression that this is a message for internal use.	117738165	1475167419631	1475167419744	i	73
231555	2478825	I got the impression that this is a message for internal use.	I got the impression that this is a message for internal use.	117738168	1475167419771	1475167419976	m	77
231555	2478825	I got the impression that this is a message for internal use.	I got the impression that this is a message for internal use.	117738172	1475167419913	1475167420071	p	80
231555	2478825	I got the impression that this is a message for internal use.	I got the impression that this is a message for internal use.	117738175	1475167420079	1475167420205	r	82
231555	2478825	I got the impression that this is a message for internal use.	I got the impression that this is a message for internal use.	117738187	1475167420156	1475167420270	e	69
231555	2478825	I got the impression that this is a message for internal use.	I got the impression that this is a message for internal use.	117738192	1475167420330	1475167420436	s	83
231555	2478825	I got the impression that this is a message for internal use.	I got the impression that this is a message for internal use.	117738198	1475167420455	1475167420580	s	83
231555	2478825	I got the impression that this is a message for internal use.	I got the impression that this is a message for internal use.	117738202	1475167420515	1475167420634	i	73
231555	2478825	I got the impression that this is a message for internal use.	I got the impression that this is a message for internal use.	117738208	1475167420637	1475167420748	o	79
231555	2478825	I got the impression that this is a message for internal use.	I got the impression that this is a message for internal use.	117738254	1475167420745	1475167420848	n	78
231555	2478825	I got the impression that this is a message for internal use.	I got the impression that this is a message for internal use.	117738255	1475167420930	1475167421053	 	32
231555	2478825	I got the impression that this is a message for internal use.	I got the impression that this is a message for internal use.	117738259	1475167421311	1475167421430	t	84
231555	2478825	I got the impression that this is a message for internal use.	I got the impression that this is a message for internal use.	117738260	1475167421395	1475167421525	h	72
231555	2478825	I got the impression that this is a message for internal use.	I got the impression that this is a message for internal use.	117738261	1475167421558	1475167421681	a	65
231555	2478825	I got the impression that this is a message for internal use.	I got the impression that this is a message for internal use.	117738271	1475167421635	1475167421772	t	84
231555	2478825	I got the impression that this is a message for internal use.	I got the impression that this is a message for internal use.	117738272	1475167421776	1475167421925	 	32
231555	2478825	I got the impression that this is a message for internal use.	I got the impression that this is a message for internal use.	117738275	1475167421943	1475167422051	t	84
231555	2478825	I got the impression that this is a message for internal use.	I got the impression that this is a message for internal use.	117738278	1475167422017	1475167422202	h	72
231555	2478825	I got the impression that this is a message for internal use.	I got the impression that this is a message for internal use.	117738280	1475167422134	1475167422273	i	73
231555	2478825	I got the impression that this is a message for internal use.	I got the impression that this is a message for internal use.	117738301	1475167422228	1475167422318	s	83
231555	2478825	I got the impression that this is a message for internal use.	I got the impression that this is a message for internal use.	117738304	1475167422304	1475167422441	 	32
231555	2478825	I got the impression that this is a message for internal use.	I got the impression that this is a message for internal use.	117738305	1475167422435	1475167422555	i	73
231555	2478825	I got the impression that this is a message for internal use.	I got the impression that this is a message for internal use.	117738306	1475167422606	1475167422692	s	83
231555	2478825	I got the impression that this is a message for internal use.	I got the impression that this is a message for internal use.	117738307	1475167422743	1475167422879	 	32
231555	2478825	I got the impression that this is a message for internal use.	I got the impression that this is a message for internal use.	117738308	1475167423060	1475167423195	a	65
231555	2478825	I got the impression that this is a message for internal use.	I got the impression that this is a message for internal use.	117738344	1475167423210	1475167423314	 	32
231555	2478825	I got the impression that this is a message for internal use.	I got the impression that this is a message for internal use.	117738347	1475167423423	1475167423553	m	77
231555	2478825	I got the impression that this is a message for internal use.	I got the impression that this is a message for internal use.	117738351	1475167423558	1475167423649	e	69
231555	2478825	I got the impression that this is a message for internal use.	I got the impression that this is a message for internal use.	117738355	1475167423721	1475167423823	s	83
231555	2478825	I got the impression that this is a message for internal use.	I got the impression that this is a message for internal use.	117738359	1475167423856	1475167423962	s	83
231555	2478825	I got the impression that this is a message for internal use.	I got the impression that this is a message for internal use.	117738417	1475167424061	1475167424189	a	65
231555	2478825	I got the impression that this is a message for internal use.	I got the impression that this is a message for internal use.	117738421	1475167424192	1475167424309	g	71
231555	2478825	I got the impression that this is a message for internal use.	I got the impression that this is a message for internal use.	117738425	1475167424322	1475167424438	e	69
231555	2478825	I got the impression that this is a message for internal use.	I got the impression that this is a message for internal use.	117738431	1475167424452	1475167424551	 	32
231555	2478825	I got the impression that this is a message for internal use.	I got the impression that this is a message for internal use.	117738433	1475167425336	1475167425439	f	70
231555	2478825	I got the impression that this is a message for internal use.	I got the impression that this is a message for internal use.	117738444	1475167425409	1475167425522	o	79
231555	2478825	I got the impression that this is a message for internal use.	I got the impression that this is a message for internal use.	117738452	1475167425508	1475167425623	r	82
231555	2478825	I got the impression that this is a message for internal use.	I got the impression that this is a message for internal use.	117738458	1475167425616	1475167425707	 	32
231555	2478825	I got the impression that this is a message for internal use.	I got the impression that this is a message for internal use.	117738462	1475167425743	1475167425874	i	73
231555	2478825	I got the impression that this is a message for internal use.	I got the impression that this is a message for internal use.	117738466	1475167425831	1475167425983	n	78
231555	2478825	I got the impression that this is a message for internal use.	I got the impression that this is a message for internal use.	117738485	1475167425977	1475167426093	t	84
231555	2478825	I got the impression that this is a message for internal use.	I got the impression that this is a message for internal use.	117738489	1475167426057	1475167426196	e	69
231555	2478825	I got the impression that this is a message for internal use.	I got the impression that this is a message for internal use.	117738492	1475167426188	1475167426311	r	82
231555	2478825	I got the impression that this is a message for internal use.	I got the impression that this is a message for internal use.	117738495	1475167426322	1475167426448	n	78
231555	2478825	I got the impression that this is a message for internal use.	I got the impression that this is a message for internal use.	117738499	1475167426485	1475167426596	a	65
231555	2478825	I got the impression that this is a message for internal use.	I got the impression that this is a message for internal use.	117738527	1475167426567	1475167426673	l	76
231555	2478825	I got the impression that this is a message for internal use.	I got the impression that this is a message for internal use.	117738530	1475167426732	1475167426829	 	32
231555	2478825	I got the impression that this is a message for internal use.	I got the impression that this is a message for internal use.	117738533	1475167426906	1475167427016	u	85
231555	2478825	I got the impression that this is a message for internal use.	I got the impression that this is a message for internal use.	117738536	1475167427030	1475167427122	s	83
231555	2478825	I got the impression that this is a message for internal use.	I got the impression that this is a message for internal use.	117738539	1475167427187	1475167427277	e	69
231555	2478840	He was recognized in his field as a pioneer.	He was recognized in his field as a pioneer.	117738693	1475167429719	1475167430131	SHIFT	16
231555	2478840	He was recognized in his field as a pioneer.	He was recognized in his field as a pioneer.	117738691	1475167430010	1475167430111	H	72
231555	2478840	He was recognized in his field as a pioneer.	He was recognized in his field as a pioneer.	117738697	1475167430180	1475167430280	e	69
231555	2478840	He was recognized in his field as a pioneer.	He was recognized in his field as a pioneer.	117738699	1475167430277	1475167430406	 	32
231555	2478840	He was recognized in his field as a pioneer.	He was recognized in his field as a pioneer.	117738704	1475167430381	1475167430462	w	87
231555	2478840	He was recognized in his field as a pioneer.	He was recognized in his field as a pioneer.	117738708	1475167430539	1475167430620	a	65
231555	2478840	He was recognized in his field as a pioneer.	He was recognized in his field as a pioneer.	117738724	1475167430683	1475167430797	s	83
231555	2478840	He was recognized in his field as a pioneer.	He was recognized in his field as a pioneer.	117738726	1475167430817	1475167430923	 	32
231555	2478840	He was recognized in his field as a pioneer.	He was recognized in his field as a pioneer.	117738728	1475167430983	1475167431097	r	82
231555	2478840	He was recognized in his field as a pioneer.	He was recognized in his field as a pioneer.	117738730	1475167431043	1475167431161	e	69
231555	2478840	He was recognized in his field as a pioneer.	He was recognized in his field as a pioneer.	117738732	1475167431259	1475167431389	c	67
231555	2478840	He was recognized in his field as a pioneer.	He was recognized in his field as a pioneer.	117738772	1475167431401	1475167431511	o	79
231555	2478840	He was recognized in his field as a pioneer.	He was recognized in his field as a pioneer.	117738775	1475167431631	1475167431734	g	71
231555	2478840	He was recognized in his field as a pioneer.	He was recognized in his field as a pioneer.	117738778	1475167431752	1475167431891	n	78
231555	2478840	He was recognized in his field as a pioneer.	He was recognized in his field as a pioneer.	117738780	1475167431851	1475167431984	i	73
231555	2478840	He was recognized in his field as a pioneer.	He was recognized in his field as a pioneer.	117738782	1475167432040	1475167432146	z	90
231555	2478840	He was recognized in his field as a pioneer.	He was recognized in his field as a pioneer.	117738810	1475167432244	1475167432337	e	69
231555	2478840	He was recognized in his field as a pioneer.	He was recognized in his field as a pioneer.	117738812	1475167432386	1475167432559	d	68
231555	2478840	He was recognized in his field as a pioneer.	He was recognized in his field as a pioneer.	117738814	1475167432570	1475167432715	 	32
231555	2478840	He was recognized in his field as a pioneer.	He was recognized in his field as a pioneer.	117738816	1475167432999	1475167433197	i	73
231555	2478840	He was recognized in his field as a pioneer.	He was recognized in his field as a pioneer.	117738847	1475167433135	1475167433249	n	78
231555	2478840	He was recognized in his field as a pioneer.	He was recognized in his field as a pioneer.	117738853	1475167433305	1475167433393	 	32
231555	2478840	He was recognized in his field as a pioneer.	He was recognized in his field as a pioneer.	117738859	1475167433554	1475167433716	h	72
231555	2478840	He was recognized in his field as a pioneer.	He was recognized in his field as a pioneer.	117738863	1475167433677	1475167433808	i	73
231555	2478840	He was recognized in his field as a pioneer.	He was recognized in his field as a pioneer.	117738867	1475167433841	1475167433956	s	83
231555	2478840	He was recognized in his field as a pioneer.	He was recognized in his field as a pioneer.	117738901	1475167433896	1475167434017	 	32
231555	2478840	He was recognized in his field as a pioneer.	He was recognized in his field as a pioneer.	117738905	1475167434056	1475167434154	f	70
231555	2478840	He was recognized in his field as a pioneer.	He was recognized in his field as a pioneer.	117738910	1475167434131	1475167434238	i	73
231555	2478840	He was recognized in his field as a pioneer.	He was recognized in his field as a pioneer.	117738913	1475167434267	1475167434399	e	69
231555	2478840	He was recognized in his field as a pioneer.	He was recognized in his field as a pioneer.	117738917	1475167434356	1475167434476	l	76
231555	2478840	He was recognized in his field as a pioneer.	He was recognized in his field as a pioneer.	117738920	1475167434526	1475167434643	d	68
231555	2478840	He was recognized in his field as a pioneer.	He was recognized in his field as a pioneer.	117738975	1475167434651	1475167434768	 	32
231555	2478840	He was recognized in his field as a pioneer.	He was recognized in his field as a pioneer.	117738978	1475167434949	1475167435057	a	65
231555	2478840	He was recognized in his field as a pioneer.	He was recognized in his field as a pioneer.	117738983	1475167435111	1475167435235	s	83
231555	2478840	He was recognized in his field as a pioneer.	He was recognized in his field as a pioneer.	117738987	1475167435236	1475167435352	 	32
231555	2478840	He was recognized in his field as a pioneer.	He was recognized in his field as a pioneer.	117738990	1475167435363	1475167435473	a	65
231555	2478840	He was recognized in his field as a pioneer.	He was recognized in his field as a pioneer.	117739040	1475167435476	1475167435624	 	32
231555	2478840	He was recognized in his field as a pioneer.	He was recognized in his field as a pioneer.	117739042	1475167435771	1475167435946	p	80
231555	2478840	He was recognized in his field as a pioneer.	He was recognized in his field as a pioneer.	117739045	1475167435890	1475167436029	i	73
231555	2478840	He was recognized in his field as a pioneer.	He was recognized in his field as a pioneer.	117739048	1475167436362	1475167436472	o	79
231555	2478840	He was recognized in his field as a pioneer.	He was recognized in his field as a pioneer.	117739052	1475167436515	1475167436643	n	78
231555	2478840	He was recognized in his field as a pioneer.	He was recognized in his field as a pioneer.	117739109	1475167436788	1475167436900	e	69
231555	2478840	He was recognized in his field as a pioneer.	He was recognized in his field as a pioneer.	117739112	1475167436927	1475167437040	e	69
231555	2478840	He was recognized in his field as a pioneer.	He was recognized in his field as a pioneer.	117739115	1475167437085	1475167437199	r	82
231555	2478840	He was recognized in his field as a pioneer.	He was recognized in his field as a pioneer.	117739119	1475167437265	1475167437301	/	191
231555	2478840	He was recognized in his field as a pioneer.	He was recognized in his field as a pioneer.	117739127	1475167437802	1475167437927	BKSP	8
231555	2478852	I'm leaving around noon tomorrow to catch a flight.	I'm leaving around noon tomorrow to catch a flight.	117739303	1475167440520	1475167440721	SHIFT	16
231555	2478852	I'm leaving around noon tomorrow to catch a flight.	I'm leaving around noon tomorrow to catch a flight.	117739306	1475167440633	1475167440732	I	73
231555	2478852	I'm leaving around noon tomorrow to catch a flight.	I'm leaving around noon tomorrow to catch a flight.	117739309	1475167440976	1475167441093	'	222
231555	2478852	I'm leaving around noon tomorrow to catch a flight.	I'm leaving around noon tomorrow to catch a flight.	117739315	1475167441208	1475167441298	m	77
231555	2478852	I'm leaving around noon tomorrow to catch a flight.	I'm leaving around noon tomorrow to catch a flight.	117739320	1475167441364	1475167441470	 	32
231555	2478852	I'm leaving around noon tomorrow to catch a flight.	I'm leaving around noon tomorrow to catch a flight.	117739326	1475167441556	1475167441691	l	76
231555	2478852	I'm leaving around noon tomorrow to catch a flight.	I'm leaving around noon tomorrow to catch a flight.	117739365	1475167441840	1475167441956	e	69
231555	2478852	I'm leaving around noon tomorrow to catch a flight.	I'm leaving around noon tomorrow to catch a flight.	117739368	1475167442042	1475167442132	a	65
231555	2478852	I'm leaving around noon tomorrow to catch a flight.	I'm leaving around noon tomorrow to catch a flight.	117739371	1475167442248	1475167442358	v	86
231555	2478852	I'm leaving around noon tomorrow to catch a flight.	I'm leaving around noon tomorrow to catch a flight.	117739373	1475167442340	1475167442500	i	73
231555	2478852	I'm leaving around noon tomorrow to catch a flight.	I'm leaving around noon tomorrow to catch a flight.	117739408	1475167442443	1475167442587	n	78
231555	2478852	I'm leaving around noon tomorrow to catch a flight.	I'm leaving around noon tomorrow to catch a flight.	117739411	1475167442553	1475167442650	g	71
231555	2478852	I'm leaving around noon tomorrow to catch a flight.	I'm leaving around noon tomorrow to catch a flight.	117739416	1475167442674	1475167442783	 	32
231555	2478852	I'm leaving around noon tomorrow to catch a flight.	I'm leaving around noon tomorrow to catch a flight.	117739423	1475167442830	1475167442974	a	65
231555	2478852	I'm leaving around noon tomorrow to catch a flight.	I'm leaving around noon tomorrow to catch a flight.	117739427	1475167443225	1475167443337	r	82
231555	2478852	I'm leaving around noon tomorrow to catch a flight.	I'm leaving around noon tomorrow to catch a flight.	117739462	1475167443326	1475167443463	o	79
231555	2478852	I'm leaving around noon tomorrow to catch a flight.	I'm leaving around noon tomorrow to catch a flight.	117739466	1475167443402	1475167443526	u	85
231555	2478852	I'm leaving around noon tomorrow to catch a flight.	I'm leaving around noon tomorrow to catch a flight.	117739471	1475167443614	1475167443717	n	78
231555	2478852	I'm leaving around noon tomorrow to catch a flight.	I'm leaving around noon tomorrow to catch a flight.	117739475	1475167443758	1475167443862	d	68
231555	2478852	I'm leaving around noon tomorrow to catch a flight.	I'm leaving around noon tomorrow to catch a flight.	117739479	1475167444318	1475167444428	 	32
231555	2478852	I'm leaving around noon tomorrow to catch a flight.	I'm leaving around noon tomorrow to catch a flight.	117739484	1475167444517	1475167444637	n	78
231555	2478852	I'm leaving around noon tomorrow to catch a flight.	I'm leaving around noon tomorrow to catch a flight.	117739524	1475167444625	1475167444739	o	79
231555	2478852	I'm leaving around noon tomorrow to catch a flight.	I'm leaving around noon tomorrow to catch a flight.	117739528	1475167444811	1475167444908	o	79
231555	2478852	I'm leaving around noon tomorrow to catch a flight.	I'm leaving around noon tomorrow to catch a flight.	117739531	1475167444944	1475167445055	n	78
231555	2478852	I'm leaving around noon tomorrow to catch a flight.	I'm leaving around noon tomorrow to catch a flight.	117739533	1475167445154	1475167445272	 	32
231555	2478852	I'm leaving around noon tomorrow to catch a flight.	I'm leaving around noon tomorrow to catch a flight.	117739535	1475167445452	1475167445574	t	84
231555	2478852	I'm leaving around noon tomorrow to catch a flight.	I'm leaving around noon tomorrow to catch a flight.	117739631	1475167445540	1475167445675	o	79
231555	2478852	I'm leaving around noon tomorrow to catch a flight.	I'm leaving around noon tomorrow to catch a flight.	117739635	1475167445647	1475167445781	m	77
231555	2478852	I'm leaving around noon tomorrow to catch a flight.	I'm leaving around noon tomorrow to catch a flight.	117739637	1475167445783	1475167445904	o	79
231555	2478852	I'm leaving around noon tomorrow to catch a flight.	I'm leaving around noon tomorrow to catch a flight.	117739642	1475167445940	1475167446053	r	82
231555	2478852	I'm leaving around noon tomorrow to catch a flight.	I'm leaving around noon tomorrow to catch a flight.	117739644	1475167447639	1475167447743	r	82
231555	2478852	I'm leaving around noon tomorrow to catch a flight.	I'm leaving around noon tomorrow to catch a flight.	117739699	1475167447737	1475167447832	o	79
231555	2478852	I'm leaving around noon tomorrow to catch a flight.	I'm leaving around noon tomorrow to catch a flight.	117739704	1475167447850	1475167447942	w	87
231555	2478852	I'm leaving around noon tomorrow to catch a flight.	I'm leaving around noon tomorrow to catch a flight.	117739711	1475167447960	1475167448080	 	32
231555	2478852	I'm leaving around noon tomorrow to catch a flight.	I'm leaving around noon tomorrow to catch a flight.	117739718	1475167448396	1475167448497	t	84
231555	2478852	I'm leaving around noon tomorrow to catch a flight.	I'm leaving around noon tomorrow to catch a flight.	117739724	1475167448455	1475167448572	o	79
231555	2478852	I'm leaving around noon tomorrow to catch a flight.	I'm leaving around noon tomorrow to catch a flight.	117739727	1475167448608	1475167448727	 	32
231555	2478852	I'm leaving around noon tomorrow to catch a flight.	I'm leaving around noon tomorrow to catch a flight.	117739738	1475167448733	1475167448927	c	67
231555	2478852	I'm leaving around noon tomorrow to catch a flight.	I'm leaving around noon tomorrow to catch a flight.	117739742	1475167448844	1475167448981	a	65
231555	2478852	I'm leaving around noon tomorrow to catch a flight.	I'm leaving around noon tomorrow to catch a flight.	117739746	1475167448986	1475167449109	t	84
231555	2478852	I'm leaving around noon tomorrow to catch a flight.	I'm leaving around noon tomorrow to catch a flight.	117739750	1475167449089	1475167449208	c	67
231555	2478852	I'm leaving around noon tomorrow to catch a flight.	I'm leaving around noon tomorrow to catch a flight.	117739789	1475167449196	1475167449293	h	72
231555	2478852	I'm leaving around noon tomorrow to catch a flight.	I'm leaving around noon tomorrow to catch a flight.	117739794	1475167449349	1475167449486	 	32
231555	2478852	I'm leaving around noon tomorrow to catch a flight.	I'm leaving around noon tomorrow to catch a flight.	117739798	1475167449430	1475167449562	a	65
231555	2478852	I'm leaving around noon tomorrow to catch a flight.	I'm leaving around noon tomorrow to catch a flight.	117739801	1475167449558	1475167449680	 	32
231555	2478852	I'm leaving around noon tomorrow to catch a flight.	I'm leaving around noon tomorrow to catch a flight.	117739807	1475167449739	1475167449865	f	70
231555	2478852	I'm leaving around noon tomorrow to catch a flight.	I'm leaving around noon tomorrow to catch a flight.	117739846	1475167449806	1475167449955	l	76
231555	2478852	I'm leaving around noon tomorrow to catch a flight.	I'm leaving around noon tomorrow to catch a flight.	117739850	1475167449963	1475167450061	i	73
231555	2478852	I'm leaving around noon tomorrow to catch a flight.	I'm leaving around noon tomorrow to catch a flight.	117739855	1475167450049	1475167450161	g	71
231555	2478852	I'm leaving around noon tomorrow to catch a flight.	I'm leaving around noon tomorrow to catch a flight.	117739859	1475167450143	1475167450237	h	72
231555	2478852	I'm leaving around noon tomorrow to catch a flight.	I'm leaving around noon tomorrow to catch a flight.	117739861	1475167450226	1475167450336	t	84
231555	2478867	I will tell them.	I will tell them	117739947	1475167452582	1475167452817	SHIFT	16
231555	2478867	I will tell them.	I will tell them	117739950	1475167452738	1475167452826	I	73
231555	2478867	I will tell them.	I will tell them	117739953	1475167452921	1475167453038	 	32
231555	2478867	I will tell them.	I will tell them	117739957	1475167453087	1475167453206	w	87
231555	2478867	I will tell them.	I will tell them	117739963	1475167453166	1475167453289	i	73
231555	2478867	I will tell them.	I will tell them	117739969	1475167453318	1475167453406	l	76
231555	2478867	I will tell them.	I will tell them	117740021	1475167453460	1475167453567	l	76
231555	2478867	I will tell them.	I will tell them	117740025	1475167453673	1475167453801	 	32
231555	2478867	I will tell them.	I will tell them	117740031	1475167454153	1475167454255	t	84
231555	2478867	I will tell them.	I will tell them	117740039	1475167454356	1475167454460	e	69
231555	2478867	I will tell them.	I will tell them	117740074	1475167454448	1475167454545	l	76
231555	2478867	I will tell them.	I will tell them	117740078	1475167454608	1475167454687	l	76
231555	2478867	I will tell them.	I will tell them	117740082	1475167454784	1475167454868	 	32
231555	2478867	I will tell them.	I will tell them	117740087	1475167454929	1475167455035	t	84
231555	2478867	I will tell them.	I will tell them	117740093	1475167455042	1475167455142	h	72
231555	2478867	I will tell them.	I will tell them	117740105	1475167455122	1475167455228	e	69
231555	2478867	I will tell them.	I will tell them	117740107	1475167455250	1475167455389	m	77
231555	2478873	This time I'm more comfortable and aware of a lot more situations.	This time I'm more comfortable and aware of a lot more situations.	117740303	1475167457712	1475167457948	SHIFT	16
231555	2478873	This time I'm more comfortable and aware of a lot more situations.	This time I'm more comfortable and aware of a lot more situations.	117740307	1475167457851	1475167457950	T	84
231555	2478873	This time I'm more comfortable and aware of a lot more situations.	This time I'm more comfortable and aware of a lot more situations.	117740311	1475167458047	1475167458196	h	72
231555	2478873	This time I'm more comfortable and aware of a lot more situations.	This time I'm more comfortable and aware of a lot more situations.	117740316	1475167458188	1475167458306	i	73
231555	2478873	This time I'm more comfortable and aware of a lot more situations.	This time I'm more comfortable and aware of a lot more situations.	117740324	1475167458328	1475167458474	s	83
231555	2478873	This time I'm more comfortable and aware of a lot more situations.	This time I'm more comfortable and aware of a lot more situations.	117740382	1475167458447	1475167458574	 	32
231555	2478873	This time I'm more comfortable and aware of a lot more situations.	This time I'm more comfortable and aware of a lot more situations.	117740384	1475167458759	1475167458855	t	84
231555	2478873	This time I'm more comfortable and aware of a lot more situations.	This time I'm more comfortable and aware of a lot more situations.	117740385	1475167458824	1475167458974	i	73
231555	2478873	This time I'm more comfortable and aware of a lot more situations.	This time I'm more comfortable and aware of a lot more situations.	117740387	1475167458999	1475167459064	m	77
231555	2478873	This time I'm more comfortable and aware of a lot more situations.	This time I'm more comfortable and aware of a lot more situations.	117740391	1475167459229	1475167459333	e	69
231555	2478873	This time I'm more comfortable and aware of a lot more situations.	This time I'm more comfortable and aware of a lot more situations.	117740394	1475167459409	1475167459581	 	32
231555	2478873	This time I'm more comfortable and aware of a lot more situations.	This time I'm more comfortable and aware of a lot more situations.	117740456	1475167459746	1475167459971	SHIFT	16
231555	2478873	This time I'm more comfortable and aware of a lot more situations.	This time I'm more comfortable and aware of a lot more situations.	117740453	1475167459858	1475167459960	I	73
231555	2478873	This time I'm more comfortable and aware of a lot more situations.	This time I'm more comfortable and aware of a lot more situations.	117740459	1475167460278	1475167460399	'	222
231555	2478873	This time I'm more comfortable and aware of a lot more situations.	This time I'm more comfortable and aware of a lot more situations.	117740462	1475167460492	1475167460605	m	77
231555	2478873	This time I'm more comfortable and aware of a lot more situations.	This time I'm more comfortable and aware of a lot more situations.	117740465	1475167460654	1475167460767	 	32
231555	2478873	This time I'm more comfortable and aware of a lot more situations.	This time I'm more comfortable and aware of a lot more situations.	117740471	1475167460862	1475167461037	m	77
231555	2478873	This time I'm more comfortable and aware of a lot more situations.	This time I'm more comfortable and aware of a lot more situations.	117740495	1475167460956	1475167461100	o	79
231555	2478873	This time I'm more comfortable and aware of a lot more situations.	This time I'm more comfortable and aware of a lot more situations.	117740498	1475167461193	1475167461356	r	82
231555	2478873	This time I'm more comfortable and aware of a lot more situations.	This time I'm more comfortable and aware of a lot more situations.	117740502	1475167461276	1475167461402	e	69
231555	2478873	This time I'm more comfortable and aware of a lot more situations.	This time I'm more comfortable and aware of a lot more situations.	117740504	1475167461379	1475167461489	 	32
231555	2478873	This time I'm more comfortable and aware of a lot more situations.	This time I'm more comfortable and aware of a lot more situations.	117740506	1475167461495	1475167461630	c	67
231555	2478873	This time I'm more comfortable and aware of a lot more situations.	This time I'm more comfortable and aware of a lot more situations.	117740516	1475167461554	1475167461722	o	79
231555	2478873	This time I'm more comfortable and aware of a lot more situations.	This time I'm more comfortable and aware of a lot more situations.	117740518	1475167461652	1475167461810	m	77
231555	2478873	This time I'm more comfortable and aware of a lot more situations.	This time I'm more comfortable and aware of a lot more situations.	117740521	1475167461783	1475167461885	f	70
231555	2478873	This time I'm more comfortable and aware of a lot more situations.	This time I'm more comfortable and aware of a lot more situations.	117740525	1475167461882	1475167461999	o	79
231555	2478873	This time I'm more comfortable and aware of a lot more situations.	This time I'm more comfortable and aware of a lot more situations.	117740528	1475167462005	1475167462116	r	82
231555	2478873	This time I'm more comfortable and aware of a lot more situations.	This time I'm more comfortable and aware of a lot more situations.	117740531	1475167462179	1475167462267	t	84
231555	2478873	This time I'm more comfortable and aware of a lot more situations.	This time I'm more comfortable and aware of a lot more situations.	117740595	1475167462422	1475167462487	a	65
231555	2478873	This time I'm more comfortable and aware of a lot more situations.	This time I'm more comfortable and aware of a lot more situations.	117740597	1475167462508	1475167462690	b	66
231555	2478873	This time I'm more comfortable and aware of a lot more situations.	This time I'm more comfortable and aware of a lot more situations.	117740599	1475167462634	1475167462728	l	76
231555	2478873	This time I'm more comfortable and aware of a lot more situations.	This time I'm more comfortable and aware of a lot more situations.	117740602	1475167462897	1475167462996	BKSP	8
231555	2478873	This time I'm more comfortable and aware of a lot more situations.	This time I'm more comfortable and aware of a lot more situations.	117740606	1475167463044	1475167463134	BKSP	8
231555	2478873	This time I'm more comfortable and aware of a lot more situations.	This time I'm more comfortable and aware of a lot more situations.	117740610	1475167463213	1475167463294	BKSP	8
231555	2478873	This time I'm more comfortable and aware of a lot more situations.	This time I'm more comfortable and aware of a lot more situations.	117740614	1475167463933	1475167464050	a	65
231555	2478873	This time I'm more comfortable and aware of a lot more situations.	This time I'm more comfortable and aware of a lot more situations.	117740676	1475167464028	1475167464222	b	66
231555	2478873	This time I'm more comfortable and aware of a lot more situations.	This time I'm more comfortable and aware of a lot more situations.	117740678	1475167464181	1475167464309	l	76
231555	2478873	This time I'm more comfortable and aware of a lot more situations.	This time I'm more comfortable and aware of a lot more situations.	117740680	1475167465023	1475167465152	e	69
231555	2478873	This time I'm more comfortable and aware of a lot more situations.	This time I'm more comfortable and aware of a lot more situations.	117740681	1475167465269	1475167465400	 	32
231555	2478873	This time I'm more comfortable and aware of a lot more situations.	This time I'm more comfortable and aware of a lot more situations.	117740682	1475167465657	1475167465783	a	65
231555	2478873	This time I'm more comfortable and aware of a lot more situations.	This time I'm more comfortable and aware of a lot more situations.	117740719	1475167465756	1475167465880	n	78
231555	2478873	This time I'm more comfortable and aware of a lot more situations.	This time I'm more comfortable and aware of a lot more situations.	117740722	1475167465870	1475167465990	d	68
231555	2478873	This time I'm more comfortable and aware of a lot more situations.	This time I'm more comfortable and aware of a lot more situations.	117740727	1475167465976	1475167466110	 	32
231555	2478873	This time I'm more comfortable and aware of a lot more situations.	This time I'm more comfortable and aware of a lot more situations.	117740733	1475167466066	1475167466182	a	65
231555	2478873	This time I'm more comfortable and aware of a lot more situations.	This time I'm more comfortable and aware of a lot more situations.	117740738	1475167466234	1475167466329	w	87
231555	2478873	This time I'm more comfortable and aware of a lot more situations.	This time I'm more comfortable and aware of a lot more situations.	117740742	1475167466403	1475167466520	a	65
231555	2478873	This time I'm more comfortable and aware of a lot more situations.	This time I'm more comfortable and aware of a lot more situations.	117740769	1475167466655	1475167466792	r	82
231555	2478873	This time I'm more comfortable and aware of a lot more situations.	This time I'm more comfortable and aware of a lot more situations.	117740771	1475167466738	1475167466879	e	69
231555	2478873	This time I'm more comfortable and aware of a lot more situations.	This time I'm more comfortable and aware of a lot more situations.	117740773	1475167466915	1475167467028	 	32
231555	2478873	This time I'm more comfortable and aware of a lot more situations.	This time I'm more comfortable and aware of a lot more situations.	117740775	1475167467175	1475167467350	o	79
231555	2478873	This time I'm more comfortable and aware of a lot more situations.	This time I'm more comfortable and aware of a lot more situations.	117740777	1475167467359	1475167467476	f	70
231555	2478873	This time I'm more comfortable and aware of a lot more situations.	This time I'm more comfortable and aware of a lot more situations.	117740805	1475167467485	1475167467594	 	32
231555	2478873	This time I'm more comfortable and aware of a lot more situations.	This time I'm more comfortable and aware of a lot more situations.	117740811	1475167467591	1475167467699	a	65
231555	2478873	This time I'm more comfortable and aware of a lot more situations.	This time I'm more comfortable and aware of a lot more situations.	117740819	1475167467708	1475167467816	 	32
231555	2478873	This time I'm more comfortable and aware of a lot more situations.	This time I'm more comfortable and aware of a lot more situations.	117740822	1475167467867	1475167467984	l	76
231555	2478873	This time I'm more comfortable and aware of a lot more situations.	This time I'm more comfortable and aware of a lot more situations.	117740824	1475167468030	1475167468153	o	79
231555	2478873	This time I'm more comfortable and aware of a lot more situations.	This time I'm more comfortable and aware of a lot more situations.	117740881	1475167468194	1475167468299	t	84
231555	2478873	This time I'm more comfortable and aware of a lot more situations.	This time I'm more comfortable and aware of a lot more situations.	117740884	1475167468275	1475167468408	 	32
231555	2478873	This time I'm more comfortable and aware of a lot more situations.	This time I'm more comfortable and aware of a lot more situations.	117740887	1475167468983	1475167469150	m	77
231555	2478873	This time I'm more comfortable and aware of a lot more situations.	This time I'm more comfortable and aware of a lot more situations.	117740891	1475167469083	1475167469240	o	79
231555	2478873	This time I'm more comfortable and aware of a lot more situations.	This time I'm more comfortable and aware of a lot more situations.	117740894	1475167469244	1475167469377	r	82
231555	2478873	This time I'm more comfortable and aware of a lot more situations.	This time I'm more comfortable and aware of a lot more situations.	117740929	1475167469312	1475167469431	e	69
231555	2478873	This time I'm more comfortable and aware of a lot more situations.	This time I'm more comfortable and aware of a lot more situations.	117740933	1475167469403	1475167469504	 	32
231555	2478873	This time I'm more comfortable and aware of a lot more situations.	This time I'm more comfortable and aware of a lot more situations.	117740941	1475167469501	1475167469629	s	83
231555	2478873	This time I'm more comfortable and aware of a lot more situations.	This time I'm more comfortable and aware of a lot more situations.	117740945	1475167469608	1475167469716	i	73
231555	2478873	This time I'm more comfortable and aware of a lot more situations.	This time I'm more comfortable and aware of a lot more situations.	117740953	1475167469796	1475167469917	t	84
231555	2478873	This time I'm more comfortable and aware of a lot more situations.	This time I'm more comfortable and aware of a lot more situations.	117740959	1475167469982	1475167470116	u	85
231555	2478873	This time I'm more comfortable and aware of a lot more situations.	This time I'm more comfortable and aware of a lot more situations.	117740977	1475167470097	1475167470216	a	65
231555	2478873	This time I'm more comfortable and aware of a lot more situations.	This time I'm more comfortable and aware of a lot more situations.	117740979	1475167470324	1475167470439	t	84
231555	2478873	This time I'm more comfortable and aware of a lot more situations.	This time I'm more comfortable and aware of a lot more situations.	117740983	1475167470401	1475167470524	i	73
231555	2478873	This time I'm more comfortable and aware of a lot more situations.	This time I'm more comfortable and aware of a lot more situations.	117740987	1475167470484	1475167470631	o	79
231555	2478873	This time I'm more comfortable and aware of a lot more situations.	This time I'm more comfortable and aware of a lot more situations.	117740991	1475167470599	1475167470713	n	78
231555	2478873	This time I'm more comfortable and aware of a lot more situations.	This time I'm more comfortable and aware of a lot more situations.	117741002	1475167470686	1475167470796	s	83
