PARTICIPANT_ID	TEST_SECTION_ID	SENTENCE	USER_INPUT	KEYSTROKE_ID	PRESS_TIME	RELEASE_TIME	LETTER	KEYCODE
231887	2482127	His status for the Week 11 game against Atlanta is unclear.	his status for the week 11 game against Atlanta is unclear.	117893849	1475169624297	1475169624392	h	72
231887	2482127	His status for the Week 11 game against Atlanta is unclear.	his status for the week 11 game against Atlanta is unclear.	117893855	1475169624587	1475169624758	i	73
231887	2482127	His status for the Week 11 game against Atlanta is unclear.	his status for the week 11 game against Atlanta is unclear.	117893861	1475169624841	1475169624937	s	83
231887	2482127	His status for the Week 11 game against Atlanta is unclear.	his status for the week 11 game against Atlanta is unclear.	117893870	1475169625001	1475169625191	 	32
231887	2482127	His status for the Week 11 game against Atlanta is unclear.	his status for the week 11 game against Atlanta is unclear.	117893877	1475169625554	1475169625650	s	83
231887	2482127	His status for the Week 11 game against Atlanta is unclear.	his status for the week 11 game against Atlanta is unclear.	117893982	1475169625808	1475169625904	t	84
231887	2482127	His status for the Week 11 game against Atlanta is unclear.	his status for the week 11 game against Atlanta is unclear.	117893985	1475169625931	1475169626046	a	65
231887	2482127	His status for the Week 11 game against Atlanta is unclear.	his status for the week 11 game against Atlanta is unclear.	117893989	1475169626446	1475169626526	t	84
231887	2482127	His status for the Week 11 game against Atlanta is unclear.	his status for the week 11 game against Atlanta is unclear.	117893995	1475169626906	1475169627039	u	85
231887	2482127	His status for the Week 11 game against Atlanta is unclear.	his status for the week 11 game against Atlanta is unclear.	117893999	1475169627196	1475169627293	s	83
231887	2482127	His status for the Week 11 game against Atlanta is unclear.	his status for the week 11 game against Atlanta is unclear.	117894092	1475169627450	1475169627584	 	32
231887	2482127	His status for the Week 11 game against Atlanta is unclear.	his status for the week 11 game against Atlanta is unclear.	117894097	1475169628247	1475169628325	f	70
231887	2482127	His status for the Week 11 game against Atlanta is unclear.	his status for the week 11 game against Atlanta is unclear.	117894101	1475169628408	1475169628579	o	79
231887	2482127	His status for the Week 11 game against Atlanta is unclear.	his status for the week 11 game against Atlanta is unclear.	117894104	1475169628717	1475169628795	r	82
231887	2482127	His status for the Week 11 game against Atlanta is unclear.	his status for the week 11 game against Atlanta is unclear.	117894110	1475169628897	1475169629058	 	32
231887	2482127	His status for the Week 11 game against Atlanta is unclear.	his status for the week 11 game against Atlanta is unclear.	117894176	1475169629062	1475169629135	t	84
231887	2482127	His status for the Week 11 game against Atlanta is unclear.	his status for the week 11 game against Atlanta is unclear.	117894179	1475169629274	1475169629408	h	72
231887	2482127	His status for the Week 11 game against Atlanta is unclear.	his status for the week 11 game against Atlanta is unclear.	117894185	1475169629509	1475169629606	e	69
231887	2482127	His status for the Week 11 game against Atlanta is unclear.	his status for the week 11 game against Atlanta is unclear.	117894191	1475169629688	1475169629841	 	32
231887	2482127	His status for the Week 11 game against Atlanta is unclear.	his status for the week 11 game against Atlanta is unclear.	117894195	1475169629998	1475169630076	w	87
231887	2482127	His status for the Week 11 game against Atlanta is unclear.	his status for the week 11 game against Atlanta is unclear.	117894269	1475169630233	1475169630311	e	69
231887	2482127	His status for the Week 11 game against Atlanta is unclear.	his status for the week 11 game against Atlanta is unclear.	117894273	1475169630394	1475169630472	e	69
231887	2482127	His status for the Week 11 game against Atlanta is unclear.	his status for the week 11 game against Atlanta is unclear.	117894278	1475169630592	1475169630744	k	75
231887	2482127	His status for the Week 11 game against Atlanta is unclear.	his status for the week 11 game against Atlanta is unclear.	117894287	1475169630771	1475169630905	 	32
231887	2482127	His status for the Week 11 game against Atlanta is unclear.	his status for the week 11 game against Atlanta is unclear.	117894296	1475169631137	1475169631215	1	49
231887	2482127	His status for the Week 11 game against Atlanta is unclear.	his status for the week 11 game against Atlanta is unclear.	117894455	1475169631316	1475169631394	1	49
231887	2482127	His status for the Week 11 game against Atlanta is unclear.	his status for the week 11 game against Atlanta is unclear.	117894458	1475169631589	1475169631741	 	32
231887	2482127	His status for the Week 11 game against Atlanta is unclear.	his status for the week 11 game against Atlanta is unclear.	117894466	1475169633138	1475169633197	g	71
231887	2482127	His status for the Week 11 game against Atlanta is unclear.	his status for the week 11 game against Atlanta is unclear.	117894475	1475169633317	1475169633451	a	65
231887	2482127	His status for the Week 11 game against Atlanta is unclear.	his status for the week 11 game against Atlanta is unclear.	117894484	1475169633589	1475169633723	m	77
231887	2482127	His status for the Week 11 game against Atlanta is unclear.	his status for the week 11 game against Atlanta is unclear.	117894579	1475169633769	1475169633865	e	69
231887	2482127	His status for the Week 11 game against Atlanta is unclear.	his status for the week 11 game against Atlanta is unclear.	117894584	1475169633929	1475169634063	 	32
231887	2482127	His status for the Week 11 game against Atlanta is unclear.	his status for the week 11 game against Atlanta is unclear.	117894591	1475169634183	1475169634280	a	65
231887	2482127	His status for the Week 11 game against Atlanta is unclear.	his status for the week 11 game against Atlanta is unclear.	117894598	1475169635112	1475169635208	g	71
231887	2482127	His status for the Week 11 game against Atlanta is unclear.	his status for the week 11 game against Atlanta is unclear.	117894602	1475169635291	1475169635369	a	65
231887	2482127	His status for the Week 11 game against Atlanta is unclear.	his status for the week 11 game against Atlanta is unclear.	117894816	1475169635787	1475169635884	i	73
231887	2482127	His status for the Week 11 game against Atlanta is unclear.	his status for the week 11 game against Atlanta is unclear.	117894821	1475169636041	1475169636138	n	78
231887	2482127	His status for the Week 11 game against Atlanta is unclear.	his status for the week 11 game against Atlanta is unclear.	117894825	1475169636537	1475169636634	s	83
231887	2482127	His status for the Week 11 game against Atlanta is unclear.	his status for the week 11 game against Atlanta is unclear.	117894829	1475169636717	1475169636813	t	84
231887	2482127	His status for the Week 11 game against Atlanta is unclear.	his status for the week 11 game against Atlanta is unclear.	117894834	1475169637927	1475169638117	 	32
231887	2482127	His status for the Week 11 game against Atlanta is unclear.	his status for the week 11 game against Atlanta is unclear.	117895006	1475169638386	1475169638809	SHIFT	16
231887	2482127	His status for the Week 11 game against Atlanta is unclear.	his status for the week 11 game against Atlanta is unclear.	117895007	1475169638656	1475169638829	A	65
231887	2482127	His status for the Week 11 game against Atlanta is unclear.	his status for the week 11 game against Atlanta is unclear.	117895010	1475169639569	1475169639646	t	84
231887	2482127	His status for the Week 11 game against Atlanta is unclear.	his status for the week 11 game against Atlanta is unclear.	117895014	1475169640009	1475169640124	l	76
231887	2482127	His status for the Week 11 game against Atlanta is unclear.	his status for the week 11 game against Atlanta is unclear.	117895017	1475169640300	1475169640378	a	65
231887	2482127	His status for the Week 11 game against Atlanta is unclear.	his status for the week 11 game against Atlanta is unclear.	117895021	1475169640647	1475169640743	n	78
231887	2482127	His status for the Week 11 game against Atlanta is unclear.	his status for the week 11 game against Atlanta is unclear.	117895125	1475169641124	1475169641258	t	84
231887	2482127	His status for the Week 11 game against Atlanta is unclear.	his status for the week 11 game against Atlanta is unclear.	117895127	1475169641304	1475169641401	a	65
231887	2482127	His status for the Week 11 game against Atlanta is unclear.	his status for the week 11 game against Atlanta is unclear.	117895131	1475169641483	1475169641636	 	32
231887	2482127	His status for the Week 11 game against Atlanta is unclear.	his status for the week 11 game against Atlanta is unclear.	117895133	1475169642186	1475169642339	i	73
231887	2482127	His status for the Week 11 game against Atlanta is unclear.	his status for the week 11 game against Atlanta is unclear.	117895138	1475169642533	1475169642630	s	83
231887	2482127	His status for the Week 11 game against Atlanta is unclear.	his status for the week 11 game against Atlanta is unclear.	117895258	1475169642694	1475169642846	 	32
231887	2482127	His status for the Week 11 game against Atlanta is unclear.	his status for the week 11 game against Atlanta is unclear.	117895262	1475169643022	1475169643138	u	85
231887	2482127	His status for the Week 11 game against Atlanta is unclear.	his status for the week 11 game against Atlanta is unclear.	117895264	1475169643257	1475169643373	n	78
231887	2482127	His status for the Week 11 game against Atlanta is unclear.	his status for the week 11 game against Atlanta is unclear.	117895267	1475169643848	1475169643944	c	67
231887	2482127	His status for the Week 11 game against Atlanta is unclear.	his status for the week 11 game against Atlanta is unclear.	117895270	1475169644270	1475169644403	l	76
231887	2482127	His status for the Week 11 game against Atlanta is unclear.	his status for the week 11 game against Atlanta is unclear.	117895474	1475169644505	1475169644582	e	69
231887	2482127	His status for the Week 11 game against Atlanta is unclear.	his status for the week 11 game against Atlanta is unclear.	117895485	1475169644796	1475169644892	a	65
231887	2482127	His status for the Week 11 game against Atlanta is unclear.	his status for the week 11 game against Atlanta is unclear.	117895495	1475169645106	1475169645183	r	82
231887	2482127	His status for the Week 11 game against Atlanta is unclear.	his status for the week 11 game against Atlanta is unclear.	117895502	1475169645453	1475169645530	.	190
231887	2482166	We have been working on clay for four weeks.	We have been working with clay for four weeks	117896283	1475169658832	1475169659180	SHIFT	16
231887	2482166	We have been working on clay for four weeks.	We have been working with clay for four weeks	117896284	1475169659083	1475169659201	W	87
231887	2482166	We have been working on clay for four weeks.	We have been working with clay for four weeks	117896286	1475169659302	1475169659436	e	69
231887	2482166	We have been working on clay for four weeks.	We have been working with clay for four weeks	117896291	1475169659481	1475169659671	 	32
231887	2482166	We have been working on clay for four weeks.	We have been working with clay for four weeks	117896296	1475169659847	1475169659981	h	72
231887	2482166	We have been working on clay for four weeks.	We have been working with clay for four weeks	117896300	1475169660064	1475169660198	a	65
231887	2482166	We have been working on clay for four weeks.	We have been working with clay for four weeks	117896368	1475169660355	1475169660489	v	86
231887	2482166	We have been working on clay for four weeks.	We have been working with clay for four weeks	117896372	1475169660721	1475169660817	e	69
231887	2482166	We have been working on clay for four weeks.	We have been working with clay for four weeks	117896376	1475169660844	1475169661015	 	32
231887	2482166	We have been working on clay for four weeks.	We have been working with clay for four weeks	117896380	1475169661173	1475169661307	b	66
231887	2482166	We have been working on clay for four weeks.	We have been working with clay for four weeks	117896382	1475169661445	1475169661523	e	69
231887	2482166	We have been working on clay for four weeks.	We have been working with clay for four weeks	117896449	1475169661643	1475169661721	e	69
231887	2482166	We have been working on clay for four weeks.	We have been working with clay for four weeks	117896454	1475169661878	1475169662012	n	78
231887	2482166	We have been working on clay for four weeks.	We have been working with clay for four weeks	117896458	1475169662057	1475169662210	 	32
231887	2482166	We have been working on clay for four weeks.	We have been working with clay for four weeks	117896459	1475169662368	1475169662464	w	87
231887	2482166	We have been working on clay for four weeks.	We have been working with clay for four weeks	117896460	1475169662603	1475169662736	o	79
231887	2482166	We have been working on clay for four weeks.	We have been working with clay for four weeks	117896569	1475169662931	1475169663009	r	82
231887	2482166	We have been working on clay for four weeks.	We have been working with clay for four weeks	117896572	1475169663316	1475169663431	k	75
231887	2482166	We have been working on clay for four weeks.	We have been working with clay for four weeks	117896575	1475169663551	1475169663648	i	73
231887	2482166	We have been working on clay for four weeks.	We have been working with clay for four weeks	117896579	1475169663786	1475169663976	n	78
231887	2482166	We have been working on clay for four weeks.	We have been working with clay for four weeks	117896584	1475169664152	1475169664248	g	71
231887	2482166	We have been working on clay for four weeks.	We have been working with clay for four weeks	117896666	1475169664331	1475169664484	 	32
231887	2482166	We have been working on clay for four weeks.	We have been working with clay for four weeks	117896671	1475169664865	1475169664961	w	87
231887	2482166	We have been working on clay for four weeks.	We have been working with clay for four weeks	117896675	1475169665044	1475169665159	i	73
231887	2482166	We have been working on clay for four weeks.	We have been working with clay for four weeks	117896680	1475169665391	1475169665488	t	84
231887	2482166	We have been working on clay for four weeks.	We have been working with clay for four weeks	117896682	1475169665533	1475169665686	h	72
231887	2482166	We have been working on clay for four weeks.	We have been working with clay for four weeks	117896755	1475169665713	1475169665865	 	32
231887	2482166	We have been working on clay for four weeks.	We have been working with clay for four weeks	117896760	1475169666097	1475169666231	c	67
231887	2482166	We have been working on clay for four weeks.	We have been working with clay for four weeks	117896762	1475169666314	1475169666448	l	76
231887	2482166	We have been working on clay for four weeks.	We have been working with clay for four weeks	117896764	1475169666534	1475169666645	a	65
231887	2482166	We have been working on clay for four weeks.	We have been working with clay for four weeks	117896765	1475169666952	1475169667067	y	89
231887	2482166	We have been working on clay for four weeks.	We have been working with clay for four weeks	117896893	1475169667131	1475169667265	 	32
231887	2482166	We have been working on clay for four weeks.	We have been working with clay for four weeks	117896896	1475169667646	1475169667761	f	70
231887	2482166	We have been working on clay for four weeks.	We have been working with clay for four weeks	117896905	1475169667863	1475169667997	o	79
231887	2482166	We have been working on clay for four weeks.	We have been working with clay for four weeks	117896909	1475169668416	1475169668530	r	82
231887	2482166	We have been working on clay for four weeks.	We have been working with clay for four weeks	117896917	1475169668968	1475169669158	 	32
231887	2482166	We have been working on clay for four weeks.	We have been working with clay for four weeks	117897145	1475169670874	1475169670989	f	70
231887	2482166	We have been working on clay for four weeks.	We have been working with clay for four weeks	117897151	1475169671128	1475169671299	o	79
231887	2482166	We have been working on clay for four weeks.	We have been working with clay for four weeks	117897158	1475169671662	1475169671833	u	85
231887	2482166	We have been working on clay for four weeks.	We have been working with clay for four weeks	117897166	1475169672046	1475169672124	r	82
231887	2482166	We have been working on clay for four weeks.	We have been working with clay for four weeks	117897175	1475169672207	1475169672378	 	32
231887	2482166	We have been working on clay for four weeks.	We have been working with clay for four weeks	117897242	1475169672554	1475169672651	w	87
231887	2482166	We have been working on clay for four weeks.	We have been working with clay for four weeks	117897246	1475169672808	1475169672886	e	69
231887	2482166	We have been working on clay for four weeks.	We have been working with clay for four weeks	117897250	1475169672987	1475169673046	e	69
231887	2482166	We have been working on clay for four weeks.	We have been working with clay for four weeks	117897255	1475169673297	1475169673394	k	75
231887	2482166	We have been working on clay for four weeks.	We have been working with clay for four weeks	117897259	1475169673551	1475169673648	s	83
231887	2482207	This track stands alone as king of the circuits.	This track stands alone as king of the circutes	117897992	1475169680127	1475169680305	CAPS_LOCK	20
231887	2482207	This track stands alone as king of the circuits.	This track stands alone as king of the circutes	117897999	1475169681461	1475169681564	CAPS_LOCK	20
231887	2482207	This track stands alone as king of the circuits.	This track stands alone as king of the circutes	117898009	1475169681796	1475169682222	SHIFT	16
231887	2482207	This track stands alone as king of the circuits.	This track stands alone as king of the circutes	117898005	1475169682030	1475169682145	T	84
231887	2482207	This track stands alone as king of the circuits.	This track stands alone as king of the circutes	117898011	1475169682323	1475169682401	h	72
231887	2482207	This track stands alone as king of the circuits.	This track stands alone as king of the circutes	117898015	1475169682614	1475169682749	i	73
231887	2482207	This track stands alone as king of the circuits.	This track stands alone as king of the circutes	117898018	1475169682944	1475169683059	s	83
231887	2482207	This track stands alone as king of the circuits.	This track stands alone as king of the circutes	117898021	1475169683515	1475169683724	 	32
231887	2482207	This track stands alone as king of the circuits.	This track stands alone as king of the circutes	117898261	1475169684388	1475169684522	t	84
231887	2482207	This track stands alone as king of the circuits.	This track stands alone as king of the circutes	117898264	1475169684642	1475169684757	r	82
231887	2482207	This track stands alone as king of the circuits.	This track stands alone as king of the circutes	117898266	1475169686474	1475169686533	a	65
231887	2482207	This track stands alone as king of the circuits.	This track stands alone as king of the circutes	117898269	1475169686765	1475169686843	c	67
231887	2482207	This track stands alone as king of the circuits.	This track stands alone as king of the circutes	117898274	1475169687037	1475169687190	k	75
231887	2482207	This track stands alone as king of the circuits.	This track stands alone as king of the circutes	117898955	1475169687329	1475169687444	 	32
231887	2482207	This track stands alone as king of the circuits.	This track stands alone as king of the circutes	117898959	1475169697037	1475169697134	s	83
231887	2482207	This track stands alone as king of the circuits.	This track stands alone as king of the circutes	117898962	1475169697328	1475169697425	t	84
231887	2482207	This track stands alone as king of the circuits.	This track stands alone as king of the circutes	117898965	1475169697526	1475169697604	a	65
231887	2482207	This track stands alone as king of the circuits.	This track stands alone as king of the circutes	117898970	1475169697668	1475169697728	t	84
231887	2482207	This track stands alone as king of the circuits.	This track stands alone as king of the circutes	117899111	1475169698146	1475169698280	BKSP	8
231887	2482207	This track stands alone as king of the circuits.	This track stands alone as king of the circutes	117899115	1475169698549	1475169698664	n	78
231887	2482207	This track stands alone as king of the circuits.	This track stands alone as king of the circutes	117899120	1475169698934	1475169699011	d	68
231887	2482207	This track stands alone as king of the circuits.	This track stands alone as king of the circutes	117899125	1475169699206	1475169699303	s	83
231887	2482207	This track stands alone as king of the circuits.	This track stands alone as king of the circutes	117899129	1475169699423	1475169699575	 	32
231887	2482207	This track stands alone as king of the circuits.	This track stands alone as king of the circutes	117899135	1475169699863	1475169700034	a	65
231887	2482207	This track stands alone as king of the circuits.	This track stands alone as king of the circutes	117899194	1475169700061	1475169700158	l	76
231887	2482207	This track stands alone as king of the circuits.	This track stands alone as king of the circutes	117899197	1475169700259	1475169700337	o	79
231887	2482207	This track stands alone as king of the circuits.	This track stands alone as king of the circutes	117899201	1475169700476	1475169700628	n	78
231887	2482207	This track stands alone as king of the circuits.	This track stands alone as king of the circutes	117899205	1475169700748	1475169700845	e	69
231887	2482207	This track stands alone as king of the circuits.	This track stands alone as king of the circutes	117899210	1475169700928	1475169701080	 	32
231887	2482207	This track stands alone as king of the circuits.	This track stands alone as king of the circutes	117899394	1475169701669	1475169701802	a	65
231887	2482207	This track stands alone as king of the circuits.	This track stands alone as king of the circutes	117899395	1475169702579	1475169702712	s	83
231887	2482207	This track stands alone as king of the circuits.	This track stands alone as king of the circutes	117899396	1475169702814	1475169702948	 	32
231887	2482207	This track stands alone as king of the circuits.	This track stands alone as king of the circutes	117899399	1475169703668	1475169703764	k	75
231887	2482207	This track stands alone as king of the circuits.	This track stands alone as king of the circutes	117899400	1475169703921	1475169704036	i	73
231887	2482207	This track stands alone as king of the circuits.	This track stands alone as king of the circutes	117899512	1475169704194	1475169704346	n	78
231887	2482207	This track stands alone as king of the circuits.	This track stands alone as king of the circutes	117899516	1475169704541	1475169704674	g	71
231887	2482207	This track stands alone as king of the circuits.	This track stands alone as king of the circutes	117899521	1475169705564	1475169705754	 	32
231887	2482207	This track stands alone as king of the circuits.	This track stands alone as king of the circutes	117899525	1475169706116	1475169706288	o	79
231887	2482207	This track stands alone as king of the circuits.	This track stands alone as king of the circutes	117899529	1475169706426	1475169706523	f	70
231887	2482207	This track stands alone as king of the circuits.	This track stands alone as king of the circutes	117899582	1475169706568	1475169706785	 	32
231887	2482207	This track stands alone as king of the circuits.	This track stands alone as king of the circutes	117899586	1475169706787	1475169706900	t	84
231887	2482207	This track stands alone as king of the circuits.	This track stands alone as king of the circutes	117899594	1475169706964	1475169707136	h	72
231887	2482207	This track stands alone as king of the circuits.	This track stands alone as king of the circutes	117899599	1475169707200	1475169707315	e	69
231887	2482207	This track stands alone as king of the circuits.	This track stands alone as king of the circutes	117899605	1475169707398	1475169707569	 	32
231887	2482207	This track stands alone as king of the circuits.	This track stands alone as king of the circutes	117899802	1475169709060	1475169709194	c	67
231887	2482207	This track stands alone as king of the circuits.	This track stands alone as king of the circutes	117899806	1475169709332	1475169709485	i	73
231887	2482207	This track stands alone as king of the circuits.	This track stands alone as king of the circutes	117899811	1475169709791	1475169709869	r	82
231887	2482207	This track stands alone as king of the circuits.	This track stands alone as king of the circutes	117899818	1475169710157	1475169710272	c	67
231887	2482207	This track stands alone as king of the circuits.	This track stands alone as king of the circutes	117899823	1475169710411	1475169710545	u	85
231887	2482207	This track stands alone as king of the circuits.	This track stands alone as king of the circutes	117899870	1475169710702	1475169710818	t	84
231887	2482207	This track stands alone as king of the circuits.	This track stands alone as king of the circutes	117899872	1475169710938	1475169711016	e	69
231887	2482207	This track stands alone as king of the circuits.	This track stands alone as king of the circutes	117899874	1475169711154	1475169711269	s	83
231887	2482263	He has recovered from his ankle injury.	He has recovered from his ankle injury.	117900240	1475169716452	1475169716856	SHIFT	16
231887	2482263	He has recovered from his ankle injury.	He has recovered from his ankle injury.	117900245	1475169716741	1475169716896	H	72
231887	2482263	He has recovered from his ankle injury.	He has recovered from his ankle injury.	117900251	1475169716997	1475169717094	e	69
231887	2482263	He has recovered from his ankle injury.	He has recovered from his ankle injury.	117900254	1475169717195	1475169717348	 	32
231887	2482263	He has recovered from his ankle injury.	He has recovered from his ankle injury.	117900259	1475169717748	1475169717826	h	72
231887	2482263	He has recovered from his ankle injury.	He has recovered from his ankle injury.	117900262	1475169717890	1475169717988	a	65
231887	2482263	He has recovered from his ankle injury.	He has recovered from his ankle injury.	117900284	1475169718126	1475169718203	s	83
231887	2482263	He has recovered from his ankle injury.	He has recovered from his ankle injury.	117900287	1475169718286	1475169718420	 	32
231887	2482263	He has recovered from his ankle injury.	He has recovered from his ankle injury.	117900289	1475169718521	1475169718599	r	82
231887	2482263	He has recovered from his ankle injury.	He has recovered from his ankle injury.	117900292	1475169718719	1475169718797	e	69
231887	2482263	He has recovered from his ankle injury.	He has recovered from his ankle injury.	117900295	1475169719066	1475169719144	c	67
231887	2482263	He has recovered from his ankle injury.	He has recovered from his ankle injury.	117900397	1475169719264	1475169719380	o	79
231887	2482263	He has recovered from his ankle injury.	He has recovered from his ankle injury.	117900402	1475169720005	1475169720102	v	86
231887	2482263	He has recovered from his ankle injury.	He has recovered from his ankle injury.	117900407	1475169720203	1475169720300	e	69
231887	2482263	He has recovered from his ankle injury.	He has recovered from his ankle injury.	117900413	1475169720420	1475169720517	r	82
231887	2482263	He has recovered from his ankle injury.	He has recovered from his ankle injury.	117900417	1475169720674	1475169720752	e	69
231887	2482263	He has recovered from his ankle injury.	He has recovered from his ankle injury.	117900469	1475169720872	1475169720968	d	68
231887	2482263	He has recovered from his ankle injury.	He has recovered from his ankle injury.	117900471	1475169721088	1475169721241	 	32
231887	2482263	He has recovered from his ankle injury.	He has recovered from his ankle injury.	117900473	1475169721287	1475169721406	f	70
231887	2482263	He has recovered from his ankle injury.	He has recovered from his ankle injury.	117900475	1475169721522	1475169721618	r	82
231887	2482263	He has recovered from his ankle injury.	He has recovered from his ankle injury.	117900476	1475169721757	1475169721853	o	79
231887	2482263	He has recovered from his ankle injury.	He has recovered from his ankle injury.	117900527	1475169722011	1475169722126	m	77
231887	2482263	He has recovered from his ankle injury.	He has recovered from his ankle injury.	117900530	1475169722190	1475169722343	 	32
231887	2482263	He has recovered from his ankle injury.	He has recovered from his ankle injury.	117900535	1475169722482	1475169722578	h	72
231887	2482263	He has recovered from his ankle injury.	He has recovered from his ankle injury.	117900540	1475169722717	1475169722851	i	73
231887	2482263	He has recovered from his ankle injury.	He has recovered from his ankle injury.	117900545	1475169723251	1475169723310	s	83
231887	2482263	He has recovered from his ankle injury.	He has recovered from his ankle injury.	117900662	1475169723411	1475169723583	 	32
231887	2482263	He has recovered from his ankle injury.	He has recovered from his ankle injury.	117900665	1475169724528	1475169724625	a	65
231887	2482263	He has recovered from his ankle injury.	He has recovered from his ankle injury.	117900669	1475169724726	1475169724842	n	78
231887	2482263	He has recovered from his ankle injury.	He has recovered from his ankle injury.	117900672	1475169725073	1475169725151	k	75
231887	2482263	He has recovered from his ankle injury.	He has recovered from his ankle injury.	117900675	1475169725271	1475169725387	l	76
231887	2482263	He has recovered from his ankle injury.	He has recovered from his ankle injury.	117900752	1475169725470	1475169725566	e	69
231887	2482263	He has recovered from his ankle injury.	He has recovered from his ankle injury.	117900754	1475169725630	1475169725801	 	32
231887	2482263	He has recovered from his ankle injury.	He has recovered from his ankle injury.	117900760	1475169726277	1475169726373	i	73
231887	2482263	He has recovered from his ankle injury.	He has recovered from his ankle injury.	117900767	1475169726512	1475169726646	n	78
231887	2482263	He has recovered from his ankle injury.	He has recovered from his ankle injury.	117900774	1475169727084	1475169727180	j	74
231887	2482263	He has recovered from his ankle injury.	He has recovered from his ankle injury.	117900900	1475169727300	1475169727416	u	85
231887	2482263	He has recovered from his ankle injury.	He has recovered from his ankle injury.	117900905	1475169727666	1475169727781	r	82
231887	2482263	He has recovered from his ankle injury.	He has recovered from his ankle injury.	117900910	1475169728051	1475169728147	y	89
231887	2482263	He has recovered from his ankle injury.	He has recovered from his ankle injury.	117900913	1475169728510	1475169728588	.	190
231887	2482287	Sanaa appeared to be a ghost town with many shops closed.	Sanaa appeared to be a ghost town with may shops closed	117901564	1475169737249	1475169737655	SHIFT	16
231887	2482287	Sanaa appeared to be a ghost town with many shops closed.	Sanaa appeared to be a ghost town with may shops closed	117901563	1475169737482	1475169737635	S	83
231887	2482287	Sanaa appeared to be a ghost town with many shops closed.	Sanaa appeared to be a ghost town with may shops closed	117901566	1475169737757	1475169737854	a	65
231887	2482287	Sanaa appeared to be a ghost town with many shops closed.	Sanaa appeared to be a ghost town with may shops closed	117901569	1475169738123	1475169738257	n	78
231887	2482287	Sanaa appeared to be a ghost town with many shops closed.	Sanaa appeared to be a ghost town with may shops closed	117901572	1475169738358	1475169738417	a	65
231887	2482287	Sanaa appeared to be a ghost town with many shops closed.	Sanaa appeared to be a ghost town with may shops closed	117901575	1475169738537	1475169738615	a	65
231887	2482287	Sanaa appeared to be a ghost town with many shops closed.	Sanaa appeared to be a ghost town with may shops closed	117901678	1475169738829	1475169739000	 	32
231887	2482287	Sanaa appeared to be a ghost town with many shops closed.	Sanaa appeared to be a ghost town with may shops closed	117901680	1475169739307	1475169739403	a	65
231887	2482287	Sanaa appeared to be a ghost town with many shops closed.	Sanaa appeared to be a ghost town with may shops closed	117901685	1475169739672	1475169739750	p	80
231887	2482287	Sanaa appeared to be a ghost town with many shops closed.	Sanaa appeared to be a ghost town with may shops closed	117901689	1475169739852	1475169739929	p	80
231887	2482287	Sanaa appeared to be a ghost town with many shops closed.	Sanaa appeared to be a ghost town with may shops closed	117901694	1475169740536	1475169740633	e	69
231887	2482287	Sanaa appeared to be a ghost town with many shops closed.	Sanaa appeared to be a ghost town with may shops closed	117901833	1475169741239	1475169741317	a	65
231887	2482287	Sanaa appeared to be a ghost town with many shops closed.	Sanaa appeared to be a ghost town with may shops closed	117901834	1475169741549	1475169741646	r	82
231887	2482287	Sanaa appeared to be a ghost town with many shops closed.	Sanaa appeared to be a ghost town with may shops closed	117901836	1475169742252	1475169742330	e	69
231887	2482287	Sanaa appeared to be a ghost town with many shops closed.	Sanaa appeared to be a ghost town with may shops closed	117901838	1475169742469	1475169742547	d	68
231887	2482287	Sanaa appeared to be a ghost town with many shops closed.	Sanaa appeared to be a ghost town with may shops closed	117901843	1475169742685	1475169742838	 	32
231887	2482287	Sanaa appeared to be a ghost town with many shops closed.	Sanaa appeared to be a ghost town with may shops closed	117901932	1475169743014	1475169743111	t	84
231887	2482287	Sanaa appeared to be a ghost town with many shops closed.	Sanaa appeared to be a ghost town with may shops closed	117901935	1475169743212	1475169743365	o	79
231887	2482287	Sanaa appeared to be a ghost town with many shops closed.	Sanaa appeared to be a ghost town with may shops closed	117901941	1475169743391	1475169743544	 	32
231887	2482287	Sanaa appeared to be a ghost town with many shops closed.	Sanaa appeared to be a ghost town with may shops closed	117901946	1475169743850	1475169744040	b	66
231887	2482287	Sanaa appeared to be a ghost town with many shops closed.	Sanaa appeared to be a ghost town with may shops closed	117901949	1475169744067	1475169744163	e	69
231887	2482287	Sanaa appeared to be a ghost town with many shops closed.	Sanaa appeared to be a ghost town with may shops closed	117902077	1475169744377	1475169744772	 	32
231887	2482287	Sanaa appeared to be a ghost town with many shops closed.	Sanaa appeared to be a ghost town with may shops closed	117902080	1475169745644	1475169745815	a	65
231887	2482287	Sanaa appeared to be a ghost town with many shops closed.	Sanaa appeared to be a ghost town with may shops closed	117902086	1475169745880	1475169746069	 	32
231887	2482287	Sanaa appeared to be a ghost town with many shops closed.	Sanaa appeared to be a ghost town with may shops closed	117902092	1475169746339	1475169746454	g	71
231887	2482287	Sanaa appeared to be a ghost town with many shops closed.	Sanaa appeared to be a ghost town with may shops closed	117902096	1475169746537	1475169746633	h	72
231887	2482287	Sanaa appeared to be a ghost town with many shops closed.	Sanaa appeared to be a ghost town with may shops closed	117902214	1475169746977	1475169747092	o	79
231887	2482287	Sanaa appeared to be a ghost town with many shops closed.	Sanaa appeared to be a ghost town with may shops closed	117902219	1475169747361	1475169747458	s	83
231887	2482287	Sanaa appeared to be a ghost town with many shops closed.	Sanaa appeared to be a ghost town with may shops closed	117902594	1475169747560	1475169753733	y	89
231887	2482287	Sanaa appeared to be a ghost town with many shops closed.	Sanaa appeared to be a ghost town with may shops closed	117902226	1475169748093	1475169748283	BKSP	8
231887	2482287	Sanaa appeared to be a ghost town with many shops closed.	Sanaa appeared to be a ghost town with may shops closed	117902234	1475169748347	1475169748444	t	84
231887	2482287	Sanaa appeared to be a ghost town with many shops closed.	Sanaa appeared to be a ghost town with may shops closed	117902241	1475169748545	1475169748660	 	32
231887	2482287	Sanaa appeared to be a ghost town with many shops closed.	Sanaa appeared to be a ghost town with may shops closed	117902374	1475169749474	1475169749571	t	84
231887	2482287	Sanaa appeared to be a ghost town with many shops closed.	Sanaa appeared to be a ghost town with may shops closed	117902376	1475169749691	1475169749918	o	79
231887	2482287	Sanaa appeared to be a ghost town with many shops closed.	Sanaa appeared to be a ghost town with may shops closed	117902377	1475169750338	1475169750434	w	87
231887	2482287	Sanaa appeared to be a ghost town with many shops closed.	Sanaa appeared to be a ghost town with may shops closed	117902379	1475169750517	1475169750717	n	78
231887	2482287	Sanaa appeared to be a ghost town with many shops closed.	Sanaa appeared to be a ghost town with may shops closed	117902467	1475169750694	1475169750868	 	32
231887	2482287	Sanaa appeared to be a ghost town with many shops closed.	Sanaa appeared to be a ghost town with may shops closed	117902470	1475169750988	1475169751103	w	87
231887	2482287	Sanaa appeared to be a ghost town with many shops closed.	Sanaa appeared to be a ghost town with may shops closed	117902472	1475169751428	1475169751562	i	73
231887	2482287	Sanaa appeared to be a ghost town with many shops closed.	Sanaa appeared to be a ghost town with may shops closed	117902475	1475169751663	1475169751779	t	84
231887	2482287	Sanaa appeared to be a ghost town with many shops closed.	Sanaa appeared to be a ghost town with may shops closed	117902478	1475169751805	1475169751977	h	72
231887	2482287	Sanaa appeared to be a ghost town with many shops closed.	Sanaa appeared to be a ghost town with may shops closed	117902481	1475169752097	1475169752287	 	32
231887	2482287	Sanaa appeared to be a ghost town with many shops closed.	Sanaa appeared to be a ghost town with may shops closed	117902576	1475169752819	1475169752953	m	77
231887	2482287	Sanaa appeared to be a ghost town with many shops closed.	Sanaa appeared to be a ghost town with may shops closed	117902581	1475169753035	1475169753188	a	65
231887	2482287	Sanaa appeared to be a ghost town with many shops closed.	Sanaa appeared to be a ghost town with may shops closed	117902587	1475169753252	1475169753367	n	78
231887	2482287	Sanaa appeared to be a ghost town with many shops closed.	Sanaa appeared to be a ghost town with may shops closed	117902599	1475169753797	1475169753968	 	32
231887	2482287	Sanaa appeared to be a ghost town with many shops closed.	Sanaa appeared to be a ghost town with may shops closed	117902602	1475169754632	1475169754785	s	83
231887	2482287	Sanaa appeared to be a ghost town with many shops closed.	Sanaa appeared to be a ghost town with may shops closed	117902732	1475169754886	1475169755020	h	72
231887	2482287	Sanaa appeared to be a ghost town with many shops closed.	Sanaa appeared to be a ghost town with may shops closed	117902736	1475169755702	1475169755780	o	79
231887	2482287	Sanaa appeared to be a ghost town with many shops closed.	Sanaa appeared to be a ghost town with may shops closed	117902740	1475169755900	1475169756015	p	80
231887	2482287	Sanaa appeared to be a ghost town with many shops closed.	Sanaa appeared to be a ghost town with may shops closed	117902743	1475169756061	1475169756176	s	83
231887	2482287	Sanaa appeared to be a ghost town with many shops closed.	Sanaa appeared to be a ghost town with may shops closed	117902745	1475169756408	1475169756598	 	32
231887	2482287	Sanaa appeared to be a ghost town with many shops closed.	Sanaa appeared to be a ghost town with may shops closed	117902820	1475169756718	1475169756815	c	67
231887	2482287	Sanaa appeared to be a ghost town with many shops closed.	Sanaa appeared to be a ghost town with may shops closed	117902824	1475169757140	1475169757255	l	76
231887	2482287	Sanaa appeared to be a ghost town with many shops closed.	Sanaa appeared to be a ghost town with may shops closed	117902830	1475169757356	1475169757472	o	79
231887	2482287	Sanaa appeared to be a ghost town with many shops closed.	Sanaa appeared to be a ghost town with may shops closed	117902835	1475169757722	1475169757819	s	83
231887	2482287	Sanaa appeared to be a ghost town with many shops closed.	Sanaa appeared to be a ghost town with may shops closed	117902840	1475169757976	1475169758054	e	69
231887	2482287	Sanaa appeared to be a ghost town with many shops closed.	Sanaa appeared to be a ghost town with may shops closed	117902873	1475169758193	1475169758289	d	68
231887	2482324	England star Paul Gascoigne was one of the recipients of the loans.	England star Paul Gascopigne was one of tha recipients of the loans.	117903152	1475169762438	1475169762805	SHIFT	16
231887	2482324	England star Paul Gascoigne was one of the recipients of the loans.	England star Paul Gascopigne was one of tha recipients of the loans.	117903153	1475169762708	1475169762900	E	69
231887	2482324	England star Paul Gascoigne was one of the recipients of the loans.	England star Paul Gascopigne was one of tha recipients of the loans.	117903154	1475169763132	1475169763266	n	78
231887	2482324	England star Paul Gascoigne was one of the recipients of the loans.	England star Paul Gascopigne was one of tha recipients of the loans.	117903156	1475169763424	1475169763502	g	71
231887	2482324	England star Paul Gascoigne was one of the recipients of the loans.	England star Paul Gascopigne was one of tha recipients of the loans.	117903158	1475169764616	1475169764731	l	76
231887	2482324	England star Paul Gascoigne was one of the recipients of the loans.	England star Paul Gascopigne was one of tha recipients of the loans.	117903160	1475169765375	1475169765565	a	65
231887	2482324	England star Paul Gascoigne was one of the recipients of the loans.	England star Paul Gascopigne was one of tha recipients of the loans.	117903279	1475169765985	1475169766118	n	78
231887	2482324	England star Paul Gascoigne was one of the recipients of the loans.	England star Paul Gascopigne was one of tha recipients of the loans.	117903281	1475169766425	1475169766540	d	68
231887	2482324	England star Paul Gascoigne was one of the recipients of the loans.	England star Paul Gascopigne was one of tha recipients of the loans.	117903283	1475169767053	1475169767317	 	32
231887	2482324	England star Paul Gascoigne was one of the recipients of the loans.	England star Paul Gascopigne was one of tha recipients of the loans.	117903285	1475169768565	1475169768665	s	83
231887	2482324	England star Paul Gascoigne was one of the recipients of the loans.	England star Paul Gascopigne was one of tha recipients of the loans.	117903288	1475169768800	1475169768915	t	84
231887	2482324	England star Paul Gascoigne was one of the recipients of the loans.	England star Paul Gascopigne was one of tha recipients of the loans.	117903370	1475169768942	1475169769094	a	65
231887	2482324	England star Paul Gascoigne was one of the recipients of the loans.	England star Paul Gascopigne was one of tha recipients of the loans.	117903376	1475169769159	1475169769292	r	82
231887	2482324	England star Paul Gascoigne was one of the recipients of the loans.	England star Paul Gascopigne was one of tha recipients of the loans.	117903383	1475169769394	1475169769509	 	32
231887	2482324	England star Paul Gascoigne was one of the recipients of the loans.	England star Paul Gascopigne was one of tha recipients of the loans.	117903393	1475169769797	1475169770147	SHIFT	16
231887	2482324	England star Paul Gascoigne was one of the recipients of the loans.	England star Paul Gascopigne was one of tha recipients of the loans.	117903388	1475169769937	1475169770052	P	80
231887	2482324	England star Paul Gascoigne was one of the recipients of the loans.	England star Paul Gascopigne was one of tha recipients of the loans.	117903400	1475169771169	1475169771284	a	65
231887	2482324	England star Paul Gascoigne was one of the recipients of the loans.	England star Paul Gascopigne was one of tha recipients of the loans.	117903561	1475169772305	1475169772364	u	85
231887	2482324	England star Paul Gascoigne was one of the recipients of the loans.	England star Paul Gascopigne was one of tha recipients of the loans.	117903563	1475169772708	1475169772804	l	76
231887	2482324	England star Paul Gascoigne was one of the recipients of the loans.	England star Paul Gascopigne was one of tha recipients of the loans.	117903566	1475169772943	1475169773114	 	32
231887	2482324	England star Paul Gascoigne was one of the recipients of the loans.	England star Paul Gascopigne was one of tha recipients of the loans.	117903568	1475169773271	1475169773733	SHIFT	16
231887	2482324	England star Paul Gascoigne was one of the recipients of the loans.	England star Paul Gascopigne was one of tha recipients of the loans.	117903567	1475169773504	1475169773638	G	71
231887	2482324	England star Paul Gascoigne was one of the recipients of the loans.	England star Paul Gascopigne was one of tha recipients of the loans.	117903571	1475169774736	1475169774814	a	65
231887	2482324	England star Paul Gascoigne was one of the recipients of the loans.	England star Paul Gascopigne was one of tha recipients of the loans.	117903681	1475169774972	1475169775069	s	83
231887	2482324	England star Paul Gascoigne was one of the recipients of the loans.	England star Paul Gascopigne was one of tha recipients of the loans.	117903683	1475169776577	1475169776674	c	67
231887	2482324	England star Paul Gascoigne was one of the recipients of the loans.	England star Paul Gascopigne was one of tha recipients of the loans.	117903686	1475169776887	1475169776947	i	73
231887	2482324	England star Paul Gascoigne was one of the recipients of the loans.	England star Paul Gascopigne was one of tha recipients of the loans.	117903690	1475169777402	1475169777518	BKSP	8
231887	2482324	England star Paul Gascoigne was one of the recipients of the loans.	England star Paul Gascopigne was one of tha recipients of the loans.	117903697	1475169777656	1475169777772	o	79
231887	2482324	England star Paul Gascoigne was one of the recipients of the loans.	England star Paul Gascopigne was one of tha recipients of the loans.	117903702	1475169777892	1475169778026	p	80
231887	2482324	England star Paul Gascoigne was one of the recipients of the loans.	England star Paul Gascopigne was one of tha recipients of the loans.	117903855	1475169778915	1475169779048	i	73
231887	2482324	England star Paul Gascoigne was one of the recipients of the loans.	England star Paul Gascopigne was one of tha recipients of the loans.	117903858	1475169780295	1475169780354	g	71
231887	2482324	England star Paul Gascoigne was one of the recipients of the loans.	England star Paul Gascopigne was one of tha recipients of the loans.	117903860	1475169780679	1475169780794	n	78
231887	2482324	England star Paul Gascoigne was one of the recipients of the loans.	England star Paul Gascopigne was one of tha recipients of the loans.	117903865	1475169780933	1475169781030	e	69
231887	2482324	England star Paul Gascoigne was one of the recipients of the loans.	England star Paul Gascopigne was one of tha recipients of the loans.	117903871	1475169781169	1475169781339	 	32
231887	2482324	England star Paul Gascoigne was one of the recipients of the loans.	England star Paul Gascopigne was one of tha recipients of the loans.	117904015	1475169782285	1475169782400	w	87
231887	2482324	England star Paul Gascoigne was one of the recipients of the loans.	England star Paul Gascopigne was one of tha recipients of the loans.	117904016	1475169782577	1475169782692	a	65
231887	2482324	England star Paul Gascoigne was one of the recipients of the loans.	England star Paul Gascopigne was one of tha recipients of the loans.	117904018	1475169783336	1475169783414	s	83
231887	2482324	England star Paul Gascoigne was one of the recipients of the loans.	England star Paul Gascopigne was one of tha recipients of the loans.	117904022	1475169783478	1475169783631	 	32
231887	2482324	England star Paul Gascoigne was one of the recipients of the loans.	England star Paul Gascopigne was one of tha recipients of the loans.	117904026	1475169783807	1475169783922	o	79
231887	2482324	England star Paul Gascoigne was one of the recipients of the loans.	England star Paul Gascopigne was one of tha recipients of the loans.	117904174	1475169784079	1475169784232	n	78
231887	2482324	England star Paul Gascoigne was one of the recipients of the loans.	England star Paul Gascopigne was one of tha recipients of the loans.	117904176	1475169784296	1475169784411	e	69
231887	2482324	England star Paul Gascoigne was one of the recipients of the loans.	England star Paul Gascopigne was one of tha recipients of the loans.	117904178	1475169784457	1475169784628	 	32
231887	2482324	England star Paul Gascoigne was one of the recipients of the loans.	England star Paul Gascopigne was one of tha recipients of the loans.	117904179	1475169786138	1475169786253	o	79
231887	2482324	England star Paul Gascoigne was one of the recipients of the loans.	England star Paul Gascopigne was one of tha recipients of the loans.	117904183	1475169786392	1475169786507	f	70
231887	2482324	England star Paul Gascoigne was one of the recipients of the loans.	England star Paul Gascopigne was one of tha recipients of the loans.	117904353	1475169786627	1475169786798	 	32
231887	2482324	England star Paul Gascoigne was one of the recipients of the loans.	England star Paul Gascopigne was one of tha recipients of the loans.	117904355	1475169787932	1475169788066	t	84
231887	2482324	England star Paul Gascoigne was one of the recipients of the loans.	England star Paul Gascopigne was one of tha recipients of the loans.	117904359	1475169788130	1475169788320	h	72
231887	2482324	England star Paul Gascoigne was one of the recipients of the loans.	England star Paul Gascopigne was one of tha recipients of the loans.	117904364	1475169789059	1475169789193	a	65
231887	2482324	England star Paul Gascoigne was one of the recipients of the loans.	England star Paul Gascopigne was one of tha recipients of the loans.	117904369	1475169789294	1475169789465	 	32
231887	2482324	England star Paul Gascoigne was one of the recipients of the loans.	England star Paul Gascopigne was one of tha recipients of the loans.	117904488	1475169789585	1475169789682	r	82
231887	2482324	England star Paul Gascoigne was one of the recipients of the loans.	England star Paul Gascopigne was one of tha recipients of the loans.	117904491	1475169789821	1475169789917	e	69
231887	2482324	England star Paul Gascoigne was one of the recipients of the loans.	England star Paul Gascopigne was one of tha recipients of the loans.	117904495	1475169790112	1475169790190	c	67
231887	2482324	England star Paul Gascoigne was one of the recipients of the loans.	England star Paul Gascopigne was one of tha recipients of the loans.	117904501	1475169791455	1475169791533	i	73
231887	2482324	England star Paul Gascoigne was one of the recipients of the loans.	England star Paul Gascopigne was one of tha recipients of the loans.	117904508	1475169791708	1475169791824	p	80
231887	2482324	England star Paul Gascoigne was one of the recipients of the loans.	England star Paul Gascopigne was one of tha recipients of the loans.	117904675	1475169793747	1475169793806	i	73
231887	2482324	England star Paul Gascoigne was one of the recipients of the loans.	England star Paul Gascopigne was one of tha recipients of the loans.	117904677	1475169794019	1475169794116	e	69
231887	2482324	England star Paul Gascoigne was one of the recipients of the loans.	England star Paul Gascopigne was one of tha recipients of the loans.	117904681	1475169794366	1475169794463	n	78
231887	2482324	England star Paul Gascoigne was one of the recipients of the loans.	England star Paul Gascopigne was one of tha recipients of the loans.	117904683	1475169794658	1475169794754	t	84
231887	2482324	England star Paul Gascoigne was one of the recipients of the loans.	England star Paul Gascopigne was one of tha recipients of the loans.	117904689	1475169795080	1475169795213	s	83
231887	2482324	England star Paul Gascoigne was one of the recipients of the loans.	England star Paul Gascopigne was one of tha recipients of the loans.	117905081	1475169799092	1475169799263	 	32
231887	2482324	England star Paul Gascoigne was one of the recipients of the loans.	England star Paul Gascopigne was one of tha recipients of the loans.	117905084	1475169800303	1475169800418	o	79
231887	2482324	England star Paul Gascoigne was one of the recipients of the loans.	England star Paul Gascopigne was one of tha recipients of the loans.	117905088	1475169800557	1475169800654	f	70
231887	2482324	England star Paul Gascoigne was one of the recipients of the loans.	England star Paul Gascopigne was one of tha recipients of the loans.	117905094	1475169800680	1475169800852	 	32
231887	2482324	England star Paul Gascoigne was one of the recipients of the loans.	England star Paul Gascopigne was one of tha recipients of the loans.	117905098	1475169800878	1475169800956	t	84
231887	2482324	England star Paul Gascoigne was one of the recipients of the loans.	England star Paul Gascopigne was one of tha recipients of the loans.	117905169	1475169801095	1475169801210	h	72
231887	2482324	England star Paul Gascoigne was one of the recipients of the loans.	England star Paul Gascopigne was one of tha recipients of the loans.	117905174	1475169801293	1475169801391	e	69
231887	2482324	England star Paul Gascoigne was one of the recipients of the loans.	England star Paul Gascopigne was one of tha recipients of the loans.	117905180	1475169801454	1475169801588	 	32
231887	2482324	England star Paul Gascoigne was one of the recipients of the loans.	England star Paul Gascopigne was one of tha recipients of the loans.	117905184	1475169801857	1475169801954	l	76
231887	2482324	England star Paul Gascoigne was one of the recipients of the loans.	England star Paul Gascopigne was one of tha recipients of the loans.	117905188	1475169802074	1475169802152	o	79
231887	2482324	England star Paul Gascoigne was one of the recipients of the loans.	England star Paul Gascopigne was one of tha recipients of the loans.	117905278	1475169802328	1475169802424	a	65
231887	2482324	England star Paul Gascoigne was one of the recipients of the loans.	England star Paul Gascopigne was one of tha recipients of the loans.	117905286	1475169802544	1475169802622	n	78
231887	2482324	England star Paul Gascoigne was one of the recipients of the loans.	England star Paul Gascopigne was one of tha recipients of the loans.	117905292	1475169802854	1475169802932	s	83
231887	2482324	England star Paul Gascoigne was one of the recipients of the loans.	England star Paul Gascopigne was one of tha recipients of the loans.	117905301	1475169803239	1475169803279	.	190
231887	2482382	Andy Fastow will be on a leave of absence from the company.	Andy Fastow will be o a leave of absence from the company.	117907924	1475169843211	1475169843559	SHIFT	16
231887	2482382	Andy Fastow will be on a leave of absence from the company.	Andy Fastow will be o a leave of absence from the company.	117907926	1475169843425	1475169843580	A	65
231887	2482382	Andy Fastow will be on a leave of absence from the company.	Andy Fastow will be o a leave of absence from the company.	117907928	1475169843607	1475169843760	n	78
231887	2482382	Andy Fastow will be on a leave of absence from the company.	Andy Fastow will be o a leave of absence from the company.	117907930	1475169844367	1475169844463	d	68
231887	2482382	Andy Fastow will be on a leave of absence from the company.	Andy Fastow will be o a leave of absence from the company.	117907933	1475169844583	1475169844755	y	89
231887	2482382	Andy Fastow will be on a leave of absence from the company.	Andy Fastow will be o a leave of absence from the company.	117907936	1475169844838	1475169845046	 	32
231887	2482382	Andy Fastow will be on a leave of absence from the company.	Andy Fastow will be o a leave of absence from the company.	117908052	1475169845597	1475169846207	SHIFT	16
231887	2482382	Andy Fastow will be on a leave of absence from the company.	Andy Fastow will be o a leave of absence from the company.	117908056	1475169846092	1475169846211	F	70
231887	2482382	Andy Fastow will be on a leave of absence from the company.	Andy Fastow will be o a leave of absence from the company.	117908061	1475169846310	1475169846426	a	65
231887	2482382	Andy Fastow will be on a leave of absence from the company.	Andy Fastow will be o a leave of absence from the company.	117908063	1475169846546	1475169846624	s	83
231887	2482382	Andy Fastow will be on a leave of absence from the company.	Andy Fastow will be o a leave of absence from the company.	117908067	1475169847212	1475169847308	t	84
231887	2482382	Andy Fastow will be on a leave of absence from the company.	Andy Fastow will be o a leave of absence from the company.	117908069	1475169847409	1475169847562	o	79
231887	2482382	Andy Fastow will be on a leave of absence from the company.	Andy Fastow will be o a leave of absence from the company.	117908171	1475169847887	1475169848040	w	87
231887	2482382	Andy Fastow will be on a leave of absence from the company.	Andy Fastow will be o a leave of absence from the company.	117908176	1475169848179	1475169848368	 	32
231887	2482382	Andy Fastow will be on a leave of absence from the company.	Andy Fastow will be o a leave of absence from the company.	117908178	1475169848882	1475169848978	w	87
231887	2482382	Andy Fastow will be on a leave of absence from the company.	Andy Fastow will be o a leave of absence from the company.	117908181	1475169849136	1475169849214	i	73
231887	2482382	Andy Fastow will be on a leave of absence from the company.	Andy Fastow will be o a leave of absence from the company.	117908184	1475169849558	1475169849598	l	76
231887	2482382	Andy Fastow will be on a leave of absence from the company.	Andy Fastow will be o a leave of absence from the company.	117908297	1475169849719	1475169849782	l	76
231887	2482382	Andy Fastow will be on a leave of absence from the company.	Andy Fastow will be o a leave of absence from the company.	117908303	1475169850159	1475169850330	 	32
231887	2482382	Andy Fastow will be on a leave of absence from the company.	Andy Fastow will be o a leave of absence from the company.	117908308	1475169850919	1475169851090	b	66
231887	2482382	Andy Fastow will be on a leave of absence from the company.	Andy Fastow will be o a leave of absence from the company.	117908314	1475169851191	1475169851269	e	69
231887	2482382	Andy Fastow will be on a leave of absence from the company.	Andy Fastow will be o a leave of absence from the company.	117908323	1475169851333	1475169851486	 	32
231887	2482382	Andy Fastow will be on a leave of absence from the company.	Andy Fastow will be o a leave of absence from the company.	117908479	1475169851662	1475169851815	o	79
231887	2482382	Andy Fastow will be on a leave of absence from the company.	Andy Fastow will be o a leave of absence from the company.	117908482	1475169852151	1475169852379	 	32
231887	2482382	Andy Fastow will be on a leave of absence from the company.	Andy Fastow will be o a leave of absence from the company.	117908487	1475169852930	1475169853064	a	65
231887	2482382	Andy Fastow will be on a leave of absence from the company.	Andy Fastow will be o a leave of absence from the company.	117908491	1475169853109	1475169853280	 	32
231887	2482382	Andy Fastow will be on a leave of absence from the company.	Andy Fastow will be o a leave of absence from the company.	117908493	1475169853719	1475169853815	l	76
231887	2482382	Andy Fastow will be on a leave of absence from the company.	Andy Fastow will be o a leave of absence from the company.	117908552	1475169853954	1475169854050	e	69
231887	2482382	Andy Fastow will be on a leave of absence from the company.	Andy Fastow will be o a leave of absence from the company.	117908554	1475169854208	1475169854323	a	65
231887	2482382	Andy Fastow will be on a leave of absence from the company.	Andy Fastow will be o a leave of absence from the company.	117908556	1475169854499	1475169854633	v	86
231887	2482382	Andy Fastow will be on a leave of absence from the company.	Andy Fastow will be o a leave of absence from the company.	117908562	1475169854734	1475169854868	e	69
231887	2482382	Andy Fastow will be on a leave of absence from the company.	Andy Fastow will be o a leave of absence from the company.	117908568	1475169854951	1475169855141	 	32
231887	2482382	Andy Fastow will be on a leave of absence from the company.	Andy Fastow will be o a leave of absence from the company.	117908883	1475169855767	1475169855939	o	79
231887	2482382	Andy Fastow will be on a leave of absence from the company.	Andy Fastow will be o a leave of absence from the company.	117908886	1475169856058	1475169856155	f	70
231887	2482382	Andy Fastow will be on a leave of absence from the company.	Andy Fastow will be o a leave of absence from the company.	117908889	1475169856219	1475169856316	 	32
231887	2482382	Andy Fastow will be on a leave of absence from the company.	Andy Fastow will be o a leave of absence from the company.	117908893	1475169860928	1475169861024	a	65
231887	2482382	Andy Fastow will be on a leave of absence from the company.	Andy Fastow will be o a leave of absence from the company.	117908898	1475169861331	1475169861521	b	66
231887	2482382	Andy Fastow will be on a leave of absence from the company.	Andy Fastow will be o a leave of absence from the company.	117909121	1475169862806	1475169862958	s	83
231887	2482382	Andy Fastow will be on a leave of absence from the company.	Andy Fastow will be o a leave of absence from the company.	117909123	1475169864487	1475169864583	e	69
231887	2482382	Andy Fastow will be on a leave of absence from the company.	Andy Fastow will be o a leave of absence from the company.	117909128	1475169864722	1475169864837	n	78
231887	2482382	Andy Fastow will be on a leave of absence from the company.	Andy Fastow will be o a leave of absence from the company.	117909132	1475169864976	1475169865091	c	67
231887	2482382	Andy Fastow will be on a leave of absence from the company.	Andy Fastow will be o a leave of absence from the company.	117909137	1475169865230	1475169865345	e	69
231887	2482382	Andy Fastow will be on a leave of absence from the company.	Andy Fastow will be o a leave of absence from the company.	117909287	1475169865764	1475169865898	 	32
231887	2482382	Andy Fastow will be on a leave of absence from the company.	Andy Fastow will be o a leave of absence from the company.	117909290	1475169866260	1475169866357	f	70
231887	2482382	Andy Fastow will be on a leave of absence from the company.	Andy Fastow will be o a leave of absence from the company.	117909295	1475169866477	1475169866592	r	82
231887	2482382	Andy Fastow will be on a leave of absence from the company.	Andy Fastow will be o a leave of absence from the company.	117909299	1475169866712	1475169866846	o	79
231887	2482382	Andy Fastow will be on a leave of absence from the company.	Andy Fastow will be o a leave of absence from the company.	117909306	1475169866966	1475169867119	m	77
231887	2482382	Andy Fastow will be on a leave of absence from the company.	Andy Fastow will be o a leave of absence from the company.	117909439	1475169867220	1475169867392	 	32
231887	2482382	Andy Fastow will be on a leave of absence from the company.	Andy Fastow will be o a leave of absence from the company.	117909442	1475169867792	1475169867907	t	84
231887	2482382	Andy Fastow will be on a leave of absence from the company.	Andy Fastow will be o a leave of absence from the company.	117909448	1475169867953	1475169868124	h	72
231887	2482382	Andy Fastow will be on a leave of absence from the company.	Andy Fastow will be o a leave of absence from the company.	117909455	1475169868807	1475169868922	e	69
231887	2482382	Andy Fastow will be on a leave of absence from the company.	Andy Fastow will be o a leave of absence from the company.	117909461	1475169869004	1475169869176	 	32
231887	2482382	Andy Fastow will be on a leave of absence from the company.	Andy Fastow will be o a leave of absence from the company.	117909550	1475169869352	1475169869486	c	67
231887	2482382	Andy Fastow will be on a leave of absence from the company.	Andy Fastow will be o a leave of absence from the company.	117909554	1475169869643	1475169869721	o	79
231887	2482382	Andy Fastow will be on a leave of absence from the company.	Andy Fastow will be o a leave of absence from the company.	117909560	1475169869878	1475169869994	m	77
231887	2482382	Andy Fastow will be on a leave of absence from the company.	Andy Fastow will be o a leave of absence from the company.	117909565	1475169870263	1475169870405	p	80
231887	2482382	Andy Fastow will be on a leave of absence from the company.	Andy Fastow will be o a leave of absence from the company.	117909569	1475169870407	1475169870539	a	65
231887	2482382	Andy Fastow will be on a leave of absence from the company.	Andy Fastow will be o a leave of absence from the company.	117909697	1475169870622	1475169870718	n	78
231887	2482382	Andy Fastow will be on a leave of absence from the company.	Andy Fastow will be o a leave of absence from the company.	117909700	1475169870988	1475169871065	y	89
231887	2482382	Andy Fastow will be on a leave of absence from the company.	Andy Fastow will be o a leave of absence from the company.	117909705	1475169872236	1475169872314	.	190
231887	2482478	Jets secondary on Sunday.	Jets secondary on Sunday.	117910112	1475169876879	1475169877378	SHIFT	16
231887	2482478	Jets secondary on Sunday.	Jets secondary on Sunday.	117910106	1475169877224	1475169877320	J	74
231887	2482478	Jets secondary on Sunday.	Jets secondary on Sunday.	117910117	1475169877610	1475169877707	e	69
231887	2482478	Jets secondary on Sunday.	Jets secondary on Sunday.	117910122	1475169877939	1475169878092	t	84
231887	2482478	Jets secondary on Sunday.	Jets secondary on Sunday.	117910127	1475169878137	1475169878215	s	83
231887	2482478	Jets secondary on Sunday.	Jets secondary on Sunday.	117910134	1475169878298	1475169878450	 	32
231887	2482478	Jets secondary on Sunday.	Jets secondary on Sunday.	117910251	1475169878813	1475169878910	s	83
231887	2482478	Jets secondary on Sunday.	Jets secondary on Sunday.	117910256	1475169879048	1475169879126	e	69
231887	2482478	Jets secondary on Sunday.	Jets secondary on Sunday.	117910261	1475169879284	1475169879380	c	67
231887	2482478	Jets secondary on Sunday.	Jets secondary on Sunday.	117910265	1475169879519	1475169879616	o	79
231887	2482478	Jets secondary on Sunday.	Jets secondary on Sunday.	117910273	1475169879792	1475169879926	n	78
231887	2482478	Jets secondary on Sunday.	Jets secondary on Sunday.	117910552	1475169880458	1475169880554	d	68
231887	2482478	Jets secondary on Sunday.	Jets secondary on Sunday.	117910555	1475169880712	1475169880883	a	65
231887	2482478	Jets secondary on Sunday.	Jets secondary on Sunday.	117910559	1475169882487	1475169882602	r	82
231887	2482478	Jets secondary on Sunday.	Jets secondary on Sunday.	117910563	1475169882778	1475169882912	y	89
231887	2482478	Jets secondary on Sunday.	Jets secondary on Sunday.	117910566	1475169883481	1475169883653	 	32
231887	2482478	Jets secondary on Sunday.	Jets secondary on Sunday.	117910714	1475169884053	1475169884187	o	79
231887	2482478	Jets secondary on Sunday.	Jets secondary on Sunday.	117910721	1475169884326	1475169884478	n	78
231887	2482478	Jets secondary on Sunday.	Jets secondary on Sunday.	117910732	1475169884542	1475169884695	 	32
231887	2482478	Jets secondary on Sunday.	Jets secondary on Sunday.	117910743	1475169884815	1475169885145	SHIFT	16
231887	2482478	Jets secondary on Sunday.	Jets secondary on Sunday.	117910751	1475169885011	1475169885166	S	83
231887	2482478	Jets secondary on Sunday.	Jets secondary on Sunday.	117910758	1475169885472	1475169885606	u	85
231887	2482478	Jets secondary on Sunday.	Jets secondary on Sunday.	117910856	1475169885745	1475169885878	n	78
231887	2482478	Jets secondary on Sunday.	Jets secondary on Sunday.	117910860	1475169886110	1475169886226	d	68
231887	2482478	Jets secondary on Sunday.	Jets secondary on Sunday.	117910866	1475169886383	1475169886536	a	65
231887	2482478	Jets secondary on Sunday.	Jets secondary on Sunday.	117910873	1475169886712	1475169886809	y	89
231887	2482478	Jets secondary on Sunday.	Jets secondary on Sunday.	117910876	1475169887022	1475169887119	.	190
231887	2482501	There is substantially no difference between us.	There is substantially no difference between us.	117911263	1475169890743	1475169891075	SHIFT	16
231887	2482501	There is substantially no difference between us.	There is substantially no difference between us.	117911258	1475169890920	1475169890998	T	84
231887	2482501	There is substantially no difference between us.	There is substantially no difference between us.	117911268	1475169891102	1475169891255	h	72
231887	2482501	There is substantially no difference between us.	There is substantially no difference between us.	117911271	1475169891300	1475169891397	e	69
231887	2482501	There is substantially no difference between us.	There is substantially no difference between us.	117911274	1475169891535	1475169891613	r	82
231887	2482501	There is substantially no difference between us.	There is substantially no difference between us.	117911276	1475169891752	1475169891805	e	69
231887	2482501	There is substantially no difference between us.	There is substantially no difference between us.	117911429	1475169892750	1475169892921	 	32
231887	2482501	There is substantially no difference between us.	There is substantially no difference between us.	117911434	1475169893284	1475169893436	i	73
231887	2482501	There is substantially no difference between us.	There is substantially no difference between us.	117911440	1475169893668	1475169893746	s	83
231887	2482501	There is substantially no difference between us.	There is substantially no difference between us.	117911450	1475169893848	1475169893982	 	32
231887	2482501	There is substantially no difference between us.	There is substantially no difference between us.	117911457	1475169894158	1475169894236	s	83
231887	2482501	There is substantially no difference between us.	There is substantially no difference between us.	117911669	1475169894374	1475169894508	u	85
231887	2482501	There is substantially no difference between us.	There is substantially no difference between us.	117911673	1475169894852	1475169895005	b	66
231887	2482501	There is substantially no difference between us.	There is substantially no difference between us.	117911677	1475169896327	1475169896460	s	83
231887	2482501	There is substantially no difference between us.	There is substantially no difference between us.	117911683	1475169896580	1475169896658	t	84
231887	2482501	There is substantially no difference between us.	There is substantially no difference between us.	117911690	1475169896760	1475169896857	a	65
231887	2482501	There is substantially no difference between us.	There is substantially no difference between us.	117911975	1475169897051	1475169897148	n	78
231887	2482501	There is substantially no difference between us.	There is substantially no difference between us.	117911979	1475169898413	1475169898509	t	84
231887	2482501	There is substantially no difference between us.	There is substantially no difference between us.	117911984	1475169898536	1475169898614	i	73
231887	2482501	There is substantially no difference between us.	There is substantially no difference between us.	117911988	1475169899014	1475169899148	a	65
231887	2482501	There is substantially no difference between us.	There is substantially no difference between us.	117911994	1475169899736	1475169899795	l	76
231887	2482501	There is substantially no difference between us.	There is substantially no difference between us.	117912136	1475169899897	1475169899975	l	76
231887	2482501	There is substantially no difference between us.	There is substantially no difference between us.	117912139	1475169901353	1475169901449	y	89
231887	2482501	There is substantially no difference between us.	There is substantially no difference between us.	117912142	1475169901513	1475169901666	 	32
231887	2482501	There is substantially no difference between us.	There is substantially no difference between us.	117912147	1475169901767	1475169901882	n	78
231887	2482501	There is substantially no difference between us.	There is substantially no difference between us.	117912150	1475169902114	1475169902230	o	79
231887	2482501	There is substantially no difference between us.	There is substantially no difference between us.	117912217	1475169902294	1475169902446	 	32
231887	2482501	There is substantially no difference between us.	There is substantially no difference between us.	117912218	1475169903016	1475169903113	d	68
231887	2482501	There is substantially no difference between us.	There is substantially no difference between us.	117912219	1475169903233	1475169903348	i	73
231887	2482501	There is substantially no difference between us.	There is substantially no difference between us.	117912221	1475169903505	1475169903583	f	70
231887	2482501	There is substantially no difference between us.	There is substantially no difference between us.	117912223	1475169903685	1475169903763	f	70
231887	2482501	There is substantially no difference between us.	There is substantially no difference between us.	117912330	1475169903976	1475169904054	e	69
231887	2482501	There is substantially no difference between us.	There is substantially no difference between us.	117912333	1475169904230	1475169904308	r	82
231887	2482501	There is substantially no difference between us.	There is substantially no difference between us.	117912337	1475169904503	1475169904581	e	69
231887	2482501	There is substantially no difference between us.	There is substantially no difference between us.	117912338	1475169904757	1475169904872	n	78
231887	2482501	There is substantially no difference between us.	There is substantially no difference between us.	117912340	1475169905123	1475169905201	c	67
231887	2482501	There is substantially no difference between us.	There is substantially no difference between us.	117912463	1475169905377	1475169905455	e	69
231887	2482501	There is substantially no difference between us.	There is substantially no difference between us.	117912467	1475169906193	1475169906346	 	32
231887	2482501	There is substantially no difference between us.	There is substantially no difference between us.	117912473	1475169906639	1475169906786	b	66
231887	2482501	There is substantially no difference between us.	There is substantially no difference between us.	117912478	1475169906850	1475169906965	e	69
231887	2482501	There is substantially no difference between us.	There is substantially no difference between us.	117912483	1475169907179	1475169907257	t	84
231887	2482501	There is substantially no difference between us.	There is substantially no difference between us.	117912590	1475169907638	1475169907734	w	87
231887	2482501	There is substantially no difference between us.	There is substantially no difference between us.	117912597	1475169907985	1475169908044	e	69
231887	2482501	There is substantially no difference between us.	There is substantially no difference between us.	117912605	1475169908164	1475169908224	e	69
231887	2482501	There is substantially no difference between us.	There is substantially no difference between us.	117912611	1475169908437	1475169908552	n	78
231887	2482501	There is substantially no difference between us.	There is substantially no difference between us.	117912615	1475169908728	1475169908881	 	32
231887	2482501	There is substantially no difference between us.	There is substantially no difference between us.	117912785	1475169909639	1475169909698	u	85
231887	2482501	There is substantially no difference between us.	There is substantially no difference between us.	117912791	1475169909818	1475169909896	s	83
231887	2482501	There is substantially no difference between us.	There is substantially no difference between us.	117912798	1475169910371	1475169910505	.	190
231887	2482544	This is the neatest toy I have had.	This is the neatest toy I have had.	117913208	1475169914843	1475169915268	SHIFT	16
231887	2482544	This is the neatest toy I have had.	This is the neatest toy I have had.	117913205	1475169915095	1475169915210	T	84
231887	2482544	This is the neatest toy I have had.	This is the neatest toy I have had.	117913212	1475169915332	1475169915410	h	72
231887	2482544	This is the neatest toy I have had.	This is the neatest toy I have had.	117913215	1475169915568	1475169915665	i	73
231887	2482544	This is the neatest toy I have had.	This is the neatest toy I have had.	117913221	1475169915728	1475169915825	s	83
231887	2482544	This is the neatest toy I have had.	This is the neatest toy I have had.	117913226	1475169915889	1475169916042	 	32
231887	2482544	This is the neatest toy I have had.	This is the neatest toy I have had.	117913359	1475169916442	1475169916585	i	73
231887	2482544	This is the neatest toy I have had.	This is the neatest toy I have had.	117913362	1475169916545	1475169916662	s	83
231887	2482544	This is the neatest toy I have had.	This is the neatest toy I have had.	117913367	1475169916801	1475169916935	 	32
231887	2482544	This is the neatest toy I have had.	This is the neatest toy I have had.	117913371	1475169917824	1475169917920	t	84
231887	2482544	This is the neatest toy I have had.	This is the neatest toy I have had.	117913374	1475169917947	1475169918118	h	72
231887	2482544	This is the neatest toy I have had.	This is the neatest toy I have had.	117913478	1475169918239	1475169918317	e	69
231887	2482544	This is the neatest toy I have had.	This is the neatest toy I have had.	117913482	1475169918642	1475169918816	 	32
231887	2482544	This is the neatest toy I have had.	This is the neatest toy I have had.	117913488	1475169919064	1475169919160	n	78
231887	2482544	This is the neatest toy I have had.	This is the neatest toy I have had.	117913492	1475169919224	1475169919302	e	69
231887	2482544	This is the neatest toy I have had.	This is the neatest toy I have had.	117913498	1475169919534	1475169919631	a	65
231887	2482544	This is the neatest toy I have had.	This is the neatest toy I have had.	117913609	1475169919863	1475169919960	t	84
231887	2482544	This is the neatest toy I have had.	This is the neatest toy I have had.	117913613	1475169920248	1475169920326	e	69
231887	2482544	This is the neatest toy I have had.	This is the neatest toy I have had.	117913620	1475169920483	1475169920580	s	83
231887	2482544	This is the neatest toy I have had.	This is the neatest toy I have had.	117913626	1475169920737	1475169920852	t	84
231887	2482544	This is the neatest toy I have had.	This is the neatest toy I have had.	117913635	1475169920935	1475169921050	 	32
231887	2482544	This is the neatest toy I have had.	This is the neatest toy I have had.	117913718	1475169921208	1475169921323	t	84
231887	2482544	This is the neatest toy I have had.	This is the neatest toy I have had.	117913721	1475169921462	1475169921558	o	79
231887	2482544	This is the neatest toy I have had.	This is the neatest toy I have had.	117913723	1475169921678	1475169921794	y	89
231887	2482544	This is the neatest toy I have had.	This is the neatest toy I have had.	117913725	1475169921914	1475169922066	 	32
231887	2482544	This is the neatest toy I have had.	This is the neatest toy I have had.	117913730	1475169922130	1475169922264	i	73
231887	2482544	This is the neatest toy I have had.	This is the neatest toy I have had.	117913997	1475169922552	1475169922704	BKSP	8
231887	2482544	This is the neatest toy I have had.	This is the neatest toy I have had.	117914008	1475169922993	1475169923474	SHIFT	16
231887	2482544	This is the neatest toy I have had.	This is the neatest toy I have had.	117914000	1475169923301	1475169923416	I	73
231887	2482544	This is the neatest toy I have had.	This is the neatest toy I have had.	117914018	1475169923520	1475169923672	 	32
231887	2482544	This is the neatest toy I have had.	This is the neatest toy I have had.	117914029	1475169923941	1475169924441	SHIFT	16
231887	2482544	This is the neatest toy I have had.	This is the neatest toy I have had.	117914023	1475169924119	1475169924252	H	72
231887	2482544	This is the neatest toy I have had.	This is the neatest toy I have had.	117914034	1475169924937	1475169925034	BKSP	8
231887	2482544	This is the neatest toy I have had.	This is the neatest toy I have had.	117914038	1475169926036	1475169926169	h	72
231887	2482544	This is the neatest toy I have had.	This is the neatest toy I have had.	117914042	1475169926215	1475169926330	a	65
231887	2482544	This is the neatest toy I have had.	This is the neatest toy I have had.	117914133	1475169926376	1475169926509	v	86
231887	2482544	This is the neatest toy I have had.	This is the neatest toy I have had.	117914138	1475169926592	1475169926689	e	69
231887	2482544	This is the neatest toy I have had.	This is the neatest toy I have had.	117914144	1475169926884	1475169927036	 	32
231887	2482544	This is the neatest toy I have had.	This is the neatest toy I have had.	117914152	1475169927982	1475169928078	h	72
231887	2482544	This is the neatest toy I have had.	This is the neatest toy I have had.	117914161	1475169928105	1475169928221	a	65
231887	2482544	This is the neatest toy I have had.	This is the neatest toy I have had.	117914345	1475169928415	1475169928493	d	68
231887	2482544	This is the neatest toy I have had.	This is the neatest toy I have had.	117914350	1475169929946	1475169930043	.	190
231887	2482581	How is it going?	How is it going?	117914660	1475169932971	1475169933359	SHIFT	16
231887	2482581	How is it going?	How is it going?	117914657	1475169933204	1475169933282	H	72
231887	2482581	How is it going?	How is it going?	117914664	1475169933517	1475169933613	o	79
231887	2482581	How is it going?	How is it going?	117914668	1475169933939	1475169934035	w	87
231887	2482581	How is it going?	How is it going?	117914670	1475169934099	1475169934252	 	32
231887	2482581	How is it going?	How is it going?	117914673	1475169934391	1475169934525	i	73
231887	2482581	How is it going?	How is it going?	117914786	1475169934589	1475169934685	s	83
231887	2482581	How is it going?	How is it going?	117914789	1475169934787	1475169934921	 	32
231887	2482581	How is it going?	How is it going?	117914794	1475169935227	1475169935361	i	73
231887	2482581	How is it going?	How is it going?	117914800	1475169935556	1475169935671	t	84
231887	2482581	How is it going?	How is it going?	117914805	1475169935717	1475169935869	 	32
231887	2482581	How is it going?	How is it going?	117914996	1475169936288	1475169936366	g	71
231887	2482581	How is it going?	How is it going?	117915003	1475169936710	1475169936788	o	79
231887	2482581	How is it going?	How is it going?	117915008	1475169936946	1475169937023	i	73
231887	2482581	How is it going?	How is it going?	117915012	1475169937555	1475169937689	n	78
231887	2482581	How is it going?	How is it going?	117915018	1475169937940	1475169937999	g	71
231887	2482581	How is it going?	How is it going?	117915218	1475169939132	1475169939536	SHIFT	16
231887	2482581	How is it going?	How is it going?	117915220	1475169939421	1475169939557	?	191
231887	2482599	Don't forget the wood.	Don't forget the wood.	117915679	1475169943688	1475169944093	SHIFT	16
231887	2482599	Don't forget the wood.	Don't forget the wood.	117915683	1475169943959	1475169944113	D	68
231887	2482599	Don't forget the wood.	Don't forget the wood.	117915688	1475169944234	1475169944349	o	79
231887	2482599	Don't forget the wood.	Don't forget the wood.	117915694	1475169944525	1475169944640	n	78
231887	2482599	Don't forget the wood.	Don't forget the wood.	117915698	1475169945454	1475169945569	'	222
231887	2482599	Don't forget the wood.	Don't forget the wood.	117915705	1475169945689	1475169945749	t	84
231887	2482599	Don't forget the wood.	Don't forget the wood.	117915784	1475169945831	1475169946003	 	32
231887	2482599	Don't forget the wood.	Don't forget the wood.	117915788	1475169946272	1475169946369	f	70
231887	2482599	Don't forget the wood.	Don't forget the wood.	117915792	1475169946526	1475169946664	o	79
231887	2482599	Don't forget the wood.	Don't forget the wood.	117915796	1475169946705	1475169946821	r	82
231887	2482599	Don't forget the wood.	Don't forget the wood.	117915800	1475169947090	1475169947187	g	71
231887	2482599	Don't forget the wood.	Don't forget the wood.	117915864	1475169947288	1475169947366	e	69
231887	2482599	Don't forget the wood.	Don't forget the wood.	117915866	1475169947467	1475169947583	t	84
231887	2482599	Don't forget the wood.	Don't forget the wood.	117915871	1475169947647	1475169947800	 	32
231887	2482599	Don't forget the wood.	Don't forget the wood.	117915877	1475169947864	1475169947960	t	84
231887	2482599	Don't forget the wood.	Don't forget the wood.	117915885	1475169948043	1475169948158	h	72
231887	2482599	Don't forget the wood.	Don't forget the wood.	117915971	1475169948241	1475169948338	e	69
231887	2482599	Don't forget the wood.	Don't forget the wood.	117915975	1475169948421	1475169948555	 	32
231887	2482599	Don't forget the wood.	Don't forget the wood.	117915981	1475169948712	1475169948809	w	87
231887	2482599	Don't forget the wood.	Don't forget the wood.	117915989	1475169949003	1475169949084	o	79
231887	2482599	Don't forget the wood.	Don't forget the wood.	117915992	1475169949164	1475169949242	o	79
231887	2482599	Don't forget the wood.	Don't forget the wood.	117916116	1475169949586	1475169949645	d	68
231887	2482599	Don't forget the wood.	Don't forget the wood.	117916119	1475169950289	1475169950349	.	190
231887	2482617	Not like you'll get paid for it.	Not like you'll get paid for it.	117916566	1475169955062	1475169955487	SHIFT	16
231887	2482617	Not like you'll get paid for it.	Not like you'll get paid for it.	117916562	1475169955351	1475169955466	N	78
231887	2482617	Not like you'll get paid for it.	Not like you'll get paid for it.	117916576	1475169955682	1475169955834	o	79
231887	2482617	Not like you'll get paid for it.	Not like you'll get paid for it.	117916581	1475169956141	1475169956239	t	84
231887	2482617	Not like you'll get paid for it.	Not like you'll get paid for it.	117916585	1475169956321	1475169956455	 	32
231887	2482617	Not like you'll get paid for it.	Not like you'll get paid for it.	117916588	1475169956724	1475169956839	l	76
231887	2482617	Not like you'll get paid for it.	Not like you'll get paid for it.	117916678	1475169956959	1475169957037	i	73
231887	2482617	Not like you'll get paid for it.	Not like you'll get paid for it.	117916683	1475169957157	1475169957254	k	75
231887	2482617	Not like you'll get paid for it.	Not like you'll get paid for it.	117916691	1475169957318	1475169957415	e	69
231887	2482617	Not like you'll get paid for it.	Not like you'll get paid for it.	117916697	1475169957479	1475169957631	 	32
231887	2482617	Not like you'll get paid for it.	Not like you'll get paid for it.	117916704	1475169957901	1475169957979	y	89
231887	2482617	Not like you'll get paid for it.	Not like you'll get paid for it.	117916814	1475169958136	1475169958251	o	79
231887	2482617	Not like you'll get paid for it.	Not like you'll get paid for it.	117916822	1475169958353	1475169958449	u	85
231887	2482617	Not like you'll get paid for it.	Not like you'll get paid for it.	117916828	1475169959075	1475169959190	'	222
231887	2482617	Not like you'll get paid for it.	Not like you'll get paid for it.	117916834	1475169959404	1475169959463	l	76
231887	2482617	Not like you'll get paid for it.	Not like you'll get paid for it.	117916842	1475169959564	1475169959661	l	76
231887	2482617	Not like you'll get paid for it.	Not like you'll get paid for it.	117917008	1475169960098	1475169960270	 	32
231887	2482617	Not like you'll get paid for it.	Not like you'll get paid for it.	117917015	1475169961113	1475169961191	e	69
231887	2482617	Not like you'll get paid for it.	Not like you'll get paid for it.	117917023	1475169961292	1475169961407	t	84
231887	2482617	Not like you'll get paid for it.	Not like you'll get paid for it.	117917031	1475169961472	1475169961606	 	32
231887	2482617	Not like you'll get paid for it.	Not like you'll get paid for it.	117917172	1475169962100	1475169962234	p	80
231887	2482617	Not like you'll get paid for it.	Not like you'll get paid for it.	117917179	1475169962260	1475169962338	a	65
231887	2482617	Not like you'll get paid for it.	Not like you'll get paid for it.	117917188	1475169962458	1475169962593	i	73
231887	2482617	Not like you'll get paid for it.	Not like you'll get paid for it.	117917194	1475169962936	1475169962996	d	68
231887	2482617	Not like you'll get paid for it.	Not like you'll get paid for it.	117917200	1475169963097	1475169963231	 	32
231887	2482617	Not like you'll get paid for it.	Not like you'll get paid for it.	117917258	1475169963333	1475169963429	f	70
231887	2482617	Not like you'll get paid for it.	Not like you'll get paid for it.	117917263	1475169963642	1475169963739	o	79
231887	2482617	Not like you'll get paid for it.	Not like you'll get paid for it.	117917268	1475169963841	1475169963956	r	82
231887	2482617	Not like you'll get paid for it.	Not like you'll get paid for it.	117917274	1475169963982	1475169964135	 	32
231887	2482617	Not like you'll get paid for it.	Not like you'll get paid for it.	117917282	1475169964237	1475169964334	i	73
231887	2482617	Not like you'll get paid for it.	Not like you'll get paid for it.	117917390	1475169964416	1475169964494	t	84
231887	2482617	Not like you'll get paid for it.	Not like you'll get paid for it.	117917394	1475169965026	1475169965103	.	190
231887	2482647	At least then one person in Denver would be able to get in.	At least then one person in Denver would be able toget in.	117918024	1475169971811	1475169972178	SHIFT	16
231887	2482647	At least then one person in Denver would be able to get in.	At least then one person in Denver would be able toget in.	117918025	1475169972025	1475169972181	A	65
231887	2482647	At least then one person in Denver would be able to get in.	At least then one person in Denver would be able toget in.	117918027	1475169972300	1475169972415	t	84
231887	2482647	At least then one person in Denver would be able to get in.	At least then one person in Denver would be able toget in.	117918029	1475169972479	1475169972651	 	32
231887	2482647	At least then one person in Denver would be able to get in.	At least then one person in Denver would be able toget in.	117918034	1475169973334	1475169973430	l	76
231887	2482647	At least then one person in Denver would be able to get in.	At least then one person in Denver would be able toget in.	117918038	1475169973531	1475169973609	e	69
231887	2482647	At least then one person in Denver would be able to get in.	At least then one person in Denver would be able toget in.	117918150	1475169973804	1475169973919	a	65
231887	2482647	At least then one person in Denver would be able to get in.	At least then one person in Denver would be able toget in.	117918152	1475169974058	1475169974155	s	83
231887	2482647	At least then one person in Denver would be able to get in.	At least then one person in Denver would be able toget in.	117918155	1475169974349	1475169974446	t	84
231887	2482647	At least then one person in Denver would be able to get in.	At least then one person in Denver would be able toget in.	117918159	1475169974510	1475169974663	 	32
231887	2482647	At least then one person in Denver would be able to get in.	At least then one person in Denver would be able toget in.	117918162	1475169974764	1475169974861	t	84
231887	2482647	At least then one person in Denver would be able to get in.	At least then one person in Denver would be able toget in.	117918223	1475169974981	1475169975059	h	72
231887	2482647	At least then one person in Denver would be able to get in.	At least then one person in Denver would be able toget in.	117918230	1475169975123	1475169975220	e	69
231887	2482647	At least then one person in Denver would be able to get in.	At least then one person in Denver would be able toget in.	117918236	1475169975358	1475169975436	n	78
231887	2482647	At least then one person in Denver would be able to get in.	At least then one person in Denver would be able toget in.	117918244	1475169975538	1475169975653	 	32
231887	2482647	At least then one person in Denver would be able to get in.	At least then one person in Denver would be able toget in.	117918247	1475169975773	1475169975870	o	79
231887	2482647	At least then one person in Denver would be able to get in.	At least then one person in Denver would be able toget in.	117918333	1475169976046	1475169976142	n	78
231887	2482647	At least then one person in Denver would be able to get in.	At least then one person in Denver would be able toget in.	117918337	1475169976225	1475169976322	e	69
231887	2482647	At least then one person in Denver would be able to get in.	At least then one person in Denver would be able toget in.	117918341	1475169976367	1475169976483	 	32
231887	2482647	At least then one person in Denver would be able to get in.	At least then one person in Denver would be able toget in.	117918344	1475169976789	1475169976848	p	80
231887	2482647	At least then one person in Denver would be able to get in.	At least then one person in Denver would be able toget in.	117918347	1475169977006	1475169977084	e	69
231887	2482647	At least then one person in Denver would be able to get in.	At least then one person in Denver would be able toget in.	117918429	1475169977241	1475169977301	r	82
231887	2482647	At least then one person in Denver would be able to get in.	At least then one person in Denver would be able toget in.	117918432	1475169977738	1475169977834	s	83
231887	2482647	At least then one person in Denver would be able to get in.	At least then one person in Denver would be able toget in.	117918437	1475169977899	1475169978014	o	79
231887	2482647	At least then one person in Denver would be able to get in.	At least then one person in Denver would be able toget in.	117918441	1475169978153	1475169978268	n	78
231887	2482647	At least then one person in Denver would be able to get in.	At least then one person in Denver would be able toget in.	117918446	1475169978332	1475169978484	 	32
231887	2482647	At least then one person in Denver would be able to get in.	At least then one person in Denver would be able toget in.	117918552	1475169978511	1475169978627	i	73
231887	2482647	At least then one person in Denver would be able to get in.	At least then one person in Denver would be able toget in.	117918557	1475169978747	1475169978881	n	78
231887	2482647	At least then one person in Denver would be able to get in.	At least then one person in Denver would be able toget in.	117918562	1475169978963	1475169979079	 	32
231887	2482647	At least then one person in Denver would be able to get in.	At least then one person in Denver would be able toget in.	117918565	1475169979199	1475169979528	SHIFT	16
231887	2482647	At least then one person in Denver would be able to get in.	At least then one person in Denver would be able toget in.	117918572	1475169979432	1475169979568	D	68
231887	2482647	At least then one person in Denver would be able to get in.	At least then one person in Denver would be able toget in.	117918577	1475169979707	1475169979785	e	69
231887	2482647	At least then one person in Denver would be able to get in.	At least then one person in Denver would be able toget in.	117918733	1475169980017	1475169980095	n	78
231887	2482647	At least then one person in Denver would be able to get in.	At least then one person in Denver would be able toget in.	117918738	1475169980290	1475169980386	v	86
231887	2482647	At least then one person in Denver would be able to get in.	At least then one person in Denver would be able toget in.	117918742	1475169980562	1475169980658	e	69
231887	2482647	At least then one person in Denver would be able to get in.	At least then one person in Denver would be able toget in.	117918746	1475169980798	1475169980876	r	82
231887	2482647	At least then one person in Denver would be able to get in.	At least then one person in Denver would be able toget in.	117918755	1475169981501	1475169981654	 	32
231887	2482647	At least then one person in Denver would be able to get in.	At least then one person in Denver would be able toget in.	117918874	1475169982186	1475169982264	w	87
231887	2482647	At least then one person in Denver would be able to get in.	At least then one person in Denver would be able toget in.	117918880	1475169982402	1475169982518	o	79
231887	2482647	At least then one person in Denver would be able to get in.	At least then one person in Denver would be able toget in.	117918884	1475169982675	1475169982773	u	85
231887	2482647	At least then one person in Denver would be able to get in.	At least then one person in Denver would be able toget in.	117918888	1475169982910	1475169983026	l	76
231887	2482647	At least then one person in Denver would be able to get in.	At least then one person in Denver would be able toget in.	117918893	1475169983146	1475169983242	d	68
231887	2482647	At least then one person in Denver would be able to get in.	At least then one person in Denver would be able toget in.	117919033	1475169983367	1475169983440	 	32
231887	2482647	At least then one person in Denver would be able to get in.	At least then one person in Denver would be able toget in.	117919038	1475169983747	1475169983825	b	66
231887	2482647	At least then one person in Denver would be able to get in.	At least then one person in Denver would be able toget in.	117919043	1475169984601	1475169984660	e	69
231887	2482647	At least then one person in Denver would be able to get in.	At least then one person in Denver would be able toget in.	117919050	1475169984855	1475169984970	 	32
231887	2482647	At least then one person in Denver would be able to get in.	At least then one person in Denver would be able toget in.	117919054	1475169985389	1475169985486	a	65
231887	2482647	At least then one person in Denver would be able to get in.	At least then one person in Denver would be able toget in.	117919235	1475169985606	1475169985702	b	66
231887	2482647	At least then one person in Denver would be able to get in.	At least then one person in Denver would be able toget in.	117919237	1475169986159	1475169986311	l	76
231887	2482647	At least then one person in Denver would be able to get in.	At least then one person in Denver would be able toget in.	117919240	1475169986580	1475169986714	e	69
231887	2482647	At least then one person in Denver would be able to get in.	At least then one person in Denver would be able toget in.	117919245	1475169987077	1475169987286	 	32
231887	2482647	At least then one person in Denver would be able to get in.	At least then one person in Denver would be able toget in.	117919255	1475169987988	1475169988103	t	84
231887	2482647	At least then one person in Denver would be able to get in.	At least then one person in Denver would be able toget in.	117919377	1475169988167	1475169988282	o	79
231887	2482647	At least then one person in Denver would be able to get in.	At least then one person in Denver would be able toget in.	117919380	1475169988383	1475169988555	 	32
231887	2482647	At least then one person in Denver would be able to get in.	At least then one person in Denver would be able toget in.	117919394	1475169988984	1475169989100	e	69
231887	2482647	At least then one person in Denver would be able to get in.	At least then one person in Denver would be able toget in.	117919399	1475169989183	1475169989298	t	84
231887	2482647	At least then one person in Denver would be able to get in.	At least then one person in Denver would be able toget in.	117919405	1475169989381	1475169989533	 	32
231887	2482647	At least then one person in Denver would be able to get in.	At least then one person in Denver would be able toget in.	117919543	1475169989672	1475169989769	i	73
231887	2482647	At least then one person in Denver would be able to get in.	At least then one person in Denver would be able toget in.	117919547	1475169989908	1475169989986	n	78
231887	2482647	At least then one person in Denver would be able to get in.	At least then one person in Denver would be able toget in.	117919551	1475169990498	1475169990613	.	190
231887	2482694	Have a safe trip!	Have a safe trip!	117919983	1475169993504	1475169993966	SHIFT	16
231887	2482694	Have a safe trip!	Have a safe trip!	117919977	1475169993867	1475169993945	H	72
231887	2482694	Have a safe trip!	Have a safe trip!	117919986	1475169994068	1475169994183	a	65
231887	2482694	Have a safe trip!	Have a safe trip!	117919994	1475169994322	1475169994418	v	86
231887	2482694	Have a safe trip!	Have a safe trip!	117920000	1475169994576	1475169994654	e	69
231887	2482694	Have a safe trip!	Have a safe trip!	117920001	1475169994755	1475169994889	 	32
231887	2482694	Have a safe trip!	Have a safe trip!	117920115	1475169994991	1475169995069	a	65
231887	2482694	Have a safe trip!	Have a safe trip!	117920118	1475169995189	1475169995341	 	32
231887	2482694	Have a safe trip!	Have a safe trip!	117920123	1475169995573	1475169995688	s	83
231887	2482694	Have a safe trip!	Have a safe trip!	117920127	1475169995790	1475169995943	a	65
231887	2482694	Have a safe trip!	Have a safe trip!	117920132	1475169996343	1475169996458	f	70
231887	2482694	Have a safe trip!	Have a safe trip!	117920283	1475169996522	1475169996619	e	69
231887	2482694	Have a safe trip!	Have a safe trip!	117920288	1475169996683	1475169996836	 	32
231887	2482694	Have a safe trip!	Have a safe trip!	117920296	1475169997123	1475169997239	t	84
231887	2482694	Have a safe trip!	Have a safe trip!	117920300	1475169997359	1475169997437	r	82
231887	2482694	Have a safe trip!	Have a safe trip!	117920305	1475169997950	1475169998009	i	73
231887	2482694	Have a safe trip!	Have a safe trip!	117920524	1475169998166	1475169998244	p	80
231887	2482694	Have a safe trip!	Have a safe trip!	117920536	1475169998625	1475170000078	SHIFT	16
231887	2482694	Have a safe trip!	Have a safe trip!	117920529	1475169999792	1475169999889	!	49
