PARTICIPANT_ID	TEST_SECTION_ID	SENTENCE	USER_INPUT	KEYSTROKE_ID	PRESS_TIME	RELEASE_TIME	LETTER	KEYCODE
232522	2488434	Ernie Els was back to his best.	Ernie Els was back to his best.	118189374	1475173363751	1475173364232	SHIFT	16
232522	2488434	Ernie Els was back to his best.	Ernie Els was back to his best.	118189375	1475173364145	1475173364261	E	69
232522	2488434	Ernie Els was back to his best.	Ernie Els was back to his best.	118189377	1475173364670	1475173364773	r	82
232522	2488434	Ernie Els was back to his best.	Ernie Els was back to his best.	118189380	1475173364927	1475173365012	n	78
232522	2488434	Ernie Els was back to his best.	Ernie Els was back to his best.	118189382	1475173365053	1475173365154	i	73
232522	2488434	Ernie Els was back to his best.	Ernie Els was back to his best.	118189384	1475173365280	1475173365383	e	69
232522	2488434	Ernie Els was back to his best.	Ernie Els was back to his best.	118189437	1475173365521	1475173365650	 	32
232522	2488434	Ernie Els was back to his best.	Ernie Els was back to his best.	118189443	1475173365688	1475173365937	SHIFT	16
232522	2488434	Ernie Els was back to his best.	Ernie Els was back to his best.	118189450	1475173365856	1475173365967	E	69
232522	2488434	Ernie Els was back to his best.	Ernie Els was back to his best.	118189456	1475173365979	1475173366079	l	76
232522	2488434	Ernie Els was back to his best.	Ernie Els was back to his best.	118189461	1475173366130	1475173366259	s	83
232522	2488434	Ernie Els was back to his best.	Ernie Els was back to his best.	118189467	1475173366332	1475173366439	 	32
232522	2488434	Ernie Els was back to his best.	Ernie Els was back to his best.	118189618	1475173366571	1475173366860	a	65
232522	2488434	Ernie Els was back to his best.	Ernie Els was back to his best.	118189622	1475173366759	1475173366902	s	83
232522	2488434	Ernie Els was back to his best.	Ernie Els was back to his best.	118189630	1475173367104	1475173367204	BKSP	8
232522	2488434	Ernie Els was back to his best.	Ernie Els was back to his best.	118189636	1475173367235	1475173367320	BKSP	8
232522	2488434	Ernie Els was back to his best.	Ernie Els was back to his best.	118189642	1475173367352	1475173367427	BKSP	8
232522	2488434	Ernie Els was back to his best.	Ernie Els was back to his best.	118189649	1475173367472	1475173367512	BKSP	8
232522	2488434	Ernie Els was back to his best.	Ernie Els was back to his best.	118189654	1475173368356	1475173368465	s	83
232522	2488434	Ernie Els was back to his best.	Ernie Els was back to his best.	118189657	1475173368467	1475173368557	 	32
232522	2488434	Ernie Els was back to his best.	Ernie Els was back to his best.	118189659	1475173368563	1475173368687	w	87
232522	2488434	Ernie Els was back to his best.	Ernie Els was back to his best.	118189674	1475173368617	1475173368799	a	65
232522	2488434	Ernie Els was back to his best.	Ernie Els was back to his best.	118189680	1475173368771	1475173368902	s	83
232522	2488434	Ernie Els was back to his best.	Ernie Els was back to his best.	118189683	1475173368945	1475173369046	 	32
232522	2488434	Ernie Els was back to his best.	Ernie Els was back to his best.	118189689	1475173369260	1475173369343	b	66
232522	2488434	Ernie Els was back to his best.	Ernie Els was back to his best.	118189695	1475173369292	1475173369388	a	65
232522	2488434	Ernie Els was back to his best.	Ernie Els was back to his best.	118189700	1475173369415	1475173369537	c	67
232522	2488434	Ernie Els was back to his best.	Ernie Els was back to his best.	118189729	1475173369514	1475173369599	k	75
232522	2488434	Ernie Els was back to his best.	Ernie Els was back to his best.	118189734	1475173369601	1475173369711	 	32
232522	2488434	Ernie Els was back to his best.	Ernie Els was back to his best.	118189739	1475173369740	1475173369847	t	84
232522	2488434	Ernie Els was back to his best.	Ernie Els was back to his best.	118189743	1475173369795	1475173369885	o	79
232522	2488434	Ernie Els was back to his best.	Ernie Els was back to his best.	118189748	1475173369878	1475173369979	 	32
232522	2488434	Ernie Els was back to his best.	Ernie Els was back to his best.	118189751	1475173370185	1475173370241	h	72
232522	2488434	Ernie Els was back to his best.	Ernie Els was back to his best.	118189776	1475173370238	1475173370335	i	73
232522	2488434	Ernie Els was back to his best.	Ernie Els was back to his best.	118189779	1475173370382	1475173370480	s	83
232522	2488434	Ernie Els was back to his best.	Ernie Els was back to his best.	118189783	1475173370469	1475173370565	 	32
232522	2488434	Ernie Els was back to his best.	Ernie Els was back to his best.	118189785	1475173370694	1475173370782	b	66
232522	2488434	Ernie Els was back to his best.	Ernie Els was back to his best.	118189787	1475173370733	1475173370894	e	69
232522	2488434	Ernie Els was back to his best.	Ernie Els was back to his best.	118189802	1475173370798	1475173370930	s	83
232522	2488434	Ernie Els was back to his best.	Ernie Els was back to his best.	118189803	1475173370940	1475173371020	t	84
232522	2488434	Ernie Els was back to his best.	Ernie Els was back to his best.	118189806	1475173371301	1475173371337	.	190
232522	2488446	he Fed will continue to have oversight over 38 US banks.	he Fed will continue to have the oversight of 38 US banks.	118189916	1475173373086	1475173373370	SHIFT	16
232522	2488446	he Fed will continue to have oversight over 38 US banks.	he Fed will continue to have the oversight of 38 US banks.	118189918	1475173373307	1475173373396	H	72
232522	2488446	he Fed will continue to have oversight over 38 US banks.	he Fed will continue to have the oversight of 38 US banks.	118189922	1475173373406	1475173373492	e	69
232522	2488446	he Fed will continue to have oversight over 38 US banks.	he Fed will continue to have the oversight of 38 US banks.	118189925	1475173373470	1475173373564	 	32
232522	2488446	he Fed will continue to have oversight over 38 US banks.	he Fed will continue to have the oversight of 38 US banks.	118189928	1475173374086	1475173374205	f	70
232522	2488446	he Fed will continue to have oversight over 38 US banks.	he Fed will continue to have the oversight of 38 US banks.	118190025	1475173374152	1475173374261	e	69
232522	2488446	he Fed will continue to have oversight over 38 US banks.	he Fed will continue to have the oversight of 38 US banks.	118190026	1475173374306	1475173374411	d	68
232522	2488446	he Fed will continue to have oversight over 38 US banks.	he Fed will continue to have the oversight of 38 US banks.	118190027	1475173374451	1475173374537	 	32
232522	2488446	he Fed will continue to have oversight over 38 US banks.	he Fed will continue to have the oversight of 38 US banks.	118190028	1475173375266	1475173375346	BKSP	8
232522	2488446	he Fed will continue to have oversight over 38 US banks.	he Fed will continue to have the oversight of 38 US banks.	118190030	1475173375380	1475173375466	BKSP	8
232522	2488446	he Fed will continue to have oversight over 38 US banks.	he Fed will continue to have the oversight of 38 US banks.	118190033	1475173375491	1475173375557	BKSP	8
232522	2488446	he Fed will continue to have oversight over 38 US banks.	he Fed will continue to have the oversight of 38 US banks.	118190037	1475173375594	1475173375754	BKSP	8
232522	2488446	he Fed will continue to have oversight over 38 US banks.	he Fed will continue to have the oversight of 38 US banks.	118190039	1475173375784	1475173375863	BKSP	8
232522	2488446	he Fed will continue to have oversight over 38 US banks.	he Fed will continue to have the oversight of 38 US banks.	118190044	1475173375910	1475173375964	BKSP	8
232522	2488446	he Fed will continue to have oversight over 38 US banks.	he Fed will continue to have the oversight of 38 US banks.	118190046	1475173375998	1475173376051	BKSP	8
232522	2488446	he Fed will continue to have oversight over 38 US banks.	he Fed will continue to have the oversight of 38 US banks.	118190049	1475173376088	1475173376171	BKSP	8
232522	2488446	he Fed will continue to have oversight over 38 US banks.	he Fed will continue to have the oversight of 38 US banks.	118190052	1475173376367	1475173376447	h	72
232522	2488446	he Fed will continue to have oversight over 38 US banks.	he Fed will continue to have the oversight of 38 US banks.	118190054	1475173376439	1475173376516	e	69
232522	2488446	he Fed will continue to have oversight over 38 US banks.	he Fed will continue to have the oversight of 38 US banks.	118190064	1475173376494	1475173376593	 	32
232522	2488446	he Fed will continue to have oversight over 38 US banks.	he Fed will continue to have the oversight of 38 US banks.	118190070	1475173376605	1475173376787	SHIFT	16
232522	2488446	he Fed will continue to have oversight over 38 US banks.	he Fed will continue to have the oversight of 38 US banks.	118190075	1475173376734	1475173376845	F	70
232522	2488446	he Fed will continue to have oversight over 38 US banks.	he Fed will continue to have the oversight of 38 US banks.	118190080	1475173376903	1475173376999	e	69
232522	2488446	he Fed will continue to have oversight over 38 US banks.	he Fed will continue to have the oversight of 38 US banks.	118190084	1475173377054	1475173377151	d	68
232522	2488446	he Fed will continue to have oversight over 38 US banks.	he Fed will continue to have the oversight of 38 US banks.	118190092	1475173377168	1475173377264	 	32
232522	2488446	he Fed will continue to have oversight over 38 US banks.	he Fed will continue to have the oversight of 38 US banks.	118190095	1475173377313	1475173377401	w	87
232522	2488446	he Fed will continue to have oversight over 38 US banks.	he Fed will continue to have the oversight of 38 US banks.	118190099	1475173377433	1475173377518	i	73
232522	2488446	he Fed will continue to have oversight over 38 US banks.	he Fed will continue to have the oversight of 38 US banks.	118190102	1475173377587	1475173377679	l	76
232522	2488446	he Fed will continue to have oversight over 38 US banks.	he Fed will continue to have the oversight of 38 US banks.	118190106	1475173377715	1475173377788	l	76
232522	2488446	he Fed will continue to have oversight over 38 US banks.	he Fed will continue to have the oversight of 38 US banks.	118190125	1475173377800	1475173377888	l	32
232522	2488446	he Fed will continue to have oversight over 38 US banks.	he Fed will continue to have the oversight of 38 US banks.	118190126	1475173377918	1475173378016	c	67
232522	2488446	he Fed will continue to have oversight over 38 US banks.	he Fed will continue to have the oversight of 38 US banks.	118190127	1475173377943	1475173378041	o	79
232522	2488446	he Fed will continue to have oversight over 38 US banks.	he Fed will continue to have the oversight of 38 US banks.	118190128	1475173378032	1475173378152	n	78
232522	2488446	he Fed will continue to have oversight over 38 US banks.	he Fed will continue to have the oversight of 38 US banks.	118190130	1475173378223	1475173378325	t	84
232522	2488446	he Fed will continue to have oversight over 38 US banks.	he Fed will continue to have the oversight of 38 US banks.	118190265	1475173378287	1475173378374	i	73
232522	2488446	he Fed will continue to have oversight over 38 US banks.	he Fed will continue to have the oversight of 38 US banks.	118190266	1475173378396	1475173378496	n	78
232522	2488446	he Fed will continue to have oversight over 38 US banks.	he Fed will continue to have the oversight of 38 US banks.	118190272	1475173378584	1475173378674	u	85
232522	2488446	he Fed will continue to have oversight over 38 US banks.	he Fed will continue to have the oversight of 38 US banks.	118190278	1475173378721	1475173378810	e	69
232522	2488446	he Fed will continue to have oversight over 38 US banks.	he Fed will continue to have the oversight of 38 US banks.	118190285	1475173378817	1475173378907	 	32
232522	2488446	he Fed will continue to have oversight over 38 US banks.	he Fed will continue to have the oversight of 38 US banks.	118190292	1475173379190	1475173379267	BKSP	8
232522	2488446	he Fed will continue to have oversight over 38 US banks.	he Fed will continue to have the oversight of 38 US banks.	118190299	1475173379293	1475173379365	BKSP	8
232522	2488446	he Fed will continue to have oversight over 38 US banks.	he Fed will continue to have the oversight of 38 US banks.	118190304	1475173379391	1475173379448	BKSP	8
232522	2488446	he Fed will continue to have oversight over 38 US banks.	he Fed will continue to have the oversight of 38 US banks.	118190308	1475173379483	1475173379547	BKSP	8
232522	2488446	he Fed will continue to have oversight over 38 US banks.	he Fed will continue to have the oversight of 38 US banks.	118190312	1475173379602	1475173379647	BKSP	8
232522	2488446	he Fed will continue to have oversight over 38 US banks.	he Fed will continue to have the oversight of 38 US banks.	118190317	1475173379680	1475173379759	BKSP	8
232522	2488446	he Fed will continue to have oversight over 38 US banks.	he Fed will continue to have the oversight of 38 US banks.	118190322	1475173379786	1475173379855	BKSP	8
232522	2488446	he Fed will continue to have oversight over 38 US banks.	he Fed will continue to have the oversight of 38 US banks.	118190329	1475173379885	1475173379953	BKSP	8
232522	2488446	he Fed will continue to have oversight over 38 US banks.	he Fed will continue to have the oversight of 38 US banks.	118190337	1475173379996	1475173380056	BKSP	8
232522	2488446	he Fed will continue to have oversight over 38 US banks.	he Fed will continue to have the oversight of 38 US banks.	118190345	1475173380352	1475173380434	BKSP	8
232522	2488446	he Fed will continue to have oversight over 38 US banks.	he Fed will continue to have the oversight of 38 US banks.	118190351	1475173380487	1475173380592	c	67
232522	2488446	he Fed will continue to have oversight over 38 US banks.	he Fed will continue to have the oversight of 38 US banks.	118190313	1475173380602	1475173380690	o	79
232522	2488446	he Fed will continue to have oversight over 38 US banks.	he Fed will continue to have the oversight of 38 US banks.	118190318	1475173380655	1475173380782	n	78
232522	2488446	he Fed will continue to have oversight over 38 US banks.	he Fed will continue to have the oversight of 38 US banks.	118190325	1475173380856	1475173380950	t	84
232522	2488446	he Fed will continue to have oversight over 38 US banks.	he Fed will continue to have the oversight of 38 US banks.	118190332	1475173380921	1475173381032	i	73
232522	2488446	he Fed will continue to have oversight over 38 US banks.	he Fed will continue to have the oversight of 38 US banks.	118190392	1475173381029	1475173381133	n	78
232522	2488446	he Fed will continue to have oversight over 38 US banks.	he Fed will continue to have the oversight of 38 US banks.	118190396	1475173381178	1475173381294	u	85
232522	2488446	he Fed will continue to have oversight over 38 US banks.	he Fed will continue to have the oversight of 38 US banks.	118190400	1475173381307	1475173381405	e	69
232522	2488446	he Fed will continue to have oversight over 38 US banks.	he Fed will continue to have the oversight of 38 US banks.	118190405	1475173381796	1475173381884	 	32
232522	2488446	he Fed will continue to have oversight over 38 US banks.	he Fed will continue to have the oversight of 38 US banks.	118190410	1475173382012	1475173382095	t	84
232522	2488446	he Fed will continue to have oversight over 38 US banks.	he Fed will continue to have the oversight of 38 US banks.	118190414	1475173382095	1475173382179	h	72
232522	2488446	he Fed will continue to have oversight over 38 US banks.	he Fed will continue to have the oversight of 38 US banks.	118190495	1475173382238	1475173382277	 	32
232522	2488446	he Fed will continue to have oversight over 38 US banks.	he Fed will continue to have the oversight of 38 US banks.	118190496	1475173382305	1475173382384	 	32
232522	2488446	he Fed will continue to have oversight over 38 US banks.	he Fed will continue to have the oversight of 38 US banks.	118190499	1475173382897	1475173382983	BKSP	8
232522	2488446	he Fed will continue to have oversight over 38 US banks.	he Fed will continue to have the oversight of 38 US banks.	118190501	1475173383015	1475173383097	BKSP	8
232522	2488446	he Fed will continue to have oversight over 38 US banks.	he Fed will continue to have the oversight of 38 US banks.	118190502	1475173383120	1475173383192	BKSP	8
232522	2488446	he Fed will continue to have oversight over 38 US banks.	he Fed will continue to have the oversight of 38 US banks.	118190504	1475173383413	1475173383505	o	79
232522	2488446	he Fed will continue to have oversight over 38 US banks.	he Fed will continue to have the oversight of 38 US banks.	118190505	1475173383523	1475173383624	 	32
232522	2488446	he Fed will continue to have oversight over 38 US banks.	he Fed will continue to have the oversight of 38 US banks.	118190507	1475173383730	1475173383818	h	72
232522	2488446	he Fed will continue to have oversight over 38 US banks.	he Fed will continue to have the oversight of 38 US banks.	118190516	1475173383807	1475173383897	a	65
232522	2488446	he Fed will continue to have oversight over 38 US banks.	he Fed will continue to have the oversight of 38 US banks.	118190518	1475173383886	1475173383969	v	86
232522	2488446	he Fed will continue to have oversight over 38 US banks.	he Fed will continue to have the oversight of 38 US banks.	118190521	1475173383975	1475173384046	e	69
232522	2488446	he Fed will continue to have oversight over 38 US banks.	he Fed will continue to have the oversight of 38 US banks.	118190523	1475173384048	1475173384159	 	32
232522	2488446	he Fed will continue to have oversight over 38 US banks.	he Fed will continue to have the oversight of 38 US banks.	118190524	1475173384268	1475173384357	t	84
232522	2488446	he Fed will continue to have oversight over 38 US banks.	he Fed will continue to have the oversight of 38 US banks.	118190553	1475173384349	1475173384431	h	72
232522	2488446	he Fed will continue to have oversight over 38 US banks.	he Fed will continue to have the oversight of 38 US banks.	118190556	1475173384435	1475173384531	e	69
232522	2488446	he Fed will continue to have oversight over 38 US banks.	he Fed will continue to have the oversight of 38 US banks.	118190561	1475173384486	1475173384573	 	32
232522	2488446	he Fed will continue to have oversight over 38 US banks.	he Fed will continue to have the oversight of 38 US banks.	118190567	1475173384811	1475173384890	o	79
232522	2488446	he Fed will continue to have oversight over 38 US banks.	he Fed will continue to have the oversight of 38 US banks.	118190573	1475173384944	1475173385034	v	86
232522	2488446	he Fed will continue to have oversight over 38 US banks.	he Fed will continue to have the oversight of 38 US banks.	118190578	1475173385081	1475173385192	e	69
232522	2488446	he Fed will continue to have oversight over 38 US banks.	he Fed will continue to have the oversight of 38 US banks.	118190598	1475173385140	1475173385245	r	82
232522	2488446	he Fed will continue to have oversight over 38 US banks.	he Fed will continue to have the oversight of 38 US banks.	118190600	1475173385300	1475173385396	s	83
232522	2488446	he Fed will continue to have oversight over 38 US banks.	he Fed will continue to have the oversight of 38 US banks.	118190603	1475173385413	1475173385499	i	73
232522	2488446	he Fed will continue to have oversight over 38 US banks.	he Fed will continue to have the oversight of 38 US banks.	118190606	1475173385533	1475173385635	g	71
232522	2488446	he Fed will continue to have oversight over 38 US banks.	he Fed will continue to have the oversight of 38 US banks.	118190609	1475173385629	1475173385706	h	72
232522	2488446	he Fed will continue to have oversight over 38 US banks.	he Fed will continue to have the oversight of 38 US banks.	118190613	1475173385710	1475173385794	t	84
232522	2488446	he Fed will continue to have oversight over 38 US banks.	he Fed will continue to have the oversight of 38 US banks.	118190693	1475173385813	1475173385911	 	32
232522	2488446	he Fed will continue to have oversight over 38 US banks.	he Fed will continue to have the oversight of 38 US banks.	118190698	1475173385975	1475173386059	o	79
232522	2488446	he Fed will continue to have oversight over 38 US banks.	he Fed will continue to have the oversight of 38 US banks.	118190703	1475173386069	1475173386164	f	70
232522	2488446	he Fed will continue to have oversight over 38 US banks.	he Fed will continue to have the oversight of 38 US banks.	118190706	1475173386153	1475173386236	 	32
232522	2488446	he Fed will continue to have oversight over 38 US banks.	he Fed will continue to have the oversight of 38 US banks.	118190710	1475173387745	1475173387841	3	51
232522	2488446	he Fed will continue to have oversight over 38 US banks.	he Fed will continue to have the oversight of 38 US banks.	118190775	1475173387839	1475173387925	8	56
232522	2488446	he Fed will continue to have oversight over 38 US banks.	he Fed will continue to have the oversight of 38 US banks.	118190779	1475173387901	1475173387993	 	32
232522	2488446	he Fed will continue to have oversight over 38 US banks.	he Fed will continue to have the oversight of 38 US banks.	118190784	1475173388405	1475173388484	u	85
232522	2488446	he Fed will continue to have oversight over 38 US banks.	he Fed will continue to have the oversight of 38 US banks.	118190787	1475173388467	1475173388540	s	83
232522	2488446	he Fed will continue to have oversight over 38 US banks.	he Fed will continue to have the oversight of 38 US banks.	118190790	1475173388520	1475173388627	 	32
232522	2488446	he Fed will continue to have oversight over 38 US banks.	he Fed will continue to have the oversight of 38 US banks.	118190793	1475173388872	1475173388942	BKSP	8
232522	2488446	he Fed will continue to have oversight over 38 US banks.	he Fed will continue to have the oversight of 38 US banks.	118190795	1475173388974	1475173389043	BKSP	8
232522	2488446	he Fed will continue to have oversight over 38 US banks.	he Fed will continue to have the oversight of 38 US banks.	118190798	1475173389081	1475173389150	BKSP	8
232522	2488446	he Fed will continue to have oversight over 38 US banks.	he Fed will continue to have the oversight of 38 US banks.	118190840	1475173389195	1475173389248	\	220
232522	2488446	he Fed will continue to have oversight over 38 US banks.	he Fed will continue to have the oversight of 38 US banks.	118190802	1475173389202	1475173389239	BKSP	8
232522	2488446	he Fed will continue to have oversight over 38 US banks.	he Fed will continue to have the oversight of 38 US banks.	118190844	1475173389271	1475173389825	SHIFT	16
232522	2488446	he Fed will continue to have oversight over 38 US banks.	he Fed will continue to have the oversight of 38 US banks.	118190842	1475173389654	1475173389736	U	85
232522	2488446	he Fed will continue to have oversight over 38 US banks.	he Fed will continue to have the oversight of 38 US banks.	118190848	1475173389733	1475173389840	S	83
232522	2488446	he Fed will continue to have oversight over 38 US banks.	he Fed will continue to have the oversight of 38 US banks.	118190854	1475173389793	1475173389889	 	32
232522	2488446	he Fed will continue to have oversight over 38 US banks.	he Fed will continue to have the oversight of 38 US banks.	118190860	1475173390056	1475173390135	b	66
232522	2488446	he Fed will continue to have oversight over 38 US banks.	he Fed will continue to have the oversight of 38 US banks.	118190938	1475173390114	1475173390207	a	65
232522	2488446	he Fed will continue to have oversight over 38 US banks.	he Fed will continue to have the oversight of 38 US banks.	118190943	1475173390345	1475173390417	n	78
232522	2488446	he Fed will continue to have oversight over 38 US banks.	he Fed will continue to have the oversight of 38 US banks.	118190948	1475173390537	1475173390632	k	75
232522	2488446	he Fed will continue to have oversight over 38 US banks.	he Fed will continue to have the oversight of 38 US banks.	118190951	1475173390652	1475173390745	s	83
232522	2488446	he Fed will continue to have oversight over 38 US banks.	he Fed will continue to have the oversight of 38 US banks.	118190954	1475173391207	1475173391289	.	190
232522	2488477	Why do you ask?	Why do you ask	118191080	1475173393252	1475173393582	SHIFT	16
232522	2488477	Why do you ask?	Why do you ask	118191085	1475173393487	1475173393600	W	87
232522	2488477	Why do you ask?	Why do you ask	118191094	1475173393624	1475173393694	h	72
232522	2488477	Why do you ask?	Why do you ask	118191099	1475173393729	1475173393805	y	89
232522	2488477	Why do you ask?	Why do you ask	118191106	1475173393831	1475173393927	 	32
232522	2488477	Why do you ask?	Why do you ask	118191112	1475173393957	1475173394047	d	68
232522	2488477	Why do you ask?	Why do you ask	118191115	1475173393997	1475173394089	o	79
232522	2488477	Why do you ask?	Why do you ask	118191118	1475173394076	1475173394180	 	32
232522	2488477	Why do you ask?	Why do you ask	118191125	1475173394177	1475173394273	y	89
232522	2488477	Why do you ask?	Why do you ask	118191129	1475173394222	1475173394335	o	79
232522	2488477	Why do you ask?	Why do you ask	118191182	1475173394258	1475173394380	u	85
232522	2488477	Why do you ask?	Why do you ask	118191184	1475173394305	1475173394407	 	32
232522	2488477	Why do you ask?	Why do you ask	118191186	1475173394477	1475173394674	a	65
232522	2488477	Why do you ask?	Why do you ask	118191188	1475173394627	1475173394768	s	83
232522	2488477	Why do you ask?	Why do you ask	118191191	1475173394875	1475173394962	k	75
232522	2488480	The Mercedes engine takes advantage of extra boost.	The mercedes engine takes advantage of extra boost.	118191351	1475173394962	1475173397283	SHIFT	16
232522	2488480	The Mercedes engine takes advantage of extra boost.	The mercedes engine takes advantage of extra boost.	118191353	1475173397218	1475173397311	T	84
232522	2488480	The Mercedes engine takes advantage of extra boost.	The mercedes engine takes advantage of extra boost.	118191355	1475173397306	1475173397387	h	72
232522	2488480	The Mercedes engine takes advantage of extra boost.	The mercedes engine takes advantage of extra boost.	118191356	1475173397363	1475173397449	e	69
232522	2488480	The Mercedes engine takes advantage of extra boost.	The mercedes engine takes advantage of extra boost.	118191359	1475173397436	1475173397528	 	32
232522	2488480	The Mercedes engine takes advantage of extra boost.	The mercedes engine takes advantage of extra boost.	118191362	1475173397723	1475173397810	m	77
232522	2488480	The Mercedes engine takes advantage of extra boost.	The mercedes engine takes advantage of extra boost.	118191398	1475173397823	1475173397961	e	69
232522	2488480	The Mercedes engine takes advantage of extra boost.	The mercedes engine takes advantage of extra boost.	118191404	1475173397906	1475173398015	r	82
232522	2488480	The Mercedes engine takes advantage of extra boost.	The mercedes engine takes advantage of extra boost.	118191412	1475173398143	1475173398233	c	67
232522	2488480	The Mercedes engine takes advantage of extra boost.	The mercedes engine takes advantage of extra boost.	118191420	1475173398362	1475173398469	e	69
232522	2488480	The Mercedes engine takes advantage of extra boost.	The mercedes engine takes advantage of extra boost.	118191424	1475173398546	1475173398657	d	68
232522	2488480	The Mercedes engine takes advantage of extra boost.	The mercedes engine takes advantage of extra boost.	118191494	1475173398727	1475173398821	e	69
232522	2488480	The Mercedes engine takes advantage of extra boost.	The mercedes engine takes advantage of extra boost.	118191498	1475173398939	1475173399099	s	83
232522	2488480	The Mercedes engine takes advantage of extra boost.	The mercedes engine takes advantage of extra boost.	118191506	1475173399196	1475173399290	 	32
232522	2488480	The Mercedes engine takes advantage of extra boost.	The mercedes engine takes advantage of extra boost.	118191510	1475173399613	1475173399702	e	69
232522	2488480	The Mercedes engine takes advantage of extra boost.	The mercedes engine takes advantage of extra boost.	118191514	1475173399703	1475173399802	n	78
232522	2488480	The Mercedes engine takes advantage of extra boost.	The mercedes engine takes advantage of extra boost.	118191552	1475173399819	1475173399919	g	71
232522	2488480	The Mercedes engine takes advantage of extra boost.	The mercedes engine takes advantage of extra boost.	118191558	1475173399938	1475173400064	i	73
232522	2488480	The Mercedes engine takes advantage of extra boost.	The mercedes engine takes advantage of extra boost.	118191563	1475173400037	1475173400166	n	78
232522	2488480	The Mercedes engine takes advantage of extra boost.	The mercedes engine takes advantage of extra boost.	118191569	1475173400163	1475173400274	e	69
232522	2488480	The Mercedes engine takes advantage of extra boost.	The mercedes engine takes advantage of extra boost.	118191573	1475173400280	1475173400376	 	32
232522	2488480	The Mercedes engine takes advantage of extra boost.	The mercedes engine takes advantage of extra boost.	118191630	1475173401031	1475173401153	t	84
232522	2488480	The Mercedes engine takes advantage of extra boost.	The mercedes engine takes advantage of extra boost.	118191632	1475173401108	1475173401209	a	65
232522	2488480	The Mercedes engine takes advantage of extra boost.	The mercedes engine takes advantage of extra boost.	118191635	1475173401199	1475173401291	k	75
232522	2488480	The Mercedes engine takes advantage of extra boost.	The mercedes engine takes advantage of extra boost.	118191638	1475173401280	1475173401432	e	69
232522	2488480	The Mercedes engine takes advantage of extra boost.	The mercedes engine takes advantage of extra boost.	118191738	1475173401383	1475173401472	 	83
232522	2488480	The Mercedes engine takes advantage of extra boost.	The mercedes engine takes advantage of extra boost.	118191742	1475173402230	1475173402334	a	65
232522	2488480	The Mercedes engine takes advantage of extra boost.	The mercedes engine takes advantage of extra boost.	118191745	1475173402422	1475173402495	f	70
232522	2488480	The Mercedes engine takes advantage of extra boost.	The mercedes engine takes advantage of extra boost.	118191748	1475173402729	1475173402827	BKSP	8
232522	2488480	The Mercedes engine takes advantage of extra boost.	The mercedes engine takes advantage of extra boost.	118191752	1475173402795	1475173402878	d	68
232522	2488480	The Mercedes engine takes advantage of extra boost.	The mercedes engine takes advantage of extra boost.	118191756	1475173403093	1475173403170	v	86
232522	2488480	The Mercedes engine takes advantage of extra boost.	The mercedes engine takes advantage of extra boost.	118191760	1475173403325	1475173403334	a	65
232522	2488480	The Mercedes engine takes advantage of extra boost.	The mercedes engine takes advantage of extra boost.	118191771	1475173403350	1475173403443	n	78
232522	2488480	The Mercedes engine takes advantage of extra boost.	The mercedes engine takes advantage of extra boost.	118191772	1475173403445	1475173403550	g	71
232522	2488480	The Mercedes engine takes advantage of extra boost.	The mercedes engine takes advantage of extra boost.	118191773	1475173403835	1475173403933	BKSP	8
232522	2488480	The Mercedes engine takes advantage of extra boost.	The mercedes engine takes advantage of extra boost.	118191775	1475173403897	1475173404002	t	84
232522	2488480	The Mercedes engine takes advantage of extra boost.	The mercedes engine takes advantage of extra boost.	118191777	1475173404038	1475173404134	a	65
232522	2488480	The Mercedes engine takes advantage of extra boost.	The mercedes engine takes advantage of extra boost.	118191808	1475173404130	1475173404268	g	71
232522	2488480	The Mercedes engine takes advantage of extra boost.	The mercedes engine takes advantage of extra boost.	118191809	1475173404223	1475173404341	e	69
232522	2488480	The Mercedes engine takes advantage of extra boost.	The mercedes engine takes advantage of extra boost.	118191810	1475173404609	1475173404703	 	32
232522	2488480	The Mercedes engine takes advantage of extra boost.	The mercedes engine takes advantage of extra boost.	118191812	1475173404930	1475173405016	o	79
232522	2488480	The Mercedes engine takes advantage of extra boost.	The mercedes engine takes advantage of extra boost.	118191816	1475173405001	1475173405089	f	70
232522	2488480	The Mercedes engine takes advantage of extra boost.	The mercedes engine takes advantage of extra boost.	118191893	1475173405078	1475173405176	 	32
232522	2488480	The Mercedes engine takes advantage of extra boost.	The mercedes engine takes advantage of extra boost.	118191896	1475173405266	1475173405383	e	69
232522	2488480	The Mercedes engine takes advantage of extra boost.	The mercedes engine takes advantage of extra boost.	118191900	1475173405484	1475173405598	x	88
232522	2488480	The Mercedes engine takes advantage of extra boost.	The mercedes engine takes advantage of extra boost.	118191904	1475173405698	1475173405837	t	84
232522	2488480	The Mercedes engine takes advantage of extra boost.	The mercedes engine takes advantage of extra boost.	118191909	1475173405886	1475173405929	r	82
232522	2488480	The Mercedes engine takes advantage of extra boost.	The mercedes engine takes advantage of extra boost.	118191913	1475173406536	1475173406633	a	65
232522	2488480	The Mercedes engine takes advantage of extra boost.	The mercedes engine takes advantage of extra boost.	118191973	1475173406647	1475173406745	 	32
232522	2488480	The Mercedes engine takes advantage of extra boost.	The mercedes engine takes advantage of extra boost.	118191980	1475173406873	1475173406964	v	86
232522	2488480	The Mercedes engine takes advantage of extra boost.	The mercedes engine takes advantage of extra boost.	118191988	1475173407191	1475173407294	BKSP	8
232522	2488480	The Mercedes engine takes advantage of extra boost.	The mercedes engine takes advantage of extra boost.	118191994	1475173407290	1475173407394	b	66
232522	2488480	The Mercedes engine takes advantage of extra boost.	The mercedes engine takes advantage of extra boost.	118191998	1475173407395	1475173407478	o	79
232522	2488480	The Mercedes engine takes advantage of extra boost.	The mercedes engine takes advantage of extra boost.	118192001	1475173407523	1475173407604	o	79
232522	2488480	The Mercedes engine takes advantage of extra boost.	The mercedes engine takes advantage of extra boost.	118192029	1475173407621	1475173407741	s	83
232522	2488480	The Mercedes engine takes advantage of extra boost.	The mercedes engine takes advantage of extra boost.	118192032	1475173407738	1475173407843	t	84
232522	2488480	The Mercedes engine takes advantage of extra boost.	The mercedes engine takes advantage of extra boost.	118192035	1475173408481	1475173408566	.	190
232522	2488503	ITT owns the Sheraton hotel chain.	ITT owns the sheraton hotel chain	118192206	1475173410318	1475173411060	SHIFT	16
232522	2488503	ITT owns the Sheraton hotel chain.	ITT owns the sheraton hotel chain	118192193	1475173410632	1475173410731	I	73
232522	2488503	ITT owns the Sheraton hotel chain.	ITT owns the sheraton hotel chain	118192198	1475173410765	1475173410858	T	84
232522	2488503	ITT owns the Sheraton hotel chain.	ITT owns the sheraton hotel chain	118192201	1475173410905	1475173411010	T	84
232522	2488503	ITT owns the Sheraton hotel chain.	ITT owns the sheraton hotel chain	118192209	1475173411040	1475173411136	 	32
232522	2488503	ITT owns the Sheraton hotel chain.	ITT owns the sheraton hotel chain	118192210	1475173411312	1475173411383	o	79
232522	2488503	ITT owns the Sheraton hotel chain.	ITT owns the sheraton hotel chain	118192236	1475173411453	1475173411537	w	87
232522	2488503	ITT owns the Sheraton hotel chain.	ITT owns the sheraton hotel chain	118192238	1475173411601	1475173411698	n	78
232522	2488503	ITT owns the Sheraton hotel chain.	ITT owns the sheraton hotel chain	118192241	1475173411695	1475173411791	s	83
232522	2488503	ITT owns the Sheraton hotel chain.	ITT owns the sheraton hotel chain	118192244	1475173411784	1475173411875	 	32
232522	2488503	ITT owns the Sheraton hotel chain.	ITT owns the sheraton hotel chain	118192247	1475173411917	1475173412015	t	84
232522	2488503	ITT owns the Sheraton hotel chain.	ITT owns the sheraton hotel chain	118192332	1475173411971	1475173412055	h	72
232522	2488503	ITT owns the Sheraton hotel chain.	ITT owns the sheraton hotel chain	118192338	1475173412078	1475173412166	e	69
232522	2488503	ITT owns the Sheraton hotel chain.	ITT owns the sheraton hotel chain	118192341	1475173412122	1475173412209	 	32
232522	2488503	ITT owns the Sheraton hotel chain.	ITT owns the sheraton hotel chain	118192344	1475173412806	1475173412911	s	83
232522	2488503	ITT owns the Sheraton hotel chain.	ITT owns the sheraton hotel chain	118192348	1475173412919	1475173413007	h	72
232522	2488503	ITT owns the Sheraton hotel chain.	ITT owns the sheraton hotel chain	118192353	1475173413095	1475173413220	e	69
232522	2488503	ITT owns the Sheraton hotel chain.	ITT owns the sheraton hotel chain	118192397	1475173413321	1475173413428	r	82
232522	2488503	ITT owns the Sheraton hotel chain.	ITT owns the sheraton hotel chain	118192401	1475173413499	1475173413614	a	65
232522	2488503	ITT owns the Sheraton hotel chain.	ITT owns the sheraton hotel chain	118192404	1475173414121	1475173414216	t	84
232522	2488503	ITT owns the Sheraton hotel chain.	ITT owns the sheraton hotel chain	118192412	1475173414176	1475173414314	o	79
232522	2488503	ITT owns the Sheraton hotel chain.	ITT owns the sheraton hotel chain	118192472	1475173414257	1475173414374	n	78
232522	2488503	ITT owns the Sheraton hotel chain.	ITT owns the sheraton hotel chain	118192475	1475173414366	1475173414468	 	32
232522	2488503	ITT owns the Sheraton hotel chain.	ITT owns the sheraton hotel chain	118192481	1475173414569	1475173414644	h	72
232522	2488503	ITT owns the Sheraton hotel chain.	ITT owns the sheraton hotel chain	118192484	1475173414698	1475173414766	o	79
232522	2488503	ITT owns the Sheraton hotel chain.	ITT owns the sheraton hotel chain	118192492	1475173414907	1475173415004	t	84
232522	2488503	ITT owns the Sheraton hotel chain.	ITT owns the sheraton hotel chain	118192526	1475173414993	1475173415102	e	69
232522	2488503	ITT owns the Sheraton hotel chain.	ITT owns the sheraton hotel chain	118192531	1475173415127	1475173415224	l	76
232522	2488503	ITT owns the Sheraton hotel chain.	ITT owns the sheraton hotel chain	118192537	1475173415245	1475173415338	 	32
232522	2488503	ITT owns the Sheraton hotel chain.	ITT owns the sheraton hotel chain	118192542	1475173415405	1475173415503	c	67
232522	2488503	ITT owns the Sheraton hotel chain.	ITT owns the sheraton hotel chain	118192548	1475173415507	1475173415586	h	72
232522	2488503	ITT owns the Sheraton hotel chain.	ITT owns the sheraton hotel chain	118192650	1475173415557	1475173415667	a	65
232522	2488503	ITT owns the Sheraton hotel chain.	ITT owns the sheraton hotel chain	118192656	1475173415668	1475173415747	n	78
232522	2488503	ITT owns the Sheraton hotel chain.	ITT owns the sheraton hotel chain	118192663	1475173415744	1475173415876	i	73
232522	2488503	ITT owns the Sheraton hotel chain.	ITT owns the sheraton hotel chain	118192670	1475173415834	1475173415932	n	78
232522	2488503	ITT owns the Sheraton hotel chain.	ITT owns the sheraton hotel chain	118192674	1475173416191	1475173416254	BKSP	8
232522	2488503	ITT owns the Sheraton hotel chain.	ITT owns the sheraton hotel chain	118192676	1475173416292	1475173416358	BKSP	8
232522	2488503	ITT owns the Sheraton hotel chain.	ITT owns the sheraton hotel chain	118192677	1475173416388	1475173416459	BKSP	8
232522	2488503	ITT owns the Sheraton hotel chain.	ITT owns the sheraton hotel chain	118192678	1475173416497	1475173416548	BKSP	8
232522	2488503	ITT owns the Sheraton hotel chain.	ITT owns the sheraton hotel chain	118192679	1475173417146	1475173417246	a	65
232522	2488503	ITT owns the Sheraton hotel chain.	ITT owns the sheraton hotel chain	118192673	1475173417220	1475173417328	i	73
232522	2488503	ITT owns the Sheraton hotel chain.	ITT owns the sheraton hotel chain	118192675	1475173417267	1475173417364	n	78
232522	2488513	Will you and KB be around this afternoon?	Will you and kb be around this afternooM?	118192805	1475173418920	1475173419208	SHIFT	16
232522	2488513	Will you and KB be around this afternoon?	Will you and kb be around this afternooM?	118192803	1475173419074	1475173419193	W	87
232522	2488513	Will you and KB be around this afternoon?	Will you and kb be around this afternooM?	118192808	1475173419259	1475173419337	i	73
232522	2488513	Will you and KB be around this afternoon?	Will you and kb be around this afternooM?	118192811	1475173419401	1475173419452	k	75
232522	2488513	Will you and KB be around this afternoon?	Will you and kb be around this afternooM?	118192818	1475173419501	1475173419584	l	76
232522	2488513	Will you and KB be around this afternoon?	Will you and kb be around this afternooM?	118192823	1475173419625	1475173419712	 	32
232522	2488513	Will you and KB be around this afternoon?	Will you and kb be around this afternooM?	118192848	1475173419702	1475173419796	y	89
232522	2488513	Will you and KB be around this afternoon?	Will you and kb be around this afternooM?	118192853	1475173419751	1475173419881	o	79
232522	2488513	Will you and KB be around this afternoon?	Will you and kb be around this afternooM?	118192858	1475173419813	1475173419928	 	85
232522	2488513	Will you and KB be around this afternoon?	Will you and kb be around this afternooM?	118192863	1475173420166	1475173420232	=	187
232522	2488513	Will you and KB be around this afternoon?	Will you and kb be around this afternooM?	118192866	1475173420283	1475173420328	=	187
232522	2488513	Will you and KB be around this afternoon?	Will you and kb be around this afternooM?	118192926	1475173420289	1475173420331	BKSP	8
232522	2488513	Will you and KB be around this afternoon?	Will you and kb be around this afternooM?	118192928	1475173420373	1475173420443	BKSP	8
232522	2488513	Will you and KB be around this afternoon?	Will you and kb be around this afternooM?	118192930	1475173420473	1475173420536	BKSP	8
232522	2488513	Will you and KB be around this afternoon?	Will you and kb be around this afternooM?	118192934	1475173420569	1475173420636	BKSP	8
232522	2488513	Will you and KB be around this afternoon?	Will you and kb be around this afternooM?	118192937	1475173420681	1475173420725	BKSP	8
232522	2488513	Will you and KB be around this afternoon?	Will you and kb be around this afternooM?	118192943	1475173420764	1475173420813	BKSP	8
232522	2488513	Will you and KB be around this afternoon?	Will you and kb be around this afternooM?	118192945	1475173420852	1475173420920	BKSP	8
232522	2488513	Will you and KB be around this afternoon?	Will you and kb be around this afternooM?	118192949	1475173420950	1475173421010	BKSP	8
232522	2488513	Will you and KB be around this afternoon?	Will you and kb be around this afternooM?	118192953	1475173421051	1475173421113	BKSP	8
232522	2488513	Will you and KB be around this afternoon?	Will you and kb be around this afternooM?	118192956	1475173421664	1475173421739	l	76
232522	2488513	Will you and KB be around this afternoon?	Will you and kb be around this afternooM?	118192960	1475173421779	1475173421857	l	76
232522	2488513	Will you and KB be around this afternoon?	Will you and kb be around this afternooM?	118192963	1475173421925	1475173422017	 	32
232522	2488513	Will you and KB be around this afternoon?	Will you and kb be around this afternooM?	118192967	1475173421998	1475173422103	y	89
232522	2488513	Will you and KB be around this afternoon?	Will you and kb be around this afternooM?	118192970	1475173422058	1475173422186	o	79
232522	2488513	Will you and KB be around this afternoon?	Will you and kb be around this afternooM?	118192972	1475173422107	1475173422226	u	85
232522	2488513	Will you and KB be around this afternoon?	Will you and kb be around this afternooM?	118192974	1475173422162	1475173422265	 	32
232522	2488513	Will you and KB be around this afternoon?	Will you and kb be around this afternooM?	118192975	1475173422451	1475173422538	a	65
232522	2488513	Will you and KB be around this afternoon?	Will you and kb be around this afternooM?	118192977	1475173422557	1475173422647	n	78
232522	2488513	Will you and KB be around this afternoon?	Will you and kb be around this afternooM?	118192979	1475173422651	1475173422745	d	68
232522	2488513	Will you and KB be around this afternoon?	Will you and kb be around this afternooM?	118193051	1475173422734	1475173422817	 	32
232522	2488513	Will you and KB be around this afternoon?	Will you and kb be around this afternooM?	118193052	1475173423322	1475173423414	k	75
232522	2488513	Will you and KB be around this afternoon?	Will you and kb be around this afternooM?	118193054	1475173423373	1475173423465	b	66
232522	2488513	Will you and KB be around this afternoon?	Will you and kb be around this afternooM?	118193057	1475173423469	1475173423553	 	32
232522	2488513	Will you and KB be around this afternoon?	Will you and kb be around this afternooM?	118193061	1475173424164	1475173424247	b	66
232522	2488513	Will you and KB be around this afternoon?	Will you and kb be around this afternooM?	118193082	1475173424216	1475173424302	e	69
232522	2488513	Will you and KB be around this afternoon?	Will you and kb be around this afternooM?	118193089	1475173424296	1475173424373	 	32
232522	2488513	Will you and KB be around this afternoon?	Will you and kb be around this afternooM?	118193097	1475173424396	1475173424486	a	65
232522	2488513	Will you and KB be around this afternoon?	Will you and kb be around this afternooM?	118193104	1475173424527	1475173424629	t	84
232522	2488513	Will you and KB be around this afternoon?	Will you and kb be around this afternooM?	118193109	1475173424617	1475173424713	o	79
232522	2488513	Will you and KB be around this afternoon?	Will you and kb be around this afternooM?	118193173	1475173424659	1475173424740	u	85
232522	2488513	Will you and KB be around this afternoon?	Will you and kb be around this afternooM?	118193177	1475173424793	1475173424860	n	78
232522	2488513	Will you and KB be around this afternoon?	Will you and kb be around this afternooM?	118193183	1475173425008	1475173425065	BKSP	8
232522	2488513	Will you and KB be around this afternoon?	Will you and kb be around this afternooM?	118193187	1475173425099	1475173425166	BKSP	8
232522	2488513	Will you and KB be around this afternoon?	Will you and kb be around this afternooM?	118193194	1475173425198	1475173425269	BKSP	8
232522	2488513	Will you and KB be around this afternoon?	Will you and kb be around this afternooM?	118193202	1475173425301	1475173425382	BKSP	8
232522	2488513	Will you and KB be around this afternoon?	Will you and kb be around this afternooM?	118193208	1475173425457	1475173425562	r	82
232522	2488513	Will you and KB be around this afternoon?	Will you and kb be around this afternooM?	118193213	1475173425538	1475173425677	o	79
232522	2488513	Will you and KB be around this afternoon?	Will you and kb be around this afternooM?	118193218	1475173425606	1475173425687	u	85
232522	2488513	Will you and KB be around this afternoon?	Will you and kb be around this afternooM?	118193223	1475173425741	1475173425828	n	78
232522	2488513	Will you and KB be around this afternoon?	Will you and kb be around this afternooM?	118193226	1475173425809	1475173425899	d	68
232522	2488513	Will you and KB be around this afternoon?	Will you and kb be around this afternooM?	118193232	1475173425892	1475173425995	 	32
232522	2488513	Will you and KB be around this afternoon?	Will you and kb be around this afternooM?	118193235	1475173426041	1475173426137	t	84
232522	2488513	Will you and KB be around this afternoon?	Will you and kb be around this afternooM?	118193241	1475173426129	1475173426238	h	72
232522	2488513	Will you and KB be around this afternoon?	Will you and kb be around this afternooM?	118193246	1475173426199	1475173426315	i	73
232522	2488513	Will you and KB be around this afternoon?	Will you and kb be around this afternooM?	118193252	1475173426330	1475173426422	s	83
232522	2488513	Will you and KB be around this afternoon?	Will you and kb be around this afternooM?	118193270	1475173426398	1475173426490	 	32
232522	2488513	Will you and KB be around this afternoon?	Will you and kb be around this afternooM?	118193273	1475173426539	1475173426637	a	65
232522	2488513	Will you and KB be around this afternoon?	Will you and kb be around this afternooM?	118193281	1475173426701	1475173426828	f	70
232522	2488513	Will you and KB be around this afternoon?	Will you and kb be around this afternooM?	118193288	1475173426926	1475173427007	t	84
232522	2488513	Will you and KB be around this afternoon?	Will you and kb be around this afternooM?	118193299	1475173426977	1475173427094	e	69
232522	2488513	Will you and KB be around this afternoon?	Will you and kb be around this afternooM?	118193345	1475173427030	1475173427132	r	82
232522	2488513	Will you and KB be around this afternoon?	Will you and kb be around this afternooM?	118193351	1475173427474	1475173427544	n	78
232522	2488513	Will you and KB be around this afternoon?	Will you and kb be around this afternooM?	118193358	1475173427658	1475173427718	o	79
232522	2488513	Will you and KB be around this afternoon?	Will you and kb be around this afternooM?	118193364	1475173427773	1475173427891	o	79
232522	2488513	Will you and KB be around this afternoon?	Will you and kb be around this afternooM?	118193370	1475173427940	1475173428003	o	79
232522	2488513	Will you and KB be around this afternoon?	Will you and kb be around this afternooM?	118193424	1475173427998	1475173428094	n	78
232522	2488513	Will you and KB be around this afternoon?	Will you and kb be around this afternooM?	118193427	1475173428216	1475173428428	SHIFT	16
232522	2488513	Will you and KB be around this afternoon?	Will you and kb be around this afternooM?	118193431	1475173428497	1475173428559	BKSP	8
232522	2488513	Will you and KB be around this afternoon?	Will you and kb be around this afternooM?	118193433	1475173428584	1475173428661	BKSP	8
232522	2488513	Will you and KB be around this afternoon?	Will you and kb be around this afternooM?	118193437	1475173428869	1475173428960	M	77
232522	2488533	The injury is more serious than the Panthers first expected.	The injury is more serious than the panthers first expected	118193557	1475173431077	1475173431156	T	84
232522	2488533	The injury is more serious than the Panthers first expected.	The injury is more serious than the panthers first expected	118193561	1475173431138	1475173431211	h	72
232522	2488533	The injury is more serious than the Panthers first expected.	The injury is more serious than the panthers first expected	118193566	1475173431221	1475173431293	e	69
232522	2488533	The injury is more serious than the Panthers first expected.	The injury is more serious than the panthers first expected	118193571	1475173431277	1475173431379	 	32
232522	2488533	The injury is more serious than the Panthers first expected.	The injury is more serious than the panthers first expected	118193577	1475173431403	1475173431484	i	73
232522	2488533	The injury is more serious than the Panthers first expected.	The injury is more serious than the panthers first expected	118193643	1475173431480	1475173431574	n	78
232522	2488533	The injury is more serious than the Panthers first expected.	The injury is more serious than the panthers first expected	118193646	1475173431842	1475173431908	j	74
232522	2488533	The injury is more serious than the Panthers first expected.	The injury is more serious than the panthers first expected	118193650	1475173431940	1475173432032	u	85
232522	2488533	The injury is more serious than the Panthers first expected.	The injury is more serious than the panthers first expected	118193654	1475173432098	1475173432199	s	83
232522	2488533	The injury is more serious than the Panthers first expected.	The injury is more serious than the panthers first expected	118193657	1475173432477	1475173432580	BKSP	8
232522	2488533	The injury is more serious than the Panthers first expected.	The injury is more serious than the panthers first expected	118193662	1475173432597	1475173432696	r	82
232522	2488533	The injury is more serious than the Panthers first expected.	The injury is more serious than the panthers first expected	118193665	1475173432704	1475173432796	y	89
232522	2488533	The injury is more serious than the Panthers first expected.	The injury is more serious than the panthers first expected	118193683	1475173432815	1475173432914	 	32
232522	2488533	The injury is more serious than the Panthers first expected.	The injury is more serious than the panthers first expected	118193687	1475173433068	1475173433149	i	73
232522	2488533	The injury is more serious than the Panthers first expected.	The injury is more serious than the panthers first expected	118193697	1475173433143	1475173433234	s	83
232522	2488533	The injury is more serious than the Panthers first expected.	The injury is more serious than the panthers first expected	118193701	1475173433194	1475173433292	 	32
232522	2488533	The injury is more serious than the Panthers first expected.	The injury is more serious than the panthers first expected	118193711	1475173433324	1475173433421	m	77
232522	2488533	The injury is more serious than the Panthers first expected.	The injury is more serious than the panthers first expected	118193729	1475173433437	1475173433527	o	79
232522	2488533	The injury is more serious than the Panthers first expected.	The injury is more serious than the panthers first expected	118193732	1475173433482	1475173433606	r	82
232522	2488533	The injury is more serious than the Panthers first expected.	The injury is more serious than the panthers first expected	118193736	1475173433546	1475173433649	e	69
232522	2488533	The injury is more serious than the Panthers first expected.	The injury is more serious than the panthers first expected	118193738	1475173433614	1475173433717	 	32
232522	2488533	The injury is more serious than the Panthers first expected.	The injury is more serious than the panthers first expected	118193741	1475173433791	1475173433873	s	83
232522	2488533	The injury is more serious than the Panthers first expected.	The injury is more serious than the panthers first expected	118193768	1475173433997	1475173434183	e	69
232522	2488533	The injury is more serious than the Panthers first expected.	The injury is more serious than the panthers first expected	118193773	1475173434123	1475173434255	r	82
232522	2488533	The injury is more serious than the Panthers first expected.	The injury is more serious than the panthers first expected	118193779	1475173434448	1475173434538	i	73
232522	2488533	The injury is more serious than the Panthers first expected.	The injury is more serious than the panthers first expected	118193786	1475173434529	1475173434668	o	79
232522	2488533	The injury is more serious than the Panthers first expected.	The injury is more serious than the panthers first expected	118193852	1475173434604	1475173434699	u	85
232522	2488533	The injury is more serious than the Panthers first expected.	The injury is more serious than the panthers first expected	118193854	1475173434696	1475173434790	s	83
232522	2488533	The injury is more serious than the Panthers first expected.	The injury is more serious than the panthers first expected	118193858	1475173434800	1475173434891	 	32
232522	2488533	The injury is more serious than the Panthers first expected.	The injury is more serious than the panthers first expected	118193861	1475173435435	1475173435515	t	84
232522	2488533	The injury is more serious than the Panthers first expected.	The injury is more serious than the panthers first expected	118193864	1475173435500	1475173435579	h	72
232522	2488533	The injury is more serious than the Panthers first expected.	The injury is more serious than the panthers first expected	118193867	1475173435587	1475173435678	a	65
232522	2488533	The injury is more serious than the Panthers first expected.	The injury is more serious than the panthers first expected	118193880	1475173435614	1475173435706	b	66
232522	2488533	The injury is more serious than the Panthers first expected.	The injury is more serious than the panthers first expected	118193884	1475173435716	1475173435810	 	32
232522	2488533	The injury is more serious than the Panthers first expected.	The injury is more serious than the panthers first expected	118193889	1475173435842	1475173435924	t	84
232522	2488533	The injury is more serious than the Panthers first expected.	The injury is more serious than the panthers first expected	118193894	1475173435883	1475173435970	h	72
232522	2488533	The injury is more serious than the Panthers first expected.	The injury is more serious than the panthers first expected	118193899	1475173435996	1475173436073	e	69
232522	2488533	The injury is more serious than the Panthers first expected.	The injury is more serious than the panthers first expected	118194008	1475173436026	1475173436118	 	32
232522	2488533	The injury is more serious than the Panthers first expected.	The injury is more serious than the panthers first expected	118194011	1475173436411	1475173436490	BKSP	8
232522	2488533	The injury is more serious than the Panthers first expected.	The injury is more serious than the panthers first expected	118194014	1475173436510	1475173436584	BKSP	8
232522	2488533	The injury is more serious than the Panthers first expected.	The injury is more serious than the panthers first expected	118194016	1475173436610	1475173436691	BKSP	8
232522	2488533	The injury is more serious than the Panthers first expected.	The injury is more serious than the panthers first expected	118194019	1475173436721	1475173436792	BKSP	8
232522	2488533	The injury is more serious than the Panthers first expected.	The injury is more serious than the panthers first expected	118194024	1475173436813	1475173436877	BKSP	8
232522	2488533	The injury is more serious than the Panthers first expected.	The injury is more serious than the panthers first expected	118194027	1475173436914	1475173436978	BKSP	8
232522	2488533	The injury is more serious than the Panthers first expected.	The injury is more serious than the panthers first expected	118194032	1475173437025	1475173437065	BKSP	8
232522	2488533	The injury is more serious than the Panthers first expected.	The injury is more serious than the panthers first expected	118194037	1475173437615	1475173437719	a	65
232522	2488533	The injury is more serious than the Panthers first expected.	The injury is more serious than the panthers first expected	118194042	1475173437706	1475173437792	n	78
232522	2488533	The injury is more serious than the Panthers first expected.	The injury is more serious than the panthers first expected	118194047	1475173437800	1475173437896	 	32
232522	2488533	The injury is more serious than the Panthers first expected.	The injury is more serious than the panthers first expected	118194050	1475173437901	1475173437982	t	84
232522	2488533	The injury is more serious than the Panthers first expected.	The injury is more serious than the panthers first expected	118194087	1475173437956	1475173438035	h	72
232522	2488533	The injury is more serious than the Panthers first expected.	The injury is more serious than the panthers first expected	118194090	1475173438050	1475173438135	e	69
232522	2488533	The injury is more serious than the Panthers first expected.	The injury is more serious than the panthers first expected	118194093	1475173438088	1475173438189	 	32
232522	2488533	The injury is more serious than the Panthers first expected.	The injury is more serious than the panthers first expected	118194096	1475173438457	1475173438546	p	80
232522	2488533	The injury is more serious than the Panthers first expected.	The injury is more serious than the panthers first expected	118194101	1475173438529	1475173438627	a	65
232522	2488533	The injury is more serious than the Panthers first expected.	The injury is more serious than the panthers first expected	118194105	1475173438884	1475173438976	n	78
232522	2488533	The injury is more serious than the Panthers first expected.	The injury is more serious than the panthers first expected	118194123	1475173439169	1475173439259	t	84
232522	2488533	The injury is more serious than the Panthers first expected.	The injury is more serious than the panthers first expected	118194126	1475173439265	1475173439346	h	72
232522	2488533	The injury is more serious than the Panthers first expected.	The injury is more serious than the panthers first expected	118194129	1475173439327	1475173439429	e	69
232522	2488533	The injury is more serious than the Panthers first expected.	The injury is more serious than the panthers first expected	118194135	1475173439382	1475173439491	r	82
232522	2488533	The injury is more serious than the Panthers first expected.	The injury is more serious than the panthers first expected	118194142	1475173439501	1475173439645	s	83
232522	2488533	The injury is more serious than the Panthers first expected.	The injury is more serious than the panthers first expected	118194221	1475173439930	1475173440015	 	32
232522	2488533	The injury is more serious than the Panthers first expected.	The injury is more serious than the panthers first expected	118194226	1475173440260	1475173440335	f	70
232522	2488533	The injury is more serious than the Panthers first expected.	The injury is more serious than the panthers first expected	118194230	1475173440586	1475173440673	i	73
232522	2488533	The injury is more serious than the Panthers first expected.	The injury is more serious than the panthers first expected	118194236	1475173440703	1475173440833	r	82
232522	2488533	The injury is more serious than the Panthers first expected.	The injury is more serious than the panthers first expected	118194276	1475173440791	1475173440925	s	83
232522	2488533	The injury is more serious than the Panthers first expected.	The injury is more serious than the panthers first expected	118194281	1475173440935	1475173441021	t	84
232522	2488533	The injury is more serious than the Panthers first expected.	The injury is more serious than the panthers first expected	118194287	1475173441049	1475173441156	 	32
232522	2488533	The injury is more serious than the Panthers first expected.	The injury is more serious than the panthers first expected	118194293	1475173441205	1475173441293	e	69
232522	2488533	The injury is more serious than the Panthers first expected.	The injury is more serious than the panthers first expected	118194299	1475173441389	1475173441496	x	88
232522	2488533	The injury is more serious than the Panthers first expected.	The injury is more serious than the panthers first expected	118194305	1475173441559	1475173441633	p	80
232522	2488533	The injury is more serious than the Panthers first expected.	The injury is more serious than the panthers first expected	118194332	1475173441651	1475173441742	e	69
232522	2488533	The injury is more serious than the Panthers first expected.	The injury is more serious than the panthers first expected	118194338	1475173441808	1475173441915	c	67
232522	2488533	The injury is more serious than the Panthers first expected.	The injury is more serious than the panthers first expected	118194345	1475173441987	1475173442077	t	84
232522	2488533	The injury is more serious than the Panthers first expected.	The injury is more serious than the panthers first expected	118194353	1475173442087	1475173442237	e	69
232522	2488533	The injury is more serious than the Panthers first expected.	The injury is more serious than the panthers first expected	118194368	1475173442189	1475173442276	d	68
232522	2488533	The injury is more serious than the Panthers first expected.	The injury is more serious than the panthers first expected	118194372	1475173442374	1475173442453	SHIFT	16
232522	2488551	They may want to discuss with you.	They may want to discuss with you.	118194521	1475173444139	1475173444353	SHIFT	16
232522	2488551	They may want to discuss with you.	They may want to discuss with you.	118194525	1475173444274	1475173444376	T	84
232522	2488551	They may want to discuss with you.	They may want to discuss with you.	118194531	1475173444387	1475173444462	h	72
232522	2488551	They may want to discuss with you.	They may want to discuss with you.	118194538	1475173444446	1475173444530	e	69
232522	2488551	They may want to discuss with you.	They may want to discuss with you.	118194545	1475173444508	1475173444590	y	89
232522	2488551	They may want to discuss with you.	They may want to discuss with you.	118194602	1475173444566	1475173444671	 	32
232522	2488551	They may want to discuss with you.	They may want to discuss with you.	118194606	1475173445070	1475173445157	m	77
232522	2488551	They may want to discuss with you.	They may want to discuss with you.	118194614	1475173445127	1475173445234	a	65
232522	2488551	They may want to discuss with you.	They may want to discuss with you.	118194624	1475173445249	1475173445335	y	89
232522	2488551	They may want to discuss with you.	They may want to discuss with you.	118194632	1475173445327	1475173445430	 	32
232522	2488551	They may want to discuss with you.	They may want to discuss with you.	118194637	1475173445451	1475173445569	w	87
232522	2488551	They may want to discuss with you.	They may want to discuss with you.	118194657	1475173445501	1475173445622	a	65
232522	2488551	They may want to discuss with you.	They may want to discuss with you.	118194661	1475173445609	1475173445708	n	78
232522	2488551	They may want to discuss with you.	They may want to discuss with you.	118194665	1475173445752	1475173445853	t	84
232522	2488551	They may want to discuss with you.	They may want to discuss with you.	118194668	1475173445840	1475173445996	 	32
232522	2488551	They may want to discuss with you.	They may want to discuss with you.	118194671	1475173446176	1475173446276	t	84
232522	2488551	They may want to discuss with you.	They may want to discuss with you.	118194718	1475173446219	1475173446304	o	79
232522	2488551	They may want to discuss with you.	They may want to discuss with you.	118194720	1475173446300	1475173446411	 	32
232522	2488551	They may want to discuss with you.	They may want to discuss with you.	118194723	1475173446565	1475173446659	d	68
232522	2488551	They may want to discuss with you.	They may want to discuss with you.	118194727	1475173446665	1475173446745	i	73
232522	2488551	They may want to discuss with you.	They may want to discuss with you.	118194731	1475173446789	1475173446884	s	83
232522	2488551	They may want to discuss with you.	They may want to discuss with you.	118194734	1475173447066	1475173447162	c	67
232522	2488551	They may want to discuss with you.	They may want to discuss with you.	118194764	1475173447200	1475173447293	u	85
232522	2488551	They may want to discuss with you.	They may want to discuss with you.	118194765	1475173447340	1475173447427	s	83
232522	2488551	They may want to discuss with you.	They may want to discuss with you.	118194766	1475173447499	1475173447578	s	83
232522	2488551	They may want to discuss with you.	They may want to discuss with you.	118194768	1475173447628	1475173447720	 	32
232522	2488551	They may want to discuss with you.	They may want to discuss with you.	118194772	1475173447754	1475173447850	w	87
232522	2488551	They may want to discuss with you.	They may want to discuss with you.	118194791	1475173447843	1475173447927	i	73
232522	2488551	They may want to discuss with you.	They may want to discuss with you.	118194795	1475173447939	1475173448042	t	84
232522	2488551	They may want to discuss with you.	They may want to discuss with you.	118194802	1475173447992	1475173448078	h	72
232522	2488551	They may want to discuss with you.	They may want to discuss with you.	118194807	1475173448071	1475173448165	 	32
232522	2488551	They may want to discuss with you.	They may want to discuss with you.	118194810	1475173448182	1475173448287	y	89
232522	2488551	They may want to discuss with you.	They may want to discuss with you.	118194818	1475173448206	1475173448318	o	79
232522	2488551	They may want to discuss with you.	They may want to discuss with you.	118194820	1475173448262	1475173448344	u	85
232522	2488551	They may want to discuss with you.	They may want to discuss with you.	118194823	1475173448542	1475173448636	.	190
232522	2488564	Thanks for your concern.	Thanks for your concern.	118194944	1475173450181	1475173450437	SHIFT	16
232522	2488564	Thanks for your concern.	Thanks for your concern.	118194947	1475173450369	1475173450452	T	84
232522	2488564	Thanks for your concern.	Thanks for your concern.	118194950	1475173450439	1475173450521	h	72
232522	2488564	Thanks for your concern.	Thanks for your concern.	118194953	1475173450518	1475173450612	a	65
232522	2488564	Thanks for your concern.	Thanks for your concern.	118194956	1475173450602	1475173450738	n	78
232522	2488564	Thanks for your concern.	Thanks for your concern.	118194994	1475173450727	1475173450829	k	75
232522	2488564	Thanks for your concern.	Thanks for your concern.	118195000	1475173450874	1475173450963	s	83
232522	2488564	Thanks for your concern.	Thanks for your concern.	118195009	1475173450955	1475173451050	 	32
232522	2488564	Thanks for your concern.	Thanks for your concern.	118195017	1475173451142	1475173451255	f	70
232522	2488564	Thanks for your concern.	Thanks for your concern.	118195021	1475173451231	1475173451319	o	79
232522	2488564	Thanks for your concern.	Thanks for your concern.	118195026	1475173451342	1475173451417	r	82
232522	2488564	Thanks for your concern.	Thanks for your concern.	118195036	1475173451421	1475173451511	 	32
232522	2488564	Thanks for your concern.	Thanks for your concern.	118195040	1475173451515	1475173451622	y	89
232522	2488564	Thanks for your concern.	Thanks for your concern.	118195045	1475173451579	1475173451703	o	79
232522	2488564	Thanks for your concern.	Thanks for your concern.	118195050	1475173451626	1475173451739	u	85
232522	2488564	Thanks for your concern.	Thanks for your concern.	118195055	1475173451760	1475173451850	r	82
232522	2488564	Thanks for your concern.	Thanks for your concern.	118195106	1475173451835	1475173451933	 	32
232522	2488564	Thanks for your concern.	Thanks for your concern.	118195113	1475173452025	1475173452111	c	67
232522	2488564	Thanks for your concern.	Thanks for your concern.	118195122	1475173452068	1475173452136	o	79
232522	2488564	Thanks for your concern.	Thanks for your concern.	118195133	1475173452161	1475173452258	n	78
232522	2488564	Thanks for your concern.	Thanks for your concern.	118195141	1475173452281	1475173452375	s	83
232522	2488564	Thanks for your concern.	Thanks for your concern.	118195146	1475173452798	1475173452863	BKSP	8
232522	2488564	Thanks for your concern.	Thanks for your concern.	118195245	1475173452853	1475173452939	c	67
232522	2488564	Thanks for your concern.	Thanks for your concern.	118195251	1475173452953	1475173453094	e	69
232522	2488564	Thanks for your concern.	Thanks for your concern.	118195257	1475173453038	1475173453158	r	82
232522	2488564	Thanks for your concern.	Thanks for your concern.	118195263	1475173453338	1475173453426	n	78
232522	2488564	Thanks for your concern.	Thanks for your concern.	118195269	1475173453490	1475173453575	'	222
232522	2488564	Thanks for your concern.	Thanks for your concern.	118195275	1475173454138	1475173454227	BKSP	8
232522	2488564	Thanks for your concern.	Thanks for your concern.	118195278	1475173454296	1475173454373	.	190
232522	2488571	I'm trying to get them billed before the holidays.	I'm trying to get them billed before the holidays.	118195568	1475173454396	1475173456302	SHIFT	16
232522	2488571	I'm trying to get them billed before the holidays.	I'm trying to get them billed before the holidays.	118195570	1475173457031	1475173457346	SHIFT	16
232522	2488571	I'm trying to get them billed before the holidays.	I'm trying to get them billed before the holidays.	118195569	1475173457241	1475173457329	I	73
232522	2488571	I'm trying to get them billed before the holidays.	I'm trying to get them billed before the holidays.	118195571	1475173457427	1475173457521	'	222
232522	2488571	I'm trying to get them billed before the holidays.	I'm trying to get them billed before the holidays.	118195572	1475173457613	1475173457694	m	77
232522	2488571	I'm trying to get them billed before the holidays.	I'm trying to get them billed before the holidays.	118195573	1475173457707	1475173457806	 	32
232522	2488571	I'm trying to get them billed before the holidays.	I'm trying to get them billed before the holidays.	118195574	1475173458024	1475173458150	t	84
232522	2488571	I'm trying to get them billed before the holidays.	I'm trying to get them billed before the holidays.	118195582	1475173458075	1475173458201	r	82
232522	2488571	I'm trying to get them billed before the holidays.	I'm trying to get them billed before the holidays.	118195586	1475173458160	1475173458246	y	89
232522	2488571	I'm trying to get them billed before the holidays.	I'm trying to get them billed before the holidays.	118195591	1475173458228	1475173458393	i	73
232522	2488571	I'm trying to get them billed before the holidays.	I'm trying to get them billed before the holidays.	118195597	1475173458309	1475173458425	n	78
232522	2488571	I'm trying to get them billed before the holidays.	I'm trying to get them billed before the holidays.	118195603	1475173458390	1475173458482	g	71
232522	2488571	I'm trying to get them billed before the holidays.	I'm trying to get them billed before the holidays.	118195653	1475173458465	1475173458572	 	32
232522	2488571	I'm trying to get them billed before the holidays.	I'm trying to get them billed before the holidays.	118195654	1475173458569	1475173458674	o	84
232522	2488571	I'm trying to get them billed before the holidays.	I'm trying to get them billed before the holidays.	118195656	1475173458663	1475173458761	 	32
232522	2488571	I'm trying to get them billed before the holidays.	I'm trying to get them billed before the holidays.	118195660	1475173459325	1475173459416	g	71
232522	2488571	I'm trying to get them billed before the holidays.	I'm trying to get them billed before the holidays.	118195706	1475173459409	1475173459534	e	69
232522	2488571	I'm trying to get them billed before the holidays.	I'm trying to get them billed before the holidays.	118195709	1475173459513	1475173459594	t	84
232522	2488571	I'm trying to get them billed before the holidays.	I'm trying to get them billed before the holidays.	118195713	1475173459611	1475173459716	 	32
232522	2488571	I'm trying to get them billed before the holidays.	I'm trying to get them billed before the holidays.	118195717	1475173459772	1475173459864	t	84
232522	2488571	I'm trying to get them billed before the holidays.	I'm trying to get them billed before the holidays.	118195721	1475173459850	1475173459930	h	72
232522	2488571	I'm trying to get them billed before the holidays.	I'm trying to get them billed before the holidays.	118195782	1475173459927	1475173460029	e	69
232522	2488571	I'm trying to get them billed before the holidays.	I'm trying to get them billed before the holidays.	118195789	1475173460003	1475173460091	m	77
232522	2488571	I'm trying to get them billed before the holidays.	I'm trying to get them billed before the holidays.	118195795	1475173460098	1475173460198	 	32
232522	2488571	I'm trying to get them billed before the holidays.	I'm trying to get them billed before the holidays.	118195802	1475173460613	1475173460696	b	66
232522	2488571	I'm trying to get them billed before the holidays.	I'm trying to get them billed before the holidays.	118195811	1475173460766	1475173460845	i	73
232522	2488571	I'm trying to get them billed before the holidays.	I'm trying to get them billed before the holidays.	118195823	1475173460927	1475173461001	l	76
232522	2488571	I'm trying to get them billed before the holidays.	I'm trying to get them billed before the holidays.	118195855	1475173461038	1475173461128	l	76
232522	2488571	I'm trying to get them billed before the holidays.	I'm trying to get them billed before the holidays.	118195857	1475173461147	1475173461239	e	69
232522	2488571	I'm trying to get them billed before the holidays.	I'm trying to get them billed before the holidays.	118195862	1475173461288	1475173461382	d	68
232522	2488571	I'm trying to get them billed before the holidays.	I'm trying to get them billed before the holidays.	118195867	1475173461415	1475173461490	 	32
232522	2488571	I'm trying to get them billed before the holidays.	I'm trying to get them billed before the holidays.	118195872	1475173461825	1475173461904	b	66
232522	2488571	I'm trying to get them billed before the holidays.	I'm trying to get them billed before the holidays.	118195896	1475173461899	1475173461976	e	69
232522	2488571	I'm trying to get them billed before the holidays.	I'm trying to get them billed before the holidays.	118195905	1475173462027	1475173462115	f	70
232522	2488571	I'm trying to get them billed before the holidays.	I'm trying to get them billed before the holidays.	118195913	1475173462134	1475173462216	o	79
232522	2488571	I'm trying to get them billed before the holidays.	I'm trying to get them billed before the holidays.	118195921	1475173462184	1475173462284	r	82
232522	2488571	I'm trying to get them billed before the holidays.	I'm trying to get them billed before the holidays.	118195929	1475173462239	1475173462343	e	69
232522	2488571	I'm trying to get them billed before the holidays.	I'm trying to get them billed before the holidays.	118195969	1475173462292	1475173462388	 	32
232522	2488571	I'm trying to get them billed before the holidays.	I'm trying to get them billed before the holidays.	118195975	1475173462400	1475173462477	t	84
232522	2488571	I'm trying to get them billed before the holidays.	I'm trying to get them billed before the holidays.	118195981	1475173462454	1475173462537	h	72
232522	2488571	I'm trying to get them billed before the holidays.	I'm trying to get them billed before the holidays.	118195986	1475173462543	1475173462648	e	69
232522	2488571	I'm trying to get them billed before the holidays.	I'm trying to get them billed before the holidays.	118195990	1475173462601	1475173462697	 	32
232522	2488571	I'm trying to get them billed before the holidays.	I'm trying to get them billed before the holidays.	118195995	1475173462924	1475173463007	h	72
232522	2488571	I'm trying to get them billed before the holidays.	I'm trying to get them billed before the holidays.	118196043	1475173463091	1475173463160	o	79
232522	2488571	I'm trying to get them billed before the holidays.	I'm trying to get them billed before the holidays.	118196048	1475173463228	1475173463361	l	76
232522	2488571	I'm trying to get them billed before the holidays.	I'm trying to get them billed before the holidays.	118196057	1475173463453	1475173463532	i	73
232522	2488571	I'm trying to get them billed before the holidays.	I'm trying to get them billed before the holidays.	118196064	1475173463671	1475173463766	d	68
232522	2488571	I'm trying to get them billed before the holidays.	I'm trying to get them billed before the holidays.	118196164	1475173463759	1475173463872	a	65
232522	2488571	I'm trying to get them billed before the holidays.	I'm trying to get them billed before the holidays.	118196169	1475173463880	1475173463967	y	89
232522	2488571	I'm trying to get them billed before the holidays.	I'm trying to get them billed before the holidays.	118196173	1475173463963	1475173464064	s	83
232522	2488571	I'm trying to get them billed before the holidays.	I'm trying to get them billed before the holidays.	118196178	1475173464547	1475173464623	.	190
232522	2488591	He beat world number one Greg Norman by six strokes.	He beat the world number one Greg Norman by Six Strokes	118196351	1475173466550	1475173466933	SHIFT	16
232522	2488591	He beat world number one Greg Norman by six strokes.	He beat the world number one Greg Norman by Six Strokes	118196355	1475173466848	1475173466937	H	72
232522	2488591	He beat world number one Greg Norman by six strokes.	He beat the world number one Greg Norman by Six Strokes	118196360	1475173466982	1475173467074	e	69
232522	2488591	He beat world number one Greg Norman by six strokes.	He beat the world number one Greg Norman by Six Strokes	118196367	1475173467063	1475173467155	 	32
232522	2488591	He beat world number one Greg Norman by six strokes.	He beat the world number one Greg Norman by Six Strokes	118196374	1475173467411	1475173467507	b	66
232522	2488591	He beat world number one Greg Norman by six strokes.	He beat the world number one Greg Norman by Six Strokes	118196357	1475173467471	1475173467607	e	69
232522	2488591	He beat world number one Greg Norman by six strokes.	He beat the world number one Greg Norman by Six Strokes	118196359	1475173467536	1475173467645	a	65
232522	2488591	He beat world number one Greg Norman by six strokes.	He beat the world number one Greg Norman by Six Strokes	118196366	1475173467670	1475173467758	t	84
232522	2488591	He beat world number one Greg Norman by six strokes.	He beat the world number one Greg Norman by Six Strokes	118196371	1475173467749	1475173467847	 	32
232522	2488591	He beat world number one Greg Norman by six strokes.	He beat the world number one Greg Norman by Six Strokes	118196378	1475173467905	1475173467986	t	84
232522	2488591	He beat world number one Greg Norman by six strokes.	He beat the world number one Greg Norman by Six Strokes	118196409	1475173467939	1475173468035	h	72
232522	2488591	He beat world number one Greg Norman by six strokes.	He beat the world number one Greg Norman by Six Strokes	118196412	1475173468078	1475173468155	e	69
232522	2488591	He beat world number one Greg Norman by six strokes.	He beat the world number one Greg Norman by Six Strokes	118196418	1475173468104	1475173468221	 	32
232522	2488591	He beat world number one Greg Norman by six strokes.	He beat the world number one Greg Norman by Six Strokes	118196420	1475173468580	1475173468686	w	87
232522	2488591	He beat world number one Greg Norman by six strokes.	He beat the world number one Greg Norman by Six Strokes	118196421	1475173468687	1475173468769	o	79
232522	2488591	He beat world number one Greg Norman by six strokes.	He beat the world number one Greg Norman by Six Strokes	118196422	1475173468770	1475173468857	r	82
232522	2488591	He beat world number one Greg Norman by six strokes.	He beat the world number one Greg Norman by Six Strokes	118196481	1475173468852	1475173468946	l	76
232522	2488591	He beat world number one Greg Norman by six strokes.	He beat the world number one Greg Norman by Six Strokes	118196486	1475173468961	1475173469045	d	68
232522	2488591	He beat world number one Greg Norman by six strokes.	He beat the world number one Greg Norman by Six Strokes	118196493	1475173468995	1475173469094	 	32
232522	2488591	He beat world number one Greg Norman by six strokes.	He beat the world number one Greg Norman by Six Strokes	118196499	1475173469196	1475173469246	n	78
232522	2488591	He beat world number one Greg Norman by six strokes.	He beat the world number one Greg Norman by Six Strokes	118196506	1475173469731	1475173469812	u	85
232522	2488591	He beat world number one Greg Norman by six strokes.	He beat the world number one Greg Norman by Six Strokes	118196513	1475173469850	1475173469951	m	77
232522	2488591	He beat world number one Greg Norman by six strokes.	He beat the world number one Greg Norman by Six Strokes	118196569	1475173470084	1475173470173	b	66
232522	2488591	He beat world number one Greg Norman by six strokes.	He beat the world number one Greg Norman by Six Strokes	118196571	1475173470257	1475173470376	e	69
232522	2488591	He beat world number one Greg Norman by six strokes.	He beat the world number one Greg Norman by Six Strokes	118196574	1475173470323	1475173470427	r	82
232522	2488591	He beat world number one Greg Norman by six strokes.	He beat the world number one Greg Norman by Six Strokes	118196579	1475173470431	1475173470522	 	32
232522	2488591	He beat world number one Greg Norman by six strokes.	He beat the world number one Greg Norman by Six Strokes	118196585	1475173470596	1475173470686	o	79
232522	2488591	He beat world number one Greg Norman by six strokes.	He beat the world number one Greg Norman by Six Strokes	118196614	1475173470716	1475173470821	n	78
232522	2488591	He beat world number one Greg Norman by six strokes.	He beat the world number one Greg Norman by Six Strokes	118196618	1475173470834	1475173470923	e	69
232522	2488591	He beat world number one Greg Norman by six strokes.	He beat the world number one Greg Norman by Six Strokes	118196622	1475173470896	1475173470996	 	32
232522	2488591	He beat world number one Greg Norman by six strokes.	He beat the world number one Greg Norman by Six Strokes	118196629	1475173471218	1475173471449	SHIFT	16
232522	2488591	He beat world number one Greg Norman by six strokes.	He beat the world number one Greg Norman by Six Strokes	118196634	1475173471399	1475173471496	G	71
232522	2488591	He beat world number one Greg Norman by six strokes.	He beat the world number one Greg Norman by Six Strokes	118196709	1475173471485	1475173471566	r	82
232522	2488591	He beat world number one Greg Norman by six strokes.	He beat the world number one Greg Norman by Six Strokes	118196714	1475173471630	1475173471812	e	69
232522	2488591	He beat world number one Greg Norman by six strokes.	He beat the world number one Greg Norman by Six Strokes	118196721	1475173471800	1475173471918	g	71
232522	2488591	He beat world number one Greg Norman by six strokes.	He beat the world number one Greg Norman by Six Strokes	118196727	1475173472049	1475173472137	 	32
232522	2488591	He beat world number one Greg Norman by six strokes.	He beat the world number one Greg Norman by Six Strokes	118196728	1475173472182	1475173472421	SHIFT	16
232522	2488591	He beat world number one Greg Norman by six strokes.	He beat the world number one Greg Norman by Six Strokes	118196733	1475173472359	1475173472442	N	78
232522	2488591	He beat world number one Greg Norman by six strokes.	He beat the world number one Greg Norman by Six Strokes	118196738	1475173472476	1475173472564	o	79
232522	2488591	He beat world number one Greg Norman by six strokes.	He beat the world number one Greg Norman by Six Strokes	118196786	1475173472587	1475173472681	r	82
232522	2488591	He beat world number one Greg Norman by six strokes.	He beat the world number one Greg Norman by Six Strokes	118196792	1475173472718	1475173472816	 	32
232522	2488591	He beat world number one Greg Norman by six strokes.	He beat the world number one Greg Norman by Six Strokes	118196799	1475173473187	1475173473286	BKSP	8
232522	2488591	He beat world number one Greg Norman by six strokes.	He beat the world number one Greg Norman by Six Strokes	118196808	1475173473387	1475173473474	m	77
232522	2488591	He beat world number one Greg Norman by six strokes.	He beat the world number one Greg Norman by Six Strokes	118196812	1475173473465	1475173473568	a	65
232522	2488591	He beat world number one Greg Norman by six strokes.	He beat the world number one Greg Norman by Six Strokes	118196908	1475173473538	1475173473630	n	78
232522	2488591	He beat world number one Greg Norman by six strokes.	He beat the world number one Greg Norman by Six Strokes	118196914	1475173473657	1475173473747	 	32
232522	2488591	He beat world number one Greg Norman by six strokes.	He beat the world number one Greg Norman by Six Strokes	118196921	1475173474147	1475173474255	b	66
232522	2488591	He beat world number one Greg Norman by six strokes.	He beat the world number one Greg Norman by Six Strokes	118196926	1475173474196	1475173474298	y	89
232522	2488591	He beat world number one Greg Norman by six strokes.	He beat the world number one Greg Norman by Six Strokes	118196931	1475173474267	1475173474366	 	32
232522	2488591	He beat world number one Greg Norman by six strokes.	He beat the world number one Greg Norman by Six Strokes	118196937	1475173474566	1475173474803	SHIFT	16
232522	2488591	He beat world number one Greg Norman by six strokes.	He beat the world number one Greg Norman by Six Strokes	118197001	1475173474715	1475173474835	S	83
232522	2488591	He beat world number one Greg Norman by six strokes.	He beat the world number one Greg Norman by Six Strokes	118197004	1475173474866	1475173474943	i	73
232522	2488591	He beat world number one Greg Norman by six strokes.	He beat the world number one Greg Norman by Six Strokes	118197008	1475173475098	1475173475241	x	88
232522	2488591	He beat world number one Greg Norman by six strokes.	He beat the world number one Greg Norman by Six Strokes	118197010	1475173475312	1475173475408	 	32
232522	2488591	He beat world number one Greg Norman by six strokes.	He beat the world number one Greg Norman by Six Strokes	118197012	1475173475354	1475173475619	SHIFT	16
232522	2488591	He beat world number one Greg Norman by six strokes.	He beat the world number one Greg Norman by Six Strokes	118197014	1475173475506	1475173475638	S	83
232522	2488591	He beat world number one Greg Norman by six strokes.	He beat the world number one Greg Norman by Six Strokes	118197018	1475173475709	1475173475826	t	84
232522	2488591	He beat world number one Greg Norman by six strokes.	He beat the world number one Greg Norman by Six Strokes	118197036	1475173476141	1475173476246	r	82
232522	2488591	He beat world number one Greg Norman by six strokes.	He beat the world number one Greg Norman by Six Strokes	118197039	1475173476267	1475173476348	o	79
232522	2488591	He beat world number one Greg Norman by six strokes.	He beat the world number one Greg Norman by Six Strokes	118197044	1475173476402	1475173476492	k	75
232522	2488591	He beat world number one Greg Norman by six strokes.	He beat the world number one Greg Norman by Six Strokes	118197048	1475173476496	1475173476601	e	69
232522	2488591	He beat world number one Greg Norman by six strokes.	He beat the world number one Greg Norman by Six Strokes	118197050	1475173476665	1475173476761	s	83
232522	2488612	I wonder if RBS is another institution which could move quickly.	I wonder if RBS is another institution which could move quickly	118197198	1475173478979	1475173479199	SHIFT	16
232522	2488612	I wonder if RBS is another institution which could move quickly.	I wonder if RBS is another institution which could move quickly	118197205	1475173479129	1475173479207	I	73
232522	2488612	I wonder if RBS is another institution which could move quickly.	I wonder if RBS is another institution which could move quickly	118197212	1475173479201	1475173479293	 	32
232522	2488612	I wonder if RBS is another institution which could move quickly.	I wonder if RBS is another institution which could move quickly	118197221	1475173479420	1475173479512	w	87
232522	2488612	I wonder if RBS is another institution which could move quickly.	I wonder if RBS is another institution which could move quickly	118197230	1475173479490	1475173479569	o	79
232522	2488612	I wonder if RBS is another institution which could move quickly.	I wonder if RBS is another institution which could move quickly	118197237	1475173479596	1475173479695	n	78
232522	2488612	I wonder if RBS is another institution which could move quickly.	I wonder if RBS is another institution which could move quickly	118197256	1475173479698	1475173479791	d	68
232522	2488612	I wonder if RBS is another institution which could move quickly.	I wonder if RBS is another institution which could move quickly	118197260	1475173479792	1475173479948	e	69
232522	2488612	I wonder if RBS is another institution which could move quickly.	I wonder if RBS is another institution which could move quickly	118197264	1475173479938	1475173480015	r	82
232522	2488612	I wonder if RBS is another institution which could move quickly.	I wonder if RBS is another institution which could move quickly	118197269	1475173479987	1475173480087	 	32
232522	2488612	I wonder if RBS is another institution which could move quickly.	I wonder if RBS is another institution which could move quickly	118197274	1475173480136	1475173480227	i	73
232522	2488612	I wonder if RBS is another institution which could move quickly.	I wonder if RBS is another institution which could move quickly	118197461	1475173480224	1475173480313	f	70
232522	2488612	I wonder if RBS is another institution which could move quickly.	I wonder if RBS is another institution which could move quickly	118197466	1475173480284	1475173480397	 	32
232522	2488612	I wonder if RBS is another institution which could move quickly.	I wonder if RBS is another institution which could move quickly	118197470	1475173480414	1475173480517	t	84
232522	2488612	I wonder if RBS is another institution which could move quickly.	I wonder if RBS is another institution which could move quickly	118197477	1475173480890	1475173480986	BKSP	8
232522	2488612	I wonder if RBS is another institution which could move quickly.	I wonder if RBS is another institution which could move quickly	118197485	1475173481020	1475173481108	 	32
232522	2488612	I wonder if RBS is another institution which could move quickly.	I wonder if RBS is another institution which could move quickly	118197491	1475173481760	1475173481854	BKSP	8
232522	2488612	I wonder if RBS is another institution which could move quickly.	I wonder if RBS is another institution which could move quickly	118197556	1475173481873	1475173482831	SHIFT	16
232522	2488612	I wonder if RBS is another institution which could move quickly.	I wonder if RBS is another institution which could move quickly	118197500	1475173482277	1475173482387	R	82
232522	2488612	I wonder if RBS is another institution which could move quickly.	I wonder if RBS is another institution which could move quickly	118197507	1475173482474	1475173482590	B	66
232522	2488612	I wonder if RBS is another institution which could move quickly.	I wonder if RBS is another institution which could move quickly	118197548	1475173482649	1475173482784	S	83
232522	2488612	I wonder if RBS is another institution which could move quickly.	I wonder if RBS is another institution which could move quickly	118197564	1475173483009	1475173483099	 	32
232522	2488612	I wonder if RBS is another institution which could move quickly.	I wonder if RBS is another institution which could move quickly	118197570	1475173483214	1475173483293	i	73
232522	2488612	I wonder if RBS is another institution which could move quickly.	I wonder if RBS is another institution which could move quickly	118197574	1475173483274	1475173483360	s	83
232522	2488612	I wonder if RBS is another institution which could move quickly.	I wonder if RBS is another institution which could move quickly	118197640	1475173483344	1475173483445	 	32
232522	2488612	I wonder if RBS is another institution which could move quickly.	I wonder if RBS is another institution which could move quickly	118197645	1475173483524	1475173483599	w	87
232522	2488612	I wonder if RBS is another institution which could move quickly.	I wonder if RBS is another institution which could move quickly	118197651	1475173483822	1475173483913	BKSP	8
232522	2488612	I wonder if RBS is another institution which could move quickly.	I wonder if RBS is another institution which could move quickly	118197655	1475173483903	1475173484003	a	65
232522	2488612	I wonder if RBS is another institution which could move quickly.	I wonder if RBS is another institution which could move quickly	118197657	1475173484007	1475173484104	n	78
232522	2488612	I wonder if RBS is another institution which could move quickly.	I wonder if RBS is another institution which could move quickly	118197659	1475173484138	1475173484225	o	79
232522	2488612	I wonder if RBS is another institution which could move quickly.	I wonder if RBS is another institution which could move quickly	118197700	1475173484200	1475173484304	t	84
232522	2488612	I wonder if RBS is another institution which could move quickly.	I wonder if RBS is another institution which could move quickly	118197701	1475173484309	1475173484398	h	72
232522	2488612	I wonder if RBS is another institution which could move quickly.	I wonder if RBS is another institution which could move quickly	118197704	1475173484377	1475173484494	e	69
232522	2488612	I wonder if RBS is another institution which could move quickly.	I wonder if RBS is another institution which could move quickly	118197705	1475173484438	1475173484538	r	82
232522	2488612	I wonder if RBS is another institution which could move quickly.	I wonder if RBS is another institution which could move quickly	118197708	1475173484523	1475173484602	 	32
232522	2488612	I wonder if RBS is another institution which could move quickly.	I wonder if RBS is another institution which could move quickly	118197712	1475173485119	1475173485201	i	73
232522	2488612	I wonder if RBS is another institution which could move quickly.	I wonder if RBS is another institution which could move quickly	118197766	1475173485220	1475173485312	n	78
232522	2488612	I wonder if RBS is another institution which could move quickly.	I wonder if RBS is another institution which could move quickly	118197769	1475173485353	1475173485450	s	83
232522	2488612	I wonder if RBS is another institution which could move quickly.	I wonder if RBS is another institution which could move quickly	118197774	1475173485502	1475173485594	t	84
232522	2488612	I wonder if RBS is another institution which could move quickly.	I wonder if RBS is another institution which could move quickly	118197778	1475173485600	1475173485684	i	73
232522	2488612	I wonder if RBS is another institution which could move quickly.	I wonder if RBS is another institution which could move quickly	118197781	1475173485776	1475173485865	s	83
232522	2488612	I wonder if RBS is another institution which could move quickly.	I wonder if RBS is another institution which could move quickly	118197913	1475173486131	1475173486225	BKSP	8
232522	2488612	I wonder if RBS is another institution which could move quickly.	I wonder if RBS is another institution which could move quickly	118197919	1475173486242	1475173486343	t	84
232522	2488612	I wonder if RBS is another institution which could move quickly.	I wonder if RBS is another institution which could move quickly	118197923	1475173486355	1475173486445	i	73
232522	2488612	I wonder if RBS is another institution which could move quickly.	I wonder if RBS is another institution which could move quickly	118197928	1475173486475	1475173486563	o	79
232522	2488612	I wonder if RBS is another institution which could move quickly.	I wonder if RBS is another institution which could move quickly	118197934	1475173486958	1475173487045	BKSP	8
232522	2488612	I wonder if RBS is another institution which could move quickly.	I wonder if RBS is another institution which could move quickly	118197943	1475173487541	1475173487633	BKSP	8
232522	2488612	I wonder if RBS is another institution which could move quickly.	I wonder if RBS is another institution which could move quickly	118197948	1475173487953	1475173488030	u	85
232522	2488612	I wonder if RBS is another institution which could move quickly.	I wonder if RBS is another institution which could move quickly	118197951	1475173488345	1475173488441	t	84
232522	2488612	I wonder if RBS is another institution which could move quickly.	I wonder if RBS is another institution which could move quickly	118198000	1475173488411	1475173488509	i	73
232522	2488612	I wonder if RBS is another institution which could move quickly.	I wonder if RBS is another institution which could move quickly	118198002	1475173488464	1475173488558	o	79
232522	2488612	I wonder if RBS is another institution which could move quickly.	I wonder if RBS is another institution which could move quickly	118198004	1475173488562	1475173488664	n	78
232522	2488612	I wonder if RBS is another institution which could move quickly.	I wonder if RBS is another institution which could move quickly	118198005	1475173489160	1475173489247	 	32
232522	2488612	I wonder if RBS is another institution which could move quickly.	I wonder if RBS is another institution which could move quickly	118198007	1475173489370	1475173489456	w	87
232522	2488612	I wonder if RBS is another institution which could move quickly.	I wonder if RBS is another institution which could move quickly	118198009	1475173489458	1475173489545	h	72
232522	2488612	I wonder if RBS is another institution which could move quickly.	I wonder if RBS is another institution which could move quickly	118198061	1475173489562	1475173489680	i	73
232522	2488612	I wonder if RBS is another institution which could move quickly.	I wonder if RBS is another institution which could move quickly	118198064	1475173489677	1475173489765	c	67
232522	2488612	I wonder if RBS is another institution which could move quickly.	I wonder if RBS is another institution which could move quickly	118198068	1475173489739	1475173489831	h	72
232522	2488612	I wonder if RBS is another institution which could move quickly.	I wonder if RBS is another institution which could move quickly	118198071	1475173489833	1475173489929	 	32
232522	2488612	I wonder if RBS is another institution which could move quickly.	I wonder if RBS is another institution which could move quickly	118198075	1475173490075	1475173490177	c	67
232522	2488612	I wonder if RBS is another institution which could move quickly.	I wonder if RBS is another institution which could move quickly	118198139	1475173490141	1475173490248	o	79
232522	2488612	I wonder if RBS is another institution which could move quickly.	I wonder if RBS is another institution which could move quickly	118198141	1475173490182	1475173490273	u	85
232522	2488612	I wonder if RBS is another institution which could move quickly.	I wonder if RBS is another institution which could move quickly	118198144	1475173490357	1475173490421	l	76
232522	2488612	I wonder if RBS is another institution which could move quickly.	I wonder if RBS is another institution which could move quickly	118198149	1475173490465	1475173490550	d	68
232522	2488612	I wonder if RBS is another institution which could move quickly.	I wonder if RBS is another institution which could move quickly	118198155	1475173490534	1475173490624	 	32
232522	2488612	I wonder if RBS is another institution which could move quickly.	I wonder if RBS is another institution which could move quickly	118198164	1475173491057	1475173491124	m	77
232522	2488612	I wonder if RBS is another institution which could move quickly.	I wonder if RBS is another institution which could move quickly	118198188	1475173491172	1475173491248	o	79
232522	2488612	I wonder if RBS is another institution which could move quickly.	I wonder if RBS is another institution which could move quickly	118198191	1475173491233	1475173491360	v	86
232522	2488612	I wonder if RBS is another institution which could move quickly.	I wonder if RBS is another institution which could move quickly	118198193	1475173491317	1475173491423	e	69
232522	2488612	I wonder if RBS is another institution which could move quickly.	I wonder if RBS is another institution which could move quickly	118198196	1475173491415	1475173491497	 	32
232522	2488612	I wonder if RBS is another institution which could move quickly.	I wonder if RBS is another institution which could move quickly	118198199	1475173491580	1475173491659	m	77
232522	2488612	I wonder if RBS is another institution which could move quickly.	I wonder if RBS is another institution which could move quickly	118198277	1475173492030	1475173492127	BKSP	8
232522	2488612	I wonder if RBS is another institution which could move quickly.	I wonder if RBS is another institution which could move quickly	118198280	1475173492244	1475173492319	w	87
232522	2488612	I wonder if RBS is another institution which could move quickly.	I wonder if RBS is another institution which could move quickly	118198282	1475173492642	1475173492736	BKSP	8
232522	2488612	I wonder if RBS is another institution which could move quickly.	I wonder if RBS is another institution which could move quickly	118198284	1475173492746	1475173492848	q	81
232522	2488612	I wonder if RBS is another institution which could move quickly.	I wonder if RBS is another institution which could move quickly	118198288	1475173492850	1475173492969	u	85
232522	2488612	I wonder if RBS is another institution which could move quickly.	I wonder if RBS is another institution which could move quickly	118198292	1475173492933	1475173493025	i	73
232522	2488612	I wonder if RBS is another institution which could move quickly.	I wonder if RBS is another institution which could move quickly	118198296	1475173493082	1475173493190	c	67
232522	2488612	I wonder if RBS is another institution which could move quickly.	I wonder if RBS is another institution which could move quickly	118198318	1475173493178	1475173493279	k	75
232522	2488612	I wonder if RBS is another institution which could move quickly.	I wonder if RBS is another institution which could move quickly	118198323	1475173493781	1475173493865	l	76
232522	2488636	We have lots of paper stuff.	We have lots of paper stuff	118198480	1475173495274	1475173495587	SHIFT	16
232522	2488636	We have lots of paper stuff.	We have lots of paper stuff	118198484	1475173495515	1475173495636	W	87
232522	2488636	We have lots of paper stuff.	We have lots of paper stuff	118198491	1475173495731	1475173495820	e	69
232522	2488636	We have lots of paper stuff.	We have lots of paper stuff	118198497	1475173495852	1475173495949	 	32
232522	2488636	We have lots of paper stuff.	We have lots of paper stuff	118198500	1475173496069	1475173496160	h	72
232522	2488636	We have lots of paper stuff.	We have lots of paper stuff	118198512	1475173496145	1475173496234	a	65
232522	2488636	We have lots of paper stuff.	We have lots of paper stuff	118198517	1475173496224	1475173496312	v	86
232522	2488636	We have lots of paper stuff.	We have lots of paper stuff	118198521	1475173496303	1475173496382	e	69
232522	2488636	We have lots of paper stuff.	We have lots of paper stuff	118198525	1475173496358	1475173496450	 	32
232522	2488636	We have lots of paper stuff.	We have lots of paper stuff	118198528	1475173496551	1475173496636	l	76
232522	2488636	We have lots of paper stuff.	We have lots of paper stuff	118198532	1475173496679	1475173496765	o	79
232522	2488636	We have lots of paper stuff.	We have lots of paper stuff	118198648	1475173496829	1475173496948	v	86
232522	2488636	We have lots of paper stuff.	We have lots of paper stuff	118198655	1475173496884	1475173497040	e	69
232522	2488636	We have lots of paper stuff.	We have lots of paper stuff	118198662	1475173496986	1475173497144	s	83
232522	2488636	We have lots of paper stuff.	We have lots of paper stuff	118198666	1475173497335	1475173497410	BKSP	8
232522	2488636	We have lots of paper stuff.	We have lots of paper stuff	118198671	1475173497440	1475173497517	BKSP	8
232522	2488636	We have lots of paper stuff.	We have lots of paper stuff	118198672	1475173497547	1475173497620	BKSP	8
232522	2488636	We have lots of paper stuff.	We have lots of paper stuff	118198674	1475173497928	1475173498048	t	84
232522	2488636	We have lots of paper stuff.	We have lots of paper stuff	118198703	1475173497997	1475173498104	s	83
232522	2488636	We have lots of paper stuff.	We have lots of paper stuff	118198712	1475173498090	1475173498187	 	32
232522	2488636	We have lots of paper stuff.	We have lots of paper stuff	118198722	1475173498242	1475173498334	o	79
232522	2488636	We have lots of paper stuff.	We have lots of paper stuff	118198731	1475173498327	1475173498419	f	70
232522	2488636	We have lots of paper stuff.	We have lots of paper stuff	118198742	1475173498402	1475173498490	 	32
232522	2488636	We have lots of paper stuff.	We have lots of paper stuff	118198753	1475173498657	1475173498737	p	80
232522	2488636	We have lots of paper stuff.	We have lots of paper stuff	118198826	1475173498734	1475173498836	a	65
232522	2488636	We have lots of paper stuff.	We have lots of paper stuff	118198830	1475173498868	1475173498990	r	82
232522	2488636	We have lots of paper stuff.	We have lots of paper stuff	118198838	1475173498934	1475173499100	e	69
232522	2488636	We have lots of paper stuff.	We have lots of paper stuff	118198844	1475173499051	1475173499184	r	82
232522	2488636	We have lots of paper stuff.	We have lots of paper stuff	118198851	1475173499466	1475173499546	BKSP	8
232522	2488636	We have lots of paper stuff.	We have lots of paper stuff	118198855	1475173499584	1475173499663	BKSP	8
232522	2488636	We have lots of paper stuff.	We have lots of paper stuff	118198859	1475173499710	1475173499792	BKSP	8
232522	2488636	We have lots of paper stuff.	We have lots of paper stuff	118198863	1475173500055	1475173500144	p	80
232522	2488636	We have lots of paper stuff.	We have lots of paper stuff	118198877	1475173500119	1475173500213	e	69
232522	2488636	We have lots of paper stuff.	We have lots of paper stuff	118198880	1475173500165	1475173500264	r	82
232522	2488636	We have lots of paper stuff.	We have lots of paper stuff	118198883	1475173500241	1475173500335	 	32
232522	2488636	We have lots of paper stuff.	We have lots of paper stuff	118198887	1475173500433	1475173500534	s	83
232522	2488636	We have lots of paper stuff.	We have lots of paper stuff	118198890	1475173500563	1475173500657	t	84
232522	2488636	We have lots of paper stuff.	We have lots of paper stuff	118198893	1475173500664	1475173500754	u	85
232522	2488636	We have lots of paper stuff.	We have lots of paper stuff	118198940	1475173500816	1475173500938	d	68
232522	2488636	We have lots of paper stuff.	We have lots of paper stuff	118198948	1475173501184	1475173501276	BKSP	8
232522	2488636	We have lots of paper stuff.	We have lots of paper stuff	118198960	1475173501278	1475173501353	f	70
232522	2488636	We have lots of paper stuff.	We have lots of paper stuff	118198966	1475173501389	1475173501487	f	70
232522	2488651	Iraq is particularly keen on getting rid of the oil embargo.	Iraq is particularly keen on getting rid of the oil embargo	118199190	1475173503575	1475173503979	SHIFT	16
232522	2488651	Iraq is particularly keen on getting rid of the oil embargo.	Iraq is particularly keen on getting rid of the oil embargo	118199185	1475173503893	1475173503978	I	73
232522	2488651	Iraq is particularly keen on getting rid of the oil embargo.	Iraq is particularly keen on getting rid of the oil embargo	118199195	1475173504083	1475173504181	r	82
232522	2488651	Iraq is particularly keen on getting rid of the oil embargo.	Iraq is particularly keen on getting rid of the oil embargo	118199204	1475173504185	1475173504283	a	65
232522	2488651	Iraq is particularly keen on getting rid of the oil embargo.	Iraq is particularly keen on getting rid of the oil embargo	118199212	1475173504343	1475173504431	g	71
232522	2488651	Iraq is particularly keen on getting rid of the oil embargo.	Iraq is particularly keen on getting rid of the oil embargo	118199217	1475173504616	1475173504714	BKSP	8
232522	2488651	Iraq is particularly keen on getting rid of the oil embargo.	Iraq is particularly keen on getting rid of the oil embargo	118199273	1475173504688	1475173504782	q	81
232522	2488651	Iraq is particularly keen on getting rid of the oil embargo.	Iraq is particularly keen on getting rid of the oil embargo	118199276	1475173504807	1475173504897	 	32
232522	2488651	Iraq is particularly keen on getting rid of the oil embargo.	Iraq is particularly keen on getting rid of the oil embargo	118199278	1475173505179	1475173505268	i	73
232522	2488651	Iraq is particularly keen on getting rid of the oil embargo.	Iraq is particularly keen on getting rid of the oil embargo	118199280	1475173505251	1475173505331	s	83
232522	2488651	Iraq is particularly keen on getting rid of the oil embargo.	Iraq is particularly keen on getting rid of the oil embargo	118199283	1475173505319	1475173505418	 	32
232522	2488651	Iraq is particularly keen on getting rid of the oil embargo.	Iraq is particularly keen on getting rid of the oil embargo	118199288	1475173505523	1475173505601	p	80
232522	2488651	Iraq is particularly keen on getting rid of the oil embargo.	Iraq is particularly keen on getting rid of the oil embargo	118199367	1475173505595	1475173505700	a	65
232522	2488651	Iraq is particularly keen on getting rid of the oil embargo.	Iraq is particularly keen on getting rid of the oil embargo	118199369	1475173505738	1475173505847	r	82
232522	2488651	Iraq is particularly keen on getting rid of the oil embargo.	Iraq is particularly keen on getting rid of the oil embargo	118199373	1475173506075	1475173506177	t	84
232522	2488651	Iraq is particularly keen on getting rid of the oil embargo.	Iraq is particularly keen on getting rid of the oil embargo	118199378	1475173506380	1475173506464	i	73
232522	2488651	Iraq is particularly keen on getting rid of the oil embargo.	Iraq is particularly keen on getting rid of the oil embargo	118199381	1475173506618	1475173506712	c	67
232522	2488651	Iraq is particularly keen on getting rid of the oil embargo.	Iraq is particularly keen on getting rid of the oil embargo	118199383	1475173506800	1475173506892	u	85
232522	2488651	Iraq is particularly keen on getting rid of the oil embargo.	Iraq is particularly keen on getting rid of the oil embargo	118199492	1475173507233	1475173507323	l	76
232522	2488651	Iraq is particularly keen on getting rid of the oil embargo.	Iraq is particularly keen on getting rid of the oil embargo	118199495	1475173507335	1475173507449	a	65
232522	2488651	Iraq is particularly keen on getting rid of the oil embargo.	Iraq is particularly keen on getting rid of the oil embargo	118199499	1475173507592	1475173507703	r	82
232522	2488651	Iraq is particularly keen on getting rid of the oil embargo.	Iraq is particularly keen on getting rid of the oil embargo	118199503	1475173508365	1475173508455	l	76
232522	2488651	Iraq is particularly keen on getting rid of the oil embargo.	Iraq is particularly keen on getting rid of the oil embargo	118199689	1475173508535	1475173508627	 	32
232522	2488651	Iraq is particularly keen on getting rid of the oil embargo.	Iraq is particularly keen on getting rid of the oil embargo	118199691	1475173509168	1475173509252	BKSP	8
232522	2488651	Iraq is particularly keen on getting rid of the oil embargo.	Iraq is particularly keen on getting rid of the oil embargo	118199695	1475173509282	1475173509361	BKSP	8
232522	2488651	Iraq is particularly keen on getting rid of the oil embargo.	Iraq is particularly keen on getting rid of the oil embargo	118199700	1475173509403	1475173509468	BKSP	8
232522	2488651	Iraq is particularly keen on getting rid of the oil embargo.	Iraq is particularly keen on getting rid of the oil embargo	118199704	1475173510180	1475173510278	r	82
232522	2488651	Iraq is particularly keen on getting rid of the oil embargo.	Iraq is particularly keen on getting rid of the oil embargo	118199709	1475173510289	1475173510389	l	76
232522	2488651	Iraq is particularly keen on getting rid of the oil embargo.	Iraq is particularly keen on getting rid of the oil embargo	118199713	1475173510381	1475173510477	y	89
232522	2488651	Iraq is particularly keen on getting rid of the oil embargo.	Iraq is particularly keen on getting rid of the oil embargo	118199719	1475173510447	1475173510549	 	32
232522	2488651	Iraq is particularly keen on getting rid of the oil embargo.	Iraq is particularly keen on getting rid of the oil embargo	118199727	1475173511090	1475173511186	k	75
232522	2488651	Iraq is particularly keen on getting rid of the oil embargo.	Iraq is particularly keen on getting rid of the oil embargo	118199733	1475173511171	1475173511248	e	69
232522	2488651	Iraq is particularly keen on getting rid of the oil embargo.	Iraq is particularly keen on getting rid of the oil embargo	118199740	1475173511290	1475173511377	e	69
232522	2488651	Iraq is particularly keen on getting rid of the oil embargo.	Iraq is particularly keen on getting rid of the oil embargo	118199750	1475173511369	1475173511466	n	78
232522	2488651	Iraq is particularly keen on getting rid of the oil embargo.	Iraq is particularly keen on getting rid of the oil embargo	118199760	1475173511482	1475173511565	 	32
232522	2488651	Iraq is particularly keen on getting rid of the oil embargo.	Iraq is particularly keen on getting rid of the oil embargo	118199765	1475173511585	1475173511681	o	79
232522	2488651	Iraq is particularly keen on getting rid of the oil embargo.	Iraq is particularly keen on getting rid of the oil embargo	118199790	1475173511664	1475173511782	n	78
232522	2488651	Iraq is particularly keen on getting rid of the oil embargo.	Iraq is particularly keen on getting rid of the oil embargo	118199793	1475173511762	1475173511865	 	32
232522	2488651	Iraq is particularly keen on getting rid of the oil embargo.	Iraq is particularly keen on getting rid of the oil embargo	118199796	1475173512041	1475173512150	g	71
232522	2488651	Iraq is particularly keen on getting rid of the oil embargo.	Iraq is particularly keen on getting rid of the oil embargo	118199799	1475173512109	1475173512218	e	69
232522	2488651	Iraq is particularly keen on getting rid of the oil embargo.	Iraq is particularly keen on getting rid of the oil embargo	118199804	1475173512228	1475173512320	t	84
232522	2488651	Iraq is particularly keen on getting rid of the oil embargo.	Iraq is particularly keen on getting rid of the oil embargo	118199806	1475173512367	1475173512451	t	84
232522	2488651	Iraq is particularly keen on getting rid of the oil embargo.	Iraq is particularly keen on getting rid of the oil embargo	118199813	1475173512463	1475173512563	i	73
232522	2488651	Iraq is particularly keen on getting rid of the oil embargo.	Iraq is particularly keen on getting rid of the oil embargo	118199814	1475173512495	1475173512613	n	78
232522	2488651	Iraq is particularly keen on getting rid of the oil embargo.	Iraq is particularly keen on getting rid of the oil embargo	118199815	1475173512576	1475173512661	g	71
232522	2488651	Iraq is particularly keen on getting rid of the oil embargo.	Iraq is particularly keen on getting rid of the oil embargo	118199816	1475173512665	1475173512757	 	32
232522	2488651	Iraq is particularly keen on getting rid of the oil embargo.	Iraq is particularly keen on getting rid of the oil embargo	118199817	1475173512763	1475173512844	r	82
232522	2488651	Iraq is particularly keen on getting rid of the oil embargo.	Iraq is particularly keen on getting rid of the oil embargo	118199843	1475173512806	1475173512892	i	73
232522	2488651	Iraq is particularly keen on getting rid of the oil embargo.	Iraq is particularly keen on getting rid of the oil embargo	118199852	1475173512958	1475173513048	d	68
232522	2488651	Iraq is particularly keen on getting rid of the oil embargo.	Iraq is particularly keen on getting rid of the oil embargo	118199864	1475173513058	1475173513150	 	32
232522	2488651	Iraq is particularly keen on getting rid of the oil embargo.	Iraq is particularly keen on getting rid of the oil embargo	118199872	1475173513199	1475173513287	o	79
232522	2488651	Iraq is particularly keen on getting rid of the oil embargo.	Iraq is particularly keen on getting rid of the oil embargo	118199879	1475173513338	1475173513430	f	70
232522	2488651	Iraq is particularly keen on getting rid of the oil embargo.	Iraq is particularly keen on getting rid of the oil embargo	118200017	1475173513391	1475173513494	 	32
232522	2488651	Iraq is particularly keen on getting rid of the oil embargo.	Iraq is particularly keen on getting rid of the oil embargo	118200022	1475173514362	1475173514442	t	84
232522	2488651	Iraq is particularly keen on getting rid of the oil embargo.	Iraq is particularly keen on getting rid of the oil embargo	118200026	1475173514401	1475173514480	h	72
232522	2488651	Iraq is particularly keen on getting rid of the oil embargo.	Iraq is particularly keen on getting rid of the oil embargo	118200029	1475173514514	1475173514593	e	69
232522	2488651	Iraq is particularly keen on getting rid of the oil embargo.	Iraq is particularly keen on getting rid of the oil embargo	118200030	1475173514542	1475173514647	 	32
232522	2488651	Iraq is particularly keen on getting rid of the oil embargo.	Iraq is particularly keen on getting rid of the oil embargo	118200033	1475173514812	1475173514859	o	79
232522	2488651	Iraq is particularly keen on getting rid of the oil embargo.	Iraq is particularly keen on getting rid of the oil embargo	118200107	1475173515393	1475173515502	BKSP	8
232522	2488651	Iraq is particularly keen on getting rid of the oil embargo.	Iraq is particularly keen on getting rid of the oil embargo	118200113	1475173515681	1475173515800	o	79
232522	2488651	Iraq is particularly keen on getting rid of the oil embargo.	Iraq is particularly keen on getting rid of the oil embargo	118200119	1475173515747	1475173515838	i	73
232522	2488651	Iraq is particularly keen on getting rid of the oil embargo.	Iraq is particularly keen on getting rid of the oil embargo	118200125	1475173515900	1475173515999	l	76
232522	2488651	Iraq is particularly keen on getting rid of the oil embargo.	Iraq is particularly keen on getting rid of the oil embargo	118200129	1475173516054	1475173516153	 	32
232522	2488651	Iraq is particularly keen on getting rid of the oil embargo.	Iraq is particularly keen on getting rid of the oil embargo	118200132	1475173516365	1475173516455	e	69
232522	2488651	Iraq is particularly keen on getting rid of the oil embargo.	Iraq is particularly keen on getting rid of the oil embargo	118200180	1475173516474	1475173516562	m	77
232522	2488651	Iraq is particularly keen on getting rid of the oil embargo.	Iraq is particularly keen on getting rid of the oil embargo	118200183	1475173516783	1475173516872	b	66
232522	2488651	Iraq is particularly keen on getting rid of the oil embargo.	Iraq is particularly keen on getting rid of the oil embargo	118200184	1475173516879	1475173516970	a	65
232522	2488651	Iraq is particularly keen on getting rid of the oil embargo.	Iraq is particularly keen on getting rid of the oil embargo	118200186	1475173516996	1475173517092	r	82
232522	2488651	Iraq is particularly keen on getting rid of the oil embargo.	Iraq is particularly keen on getting rid of the oil embargo	118200187	1475173517186	1475173517252	g	71
232522	2488651	Iraq is particularly keen on getting rid of the oil embargo.	Iraq is particularly keen on getting rid of the oil embargo	118200190	1475173517261	1475173517349	o	79
232522	2488674	Tried to call but couldn't reach you.	Tried to call but couldn't reach you	118200440	1475173518973	1475173519270	SHIFT	16
232522	2488674	Tried to call but couldn't reach you.	Tried to call but couldn't reach you	118200443	1475173519189	1475173519292	R	82
232522	2488674	Tried to call but couldn't reach you.	Tried to call but couldn't reach you	118200450	1475173519483	1475173519579	BKSP	8
232522	2488674	Tried to call but couldn't reach you.	Tried to call but couldn't reach you	118200455	1475173519570	1475173519717	SHIFT	16
232522	2488674	Tried to call but couldn't reach you.	Tried to call but couldn't reach you	118200465	1475173519652	1475173519751	T	84
232522	2488674	Tried to call but couldn't reach you.	Tried to call but couldn't reach you	118200476	1475173519809	1475173519886	i	73
232522	2488674	Tried to call but couldn't reach you.	Tried to call but couldn't reach you	118200483	1475173519873	1475173519978	r	82
232522	2488674	Tried to call but couldn't reach you.	Tried to call but couldn't reach you	118200490	1475173520057	1475173520240	e	69
232522	2488674	Tried to call but couldn't reach you.	Tried to call but couldn't reach you	118200565	1475173520187	1475173520279	d	68
232522	2488674	Tried to call but couldn't reach you.	Tried to call but couldn't reach you	118200571	1475173520465	1475173520545	BKSP	8
232522	2488674	Tried to call but couldn't reach you.	Tried to call but couldn't reach you	118200578	1475173520579	1475173520654	BKSP	8
232522	2488674	Tried to call but couldn't reach you.	Tried to call but couldn't reach you	118200590	1475173520684	1475173520750	BKSP	8
232522	2488674	Tried to call but couldn't reach you.	Tried to call but couldn't reach you	118200599	1475173520786	1475173520863	BKSP	8
232522	2488674	Tried to call but couldn't reach you.	Tried to call but couldn't reach you	118200607	1475173520921	1475173521021	r	82
232522	2488674	Tried to call but couldn't reach you.	Tried to call but couldn't reach you	118200616	1475173521040	1475173521115	i	73
232522	2488674	Tried to call but couldn't reach you.	Tried to call but couldn't reach you	118200628	1475173521098	1475173521241	e	69
232522	2488674	Tried to call but couldn't reach you.	Tried to call but couldn't reach you	118200638	1475173521184	1475173521311	d	68
232522	2488674	Tried to call but couldn't reach you.	Tried to call but couldn't reach you	118200645	1475173521388	1475173521482	 	32
232522	2488674	Tried to call but couldn't reach you.	Tried to call but couldn't reach you	118200690	1475173521549	1475173521643	t	84
232522	2488674	Tried to call but couldn't reach you.	Tried to call but couldn't reach you	118200695	1475173521686	1475173521784	 	32
232522	2488674	Tried to call but couldn't reach you.	Tried to call but couldn't reach you	118200698	1475173522132	1475173522232	BKSP	8
232522	2488674	Tried to call but couldn't reach you.	Tried to call but couldn't reach you	118200701	1475173522397	1475173522474	o	79
232522	2488674	Tried to call but couldn't reach you.	Tried to call but couldn't reach you	118200706	1475173522491	1475173522583	 	32
232522	2488674	Tried to call but couldn't reach you.	Tried to call but couldn't reach you	118200741	1475173522566	1475173522711	c	67
232522	2488674	Tried to call but couldn't reach you.	Tried to call but couldn't reach you	118200745	1475173522658	1475173522760	a	65
232522	2488674	Tried to call but couldn't reach you.	Tried to call but couldn't reach you	118200750	1475173522739	1475173522814	l	76
232522	2488674	Tried to call but couldn't reach you.	Tried to call but couldn't reach you	118200756	1475173522848	1475173522938	l	76
232522	2488674	Tried to call but couldn't reach you.	Tried to call but couldn't reach you	118200762	1475173522961	1475173523053	 	32
232522	2488674	Tried to call but couldn't reach you.	Tried to call but couldn't reach you	118200771	1475173523130	1475173523217	b	66
232522	2488674	Tried to call but couldn't reach you.	Tried to call but couldn't reach you	118200843	1475173523252	1475173523314	y	89
232522	2488674	Tried to call but couldn't reach you.	Tried to call but couldn't reach you	118200847	1475173523676	1475173523762	BKSP	8
232522	2488674	Tried to call but couldn't reach you.	Tried to call but couldn't reach you	118200856	1475173523841	1475173523933	u	85
232522	2488674	Tried to call but couldn't reach you.	Tried to call but couldn't reach you	118200861	1475173523963	1475173524034	t	84
232522	2488674	Tried to call but couldn't reach you.	Tried to call but couldn't reach you	118200868	1475173524024	1475173524114	 	32
232522	2488674	Tried to call but couldn't reach you.	Tried to call but couldn't reach you	118200872	1475173524200	1475173524304	c	67
232522	2488674	Tried to call but couldn't reach you.	Tried to call but couldn't reach you	118200889	1475173524258	1475173524366	o	79
232522	2488674	Tried to call but couldn't reach you.	Tried to call but couldn't reach you	118200893	1475173524315	1475173524405	u	85
232522	2488674	Tried to call but couldn't reach you.	Tried to call but couldn't reach you	118200898	1475173524473	1475173524574	l	76
232522	2488674	Tried to call but couldn't reach you.	Tried to call but couldn't reach you	118200908	1475173524590	1475173524680	d	68
232522	2488674	Tried to call but couldn't reach you.	Tried to call but couldn't reach you	118200910	1475173524701	1475173524791	n	78
232522	2488674	Tried to call but couldn't reach you.	Tried to call but couldn't reach you	118200915	1475173524834	1475173524917	t	84
232522	2488674	Tried to call but couldn't reach you.	Tried to call but couldn't reach you	118201104	1475173524923	1475173525007	 	32
232522	2488674	Tried to call but couldn't reach you.	Tried to call but couldn't reach you	118201106	1475173525097	1475173525239	r	82
232522	2488674	Tried to call but couldn't reach you.	Tried to call but couldn't reach you	118201110	1475173525158	1475173525288	e	69
232522	2488674	Tried to call but couldn't reach you.	Tried to call but couldn't reach you	118201116	1475173525226	1475173525388	a	65
232522	2488674	Tried to call but couldn't reach you.	Tried to call but couldn't reach you	118201121	1475173525635	1475173525697	BKSP	8
232522	2488674	Tried to call but couldn't reach you.	Tried to call but couldn't reach you	118201126	1475173526207	1475173526278	BKSP	8
232522	2488674	Tried to call but couldn't reach you.	Tried to call but couldn't reach you	118201130	1475173526302	1475173526482	BKSP	8
232522	2488674	Tried to call but couldn't reach you.	Tried to call but couldn't reach you	118201135	1475173526513	1475173526578	BKSP	8
232522	2488674	Tried to call but couldn't reach you.	Tried to call but couldn't reach you	118201141	1475173526614	1475173526680	BKSP	8
232522	2488674	Tried to call but couldn't reach you.	Tried to call but couldn't reach you	118201147	1475173527208	1475173527301	'	222
232522	2488674	Tried to call but couldn't reach you.	Tried to call but couldn't reach you	118201201	1475173527298	1475173527386	t	84
232522	2488674	Tried to call but couldn't reach you.	Tried to call but couldn't reach you	118201207	1475173527375	1475173527471	 	32
232522	2488674	Tried to call but couldn't reach you.	Tried to call but couldn't reach you	118201212	1475173527653	1475173527783	r	82
232522	2488674	Tried to call but couldn't reach you.	Tried to call but couldn't reach you	118201215	1475173527724	1475173527813	e	69
232522	2488674	Tried to call but couldn't reach you.	Tried to call but couldn't reach you	118201217	1475173527834	1475173527997	a	65
232522	2488674	Tried to call but couldn't reach you.	Tried to call but couldn't reach you	118201220	1475173528076	1475173528192	c	67
232522	2488674	Tried to call but couldn't reach you.	Tried to call but couldn't reach you	118201223	1475173528217	1475173528294	h	72
232522	2488674	Tried to call but couldn't reach you.	Tried to call but couldn't reach you	118201225	1475173528306	1475173528388	 	32
232522	2488674	Tried to call but couldn't reach you.	Tried to call but couldn't reach you	118201228	1475173528452	1475173528542	y	89
232522	2488674	Tried to call but couldn't reach you.	Tried to call but couldn't reach you	118201230	1475173528493	1475173528589	o	79
232522	2488674	Tried to call but couldn't reach you.	Tried to call but couldn't reach you	118201232	1475173528542	1475173528659	u	85
