PARTICIPANT_ID	TEST_SECTION_ID	SENTENCE	USER_INPUT	KEYSTROKE_ID	PRESS_TIME	RELEASE_TIME	LETTER	KEYCODE
233902	2503305	I wonder if RBS is another institution which could move quickly.	I wonder if RBS is another institution which could move quikcly.	118888761	1475184815678	1475184816016	SHIFT	16
233902	2503305	I wonder if RBS is another institution which could move quickly.	I wonder if RBS is another institution which could move quikcly.	118888756	1475184815916	1475184815996	I	73
233902	2503305	I wonder if RBS is another institution which could move quickly.	I wonder if RBS is another institution which could move quikcly.	118888766	1475184816070	1475184816150	 	32
233902	2503305	I wonder if RBS is another institution which could move quickly.	I wonder if RBS is another institution which could move quikcly.	118888769	1475184816170	1475184816230	w	87
233902	2503305	I wonder if RBS is another institution which could move quickly.	I wonder if RBS is another institution which could move quikcly.	118888771	1475184816260	1475184816339	o	79
233902	2503305	I wonder if RBS is another institution which could move quickly.	I wonder if RBS is another institution which could move quikcly.	118888777	1475184816508	1475184816588	n	78
233902	2503305	I wonder if RBS is another institution which could move quickly.	I wonder if RBS is another institution which could move quikcly.	118888810	1475184816708	1475184816827	d	68
233902	2503305	I wonder if RBS is another institution which could move quickly.	I wonder if RBS is another institution which could move quikcly.	118888813	1475184816862	1475184816981	e	69
233902	2503305	I wonder if RBS is another institution which could move quickly.	I wonder if RBS is another institution which could move quikcly.	118888816	1475184816961	1475184817041	r	82
233902	2503305	I wonder if RBS is another institution which could move quickly.	I wonder if RBS is another institution which could move quikcly.	118888820	1475184817061	1475184817141	 	32
233902	2503305	I wonder if RBS is another institution which could move quickly.	I wonder if RBS is another institution which could move quikcly.	118888823	1475184817175	1475184817255	i	73
233902	2503305	I wonder if RBS is another institution which could move quickly.	I wonder if RBS is another institution which could move quikcly.	118888855	1475184817275	1475184817355	f	70
233902	2503305	I wonder if RBS is another institution which could move quickly.	I wonder if RBS is another institution which could move quikcly.	118888859	1475184817409	1475184817509	 	32
233902	2503305	I wonder if RBS is another institution which could move quickly.	I wonder if RBS is another institution which could move quikcly.	118888951	1475184817653	1475184818768	SHIFT	16
233902	2503305	I wonder if RBS is another institution which could move quickly.	I wonder if RBS is another institution which could move quikcly.	118888863	1475184817772	1475184817852	R	82
233902	2503305	I wonder if RBS is another institution which could move quickly.	I wonder if RBS is another institution which could move quikcly.	118888867	1475184817878	1475184817952	M	77
233902	2503305	I wonder if RBS is another institution which could move quickly.	I wonder if RBS is another institution which could move quikcly.	118888872	1475184817991	1475184818051	B	66
233902	2503305	I wonder if RBS is another institution which could move quickly.	I wonder if RBS is another institution which could move quikcly.	118888933	1475184818251	1475184818310	BKSP	8
233902	2503305	I wonder if RBS is another institution which could move quickly.	I wonder if RBS is another institution which could move quikcly.	118888937	1475184818395	1475184818469	BKSP	8
233902	2503305	I wonder if RBS is another institution which could move quickly.	I wonder if RBS is another institution which could move quikcly.	118888939	1475184818430	1475184818514	B	66
233902	2503305	I wonder if RBS is another institution which could move quickly.	I wonder if RBS is another institution which could move quikcly.	118888943	1475184818575	1475184818696	S	83
233902	2503305	I wonder if RBS is another institution which could move quickly.	I wonder if RBS is another institution which could move quikcly.	118888946	1475184818694	1475184818748	 	32
233902	2503305	I wonder if RBS is another institution which could move quickly.	I wonder if RBS is another institution which could move quikcly.	118888954	1475184818962	1475184819042	i	73
233902	2503305	I wonder if RBS is another institution which could move quickly.	I wonder if RBS is another institution which could move quikcly.	118888957	1475184819044	1475184819141	s	83
233902	2503305	I wonder if RBS is another institution which could move quickly.	I wonder if RBS is another institution which could move quikcly.	118888964	1475184819187	1475184819261	 	32
233902	2503305	I wonder if RBS is another institution which could move quickly.	I wonder if RBS is another institution which could move quikcly.	118888965	1475184819281	1475184819360	a	65
233902	2503305	I wonder if RBS is another institution which could move quickly.	I wonder if RBS is another institution which could move quikcly.	118888968	1475184819380	1475184819440	n	78
233902	2503305	I wonder if RBS is another institution which could move quickly.	I wonder if RBS is another institution which could move quikcly.	118888972	1475184819494	1475184819594	o	79
233902	2503305	I wonder if RBS is another institution which could move quickly.	I wonder if RBS is another institution which could move quikcly.	118888979	1475184819595	1475184819654	t	84
233902	2503305	I wonder if RBS is another institution which could move quickly.	I wonder if RBS is another institution which could move quikcly.	118889042	1475184819674	1475184819714	h	72
233902	2503305	I wonder if RBS is another institution which could move quickly.	I wonder if RBS is another institution which could move quikcly.	118889046	1475184819715	1475184819813	e	69
233902	2503305	I wonder if RBS is another institution which could move quickly.	I wonder if RBS is another institution which could move quikcly.	118889052	1475184819773	1475184819853	r	82
233902	2503305	I wonder if RBS is another institution which could move quickly.	I wonder if RBS is another institution which could move quikcly.	118889056	1475184819942	1475184820042	 	32
233902	2503305	I wonder if RBS is another institution which could move quickly.	I wonder if RBS is another institution which could move quikcly.	118889059	1475184820440	1475184820500	u	85
233902	2503305	I wonder if RBS is another institution which could move quickly.	I wonder if RBS is another institution which could move quikcly.	118889123	1475184820689	1475184820770	BKSP	8
233902	2503305	I wonder if RBS is another institution which could move quickly.	I wonder if RBS is another institution which could move quikcly.	118889125	1475184820768	1475184820848	i	73
233902	2503305	I wonder if RBS is another institution which could move quickly.	I wonder if RBS is another institution which could move quikcly.	118889129	1475184820918	1475184820997	n	78
233902	2503305	I wonder if RBS is another institution which could move quickly.	I wonder if RBS is another institution which could move quikcly.	118889131	1475184820958	1475184821077	s	83
233902	2503305	I wonder if RBS is another institution which could move quickly.	I wonder if RBS is another institution which could move quikcly.	118889135	1475184821326	1475184821405	t	84
233902	2503305	I wonder if RBS is another institution which could move quickly.	I wonder if RBS is another institution which could move quikcly.	118889139	1475184821704	1475184821784	u	85
233902	2503305	I wonder if RBS is another institution which could move quickly.	I wonder if RBS is another institution which could move quikcly.	118889182	1475184821818	1475184821878	t	84
233902	2503305	I wonder if RBS is another institution which could move quickly.	I wonder if RBS is another institution which could move quikcly.	118889184	1475184822470	1475184822530	BKSP	8
233902	2503305	I wonder if RBS is another institution which could move quickly.	I wonder if RBS is another institution which could move quikcly.	118889186	1475184822605	1475184822685	BKSP	8
233902	2503305	I wonder if RBS is another institution which could move quickly.	I wonder if RBS is another institution which could move quikcly.	118889188	1475184822684	1475184822744	i	73
233902	2503305	I wonder if RBS is another institution which could move quickly.	I wonder if RBS is another institution which could move quikcly.	118889190	1475184822745	1475184822804	t	84
233902	2503305	I wonder if RBS is another institution which could move quickly.	I wonder if RBS is another institution which could move quikcly.	118889192	1475184822898	1475184822978	u	85
233902	2503305	I wonder if RBS is another institution which could move quickly.	I wonder if RBS is another institution which could move quikcly.	118889195	1475184823092	1475184823192	a	65
233902	2503305	I wonder if RBS is another institution which could move quickly.	I wonder if RBS is another institution which could move quikcly.	118889250	1475184823172	1475184823251	t	84
233902	2503305	I wonder if RBS is another institution which could move quickly.	I wonder if RBS is another institution which could move quikcly.	118889252	1475184823281	1475184823361	i	73
233902	2503305	I wonder if RBS is another institution which could move quickly.	I wonder if RBS is another institution which could move quikcly.	118889254	1475184823441	1475184823520	o	79
233902	2503305	I wonder if RBS is another institution which could move quickly.	I wonder if RBS is another institution which could move quikcly.	118889256	1475184823570	1475184823650	n	78
233902	2503305	I wonder if RBS is another institution which could move quickly.	I wonder if RBS is another institution which could move quikcly.	118889257	1475184823949	1475184824028	BKSP	8
233902	2503305	I wonder if RBS is another institution which could move quickly.	I wonder if RBS is another institution which could move quikcly.	118889259	1475184824103	1475184824182	BKSP	8
233902	2503305	I wonder if RBS is another institution which could move quickly.	I wonder if RBS is another institution which could move quikcly.	118889263	1475184824252	1475184824336	BKSP	8
233902	2503305	I wonder if RBS is another institution which could move quickly.	I wonder if RBS is another institution which could move quikcly.	118889269	1475184824391	1475184824471	BKSP	8
233902	2503305	I wonder if RBS is another institution which could move quickly.	I wonder if RBS is another institution which could move quikcly.	118889274	1475184824535	1475184824615	BKSP	8
233902	2503305	I wonder if RBS is another institution which could move quickly.	I wonder if RBS is another institution which could move quikcly.	118889281	1475184824616	1475184824675	t	84
233902	2503305	I wonder if RBS is another institution which could move quickly.	I wonder if RBS is another institution which could move quikcly.	118889283	1475184824695	1475184824755	i	73
233902	2503305	I wonder if RBS is another institution which could move quickly.	I wonder if RBS is another institution which could move quikcly.	118889305	1475184824804	1475184824880	o	79
233902	2503305	I wonder if RBS is another institution which could move quickly.	I wonder if RBS is another institution which could move quikcly.	118889309	1475184824881	1475184824938	n	78
233902	2503305	I wonder if RBS is another institution which could move quickly.	I wonder if RBS is another institution which could move quikcly.	118889312	1475184824973	1475184825053	 	32
233902	2503305	I wonder if RBS is another institution which could move quickly.	I wonder if RBS is another institution which could move quikcly.	118889315	1475184825272	1475184825332	a	65
233902	2503305	I wonder if RBS is another institution which could move quickly.	I wonder if RBS is another institution which could move quikcly.	118889317	1475184825600	1475184825680	BKSP	8
233902	2503305	I wonder if RBS is another institution which could move quickly.	I wonder if RBS is another institution which could move quikcly.	118889319	1475184825705	1475184825779	w	87
233902	2503305	I wonder if RBS is another institution which could move quickly.	I wonder if RBS is another institution which could move quikcly.	118889357	1475184825839	1475184825919	h	72
233902	2503305	I wonder if RBS is another institution which could move quickly.	I wonder if RBS is another institution which could move quikcly.	118889360	1475184825945	1475184826018	i	73
233902	2503305	I wonder if RBS is another institution which could move quickly.	I wonder if RBS is another institution which could move quikcly.	118889366	1475184826137	1475184826233	h	72
233902	2503305	I wonder if RBS is another institution which could move quickly.	I wonder if RBS is another institution which could move quikcly.	118889370	1475184826451	1475184826511	BKSP	8
233902	2503305	I wonder if RBS is another institution which could move quickly.	I wonder if RBS is another institution which could move quikcly.	118889375	1475184826497	1475184826572	c	67
233902	2503305	I wonder if RBS is another institution which could move quickly.	I wonder if RBS is another institution which could move quikcly.	118889412	1475184826571	1475184826650	h	72
233902	2503305	I wonder if RBS is another institution which could move quickly.	I wonder if RBS is another institution which could move quikcly.	118889415	1475184826630	1475184826710	 	32
233902	2503305	I wonder if RBS is another institution which could move quickly.	I wonder if RBS is another institution which could move quikcly.	118889418	1475184826919	1475184827002	c	67
233902	2503305	I wonder if RBS is another institution which could move quickly.	I wonder if RBS is another institution which could move quikcly.	118889423	1475184826979	1475184827038	o	79
233902	2503305	I wonder if RBS is another institution which could move quickly.	I wonder if RBS is another institution which could move quikcly.	118889427	1475184827073	1475184827108	u	85
233902	2503305	I wonder if RBS is another institution which could move quickly.	I wonder if RBS is another institution which could move quikcly.	118889431	1475184827412	1475184827511	l	76
233902	2503305	I wonder if RBS is another institution which could move quickly.	I wonder if RBS is another institution which could move quikcly.	118889461	1475184827514	1475184827591	d	68
233902	2503305	I wonder if RBS is another institution which could move quickly.	I wonder if RBS is another institution which could move quikcly.	118889463	1475184827611	1475184827697	 	32
233902	2503305	I wonder if RBS is another institution which could move quickly.	I wonder if RBS is another institution which could move quikcly.	118889465	1475184827690	1475184827750	b	66
233902	2503305	I wonder if RBS is another institution which could move quickly.	I wonder if RBS is another institution which could move quikcly.	118889467	1475184827806	1475184827879	e	69
233902	2503305	I wonder if RBS is another institution which could move quickly.	I wonder if RBS is another institution which could move quikcly.	118889469	1475184828143	1475184828203	BKSP	8
233902	2503305	I wonder if RBS is another institution which could move quickly.	I wonder if RBS is another institution which could move quikcly.	118889475	1475184828277	1475184828358	BKSP	8
233902	2503305	I wonder if RBS is another institution which could move quickly.	I wonder if RBS is another institution which could move quikcly.	118889479	1475184828382	1475184828442	m	77
233902	2503305	I wonder if RBS is another institution which could move quickly.	I wonder if RBS is another institution which could move quikcly.	118889497	1475184828457	1475184828537	v	86
233902	2503305	I wonder if RBS is another institution which could move quickly.	I wonder if RBS is another institution which could move quikcly.	118889499	1475184828502	1475184828556	o	79
233902	2503305	I wonder if RBS is another institution which could move quickly.	I wonder if RBS is another institution which could move quikcly.	118889507	1475184828596	1475184828676	e	69
233902	2503305	I wonder if RBS is another institution which could move quickly.	I wonder if RBS is another institution which could move quikcly.	118889511	1475184828750	1475184828830	 	32
233902	2503305	I wonder if RBS is another institution which could move quickly.	I wonder if RBS is another institution which could move quikcly.	118889513	1475184828894	1475184828954	q	81
233902	2503305	I wonder if RBS is another institution which could move quickly.	I wonder if RBS is another institution which could move quikcly.	118889581	1475184829072	1475184829129	BKSP	8
233902	2503305	I wonder if RBS is another institution which could move quickly.	I wonder if RBS is another institution which could move quikcly.	118889582	1475184829208	1475184829288	BKSP	8
233902	2503305	I wonder if RBS is another institution which could move quickly.	I wonder if RBS is another institution which could move quikcly.	118889585	1475184829362	1475184829422	BKSP	8
233902	2503305	I wonder if RBS is another institution which could move quickly.	I wonder if RBS is another institution which could move quikcly.	118889590	1475184829502	1475184829581	BKSP	8
233902	2503305	I wonder if RBS is another institution which could move quickly.	I wonder if RBS is another institution which could move quikcly.	118889594	1475184829641	1475184829722	BKSP	8
233902	2503305	I wonder if RBS is another institution which could move quickly.	I wonder if RBS is another institution which could move quikcly.	118889598	1475184829721	1475184829780	o	79
233902	2503305	I wonder if RBS is another institution which could move quickly.	I wonder if RBS is another institution which could move quikcly.	118889603	1475184829760	1475184829840	v	86
233902	2503305	I wonder if RBS is another institution which could move quickly.	I wonder if RBS is another institution which could move quikcly.	118889609	1475184829885	1475184829987	e	69
233902	2503305	I wonder if RBS is another institution which could move quickly.	I wonder if RBS is another institution which could move quikcly.	118889613	1475184829984	1475184830044	 	32
233902	2503305	I wonder if RBS is another institution which could move quickly.	I wonder if RBS is another institution which could move quikcly.	118889618	1475184830129	1475184830229	q	81
233902	2503305	I wonder if RBS is another institution which could move quickly.	I wonder if RBS is another institution which could move quikcly.	118889647	1475184830228	1475184830248	u	85
233902	2503305	I wonder if RBS is another institution which could move quickly.	I wonder if RBS is another institution which could move quikcly.	118889650	1475184830338	1475184830417	i	73
233902	2503305	I wonder if RBS is another institution which could move quickly.	I wonder if RBS is another institution which could move quikcly.	118889655	1475184830477	1475184830557	k	75
233902	2503305	I wonder if RBS is another institution which could move quickly.	I wonder if RBS is another institution which could move quikcly.	118889659	1475184830591	1475184830672	c	67
233902	2503305	I wonder if RBS is another institution which could move quickly.	I wonder if RBS is another institution which could move quikcly.	118889663	1475184830671	1475184830751	l	76
233902	2503305	I wonder if RBS is another institution which could move quickly.	I wonder if RBS is another institution which could move quikcly.	118889666	1475184830820	1475184830900	y	89
233902	2503305	I wonder if RBS is another institution which could move quickly.	I wonder if RBS is another institution which could move quikcly.	118889664	1475184830930	1475184831009	.	190
233902	2503323	I have the option of starting Jim Miller or picking up Chris Weinke.	I have the option of starting Jim Miller or picking up chris weinke.	118889812	1475184832696	1475184832915	SHIFT	16
233902	2503323	I have the option of starting Jim Miller or picking up Chris Weinke.	I have the option of starting Jim Miller or picking up chris weinke.	118889807	1475184832836	1475184832895	I	73
233902	2503323	I have the option of starting Jim Miller or picking up Chris Weinke.	I have the option of starting Jim Miller or picking up chris weinke.	118889819	1475184832975	1475184833055	 	32
233902	2503323	I have the option of starting Jim Miller or picking up Chris Weinke.	I have the option of starting Jim Miller or picking up chris weinke.	118889825	1475184833124	1475184833204	h	72
233902	2503323	I have the option of starting Jim Miller or picking up Chris Weinke.	I have the option of starting Jim Miller or picking up chris weinke.	118889831	1475184833205	1475184833303	a	65
233902	2503323	I have the option of starting Jim Miller or picking up Chris Weinke.	I have the option of starting Jim Miller or picking up chris weinke.	118889866	1475184833283	1475184833403	v	86
233902	2503323	I have the option of starting Jim Miller or picking up Chris Weinke.	I have the option of starting Jim Miller or picking up chris weinke.	118889869	1475184833542	1475184833622	e	69
233902	2503323	I have the option of starting Jim Miller or picking up Chris Weinke.	I have the option of starting Jim Miller or picking up chris weinke.	118889872	1475184833642	1475184833721	 	32
233902	2503323	I have the option of starting Jim Miller or picking up Chris Weinke.	I have the option of starting Jim Miller or picking up chris weinke.	118889876	1475184833741	1475184833801	t	84
233902	2503323	I have the option of starting Jim Miller or picking up Chris Weinke.	I have the option of starting Jim Miller or picking up chris weinke.	118889879	1475184833821	1475184833881	h	72
233902	2503323	I have the option of starting Jim Miller or picking up Chris Weinke.	I have the option of starting Jim Miller or picking up chris weinke.	118889882	1475184833882	1475184833960	e	69
233902	2503323	I have the option of starting Jim Miller or picking up Chris Weinke.	I have the option of starting Jim Miller or picking up chris weinke.	118889897	1475184833980	1475184834060	 	32
233902	2503323	I have the option of starting Jim Miller or picking up Chris Weinke.	I have the option of starting Jim Miller or picking up chris weinke.	118889901	1475184834129	1475184834209	o	79
233902	2503323	I have the option of starting Jim Miller or picking up Chris Weinke.	I have the option of starting Jim Miller or picking up chris weinke.	118889904	1475184834323	1475184834403	p	80
233902	2503323	I have the option of starting Jim Miller or picking up Chris Weinke.	I have the option of starting Jim Miller or picking up chris weinke.	118889907	1475184834433	1475184834493	t	84
233902	2503323	I have the option of starting Jim Miller or picking up Chris Weinke.	I have the option of starting Jim Miller or picking up chris weinke.	118889910	1475184834577	1475184834657	i	73
233902	2503323	I have the option of starting Jim Miller or picking up Chris Weinke.	I have the option of starting Jim Miller or picking up chris weinke.	118889932	1475184834707	1475184834786	o	79
233902	2503323	I have the option of starting Jim Miller or picking up Chris Weinke.	I have the option of starting Jim Miller or picking up chris weinke.	118889934	1475184834806	1475184834866	n	78
233902	2503323	I have the option of starting Jim Miller or picking up Chris Weinke.	I have the option of starting Jim Miller or picking up chris weinke.	118889939	1475184834886	1475184834966	 	32
233902	2503323	I have the option of starting Jim Miller or picking up Chris Weinke.	I have the option of starting Jim Miller or picking up chris weinke.	118889944	1475184835020	1475184835100	o	79
233902	2503323	I have the option of starting Jim Miller or picking up Chris Weinke.	I have the option of starting Jim Miller or picking up chris weinke.	118889948	1475184835120	1475184835184	f	70
233902	2503323	I have the option of starting Jim Miller or picking up Chris Weinke.	I have the option of starting Jim Miller or picking up chris weinke.	118889969	1475184835180	1475184835259	 	32
233902	2503323	I have the option of starting Jim Miller or picking up Chris Weinke.	I have the option of starting Jim Miller or picking up chris weinke.	118889971	1475184835518	1475184835619	s	83
233902	2503323	I have the option of starting Jim Miller or picking up Chris Weinke.	I have the option of starting Jim Miller or picking up chris weinke.	118889975	1475184835617	1475184835697	t	84
233902	2503323	I have the option of starting Jim Miller or picking up Chris Weinke.	I have the option of starting Jim Miller or picking up chris weinke.	118889980	1475184835717	1475184835818	a	65
233902	2503323	I have the option of starting Jim Miller or picking up Chris Weinke.	I have the option of starting Jim Miller or picking up chris weinke.	118890032	1475184835777	1475184835877	r	82
233902	2503323	I have the option of starting Jim Miller or picking up Chris Weinke.	I have the option of starting Jim Miller or picking up chris weinke.	118890037	1475184835817	1475184835897	t	84
233902	2503323	I have the option of starting Jim Miller or picking up Chris Weinke.	I have the option of starting Jim Miller or picking up chris weinke.	118890044	1475184835876	1475184835956	i	73
233902	2503323	I have the option of starting Jim Miller or picking up Chris Weinke.	I have the option of starting Jim Miller or picking up chris weinke.	118890048	1475184835986	1475184836068	n	78
233902	2503323	I have the option of starting Jim Miller or picking up Chris Weinke.	I have the option of starting Jim Miller or picking up chris weinke.	118890051	1475184836067	1475184836105	g	71
233902	2503323	I have the option of starting Jim Miller or picking up Chris Weinke.	I have the option of starting Jim Miller or picking up chris weinke.	118890053	1475184836126	1475184836225	 	32
233902	2503323	I have the option of starting Jim Miller or picking up Chris Weinke.	I have the option of starting Jim Miller or picking up chris weinke.	118890085	1475184836737	1475184836896	SHIFT	16
233902	2503323	I have the option of starting Jim Miller or picking up Chris Weinke.	I have the option of starting Jim Miller or picking up chris weinke.	118890057	1475184836837	1475184836877	J	74
233902	2503323	I have the option of starting Jim Miller or picking up Chris Weinke.	I have the option of starting Jim Miller or picking up chris weinke.	118890086	1475184837260	1475184837319	i	73
233902	2503323	I have the option of starting Jim Miller or picking up Chris Weinke.	I have the option of starting Jim Miller or picking up chris weinke.	118890090	1475184837349	1475184837429	m	77
233902	2503323	I have the option of starting Jim Miller or picking up Chris Weinke.	I have the option of starting Jim Miller or picking up chris weinke.	118890093	1475184837518	1475184837598	 	32
233902	2503323	I have the option of starting Jim Miller or picking up Chris Weinke.	I have the option of starting Jim Miller or picking up chris weinke.	118890095	1475184837638	1475184837817	SHIFT	16
233902	2503323	I have the option of starting Jim Miller or picking up Chris Weinke.	I have the option of starting Jim Miller or picking up chris weinke.	118890097	1475184837757	1475184837837	M	77
233902	2503323	I have the option of starting Jim Miller or picking up Chris Weinke.	I have the option of starting Jim Miller or picking up chris weinke.	118890099	1475184838006	1475184838066	i	73
233902	2503323	I have the option of starting Jim Miller or picking up Chris Weinke.	I have the option of starting Jim Miller or picking up chris weinke.	118890112	1475184838165	1475184838225	l	76
233902	2503323	I have the option of starting Jim Miller or picking up Chris Weinke.	I have the option of starting Jim Miller or picking up chris weinke.	118890114	1475184838300	1475184838379	l	76
233902	2503323	I have the option of starting Jim Miller or picking up Chris Weinke.	I have the option of starting Jim Miller or picking up chris weinke.	118890118	1475184838399	1475184838479	e	69
233902	2503323	I have the option of starting Jim Miller or picking up Chris Weinke.	I have the option of starting Jim Miller or picking up chris weinke.	118890122	1475184838439	1475184838519	r	82
233902	2503323	I have the option of starting Jim Miller or picking up Chris Weinke.	I have the option of starting Jim Miller or picking up chris weinke.	118890125	1475184838583	1475184838663	 	32
233902	2503323	I have the option of starting Jim Miller or picking up Chris Weinke.	I have the option of starting Jim Miller or picking up chris weinke.	118890148	1475184838757	1475184838837	o	79
233902	2503323	I have the option of starting Jim Miller or picking up Chris Weinke.	I have the option of starting Jim Miller or picking up chris weinke.	118890152	1475184838857	1475184838917	r	82
233902	2503323	I have the option of starting Jim Miller or picking up Chris Weinke.	I have the option of starting Jim Miller or picking up chris weinke.	118890157	1475184838947	1475184839026	 	32
233902	2503323	I have the option of starting Jim Miller or picking up Chris Weinke.	I have the option of starting Jim Miller or picking up chris weinke.	118890160	1475184839046	1475184839185	SHIFT	16
233902	2503323	I have the option of starting Jim Miller or picking up Chris Weinke.	I have the option of starting Jim Miller or picking up chris weinke.	118890164	1475184839126	1475184839205	P	80
233902	2503323	I have the option of starting Jim Miller or picking up Chris Weinke.	I have the option of starting Jim Miller or picking up chris weinke.	118890169	1475184839504	1475184839564	BKSP	8
233902	2503323	I have the option of starting Jim Miller or picking up Chris Weinke.	I have the option of starting Jim Miller or picking up chris weinke.	118890174	1475184839628	1475184839708	p	80
233902	2503323	I have the option of starting Jim Miller or picking up Chris Weinke.	I have the option of starting Jim Miller or picking up chris weinke.	118890182	1475184839783	1475184839862	i	73
233902	2503323	I have the option of starting Jim Miller or picking up Chris Weinke.	I have the option of starting Jim Miller or picking up chris weinke.	118890184	1475184839892	1475184839972	c	67
233902	2503323	I have the option of starting Jim Miller or picking up Chris Weinke.	I have the option of starting Jim Miller or picking up chris weinke.	118890188	1475184839992	1475184840051	k	75
233902	2503323	I have the option of starting Jim Miller or picking up Chris Weinke.	I have the option of starting Jim Miller or picking up chris weinke.	118890194	1475184840116	1475184840196	i	73
233902	2503323	I have the option of starting Jim Miller or picking up Chris Weinke.	I have the option of starting Jim Miller or picking up chris weinke.	118890199	1475184840215	1475184840295	n	78
233902	2503323	I have the option of starting Jim Miller or picking up Chris Weinke.	I have the option of starting Jim Miller or picking up chris weinke.	118890237	1475184840315	1475184840375	g	71
233902	2503323	I have the option of starting Jim Miller or picking up Chris Weinke.	I have the option of starting Jim Miller or picking up chris weinke.	118890241	1475184840355	1475184840454	 	32
233902	2503323	I have the option of starting Jim Miller or picking up Chris Weinke.	I have the option of starting Jim Miller or picking up chris weinke.	118890245	1475184840484	1475184840564	u	85
233902	2503323	I have the option of starting Jim Miller or picking up Chris Weinke.	I have the option of starting Jim Miller or picking up chris weinke.	118890248	1475184840544	1475184840604	p	80
233902	2503323	I have the option of starting Jim Miller or picking up Chris Weinke.	I have the option of starting Jim Miller or picking up chris weinke.	118890250	1475184840678	1475184840778	 	32
233902	2503323	I have the option of starting Jim Miller or picking up Chris Weinke.	I have the option of starting Jim Miller or picking up chris weinke.	118890310	1475184840813	1475184840872	SHIFT	16
233902	2503323	I have the option of starting Jim Miller or picking up Chris Weinke.	I have the option of starting Jim Miller or picking up chris weinke.	118890312	1475184841037	1475184841136	c	67
233902	2503323	I have the option of starting Jim Miller or picking up Chris Weinke.	I have the option of starting Jim Miller or picking up chris weinke.	118890314	1475184841579	1475184841659	h	72
233902	2503323	I have the option of starting Jim Miller or picking up Chris Weinke.	I have the option of starting Jim Miller or picking up chris weinke.	118890316	1475184841678	1475184841738	r	82
233902	2503323	I have the option of starting Jim Miller or picking up Chris Weinke.	I have the option of starting Jim Miller or picking up chris weinke.	118890320	1475184841768	1475184841828	i	73
233902	2503323	I have the option of starting Jim Miller or picking up Chris Weinke.	I have the option of starting Jim Miller or picking up chris weinke.	118890323	1475184841858	1475184841937	s	83
233902	2503323	I have the option of starting Jim Miller or picking up Chris Weinke.	I have the option of starting Jim Miller or picking up chris weinke.	118890390	1475184841957	1475184842037	 	32
233902	2503323	I have the option of starting Jim Miller or picking up Chris Weinke.	I have the option of starting Jim Miller or picking up chris weinke.	118890393	1475184842101	1475184842261	w	87
233902	2503323	I have the option of starting Jim Miller or picking up Chris Weinke.	I have the option of starting Jim Miller or picking up chris weinke.	118890400	1475184842544	1475184842584	i	73
233902	2503323	I have the option of starting Jim Miller or picking up Chris Weinke.	I have the option of starting Jim Miller or picking up chris weinke.	118890404	1475184842629	1475184842709	e	69
233902	2503323	I have the option of starting Jim Miller or picking up Chris Weinke.	I have the option of starting Jim Miller or picking up chris weinke.	118890408	1475184842833	1475184842893	BKSP	8
233902	2503323	I have the option of starting Jim Miller or picking up Chris Weinke.	I have the option of starting Jim Miller or picking up chris weinke.	118890413	1475184842977	1475184843037	BKSP	8
233902	2503323	I have the option of starting Jim Miller or picking up Chris Weinke.	I have the option of starting Jim Miller or picking up chris weinke.	118890446	1475184842997	1475184843057	e	69
233902	2503323	I have the option of starting Jim Miller or picking up Chris Weinke.	I have the option of starting Jim Miller or picking up chris weinke.	118890449	1475184843102	1475184843162	i	73
233902	2503323	I have the option of starting Jim Miller or picking up Chris Weinke.	I have the option of starting Jim Miller or picking up chris weinke.	118890455	1475184843271	1475184843351	k	75
233902	2503323	I have the option of starting Jim Miller or picking up Chris Weinke.	I have the option of starting Jim Miller or picking up chris weinke.	118890460	1475184843391	1475184843476	n	78
233902	2503323	I have the option of starting Jim Miller or picking up Chris Weinke.	I have the option of starting Jim Miller or picking up chris weinke.	118890464	1475184843799	1475184843859	BKSP	8
233902	2503323	I have the option of starting Jim Miller or picking up Chris Weinke.	I have the option of starting Jim Miller or picking up chris weinke.	118890468	1475184843928	1475184843988	BKSP	8
233902	2503323	I have the option of starting Jim Miller or picking up Chris Weinke.	I have the option of starting Jim Miller or picking up chris weinke.	118890473	1475184844008	1475184844052	n	78
233902	2503323	I have the option of starting Jim Miller or picking up Chris Weinke.	I have the option of starting Jim Miller or picking up chris weinke.	118890474	1475184844048	1475184844088	k	75
233902	2503323	I have the option of starting Jim Miller or picking up Chris Weinke.	I have the option of starting Jim Miller or picking up chris weinke.	118890476	1475184844182	1475184844267	e	69
233902	2503323	I have the option of starting Jim Miller or picking up Chris Weinke.	I have the option of starting Jim Miller or picking up chris weinke.	118890477	1475184844282	1475184844342	.	190
233902	2503344	Dayne and another second tier RB for one of the above.	Dayne antd another second tier RB for one of the above.	118890618	1475184846362	1475184846522	SHIFT	16
233902	2503344	Dayne and another second tier RB for one of the above.	Dayne antd another second tier RB for one of the above.	118890623	1475184846482	1475184846581	D	68
233902	2503344	Dayne and another second tier RB for one of the above.	Dayne antd another second tier RB for one of the above.	118890627	1475184846815	1475184846915	a	65
233902	2503344	Dayne and another second tier RB for one of the above.	Dayne antd another second tier RB for one of the above.	118890632	1475184846944	1475184847004	y	89
233902	2503344	Dayne and another second tier RB for one of the above.	Dayne antd another second tier RB for one of the above.	118890636	1475184847049	1475184847129	n	78
233902	2503344	Dayne and another second tier RB for one of the above.	Dayne antd another second tier RB for one of the above.	118890641	1475184847213	1475184847273	e	69
233902	2503344	Dayne and another second tier RB for one of the above.	Dayne antd another second tier RB for one of the above.	118890674	1475184847303	1475184847383	 	32
233902	2503344	Dayne and another second tier RB for one of the above.	Dayne antd another second tier RB for one of the above.	118890679	1475184847442	1475184847522	a	65
233902	2503344	Dayne and another second tier RB for one of the above.	Dayne antd another second tier RB for one of the above.	118890684	1475184847542	1475184847627	n	78
233902	2503344	Dayne and another second tier RB for one of the above.	Dayne antd another second tier RB for one of the above.	118890690	1475184847651	1475184847711	t	84
233902	2503344	Dayne and another second tier RB for one of the above.	Dayne antd another second tier RB for one of the above.	118890696	1475184847980	1475184848059	d	68
233902	2503344	Dayne and another second tier RB for one of the above.	Dayne antd another second tier RB for one of the above.	118890752	1475184848040	1475184848119	 	32
233902	2503344	Dayne and another second tier RB for one of the above.	Dayne antd another second tier RB for one of the above.	118890755	1475184848303	1475184848384	o	79
233902	2503344	Dayne and another second tier RB for one of the above.	Dayne antd another second tier RB for one of the above.	118890757	1475184848413	1475184848473	t	84
233902	2503344	Dayne and another second tier RB for one of the above.	Dayne antd another second tier RB for one of the above.	118890760	1475184848662	1475184848722	BKSP	8
233902	2503344	Dayne and another second tier RB for one of the above.	Dayne antd another second tier RB for one of the above.	118890762	1475184848789	1475184848866	BKSP	8
233902	2503344	Dayne and another second tier RB for one of the above.	Dayne antd another second tier RB for one of the above.	118890765	1475184848829	1475184848927	a	65
233902	2503344	Dayne and another second tier RB for one of the above.	Dayne antd another second tier RB for one of the above.	118890768	1475184848926	1475184848985	n	78
233902	2503344	Dayne and another second tier RB for one of the above.	Dayne antd another second tier RB for one of the above.	118890771	1475184849030	1475184849110	o	79
233902	2503344	Dayne and another second tier RB for one of the above.	Dayne antd another second tier RB for one of the above.	118890779	1475184849117	1475184849170	t	84
233902	2503344	Dayne and another second tier RB for one of the above.	Dayne antd another second tier RB for one of the above.	118890782	1475184849189	1475184849269	h	72
233902	2503344	Dayne and another second tier RB for one of the above.	Dayne antd another second tier RB for one of the above.	118890786	1475184849273	1475184849349	e	69
233902	2503344	Dayne and another second tier RB for one of the above.	Dayne antd another second tier RB for one of the above.	118890793	1475184849309	1475184849369	r	82
233902	2503344	Dayne and another second tier RB for one of the above.	Dayne antd another second tier RB for one of the above.	118890801	1475184849389	1475184849452	 	32
233902	2503344	Dayne and another second tier RB for one of the above.	Dayne antd another second tier RB for one of the above.	118890832	1475184849493	1475184849573	s	83
233902	2503344	Dayne and another second tier RB for one of the above.	Dayne antd another second tier RB for one of the above.	118890834	1475184849598	1475184849657	e	69
233902	2503344	Dayne and another second tier RB for one of the above.	Dayne antd another second tier RB for one of the above.	118890840	1475184849752	1475184849814	c	67
233902	2503344	Dayne and another second tier RB for one of the above.	Dayne antd another second tier RB for one of the above.	118890844	1475184849812	1475184849872	o	79
233902	2503344	Dayne and another second tier RB for one of the above.	Dayne antd another second tier RB for one of the above.	118890848	1475184849931	1475184850017	n	78
233902	2503344	Dayne and another second tier RB for one of the above.	Dayne antd another second tier RB for one of the above.	118890854	1475184850040	1475184850101	d	68
233902	2503344	Dayne and another second tier RB for one of the above.	Dayne antd another second tier RB for one of the above.	118890856	1475184850125	1475184850185	 	32
233902	2503344	Dayne and another second tier RB for one of the above.	Dayne antd another second tier RB for one of the above.	118890858	1475184850257	1475184850334	t	84
233902	2503344	Dayne and another second tier RB for one of the above.	Dayne antd another second tier RB for one of the above.	118890860	1475184850404	1475184850484	i	73
233902	2503344	Dayne and another second tier RB for one of the above.	Dayne antd another second tier RB for one of the above.	118890862	1475184850518	1475184850638	e	69
233902	2503344	Dayne and another second tier RB for one of the above.	Dayne antd another second tier RB for one of the above.	118890944	1475184850598	1475184850703	r	82
233902	2503344	Dayne and another second tier RB for one of the above.	Dayne antd another second tier RB for one of the above.	118890948	1475184850798	1475184850897	 	32
233902	2503344	Dayne and another second tier RB for one of the above.	Dayne antd another second tier RB for one of the above.	118890955	1475184851539	1475184851798	SHIFT	16
233902	2503344	Dayne and another second tier RB for one of the above.	Dayne antd another second tier RB for one of the above.	118890953	1475184851638	1475184851718	R	82
233902	2503344	Dayne and another second tier RB for one of the above.	Dayne antd another second tier RB for one of the above.	118890957	1475184851758	1475184851837	B	66
233902	2503344	Dayne and another second tier RB for one of the above.	Dayne antd another second tier RB for one of the above.	118890961	1475184851927	1475184852007	 	32
233902	2503344	Dayne and another second tier RB for one of the above.	Dayne antd another second tier RB for one of the above.	118890965	1475184852026	1475184852107	f	70
233902	2503344	Dayne and another second tier RB for one of the above.	Dayne antd another second tier RB for one of the above.	118891003	1475184852106	1475184852166	o	79
233902	2503344	Dayne and another second tier RB for one of the above.	Dayne antd another second tier RB for one of the above.	118891009	1475184852196	1475184852255	r	82
233902	2503344	Dayne and another second tier RB for one of the above.	Dayne antd another second tier RB for one of the above.	118891017	1475184852335	1475184852395	 	32
233902	2503344	Dayne and another second tier RB for one of the above.	Dayne antd another second tier RB for one of the above.	118891024	1475184852669	1475184852768	o	79
233902	2503344	Dayne and another second tier RB for one of the above.	Dayne antd another second tier RB for one of the above.	118891031	1475184852833	1475184852912	n	78
233902	2503344	Dayne and another second tier RB for one of the above.	Dayne antd another second tier RB for one of the above.	118891037	1475184852932	1475184852972	e	69
233902	2503344	Dayne and another second tier RB for one of the above.	Dayne antd another second tier RB for one of the above.	118891049	1475184853007	1475184853087	 	32
233902	2503344	Dayne and another second tier RB for one of the above.	Dayne antd another second tier RB for one of the above.	118891051	1475184853151	1475184853231	o	79
233902	2503344	Dayne and another second tier RB for one of the above.	Dayne antd another second tier RB for one of the above.	118891053	1475184853261	1475184853341	f	70
233902	2503344	Dayne and another second tier RB for one of the above.	Dayne antd another second tier RB for one of the above.	118891054	1475184853360	1475184853420	 	32
233902	2503344	Dayne and another second tier RB for one of the above.	Dayne antd another second tier RB for one of the above.	118891057	1475184853450	1475184853510	t	84
233902	2503344	Dayne and another second tier RB for one of the above.	Dayne antd another second tier RB for one of the above.	118891084	1475184853530	1475184853589	h	72
233902	2503344	Dayne and another second tier RB for one of the above.	Dayne antd another second tier RB for one of the above.	118891087	1475184853609	1475184853689	e	69
233902	2503344	Dayne and another second tier RB for one of the above.	Dayne antd another second tier RB for one of the above.	118891091	1475184853719	1475184853799	 	32
233902	2503344	Dayne and another second tier RB for one of the above.	Dayne antd another second tier RB for one of the above.	118891096	1475184853800	1475184853878	a	65
233902	2503344	Dayne and another second tier RB for one of the above.	Dayne antd another second tier RB for one of the above.	118891101	1475184853898	1475184853958	b	66
233902	2503344	Dayne and another second tier RB for one of the above.	Dayne antd another second tier RB for one of the above.	118891129	1475184853988	1475184854047	o	79
233902	2503344	Dayne and another second tier RB for one of the above.	Dayne antd another second tier RB for one of the above.	118891133	1475184854112	1475184854212	v	86
233902	2503344	Dayne and another second tier RB for one of the above.	Dayne antd another second tier RB for one of the above.	118891139	1475184854246	1475184854327	e	69
233902	2503356	I am on my way.	I am on my way	118891379	1475184856775	1475184856974	SHIFT	16
233902	2503356	I am on my way.	I am on my way	118891381	1475184856914	1475184856975	I	73
233902	2503356	I am on my way.	I am on my way	118891383	1475184857048	1475184857108	n	78
233902	2503356	I am on my way.	I am on my way	118891387	1475184857138	1475184857199	a	65
233902	2503356	I am on my way.	I am on my way	118891393	1475184857198	1475184857257	m	77
233902	2503356	I am on my way.	I am on my way	118891397	1475184857576	1475184857635	BKSP	8
233902	2503356	I am on my way.	I am on my way	118891402	1475184857705	1475184857785	BKSP	8
233902	2503356	I am on my way.	I am on my way	118891405	1475184858068	1475184858148	BKSP	8
233902	2503356	I am on my way.	I am on my way	118891408	1475184858193	1475184858272	 	32
233902	2503356	I am on my way.	I am on my way	118891430	1475184858275	1475184858372	a	65
233902	2503356	I am on my way.	I am on my way	118891432	1475184858352	1475184858412	m	77
233902	2503356	I am on my way.	I am on my way	118891436	1475184858631	1475184858710	 	32
233902	2503356	I am on my way.	I am on my way	118891441	1475184858830	1475184858909	o	79
233902	2503356	I am on my way.	I am on my way	118891444	1475184859083	1475184859163	n	78
233902	2503356	I am on my way.	I am on my way	118891465	1475184859233	1475184859313	 	32
233902	2503356	I am on my way.	I am on my way	118891467	1475184859377	1475184859457	m	77
233902	2503356	I am on my way.	I am on my way	118891471	1475184859477	1475184859536	y	89
233902	2503356	I am on my way.	I am on my way	118891475	1475184859556	1475184859616	 	32
233902	2503356	I am on my way.	I am on my way	118891479	1475184860004	1475184860104	w	87
233902	2503366	Check with Vince Strohmeyer.	Check with Vince strohmyer	118891698	1475184862433	1475184862652	SHIFT	16
233902	2503366	Check with Vince Strohmeyer.	Check with Vince strohmyer	118891702	1475184862552	1475184862692	C	67
233902	2503366	Check with Vince Strohmeyer.	Check with Vince strohmyer	118891706	1475184862691	1475184862751	h	72
233902	2503366	Check with Vince Strohmeyer.	Check with Vince strohmyer	118891708	1475184862910	1475184862990	e	69
233902	2503366	Check with Vince Strohmeyer.	Check with Vince strohmyer	118891711	1475184863045	1475184863124	k	75
233902	2503366	Check with Vince Strohmeyer.	Check with Vince strohmyer	118891712	1475184863239	1475184863259	 	32
233902	2503366	Check with Vince Strohmeyer.	Check with Vince strohmyer	118891791	1475184863945	1475184864025	BKSP	8
233902	2503366	Check with Vince Strohmeyer.	Check with Vince strohmyer	118891795	1475184864085	1475184864164	BKSP	8
233902	2503366	Check with Vince Strohmeyer.	Check with Vince strohmyer	118891797	1475184864145	1475184864224	c	67
233902	2503366	Check with Vince Strohmeyer.	Check with Vince strohmyer	118891798	1475184864244	1475184864304	k	75
233902	2503366	Check with Vince Strohmeyer.	Check with Vince strohmyer	118891799	1475184864348	1475184864448	 	32
233902	2503366	Check with Vince Strohmeyer.	Check with Vince strohmyer	118891801	1475184864449	1475184864528	w	87
233902	2503366	Check with Vince Strohmeyer.	Check with Vince strohmyer	118891803	1475184864553	1475184864627	i	73
233902	2503366	Check with Vince Strohmeyer.	Check with Vince strohmyer	118891835	1475184864648	1475184864732	t	84
233902	2503366	Check with Vince Strohmeyer.	Check with Vince strohmyer	118891838	1475184864708	1475184864792	h	72
233902	2503366	Check with Vince Strohmeyer.	Check with Vince strohmyer	118891843	1475184864816	1475184864897	 	32
233902	2503366	Check with Vince Strohmeyer.	Check with Vince strohmyer	118891846	1475184864976	1475184865155	SHIFT	16
233902	2503366	Check with Vince Strohmeyer.	Check with Vince strohmyer	118891847	1475184865211	1475184865608	SHIFT	16
233902	2503366	Check with Vince Strohmeyer.	Check with Vince strohmyer	118891848	1475184865568	1475184865649	V	86
233902	2503366	Check with Vince Strohmeyer.	Check with Vince strohmyer	118891864	1475184865647	1475184865707	i	73
233902	2503366	Check with Vince Strohmeyer.	Check with Vince strohmyer	118891865	1475184865777	1475184865857	n	78
233902	2503366	Check with Vince Strohmeyer.	Check with Vince strohmyer	118891866	1475184865837	1475184865916	c	67
233902	2503366	Check with Vince Strohmeyer.	Check with Vince strohmyer	118891868	1475184865976	1475184866036	e	69
233902	2503366	Check with Vince Strohmeyer.	Check with Vince strohmyer	118891870	1475184866075	1475184866155	 	32
233902	2503366	Check with Vince Strohmeyer.	Check with Vince strohmyer	118891872	1475184866419	1475184866538	s	83
233902	2503366	Check with Vince Strohmeyer.	Check with Vince strohmyer	118891928	1475184866634	1475184866708	t	84
233902	2503366	Check with Vince Strohmeyer.	Check with Vince strohmyer	118891930	1475184867041	1475184867126	r	82
233902	2503366	Check with Vince Strohmeyer.	Check with Vince strohmyer	118891933	1475184867275	1475184867341	BKSP	8
233902	2503366	Check with Vince Strohmeyer.	Check with Vince strohmyer	118891940	1475184867434	1475184867474	BKSP	8
233902	2503366	Check with Vince Strohmeyer.	Check with Vince strohmyer	118891944	1475184867802	1475184867882	t	84
233902	2503366	Check with Vince Strohmeyer.	Check with Vince strohmyer	118891948	1475184867912	1475184867992	r	82
233902	2503366	Check with Vince Strohmeyer.	Check with Vince strohmyer	118891952	1475184868011	1475184868071	o	79
233902	2503366	Check with Vince Strohmeyer.	Check with Vince strohmyer	118892076	1475184868176	1475184868275	m	77
233902	2503366	Check with Vince Strohmeyer.	Check with Vince strohmyer	118892080	1475184869539	1475184869619	BKSP	8
233902	2503366	Check with Vince Strohmeyer.	Check with Vince strohmyer	118892083	1475184869620	1475184869679	h	72
233902	2503366	Check with Vince Strohmeyer.	Check with Vince strohmyer	118892088	1475184869698	1475184869778	m	77
233902	2503366	Check with Vince Strohmeyer.	Check with Vince strohmyer	118892091	1475184870524	1475184870644	e	69
233902	2503378	But he vows to support any drivers who support the Pacers.	But he vows to supprtany drivers who support the pacers	118892314	1475184870982	1475184874486	e	69
233902	2503378	But he vows to support any drivers who support the Pacers.	But he vows to supprtany drivers who support the pacers	118892631	1475184871022	1475184879910	r	82
233902	2503378	But he vows to support any drivers who support the Pacers.	But he vows to supprtany drivers who support the pacers	118892254	1475184873426	1475184873684	SHIFT	16
233902	2503378	But he vows to support any drivers who support the Pacers.	But he vows to supprtany drivers who support the pacers	118892256	1475184873625	1475184873685	B	66
233902	2503378	But he vows to support any drivers who support the Pacers.	But he vows to supprtany drivers who support the pacers	118892258	1475184873898	1475184873978	u	85
233902	2503378	But he vows to support any drivers who support the Pacers.	But he vows to supprtany drivers who support the pacers	118892260	1475184874018	1475184874103	t	84
233902	2503378	But he vows to support any drivers who support the Pacers.	But he vows to supprtany drivers who support the pacers	118892263	1475184874117	1475184874198	 	32
233902	2503378	But he vows to support any drivers who support the Pacers.	But he vows to supprtany drivers who support the pacers	118892265	1475184874306	1475184874391	h	72
233902	2503378	But he vows to support any drivers who support the Pacers.	But he vows to supprtany drivers who support the pacers	118892317	1475184874759	1475184874859	 	32
233902	2503378	But he vows to support any drivers who support the Pacers.	But he vows to supprtany drivers who support the pacers	118892322	1475184874860	1475184874939	w	87
233902	2503378	But he vows to support any drivers who support the Pacers.	But he vows to supprtany drivers who support the pacers	118892329	1475184875113	1475184875212	BKSP	8
233902	2503378	But he vows to support any drivers who support the Pacers.	But he vows to supprtany drivers who support the pacers	118892334	1475184875287	1475184875386	v	86
233902	2503378	But he vows to support any drivers who support the Pacers.	But he vows to supprtany drivers who support the pacers	118892340	1475184875366	1475184875446	o	79
233902	2503378	But he vows to support any drivers who support the Pacers.	But he vows to supprtany drivers who support the pacers	118892347	1475184875710	1475184875809	w	87
233902	2503378	But he vows to support any drivers who support the Pacers.	But he vows to supprtany drivers who support the pacers	118892439	1475184875874	1475184875954	s	83
233902	2503378	But he vows to support any drivers who support the Pacers.	But he vows to supprtany drivers who support the pacers	118892442	1475184875973	1475184876053	 	32
233902	2503378	But he vows to support any drivers who support the Pacers.	But he vows to supprtany drivers who support the pacers	118892445	1475184876297	1475184876954	BKSP	8
233902	2503378	But he vows to support any drivers who support the Pacers.	But he vows to supprtany drivers who support the pacers	118892449	1475184877183	1475184877262	BKSP	8
233902	2503378	But he vows to support any drivers who support the Pacers.	But he vows to supprtany drivers who support the pacers	118892454	1475184877322	1475184877402	BKSP	8
233902	2503378	But he vows to support any drivers who support the Pacers.	But he vows to supprtany drivers who support the pacers	118892457	1475184877441	1475184877521	h	72
233902	2503378	But he vows to support any drivers who support the Pacers.	But he vows to supprtany drivers who support the pacers	118892461	1475184877501	1475184877561	e	69
233902	2503378	But he vows to support any drivers who support the Pacers.	But he vows to supprtany drivers who support the pacers	118892464	1475184877601	1475184877700	 	32
233902	2503378	But he vows to support any drivers who support the Pacers.	But he vows to supprtany drivers who support the pacers	118892472	1475184877703	1475184877800	v	86
233902	2503378	But he vows to support any drivers who support the Pacers.	But he vows to supprtany drivers who support the pacers	118892476	1475184877830	1475184877909	o	79
233902	2503378	But he vows to support any drivers who support the Pacers.	But he vows to supprtany drivers who support the pacers	118892480	1475184877929	1475184877989	w	87
233902	2503378	But he vows to support any drivers who support the Pacers.	But he vows to supprtany drivers who support the pacers	118892483	1475184878078	1475184878160	s	83
233902	2503378	But he vows to support any drivers who support the Pacers.	But he vows to supprtany drivers who support the pacers	118892531	1475184878158	1475184878238	 	32
233902	2503378	But he vows to support any drivers who support the Pacers.	But he vows to supprtany drivers who support the pacers	118892534	1475184878566	1475184878666	s	83
233902	2503378	But he vows to support any drivers who support the Pacers.	But he vows to supprtany drivers who support the pacers	118892537	1475184878835	1475184878915	BKSP	8
233902	2503378	But he vows to support any drivers who support the Pacers.	But he vows to supprtany drivers who support the pacers	118892542	1475184878934	1475184878994	t	84
233902	2503378	But he vows to support any drivers who support the Pacers.	But he vows to supprtany drivers who support the pacers	118892546	1475184878955	1475184879014	o	79
233902	2503378	But he vows to support any drivers who support the Pacers.	But he vows to supprtany drivers who support the pacers	118892554	1475184879094	1475184879173	 	32
233902	2503378	But he vows to support any drivers who support the Pacers.	But he vows to supprtany drivers who support the pacers	118892561	1475184879193	1475184879274	s	83
233902	2503378	But he vows to support any drivers who support the Pacers.	But he vows to supprtany drivers who support the pacers	118892610	1475184879273	1475184879333	u	85
233902	2503378	But he vows to support any drivers who support the Pacers.	But he vows to supprtany drivers who support the pacers	118892616	1475184879447	1475184879527	p	80
233902	2503378	But he vows to support any drivers who support the Pacers.	But he vows to supprtany drivers who support the pacers	118892621	1475184879596	1475184879656	p	80
233902	2503378	But he vows to support any drivers who support the Pacers.	But he vows to supprtany drivers who support the pacers	118892626	1475184879636	1475184879756	o	79
233902	2503378	But he vows to support any drivers who support the Pacers.	But he vows to supprtany drivers who support the pacers	118892634	1475184879870	1475184879950	t	84
233902	2503378	But he vows to support any drivers who support the Pacers.	But he vows to supprtany drivers who support the pacers	118892637	1475184879989	1475184880069	 	32
233902	2503378	But he vows to support any drivers who support the Pacers.	But he vows to supprtany drivers who support the pacers	118892646	1475184880283	1475184880343	n	78
233902	2503378	But he vows to support any drivers who support the Pacers.	But he vows to supprtany drivers who support the pacers	118892649	1475184880373	1475184880433	y	89
233902	2503378	But he vows to support any drivers who support the Pacers.	But he vows to supprtany drivers who support the pacers	118892653	1475184880462	1475184880542	 	32
233902	2503378	But he vows to support any drivers who support the Pacers.	But he vows to supprtany drivers who support the pacers	118892658	1475184880606	1475184880686	d	68
233902	2503378	But he vows to support any drivers who support the Pacers.	But he vows to supprtany drivers who support the pacers	118892664	1475184880766	1475184880826	r	82
233902	2503378	But he vows to support any drivers who support the Pacers.	But he vows to supprtany drivers who support the pacers	118892685	1475184880855	1475184880915	i	73
233902	2503378	But he vows to support any drivers who support the Pacers.	But he vows to supprtany drivers who support the pacers	118892687	1475184880935	1475184881015	v	86
233902	2503378	But he vows to support any drivers who support the Pacers.	But he vows to supprtany drivers who support the pacers	118892701	1475184881094	1475184881275	e	69
233902	2503378	But he vows to support any drivers who support the Pacers.	But he vows to supprtany drivers who support the pacers	118892696	1475184881174	1475184881273	r	82
233902	2503378	But he vows to support any drivers who support the Pacers.	But he vows to supprtany drivers who support the pacers	118892707	1475184881275	1475184881353	s	83
233902	2503378	But he vows to support any drivers who support the Pacers.	But he vows to supprtany drivers who support the pacers	118892733	1475184881477	1475184881577	 	32
233902	2503378	But he vows to support any drivers who support the Pacers.	But he vows to supprtany drivers who support the pacers	118892740	1475184881617	1475184881716	w	87
233902	2503378	But he vows to support any drivers who support the Pacers.	But he vows to supprtany drivers who support the pacers	118892747	1475184881736	1475184881796	h	72
233902	2503378	But he vows to support any drivers who support the Pacers.	But he vows to supprtany drivers who support the pacers	118892754	1475184881756	1475184881816	o	79
233902	2503378	But he vows to support any drivers who support the Pacers.	But he vows to supprtany drivers who support the pacers	118892763	1475184881930	1475184882010	 	32
233902	2503378	But he vows to support any drivers who support the Pacers.	But he vows to supprtany drivers who support the pacers	118892781	1475184882030	1475184882109	s	83
233902	2503378	But he vows to support any drivers who support the Pacers.	But he vows to supprtany drivers who support the pacers	118892785	1475184882139	1475184882159	u	85
233902	2503378	But he vows to support any drivers who support the Pacers.	But he vows to supprtany drivers who support the pacers	118892791	1475184882318	1475184882378	p	80
233902	2503378	But he vows to support any drivers who support the Pacers.	But he vows to supprtany drivers who support the pacers	118892796	1475184882463	1475184882543	p	80
233902	2503378	But he vows to support any drivers who support the Pacers.	But he vows to supprtany drivers who support the pacers	118892809	1475184882542	1475184882622	o	79
233902	2503378	But he vows to support any drivers who support the Pacers.	But he vows to supprtany drivers who support the pacers	118892813	1475184882642	1475184882721	r	82
233902	2503378	But he vows to support any drivers who support the Pacers.	But he vows to supprtany drivers who support the pacers	118892816	1475184882701	1475184882761	t	84
233902	2503378	But he vows to support any drivers who support the Pacers.	But he vows to supprtany drivers who support the pacers	118892820	1475184882762	1475184882821	 	32
233902	2503378	But he vows to support any drivers who support the Pacers.	But he vows to supprtany drivers who support the pacers	118892825	1475184882851	1475184882930	t	84
233902	2503378	But he vows to support any drivers who support the Pacers.	But he vows to supprtany drivers who support the pacers	118892906	1475184882910	1475184882970	h	72
233902	2503378	But he vows to support any drivers who support the Pacers.	But he vows to supprtany drivers who support the pacers	118892911	1475184883000	1475184883040	e	69
233902	2503378	But he vows to support any drivers who support the Pacers.	But he vows to supprtany drivers who support the pacers	118892916	1475184883075	1475184883154	 	32
233902	2503378	But he vows to support any drivers who support the Pacers.	But he vows to supprtany drivers who support the pacers	118892922	1475184883353	1475184883433	p	80
233902	2503378	But he vows to support any drivers who support the Pacers.	But he vows to supprtany drivers who support the pacers	118892927	1475184883434	1475184883494	a	65
233902	2503378	But he vows to support any drivers who support the Pacers.	But he vows to supprtany drivers who support the pacers	118892948	1475184883493	1475184883532	c	67
233902	2503378	But he vows to support any drivers who support the Pacers.	But he vows to supprtany drivers who support the pacers	118892960	1475184883627	1475184883746	e	69
233902	2503378	But he vows to support any drivers who support the Pacers.	But he vows to supprtany drivers who support the pacers	118892971	1475184883727	1475184883786	r	82
233902	2503394	Feel free to use Robinson if he doesn't suffer a setback.	Feel free to se Robinson if he doesn't suffer a setback	118893335	1475184883821	1475184890006	s	83
233902	2503394	Feel free to use Robinson if he doesn't suffer a setback.	Feel free to se Robinson if he doesn't suffer a setback	118893187	1475184887269	1475184887429	SHIFT	16
233902	2503394	Feel free to use Robinson if he doesn't suffer a setback.	Feel free to se Robinson if he doesn't suffer a setback	118893191	1475184887369	1475184887468	F	70
233902	2503394	Feel free to use Robinson if he doesn't suffer a setback.	Feel free to se Robinson if he doesn't suffer a setback	118893194	1475184887548	1475184887611	e	69
233902	2503394	Feel free to use Robinson if he doesn't suffer a setback.	Feel free to se Robinson if he doesn't suffer a setback	118893198	1475184887667	1475184887747	e	69
233902	2503394	Feel free to use Robinson if he doesn't suffer a setback.	Feel free to se Robinson if he doesn't suffer a setback	118893204	1475184887767	1475184887827	o	79
233902	2503394	Feel free to use Robinson if he doesn't suffer a setback.	Feel free to se Robinson if he doesn't suffer a setback	118893209	1475184887896	1475184887976	 	32
233902	2503394	Feel free to use Robinson if he doesn't suffer a setback.	Feel free to se Robinson if he doesn't suffer a setback	118893271	1475184888100	1475184888180	BKSP	8
233902	2503394	Feel free to use Robinson if he doesn't suffer a setback.	Feel free to se Robinson if he doesn't suffer a setback	118893275	1475184888239	1475184888319	BKSP	8
233902	2503394	Feel free to use Robinson if he doesn't suffer a setback.	Feel free to se Robinson if he doesn't suffer a setback	118893281	1475184888379	1475184888439	l	76
233902	2503394	Feel free to use Robinson if he doesn't suffer a setback.	Feel free to se Robinson if he doesn't suffer a setback	118893287	1475184888787	1475184888867	 	32
233902	2503394	Feel free to use Robinson if he doesn't suffer a setback.	Feel free to se Robinson if he doesn't suffer a setback	118893291	1475184888868	1475184888946	f	70
233902	2503394	Feel free to use Robinson if he doesn't suffer a setback.	Feel free to se Robinson if he doesn't suffer a setback	118893295	1475184889021	1475184889120	r	82
233902	2503394	Feel free to use Robinson if he doesn't suffer a setback.	Feel free to se Robinson if he doesn't suffer a setback	118893301	1475184889165	1475184889225	e	69
233902	2503394	Feel free to use Robinson if he doesn't suffer a setback.	Feel free to se Robinson if he doesn't suffer a setback	118893322	1475184889289	1475184889369	e	69
233902	2503394	Feel free to use Robinson if he doesn't suffer a setback.	Feel free to se Robinson if he doesn't suffer a setback	118893325	1475184889404	1475184889484	 	32
233902	2503394	Feel free to use Robinson if he doesn't suffer a setback.	Feel free to se Robinson if he doesn't suffer a setback	118893328	1475184889503	1475184889563	t	84
233902	2503394	Feel free to use Robinson if he doesn't suffer a setback.	Feel free to se Robinson if he doesn't suffer a setback	118893332	1475184889583	1475184889663	o	79
233902	2503394	Feel free to use Robinson if he doesn't suffer a setback.	Feel free to se Robinson if he doesn't suffer a setback	118893333	1475184889727	1475184889807	 	32
233902	2503394	Feel free to use Robinson if he doesn't suffer a setback.	Feel free to se Robinson if he doesn't suffer a setback	118893334	1475184889867	1475184889946	u	85
233902	2503394	Feel free to use Robinson if he doesn't suffer a setback.	Feel free to se Robinson if he doesn't suffer a setback	118893336	1475184889966	1475184890068	e	69
233902	2503394	Feel free to use Robinson if he doesn't suffer a setback.	Feel free to se Robinson if he doesn't suffer a setback	118893337	1475184890066	1475184890145	 	32
233902	2503394	Feel free to use Robinson if he doesn't suffer a setback.	Feel free to se Robinson if he doesn't suffer a setback	118893339	1475184890225	1475184890345	SHIFT	16
233902	2503394	Feel free to use Robinson if he doesn't suffer a setback.	Feel free to se Robinson if he doesn't suffer a setback	118893342	1475184890305	1475184890409	R	82
233902	2503394	Feel free to use Robinson if he doesn't suffer a setback.	Feel free to se Robinson if he doesn't suffer a setback	118893345	1475184890424	1475184890484	o	79
233902	2503394	Feel free to use Robinson if he doesn't suffer a setback.	Feel free to se Robinson if he doesn't suffer a setback	118893381	1475184890534	1475184890638	n	78
233902	2503394	Feel free to use Robinson if he doesn't suffer a setback.	Feel free to se Robinson if he doesn't suffer a setback	118893387	1475184890962	1475184891021	BKSP	8
233902	2503394	Feel free to use Robinson if he doesn't suffer a setback.	Feel free to se Robinson if he doesn't suffer a setback	118893393	1475184891022	1475184891096	b	66
233902	2503394	Feel free to use Robinson if he doesn't suffer a setback.	Feel free to se Robinson if he doesn't suffer a setback	118893394	1475184891131	1475184891191	i	73
233902	2503394	Feel free to use Robinson if he doesn't suffer a setback.	Feel free to se Robinson if he doesn't suffer a setback	118893398	1475184891250	1475184891334	n	78
233902	2503394	Feel free to use Robinson if he doesn't suffer a setback.	Feel free to se Robinson if he doesn't suffer a setback	118893401	1475184891360	1475184891459	s	83
233902	2503394	Feel free to use Robinson if he doesn't suffer a setback.	Feel free to se Robinson if he doesn't suffer a setback	118893415	1475184891494	1475184891574	o	79
233902	2503394	Feel free to use Robinson if he doesn't suffer a setback.	Feel free to se Robinson if he doesn't suffer a setback	118893419	1475184891603	1475184891683	n	78
233902	2503394	Feel free to use Robinson if he doesn't suffer a setback.	Feel free to se Robinson if he doesn't suffer a setback	118893425	1475184891703	1475184891763	 	32
233902	2503394	Feel free to use Robinson if he doesn't suffer a setback.	Feel free to se Robinson if he doesn't suffer a setback	118893431	1475184891858	1475184891937	i	73
233902	2503394	Feel free to use Robinson if he doesn't suffer a setback.	Feel free to se Robinson if he doesn't suffer a setback	118893438	1475184891958	1475184892017	f	70
233902	2503394	Feel free to use Robinson if he doesn't suffer a setback.	Feel free to se Robinson if he doesn't suffer a setback	118893460	1475184892161	1475184892246	 	32
233902	2503394	Feel free to use Robinson if he doesn't suffer a setback.	Feel free to se Robinson if he doesn't suffer a setback	118893464	1475184892354	1475184892430	h	72
233902	2503394	Feel free to use Robinson if he doesn't suffer a setback.	Feel free to se Robinson if he doesn't suffer a setback	118893469	1475184892431	1475184892490	e	69
233902	2503394	Feel free to use Robinson if he doesn't suffer a setback.	Feel free to se Robinson if he doesn't suffer a setback	118893471	1475184892534	1475184892609	 	32
233902	2503394	Feel free to use Robinson if he doesn't suffer a setback.	Feel free to se Robinson if he doesn't suffer a setback	118893477	1475184892629	1475184892689	d	68
233902	2503394	Feel free to use Robinson if he doesn't suffer a setback.	Feel free to se Robinson if he doesn't suffer a setback	118893493	1475184892708	1475184892788	o	79
233902	2503394	Feel free to use Robinson if he doesn't suffer a setback.	Feel free to se Robinson if he doesn't suffer a setback	118893499	1475184892789	1475184892868	e	69
233902	2503394	Feel free to use Robinson if he doesn't suffer a setback.	Feel free to se Robinson if he doesn't suffer a setback	118893501	1475184892918	1475184893017	s	83
233902	2503394	Feel free to use Robinson if he doesn't suffer a setback.	Feel free to se Robinson if he doesn't suffer a setback	118893504	1475184892978	1475184893064	n	78
233902	2503394	Feel free to use Robinson if he doesn't suffer a setback.	Feel free to se Robinson if he doesn't suffer a setback	118893538	1475184893063	1475184893123	'	222
233902	2503394	Feel free to use Robinson if he doesn't suffer a setback.	Feel free to se Robinson if he doesn't suffer a setback	118893542	1475184893157	1475184893217	t	84
233902	2503394	Feel free to use Robinson if he doesn't suffer a setback.	Feel free to se Robinson if he doesn't suffer a setback	118893546	1475184893266	1475184893352	 	32
233902	2503394	Feel free to use Robinson if he doesn't suffer a setback.	Feel free to se Robinson if he doesn't suffer a setback	118893548	1475184893400	1475184893485	s	83
233902	2503394	Feel free to use Robinson if he doesn't suffer a setback.	Feel free to se Robinson if he doesn't suffer a setback	118893551	1475184893500	1475184893560	u	85
233902	2503394	Feel free to use Robinson if he doesn't suffer a setback.	Feel free to se Robinson if he doesn't suffer a setback	118893556	1475184893679	1475184893739	p	80
233902	2503394	Feel free to use Robinson if he doesn't suffer a setback.	Feel free to se Robinson if he doesn't suffer a setback	118893582	1475184893918	1475184893978	BKSP	8
233902	2503394	Feel free to use Robinson if he doesn't suffer a setback.	Feel free to se Robinson if he doesn't suffer a setback	118893585	1475184894023	1475184894077	f	70
233902	2503394	Feel free to use Robinson if he doesn't suffer a setback.	Feel free to se Robinson if he doesn't suffer a setback	118893589	1475184894152	1475184894252	f	70
233902	2503394	Feel free to use Robinson if he doesn't suffer a setback.	Feel free to se Robinson if he doesn't suffer a setback	118893595	1475184894321	1475184894461	e	69
233902	2503394	Feel free to use Robinson if he doesn't suffer a setback.	Feel free to se Robinson if he doesn't suffer a setback	118893601	1475184894441	1475184894520	r	82
233902	2503394	Feel free to use Robinson if he doesn't suffer a setback.	Feel free to se Robinson if he doesn't suffer a setback	118893604	1475184894570	1475184894630	 	32
233902	2503394	Feel free to use Robinson if he doesn't suffer a setback.	Feel free to se Robinson if he doesn't suffer a setback	118893656	1475184894650	1475184894710	a	65
233902	2503394	Feel free to use Robinson if he doesn't suffer a setback.	Feel free to se Robinson if he doesn't suffer a setback	118893659	1475184894739	1475184894819	 	32
233902	2503394	Feel free to use Robinson if he doesn't suffer a setback.	Feel free to se Robinson if he doesn't suffer a setback	118893664	1475184894879	1475184894959	s	83
233902	2503394	Feel free to use Robinson if he doesn't suffer a setback.	Feel free to se Robinson if he doesn't suffer a setback	118893667	1475184895157	1475184895219	t	84
233902	2503394	Feel free to use Robinson if he doesn't suffer a setback.	Feel free to se Robinson if he doesn't suffer a setback	118893670	1475184895411	1475184895491	BKSP	8
233902	2503394	Feel free to use Robinson if he doesn't suffer a setback.	Feel free to se Robinson if he doesn't suffer a setback	118893687	1475184895471	1475184895551	e	69
233902	2503394	Feel free to use Robinson if he doesn't suffer a setback.	Feel free to se Robinson if he doesn't suffer a setback	118893693	1475184895531	1475184895591	t	84
233902	2503394	Feel free to use Robinson if he doesn't suffer a setback.	Feel free to se Robinson if he doesn't suffer a setback	118893698	1475184895720	1475184895760	b	66
233902	2503394	Feel free to use Robinson if he doesn't suffer a setback.	Feel free to se Robinson if he doesn't suffer a setback	118893704	1475184896158	1475184896278	a	65
233902	2503394	Feel free to use Robinson if he doesn't suffer a setback.	Feel free to se Robinson if he doesn't suffer a setback	118893703	1475184896218	1475184896318	c	67
233902	2503394	Feel free to use Robinson if he doesn't suffer a setback.	Feel free to se Robinson if he doesn't suffer a setback	118893708	1475184896258	1475184896337	k	75
233902	2503412	Below is the intended version.	Below is the intended version	118893883	1475184898105	1475184898622	SHIFT	16
233902	2503412	Below is the intended version.	Below is the intended version	118893880	1475184898523	1475184898602	B	66
233902	2503412	Below is the intended version.	Below is the intended version	118893890	1475184898692	1475184898776	e	69
233902	2503412	Below is the intended version.	Below is the intended version	118893900	1475184898772	1475184898811	l	76
233902	2503412	Below is the intended version.	Below is the intended version	118893907	1475184898896	1475184898976	o	79
233902	2503412	Below is the intended version.	Below is the intended version	118893915	1475184899011	1475184899076	w	87
233902	2503412	Below is the intended version.	Below is the intended version	118893940	1475184899100	1475184899160	 	32
233902	2503412	Below is the intended version.	Below is the intended version	118893945	1475184899240	1475184899319	i	73
233902	2503412	Below is the intended version.	Below is the intended version	118893951	1475184899352	1475184899389	s	83
233902	2503412	Below is the intended version.	Below is the intended version	118893954	1475184899469	1475184899548	 	32
233902	2503412	Below is the intended version.	Below is the intended version	118893960	1475184899578	1475184899639	t	84
233902	2503412	Below is the intended version.	Below is the intended version	118893995	1475184899683	1475184899762	h	72
233902	2503412	Below is the intended version.	Below is the intended version	118893998	1475184899792	1475184899872	e	69
233902	2503412	Below is the intended version.	Below is the intended version	118894003	1475184899892	1475184899977	 	32
233902	2503412	Below is the intended version.	Below is the intended version	118894007	1475184900091	1475184900171	i	73
233902	2503412	Below is the intended version.	Below is the intended version	118894010	1475184900230	1475184900312	n	78
233902	2503412	Below is the intended version.	Below is the intended version	118894050	1475184900310	1475184900395	t	84
233902	2503412	Below is the intended version.	Below is the intended version	118894054	1475184900584	1475184900663	e	69
233902	2503412	Below is the intended version.	Below is the intended version	118894058	1475184900723	1475184900828	n	78
233902	2503412	Below is the intended version.	Below is the intended version	118894064	1475184900852	1475184900952	d	68
233902	2503412	Below is the intended version.	Below is the intended version	118894067	1475184900987	1475184901092	e	69
233902	2503412	Below is the intended version.	Below is the intended version	118894069	1475184901093	1475184901152	d	68
233902	2503412	Below is the intended version.	Below is the intended version	118894090	1475184901166	1475184901226	 	32
233902	2503412	Below is the intended version.	Below is the intended version	118894092	1475184901310	1475184901416	v	86
233902	2503412	Below is the intended version.	Below is the intended version	118894096	1475184901485	1475184901604	e	69
233902	2503412	Below is the intended version.	Below is the intended version	118894102	1475184901564	1475184901624	r	82
233902	2503412	Below is the intended version.	Below is the intended version	118894108	1475184901654	1475184901773	s	83
233902	2503412	Below is the intended version.	Below is the intended version	118894130	1475184901754	1475184901833	i	73
233902	2503412	Below is the intended version.	Below is the intended version	118894135	1475184901863	1475184901969	o	79
233902	2503412	Below is the intended version.	Below is the intended version	118894141	1475184901983	1475184902062	n	78
233902	2503418	They have to go away and have a think.	They have to go away and have a think.	118894270	1475184903869	1475184904367	SHIFT	16
233902	2503418	They have to go away and have a think.	They have to go away and have a think.	118894274	1475184904327	1475184904407	T	84
233902	2503418	They have to go away and have a think.	They have to go away and have a think.	118894279	1475184904408	1475184904468	h	72
233902	2503418	They have to go away and have a think.	They have to go away and have a think.	118894282	1475184904492	1475184904586	e	69
233902	2503418	They have to go away and have a think.	They have to go away and have a think.	118894286	1475184904566	1475184904626	y	89
233902	2503418	They have to go away and have a think.	They have to go away and have a think.	118894289	1475184904627	1475184904706	 	32
233902	2503418	They have to go away and have a think.	They have to go away and have a think.	118894311	1475184904780	1475184904860	h	72
233902	2503418	They have to go away and have a think.	They have to go away and have a think.	118894315	1475184904840	1475184904924	a	65
233902	2503418	They have to go away and have a think.	They have to go away and have a think.	118894320	1475184904920	1475184904960	v	86
233902	2503418	They have to go away and have a think.	They have to go away and have a think.	118894324	1475184905055	1475184905154	e	69
233902	2503418	They have to go away and have a think.	They have to go away and have a think.	118894327	1475184905189	1475184905284	 	32
233902	2503418	They have to go away and have a think.	They have to go away and have a think.	118894386	1475184905283	1475184905368	t	84
233902	2503418	They have to go away and have a think.	They have to go away and have a think.	118894390	1475184905382	1475184905462	o	79
233902	2503418	They have to go away and have a think.	They have to go away and have a think.	118894394	1475184905537	1475184905617	 	32
233902	2503418	They have to go away and have a think.	They have to go away and have a think.	118894398	1475184905646	1475184905727	g	71
233902	2503418	They have to go away and have a think.	They have to go away and have a think.	118894401	1475184905726	1475184905786	o	79
233902	2503418	They have to go away and have a think.	They have to go away and have a think.	118894407	1475184905875	1475184905955	 	32
233902	2503418	They have to go away and have a think.	They have to go away and have a think.	118894418	1475184905935	1475184905995	a	65
233902	2503418	They have to go away and have a think.	They have to go away and have a think.	118894419	1475184905975	1475184906075	w	87
233902	2503418	They have to go away and have a think.	They have to go away and have a think.	118894421	1475184906109	1475184906230	a	65
233902	2503418	They have to go away and have a think.	They have to go away and have a think.	118894425	1475184906215	1475184906269	y	89
233902	2503418	They have to go away and have a think.	They have to go away and have a think.	118894429	1475184906300	1475184906383	 	32
233902	2503418	They have to go away and have a think.	They have to go away and have a think.	118894437	1475184906419	1475184906493	a	65
233902	2503418	They have to go away and have a think.	They have to go away and have a think.	118894506	1475184906637	1475184906717	n	78
233902	2503418	They have to go away and have a think.	They have to go away and have a think.	118894510	1475184906747	1475184906806	d	68
233902	2503418	They have to go away and have a think.	They have to go away and have a think.	118894516	1475184906836	1475184906896	 	32
233902	2503418	They have to go away and have a think.	They have to go away and have a think.	118894520	1475184907304	1475184907384	h	72
233902	2503418	They have to go away and have a think.	They have to go away and have a think.	118894525	1475184907404	1475184907445	a	65
233902	2503418	They have to go away and have a think.	They have to go away and have a think.	118894588	1475184907444	1475184907543	v	86
233902	2503418	They have to go away and have a think.	They have to go away and have a think.	118894592	1475184907842	1475184907902	e	69
233902	2503418	They have to go away and have a think.	They have to go away and have a think.	118894595	1475184907936	1475184907996	 	32
233902	2503418	They have to go away and have a think.	They have to go away and have a think.	118894597	1475184908016	1475184908076	a	65
233902	2503418	They have to go away and have a think.	They have to go away and have a think.	118894600	1475184908106	1475184908165	 	32
233902	2503418	They have to go away and have a think.	They have to go away and have a think.	118894604	1475184908186	1475184908225	t	84
233902	2503418	They have to go away and have a think.	They have to go away and have a think.	118894599	1475184908335	1475184908395	i	73
233902	2503418	They have to go away and have a think.	They have to go away and have a think.	118894602	1475184908583	1475184908658	BKSP	8
233902	2503418	They have to go away and have a think.	They have to go away and have a think.	118894606	1475184908753	1475184908860	h	72
233902	2503418	They have to go away and have a think.	They have to go away and have a think.	118894609	1475184908852	1475184908933	i	73
233902	2503418	They have to go away and have a think.	They have to go away and have a think.	118894611	1475184908957	1475184908992	m	77
233902	2503418	They have to go away and have a think.	They have to go away and have a think.	118894615	1475184909017	1475184909091	k	75
233902	2503418	They have to go away and have a think.	They have to go away and have a think.	118894649	1475184909316	1475184909375	BKSP	8
233902	2503418	They have to go away and have a think.	They have to go away and have a think.	118894652	1475184909460	1475184909520	BKSP	8
233902	2503418	They have to go away and have a think.	They have to go away and have a think.	118894654	1475184909500	1475184909579	n	78
233902	2503418	They have to go away and have a think.	They have to go away and have a think.	118894658	1475184909559	1475184909639	k	75
233902	2503433	I have no personal transactions with any Enron entity.	I have no personal transactions with any Enron entity	118894832	1475184912353	1475184912691	SHIFT	16
233902	2503433	I have no personal transactions with any Enron entity.	I have no personal transactions with any Enron entity	118894835	1475184912631	1475184912711	I	73
233902	2503433	I have no personal transactions with any Enron entity.	I have no personal transactions with any Enron entity	118894839	1475184912780	1475184912846	 	32
233902	2503433	I have no personal transactions with any Enron entity.	I have no personal transactions with any Enron entity	118894848	1475184912906	1475184912979	h	72
233902	2503433	I have no personal transactions with any Enron entity.	I have no personal transactions with any Enron entity	118894854	1475184912999	1475184913086	a	65
233902	2503433	I have no personal transactions with any Enron entity.	I have no personal transactions with any Enron entity	118894886	1475184913079	1475184913179	v	86
233902	2503433	I have no personal transactions with any Enron entity.	I have no personal transactions with any Enron entity	118894891	1475184913229	1475184913303	e	69
233902	2503433	I have no personal transactions with any Enron entity.	I have no personal transactions with any Enron entity	118894897	1475184913353	1475184913434	 	32
233902	2503433	I have no personal transactions with any Enron entity.	I have no personal transactions with any Enron entity	118894901	1475184913458	1475184913532	n	78
233902	2503433	I have no personal transactions with any Enron entity.	I have no personal transactions with any Enron entity	118894905	1475184913518	1475184913592	o	79
233902	2503433	I have no personal transactions with any Enron entity.	I have no personal transactions with any Enron entity	118894909	1475184913641	1475184913721	 	32
233902	2503433	I have no personal transactions with any Enron entity.	I have no personal transactions with any Enron entity	118894933	1475184913880	1475184913960	p	80
233902	2503433	I have no personal transactions with any Enron entity.	I have no personal transactions with any Enron entity	118894937	1475184913940	1475184914046	e	69
233902	2503433	I have no personal transactions with any Enron entity.	I have no personal transactions with any Enron entity	118894942	1475184914000	1475184914083	r	82
233902	2503433	I have no personal transactions with any Enron entity.	I have no personal transactions with any Enron entity	118894976	1475184914130	1475184914231	s	83
233902	2503433	I have no personal transactions with any Enron entity.	I have no personal transactions with any Enron entity	118894944	1475184914169	1475184914229	o	79
233902	2503433	I have no personal transactions with any Enron entity.	I have no personal transactions with any Enron entity	118894980	1475184914314	1475184914419	n	78
233902	2503433	I have no personal transactions with any Enron entity.	I have no personal transactions with any Enron entity	118894986	1475184914538	1475184914638	a	65
233902	2503433	I have no personal transactions with any Enron entity.	I have no personal transactions with any Enron entity	118894993	1475184914622	1475184914683	l	76
233902	2503433	I have no personal transactions with any Enron entity.	I have no personal transactions with any Enron entity	118894999	1475184914743	1475184914841	 	32
233902	2503433	I have no personal transactions with any Enron entity.	I have no personal transactions with any Enron entity	118895009	1475184914986	1475184915066	t	84
233902	2503433	I have no personal transactions with any Enron entity.	I have no personal transactions with any Enron entity	118895059	1475184915215	1475184915319	r	82
233902	2503433	I have no personal transactions with any Enron entity.	I have no personal transactions with any Enron entity	118895065	1475184915384	1475184915464	a	65
233902	2503433	I have no personal transactions with any Enron entity.	I have no personal transactions with any Enron entity	118895071	1475184915498	1475184915558	n	78
233902	2503433	I have no personal transactions with any Enron entity.	I have no personal transactions with any Enron entity	118895079	1475184915573	1475184915619	s	83
233902	2503433	I have no personal transactions with any Enron entity.	I have no personal transactions with any Enron entity	118895087	1475184915847	1475184915932	a	65
233902	2503433	I have no personal transactions with any Enron entity.	I have no personal transactions with any Enron entity	118895155	1475184915991	1475184916071	c	67
233902	2503433	I have no personal transactions with any Enron entity.	I have no personal transactions with any Enron entity	118895162	1475184916145	1475184916206	t	84
233902	2503433	I have no personal transactions with any Enron entity.	I have no personal transactions with any Enron entity	118895170	1475184916205	1475184916265	i	73
233902	2503433	I have no personal transactions with any Enron entity.	I have no personal transactions with any Enron entity	118895177	1475184916305	1475184916385	o	79
233902	2503433	I have no personal transactions with any Enron entity.	I have no personal transactions with any Enron entity	118895218	1475184916365	1475184916424	n	78
233902	2503433	I have no personal transactions with any Enron entity.	I have no personal transactions with any Enron entity	118895224	1475184916559	1475184916639	s	83
233902	2503433	I have no personal transactions with any Enron entity.	I have no personal transactions with any Enron entity	118895231	1475184916678	1475184916758	 	32
233902	2503433	I have no personal transactions with any Enron entity.	I have no personal transactions with any Enron entity	118895237	1475184916813	1475184916894	w	87
233902	2503433	I have no personal transactions with any Enron entity.	I have no personal transactions with any Enron entity	118895242	1475184916892	1475184916952	i	73
233902	2503433	I have no personal transactions with any Enron entity.	I have no personal transactions with any Enron entity	118895246	1475184916972	1475184917072	t	84
233902	2503433	I have no personal transactions with any Enron entity.	I have no personal transactions with any Enron entity	118895232	1475184917037	1475184917092	h	72
233902	2503433	I have no personal transactions with any Enron entity.	I have no personal transactions with any Enron entity	118895238	1475184917121	1475184917201	 	32
233902	2503433	I have no personal transactions with any Enron entity.	I have no personal transactions with any Enron entity	118895241	1475184917221	1475184917321	a	65
233902	2503433	I have no personal transactions with any Enron entity.	I have no personal transactions with any Enron entity	118895245	1475184917281	1475184917360	n	78
233902	2503433	I have no personal transactions with any Enron entity.	I have no personal transactions with any Enron entity	118895247	1475184917395	1475184917456	y	89
233902	2503433	I have no personal transactions with any Enron entity.	I have no personal transactions with any Enron entity	118895249	1475184917470	1475184917550	 	32
233902	2503433	I have no personal transactions with any Enron entity.	I have no personal transactions with any Enron entity	118895272	1475184917609	1475184917709	SHIFT	16
233902	2503433	I have no personal transactions with any Enron entity.	I have no personal transactions with any Enron entity	118895274	1475184917669	1475184917770	E	69
233902	2503433	I have no personal transactions with any Enron entity.	I have no personal transactions with any Enron entity	118895278	1475184917769	1475184917853	n	78
233902	2503433	I have no personal transactions with any Enron entity.	I have no personal transactions with any Enron entity	118895282	1475184917938	1475184918018	r	82
233902	2503433	I have no personal transactions with any Enron entity.	I have no personal transactions with any Enron entity	118895287	1475184918072	1475184918132	o	79
233902	2503433	I have no personal transactions with any Enron entity.	I have no personal transactions with any Enron entity	118895293	1475184918162	1475184918222	n	78
233902	2503433	I have no personal transactions with any Enron entity.	I have no personal transactions with any Enron entity	118895302	1475184918251	1475184918331	 	32
233902	2503433	I have no personal transactions with any Enron entity.	I have no personal transactions with any Enron entity	118895304	1475184918575	1475184918655	e	69
233902	2503433	I have no personal transactions with any Enron entity.	I have no personal transactions with any Enron entity	118895307	1475184918684	1475184918764	n	78
233902	2503433	I have no personal transactions with any Enron entity.	I have no personal transactions with any Enron entity	118895308	1475184918804	1475184918885	t	84
233902	2503433	I have no personal transactions with any Enron entity.	I have no personal transactions with any Enron entity	118895310	1475184918909	1475184918969	i	73
233902	2503433	I have no personal transactions with any Enron entity.	I have no personal transactions with any Enron entity	118895314	1475184919017	1475184919113	t	84
233902	2503433	I have no personal transactions with any Enron entity.	I have no personal transactions with any Enron entity	118895316	1475184919197	1475184919257	y	89
233902	2503444	I'll come have a beer with you guys later.	I'll come have a beer with you guys alter	118895582	1475184920541	1475184921437	SHIFT	16
233902	2503444	I'll come have a beer with you guys later.	I'll come have a beer with you guys alter	118895574	1475184920800	1475184920840	I	73
233902	2503444	I'll come have a beer with you guys later.	I'll come have a beer with you guys alter	118895586	1475184921856	1475184921955	'	222
233902	2503444	I'll come have a beer with you guys later.	I'll come have a beer with you guys alter	118895595	1475184922000	1475184922080	l	76
233902	2503444	I'll come have a beer with you guys later.	I'll come have a beer with you guys alter	118895602	1475184922129	1475184922209	l	76
233902	2503444	I'll come have a beer with you guys later.	I'll come have a beer with you guys alter	118895610	1475184922284	1475184922363	 	32
233902	2503444	I'll come have a beer with you guys later.	I'll come have a beer with you guys alter	118895627	1475184922413	1475184922494	c	67
233902	2503444	I'll come have a beer with you guys later.	I'll come have a beer with you guys alter	118895631	1475184922493	1475184922553	o	79
233902	2503444	I'll come have a beer with you guys later.	I'll come have a beer with you guys alter	118895633	1475184922617	1475184922677	m	77
233902	2503444	I'll come have a beer with you guys later.	I'll come have a beer with you guys alter	118895636	1475184922697	1475184922777	e	69
233902	2503444	I'll come have a beer with you guys later.	I'll come have a beer with you guys alter	118895639	1475184922806	1475184922866	 	32
233902	2503444	I'll come have a beer with you guys later.	I'll come have a beer with you guys alter	118895664	1475184922966	1475184923045	h	72
233902	2503444	I'll come have a beer with you guys later.	I'll come have a beer with you guys alter	118895668	1475184923080	1475184923220	a	65
233902	2503444	I'll come have a beer with you guys later.	I'll come have a beer with you guys alter	118895675	1475184923200	1475184923279	v	86
233902	2503444	I'll come have a beer with you guys later.	I'll come have a beer with you guys alter	118895681	1475184923339	1475184923399	e	69
233902	2503444	I'll come have a beer with you guys later.	I'll come have a beer with you guys alter	118895685	1475184923439	1475184923518	 	32
233902	2503444	I'll come have a beer with you guys later.	I'll come have a beer with you guys alter	118895734	1475184923538	1475184923620	a	65
233902	2503444	I'll come have a beer with you guys later.	I'll come have a beer with you guys alter	118895739	1475184923618	1475184923699	 	32
233902	2503444	I'll come have a beer with you guys later.	I'll come have a beer with you guys alter	118895744	1475184923698	1475184923757	b	66
233902	2503444	I'll come have a beer with you guys later.	I'll come have a beer with you guys alter	118895748	1475184923842	1475184923942	e	69
233902	2503444	I'll come have a beer with you guys later.	I'll come have a beer with you guys alter	118895751	1475184924051	1475184924171	e	69
233902	2503444	I'll come have a beer with you guys later.	I'll come have a beer with you guys alter	118895816	1475184924225	1475184924285	e	69
233902	2503444	I'll come have a beer with you guys later.	I'll come have a beer with you guys alter	118895820	1475184924265	1475184924365	r	82
233902	2503444	I'll come have a beer with you guys later.	I'll come have a beer with you guys alter	118895824	1475184924345	1475184924384	 	32
233902	2503444	I'll come have a beer with you guys later.	I'll come have a beer with you guys alter	118895827	1475184924673	1475184924733	BKSP	8
233902	2503444	I'll come have a beer with you guys later.	I'll come have a beer with you guys alter	118895831	1475184924793	1475184924872	BKSP	8
233902	2503444	I'll come have a beer with you guys later.	I'll come have a beer with you guys alter	118895837	1475184924922	1475184925002	BKSP	8
233902	2503444	I'll come have a beer with you guys later.	I'll come have a beer with you guys alter	118895846	1475184924982	1475184925069	r	82
233902	2503444	I'll come have a beer with you guys later.	I'll come have a beer with you guys alter	118895855	1475184925061	1475184925142	 	32
233902	2503444	I'll come have a beer with you guys later.	I'll come have a beer with you guys alter	118895865	1475184925121	1475184925202	w	87
233902	2503444	I'll come have a beer with you guys later.	I'll come have a beer with you guys alter	118895875	1475184925201	1475184925262	i	73
233902	2503444	I'll come have a beer with you guys later.	I'll come have a beer with you guys alter	118895882	1475184925262	1475184925345	t	84
233902	2503444	I'll come have a beer with you guys later.	I'll come have a beer with you guys alter	118895889	1475184925321	1475184925380	h	72
233902	2503444	I'll come have a beer with you guys later.	I'll come have a beer with you guys alter	118895894	1475184925382	1475184925465	 	32
233902	2503444	I'll come have a beer with you guys later.	I'll come have a beer with you guys alter	118895910	1475184925490	1475184925549	y	89
233902	2503444	I'll come have a beer with you guys later.	I'll come have a beer with you guys alter	118895913	1475184925529	1475184925589	o	79
233902	2503444	I'll come have a beer with you guys later.	I'll come have a beer with you guys alter	118895916	1475184925610	1475184925670	u	85
233902	2503444	I'll come have a beer with you guys later.	I'll come have a beer with you guys alter	118895921	1475184925671	1475184925754	 	32
233902	2503444	I'll come have a beer with you guys later.	I'll come have a beer with you guys alter	118895924	1475184925888	1475184925993	g	71
233902	2503444	I'll come have a beer with you guys later.	I'll come have a beer with you guys alter	118895932	1475184925968	1475184926027	u	85
233902	2503444	I'll come have a beer with you guys later.	I'll come have a beer with you guys alter	118895936	1475184926082	1475184926162	y	89
233902	2503444	I'll come have a beer with you guys later.	I'll come have a beer with you guys alter	118895943	1475184926142	1475184926222	s	83
233902	2503444	I'll come have a beer with you guys later.	I'll come have a beer with you guys alter	118895950	1475184926246	1475184926321	 	32
233902	2503444	I'll come have a beer with you guys later.	I'll come have a beer with you guys alter	118895969	1475184926341	1475184926486	a	65
233902	2503444	I'll come have a beer with you guys later.	I'll come have a beer with you guys alter	118895960	1475184926381	1475184926461	l	76
233902	2503444	I'll come have a beer with you guys later.	I'll come have a beer with you guys alter	118895975	1475184926440	1475184926500	t	84
233902	2503444	I'll come have a beer with you guys later.	I'll come have a beer with you guys alter	118895986	1475184926560	1475184926665	e	69
233902	2503456	We lost 1 player this week who picked Baltimore, sorry.	We lost 1 playr this week who picked baltimore, sorry.	118896345	1475184926620	1475184930382	r	82
233902	2503456	We lost 1 player this week who picked Baltimore, sorry.	We lost 1 playr this week who picked baltimore, sorry.	118896214	1475184928302	1475184928521	SHIFT	16
233902	2503456	We lost 1 player this week who picked Baltimore, sorry.	We lost 1 playr this week who picked baltimore, sorry.	118896210	1475184928442	1475184928502	I	73
233902	2503456	We lost 1 player this week who picked Baltimore, sorry.	We lost 1 playr this week who picked baltimore, sorry.	118896219	1475184928611	1475184928830	SHIFT	16
233902	2503456	We lost 1 player this week who picked Baltimore, sorry.	We lost 1 playr this week who picked baltimore, sorry.	118896217	1475184928710	1475184928770	BKSP	8
233902	2503456	We lost 1 player this week who picked Baltimore, sorry.	We lost 1 playr this week who picked baltimore, sorry.	118896220	1475184928810	1475184928870	W	87
233902	2503456	We lost 1 player this week who picked Baltimore, sorry.	We lost 1 playr this week who picked baltimore, sorry.	118896222	1475184928831	1475184928930	e	69
233902	2503456	We lost 1 player this week who picked Baltimore, sorry.	We lost 1 playr this week who picked baltimore, sorry.	118896225	1475184928890	1475184928949	 	32
233902	2503456	We lost 1 player this week who picked Baltimore, sorry.	We lost 1 playr this week who picked baltimore, sorry.	118896229	1475184929104	1475184929164	l	76
233902	2503456	We lost 1 player this week who picked Baltimore, sorry.	We lost 1 playr this week who picked baltimore, sorry.	118896242	1475184929238	1475184929318	o	79
233902	2503456	We lost 1 player this week who picked Baltimore, sorry.	We lost 1 playr this week who picked baltimore, sorry.	118896247	1475184929298	1475184929399	s	83
233902	2503456	We lost 1 player this week who picked Baltimore, sorry.	We lost 1 playr this week who picked baltimore, sorry.	118896252	1475184929397	1475184929457	t	84
233902	2503456	We lost 1 player this week who picked Baltimore, sorry.	We lost 1 playr this week who picked baltimore, sorry.	118896257	1475184929482	1475184929542	 	32
233902	2503456	We lost 1 player this week who picked Baltimore, sorry.	We lost 1 playr this week who picked baltimore, sorry.	118896263	1475184929626	1475184929686	1	49
233902	2503456	We lost 1 player this week who picked Baltimore, sorry.	We lost 1 playr this week who picked baltimore, sorry.	118896273	1475184929706	1475184929786	 	32
233902	2503456	We lost 1 player this week who picked Baltimore, sorry.	We lost 1 playr this week who picked baltimore, sorry.	118896278	1475184929890	1475184929971	p	80
233902	2503456	We lost 1 player this week who picked Baltimore, sorry.	We lost 1 playr this week who picked baltimore, sorry.	118896284	1475184930000	1475184930080	l	76
233902	2503456	We lost 1 player this week who picked Baltimore, sorry.	We lost 1 playr this week who picked baltimore, sorry.	118896291	1475184930045	1475184930139	a	65
233902	2503456	We lost 1 player this week who picked Baltimore, sorry.	We lost 1 playr this week who picked baltimore, sorry.	118896332	1475184930105	1475184930159	y	89
233902	2503456	We lost 1 player this week who picked Baltimore, sorry.	We lost 1 playr this week who picked baltimore, sorry.	118896340	1475184930219	1475184930338	e	69
233902	2503456	We lost 1 player this week who picked Baltimore, sorry.	We lost 1 playr this week who picked baltimore, sorry.	118896351	1475184930378	1475184930458	 	32
233902	2503456	We lost 1 player this week who picked Baltimore, sorry.	We lost 1 playr this week who picked baltimore, sorry.	118896359	1475184930662	1475184930741	t	84
233902	2503456	We lost 1 player this week who picked Baltimore, sorry.	We lost 1 playr this week who picked baltimore, sorry.	118896366	1475184930771	1475184930831	h	72
233902	2503456	We lost 1 player this week who picked Baltimore, sorry.	We lost 1 playr this week who picked baltimore, sorry.	118896372	1475184930886	1475184930970	i	73
233902	2503456	We lost 1 player this week who picked Baltimore, sorry.	We lost 1 playr this week who picked baltimore, sorry.	118896383	1475184930946	1475184931005	s	83
233902	2503456	We lost 1 player this week who picked Baltimore, sorry.	We lost 1 playr this week who picked baltimore, sorry.	118896385	1475184931035	1475184931115	 	32
233902	2503456	We lost 1 player this week who picked Baltimore, sorry.	We lost 1 playr this week who picked baltimore, sorry.	118896388	1475184931150	1475184931211	w	87
233902	2503456	We lost 1 player this week who picked Baltimore, sorry.	We lost 1 playr this week who picked baltimore, sorry.	118896391	1475184931210	1475184931264	e	69
233902	2503456	We lost 1 player this week who picked Baltimore, sorry.	We lost 1 playr this week who picked baltimore, sorry.	118896392	1475184931314	1475184931393	e	69
233902	2503456	We lost 1 player this week who picked Baltimore, sorry.	We lost 1 playr this week who picked baltimore, sorry.	118896395	1475184931443	1475184931503	k	75
233902	2503456	We lost 1 player this week who picked Baltimore, sorry.	We lost 1 playr this week who picked baltimore, sorry.	118896428	1475184931742	1475184931822	w	87
233902	2503456	We lost 1 player this week who picked Baltimore, sorry.	We lost 1 playr this week who picked baltimore, sorry.	118896431	1475184931951	1475184932030	BKSP	8
233902	2503456	We lost 1 player this week who picked Baltimore, sorry.	We lost 1 playr this week who picked baltimore, sorry.	118896436	1475184932060	1475184932141	 	32
233902	2503456	We lost 1 player this week who picked Baltimore, sorry.	We lost 1 playr this week who picked baltimore, sorry.	118896439	1475184932080	1475184932160	w	87
233902	2503456	We lost 1 player this week who picked Baltimore, sorry.	We lost 1 playr this week who picked baltimore, sorry.	118896441	1475184932140	1475184932220	h	72
233902	2503456	We lost 1 player this week who picked Baltimore, sorry.	We lost 1 playr this week who picked baltimore, sorry.	118896493	1475184932199	1475184932259	o	79
233902	2503456	We lost 1 player this week who picked Baltimore, sorry.	We lost 1 playr this week who picked baltimore, sorry.	118896498	1475184932304	1475184932404	 	32
233902	2503456	We lost 1 player this week who picked Baltimore, sorry.	We lost 1 playr this week who picked baltimore, sorry.	118896503	1475184932568	1475184932653	p	80
233902	2503456	We lost 1 player this week who picked Baltimore, sorry.	We lost 1 playr this week who picked baltimore, sorry.	118896507	1475184932732	1475184932812	i	73
233902	2503456	We lost 1 player this week who picked Baltimore, sorry.	We lost 1 playr this week who picked baltimore, sorry.	118896511	1475184932813	1475184932891	c	67
233902	2503456	We lost 1 player this week who picked Baltimore, sorry.	We lost 1 playr this week who picked baltimore, sorry.	118896515	1475184932996	1475184933075	k	75
233902	2503456	We lost 1 player this week who picked Baltimore, sorry.	We lost 1 playr this week who picked baltimore, sorry.	118896562	1475184933125	1475184933185	e	69
233902	2503456	We lost 1 player this week who picked Baltimore, sorry.	We lost 1 playr this week who picked baltimore, sorry.	118896567	1475184933673	1475184933752	d	68
233902	2503456	We lost 1 player this week who picked Baltimore, sorry.	We lost 1 playr this week who picked baltimore, sorry.	118896572	1475184933772	1475184933832	 	32
233902	2503456	We lost 1 player this week who picked Baltimore, sorry.	We lost 1 playr this week who picked baltimore, sorry.	118896577	1475184933886	1475184933966	u	85
233902	2503456	We lost 1 player this week who picked Baltimore, sorry.	We lost 1 playr this week who picked baltimore, sorry.	118896584	1475184933986	1475184934046	p	80
233902	2503456	We lost 1 player this week who picked Baltimore, sorry.	We lost 1 playr this week who picked baltimore, sorry.	118896623	1475184934240	1475184934300	BKSP	8
233902	2503456	We lost 1 player this week who picked Baltimore, sorry.	We lost 1 playr this week who picked baltimore, sorry.	118896628	1475184934389	1475184934449	BKSP	8
233902	2503456	We lost 1 player this week who picked Baltimore, sorry.	We lost 1 playr this week who picked baltimore, sorry.	118896634	1475184934578	1475184934658	b	66
233902	2503456	We lost 1 player this week who picked Baltimore, sorry.	We lost 1 playr this week who picked baltimore, sorry.	118896637	1475184934659	1475184934777	a	65
233902	2503456	We lost 1 player this week who picked Baltimore, sorry.	We lost 1 playr this week who picked baltimore, sorry.	118896642	1475184934797	1475184934877	l	76
233902	2503456	We lost 1 player this week who picked Baltimore, sorry.	We lost 1 playr this week who picked baltimore, sorry.	118896647	1475184934907	1475184934986	t	84
233902	2503456	We lost 1 player this week who picked Baltimore, sorry.	We lost 1 playr this week who picked baltimore, sorry.	118896652	1475184935081	1475184935144	i	73
233902	2503456	We lost 1 player this week who picked Baltimore, sorry.	We lost 1 playr this week who picked baltimore, sorry.	118896679	1475184935225	1475184935305	m	77
233902	2503456	We lost 1 player this week who picked Baltimore, sorry.	We lost 1 playr this week who picked baltimore, sorry.	118896682	1475184935444	1475184935524	o	79
233902	2503456	We lost 1 player this week who picked Baltimore, sorry.	We lost 1 playr this week who picked baltimore, sorry.	118896686	1475184935544	1475184935663	r	82
233902	2503456	We lost 1 player this week who picked Baltimore, sorry.	We lost 1 playr this week who picked baltimore, sorry.	118896688	1475184935643	1475184935723	e	69
233902	2503456	We lost 1 player this week who picked Baltimore, sorry.	We lost 1 playr this week who picked baltimore, sorry.	118896691	1475184935768	1475184935847	 	32
233902	2503456	We lost 1 player this week who picked Baltimore, sorry.	We lost 1 playr this week who picked baltimore, sorry.	118896724	1475184936011	1475184936071	BKSP	8
233902	2503456	We lost 1 player this week who picked Baltimore, sorry.	We lost 1 playr this week who picked baltimore, sorry.	118896728	1475184936116	1475184936196	,	188
233902	2503456	We lost 1 player this week who picked Baltimore, sorry.	We lost 1 playr this week who picked baltimore, sorry.	118896733	1475184936240	1475184936320	 	32
233902	2503456	We lost 1 player this week who picked Baltimore, sorry.	We lost 1 playr this week who picked baltimore, sorry.	118896736	1475184936340	1475184936401	s	83
233902	2503456	We lost 1 player this week who picked Baltimore, sorry.	We lost 1 playr this week who picked baltimore, sorry.	118896739	1475184936400	1475184936460	o	79
233902	2503456	We lost 1 player this week who picked Baltimore, sorry.	We lost 1 playr this week who picked baltimore, sorry.	118896742	1475184936479	1475184936559	r	82
233902	2503456	We lost 1 player this week who picked Baltimore, sorry.	We lost 1 playr this week who picked baltimore, sorry.	118896748	1475184936589	1475184936708	r	82
233902	2503456	We lost 1 player this week who picked Baltimore, sorry.	We lost 1 playr this week who picked baltimore, sorry.	118896755	1475184936688	1475184936788	y	89
233902	2503476	The earliest the Jets expect him to return is Dec.	The earliest the jets expect him to return is dc	118896987	1475184938719	1475184938963	SHIFT	16
233902	2503476	The earliest the Jets expect him to return is Dec.	The earliest the jets expect him to return is dc	118896988	1475184938938	1475184939023	T	84
233902	2503476	The earliest the Jets expect him to return is Dec.	The earliest the jets expect him to return is dc	118896990	1475184938999	1475184939083	h	72
233902	2503476	The earliest the Jets expect him to return is Dec.	The earliest the jets expect him to return is dc	118896992	1475184939097	1475184939198	e	69
233902	2503476	The earliest the Jets expect him to return is Dec.	The earliest the jets expect him to return is dc	118896994	1475184939386	1475184939466	 	32
233902	2503476	The earliest the Jets expect him to return is Dec.	The earliest the jets expect him to return is dc	118896998	1475184939775	1475184939839	SHIFT	16
233902	2503476	The earliest the Jets expect him to return is Dec.	The earliest the jets expect him to return is dc	118897003	1475184939864	1475184939984	e	69
233902	2503476	The earliest the Jets expect him to return is Dec.	The earliest the jets expect him to return is dc	118897048	1475184940058	1475184940163	a	65
233902	2503476	The earliest the Jets expect him to return is Dec.	The earliest the jets expect him to return is dc	118897053	1475184940118	1475184940199	r	82
233902	2503476	The earliest the Jets expect him to return is Dec.	The earliest the jets expect him to return is dc	118897062	1475184940198	1475184940277	l	76
233902	2503476	The earliest the Jets expect him to return is Dec.	The earliest the jets expect him to return is dc	118897068	1475184940332	1475184940412	i	73
233902	2503476	The earliest the Jets expect him to return is Dec.	The earliest the jets expect him to return is dc	118897077	1475184940805	1475184940885	e	69
233902	2503476	The earliest the Jets expect him to return is Dec.	The earliest the jets expect him to return is dc	118897112	1475184940920	1475184941027	s	83
233902	2503476	The earliest the Jets expect him to return is Dec.	The earliest the jets expect him to return is dc	118897115	1475184940979	1475184941039	t	84
233902	2503476	The earliest the Jets expect him to return is Dec.	The earliest the jets expect him to return is dc	118897120	1475184941024	1475184941119	 	32
233902	2503476	The earliest the Jets expect him to return is Dec.	The earliest the jets expect him to return is dc	118897124	1475184941353	1475184941433	t	84
233902	2503476	The earliest the Jets expect him to return is Dec.	The earliest the jets expect him to return is dc	118897126	1475184941434	1475184941492	h	72
233902	2503476	The earliest the Jets expect him to return is Dec.	The earliest the jets expect him to return is dc	118897150	1475184941528	1475184941612	e	69
233902	2503476	The earliest the Jets expect him to return is Dec.	The earliest the jets expect him to return is dc	118897152	1475184941636	1475184941696	 	32
233902	2503476	The earliest the Jets expect him to return is Dec.	The earliest the jets expect him to return is dc	118897161	1475184941791	1475184941876	j	74
233902	2503476	The earliest the Jets expect him to return is Dec.	The earliest the jets expect him to return is dc	118897168	1475184941876	1475184941990	e	69
233902	2503476	The earliest the Jets expect him to return is Dec.	The earliest the jets expect him to return is dc	118897206	1475184941950	1475184942050	t	84
233902	2503476	The earliest the Jets expect him to return is Dec.	The earliest the jets expect him to return is dc	118897208	1475184942081	1475184942179	s	83
233902	2503476	The earliest the Jets expect him to return is Dec.	The earliest the jets expect him to return is dc	118897212	1475184942164	1475184942225	 	32
233902	2503476	The earliest the Jets expect him to return is Dec.	The earliest the jets expect him to return is dc	118897216	1475184942269	1475184942348	e	69
233902	2503476	The earliest the Jets expect him to return is Dec.	The earliest the jets expect him to return is dc	118897221	1475184942454	1475184942573	x	88
233902	2503476	The earliest the Jets expect him to return is Dec.	The earliest the jets expect him to return is dc	118897227	1475184942608	1475184942662	p	80
233902	2503476	The earliest the Jets expect him to return is Dec.	The earliest the jets expect him to return is dc	118897260	1475184942682	1475184942742	e	69
233902	2503476	The earliest the Jets expect him to return is Dec.	The earliest the jets expect him to return is dc	118897262	1475184942834	1475184942911	c	67
233902	2503476	The earliest the Jets expect him to return is Dec.	The earliest the jets expect him to return is dc	118897266	1475184942951	1475184943031	t	84
233902	2503476	The earliest the Jets expect him to return is Dec.	The earliest the jets expect him to return is dc	118897271	1475184943032	1475184943110	 	32
233902	2503476	The earliest the Jets expect him to return is Dec.	The earliest the jets expect him to return is dc	118897276	1475184943225	1475184943286	h	72
233902	2503476	The earliest the Jets expect him to return is Dec.	The earliest the jets expect him to return is dc	118897314	1475184943285	1475184943344	i	73
233902	2503476	The earliest the Jets expect him to return is Dec.	The earliest the jets expect him to return is dc	118897317	1475184943409	1475184943489	m	77
233902	2503476	The earliest the Jets expect him to return is Dec.	The earliest the jets expect him to return is dc	118897321	1475184943569	1475184943629	 	32
233902	2503476	The earliest the Jets expect him to return is Dec.	The earliest the jets expect him to return is dc	118897327	1475184943606	1475184943683	t	84
233902	2503476	The earliest the Jets expect him to return is Dec.	The earliest the jets expect him to return is dc	118897332	1475184943703	1475184943763	o	79
233902	2503476	The earliest the Jets expect him to return is Dec.	The earliest the jets expect him to return is dc	118897336	1475184943837	1475184943937	 	32
233902	2503476	The earliest the Jets expect him to return is Dec.	The earliest the jets expect him to return is dc	118897420	1475184943939	1475184943996	r	82
233902	2503476	The earliest the Jets expect him to return is Dec.	The earliest the jets expect him to return is dc	118897424	1475184944026	1475184944066	i	73
233902	2503476	The earliest the Jets expect him to return is Dec.	The earliest the jets expect him to return is dc	118897428	1475184944106	1475184944225	n	78
233902	2503476	The earliest the Jets expect him to return is Dec.	The earliest the jets expect him to return is dc	118897431	1475184944698	1475184944778	BKSP	8
233902	2503476	The earliest the Jets expect him to return is Dec.	The earliest the jets expect him to return is dc	118897437	1475184944779	1475184944843	t	84
233902	2503476	The earliest the Jets expect him to return is Dec.	The earliest the jets expect him to return is dc	118897443	1475184944973	1475184945032	BKSP	8
233902	2503476	The earliest the Jets expect him to return is Dec.	The earliest the jets expect him to return is dc	118897445	1475184945107	1475184945191	BKSP	8
233902	2503476	The earliest the Jets expect him to return is Dec.	The earliest the jets expect him to return is dc	118897450	1475184945206	1475184945326	e	69
233902	2503476	The earliest the Jets expect him to return is Dec.	The earliest the jets expect him to return is dc	118897473	1475184945311	1475184945406	t	84
233902	2503476	The earliest the Jets expect him to return is Dec.	The earliest the jets expect him to return is dc	118897477	1475184945515	1475184945600	u	85
233902	2503476	The earliest the Jets expect him to return is Dec.	The earliest the jets expect him to return is dc	118897484	1475184945624	1475184945684	r	82
233902	2503476	The earliest the Jets expect him to return is Dec.	The earliest the jets expect him to return is dc	118897490	1475184945704	1475184945764	n	78
233902	2503476	The earliest the Jets expect him to return is Dec.	The earliest the jets expect him to return is dc	118897499	1475184945818	1475184945898	 	32
233902	2503476	The earliest the Jets expect him to return is Dec.	The earliest the jets expect him to return is dc	118897506	1475184945972	1475184946033	i	73
233902	2503476	The earliest the Jets expect him to return is Dec.	The earliest the jets expect him to return is dc	118897559	1475184946035	1475184946093	s	83
233902	2503476	The earliest the Jets expect him to return is Dec.	The earliest the jets expect him to return is dc	118897565	1475184946117	1475184946197	 	32
233902	2503476	The earliest the Jets expect him to return is Dec.	The earliest the jets expect him to return is dc	118897573	1475184946217	1475184946257	b	66
233902	2503476	The earliest the Jets expect him to return is Dec.	The earliest the jets expect him to return is dc	118897578	1475184946456	1475184946516	BKSP	8
233902	2503476	The earliest the Jets expect him to return is Dec.	The earliest the jets expect him to return is dc	118897581	1475184946517	1475184946561	d	68
233902	2503476	The earliest the Jets expect him to return is Dec.	The earliest the jets expect him to return is dc	118897584	1475184946705	1475184946790	c	67
233902	2503492	Thanks for your help in quickly setting this up.	Thanks for your help in quickly setting this up	118897835	1475184948995	1475184949094	SHIFT	16
233902	2503492	Thanks for your help in quickly setting this up.	Thanks for your help in quickly setting this up	118897840	1475184949054	1475184949158	T	84
233902	2503492	Thanks for your help in quickly setting this up.	Thanks for your help in quickly setting this up	118897844	1475184949219	1475184949338	a	65
233902	2503492	Thanks for your help in quickly setting this up.	Thanks for your help in quickly setting this up	118897850	1475184949602	1475184949662	BKSP	8
233902	2503492	Thanks for your help in quickly setting this up.	Thanks for your help in quickly setting this up	118897854	1475184949697	1475184949757	h	72
233902	2503492	Thanks for your help in quickly setting this up.	Thanks for your help in quickly setting this up	118897860	1475184949841	1475184949901	b	66
233902	2503492	Thanks for your help in quickly setting this up.	Thanks for your help in quickly setting this up	118897864	1475184949995	1475184950055	j	74
233902	2503492	Thanks for your help in quickly setting this up.	Thanks for your help in quickly setting this up	118897917	1475184950225	1475184950279	BKSP	8
233902	2503492	Thanks for your help in quickly setting this up.	Thanks for your help in quickly setting this up	118897919	1475184950359	1475184950439	BKSP	8
233902	2503492	Thanks for your help in quickly setting this up.	Thanks for your help in quickly setting this up	118897921	1475184950398	1475184950478	a	65
233902	2503492	Thanks for your help in quickly setting this up.	Thanks for your help in quickly setting this up	118897923	1475184950503	1475184950578	n	78
233902	2503492	Thanks for your help in quickly setting this up.	Thanks for your help in quickly setting this up	118897925	1475184950636	1475184950712	k	75
233902	2503492	Thanks for your help in quickly setting this up.	Thanks for your help in quickly setting this up	118897927	1475184950713	1475184950792	s	83
233902	2503492	Thanks for your help in quickly setting this up.	Thanks for your help in quickly setting this up	118897929	1475184950812	1475184950891	 	32
233902	2503492	Thanks for your help in quickly setting this up.	Thanks for your help in quickly setting this up	118897937	1475184950894	1475184950991	f	70
233902	2503492	Thanks for your help in quickly setting this up.	Thanks for your help in quickly setting this up	118897943	1475184950971	1475184951051	o	79
233902	2503492	Thanks for your help in quickly setting this up.	Thanks for your help in quickly setting this up	118897953	1475184951070	1475184951130	r	82
233902	2503492	Thanks for your help in quickly setting this up.	Thanks for your help in quickly setting this up	118897959	1475184951160	1475184951240	 	32
233902	2503492	Thanks for your help in quickly setting this up.	Thanks for your help in quickly setting this up	118897961	1475184951260	1475184951321	y	89
233902	2503492	Thanks for your help in quickly setting this up.	Thanks for your help in quickly setting this up	118897985	1475184951319	1475184951404	o	79
233902	2503492	Thanks for your help in quickly setting this up.	Thanks for your help in quickly setting this up	118897987	1475184951380	1475184951444	u	85
233902	2503492	Thanks for your help in quickly setting this up.	Thanks for your help in quickly setting this up	118897992	1475184951539	1475184951613	r	82
233902	2503492	Thanks for your help in quickly setting this up.	Thanks for your help in quickly setting this up	118897995	1475184951633	1475184951673	 	32
233902	2503492	Thanks for your help in quickly setting this up.	Thanks for your help in quickly setting this up	118897999	1475184951743	1475184951803	h	72
233902	2503492	Thanks for your help in quickly setting this up.	Thanks for your help in quickly setting this up	118898047	1475184951872	1475184951954	e	69
233902	2503492	Thanks for your help in quickly setting this up.	Thanks for your help in quickly setting this up	118898003	1475184951892	1475184951952	l	76
233902	2503492	Thanks for your help in quickly setting this up.	Thanks for your help in quickly setting this up	118898053	1475184952042	1475184952121	p	80
233902	2503492	Thanks for your help in quickly setting this up.	Thanks for your help in quickly setting this up	118898058	1475184952181	1475184952280	 	32
233902	2503492	Thanks for your help in quickly setting this up.	Thanks for your help in quickly setting this up	118898061	1475184952340	1475184952420	i	73
233902	2503492	Thanks for your help in quickly setting this up.	Thanks for your help in quickly setting this up	118898064	1475184952440	1475184952500	n	78
233902	2503492	Thanks for your help in quickly setting this up.	Thanks for your help in quickly setting this up	118898067	1475184952529	1475184952629	 	32
233902	2503492	Thanks for your help in quickly setting this up.	Thanks for your help in quickly setting this up	118898076	1475184952708	1475184952788	q	81
233902	2503492	Thanks for your help in quickly setting this up.	Thanks for your help in quickly setting this up	118898078	1475184952808	1475184952873	u	85
233902	2503492	Thanks for your help in quickly setting this up.	Thanks for your help in quickly setting this up	118898081	1475184952928	1475184953007	i	73
233902	2503492	Thanks for your help in quickly setting this up.	Thanks for your help in quickly setting this up	118898085	1475184953037	1475184953098	c	67
233902	2503492	Thanks for your help in quickly setting this up.	Thanks for your help in quickly setting this up	118898104	1475184953077	1475184953162	k	75
233902	2503492	Thanks for your help in quickly setting this up.	Thanks for your help in quickly setting this up	118898109	1475184953216	1475184953296	l	76
233902	2503492	Thanks for your help in quickly setting this up.	Thanks for your help in quickly setting this up	118898115	1475184953297	1475184953356	y	89
233902	2503492	Thanks for your help in quickly setting this up.	Thanks for your help in quickly setting this up	118898118	1475184953385	1475184953465	 	32
233902	2503492	Thanks for your help in quickly setting this up.	Thanks for your help in quickly setting this up	118898122	1475184953496	1475184953581	s	83
233902	2503492	Thanks for your help in quickly setting this up.	Thanks for your help in quickly setting this up	118898146	1475184953535	1475184953654	e	69
233902	2503492	Thanks for your help in quickly setting this up.	Thanks for your help in quickly setting this up	118898151	1475184953704	1475184953784	t	84
233902	2503492	Thanks for your help in quickly setting this up.	Thanks for your help in quickly setting this up	118898158	1475184953834	1475184953918	t	84
233902	2503492	Thanks for your help in quickly setting this up.	Thanks for your help in quickly setting this up	118898166	1475184953894	1475184953953	i	73
233902	2503492	Thanks for your help in quickly setting this up.	Thanks for your help in quickly setting this up	118898170	1475184953978	1475184954054	n	78
233902	2503492	Thanks for your help in quickly setting this up.	Thanks for your help in quickly setting this up	118898200	1475184954053	1475184954132	g	71
233902	2503492	Thanks for your help in quickly setting this up.	Thanks for your help in quickly setting this up	118898208	1475184954167	1475184954247	 	32
233902	2503492	Thanks for your help in quickly setting this up.	Thanks for your help in quickly setting this up	118898213	1475184954350	1475184954447	t	84
233902	2503492	Thanks for your help in quickly setting this up.	Thanks for your help in quickly setting this up	118898218	1475184954426	1475184954486	h	72
233902	2503492	Thanks for your help in quickly setting this up.	Thanks for your help in quickly setting this up	118898223	1475184954446	1475184954506	i	73
233902	2503492	Thanks for your help in quickly setting this up.	Thanks for your help in quickly setting this up	118898228	1475184954555	1475184954635	s	83
233902	2503492	Thanks for your help in quickly setting this up.	Thanks for your help in quickly setting this up	118898268	1475184954595	1475184954675	 	32
233902	2503492	Thanks for your help in quickly setting this up.	Thanks for your help in quickly setting this up	118898272	1475184954745	1475184954805	t	84
233902	2503492	Thanks for your help in quickly setting this up.	Thanks for your help in quickly setting this up	118898279	1475184954889	1475184954988	u	85
233902	2503492	Thanks for your help in quickly setting this up.	Thanks for your help in quickly setting this up	118898285	1475184955023	1475184955083	BKSP	8
233902	2503492	Thanks for your help in quickly setting this up.	Thanks for your help in quickly setting this up	118898290	1475184955178	1475184955238	BKSP	8
233902	2503492	Thanks for your help in quickly setting this up.	Thanks for your help in quickly setting this up	118898296	1475184955252	1475184955332	u	85
233902	2503507	See you on the third.	See you on the third	118898460	1475184956477	1475184957512	SHIFT	16
233902	2503507	See you on the third.	See you on the third	118898464	1475184957452	1475184957552	S	83
233902	2503507	See you on the third.	See you on the third	118898469	1475184957617	1475184957677	e	69
233902	2503507	See you on the third.	See you on the third	118898474	1475184957726	1475184957806	e	69
233902	2503507	See you on the third.	See you on the third	118898477	1475184957826	1475184957926	 	32
233902	2503507	See you on the third.	See you on the third	118898529	1475184957906	1475184957987	y	89
233902	2503507	See you on the third.	See you on the third	118898532	1475184957985	1475184958065	o	79
233902	2503507	See you on the third.	See you on the third	118898535	1475184958025	1475184958105	u	85
233902	2503507	See you on the third.	See you on the third	118898541	1475184958210	1475184958334	 	32
233902	2503507	See you on the third.	See you on the third	118898544	1475184958514	1475184958598	o	79
233902	2503507	See you on the third.	See you on the third	118898547	1475184958599	1475184958672	n	78
233902	2503507	See you on the third.	See you on the third	118898559	1475184958693	1475184958752	 	32
233902	2503507	See you on the third.	See you on the third	118898560	1475184958777	1475184958837	t	84
233902	2503507	See you on the third.	See you on the third	118898563	1475184958852	1475184958911	h	72
233902	2503507	See you on the third.	See you on the third	118898567	1475184958981	1475184959066	e	69
233902	2503507	See you on the third.	See you on the third	118898573	1475184959090	1475184959170	 	32
233902	2503507	See you on the third.	See you on the third	118898654	1475184959761	1475184959857	t	84
233902	2503507	See you on the third.	See you on the third	118898656	1475184959897	1475184959977	h	72
233902	2503507	See you on the third.	See you on the third	118898661	1475184960012	1475184960111	i	73
233902	2503507	See you on the third.	See you on the third	118898664	1475184960097	1475184960151	r	82
