PARTICIPANT_ID	TEST_SECTION_ID	SENTENCE	USER_INPUT	KEYSTROKE_ID	PRESS_TIME	RELEASE_TIME	LETTER	KEYCODE
234740	2512163	He will be re-evaluated after receiving an injection.	He will be re-evaluated after receiving an injection.	119303417	1475193199498	1475193199546	CAPS_LOCK	20
234740	2512163	He will be re-evaluated after receiving an injection.	He will be re-evaluated after receiving an injection.	119303418	1475193199549	1475193199637	H	72
234740	2512163	He will be re-evaluated after receiving an injection.	He will be re-evaluated after receiving an injection.	119303420	1475193199623	1475193199712	CAPS_LOCK	20
234740	2512163	He will be re-evaluated after receiving an injection.	He will be re-evaluated after receiving an injection.	119303422	1475193199830	1475193199918	e	69
234740	2512163	He will be re-evaluated after receiving an injection.	He will be re-evaluated after receiving an injection.	119303427	1475193199992	1475193200035	 	32
234740	2512163	He will be re-evaluated after receiving an injection.	He will be re-evaluated after receiving an injection.	119303430	1475193200148	1475193200231	w	87
234740	2512163	He will be re-evaluated after receiving an injection.	He will be re-evaluated after receiving an injection.	119303441	1475193200187	1475193200271	i	73
234740	2512163	He will be re-evaluated after receiving an injection.	He will be re-evaluated after receiving an injection.	119303442	1475193200422	1475193200465	l	76
234740	2512163	He will be re-evaluated after receiving an injection.	He will be re-evaluated after receiving an injection.	119303444	1475193200540	1475193200622	l	76
234740	2512163	He will be re-evaluated after receiving an injection.	He will be re-evaluated after receiving an injection.	119303446	1475193200773	1475193200815	 	32
234740	2512163	He will be re-evaluated after receiving an injection.	He will be re-evaluated after receiving an injection.	119303449	1475193201044	1475193201125	b	66
234740	2512163	He will be re-evaluated after receiving an injection.	He will be re-evaluated after receiving an injection.	119303452	1475193201200	1475193201243	e	69
234740	2512163	He will be re-evaluated after receiving an injection.	He will be re-evaluated after receiving an injection.	119303524	1475193201356	1475193201437	 	32
234740	2512163	He will be re-evaluated after receiving an injection.	He will be re-evaluated after receiving an injection.	119303527	1475193201589	1475193201708	r	82
234740	2512163	He will be re-evaluated after receiving an injection.	He will be re-evaluated after receiving an injection.	119303531	1475193201666	1475193201787	e	69
234740	2512163	He will be re-evaluated after receiving an injection.	He will be re-evaluated after receiving an injection.	119303533	1475193202632	1475193202713	-	189
234740	2512163	He will be re-evaluated after receiving an injection.	He will be re-evaluated after receiving an injection.	119303536	1475193203210	1475193203291	e	69
234740	2512163	He will be re-evaluated after receiving an injection.	He will be re-evaluated after receiving an injection.	119303576	1475193203481	1475193203532	v	86
234740	2512163	He will be re-evaluated after receiving an injection.	He will be re-evaluated after receiving an injection.	119303581	1475193203645	1475193203726	a	65
234740	2512163	He will be re-evaluated after receiving an injection.	He will be re-evaluated after receiving an injection.	119303585	1475193203684	1475193203844	l	76
234740	2512163	He will be re-evaluated after receiving an injection.	He will be re-evaluated after receiving an injection.	119303589	1475193203802	1475193203884	u	85
234740	2512163	He will be re-evaluated after receiving an injection.	He will be re-evaluated after receiving an injection.	119303591	1475193203922	1475193204003	a	65
234740	2512163	He will be re-evaluated after receiving an injection.	He will be re-evaluated after receiving an injection.	119303624	1475193204154	1475193204236	t	84
234740	2512163	He will be re-evaluated after receiving an injection.	He will be re-evaluated after receiving an injection.	119303627	1475193204387	1475193204430	e	69
234740	2512163	He will be re-evaluated after receiving an injection.	He will be re-evaluated after receiving an injection.	119303630	1475193204505	1475193204586	d	68
234740	2512163	He will be re-evaluated after receiving an injection.	He will be re-evaluated after receiving an injection.	119303632	1475193205044	1475193205087	 	32
234740	2512163	He will be re-evaluated after receiving an injection.	He will be re-evaluated after receiving an injection.	119303634	1475193205162	1475193205243	a	65
234740	2512163	He will be re-evaluated after receiving an injection.	He will be re-evaluated after receiving an injection.	119303665	1475193205319	1475193205407	f	70
234740	2512163	He will be re-evaluated after receiving an injection.	He will be re-evaluated after receiving an injection.	119303667	1475193205410	1475193205487	t	84
234740	2512163	He will be re-evaluated after receiving an injection.	He will be re-evaluated after receiving an injection.	119303668	1475193205523	1475193205643	e	69
234740	2512163	He will be re-evaluated after receiving an injection.	He will be re-evaluated after receiving an injection.	119303669	1475193205601	1475193205684	r	82
234740	2512163	He will be re-evaluated after receiving an injection.	He will be re-evaluated after receiving an injection.	119303670	1475193206028	1475193206070	 	32
234740	2512163	He will be re-evaluated after receiving an injection.	He will be re-evaluated after receiving an injection.	119303697	1475193206222	1475193206341	r	82
234740	2512163	He will be re-evaluated after receiving an injection.	He will be re-evaluated after receiving an injection.	119303702	1475193206299	1475193206420	e	69
234740	2512163	He will be re-evaluated after receiving an injection.	He will be re-evaluated after receiving an injection.	119303708	1475193206687	1475193206736	c	67
234740	2512163	He will be re-evaluated after receiving an injection.	He will be re-evaluated after receiving an injection.	119303713	1475193206773	1475193206854	e	69
234740	2512163	He will be re-evaluated after receiving an injection.	He will be re-evaluated after receiving an injection.	119303719	1475193206890	1475193206947	i	73
234740	2512163	He will be re-evaluated after receiving an injection.	He will be re-evaluated after receiving an injection.	119303740	1475193207174	1475193207217	v	86
234740	2512163	He will be re-evaluated after receiving an injection.	He will be re-evaluated after receiving an injection.	119303742	1475193207253	1475193207412	i	73
234740	2512163	He will be re-evaluated after receiving an injection.	He will be re-evaluated after receiving an injection.	119303746	1475193207369	1475193207455	n	78
234740	2512163	He will be re-evaluated after receiving an injection.	He will be re-evaluated after receiving an injection.	119303750	1475193207449	1475193207532	g	71
234740	2512163	He will be re-evaluated after receiving an injection.	He will be re-evaluated after receiving an injection.	119303754	1475193208029	1475193208071	 	32
234740	2512163	He will be re-evaluated after receiving an injection.	He will be re-evaluated after receiving an injection.	119303830	1475193208187	1475193208268	a	65
234740	2512163	He will be re-evaluated after receiving an injection.	He will be re-evaluated after receiving an injection.	119303833	1475193208304	1475193208348	n	66
234740	2512163	He will be re-evaluated after receiving an injection.	He will be re-evaluated after receiving an injection.	119303836	1475193208943	1475193208986	BKSP	8
234740	2512163	He will be re-evaluated after receiving an injection.	He will be re-evaluated after receiving an injection.	119303840	1475193209061	1475193209123	BKSP	8
234740	2512163	He will be re-evaluated after receiving an injection.	He will be re-evaluated after receiving an injection.	119303844	1475193209658	1475193209739	n	78
234740	2512163	He will be re-evaluated after receiving an injection.	He will be re-evaluated after receiving an injection.	119303848	1475193209776	1475193209818	 	32
234740	2512163	He will be re-evaluated after receiving an injection.	He will be re-evaluated after receiving an injection.	119303881	1475193209856	1475193210030	i	73
234740	2512163	He will be re-evaluated after receiving an injection.	He will be re-evaluated after receiving an injection.	119303877	1475193209971	1475193210024	n	78
234740	2512163	He will be re-evaluated after receiving an injection.	He will be re-evaluated after receiving an injection.	119303884	1475193210216	1475193210297	j	74
234740	2512163	He will be re-evaluated after receiving an injection.	He will be re-evaluated after receiving an injection.	119303888	1475193210334	1475193210416	e	69
234740	2512163	He will be re-evaluated after receiving an injection.	He will be re-evaluated after receiving an injection.	119303895	1475193210490	1475193210571	c	67
234740	2512163	He will be re-evaluated after receiving an injection.	He will be re-evaluated after receiving an injection.	119303951	1475193210685	1475193210766	t	84
234740	2512163	He will be re-evaluated after receiving an injection.	He will be re-evaluated after receiving an injection.	119303953	1475193210723	1475193210806	i	73
234740	2512163	He will be re-evaluated after receiving an injection.	He will be re-evaluated after receiving an injection.	119303957	1475193210809	1475193210888	o	79
234740	2512163	He will be re-evaluated after receiving an injection.	He will be re-evaluated after receiving an injection.	119303960	1475193210882	1475193210966	n	78
234740	2512163	He will be re-evaluated after receiving an injection.	He will be re-evaluated after receiving an injection.	119303964	1475193211616	1475193211659	.	190
234740	2512182	The reigning Indy-car series champion will be among top contenders.	The reigning Indy-car series champion will be among top contenders.	119304133	1475193214431	1475193214480	CAPS_LOCK	20
234740	2512182	The reigning Indy-car series champion will be among top contenders.	The reigning Indy-car series champion will be among top contenders.	119304136	1475193214516	1475193214559	T	84
234740	2512182	The reigning Indy-car series champion will be among top contenders.	The reigning Indy-car series champion will be among top contenders.	119304141	1475193214596	1475193214645	CAPS_LOCK	20
234740	2512182	The reigning Indy-car series champion will be among top contenders.	The reigning Indy-car series champion will be among top contenders.	119304148	1475193214681	1475193214768	h	72
234740	2512182	The reigning Indy-car series champion will be among top contenders.	The reigning Indy-car series champion will be among top contenders.	119304154	1475193214805	1475193214849	e	87
234740	2512182	The reigning Indy-car series champion will be among top contenders.	The reigning Indy-car series champion will be among top contenders.	119304159	1475193214926	1475193215013	 	32
234740	2512182	The reigning Indy-car series champion will be among top contenders.	The reigning Indy-car series champion will be among top contenders.	119304187	1475193215127	1475193215247	r	82
234740	2512182	The reigning Indy-car series champion will be among top contenders.	The reigning Indy-car series champion will be among top contenders.	119304189	1475193215204	1475193215286	e	69
234740	2512182	The reigning Indy-car series champion will be among top contenders.	The reigning Indy-car series champion will be among top contenders.	119304191	1475193215289	1475193215367	i	73
234740	2512182	The reigning Indy-car series champion will be among top contenders.	The reigning Indy-car series champion will be among top contenders.	119304193	1475193215403	1475193215484	g	71
234740	2512182	The reigning Indy-car series champion will be among top contenders.	The reigning Indy-car series champion will be among top contenders.	119304197	1475193215521	1475193215689	n	78
234740	2512182	The reigning Indy-car series champion will be among top contenders.	The reigning Indy-car series champion will be among top contenders.	119304337	1475193215692	1475193215846	i	73
234740	2512182	The reigning Indy-car series champion will be among top contenders.	The reigning Indy-car series champion will be among top contenders.	119304338	1475193215803	1475193215889	n	78
234740	2512182	The reigning Indy-car series champion will be among top contenders.	The reigning Indy-car series champion will be among top contenders.	119304340	1475193215883	1475193215966	g	71
234740	2512182	The reigning Indy-car series champion will be among top contenders.	The reigning Indy-car series champion will be among top contenders.	119304342	1475193216156	1475193216199	BKSP	8
234740	2512182	The reigning Indy-car series champion will be among top contenders.	The reigning Indy-car series champion will be among top contenders.	119304346	1475193216312	1475193216355	BKSP	8
234740	2512182	The reigning Indy-car series champion will be among top contenders.	The reigning Indy-car series champion will be among top contenders.	119304349	1475193216430	1475193216472	BKSP	8
234740	2512182	The reigning Indy-car series champion will be among top contenders.	The reigning Indy-car series champion will be among top contenders.	119304352	1475193216547	1475193216609	BKSP	8
234740	2512182	The reigning Indy-car series champion will be among top contenders.	The reigning Indy-car series champion will be among top contenders.	119304353	1475193216685	1475193216727	BKSP	8
234740	2512182	The reigning Indy-car series champion will be among top contenders.	The reigning Indy-car series champion will be among top contenders.	119304355	1475193216802	1475193216883	BKSP	8
234740	2512182	The reigning Indy-car series champion will be among top contenders.	The reigning Indy-car series champion will be among top contenders.	119304356	1475193216958	1475193217001	BKSP	8
234740	2512182	The reigning Indy-car series champion will be among top contenders.	The reigning Indy-car series champion will be among top contenders.	119304357	1475193217076	1475193217157	BKSP	8
234740	2512182	The reigning Indy-car series champion will be among top contenders.	The reigning Indy-car series champion will be among top contenders.	119304358	1475193217232	1475193217274	BKSP	8
234740	2512182	The reigning Indy-car series champion will be among top contenders.	The reigning Indy-car series champion will be among top contenders.	119304360	1475193217349	1475193217431	BKSP	8
234740	2512182	The reigning Indy-car series champion will be among top contenders.	The reigning Indy-car series champion will be among top contenders.	119304364	1475193217506	1475193217587	BKSP	8
234740	2512182	The reigning Indy-car series champion will be among top contenders.	The reigning Indy-car series champion will be among top contenders.	119304368	1475193218508	1475193218589	e	69
234740	2512182	The reigning Indy-car series champion will be among top contenders.	The reigning Indy-car series champion will be among top contenders.	119304371	1475193218664	1475193218725	 	32
234740	2512182	The reigning Indy-car series champion will be among top contenders.	The reigning Indy-car series champion will be among top contenders.	119304365	1475193218877	1475193218997	r	82
234740	2512182	The reigning Indy-car series champion will be among top contenders.	The reigning Indy-car series champion will be among top contenders.	119304367	1475193218954	1475193219076	e	69
234740	2512182	The reigning Indy-car series champion will be among top contenders.	The reigning Indy-car series champion will be among top contenders.	119304372	1475193219000	1475193219082	i	73
234740	2512182	The reigning Indy-car series champion will be among top contenders.	The reigning Indy-car series champion will be among top contenders.	119304376	1475193219154	1475193219235	g	71
234740	2512182	The reigning Indy-car series champion will be among top contenders.	The reigning Indy-car series champion will be among top contenders.	119304380	1475193219237	1475193219316	n	78
234740	2512182	The reigning Indy-car series champion will be among top contenders.	The reigning Indy-car series champion will be among top contenders.	119304508	1475193219389	1475193219547	i	73
234740	2512182	The reigning Indy-car series champion will be among top contenders.	The reigning Indy-car series champion will be among top contenders.	119304510	1475193219504	1475193219591	n	78
234740	2512182	The reigning Indy-car series champion will be among top contenders.	The reigning Indy-car series champion will be among top contenders.	119304512	1475193219584	1475193219667	g	71
234740	2512182	The reigning Indy-car series champion will be among top contenders.	The reigning Indy-car series champion will be among top contenders.	119304514	1475193221306	1475193221382	 	32
234740	2512182	The reigning Indy-car series champion will be among top contenders.	The reigning Indy-car series champion will be among top contenders.	119304515	1475193221495	1475193221543	CAPS_LOCK	20
234740	2512182	The reigning Indy-car series champion will be among top contenders.	The reigning Indy-car series champion will be among top contenders.	119304516	1475193221546	1475193221623	I	73
234740	2512182	The reigning Indy-car series champion will be among top contenders.	The reigning Indy-car series champion will be among top contenders.	119304575	1475193221660	1475193221708	CAPS_LOCK	20
234740	2512182	The reigning Indy-car series champion will be among top contenders.	The reigning Indy-car series champion will be among top contenders.	119304580	1475193221711	1475193221788	n	78
234740	2512182	The reigning Indy-car series champion will be among top contenders.	The reigning Indy-car series champion will be among top contenders.	119304588	1475193221907	1475193221951	d	68
234740	2512182	The reigning Indy-car series champion will be among top contenders.	The reigning Indy-car series champion will be among top contenders.	119304595	1475193221987	1475193222073	y	89
234740	2512182	The reigning Indy-car series champion will be among top contenders.	The reigning Indy-car series champion will be among top contenders.	119304600	1475193222417	1475193222498	-	189
234740	2512182	The reigning Indy-car series champion will be among top contenders.	The reigning Indy-car series champion will be among top contenders.	119304604	1475193222612	1475193222694	c	67
234740	2512182	The reigning Indy-car series champion will be among top contenders.	The reigning Indy-car series champion will be among top contenders.	119304688	1475193222689	1475193222810	a	65
234740	2512182	The reigning Indy-car series champion will be among top contenders.	The reigning Indy-car series champion will be among top contenders.	119304691	1475193222813	1475193222889	r	82
234740	2512182	The reigning Indy-car series champion will be among top contenders.	The reigning Indy-car series champion will be among top contenders.	119304692	1475193223541	1475193223622	 	32
234740	2512182	The reigning Indy-car series champion will be among top contenders.	The reigning Indy-car series champion will be among top contenders.	119304694	1475193223773	1475193223817	s	83
234740	2512182	The reigning Indy-car series champion will be among top contenders.	The reigning Indy-car series champion will be among top contenders.	119304695	1475193223929	1475193224010	e	69
234740	2512182	The reigning Indy-car series champion will be among top contenders.	The reigning Indy-car series champion will be among top contenders.	119304697	1475193224086	1475193224167	r	82
234740	2512182	The reigning Indy-car series champion will be among top contenders.	The reigning Indy-car series champion will be among top contenders.	119304748	1475193224203	1475193224247	i	73
234740	2512182	The reigning Indy-car series champion will be among top contenders.	The reigning Indy-car series champion will be among top contenders.	119304749	1475193224282	1475193224325	e	69
234740	2512182	The reigning Indy-car series champion will be among top contenders.	The reigning Indy-car series champion will be among top contenders.	119304751	1475193224401	1475193224520	s	83
234740	2512182	The reigning Indy-car series champion will be among top contenders.	The reigning Indy-car series champion will be among top contenders.	119304754	1475193225287	1475193225348	 	32
234740	2512182	The reigning Indy-car series champion will be among top contenders.	The reigning Indy-car series champion will be among top contenders.	119304758	1475193225692	1475193225772	c	67
234740	2512182	The reigning Indy-car series champion will be among top contenders.	The reigning Indy-car series champion will be among top contenders.	119304795	1475193225775	1475193225851	h	72
234740	2512182	The reigning Indy-car series champion will be among top contenders.	The reigning Indy-car series champion will be among top contenders.	119304799	1475193225889	1475193225932	a	65
234740	2512182	The reigning Indy-car series champion will be among top contenders.	The reigning Indy-car series champion will be among top contenders.	119304802	1475193226007	1475193226088	m	77
234740	2512182	The reigning Indy-car series champion will be among top contenders.	The reigning Indy-car series champion will be among top contenders.	119304806	1475193226239	1475193226320	p	80
234740	2512182	The reigning Indy-car series champion will be among top contenders.	The reigning Indy-car series champion will be among top contenders.	119304810	1475193226472	1475193226592	i	73
234740	2512182	The reigning Indy-car series champion will be among top contenders.	The reigning Indy-car series champion will be among top contenders.	119304835	1475193226549	1475193226647	o	79
234740	2512182	The reigning Indy-car series champion will be among top contenders.	The reigning Indy-car series champion will be among top contenders.	119304837	1475193226685	1475193226765	n	78
234740	2512182	The reigning Indy-car series champion will be among top contenders.	The reigning Indy-car series champion will be among top contenders.	119304841	1475193226841	1475193226921	 	32
234740	2512182	The reigning Indy-car series champion will be among top contenders.	The reigning Indy-car series champion will be among top contenders.	119304843	1475193227035	1475193227115	w	87
234740	2512182	The reigning Indy-car series champion will be among top contenders.	The reigning Indy-car series champion will be among top contenders.	119304846	1475193227118	1475193227156	i	73
234740	2512182	The reigning Indy-car series champion will be among top contenders.	The reigning Indy-car series champion will be among top contenders.	119304848	1475193227308	1475193227389	l	76
234740	2512182	The reigning Indy-car series champion will be among top contenders.	The reigning Indy-car series champion will be among top contenders.	119304979	1475193227464	1475193227507	l	76
234740	2512182	The reigning Indy-car series champion will be among top contenders.	The reigning Indy-car series champion will be among top contenders.	119304986	1475193227582	1475193227663	 	32
234740	2512182	The reigning Indy-car series champion will be among top contenders.	The reigning Indy-car series champion will be among top contenders.	119304989	1475193227853	1475193227935	e	69
234740	2512182	The reigning Indy-car series champion will be among top contenders.	The reigning Indy-car series champion will be among top contenders.	119304990	1475193228393	1475193228436	BKSP	8
234740	2512182	The reigning Indy-car series champion will be among top contenders.	The reigning Indy-car series champion will be among top contenders.	119304991	1475193229703	1475193229784	b	66
234740	2512182	The reigning Indy-car series champion will be among top contenders.	The reigning Indy-car series champion will be among top contenders.	119304992	1475193229821	1475193229863	e	69
234740	2512182	The reigning Indy-car series champion will be among top contenders.	The reigning Indy-car series champion will be among top contenders.	119305002	1475193229938	1475193230019	 	32
234740	2512182	The reigning Indy-car series champion will be among top contenders.	The reigning Indy-car series champion will be among top contenders.	119305006	1475193230132	1475193230213	m	65
234740	2512182	The reigning Indy-car series champion will be among top contenders.	The reigning Indy-car series champion will be among top contenders.	119305007	1475193230219	1475193230375	o	79
234740	2512182	The reigning Indy-car series champion will be among top contenders.	The reigning Indy-car series champion will be among top contenders.	119305094	1475193230369	1475193230452	n	78
234740	2512182	The reigning Indy-car series champion will be among top contenders.	The reigning Indy-car series champion will be among top contenders.	119305098	1475193230488	1475193230569	g	71
234740	2512182	The reigning Indy-car series champion will be among top contenders.	The reigning Indy-car series champion will be among top contenders.	119305105	1475193230913	1475193230956	 	32
234740	2512182	The reigning Indy-car series champion will be among top contenders.	The reigning Indy-car series champion will be among top contenders.	119305109	1475193231452	1475193231495	t	84
234740	2512182	The reigning Indy-car series champion will be among top contenders.	The reigning Indy-car series champion will be among top contenders.	119305114	1475193231532	1475193231651	o	79
234740	2512182	The reigning Indy-car series champion will be among top contenders.	The reigning Indy-car series champion will be among top contenders.	119305184	1475193231609	1475193231692	p	80
234740	2512182	The reigning Indy-car series champion will be among top contenders.	The reigning Indy-car series champion will be among top contenders.	119305186	1475193231769	1475193231848	 	32
234740	2512182	The reigning Indy-car series champion will be among top contenders.	The reigning Indy-car series champion will be among top contenders.	119305188	1475193232615	1475193232696	c	67
234740	2512182	The reigning Indy-car series champion will be among top contenders.	The reigning Indy-car series champion will be among top contenders.	119305192	1475193232771	1475193232893	o	73
234740	2512182	The reigning Indy-car series champion will be among top contenders.	The reigning Indy-car series champion will be among top contenders.	119305196	1475193232930	1475193233049	n	78
234740	2512182	The reigning Indy-car series champion will be among top contenders.	The reigning Indy-car series champion will be among top contenders.	119305304	1475193233604	1475193233647	BKSP	8
234740	2512182	The reigning Indy-car series champion will be among top contenders.	The reigning Indy-car series champion will be among top contenders.	119305307	1475193233722	1475193233803	BKSP	8
234740	2512182	The reigning Indy-car series champion will be among top contenders.	The reigning Indy-car series champion will be among top contenders.	119305311	1475193234280	1475193234361	BKSP	8
234740	2512182	The reigning Indy-car series champion will be among top contenders.	The reigning Indy-car series champion will be among top contenders.	119305313	1475193234628	1475193234786	o	79
234740	2512182	The reigning Indy-car series champion will be among top contenders.	The reigning Indy-car series champion will be among top contenders.	119305316	1475193234743	1475193234827	n	78
234740	2512182	The reigning Indy-car series champion will be among top contenders.	The reigning Indy-car series champion will be among top contenders.	119305318	1475193234863	1475193234906	t	84
234740	2512182	The reigning Indy-car series champion will be among top contenders.	The reigning Indy-car series champion will be among top contenders.	119305321	1475193235020	1475193235062	e	69
234740	2512182	The reigning Indy-car series champion will be among top contenders.	The reigning Indy-car series champion will be among top contenders.	119305324	1475193235065	1475193235142	n	78
234740	2512182	The reigning Indy-car series champion will be among top contenders.	The reigning Indy-car series champion will be among top contenders.	119305384	1475193235185	1475193235266	d	68
234740	2512182	The reigning Indy-car series champion will be among top contenders.	The reigning Indy-car series champion will be among top contenders.	119305389	1475193235379	1475193235460	e	69
234740	2512182	The reigning Indy-car series champion will be among top contenders.	The reigning Indy-car series champion will be among top contenders.	119305394	1475193235463	1475193235539	r	82
234740	2512182	The reigning Indy-car series champion will be among top contenders.	The reigning Indy-car series champion will be among top contenders.	119305401	1475193235614	1475193235696	s	83
234740	2512182	The reigning Indy-car series champion will be among top contenders.	The reigning Indy-car series champion will be among top contenders.	119305404	1475193236616	1475193236659	.	190
234740	2512209	The injury is more serious than the Panthers first expected.	The injury is more serious than the Panthers first expected.	119305558	1475193238509	1475193238558	CAPS_LOCK	20
234740	2512209	The injury is more serious than the Panthers first expected.	The injury is more serious than the Panthers first expected.	119305559	1475193238594	1475193238652	T	84
234740	2512209	The injury is more serious than the Panthers first expected.	The injury is more serious than the Panthers first expected.	119305560	1475193238638	1475193238726	CAPS_LOCK	20
234740	2512209	The injury is more serious than the Panthers first expected.	The injury is more serious than the Panthers first expected.	119305562	1475193238884	1475193238969	e	69
234740	2512209	The injury is more serious than the Panthers first expected.	The injury is more serious than the Panthers first expected.	119305565	1475193239200	1475193239243	BKSP	8
234740	2512209	The injury is more serious than the Panthers first expected.	The injury is more serious than the Panthers first expected.	119305569	1475193240086	1475193240129	h	72
234740	2512209	The injury is more serious than the Panthers first expected.	The injury is more serious than the Panthers first expected.	119305576	1475193240165	1475193240247	e	69
234740	2512209	The injury is more serious than the Panthers first expected.	The injury is more serious than the Panthers first expected.	119305581	1475193240322	1475193240405	 	32
234740	2512209	The injury is more serious than the Panthers first expected.	The injury is more serious than the Panthers first expected.	119305639	1475193240399	1475193240560	i	73
234740	2512209	The injury is more serious than the Panthers first expected.	The injury is more serious than the Panthers first expected.	119305641	1475193240516	1475193240600	n	78
234740	2512209	The injury is more serious than the Panthers first expected.	The injury is more serious than the Panthers first expected.	119305643	1475193240790	1475193240871	j	74
234740	2512209	The injury is more serious than the Panthers first expected.	The injury is more serious than the Panthers first expected.	119305645	1475193240946	1475193241027	u	85
234740	2512209	The injury is more serious than the Panthers first expected.	The injury is more serious than the Panthers first expected.	119305647	1475193241064	1475193241115	r	82
234740	2512209	The injury is more serious than the Panthers first expected.	The injury is more serious than the Panthers first expected.	119305650	1475193241420	1475193241578	y	89
234740	2512209	The injury is more serious than the Panthers first expected.	The injury is more serious than the Panthers first expected.	119305712	1475193242229	1475193242272	 	32
234740	2512209	The injury is more serious than the Panthers first expected.	The injury is more serious than the Panthers first expected.	119305715	1475193242423	1475193242504	i	73
234740	2512209	The injury is more serious than the Panthers first expected.	The injury is more serious than the Panthers first expected.	119305718	1475193242541	1475193242587	s	83
234740	2512209	The injury is more serious than the Panthers first expected.	The injury is more serious than the Panthers first expected.	119305722	1475193242659	1475193242743	 	32
234740	2512209	The injury is more serious than the Panthers first expected.	The injury is more serious than the Panthers first expected.	119305751	1475193242737	1475193242896	m	77
234740	2512209	The injury is more serious than the Panthers first expected.	The injury is more serious than the Panthers first expected.	119305754	1475193242854	1475193243015	o	79
234740	2512209	The injury is more serious than the Panthers first expected.	The injury is more serious than the Panthers first expected.	119305758	1475193242972	1475193243094	r	82
234740	2512209	The injury is more serious than the Panthers first expected.	The injury is more serious than the Panthers first expected.	119305760	1475193243051	1475193243173	e	69
234740	2512209	The injury is more serious than the Panthers first expected.	The injury is more serious than the Panthers first expected.	119305763	1475193243286	1475193243367	 	32
234740	2512209	The injury is more serious than the Panthers first expected.	The injury is more serious than the Panthers first expected.	119305765	1475193243480	1475193243523	s	83
234740	2512209	The injury is more serious than the Panthers first expected.	The injury is more serious than the Panthers first expected.	119305775	1475193243636	1475193243679	e	69
234740	2512209	The injury is more serious than the Panthers first expected.	The injury is more serious than the Panthers first expected.	119305777	1475193243793	1475193243873	r	82
234740	2512209	The injury is more serious than the Panthers first expected.	The injury is more serious than the Panthers first expected.	119305781	1475193243876	1475193243991	i	73
234740	2512209	The injury is more serious than the Panthers first expected.	The injury is more serious than the Panthers first expected.	119305785	1475193243949	1475193244032	o	79
234740	2512209	The injury is more serious than the Panthers first expected.	The injury is more serious than the Panthers first expected.	119305789	1475193244069	1475193244189	u	85
234740	2512209	The injury is more serious than the Panthers first expected.	The injury is more serious than the Panthers first expected.	119305843	1475193244225	1475193244306	s	83
234740	2512209	The injury is more serious than the Panthers first expected.	The injury is more serious than the Panthers first expected.	119305848	1475193244573	1475193244654	 	32
234740	2512209	The injury is more serious than the Panthers first expected.	The injury is more serious than the Panthers first expected.	119305852	1475193244805	1475193244848	t	84
234740	2512209	The injury is more serious than the Panthers first expected.	The injury is more serious than the Panthers first expected.	119305855	1475193244885	1475193244967	h	72
234740	2512209	The injury is more serious than the Panthers first expected.	The injury is more serious than the Panthers first expected.	119305858	1475193245041	1475193245124	a	65
234740	2512209	The injury is more serious than the Panthers first expected.	The injury is more serious than the Panthers first expected.	119305872	1475193245159	1475193245240	n	78
234740	2512209	The injury is more serious than the Panthers first expected.	The injury is more serious than the Panthers first expected.	119305873	1475193245276	1475193245319	 	32
234740	2512209	The injury is more serious than the Panthers first expected.	The injury is more serious than the Panthers first expected.	119305874	1475193245432	1475193245514	t	84
234740	2512209	The injury is more serious than the Panthers first expected.	The injury is more serious than the Panthers first expected.	119305875	1475193245516	1475193245595	h	72
234740	2512209	The injury is more serious than the Panthers first expected.	The injury is more serious than the Panthers first expected.	119305876	1475193245668	1475193245749	e	69
234740	2512209	The injury is more serious than the Panthers first expected.	The injury is more serious than the Panthers first expected.	119305923	1475193246054	1475193246135	 	32
234740	2512209	The injury is more serious than the Panthers first expected.	The injury is more serious than the Panthers first expected.	119305926	1475193246478	1475193246526	CAPS_LOCK	20
234740	2512209	The injury is more serious than the Panthers first expected.	The injury is more serious than the Panthers first expected.	119305927	1475193246529	1475193246607	P	80
234740	2512209	The injury is more serious than the Panthers first expected.	The injury is more serious than the Panthers first expected.	119305929	1475193246643	1475193246691	CAPS_LOCK	20
234740	2512209	The injury is more serious than the Panthers first expected.	The injury is more serious than the Panthers first expected.	119305931	1475193246805	1475193246891	a	65
234740	2512209	The injury is more serious than the Panthers first expected.	The injury is more serious than the Panthers first expected.	119305933	1475193246894	1475193246932	n	78
234740	2512209	The injury is more serious than the Panthers first expected.	The injury is more serious than the Panthers first expected.	119305935	1475193247052	1475193247133	t	84
234740	2512209	The injury is more serious than the Panthers first expected.	The injury is more serious than the Panthers first expected.	119305951	1475193247170	1475193247212	h	72
234740	2512209	The injury is more serious than the Panthers first expected.	The injury is more serious than the Panthers first expected.	119305953	1475193247287	1475193247446	e	69
234740	2512209	The injury is more serious than the Panthers first expected.	The injury is more serious than the Panthers first expected.	119305955	1475193247403	1475193247488	r	82
234740	2512209	The injury is more serious than the Panthers first expected.	The injury is more serious than the Panthers first expected.	119305958	1475193247563	1475193247644	s	83
234740	2512209	The injury is more serious than the Panthers first expected.	The injury is more serious than the Panthers first expected.	119305961	1475193247909	1475193247991	 	32
234740	2512209	The injury is more serious than the Panthers first expected.	The injury is more serious than the Panthers first expected.	119306040	1475193248109	1475193248184	f	70
234740	2512209	The injury is more serious than the Panthers first expected.	The injury is more serious than the Panthers first expected.	119306042	1475193248187	1475193248238	i	73
234740	2512209	The injury is more serious than the Panthers first expected.	The injury is more serious than the Panthers first expected.	119306044	1475193248275	1475193248356	r	82
234740	2512209	The injury is more serious than the Panthers first expected.	The injury is more serious than the Panthers first expected.	119306046	1475193248431	1475193248512	s	83
234740	2512209	The injury is more serious than the Panthers first expected.	The injury is more serious than the Panthers first expected.	119306047	1475193249471	1475193249523	t	84
234740	2512209	The injury is more serious than the Panthers first expected.	The injury is more serious than the Panthers first expected.	119306068	1475193249598	1475193249679	 	32
234740	2512209	The injury is more serious than the Panthers first expected.	The injury is more serious than the Panthers first expected.	119306069	1475193249766	1475193249842	e	69
234740	2512209	The injury is more serious than the Panthers first expected.	The injury is more serious than the Panthers first expected.	119306070	1475193249955	1475193249997	x	88
234740	2512209	The injury is more serious than the Panthers first expected.	The injury is more serious than the Panthers first expected.	119306071	1475193249999	1475193250038	p	80
234740	2512209	The injury is more serious than the Panthers first expected.	The injury is more serious than the Panthers first expected.	119306073	1475193250113	1475193250197	e	69
234740	2512209	The injury is more serious than the Panthers first expected.	The injury is more serious than the Panthers first expected.	119306129	1475193250269	1475193250350	c	67
234740	2512209	The injury is more serious than the Panthers first expected.	The injury is more serious than the Panthers first expected.	119306134	1475193250353	1475193250430	t	84
234740	2512209	The injury is more serious than the Panthers first expected.	The injury is more serious than the Panthers first expected.	119306139	1475193250467	1475193250509	e	69
234740	2512209	The injury is more serious than the Panthers first expected.	The injury is more serious than the Panthers first expected.	119306144	1475193250584	1475193250665	d	68
234740	2512224	Do you need it today?	Do you need it today?	119306261	1475193253556	1475193253604	CAPS_LOCK	20
234740	2512224	Do you need it today?	Do you need it today?	119306262	1475193253607	1475193253694	D	68
234740	2512224	Do you need it today?	Do you need it today?	119306263	1475193253680	1475193253769	CAPS_LOCK	20
234740	2512224	Do you need it today?	Do you need it today?	119306265	1475193253882	1475193253963	o	79
234740	2512224	Do you need it today?	Do you need it today?	119306267	1475193254000	1475193254081	 	32
234740	2512224	Do you need it today?	Do you need it today?	119306271	1475193254156	1475193254238	y	89
234740	2512224	Do you need it today?	Do you need it today?	119306294	1475193254195	1475193254291	o	79
234740	2512224	Do you need it today?	Do you need it today?	119306295	1475193254285	1475193254368	u	85
234740	2512224	Do you need it today?	Do you need it today?	119306296	1475193254750	1475193254831	 	32
234740	2512224	Do you need it today?	Do you need it today?	119306297	1475193254944	1475193255026	n	78
234740	2512224	Do you need it today?	Do you need it today?	119306298	1475193255062	1475193255143	e	69
234740	2512224	Do you need it today?	Do you need it today?	119306299	1475193255218	1475193255261	e	69
234740	2512224	Do you need it today?	Do you need it today?	119306334	1475193255375	1475193255417	d	68
234740	2512224	Do you need it today?	Do you need it today?	119306336	1475193255568	1475193255611	 	32
234740	2512224	Do you need it today?	Do you need it today?	119306338	1475193255764	1475193255844	i	73
234740	2512224	Do you need it today?	Do you need it today?	119306341	1475193255881	1475193255962	t	84
234740	2512224	Do you need it today?	Do you need it today?	119306346	1475193256267	1475193256347	 	32
234740	2512224	Do you need it today?	Do you need it today?	119306371	1475193256499	1475193256580	t	84
234740	2512224	Do you need it today?	Do you need it today?	119306373	1475193256583	1475193256660	o	79
234740	2512224	Do you need it today?	Do you need it today?	119306375	1475193256774	1475193256933	d	68
234740	2512224	Do you need it today?	Do you need it today?	119306377	1475193256852	1475193256976	a	65
234740	2512224	Do you need it today?	Do you need it today?	119306420	1475193256936	1475193257017	y	89
234740	2512224	Do you need it today?	Do you need it today?	119306422	1475193257130	1475193257288	CTRL	17
234740	2512224	Do you need it today?	Do you need it today?	119306428	1475193257440	1475193257868	SHIFT	16
234740	2512224	Do you need it today?	Do you need it today?	119306425	1475193257555	1475193257636	?	191
234740	2512232	Best of luck and stay in touch.	Best of luck and stay in touch.	119306543	1475193260141	1475193260189	CAPS_LOCK	20
234740	2512232	Best of luck and stay in touch.	Best of luck and stay in touch.	119306545	1475193260227	1475193260269	B	66
234740	2512232	Best of luck and stay in touch.	Best of luck and stay in touch.	119306548	1475193260306	1475193260354	CAPS_LOCK	20
234740	2512232	Best of luck and stay in touch.	Best of luck and stay in touch.	119306552	1475193260468	1475193260554	e	69
234740	2512232	Best of luck and stay in touch.	Best of luck and stay in touch.	119306554	1475193260635	1475193260678	s	83
234740	2512232	Best of luck and stay in touch.	Best of luck and stay in touch.	119306556	1475193260681	1475193260719	t	84
234740	2512232	Best of luck and stay in touch.	Best of luck and stay in touch.	119306558	1475193260795	1475193260877	 	32
234740	2512232	Best of luck and stay in touch.	Best of luck and stay in touch.	119306582	1475193261104	1475193261186	o	79
234740	2512232	Best of luck and stay in touch.	Best of luck and stay in touch.	119306584	1475193261221	1475193261273	f	70
234740	2512232	Best of luck and stay in touch.	Best of luck and stay in touch.	119306586	1475193261348	1475193261429	 	32
234740	2512232	Best of luck and stay in touch.	Best of luck and stay in touch.	119306588	1475193261386	1475193261547	l	76
234740	2512232	Best of luck and stay in touch.	Best of luck and stay in touch.	119306617	1475193261504	1475193261588	u	85
234740	2512232	Best of luck and stay in touch.	Best of luck and stay in touch.	119306619	1475193261625	1475193261706	c	67
234740	2512232	Best of luck and stay in touch.	Best of luck and stay in touch.	119306622	1475193261742	1475193261823	k	75
234740	2512232	Best of luck and stay in touch.	Best of luck and stay in touch.	119306624	1475193262090	1475193262132	 	32
234740	2512232	Best of luck and stay in touch.	Best of luck and stay in touch.	119306627	1475193262246	1475193262289	a	65
234740	2512232	Best of luck and stay in touch.	Best of luck and stay in touch.	119306630	1475193262291	1475193262368	n	78
234740	2512232	Best of luck and stay in touch.	Best of luck and stay in touch.	119306647	1475193262405	1475193262454	d	68
234740	2512232	Best of luck and stay in touch.	Best of luck and stay in touch.	119306650	1475193262530	1475193262610	 	32
234740	2512232	Best of luck and stay in touch.	Best of luck and stay in touch.	119306652	1475193262685	1475193262766	s	83
234740	2512232	Best of luck and stay in touch.	Best of luck and stay in touch.	119306654	1475193262768	1475193262844	t	84
234740	2512232	Best of luck and stay in touch.	Best of luck and stay in touch.	119306660	1475193262882	1475193262962	a	65
234740	2512232	Best of luck and stay in touch.	Best of luck and stay in touch.	119306700	1475193262966	1475193263081	y	89
234740	2512232	Best of luck and stay in touch.	Best of luck and stay in touch.	119306704	1475193263578	1475193263621	 	32
234740	2512232	Best of luck and stay in touch.	Best of luck and stay in touch.	119306706	1475193263696	1475193263816	i	73
234740	2512232	Best of luck and stay in touch.	Best of luck and stay in touch.	119306709	1475193263773	1475193263856	n	78
234740	2512232	Best of luck and stay in touch.	Best of luck and stay in touch.	119306711	1475193263893	1475193263954	 	32
234740	2512232	Best of luck and stay in touch.	Best of luck and stay in touch.	119306731	1475193264107	1475193264149	t	84
234740	2512232	Best of luck and stay in touch.	Best of luck and stay in touch.	119306736	1475193264151	1475193264267	o	79
234740	2512232	Best of luck and stay in touch.	Best of luck and stay in touch.	119306742	1475193264224	1475193264308	u	85
234740	2512232	Best of luck and stay in touch.	Best of luck and stay in touch.	119306746	1475193264345	1475193264425	c	67
234740	2512232	Best of luck and stay in touch.	Best of luck and stay in touch.	119306750	1475193264428	1475193264543	h	72
234740	2512240	I'll bug Holloway and let you know what he says.	I'll bug holloway and let you know what he says.	119306900	1475193267087	1475193267135	CAPS_LOCK	20
234740	2512240	I'll bug Holloway and let you know what he says.	I'll bug holloway and let you know what he says.	119306904	1475193267249	1475193267293	I	73
234740	2512240	I'll bug Holloway and let you know what he says.	I'll bug holloway and let you know what he says.	119306909	1475193267367	1475193267454	CAPS_LOCK	20
234740	2512240	I'll bug Holloway and let you know what he says.	I'll bug holloway and let you know what he says.	119306913	1475193267913	1475193267994	'	222
234740	2512240	I'll bug Holloway and let you know what he says.	I'll bug holloway and let you know what he says.	119306916	1475193268184	1475193268265	l	76
234740	2512240	I'll bug Holloway and let you know what he says.	I'll bug holloway and let you know what he says.	119306918	1475193268301	1475193268383	l	76
234740	2512240	I'll bug Holloway and let you know what he says.	I'll bug holloway and let you know what he says.	119306921	1475193268457	1475193268539	 	32
234740	2512240	I'll bug Holloway and let you know what he says.	I'll bug holloway and let you know what he says.	119307030	1475193269074	1475193269117	b	66
234740	2512240	I'll bug Holloway and let you know what he says.	I'll bug holloway and let you know what he says.	119307032	1475193269119	1475193269196	u	85
234740	2512240	I'll bug Holloway and let you know what he says.	I'll bug holloway and let you know what he says.	119307035	1475193269310	1475193269391	g	71
234740	2512240	I'll bug Holloway and let you know what he says.	I'll bug holloway and let you know what he says.	119307037	1475193270658	1475193270701	 	32
234740	2512240	I'll bug Holloway and let you know what he says.	I'll bug holloway and let you know what he says.	119307040	1475193271006	1475193271049	h	72
234740	2512240	I'll bug Holloway and let you know what he says.	I'll bug holloway and let you know what he says.	119307086	1475193271085	1475193271128	o	79
234740	2512240	I'll bug Holloway and let you know what he says.	I'll bug holloway and let you know what he says.	119307089	1475193271241	1475193271322	l	76
234740	2512240	I'll bug Holloway and let you know what he says.	I'll bug holloway and let you know what he says.	119307090	1475193271359	1475193271440	l	76
234740	2512240	I'll bug Holloway and let you know what he says.	I'll bug holloway and let you know what he says.	119307092	1475193272592	1475193272673	o	79
234740	2512240	I'll bug Holloway and let you know what he says.	I'll bug holloway and let you know what he says.	119307093	1475193272749	1475193272791	w	87
234740	2512240	I'll bug Holloway and let you know what he says.	I'll bug holloway and let you know what he says.	119307148	1475193272867	1475193272947	a	65
234740	2512240	I'll bug Holloway and let you know what he says.	I'll bug holloway and let you know what he says.	119307150	1475193274022	1475193274103	y	89
234740	2512240	I'll bug Holloway and let you know what he says.	I'll bug holloway and let you know what he says.	119307153	1475193274178	1475193274259	 	32
234740	2512240	I'll bug Holloway and let you know what he says.	I'll bug holloway and let you know what he says.	119307155	1475193274681	1475193274762	a	65
234740	2512240	I'll bug Holloway and let you know what he says.	I'll bug holloway and let you know what he says.	119307161	1475193274765	1475193274842	n	78
234740	2512240	I'll bug Holloway and let you know what he says.	I'll bug holloway and let you know what he says.	119307175	1475193274879	1475193274960	d	68
234740	2512240	I'll bug Holloway and let you know what he says.	I'll bug holloway and let you know what he says.	119307177	1475193275035	1475193275077	 	32
234740	2512240	I'll bug Holloway and let you know what he says.	I'll bug holloway and let you know what he says.	119307179	1475193275114	1475193275195	l	76
234740	2512240	I'll bug Holloway and let you know what he says.	I'll bug holloway and let you know what he says.	119307181	1475193275231	1475193275274	e	69
234740	2512240	I'll bug Holloway and let you know what he says.	I'll bug holloway and let you know what he says.	119307183	1475193275349	1475193275430	t	84
234740	2512240	I'll bug Holloway and let you know what he says.	I'll bug holloway and let you know what he says.	119307211	1475193275505	1475193275567	 	32
234740	2512240	I'll bug Holloway and let you know what he says.	I'll bug holloway and let you know what he says.	119307213	1475193275680	1475193275723	y	89
234740	2512240	I'll bug Holloway and let you know what he says.	I'll bug holloway and let you know what he says.	119307215	1475193275760	1475193275880	o	79
234740	2512240	I'll bug Holloway and let you know what he says.	I'll bug holloway and let you know what he says.	119307216	1475193275837	1475193275921	u	85
234740	2512240	I'll bug Holloway and let you know what he says.	I'll bug holloway and let you know what he says.	119307218	1475193276187	1475193276230	 	32
234740	2512240	I'll bug Holloway and let you know what he says.	I'll bug holloway and let you know what he says.	119307238	1475193276382	1475193276475	k	75
234740	2512240	I'll bug Holloway and let you know what he says.	I'll bug holloway and let you know what he says.	119307241	1475193276469	1475193276552	n	78
234740	2512240	I'll bug Holloway and let you know what he says.	I'll bug holloway and let you know what he says.	119307246	1475193277112	1475193277112	o	79
234740	2512240	I'll bug Holloway and let you know what he says.	I'll bug holloway and let you know what he says.	119307249	1475193277113	1475193277113	w	87
234740	2512240	I'll bug Holloway and let you know what he says.	I'll bug holloway and let you know what he says.	119307255	1475193277114	1475193277115	 	32
234740	2512240	I'll bug Holloway and let you know what he says.	I'll bug holloway and let you know what he says.	119307281	1475193277118	1475193277119	w	87
234740	2512240	I'll bug Holloway and let you know what he says.	I'll bug holloway and let you know what he says.	119307282	1475193277120	1475193277146	h	72
234740	2512240	I'll bug Holloway and let you know what he says.	I'll bug holloway and let you know what he says.	119307284	1475193277178	1475193277259	a	65
234740	2512240	I'll bug Holloway and let you know what he says.	I'll bug holloway and let you know what he says.	119307288	1475193277296	1475193277377	t	84
234740	2512240	I'll bug Holloway and let you know what he says.	I'll bug holloway and let you know what he says.	119307291	1475193277758	1475193277839	 	32
234740	2512240	I'll bug Holloway and let you know what he says.	I'll bug holloway and let you know what he says.	119307327	1475193277952	1475193277995	h	72
234740	2512240	I'll bug Holloway and let you know what he says.	I'll bug holloway and let you know what he says.	119307329	1475193278032	1475193278113	e	69
234740	2512240	I'll bug Holloway and let you know what he says.	I'll bug holloway and let you know what he says.	119307331	1475193278188	1475193278269	 	32
234740	2512240	I'll bug Holloway and let you know what he says.	I'll bug holloway and let you know what he says.	119307334	1475193278382	1475193278502	s	83
234740	2512240	I'll bug Holloway and let you know what he says.	I'll bug holloway and let you know what he says.	119307392	1475193278459	1475193278581	a	65
234740	2512240	I'll bug Holloway and let you know what he says.	I'll bug holloway and let you know what he says.	119307393	1475193278539	1475193278622	y	89
234740	2512240	I'll bug Holloway and let you know what he says.	I'll bug holloway and let you know what he says.	119307394	1475193278659	1475193278740	s	83
234740	2512240	I'll bug Holloway and let you know what he says.	I'll bug holloway and let you know what he says.	119307396	1475193279699	1475193279743	.	190
234740	2512253	The move was a further twist in the long-running dispute.	The move was further twist in the long-running dispute.	119307502	1475193281707	1475193281755	CAPS_LOCK	20
234740	2512253	The move was a further twist in the long-running dispute.	The move was further twist in the long-running dispute.	119307504	1475193281793	1475193281874	T	84
234740	2512253	The move was a further twist in the long-running dispute.	The move was further twist in the long-running dispute.	119307507	1475193281911	1475193281959	CAPS_LOCK	20
234740	2512253	The move was a further twist in the long-running dispute.	The move was further twist in the long-running dispute.	119307509	1475193281995	1475193282038	h	72
234740	2512253	The move was a further twist in the long-running dispute.	The move was further twist in the long-running dispute.	119307512	1475193282151	1475193282194	e	69
234740	2512253	The move was a further twist in the long-running dispute.	The move was further twist in the long-running dispute.	119307514	1475193282538	1475193282618	 	32
234740	2512253	The move was a further twist in the long-running dispute.	The move was further twist in the long-running dispute.	119307516	1475193282655	1475193282852	m	77
234740	2512253	The move was a further twist in the long-running dispute.	The move was further twist in the long-running dispute.	119307620	1475193282809	1475193282931	o	79
234740	2512253	The move was a further twist in the long-running dispute.	The move was further twist in the long-running dispute.	119307621	1475193283005	1475193283091	v	67
234740	2512253	The move was a further twist in the long-running dispute.	The move was further twist in the long-running dispute.	119307622	1475193283086	1475193283131	e	87
234740	2512253	The move was a further twist in the long-running dispute.	The move was further twist in the long-running dispute.	119307623	1475193283630	1475193283711	BKSP	8
234740	2512253	The move was a further twist in the long-running dispute.	The move was further twist in the long-running dispute.	119307625	1475193283786	1475193283829	BKSP	8
234740	2512253	The move was a further twist in the long-running dispute.	The move was further twist in the long-running dispute.	119307628	1475193283904	1475193283985	BKSP	8
234740	2512253	The move was a further twist in the long-running dispute.	The move was further twist in the long-running dispute.	119307632	1475193284598	1475193284679	BKSP	8
234740	2512253	The move was a further twist in the long-running dispute.	The move was further twist in the long-running dispute.	119307634	1475193284907	1475193284988	v	86
234740	2512253	The move was a further twist in the long-running dispute.	The move was further twist in the long-running dispute.	119307675	1475193285025	1475193285106	e	69
234740	2512253	The move was a further twist in the long-running dispute.	The move was further twist in the long-running dispute.	119307678	1475193285181	1475193285262	 	32
234740	2512253	The move was a further twist in the long-running dispute.	The move was further twist in the long-running dispute.	119307681	1475193285337	1475193285418	w	87
234740	2512253	The move was a further twist in the long-running dispute.	The move was further twist in the long-running dispute.	119307684	1475193285493	1475193285651	a	65
234740	2512253	The move was a further twist in the long-running dispute.	The move was further twist in the long-running dispute.	119307743	1475193285608	1475193285691	s	83
234740	2512253	The move was a further twist in the long-running dispute.	The move was further twist in the long-running dispute.	119307745	1475193286343	1475193286424	 	32
234740	2512253	The move was a further twist in the long-running dispute.	The move was further twist in the long-running dispute.	119307747	1475193286652	1475193286695	f	70
234740	2512253	The move was a further twist in the long-running dispute.	The move was further twist in the long-running dispute.	119307749	1475193286770	1475193286814	u	85
234740	2512253	The move was a further twist in the long-running dispute.	The move was further twist in the long-running dispute.	119307753	1475193286849	1475193286892	r	82
234740	2512253	The move was a further twist in the long-running dispute.	The move was further twist in the long-running dispute.	119307757	1475193286968	1475193287048	t	84
234740	2512253	The move was a further twist in the long-running dispute.	The move was further twist in the long-running dispute.	119307803	1475193287050	1475193287127	h	72
234740	2512253	The move was a further twist in the long-running dispute.	The move was further twist in the long-running dispute.	119307807	1475193287203	1475193287361	e	69
234740	2512253	The move was a further twist in the long-running dispute.	The move was further twist in the long-running dispute.	119307811	1475193287280	1475193287401	r	82
234740	2512253	The move was a further twist in the long-running dispute.	The move was further twist in the long-running dispute.	119307814	1475193287899	1475193287960	 	32
234740	2512253	The move was a further twist in the long-running dispute.	The move was further twist in the long-running dispute.	119307817	1475193288112	1475193288163	t	84
234740	2512253	The move was a further twist in the long-running dispute.	The move was further twist in the long-running dispute.	119307878	1475193288315	1475193288395	w	87
234740	2512253	The move was a further twist in the long-running dispute.	The move was further twist in the long-running dispute.	119307879	1475193288398	1475193288475	i	73
234740	2512253	The move was a further twist in the long-running dispute.	The move was further twist in the long-running dispute.	119307880	1475193289319	1475193289363	s	83
234740	2512253	The move was a further twist in the long-running dispute.	The move was further twist in the long-running dispute.	119307882	1475193289398	1475193289441	t	84
234740	2512253	The move was a further twist in the long-running dispute.	The move was further twist in the long-running dispute.	119307884	1475193289979	1475193290057	 	32
234740	2512253	The move was a further twist in the long-running dispute.	The move was further twist in the long-running dispute.	119307917	1475193290209	1475193290266	o	79
234740	2512253	The move was a further twist in the long-running dispute.	The move was further twist in the long-running dispute.	119307920	1475193290303	1475193290347	n	78
234740	2512253	The move was a further twist in the long-running dispute.	The move was further twist in the long-running dispute.	119307923	1475193290576	1475193290617	BKSP	8
234740	2512253	The move was a further twist in the long-running dispute.	The move was further twist in the long-running dispute.	119307926	1475193290731	1475193290812	BKSP	8
234740	2512253	The move was a further twist in the long-running dispute.	The move was further twist in the long-running dispute.	119307929	1475193291385	1475193291466	i	73
234740	2512253	The move was a further twist in the long-running dispute.	The move was further twist in the long-running dispute.	119307930	1475193291503	1475193291546	n	78
234740	2512253	The move was a further twist in the long-running dispute.	The move was further twist in the long-running dispute.	119307931	1475193291660	1475193291721	 	32
234740	2512253	The move was a further twist in the long-running dispute.	The move was further twist in the long-running dispute.	119307942	1475193291987	1475193292039	t	84
234740	2512253	The move was a further twist in the long-running dispute.	The move was further twist in the long-running dispute.	119307944	1475193292075	1475193292118	h	72
234740	2512253	The move was a further twist in the long-running dispute.	The move was further twist in the long-running dispute.	119307946	1475193292156	1475193292236	e	69
234740	2512253	The move was a further twist in the long-running dispute.	The move was further twist in the long-running dispute.	119307948	1475193292311	1475193292392	 	32
234740	2512253	The move was a further twist in the long-running dispute.	The move was further twist in the long-running dispute.	119308030	1475193292349	1475193292433	l	76
234740	2512253	The move was a further twist in the long-running dispute.	The move was further twist in the long-running dispute.	119308032	1475193292508	1475193292589	o	79
234740	2512253	The move was a further twist in the long-running dispute.	The move was further twist in the long-running dispute.	119308034	1475193292702	1475193292783	n	78
234740	2512253	The move was a further twist in the long-running dispute.	The move was further twist in the long-running dispute.	119308040	1475193292820	1475193292901	g	71
234740	2512253	The move was a further twist in the long-running dispute.	The move was further twist in the long-running dispute.	119308044	1475193293976	1475193294019	-	189
234740	2512253	The move was a further twist in the long-running dispute.	The move was further twist in the long-running dispute.	119308048	1475193294247	1475193294290	r	82
234740	2512253	The move was a further twist in the long-running dispute.	The move was further twist in the long-running dispute.	119308075	1475193294365	1475193294446	u	85
234740	2512253	The move was a further twist in the long-running dispute.	The move was further twist in the long-running dispute.	119308078	1475193294559	1475193294602	n	78
234740	2512253	The move was a further twist in the long-running dispute.	The move was further twist in the long-running dispute.	119308084	1475193294677	1475193294758	n	78
234740	2512253	The move was a further twist in the long-running dispute.	The move was further twist in the long-running dispute.	119308088	1475193294794	1475193294879	i	73
234740	2512253	The move was a further twist in the long-running dispute.	The move was further twist in the long-running dispute.	119308125	1475193294872	1475193294957	n	78
234740	2512253	The move was a further twist in the long-running dispute.	The move was further twist in the long-running dispute.	119308126	1475193294952	1475193295034	g	71
234740	2512253	The move was a further twist in the long-running dispute.	The move was further twist in the long-running dispute.	119308127	1475193295224	1475193295267	 	32
234740	2512253	The move was a further twist in the long-running dispute.	The move was further twist in the long-running dispute.	119308128	1475193295534	1475193295582	d	68
234740	2512253	The move was a further twist in the long-running dispute.	The move was further twist in the long-running dispute.	119308129	1475193295585	1475193295662	i	73
234740	2512253	The move was a further twist in the long-running dispute.	The move was further twist in the long-running dispute.	119308130	1475193295737	1475193295786	s	83
234740	2512253	The move was a further twist in the long-running dispute.	The move was further twist in the long-running dispute.	119308218	1475193295790	1475193295943	p	80
234740	2512253	The move was a further twist in the long-running dispute.	The move was further twist in the long-running dispute.	119308222	1475193295937	1475193296021	u	85
234740	2512253	The move was a further twist in the long-running dispute.	The move was further twist in the long-running dispute.	119308227	1475193296172	1475193296252	t	84
234740	2512253	The move was a further twist in the long-running dispute.	The move was further twist in the long-running dispute.	119308231	1475193296289	1475193296370	e	69
234740	2512253	The move was a further twist in the long-running dispute.	The move was further twist in the long-running dispute.	119308234	1475193297676	1475193297757	.	190
234740	2512271	Expect him to produce good numbers against New England.	Expect him to produce good numbers against New England.	119308380	1475193299635	1475193299682	CAPS_LOCK	20
234740	2512271	Expect him to produce good numbers against New England.	Expect him to produce good numbers against New England.	119308384	1475193299685	1475193299773	E	69
234740	2512271	Expect him to produce good numbers against New England.	Expect him to produce good numbers against New England.	119308387	1475193299759	1475193299847	CAPS_LOCK	20
234740	2512271	Expect him to produce good numbers against New England.	Expect him to produce good numbers against New England.	119308388	1475193299967	1475193300053	x	88
234740	2512271	Expect him to produce good numbers against New England.	Expect him to produce good numbers against New England.	119308390	1475193300129	1475193300248	p	80
234740	2512271	Expect him to produce good numbers against New England.	Expect him to produce good numbers against New England.	119308394	1475193300323	1475193300366	e	69
234740	2512271	Expect him to produce good numbers against New England.	Expect him to produce good numbers against New England.	119308398	1475193300479	1475193300559	c	67
234740	2512271	Expect him to produce good numbers against New England.	Expect him to produce good numbers against New England.	119308427	1475193300563	1475193300640	t	84
234740	2512271	Expect him to produce good numbers against New England.	Expect him to produce good numbers against New England.	119308428	1475193301059	1475193301141	 	32
234740	2512271	Expect him to produce good numbers against New England.	Expect him to produce good numbers against New England.	119308430	1475193301369	1475193301449	h	72
234740	2512271	Expect him to produce good numbers against New England.	Expect him to produce good numbers against New England.	119308432	1475193301452	1475193301620	i	73
234740	2512271	Expect him to produce good numbers against New England.	Expect him to produce good numbers against New England.	119308464	1475193301614	1475193301735	m	77
234740	2512271	Expect him to produce good numbers against New England.	Expect him to produce good numbers against New England.	119308466	1475193301693	1475193301776	 	32
234740	2512271	Expect him to produce good numbers against New England.	Expect him to produce good numbers against New England.	119308469	1475193301851	1475193301894	t	84
234740	2512271	Expect him to produce good numbers against New England.	Expect him to produce good numbers against New England.	119308473	1475193301932	1475193302027	o	79
234740	2512271	Expect him to produce good numbers against New England.	Expect him to produce good numbers against New England.	119308477	1475193302063	1475193302106	 	32
234740	2512271	Expect him to produce good numbers against New England.	Expect him to produce good numbers against New England.	119308481	1475193302181	1475193302300	p	80
234740	2512271	Expect him to produce good numbers against New England.	Expect him to produce good numbers against New England.	119308498	1475193302337	1475193302380	r	82
234740	2512271	Expect him to produce good numbers against New England.	Expect him to produce good numbers against New England.	119308499	1475193302417	1475193302498	o	79
234740	2512271	Expect him to produce good numbers against New England.	Expect him to produce good numbers against New England.	119308500	1475193302841	1475193302921	d	68
234740	2512271	Expect him to produce good numbers against New England.	Expect him to produce good numbers against New England.	119308501	1475193302924	1475193302963	u	85
234740	2512271	Expect him to produce good numbers against New England.	Expect him to produce good numbers against New England.	119308503	1475193303076	1475193303195	c	67
234740	2512271	Expect him to produce good numbers against New England.	Expect him to produce good numbers against New England.	119308532	1475193303198	1475193303275	e	69
234740	2512271	Expect him to produce good numbers against New England.	Expect him to produce good numbers against New England.	119308534	1475193303541	1475193303622	 	32
234740	2512271	Expect him to produce good numbers against New England.	Expect him to produce good numbers against New England.	119308535	1475193303782	1475193303864	g	71
234740	2512271	Expect him to produce good numbers against New England.	Expect him to produce good numbers against New England.	119308536	1475193303900	1475193303981	o	79
234740	2512271	Expect him to produce good numbers against New England.	Expect him to produce good numbers against New England.	119308537	1475193304018	1475193304099	o	79
234740	2512271	Expect him to produce good numbers against New England.	Expect him to produce good numbers against New England.	119308564	1475193304174	1475193304255	d	68
234740	2512271	Expect him to produce good numbers against New England.	Expect him to produce good numbers against New England.	119308569	1475193304407	1475193304488	 	32
234740	2512271	Expect him to produce good numbers against New England.	Expect him to produce good numbers against New England.	119308572	1475193304601	1475193304654	b	66
234740	2512271	Expect him to produce good numbers against New England.	Expect him to produce good numbers against New England.	119308576	1475193304657	1475193304734	u	85
234740	2512271	Expect him to produce good numbers against New England.	Expect him to produce good numbers against New England.	119308580	1475193304847	1475193304928	m	77
234740	2512271	Expect him to produce good numbers against New England.	Expect him to produce good numbers against New England.	119308678	1475193305310	1475193305391	BKSP	8
234740	2512271	Expect him to produce good numbers against New England.	Expect him to produce good numbers against New England.	119308680	1475193305446	1475193305527	BKSP	8
234740	2512271	Expect him to produce good numbers against New England.	Expect him to produce good numbers against New England.	119308682	1475193305565	1475193305646	BKSP	8
234740	2512271	Expect him to produce good numbers against New England.	Expect him to produce good numbers against New England.	119308686	1475193306720	1475193306801	n	78
234740	2512271	Expect him to produce good numbers against New England.	Expect him to produce good numbers against New England.	119308693	1475193306804	1475193306842	u	85
234740	2512271	Expect him to produce good numbers against New England.	Expect him to produce good numbers against New England.	119308698	1475193306955	1475193307037	m	77
234740	2512271	Expect him to produce good numbers against New England.	Expect him to produce good numbers against New England.	119308703	1475193307150	1475193307234	b	66
234740	2512271	Expect him to produce good numbers against New England.	Expect him to produce good numbers against New England.	119308739	1475193307227	1475193307356	e	69
234740	2512271	Expect him to produce good numbers against New England.	Expect him to produce good numbers against New England.	119308742	1475193307306	1475193307396	r	82
234740	2512271	Expect him to produce good numbers against New England.	Expect him to produce good numbers against New England.	119308744	1475193307548	1475193307629	s	83
234740	2512271	Expect him to produce good numbers against New England.	Expect him to produce good numbers against New England.	119308749	1475193307934	1475193307976	 	32
234740	2512271	Expect him to produce good numbers against New England.	Expect him to produce good numbers against New England.	119308752	1475193308090	1475193308171	a	65
234740	2512271	Expect him to produce good numbers against New England.	Expect him to produce good numbers against New England.	119308753	1475193308246	1475193308326	g	71
234740	2512271	Expect him to produce good numbers against New England.	Expect him to produce good numbers against New England.	119308766	1475193308363	1475193308445	a	65
234740	2512271	Expect him to produce good numbers against New England.	Expect him to produce good numbers against New England.	119308768	1475193308481	1475193308601	i	85
234740	2512271	Expect him to produce good numbers against New England.	Expect him to produce good numbers against New England.	119308769	1475193308595	1475193308680	n	78
234740	2512271	Expect him to produce good numbers against New England.	Expect him to produce good numbers against New England.	119308770	1475193308755	1475193308836	s	83
234740	2512271	Expect him to produce good numbers against New England.	Expect him to produce good numbers against New England.	119308920	1475193309141	1475193309184	BKSP	8
234740	2512271	Expect him to produce good numbers against New England.	Expect him to produce good numbers against New England.	119308923	1475193309259	1475193309302	BKSP	8
234740	2512271	Expect him to produce good numbers against New England.	Expect him to produce good numbers against New England.	119308930	1475193309395	1475193309438	BKSP	8
234740	2512271	Expect him to produce good numbers against New England.	Expect him to produce good numbers against New England.	119308936	1475193309552	1475193309594	BKSP	8
234740	2512271	Expect him to produce good numbers against New England.	Expect him to produce good numbers against New England.	119308941	1475193310438	1475193310568	i	73
234740	2512271	Expect him to produce good numbers against New England.	Expect him to produce good numbers against New England.	119308946	1475193310525	1475193310647	n	78
234740	2512271	Expect him to produce good numbers against New England.	Expect him to produce good numbers against New England.	119308951	1475193310684	1475193310766	s	83
234740	2512271	Expect him to produce good numbers against New England.	Expect him to produce good numbers against New England.	119308956	1475193310802	1475193310883	t	84
234740	2512271	Expect him to produce good numbers against New England.	Expect him to produce good numbers against New England.	119308961	1475193311842	1475193311923	 	32
234740	2512271	Expect him to produce good numbers against New England.	Expect him to produce good numbers against New England.	119309008	1475193312037	1475193312123	CAPS_LOCK	20
234740	2512271	Expect him to produce good numbers against New England.	Expect him to produce good numbers against New England.	119309010	1475193312126	1475193312214	N	78
234740	2512271	Expect him to produce good numbers against New England.	Expect him to produce good numbers against New England.	119309013	1475193312199	1475193312288	CAPS_LOCK	20
234740	2512271	Expect him to produce good numbers against New England.	Expect him to produce good numbers against New England.	119309015	1475193312401	1475193312521	e	69
234740	2512271	Expect him to produce good numbers against New England.	Expect him to produce good numbers against New England.	119309017	1475193312479	1475193312562	w	87
234740	2512271	Expect him to produce good numbers against New England.	Expect him to produce good numbers against New England.	119309019	1475193312637	1475193312718	 	32
234740	2512271	Expect him to produce good numbers against New England.	Expect him to produce good numbers against New England.	119309021	1475193312831	1475193312918	CAPS_LOCK	20
234740	2512271	Expect him to produce good numbers against New England.	Expect him to produce good numbers against New England.	119309024	1475193312922	1475193313008	E	69
234740	2512271	Expect him to produce good numbers against New England.	Expect him to produce good numbers against New England.	119309047	1475193312994	1475193313083	CAPS_LOCK	20
234740	2512271	Expect him to produce good numbers against New England.	Expect him to produce good numbers against New England.	119309051	1475193313465	1475193313590	n	78
234740	2512271	Expect him to produce good numbers against New England.	Expect him to produce good numbers against New England.	119309055	1475193313503	1475193313664	g	71
234740	2512271	Expect him to produce good numbers against New England.	Expect him to produce good numbers against New England.	119309058	1475193313621	1475193313704	l	76
234740	2512271	Expect him to produce good numbers against New England.	Expect him to produce good numbers against New England.	119309061	1475193313818	1475193313861	a	65
234740	2512271	Expect him to produce good numbers against New England.	Expect him to produce good numbers against New England.	119309067	1475193313863	1475193313940	n	78
234740	2512271	Expect him to produce good numbers against New England.	Expect him to produce good numbers against New England.	119309132	1475193313977	1475193314058	s	83
234740	2512271	Expect him to produce good numbers against New England.	Expect him to produce good numbers against New England.	119309134	1475193315095	1475193315179	BKSP	8
234740	2512271	Expect him to produce good numbers against New England.	Expect him to produce good numbers against New England.	119309138	1475193315250	1475193315331	d	68
234740	2512271	Expect him to produce good numbers against New England.	Expect him to produce good numbers against New England.	119309143	1475193315636	1475193315744	.	190
234740	2512286	Most contenders here use his Ford-Cosworth engines.	Most contenders here use his Ford-Cosworth engines.	119309271	1475193317750	1475193317797	CAPS_LOCK	20
234740	2512286	Most contenders here use his Ford-Cosworth engines.	Most contenders here use his Ford-Cosworth engines.	119309273	1475193317800	1475193317877	M	77
234740	2512286	Most contenders here use his Ford-Cosworth engines.	Most contenders here use his Ford-Cosworth engines.	119309277	1475193317914	1475193317962	CAPS_LOCK	20
234740	2512286	Most contenders here use his Ford-Cosworth engines.	Most contenders here use his Ford-Cosworth engines.	119309281	1475193317999	1475193318047	o	79
234740	2512286	Most contenders here use his Ford-Cosworth engines.	Most contenders here use his Ford-Cosworth engines.	119309284	1475193318123	1475193318210	s	83
234740	2512286	Most contenders here use his Ford-Cosworth engines.	Most contenders here use his Ford-Cosworth engines.	119309286	1475193318247	1475193318328	t	84
234740	2512286	Most contenders here use his Ford-Cosworth engines.	Most contenders here use his Ford-Cosworth engines.	119309288	1475193318863	1475193318906	 	32
234740	2512286	Most contenders here use his Ford-Cosworth engines.	Most contenders here use his Ford-Cosworth engines.	119309340	1475193319057	1475193319145	c	67
234740	2512286	Most contenders here use his Ford-Cosworth engines.	Most contenders here use his Ford-Cosworth engines.	119309346	1475193319373	1475193319428	i	73
234740	2512286	Most contenders here use his Ford-Cosworth engines.	Most contenders here use his Ford-Cosworth engines.	119309350	1475193319734	1475193319814	BKSP	8
234740	2512286	Most contenders here use his Ford-Cosworth engines.	Most contenders here use his Ford-Cosworth engines.	119309354	1475193319967	1475193320009	o	79
234740	2512286	Most contenders here use his Ford-Cosworth engines.	Most contenders here use his Ford-Cosworth engines.	119309358	1475193320046	1475193320126	n	78
234740	2512286	Most contenders here use his Ford-Cosworth engines.	Most contenders here use his Ford-Cosworth engines.	119309361	1475193320201	1475193320283	t	84
234740	2512286	Most contenders here use his Ford-Cosworth engines.	Most contenders here use his Ford-Cosworth engines.	119309384	1475193320358	1475193320438	e	69
234740	2512286	Most contenders here use his Ford-Cosworth engines.	Most contenders here use his Ford-Cosworth engines.	119309389	1475193320442	1475193320480	n	78
234740	2512286	Most contenders here use his Ford-Cosworth engines.	Most contenders here use his Ford-Cosworth engines.	119309395	1475193320555	1475193320636	d	68
234740	2512286	Most contenders here use his Ford-Cosworth engines.	Most contenders here use his Ford-Cosworth engines.	119309401	1475193320711	1475193320869	e	69
234740	2512286	Most contenders here use his Ford-Cosworth engines.	Most contenders here use his Ford-Cosworth engines.	119309457	1475193320826	1475193320948	r	82
234740	2512286	Most contenders here use his Ford-Cosworth engines.	Most contenders here use his Ford-Cosworth engines.	119309459	1475193321023	1475193321104	s	83
234740	2512286	Most contenders here use his Ford-Cosworth engines.	Most contenders here use his Ford-Cosworth engines.	119309463	1475193321371	1475193321452	 	32
234740	2512286	Most contenders here use his Ford-Cosworth engines.	Most contenders here use his Ford-Cosworth engines.	119309466	1475193321565	1475193321646	h	72
234740	2512286	Most contenders here use his Ford-Cosworth engines.	Most contenders here use his Ford-Cosworth engines.	119309470	1475193321683	1475193321763	e	69
234740	2512286	Most contenders here use his Ford-Cosworth engines.	Most contenders here use his Ford-Cosworth engines.	119309473	1475193321766	1475193321882	r	82
234740	2512286	Most contenders here use his Ford-Cosworth engines.	Most contenders here use his Ford-Cosworth engines.	119309501	1475193321839	1475193321961	e	69
234740	2512286	Most contenders here use his Ford-Cosworth engines.	Most contenders here use his Ford-Cosworth engines.	119309503	1475193322074	1475193322156	 	32
234740	2512286	Most contenders here use his Ford-Cosworth engines.	Most contenders here use his Ford-Cosworth engines.	119309507	1475193322192	1475193322273	u	85
234740	2512286	Most contenders here use his Ford-Cosworth engines.	Most contenders here use his Ford-Cosworth engines.	119309510	1475193322310	1475193322391	s	83
234740	2512286	Most contenders here use his Ford-Cosworth engines.	Most contenders here use his Ford-Cosworth engines.	119309515	1475193322466	1475193322547	e	69
234740	2512286	Most contenders here use his Ford-Cosworth engines.	Most contenders here use his Ford-Cosworth engines.	119309520	1475193322660	1475193322741	 	32
234740	2512286	Most contenders here use his Ford-Cosworth engines.	Most contenders here use his Ford-Cosworth engines.	119309696	1475193322855	1475193322936	h	72
234740	2512286	Most contenders here use his Ford-Cosworth engines.	Most contenders here use his Ford-Cosworth engines.	119309699	1475193323626	1475193323706	i	73
234740	2512286	Most contenders here use his Ford-Cosworth engines.	Most contenders here use his Ford-Cosworth engines.	119309707	1475193323744	1475193323862	d	68
234740	2512286	Most contenders here use his Ford-Cosworth engines.	Most contenders here use his Ford-Cosworth engines.	119309711	1475193324706	1475193324788	BKSP	8
234740	2512286	Most contenders here use his Ford-Cosworth engines.	Most contenders here use his Ford-Cosworth engines.	119309715	1475193325208	1475193325328	s	83
234740	2512286	Most contenders here use his Ford-Cosworth engines.	Most contenders here use his Ford-Cosworth engines.	119309717	1475193326980	1475193327061	 	32
234740	2512286	Most contenders here use his Ford-Cosworth engines.	Most contenders here use his Ford-Cosworth engines.	119309784	1475193327674	1475193327721	CAPS_LOCK	20
234740	2512286	Most contenders here use his Ford-Cosworth engines.	Most contenders here use his Ford-Cosworth engines.	119309786	1475193327724	1475193327813	F	70
234740	2512286	Most contenders here use his Ford-Cosworth engines.	Most contenders here use his Ford-Cosworth engines.	119309787	1475193327798	1475193327887	CAPS_LOCK	20
234740	2512286	Most contenders here use his Ford-Cosworth engines.	Most contenders here use his Ford-Cosworth engines.	119309788	1475193328006	1475193328064	o	79
234740	2512286	Most contenders here use his Ford-Cosworth engines.	Most contenders here use his Ford-Cosworth engines.	119309790	1475193328183	1475193328266	r	82
234740	2512286	Most contenders here use his Ford-Cosworth engines.	Most contenders here use his Ford-Cosworth engines.	119309792	1475193328378	1475193328458	d	68
234740	2512286	Most contenders here use his Ford-Cosworth engines.	Most contenders here use his Ford-Cosworth engines.	119309794	1475193329071	1475193329152	-	189
234740	2512286	Most contenders here use his Ford-Cosworth engines.	Most contenders here use his Ford-Cosworth engines.	119309868	1475193329381	1475193329429	CAPS_LOCK	20
234740	2512286	Most contenders here use his Ford-Cosworth engines.	Most contenders here use his Ford-Cosworth engines.	119309872	1475193329466	1475193329509	C	67
234740	2512286	Most contenders here use his Ford-Cosworth engines.	Most contenders here use his Ford-Cosworth engines.	119309877	1475193329546	1475193329632	CAPS_LOCK	20
234740	2512286	Most contenders here use his Ford-Cosworth engines.	Most contenders here use his Ford-Cosworth engines.	119309882	1475193329709	1475193329788	o	79
234740	2512286	Most contenders here use his Ford-Cosworth engines.	Most contenders here use his Ford-Cosworth engines.	119309885	1475193329902	1475193329983	w	87
234740	2512286	Most contenders here use his Ford-Cosworth engines.	Most contenders here use his Ford-Cosworth engines.	119309888	1475193330789	1475193330831	BKSP	8
234740	2512286	Most contenders here use his Ford-Cosworth engines.	Most contenders here use his Ford-Cosworth engines.	119309892	1475193330944	1475193330987	s	83
234740	2512286	Most contenders here use his Ford-Cosworth engines.	Most contenders here use his Ford-Cosworth engines.	119309896	1475193331101	1475193331181	w	87
234740	2512286	Most contenders here use his Ford-Cosworth engines.	Most contenders here use his Ford-Cosworth engines.	119309945	1475193331219	1475193331261	o	79
234740	2512286	Most contenders here use his Ford-Cosworth engines.	Most contenders here use his Ford-Cosworth engines.	119309949	1475193331413	1475193331455	r	82
234740	2512286	Most contenders here use his Ford-Cosworth engines.	Most contenders here use his Ford-Cosworth engines.	119309955	1475193331569	1475193331650	t	84
234740	2512286	Most contenders here use his Ford-Cosworth engines.	Most contenders here use his Ford-Cosworth engines.	119309962	1475193331687	1475193331729	h	72
234740	2512286	Most contenders here use his Ford-Cosworth engines.	Most contenders here use his Ford-Cosworth engines.	119309968	1475193332766	1475193332808	 	32
234740	2512286	Most contenders here use his Ford-Cosworth engines.	Most contenders here use his Ford-Cosworth engines.	119310001	1475193332922	1475193333002	e	69
234740	2512286	Most contenders here use his Ford-Cosworth engines.	Most contenders here use his Ford-Cosworth engines.	119310006	1475193333154	1475193333235	n	78
234740	2512286	Most contenders here use his Ford-Cosworth engines.	Most contenders here use his Ford-Cosworth engines.	119310012	1475193333387	1475193333468	g	71
234740	2512286	Most contenders here use his Ford-Cosworth engines.	Most contenders here use his Ford-Cosworth engines.	119310015	1475193333620	1475193333739	i	73
234740	2512286	Most contenders here use his Ford-Cosworth engines.	Most contenders here use his Ford-Cosworth engines.	119310065	1475193333697	1475193333780	n	78
234740	2512286	Most contenders here use his Ford-Cosworth engines.	Most contenders here use his Ford-Cosworth engines.	119310067	1475193333816	1475193333898	e	69
234740	2512286	Most contenders here use his Ford-Cosworth engines.	Most contenders here use his Ford-Cosworth engines.	119310070	1475193334011	1475193334093	s	83
234740	2512286	Most contenders here use his Ford-Cosworth engines.	Most contenders here use his Ford-Cosworth engines.	119310073	1475193334744	1475193334785	.	190
234740	2512306	Wonder what next week will bring.	Wonder what next week will bring.	119310174	1475193336829	1475193336916	CAPS_LOCK	20
234740	2512306	Wonder what next week will bring.	Wonder what next week will bring.	119310178	1475193336952	1475193336995	W	87
234740	2512306	Wonder what next week will bring.	Wonder what next week will bring.	119310180	1475193337032	1475193337080	CAPS_LOCK	20
234740	2512306	Wonder what next week will bring.	Wonder what next week will bring.	119310182	1475193337233	1475193337428	o	79
234740	2512306	Wonder what next week will bring.	Wonder what next week will bring.	119310183	1475193337386	1475193337510	n	78
234740	2512306	Wonder what next week will bring.	Wonder what next week will bring.	119310184	1475193337504	1475193337587	d	68
234740	2512306	Wonder what next week will bring.	Wonder what next week will bring.	119310186	1475193337662	1475193337782	e	69
234740	2512306	Wonder what next week will bring.	Wonder what next week will bring.	119310202	1475193337786	1475193337899	r	82
234740	2512306	Wonder what next week will bring.	Wonder what next week will bring.	119310206	1475193338108	1475193338170	 	32
234740	2512306	Wonder what next week will bring.	Wonder what next week will bring.	119310209	1475193338283	1475193338364	w	87
234740	2512306	Wonder what next week will bring.	Wonder what next week will bring.	119310215	1475193338367	1475193338404	h	72
234740	2512306	Wonder what next week will bring.	Wonder what next week will bring.	119310219	1475193338442	1475193338523	a	65
234740	2512306	Wonder what next week will bring.	Wonder what next week will bring.	119310229	1475193338525	1475193338621	t	84
234740	2512306	Wonder what next week will bring.	Wonder what next week will bring.	119310234	1475193338625	1475193338701	 	32
234740	2512306	Wonder what next week will bring.	Wonder what next week will bring.	119310239	1475193338737	1475193338821	n	78
234740	2512306	Wonder what next week will bring.	Wonder what next week will bring.	119310245	1475193338815	1475193338899	e	69
234740	2512306	Wonder what next week will bring.	Wonder what next week will bring.	119310250	1475193338973	1475193339054	x	88
234740	2512306	Wonder what next week will bring.	Wonder what next week will bring.	119310271	1475193339091	1475193339173	t	84
234740	2512306	Wonder what next week will bring.	Wonder what next week will bring.	119310274	1475193339362	1475193339424	 	32
234740	2512306	Wonder what next week will bring.	Wonder what next week will bring.	119310278	1475193339575	1475193339620	w	87
234740	2512306	Wonder what next week will bring.	Wonder what next week will bring.	119310285	1475193339731	1475193339813	e	69
234740	2512306	Wonder what next week will bring.	Wonder what next week will bring.	119310289	1475193339888	1475193339936	e	69
234740	2512306	Wonder what next week will bring.	Wonder what next week will bring.	119310319	1475193339939	1475193340017	k	75
234740	2512306	Wonder what next week will bring.	Wonder what next week will bring.	119310321	1475193340129	1475193340210	 	32
234740	2512306	Wonder what next week will bring.	Wonder what next week will bring.	119310323	1475193340375	1475193340404	w	87
234740	2512306	Wonder what next week will bring.	Wonder what next week will bring.	119310325	1475193340518	1475193340560	i	73
234740	2512306	Wonder what next week will bring.	Wonder what next week will bring.	119310327	1475193340712	1475193340793	l	76
234740	2512306	Wonder what next week will bring.	Wonder what next week will bring.	119310367	1475193340868	1475193340911	l	76
234740	2512306	Wonder what next week will bring.	Wonder what next week will bring.	119310369	1475193340986	1475193341029	 	32
234740	2512306	Wonder what next week will bring.	Wonder what next week will bring.	119310372	1475193341181	1475193341223	b	66
234740	2512306	Wonder what next week will bring.	Wonder what next week will bring.	119310374	1475193341336	1475193341379	r	82
234740	2512306	Wonder what next week will bring.	Wonder what next week will bring.	119310379	1475193341416	1475193341574	i	73
234740	2512306	Wonder what next week will bring.	Wonder what next week will bring.	119310429	1475193341532	1475193341617	n	78
234740	2512306	Wonder what next week will bring.	Wonder what next week will bring.	119310432	1475193341611	1475193341694	g	71
234740	2512306	Wonder what next week will bring.	Wonder what next week will bring.	119310434	1475193342500	1475193342580	.	190
234740	2512314	This seems fine to me.	This seems fine to me.	119310563	1475193345047	1475193345095	CAPS_LOCK	20
234740	2512314	This seems fine to me.	This seems fine to me.	119310568	1475193345132	1475193345223	T	84
234740	2512314	This seems fine to me.	This seems fine to me.	119310570	1475193345210	1475193345299	CAPS_LOCK	20
234740	2512314	This seems fine to me.	This seems fine to me.	119310573	1475193345335	1475193345491	h	72
234740	2512314	This seems fine to me.	This seems fine to me.	119310576	1475193345495	1475193345534	i	85
234740	2512314	This seems fine to me.	This seems fine to me.	119310579	1475193345574	1475193345620	s	83
234740	2512314	This seems fine to me.	This seems fine to me.	119310683	1475193345963	1475193346006	BKSP	8
234740	2512314	This seems fine to me.	This seems fine to me.	119310687	1475193346081	1475193346162	BKSP	8
234740	2512314	This seems fine to me.	This seems fine to me.	119310691	1475193346199	1475193346280	BKSP	8
234740	2512314	This seems fine to me.	This seems fine to me.	119310694	1475193347162	1475193347243	i	73
234740	2512314	This seems fine to me.	This seems fine to me.	119310698	1475193347280	1475193347361	s	83
234740	2512314	This seems fine to me.	This seems fine to me.	119310700	1475193347436	1475193347479	 	32
234740	2512314	This seems fine to me.	This seems fine to me.	119310703	1475193347592	1475193347673	s	83
234740	2512314	This seems fine to me.	This seems fine to me.	119310706	1475193347748	1475193347791	e	69
234740	2512314	This seems fine to me.	This seems fine to me.	119310728	1475193347866	1475193347947	e	69
234740	2512314	This seems fine to me.	This seems fine to me.	119310732	1475193347949	1475193348027	m	77
234740	2512314	This seems fine to me.	This seems fine to me.	119310737	1475193348064	1475193348146	s	83
234740	2512314	This seems fine to me.	This seems fine to me.	119310739	1475193348220	1475193348300	 	32
234740	2512314	This seems fine to me.	This seems fine to me.	119310741	1475193348414	1475193348494	f	70
234740	2512314	This seems fine to me.	This seems fine to me.	119310752	1475193348497	1475193348651	i	73
234740	2512314	This seems fine to me.	This seems fine to me.	119310755	1475193348608	1475193348694	n	78
234740	2512314	This seems fine to me.	This seems fine to me.	119310757	1475193348689	1475193348771	e	69
234740	2512314	This seems fine to me.	This seems fine to me.	119310760	1475193348846	1475193348927	 	32
234740	2512314	This seems fine to me.	This seems fine to me.	119310764	1475193348972	1475193349053	t	84
234740	2512314	This seems fine to me.	This seems fine to me.	119310891	1475193349056	1475193349173	i	73
234740	2512314	This seems fine to me.	This seems fine to me.	119310892	1475193349285	1475193349368	 	32
234740	2512314	This seems fine to me.	This seems fine to me.	119310893	1475193349363	1475193349445	m	77
234740	2512314	This seems fine to me.	This seems fine to me.	119310894	1475193349482	1475193349564	e	69
234740	2512314	This seems fine to me.	This seems fine to me.	119310896	1475193350676	1475193350720	BKSP	8
234740	2512314	This seems fine to me.	This seems fine to me.	119310898	1475193350794	1475193350837	BKSP	8
234740	2512314	This seems fine to me.	This seems fine to me.	119310900	1475193350912	1475193350993	BKSP	8
234740	2512314	This seems fine to me.	This seems fine to me.	119310903	1475193351605	1475193351648	BKSP	8
234740	2512314	This seems fine to me.	This seems fine to me.	119310907	1475193351954	1475193352034	o	79
234740	2512314	This seems fine to me.	This seems fine to me.	119310936	1475193352071	1475193352113	 	32
234740	2512314	This seems fine to me.	This seems fine to me.	119310939	1475193352150	1475193352234	m	77
234740	2512314	This seems fine to me.	This seems fine to me.	119310942	1475193352228	1475193352311	e	69
234740	2512314	This seems fine to me.	This seems fine to me.	119310948	1475193352501	1475193352596	.	190
234740	2512328	Look for this trend to continue when he faces the San Diego.	Look for this trend continue when ge faces the San Diego.	119311100	1475193355485	1475193355571	CAPS_LOCK	20
234740	2512328	Look for this trend to continue when he faces the San Diego.	Look for this trend continue when ge faces the San Diego.	119311102	1475193355574	1475193355661	L	76
234740	2512328	Look for this trend to continue when he faces the San Diego.	Look for this trend continue when ge faces the San Diego.	119311105	1475193355647	1475193355702	CAPS_LOCK	20
234740	2512328	Look for this trend to continue when he faces the San Diego.	Look for this trend continue when ge faces the San Diego.	119311108	1475193355738	1475193355802	o	79
234740	2512328	Look for this trend to continue when he faces the San Diego.	Look for this trend continue when ge faces the San Diego.	119311112	1475193355877	1475193355920	o	79
234740	2512328	Look for this trend to continue when he faces the San Diego.	Look for this trend continue when ge faces the San Diego.	119311116	1475193356039	1475193356133	k	75
234740	2512328	Look for this trend to continue when he faces the San Diego.	Look for this trend continue when ge faces the San Diego.	119311119	1475193356439	1475193356481	 	32
234740	2512328	Look for this trend to continue when he faces the San Diego.	Look for this trend continue when ge faces the San Diego.	119311134	1475193356670	1475193356751	f	70
234740	2512328	Look for this trend to continue when he faces the San Diego.	Look for this trend continue when ge faces the San Diego.	119311137	1475193356754	1475193356793	o	79
234740	2512328	Look for this trend to continue when he faces the San Diego.	Look for this trend continue when ge faces the San Diego.	119311142	1475193356829	1475193356911	r	82
234740	2512328	Look for this trend to continue when he faces the San Diego.	Look for this trend continue when ge faces the San Diego.	119311147	1475193356986	1475193357069	 	32
234740	2512328	Look for this trend to continue when he faces the San Diego.	Look for this trend continue when ge faces the San Diego.	119311254	1475193357064	1475193357261	h	72
234740	2512328	Look for this trend to continue when he faces the San Diego.	Look for this trend continue when ge faces the San Diego.	119311256	1475193357219	1475193357340	i	73
234740	2512328	Look for this trend to continue when he faces the San Diego.	Look for this trend continue when ge faces the San Diego.	119311258	1475193357377	1475193357459	s	83
234740	2512328	Look for this trend to continue when he faces the San Diego.	Look for this trend continue when ge faces the San Diego.	119311260	1475193357917	1475193357959	BKSP	8
234740	2512328	Look for this trend to continue when he faces the San Diego.	Look for this trend continue when ge faces the San Diego.	119311262	1475193358034	1475193358115	BKSP	8
234740	2512328	Look for this trend to continue when he faces the San Diego.	Look for this trend continue when ge faces the San Diego.	119311265	1475193358152	1475193358234	BKSP	8
234740	2512328	Look for this trend to continue when he faces the San Diego.	Look for this trend continue when ge faces the San Diego.	119311267	1475193359077	1475193359157	t	84
234740	2512328	Look for this trend to continue when he faces the San Diego.	Look for this trend continue when ge faces the San Diego.	119311269	1475193359160	1475193359237	h	72
234740	2512328	Look for this trend to continue when he faces the San Diego.	Look for this trend continue when ge faces the San Diego.	119311271	1475193359240	1475193359292	i	73
234740	2512328	Look for this trend to continue when he faces the San Diego.	Look for this trend continue when ge faces the San Diego.	119311311	1475193359367	1475193359447	s	83
234740	2512328	Look for this trend to continue when he faces the San Diego.	Look for this trend continue when ge faces the San Diego.	119311315	1475193359561	1475193359603	 	32
234740	2512328	Look for this trend to continue when he faces the San Diego.	Look for this trend continue when ge faces the San Diego.	119311320	1475193359947	1475193360065	t	84
234740	2512328	Look for this trend to continue when he faces the San Diego.	Look for this trend continue when ge faces the San Diego.	119311327	1475193360024	1475193360106	r	82
234740	2512328	Look for this trend to continue when he faces the San Diego.	Look for this trend continue when ge faces the San Diego.	119311331	1475193360220	1475193360300	e	69
234740	2512328	Look for this trend to continue when he faces the San Diego.	Look for this trend continue when ge faces the San Diego.	119311421	1475193361260	1475193361341	n	78
234740	2512328	Look for this trend to continue when he faces the San Diego.	Look for this trend continue when ge faces the San Diego.	119311423	1475193361378	1475193361420	d	68
234740	2512328	Look for this trend to continue when he faces the San Diego.	Look for this trend continue when ge faces the San Diego.	119311425	1475193361495	1475193361577	 	32
234740	2512328	Look for this trend to continue when he faces the San Diego.	Look for this trend continue when ge faces the San Diego.	119311427	1475193361767	1475193361886	o	79
234740	2512328	Look for this trend to continue when he faces the San Diego.	Look for this trend continue when ge faces the San Diego.	119311430	1475193362152	1475193362195	BKSP	8
234740	2512328	Look for this trend to continue when he faces the San Diego.	Look for this trend continue when ge faces the San Diego.	119311432	1475193362846	1475193362927	c	67
234740	2512328	Look for this trend to continue when he faces the San Diego.	Look for this trend continue when ge faces the San Diego.	119311469	1475193363055	1475193363213	o	79
234740	2512328	Look for this trend to continue when he faces the San Diego.	Look for this trend continue when ge faces the San Diego.	119311472	1475193363170	1475193363254	n	78
234740	2512328	Look for this trend to continue when he faces the San Diego.	Look for this trend continue when ge faces the San Diego.	119311475	1475193363330	1475193363372	t	84
234740	2512328	Look for this trend to continue when he faces the San Diego.	Look for this trend continue when ge faces the San Diego.	119311477	1475193363447	1475193363528	i	73
234740	2512328	Look for this trend to continue when he faces the San Diego.	Look for this trend continue when ge faces the San Diego.	119311479	1475193363564	1475193363645	n	78
234740	2512328	Look for this trend to continue when he faces the San Diego.	Look for this trend continue when ge faces the San Diego.	119311581	1475193363647	1475193363725	u	85
234740	2512328	Look for this trend to continue when he faces the San Diego.	Look for this trend continue when ge faces the San Diego.	119311584	1475193363838	1475193363919	e	69
234740	2512328	Look for this trend to continue when he faces the San Diego.	Look for this trend continue when ge faces the San Diego.	119311589	1475193366189	1475193366269	 	32
234740	2512328	Look for this trend to continue when he faces the San Diego.	Look for this trend continue when ge faces the San Diego.	119311592	1475193366387	1475193366434	w	87
234740	2512328	Look for this trend to continue when he faces the San Diego.	Look for this trend continue when ge faces the San Diego.	119311597	1475193366470	1475193366513	h	72
234740	2512328	Look for this trend to continue when he faces the San Diego.	Look for this trend continue when ge faces the San Diego.	119311645	1475193366550	1475193366630	e	69
234740	2512328	Look for this trend to continue when he faces the San Diego.	Look for this trend continue when ge faces the San Diego.	119311646	1475193366634	1475193366710	n	78
234740	2512328	Look for this trend to continue when he faces the San Diego.	Look for this trend continue when ge faces the San Diego.	119311648	1475193366805	1475193366885	 	32
234740	2512328	Look for this trend to continue when he faces the San Diego.	Look for this trend continue when ge faces the San Diego.	119311650	1475193367229	1475193367310	g	71
234740	2512328	Look for this trend to continue when he faces the San Diego.	Look for this trend continue when ge faces the San Diego.	119311653	1475193367385	1475193367504	e	69
234740	2512328	Look for this trend to continue when he faces the San Diego.	Look for this trend continue when ge faces the San Diego.	119311689	1475193367732	1475193367775	 	32
234740	2512328	Look for this trend to continue when he faces the San Diego.	Look for this trend continue when ge faces the San Diego.	119311693	1475193368041	1475193368084	f	70
234740	2512328	Look for this trend to continue when he faces the San Diego.	Look for this trend continue when ge faces the San Diego.	119311697	1475193368121	1475193368202	a	65
234740	2512328	Look for this trend to continue when he faces the San Diego.	Look for this trend continue when ge faces the San Diego.	119311700	1475193368277	1475193368398	c	67
234740	2512328	Look for this trend to continue when he faces the San Diego.	Look for this trend continue when ge faces the San Diego.	119311703	1475193368399	1475193368476	e	69
234740	2512328	Look for this trend to continue when he faces the San Diego.	Look for this trend continue when ge faces the San Diego.	119311749	1475193368594	1475193368670	s	83
234740	2512328	Look for this trend to continue when he faces the San Diego.	Look for this trend continue when ge faces the San Diego.	119311751	1475193369090	1475193369171	 	32
234740	2512328	Look for this trend to continue when he faces the San Diego.	Look for this trend continue when ge faces the San Diego.	119311754	1475193369284	1475193369365	t	84
234740	2512328	Look for this trend to continue when he faces the San Diego.	Look for this trend continue when ge faces the San Diego.	119311756	1475193369368	1475193369406	h	72
234740	2512328	Look for this trend to continue when he faces the San Diego.	Look for this trend continue when ge faces the San Diego.	119311758	1475193369449	1475193369530	e	69
234740	2512328	Look for this trend to continue when he faces the San Diego.	Look for this trend continue when ge faces the San Diego.	119311805	1475193369605	1475193369686	 	32
234740	2512328	Look for this trend to continue when he faces the San Diego.	Look for this trend continue when ge faces the San Diego.	119311807	1475193369800	1475193369848	CAPS_LOCK	20
234740	2512328	Look for this trend to continue when he faces the San Diego.	Look for this trend continue when ge faces the San Diego.	119311810	1475193370270	1475193370352	S	83
234740	2512328	Look for this trend to continue when he faces the San Diego.	Look for this trend continue when ge faces the San Diego.	119311815	1475193370427	1475193370514	CAPS_LOCK	20
234740	2512328	Look for this trend to continue when he faces the San Diego.	Look for this trend continue when ge faces the San Diego.	119311818	1475193370627	1475193370708	a	65
234740	2512328	Look for this trend to continue when he faces the San Diego.	Look for this trend continue when ge faces the San Diego.	119311824	1475193370745	1475193370826	n	78
234740	2512328	Look for this trend to continue when he faces the San Diego.	Look for this trend continue when ge faces the San Diego.	119311827	1475193370863	1475193370944	s	83
234740	2512328	Look for this trend to continue when he faces the San Diego.	Look for this trend continue when ge faces the San Diego.	119311919	1475193371749	1475193371830	BKSP	8
234740	2512328	Look for this trend to continue when he faces the San Diego.	Look for this trend continue when ge faces the San Diego.	119311922	1475193371982	1475193372025	 	32
234740	2512328	Look for this trend to continue when he faces the San Diego.	Look for this trend continue when ge faces the San Diego.	119311925	1475193372253	1475193372301	CAPS_LOCK	20
234740	2512328	Look for this trend to continue when he faces the San Diego.	Look for this trend continue when ge faces the San Diego.	119311926	1475193372415	1475193372464	CAPS_LOCK	20
234740	2512328	Look for this trend to continue when he faces the San Diego.	Look for this trend continue when ge faces the San Diego.	119311927	1475193372544	1475193372627	i	73
234740	2512328	Look for this trend to continue when he faces the San Diego.	Look for this trend continue when ge faces the San Diego.	119311928	1475193372701	1475193372783	e	69
234740	2512328	Look for this trend to continue when he faces the San Diego.	Look for this trend continue when ge faces the San Diego.	119311929	1475193372940	1475193373021	g	71
234740	2512328	Look for this trend to continue when he faces the San Diego.	Look for this trend continue when ge faces the San Diego.	119311931	1475193373024	1475193373139	o	79
234740	2512328	Look for this trend to continue when he faces the San Diego.	Look for this trend continue when ge faces the San Diego.	119312023	1475193373521	1475193373565	BKSP	8
234740	2512328	Look for this trend to continue when he faces the San Diego.	Look for this trend continue when ge faces the San Diego.	119312024	1475193373639	1475193373721	BKSP	8
234740	2512328	Look for this trend to continue when he faces the San Diego.	Look for this trend continue when ge faces the San Diego.	119312025	1475193373795	1475193373876	BKSP	8
234740	2512328	Look for this trend to continue when he faces the San Diego.	Look for this trend continue when ge faces the San Diego.	119312027	1475193373912	1475193373993	BKSP	8
234740	2512328	Look for this trend to continue when he faces the San Diego.	Look for this trend continue when ge faces the San Diego.	119312030	1475193374953	1475193375002	CAPS_LOCK	20
234740	2512328	Look for this trend to continue when he faces the San Diego.	Look for this trend continue when ge faces the San Diego.	119312034	1475193375039	1475193375081	D	68
234740	2512328	Look for this trend to continue when he faces the San Diego.	Look for this trend continue when ge faces the San Diego.	119312038	1475193375119	1475193375166	CAPS_LOCK	20
234740	2512328	Look for this trend to continue when he faces the San Diego.	Look for this trend continue when ge faces the San Diego.	119312043	1475193375286	1475193375368	i	73
234740	2512328	Look for this trend to continue when he faces the San Diego.	Look for this trend continue when ge faces the San Diego.	119312046	1475193375443	1475193375491	e	69
234740	2512328	Look for this trend to continue when he faces the San Diego.	Look for this trend continue when ge faces the San Diego.	119312048	1475193375642	1475193375685	g	71
234740	2512328	Look for this trend to continue when he faces the San Diego.	Look for this trend continue when ge faces the San Diego.	119312050	1475193375875	1475193375995	g	71
234740	2512328	Look for this trend to continue when he faces the San Diego.	Look for this trend continue when ge faces the San Diego.	119312145	1475193376031	1475193376074	o	79
234740	2512328	Look for this trend to continue when he faces the San Diego.	Look for this trend continue when ge faces the San Diego.	119312146	1475193376264	1475193376385	.	190
234740	2512328	Look for this trend to continue when he faces the San Diego.	Look for this trend continue when ge faces the San Diego.	119312148	1475193377035	1475193377078	BKSP	8
234740	2512328	Look for this trend to continue when he faces the San Diego.	Look for this trend continue when ge faces the San Diego.	119312153	1475193377154	1475193377234	BKSP	8
234740	2512328	Look for this trend to continue when he faces the San Diego.	Look for this trend continue when ge faces the San Diego.	119312157	1475193377271	1475193377352	BKSP	8
234740	2512328	Look for this trend to continue when he faces the San Diego.	Look for this trend continue when ge faces the San Diego.	119312160	1475193378273	1475193378354	o	79
234740	2512328	Look for this trend to continue when he faces the San Diego.	Look for this trend continue when ge faces the San Diego.	119312164	1475193378467	1475193378549	.	190
234740	2512351	Hopefully it cheered you up a bit.	Hopefull it cheered you up a bit.	119312329	1475193381053	1475193381101	CAPS_LOCK	20
234740	2512351	Hopefully it cheered you up a bit.	Hopefull it cheered you up a bit.	119312332	1475193381104	1475193381191	H	72
234740	2512351	Hopefully it cheered you up a bit.	Hopefull it cheered you up a bit.	119312335	1475193381178	1475193381267	CAPS_LOCK	20
234740	2512351	Hopefully it cheered you up a bit.	Hopefull it cheered you up a bit.	119312338	1475193381424	1475193381588	o	79
234740	2512351	Hopefully it cheered you up a bit.	Hopefull it cheered you up a bit.	119312340	1475193381540	1475193381744	p	80
234740	2512351	Hopefully it cheered you up a bit.	Hopefull it cheered you up a bit.	119312342	1475193381819	1475193381862	e	69
234740	2512351	Hopefully it cheered you up a bit.	Hopefull it cheered you up a bit.	119312345	1475193382860	1475193382941	f	70
234740	2512351	Hopefully it cheered you up a bit.	Hopefull it cheered you up a bit.	119312391	1475193383054	1475193383135	u	85
234740	2512351	Hopefully it cheered you up a bit.	Hopefull it cheered you up a bit.	119312393	1475193383172	1475193383214	l	76
234740	2512351	Hopefully it cheered you up a bit.	Hopefull it cheered you up a bit.	119312396	1475193383289	1475193383371	l	76
234740	2512351	Hopefully it cheered you up a bit.	Hopefull it cheered you up a bit.	119312398	1475193383887	1475193383949	 	32
234740	2512351	Hopefully it cheered you up a bit.	Hopefull it cheered you up a bit.	119312400	1475193384138	1475193384222	i	73
234740	2512351	Hopefully it cheered you up a bit.	Hopefull it cheered you up a bit.	119312445	1475193384216	1475193384299	t	84
234740	2512351	Hopefully it cheered you up a bit.	Hopefull it cheered you up a bit.	119312446	1475193384412	1475193384494	 	32
234740	2512351	Hopefully it cheered you up a bit.	Hopefull it cheered you up a bit.	119312447	1475193385074	1475193385155	c	67
234740	2512351	Hopefully it cheered you up a bit.	Hopefull it cheered you up a bit.	119312448	1475193385230	1475193385311	h	72
234740	2512351	Hopefully it cheered you up a bit.	Hopefull it cheered you up a bit.	119312449	1475193385348	1475193385390	e	69
234740	2512351	Hopefully it cheered you up a bit.	Hopefull it cheered you up a bit.	119312450	1475193385465	1475193385547	e	69
234740	2512351	Hopefully it cheered you up a bit.	Hopefull it cheered you up a bit.	119312492	1475193385737	1475193385856	r	82
234740	2512351	Hopefully it cheered you up a bit.	Hopefull it cheered you up a bit.	119312494	1475193385969	1475193386050	e	69
234740	2512351	Hopefully it cheered you up a bit.	Hopefull it cheered you up a bit.	119312496	1475193386125	1475193386206	d	68
234740	2512351	Hopefully it cheered you up a bit.	Hopefull it cheered you up a bit.	119312500	1475193386358	1475193386401	 	32
234740	2512351	Hopefully it cheered you up a bit.	Hopefull it cheered you up a bit.	119312505	1475193386514	1475193386596	y	89
234740	2512351	Hopefully it cheered you up a bit.	Hopefull it cheered you up a bit.	119312554	1475193386554	1475193386676	o	79
234740	2512351	Hopefully it cheered you up a bit.	Hopefull it cheered you up a bit.	119312559	1475193386633	1475193386716	u	85
234740	2512351	Hopefully it cheered you up a bit.	Hopefull it cheered you up a bit.	119312562	1475193386791	1475193386872	 	32
234740	2512351	Hopefully it cheered you up a bit.	Hopefull it cheered you up a bit.	119312569	1475193386908	1475193387104	i	73
234740	2512351	Hopefully it cheered you up a bit.	Hopefull it cheered you up a bit.	119312575	1475193387602	1475193387683	BKSP	8
234740	2512351	Hopefully it cheered you up a bit.	Hopefull it cheered you up a bit.	119312579	1475193388103	1475193388156	u	85
234740	2512351	Hopefully it cheered you up a bit.	Hopefull it cheered you up a bit.	119312582	1475193388193	1475193388274	p	80
234740	2512351	Hopefully it cheered you up a bit.	Hopefull it cheered you up a bit.	119312624	1475193388771	1475193388814	 	32
234740	2512351	Hopefully it cheered you up a bit.	Hopefull it cheered you up a bit.	119312629	1475193388966	1475193389008	a	65
234740	2512351	Hopefully it cheered you up a bit.	Hopefull it cheered you up a bit.	119312635	1475193389083	1475193389164	 	32
234740	2512351	Hopefully it cheered you up a bit.	Hopefull it cheered you up a bit.	119312640	1475193389317	1475193389359	b	66
234740	2512351	Hopefully it cheered you up a bit.	Hopefull it cheered you up a bit.	119312642	1475193389395	1475193389479	i	73
234740	2512351	Hopefully it cheered you up a bit.	Hopefull it cheered you up a bit.	119312664	1475193389473	1475193389556	t	84
234740	2512351	Hopefully it cheered you up a bit.	Hopefull it cheered you up a bit.	119312666	1475193389631	1475193389789	.	190
234740	2512363	Thanks, I think we have taken care of this.	Thanks, I think we have taken care of this.	119312731	1475193391984	1475193392032	CAPS_LOCK	20
234740	2512363	Thanks, I think we have taken care of this.	Thanks, I think we have taken care of this.	119312732	1475193392069	1475193392112	T	84
234740	2512363	Thanks, I think we have taken care of this.	Thanks, I think we have taken care of this.	119312734	1475193392149	1475193392234	CAPS_LOCK	20
234740	2512363	Thanks, I think we have taken care of this.	Thanks, I think we have taken care of this.	119312736	1475193392237	1475193392276	h	72
234740	2512363	Thanks, I think we have taken care of this.	Thanks, I think we have taken care of this.	119312738	1475193392351	1475193392432	a	65
234740	2512363	Thanks, I think we have taken care of this.	Thanks, I think we have taken care of this.	119312741	1475193392435	1475193392589	n	78
234740	2512363	Thanks, I think we have taken care of this.	Thanks, I think we have taken care of this.	119312775	1475193392546	1475193392636	k	75
234740	2512363	Thanks, I think we have taken care of this.	Thanks, I think we have taken care of this.	119312776	1475193392630	1475193392713	s	83
234740	2512363	Thanks, I think we have taken care of this.	Thanks, I think we have taken care of this.	119312778	1475193392826	1475193392946	,	188
234740	2512363	Thanks, I think we have taken care of this.	Thanks, I think we have taken care of this.	119312780	1475193393040	1475193393121	 	32
234740	2512363	Thanks, I think we have taken care of this.	Thanks, I think we have taken care of this.	119312782	1475193393273	1475193393320	CAPS_LOCK	20
234740	2512363	Thanks, I think we have taken care of this.	Thanks, I think we have taken care of this.	119312784	1475193393323	1475193393401	I	73
234740	2512363	Thanks, I think we have taken care of this.	Thanks, I think we have taken care of this.	119312785	1475193393438	1475193393486	CAPS_LOCK	20
234740	2512363	Thanks, I think we have taken care of this.	Thanks, I think we have taken care of this.	119312786	1475193393566	1475193393648	 	32
234740	2512363	Thanks, I think we have taken care of this.	Thanks, I think we have taken care of this.	119312787	1475193393768	1475193393849	t	84
234740	2512363	Thanks, I think we have taken care of this.	Thanks, I think we have taken care of this.	119312788	1475193393806	1475193393889	h	72
234740	2512363	Thanks, I think we have taken care of this.	Thanks, I think we have taken care of this.	119312789	1475193393892	1475193393969	i	73
234740	2512363	Thanks, I think we have taken care of this.	Thanks, I think we have taken care of this.	119312790	1475193394005	1475193394086	n	78
234740	2512363	Thanks, I think we have taken care of this.	Thanks, I think we have taken care of this.	119312791	1475193394089	1475193394166	k	75
234740	2512363	Thanks, I think we have taken care of this.	Thanks, I think we have taken care of this.	119312825	1475193394703	1475193394784	 	32
234740	2512363	Thanks, I think we have taken care of this.	Thanks, I think we have taken care of this.	119312827	1475193394896	1475193395016	w	87
234740	2512363	Thanks, I think we have taken care of this.	Thanks, I think we have taken care of this.	119312830	1475193394973	1475193395057	e	69
234740	2512363	Thanks, I think we have taken care of this.	Thanks, I think we have taken care of this.	119312835	1475193395170	1475193395252	 	32
234740	2512363	Thanks, I think we have taken care of this.	Thanks, I think we have taken care of this.	119312836	1475193395288	1475193395333	h	72
234740	2512363	Thanks, I think we have taken care of this.	Thanks, I think we have taken care of this.	119312870	1475193395327	1475193395410	a	65
234740	2512363	Thanks, I think we have taken care of this.	Thanks, I think we have taken care of this.	119312872	1475193395485	1475193395643	v	86
234740	2512363	Thanks, I think we have taken care of this.	Thanks, I think we have taken care of this.	119312873	1475193395600	1475193395684	e	69
234740	2512363	Thanks, I think we have taken care of this.	Thanks, I think we have taken care of this.	119312874	1475193395797	1475193395878	 	32
234740	2512363	Thanks, I think we have taken care of this.	Thanks, I think we have taken care of this.	119312875	1475193395991	1475193396073	t	84
234740	2512363	Thanks, I think we have taken care of this.	Thanks, I think we have taken care of this.	119312877	1475193396224	1475193396306	a	65
234740	2512363	Thanks, I think we have taken care of this.	Thanks, I think we have taken care of this.	119312899	1475193396263	1475193396346	k	75
234740	2512363	Thanks, I think we have taken care of this.	Thanks, I think we have taken care of this.	119312900	1475193396384	1475193396465	e	69
234740	2512363	Thanks, I think we have taken care of this.	Thanks, I think we have taken care of this.	119312902	1475193396466	1475193396543	n	78
234740	2512363	Thanks, I think we have taken care of this.	Thanks, I think we have taken care of this.	119312904	1475193396695	1475193396738	 	32
234740	2512363	Thanks, I think we have taken care of this.	Thanks, I think we have taken care of this.	119312908	1475193396857	1475193397016	c	67
234740	2512363	Thanks, I think we have taken care of this.	Thanks, I think we have taken care of this.	119312926	1475193396974	1475193397056	a	65
234740	2512363	Thanks, I think we have taken care of this.	Thanks, I think we have taken care of this.	119312930	1475193397170	1475193397290	r	82
234740	2512363	Thanks, I think we have taken care of this.	Thanks, I think we have taken care of this.	119312933	1475193397247	1475193397368	e	69
234740	2512363	Thanks, I think we have taken care of this.	Thanks, I think we have taken care of this.	119312935	1475193397443	1475193397563	 	32
234740	2512363	Thanks, I think we have taken care of this.	Thanks, I think we have taken care of this.	119312938	1475193397600	1475193397644	o	79
234740	2512363	Thanks, I think we have taken care of this.	Thanks, I think we have taken care of this.	119312941	1475193397679	1475193397722	f	70
234740	2512363	Thanks, I think we have taken care of this.	Thanks, I think we have taken care of this.	119312978	1475193398604	1475193398647	 	32
234740	2512363	Thanks, I think we have taken care of this.	Thanks, I think we have taken care of this.	119312981	1475193398730	1475193398811	t	84
234740	2512363	Thanks, I think we have taken care of this.	Thanks, I think we have taken care of this.	119312984	1475193398814	1475193398891	h	72
234740	2512363	Thanks, I think we have taken care of this.	Thanks, I think we have taken care of this.	119312987	1475193399042	1475193399123	s	83
234740	2512363	Thanks, I think we have taken care of this.	Thanks, I think we have taken care of this.	119312988	1475193399238	1475193399369	i	73
234740	2512363	Thanks, I think we have taken care of this.	Thanks, I think we have taken care of this.	119313092	1475193400097	1475193400140	BKSP	8
234740	2512363	Thanks, I think we have taken care of this.	Thanks, I think we have taken care of this.	119313094	1475193400215	1475193400258	BKSP	8
234740	2512363	Thanks, I think we have taken care of this.	Thanks, I think we have taken care of this.	119313095	1475193401525	1475193401568	i	73
234740	2512363	Thanks, I think we have taken care of this.	Thanks, I think we have taken care of this.	119313097	1475193401644	1475193401724	s	83
234740	2512363	Thanks, I think we have taken care of this.	Thanks, I think we have taken care of this.	119313100	1475193401914	1475193401995	.	190
234740	2512375	In his third season, Booker has become a superb Fantasy wideout.	In his third season, Booker has become a superb Fantasy wideout.	119313166	1475193404218	1475193404265	CAPS_LOCK	20
234740	2512375	In his third season, Booker has become a superb Fantasy wideout.	In his third season, Booker has become a superb Fantasy wideout.	119313168	1475193404269	1475193404356	I	73
234740	2512375	In his third season, Booker has become a superb Fantasy wideout.	In his third season, Booker has become a superb Fantasy wideout.	119313170	1475193404345	1475193404431	CAPS_LOCK	20
234740	2512375	In his third season, Booker has become a superb Fantasy wideout.	In his third season, Booker has become a superb Fantasy wideout.	119313171	1475193404467	1475193404554	n	78
234740	2512375	In his third season, Booker has become a superb Fantasy wideout.	In his third season, Booker has become a superb Fantasy wideout.	119313172	1475193404558	1475193404634	 	32
234740	2512375	In his third season, Booker has become a superb Fantasy wideout.	In his third season, Booker has become a superb Fantasy wideout.	119313173	1475193404715	1475193404873	h	72
234740	2512375	In his third season, Booker has become a superb Fantasy wideout.	In his third season, Booker has become a superb Fantasy wideout.	119313207	1475193404831	1475193404955	i	73
234740	2512375	In his third season, Booker has become a superb Fantasy wideout.	In his third season, Booker has become a superb Fantasy wideout.	119313208	1475193404948	1475193405031	s	83
234740	2512375	In his third season, Booker has become a superb Fantasy wideout.	In his third season, Booker has become a superb Fantasy wideout.	119313212	1475193405222	1475193405303	 	32
234740	2512375	In his third season, Booker has become a superb Fantasy wideout.	In his third season, Booker has become a superb Fantasy wideout.	119313215	1475193405454	1475193405535	t	84
234740	2512375	In his third season, Booker has become a superb Fantasy wideout.	In his third season, Booker has become a superb Fantasy wideout.	119313218	1475193405538	1475193405614	h	72
234740	2512375	In his third season, Booker has become a superb Fantasy wideout.	In his third season, Booker has become a superb Fantasy wideout.	119313220	1475193405617	1475193405669	i	73
234740	2512375	In his third season, Booker has become a superb Fantasy wideout.	In his third season, Booker has become a superb Fantasy wideout.	119313246	1475193405821	1475193405871	r	82
234740	2512375	In his third season, Booker has become a superb Fantasy wideout.	In his third season, Booker has become a superb Fantasy wideout.	119313248	1475193405985	1475193406066	d	68
234740	2512375	In his third season, Booker has become a superb Fantasy wideout.	In his third season, Booker has become a superb Fantasy wideout.	119313251	1475193406141	1475193406184	 	32
234740	2512375	In his third season, Booker has become a superb Fantasy wideout.	In his third season, Booker has become a superb Fantasy wideout.	119313255	1475193406297	1475193406378	s	83
234740	2512375	In his third season, Booker has become a superb Fantasy wideout.	In his third season, Booker has become a superb Fantasy wideout.	119313261	1475193406415	1475193406496	e	69
234740	2512375	In his third season, Booker has become a superb Fantasy wideout.	In his third season, Booker has become a superb Fantasy wideout.	119313335	1475193406609	1475193406656	s	83
234740	2512375	In his third season, Booker has become a superb Fantasy wideout.	In his third season, Booker has become a superb Fantasy wideout.	119313336	1475193406731	1475193406812	s	83
234740	2512375	In his third season, Booker has become a superb Fantasy wideout.	In his third season, Booker has become a superb Fantasy wideout.	119313337	1475193406926	1475193407045	i	73
234740	2512375	In his third season, Booker has become a superb Fantasy wideout.	In his third season, Booker has become a superb Fantasy wideout.	119313338	1475193407008	1475193407124	o	79
234740	2512375	In his third season, Booker has become a superb Fantasy wideout.	In his third season, Booker has become a superb Fantasy wideout.	119313339	1475193407353	1475193407396	BKSP	8
234740	2512375	In his third season, Booker has become a superb Fantasy wideout.	In his third season, Booker has become a superb Fantasy wideout.	119313342	1475193407471	1475193407551	BKSP	8
234740	2512375	In his third season, Booker has become a superb Fantasy wideout.	In his third season, Booker has become a superb Fantasy wideout.	119313347	1475193407588	1475193407669	BKSP	8
234740	2512375	In his third season, Booker has become a superb Fantasy wideout.	In his third season, Booker has become a superb Fantasy wideout.	119313355	1475193408205	1475193408247	BKSP	8
234740	2512375	In his third season, Booker has become a superb Fantasy wideout.	In his third season, Booker has become a superb Fantasy wideout.	119313362	1475193408399	1475193408519	a	65
234740	2512375	In his third season, Booker has become a superb Fantasy wideout.	In his third season, Booker has become a superb Fantasy wideout.	119313455	1475193408476	1475193408559	s	83
234740	2512375	In his third season, Booker has become a superb Fantasy wideout.	In his third season, Booker has become a superb Fantasy wideout.	119313458	1475193408634	1475193408678	o	73
234740	2512375	In his third season, Booker has become a superb Fantasy wideout.	In his third season, Booker has become a superb Fantasy wideout.	119313461	1475193408794	1475193408913	o	79
234740	2512375	In his third season, Booker has become a superb Fantasy wideout.	In his third season, Booker has become a superb Fantasy wideout.	119313464	1475193408870	1475193408993	n	78
234740	2512375	In his third season, Booker has become a superb Fantasy wideout.	In his third season, Booker has become a superb Fantasy wideout.	119313467	1475193409259	1475193409301	BKSP	8
234740	2512375	In his third season, Booker has become a superb Fantasy wideout.	In his third season, Booker has become a superb Fantasy wideout.	119313470	1475193409376	1475193409419	BKSP	8
234740	2512375	In his third season, Booker has become a superb Fantasy wideout.	In his third season, Booker has become a superb Fantasy wideout.	119313474	1475193409494	1475193409575	BKSP	8
234740	2512375	In his third season, Booker has become a superb Fantasy wideout.	In his third season, Booker has become a superb Fantasy wideout.	119313478	1475193409650	1475193409731	BKSP	8
234740	2512375	In his third season, Booker has become a superb Fantasy wideout.	In his third season, Booker has become a superb Fantasy wideout.	119313481	1475193410614	1475193410656	o	79
234740	2512375	In his third season, Booker has become a superb Fantasy wideout.	In his third season, Booker has become a superb Fantasy wideout.	119313567	1475193411038	1475193411081	n	78
234740	2512375	In his third season, Booker has become a superb Fantasy wideout.	In his third season, Booker has become a superb Fantasy wideout.	119313569	1475193411770	1475193411851	,	188
234740	2512375	In his third season, Booker has become a superb Fantasy wideout.	In his third season, Booker has become a superb Fantasy wideout.	119313571	1475193411927	1475193412007	 	32
234740	2512375	In his third season, Booker has become a superb Fantasy wideout.	In his third season, Booker has become a superb Fantasy wideout.	119313572	1475193412466	1475193412553	CAPS_LOCK	20
234740	2512375	In his third season, Booker has become a superb Fantasy wideout.	In his third season, Booker has become a superb Fantasy wideout.	119313573	1475193412510	1475193412594	B	66
234740	2512375	In his third season, Booker has become a superb Fantasy wideout.	In his third season, Booker has become a superb Fantasy wideout.	119313574	1475193412631	1475193412718	CAPS_LOCK	20
234740	2512375	In his third season, Booker has become a superb Fantasy wideout.	In his third season, Booker has become a superb Fantasy wideout.	119313575	1475193413022	1475193413103	o	79
234740	2512375	In his third season, Booker has become a superb Fantasy wideout.	In his third season, Booker has become a superb Fantasy wideout.	119313609	1475193413179	1475193413221	o	79
234740	2512375	In his third season, Booker has become a superb Fantasy wideout.	In his third season, Booker has become a superb Fantasy wideout.	119313610	1475193413335	1475193413378	k	75
234740	2512375	In his third season, Booker has become a superb Fantasy wideout.	In his third season, Booker has become a superb Fantasy wideout.	119313611	1475193413491	1475193413572	e	69
234740	2512375	In his third season, Booker has become a superb Fantasy wideout.	In his third season, Booker has become a superb Fantasy wideout.	119313612	1475193413529	1475193413690	r	82
234740	2512375	In his third season, Booker has become a superb Fantasy wideout.	In his third season, Booker has become a superb Fantasy wideout.	119313613	1475193414264	1475193414307	 	32
234740	2512375	In his third season, Booker has become a superb Fantasy wideout.	In his third season, Booker has become a superb Fantasy wideout.	119313628	1475193414459	1475193414501	h	72
234740	2512375	In his third season, Booker has become a superb Fantasy wideout.	In his third season, Booker has become a superb Fantasy wideout.	119313630	1475193414576	1475193414662	a	65
234740	2512375	In his third season, Booker has become a superb Fantasy wideout.	In his third season, Booker has become a superb Fantasy wideout.	119313631	1475193414620	1475193414741	s	83
234740	2512375	In his third season, Booker has become a superb Fantasy wideout.	In his third season, Booker has become a superb Fantasy wideout.	119313633	1475193414816	1475193414898	 	32
234740	2512375	In his third season, Booker has become a superb Fantasy wideout.	In his third season, Booker has become a superb Fantasy wideout.	119313635	1475193414937	1475193415015	b	66
234740	2512375	In his third season, Booker has become a superb Fantasy wideout.	In his third season, Booker has become a superb Fantasy wideout.	119313645	1475193415052	1475193415094	e	69
234740	2512375	In his third season, Booker has become a superb Fantasy wideout.	In his third season, Booker has become a superb Fantasy wideout.	119313647	1475193415208	1475193415295	c	67
234740	2512375	In his third season, Booker has become a superb Fantasy wideout.	In his third season, Booker has become a superb Fantasy wideout.	119313650	1475193415370	1475193415528	o	79
234740	2512375	In his third season, Booker has become a superb Fantasy wideout.	In his third season, Booker has become a superb Fantasy wideout.	119313653	1475193415486	1475193415568	m	77
234740	2512375	In his third season, Booker has become a superb Fantasy wideout.	In his third season, Booker has become a superb Fantasy wideout.	119313657	1475193415605	1475193415649	e	69
234740	2512375	In his third season, Booker has become a superb Fantasy wideout.	In his third season, Booker has become a superb Fantasy wideout.	119313697	1475193416222	1475193416265	 	32
234740	2512375	In his third season, Booker has become a superb Fantasy wideout.	In his third season, Booker has become a superb Fantasy wideout.	119313699	1475193416416	1475193416461	a	65
234740	2512375	In his third season, Booker has become a superb Fantasy wideout.	In his third season, Booker has become a superb Fantasy wideout.	119313700	1475193416575	1475193416656	 	32
234740	2512375	In his third season, Booker has become a superb Fantasy wideout.	In his third season, Booker has become a superb Fantasy wideout.	119313701	1475193416730	1475193416811	s	83
234740	2512375	In his third season, Booker has become a superb Fantasy wideout.	In his third season, Booker has become a superb Fantasy wideout.	119313702	1475193416848	1475193416929	u	85
234740	2512375	In his third season, Booker has become a superb Fantasy wideout.	In his third season, Booker has become a superb Fantasy wideout.	119313743	1475193417081	1475193417162	p	80
234740	2512375	In his third season, Booker has become a superb Fantasy wideout.	In his third season, Booker has become a superb Fantasy wideout.	119313746	1475193417275	1475193417357	e	69
234740	2512375	In his third season, Booker has become a superb Fantasy wideout.	In his third season, Booker has become a superb Fantasy wideout.	119313755	1475193417314	1475193417436	r	82
234740	2512375	In his third season, Booker has become a superb Fantasy wideout.	In his third season, Booker has become a superb Fantasy wideout.	119313760	1475193417511	1475193417592	b	66
234740	2512375	In his third season, Booker has become a superb Fantasy wideout.	In his third season, Booker has become a superb Fantasy wideout.	119313765	1475193418205	1475193418286	 	32
234740	2512375	In his third season, Booker has become a superb Fantasy wideout.	In his third season, Booker has become a superb Fantasy wideout.	119313821	1475193418590	1475193418644	CAPS_LOCK	20
234740	2512375	In his third season, Booker has become a superb Fantasy wideout.	In his third season, Booker has become a superb Fantasy wideout.	119313822	1475193418680	1475193418723	F	70
234740	2512375	In his third season, Booker has become a superb Fantasy wideout.	In his third season, Booker has become a superb Fantasy wideout.	119313825	1475193418760	1475193418808	CAPS_LOCK	20
234740	2512375	In his third season, Booker has become a superb Fantasy wideout.	In his third season, Booker has become a superb Fantasy wideout.	119313829	1475193418921	1475193419008	a	65
234740	2512375	In his third season, Booker has become a superb Fantasy wideout.	In his third season, Booker has become a superb Fantasy wideout.	119313832	1475193419011	1475193419093	n	78
234740	2512375	In his third season, Booker has become a superb Fantasy wideout.	In his third season, Booker has become a superb Fantasy wideout.	119313835	1475193419245	1475193419288	t	84
234740	2512375	In his third season, Booker has become a superb Fantasy wideout.	In his third season, Booker has become a superb Fantasy wideout.	119313838	1475193419327	1475193419446	a	65
234740	2512375	In his third season, Booker has become a superb Fantasy wideout.	In his third season, Booker has become a superb Fantasy wideout.	119313916	1475193419404	1475193419487	s	83
234740	2512375	In his third season, Booker has become a superb Fantasy wideout.	In his third season, Booker has become a superb Fantasy wideout.	119313920	1475193419831	1475193419911	y	89
234740	2512375	In his third season, Booker has become a superb Fantasy wideout.	In his third season, Booker has become a superb Fantasy wideout.	119313926	1475193420755	1475193420836	 	32
234740	2512375	In his third season, Booker has become a superb Fantasy wideout.	In his third season, Booker has become a superb Fantasy wideout.	119313928	1475193420988	1475193421069	w	87
234740	2512375	In his third season, Booker has become a superb Fantasy wideout.	In his third season, Booker has become a superb Fantasy wideout.	119313932	1475193421144	1475193421200	i	73
234740	2512375	In his third season, Booker has become a superb Fantasy wideout.	In his third season, Booker has become a superb Fantasy wideout.	119313936	1475193421313	1475193421356	d	68
234740	2512375	In his third season, Booker has become a superb Fantasy wideout.	In his third season, Booker has become a superb Fantasy wideout.	119313992	1475193421431	1475193421512	e	69
234740	2512375	In his third season, Booker has become a superb Fantasy wideout.	In his third season, Booker has become a superb Fantasy wideout.	119313995	1475193421664	1475193421783	o	79
234740	2512375	In his third season, Booker has become a superb Fantasy wideout.	In his third season, Booker has become a superb Fantasy wideout.	119313998	1475193421740	1475193421837	u	85
234740	2512375	In his third season, Booker has become a superb Fantasy wideout.	In his third season, Booker has become a superb Fantasy wideout.	119314001	1475193421831	1475193421952	t	84
234740	2512375	In his third season, Booker has become a superb Fantasy wideout.	In his third season, Booker has become a superb Fantasy wideout.	119314004	1475193422873	1475193422954	.	190
