PARTICIPANT_ID	TEST_SECTION_ID	SENTENCE	USER_INPUT	KEYSTROKE_ID	PRESS_TIME	RELEASE_TIME	LETTER	KEYCODE
235155	2516805	Maybe traffic will be light on Thursday.	Maybe traffic will be light on Thursday.	119522706	1475198339059	1475198340349	CTRL	17
235155	2516805	Maybe traffic will be light on Thursday.	Maybe traffic will be light on Thursday.	119522709	1475198342089	1475198342383	SHIFT	16
235155	2516805	Maybe traffic will be light on Thursday.	Maybe traffic will be light on Thursday.	119522713	1475198342279	1475198342399	M	77
235155	2516805	Maybe traffic will be light on Thursday.	Maybe traffic will be light on Thursday.	119522717	1475198342491	1475198342612	a	65
235155	2516805	Maybe traffic will be light on Thursday.	Maybe traffic will be light on Thursday.	119522719	1475198342585	1475198342652	y	89
235155	2516805	Maybe traffic will be light on Thursday.	Maybe traffic will be light on Thursday.	119522721	1475198342824	1475198342993	b	66
235155	2516805	Maybe traffic will be light on Thursday.	Maybe traffic will be light on Thursday.	119522758	1475198342986	1475198343112	e	69
235155	2516805	Maybe traffic will be light on Thursday.	Maybe traffic will be light on Thursday.	119522761	1475198343154	1475198343310	 	32
235155	2516805	Maybe traffic will be light on Thursday.	Maybe traffic will be light on Thursday.	119522765	1475198343263	1475198343360	t	84
235155	2516805	Maybe traffic will be light on Thursday.	Maybe traffic will be light on Thursday.	119522769	1475198343438	1475198343542	r	82
235155	2516805	Maybe traffic will be light on Thursday.	Maybe traffic will be light on Thursday.	119522776	1475198343488	1475198343680	a	65
235155	2516805	Maybe traffic will be light on Thursday.	Maybe traffic will be light on Thursday.	119522807	1475198343640	1475198343740	f	70
235155	2516805	Maybe traffic will be light on Thursday.	Maybe traffic will be light on Thursday.	119522813	1475198343811	1475198343915	f	70
235155	2516805	Maybe traffic will be light on Thursday.	Maybe traffic will be light on Thursday.	119522819	1475198343916	1475198344027	i	73
235155	2516805	Maybe traffic will be light on Thursday.	Maybe traffic will be light on Thursday.	119522823	1475198344040	1475198344140	c	67
235155	2516805	Maybe traffic will be light on Thursday.	Maybe traffic will be light on Thursday.	119522828	1475198344127	1475198344264	 	32
235155	2516805	Maybe traffic will be light on Thursday.	Maybe traffic will be light on Thursday.	119522849	1475198344217	1475198344396	w	87
235155	2516805	Maybe traffic will be light on Thursday.	Maybe traffic will be light on Thursday.	119522851	1475198344322	1475198344454	i	73
235155	2516805	Maybe traffic will be light on Thursday.	Maybe traffic will be light on Thursday.	119522854	1475198344386	1475198344462	l	76
235155	2516805	Maybe traffic will be light on Thursday.	Maybe traffic will be light on Thursday.	119522857	1475198344552	1475198344682	l	76
235155	2516805	Maybe traffic will be light on Thursday.	Maybe traffic will be light on Thursday.	119522860	1475198344718	1475198344916	 	32
235155	2516805	Maybe traffic will be light on Thursday.	Maybe traffic will be light on Thursday.	119522896	1475198344840	1475198344990	b	66
235155	2516805	Maybe traffic will be light on Thursday.	Maybe traffic will be light on Thursday.	119522899	1475198345016	1475198345174	e	69
235155	2516805	Maybe traffic will be light on Thursday.	Maybe traffic will be light on Thursday.	119522902	1475198345102	1475198345274	 	32
235155	2516805	Maybe traffic will be light on Thursday.	Maybe traffic will be light on Thursday.	119522906	1475198345254	1475198345377	l	76
235155	2516805	Maybe traffic will be light on Thursday.	Maybe traffic will be light on Thursday.	119522910	1475198345323	1475198345439	i	73
235155	2516805	Maybe traffic will be light on Thursday.	Maybe traffic will be light on Thursday.	119522913	1475198345440	1475198345594	g	71
235155	2516805	Maybe traffic will be light on Thursday.	Maybe traffic will be light on Thursday.	119522924	1475198345557	1475198345675	h	72
235155	2516805	Maybe traffic will be light on Thursday.	Maybe traffic will be light on Thursday.	119522927	1475198345684	1475198345818	t	84
235155	2516805	Maybe traffic will be light on Thursday.	Maybe traffic will be light on Thursday.	119522933	1475198345740	1475198345884	 	32
235155	2516805	Maybe traffic will be light on Thursday.	Maybe traffic will be light on Thursday.	119522938	1475198345820	1475198345994	o	79
235155	2516805	Maybe traffic will be light on Thursday.	Maybe traffic will be light on Thursday.	119522945	1475198345918	1475198346060	n	78
235155	2516805	Maybe traffic will be light on Thursday.	Maybe traffic will be light on Thursday.	119522970	1475198346002	1475198346160	 	32
235155	2516805	Maybe traffic will be light on Thursday.	Maybe traffic will be light on Thursday.	119522974	1475198346014	1475198346194	SHIFT	16
235155	2516805	Maybe traffic will be light on Thursday.	Maybe traffic will be light on Thursday.	119522979	1475198346118	1475198346236	T	84
235155	2516805	Maybe traffic will be light on Thursday.	Maybe traffic will be light on Thursday.	119522985	1475198346216	1475198346406	h	72
235155	2516805	Maybe traffic will be light on Thursday.	Maybe traffic will be light on Thursday.	119522990	1475198346346	1475198346518	u	85
235155	2516805	Maybe traffic will be light on Thursday.	Maybe traffic will be light on Thursday.	119522994	1475198346414	1475198346592	r	82
235155	2516805	Maybe traffic will be light on Thursday.	Maybe traffic will be light on Thursday.	119523012	1475198346524	1475198346656	s	83
235155	2516805	Maybe traffic will be light on Thursday.	Maybe traffic will be light on Thursday.	119523019	1475198346626	1475198346857	d	68
235155	2516805	Maybe traffic will be light on Thursday.	Maybe traffic will be light on Thursday.	119523023	1475198346744	1475198346911	a	65
235155	2516805	Maybe traffic will be light on Thursday.	Maybe traffic will be light on Thursday.	119523026	1475198346865	1475198346987	y	89
235155	2516805	Maybe traffic will be light on Thursday.	Maybe traffic will be light on Thursday.	119523030	1475198347060	1475198347160	.	190
235155	2516817	Have I mentioned how much I love Houston traffic?	Have I mentioned how much I love Houston traffic?	119523260	1475198350672	1475198350852	SHIFT	16
235155	2516817	Have I mentioned how much I love Houston traffic?	Have I mentioned how much I love Houston traffic?	119523262	1475198350836	1475198351014	H	72
235155	2516817	Have I mentioned how much I love Houston traffic?	Have I mentioned how much I love Houston traffic?	119523264	1475198350990	1475198351132	a	65
235155	2516817	Have I mentioned how much I love Houston traffic?	Have I mentioned how much I love Houston traffic?	119523265	1475198351238	1475198351344	v	86
235155	2516817	Have I mentioned how much I love Houston traffic?	Have I mentioned how much I love Houston traffic?	119523266	1475198351429	1475198351598	e	69
235155	2516817	Have I mentioned how much I love Houston traffic?	Have I mentioned how much I love Houston traffic?	119523277	1475198351533	1475198351660	 	32
235155	2516817	Have I mentioned how much I love Houston traffic?	Have I mentioned how much I love Houston traffic?	119523281	1475198351591	1475198351774	SHIFT	16
235155	2516817	Have I mentioned how much I love Houston traffic?	Have I mentioned how much I love Houston traffic?	119523283	1475198351666	1475198351792	I	73
235155	2516817	Have I mentioned how much I love Houston traffic?	Have I mentioned how much I love Houston traffic?	119523286	1475198351749	1475198351914	 	32
235155	2516817	Have I mentioned how much I love Houston traffic?	Have I mentioned how much I love Houston traffic?	119523288	1475198351864	1475198351982	m	77
235155	2516817	Have I mentioned how much I love Houston traffic?	Have I mentioned how much I love Houston traffic?	119523290	1475198351958	1475198352084	e	69
235155	2516817	Have I mentioned how much I love Houston traffic?	Have I mentioned how much I love Houston traffic?	119523297	1475198352050	1475198352175	n	78
235155	2516817	Have I mentioned how much I love Houston traffic?	Have I mentioned how much I love Houston traffic?	119523299	1475198352167	1475198352310	t	84
235155	2516817	Have I mentioned how much I love Houston traffic?	Have I mentioned how much I love Houston traffic?	119523302	1475198352244	1475198352468	i	73
235155	2516817	Have I mentioned how much I love Houston traffic?	Have I mentioned how much I love Houston traffic?	119523310	1475198352328	1475198352498	o	79
235155	2516817	Have I mentioned how much I love Houston traffic?	Have I mentioned how much I love Houston traffic?	119523314	1475198352402	1475198352554	n	78
235155	2516817	Have I mentioned how much I love Houston traffic?	Have I mentioned how much I love Houston traffic?	119523330	1475198352502	1475198352598	e	69
235155	2516817	Have I mentioned how much I love Houston traffic?	Have I mentioned how much I love Houston traffic?	119523333	1475198352686	1475198352819	d	68
235155	2516817	Have I mentioned how much I love Houston traffic?	Have I mentioned how much I love Houston traffic?	119523337	1475198352746	1475198352919	 	32
235155	2516817	Have I mentioned how much I love Houston traffic?	Have I mentioned how much I love Houston traffic?	119523342	1475198352830	1475198353004	h	72
235155	2516817	Have I mentioned how much I love Houston traffic?	Have I mentioned how much I love Houston traffic?	119523367	1475198352905	1475198353020	o	79
235155	2516817	Have I mentioned how much I love Houston traffic?	Have I mentioned how much I love Houston traffic?	119523371	1475198352971	1475198353129	w	87
235155	2516817	Have I mentioned how much I love Houston traffic?	Have I mentioned how much I love Houston traffic?	119523374	1475198353078	1475198353234	 	32
235155	2516817	Have I mentioned how much I love Houston traffic?	Have I mentioned how much I love Houston traffic?	119523378	1475198353163	1475198353260	m	77
235155	2516817	Have I mentioned how much I love Houston traffic?	Have I mentioned how much I love Houston traffic?	119523382	1475198353378	1475198353458	u	85
235155	2516817	Have I mentioned how much I love Houston traffic?	Have I mentioned how much I love Houston traffic?	119523384	1475198353486	1475198353643	c	67
235155	2516817	Have I mentioned how much I love Houston traffic?	Have I mentioned how much I love Houston traffic?	119523409	1475198353572	1475198353703	h	72
235155	2516817	Have I mentioned how much I love Houston traffic?	Have I mentioned how much I love Houston traffic?	119523414	1475198353634	1475198353768	 	32
235155	2516817	Have I mentioned how much I love Houston traffic?	Have I mentioned how much I love Houston traffic?	119523422	1475198353698	1475198353848	SHIFT	16
235155	2516817	Have I mentioned how much I love Houston traffic?	Have I mentioned how much I love Houston traffic?	119523426	1475198353772	1475198353908	I	73
235155	2516817	Have I mentioned how much I love Houston traffic?	Have I mentioned how much I love Houston traffic?	119523430	1475198353860	1475198354014	 	32
235155	2516817	Have I mentioned how much I love Houston traffic?	Have I mentioned how much I love Houston traffic?	119523433	1475198353956	1475198354056	l	76
235155	2516817	Have I mentioned how much I love Houston traffic?	Have I mentioned how much I love Houston traffic?	119523435	1475198354142	1475198354258	o	79
235155	2516817	Have I mentioned how much I love Houston traffic?	Have I mentioned how much I love Houston traffic?	119523462	1475198354198	1475198354351	v	86
235155	2516817	Have I mentioned how much I love Houston traffic?	Have I mentioned how much I love Houston traffic?	119523469	1475198354311	1475198354455	e	69
235155	2516817	Have I mentioned how much I love Houston traffic?	Have I mentioned how much I love Houston traffic?	119523476	1475198354423	1475198354596	 	32
235155	2516817	Have I mentioned how much I love Houston traffic?	Have I mentioned how much I love Houston traffic?	119523480	1475198354498	1475198354656	SHIFT	16
235155	2516817	Have I mentioned how much I love Houston traffic?	Have I mentioned how much I love Houston traffic?	119523485	1475198354542	1475198354662	H	72
235155	2516817	Have I mentioned how much I love Houston traffic?	Have I mentioned how much I love Houston traffic?	119523488	1475198354680	1475198354864	o	79
235155	2516817	Have I mentioned how much I love Houston traffic?	Have I mentioned how much I love Houston traffic?	119523504	1475198354774	1475198354918	u	85
235155	2516817	Have I mentioned how much I love Houston traffic?	Have I mentioned how much I love Houston traffic?	119523510	1475198354869	1475198355074	s	83
235155	2516817	Have I mentioned how much I love Houston traffic?	Have I mentioned how much I love Houston traffic?	119523517	1475198355018	1475198355178	t	84
235155	2516817	Have I mentioned how much I love Houston traffic?	Have I mentioned how much I love Houston traffic?	119523525	1475198355090	1475198355244	o	79
235155	2516817	Have I mentioned how much I love Houston traffic?	Have I mentioned how much I love Houston traffic?	119523531	1475198355206	1475198355388	n	78
235155	2516817	Have I mentioned how much I love Houston traffic?	Have I mentioned how much I love Houston traffic?	119523557	1475198355304	1475198355504	 	32
235155	2516817	Have I mentioned how much I love Houston traffic?	Have I mentioned how much I love Houston traffic?	119523554	1475198355366	1475198355458	t	84
235155	2516817	Have I mentioned how much I love Houston traffic?	Have I mentioned how much I love Houston traffic?	119523561	1475198355520	1475198355640	r	82
235155	2516817	Have I mentioned how much I love Houston traffic?	Have I mentioned how much I love Houston traffic?	119523566	1475198355594	1475198355774	a	65
235155	2516817	Have I mentioned how much I love Houston traffic?	Have I mentioned how much I love Houston traffic?	119523571	1475198355724	1475198355818	f	70
235155	2516817	Have I mentioned how much I love Houston traffic?	Have I mentioned how much I love Houston traffic?	119523576	1475198355875	1475198355986	f	70
235155	2516817	Have I mentioned how much I love Houston traffic?	Have I mentioned how much I love Houston traffic?	119523589	1475198355962	1475198356112	i	73
235155	2516817	Have I mentioned how much I love Houston traffic?	Have I mentioned how much I love Houston traffic?	119523593	1475198356069	1475198356172	c	67
235155	2516817	Have I mentioned how much I love Houston traffic?	Have I mentioned how much I love Houston traffic?	119523596	1475198356142	1475198356348	SHIFT	16
235155	2516817	Have I mentioned how much I love Houston traffic?	Have I mentioned how much I love Houston traffic?	119523598	1475198356246	1475198356359	?	191
235155	2516831	Scotty and I will be in NYC.	Scotty and I will be in NYC.	119523734	1475198358356	1475198358580	SHIFT	16
235155	2516831	Scotty and I will be in NYC.	Scotty and I will be in NYC.	119523736	1475198358454	1475198358597	S	83
235155	2516831	Scotty and I will be in NYC.	Scotty and I will be in NYC.	119523739	1475198358654	1475198358787	c	67
235155	2516831	Scotty and I will be in NYC.	Scotty and I will be in NYC.	119523741	1475198358756	1475198358886	o	79
235155	2516831	Scotty and I will be in NYC.	Scotty and I will be in NYC.	119523742	1475198358908	1475198358998	t	84
235155	2516831	Scotty and I will be in NYC.	Scotty and I will be in NYC.	119523743	1475198359096	1475198359224	t	84
235155	2516831	Scotty and I will be in NYC.	Scotty and I will be in NYC.	119523755	1475198359172	1475198359326	y	89
235155	2516831	Scotty and I will be in NYC.	Scotty and I will be in NYC.	119523759	1475198359237	1475198359380	 	32
235155	2516831	Scotty and I will be in NYC.	Scotty and I will be in NYC.	119523763	1475198359318	1475198359474	a	65
235155	2516831	Scotty and I will be in NYC.	Scotty and I will be in NYC.	119523770	1475198359440	1475198359580	n	78
235155	2516831	Scotty and I will be in NYC.	Scotty and I will be in NYC.	119523778	1475198359516	1475198359668	d	68
235155	2516831	Scotty and I will be in NYC.	Scotty and I will be in NYC.	119523803	1475198359592	1475198359700	 	32
235155	2516831	Scotty and I will be in NYC.	Scotty and I will be in NYC.	119523809	1475198359624	1475198359798	SHIFT	16
235155	2516831	Scotty and I will be in NYC.	Scotty and I will be in NYC.	119523815	1475198359740	1475198359882	I	73
235155	2516831	Scotty and I will be in NYC.	Scotty and I will be in NYC.	119523820	1475198359796	1475198359974	 	32
235155	2516831	Scotty and I will be in NYC.	Scotty and I will be in NYC.	119523822	1475198359920	1475198360086	w	87
235155	2516831	Scotty and I will be in NYC.	Scotty and I will be in NYC.	119523826	1475198360026	1475198360162	i	73
235155	2516831	Scotty and I will be in NYC.	Scotty and I will be in NYC.	119523846	1475198360090	1475198360190	l	76
235155	2516831	Scotty and I will be in NYC.	Scotty and I will be in NYC.	119523851	1475198360266	1475198360390	l	76
235155	2516831	Scotty and I will be in NYC.	Scotty and I will be in NYC.	119523857	1475198360347	1475198360526	 	32
235155	2516831	Scotty and I will be in NYC.	Scotty and I will be in NYC.	119523865	1475198360483	1475198360610	b	66
235155	2516831	Scotty and I will be in NYC.	Scotty and I will be in NYC.	119523871	1475198360590	1475198360763	e	69
235155	2516831	Scotty and I will be in NYC.	Scotty and I will be in NYC.	119523921	1475198360662	1475198360791	 	32
235155	2516831	Scotty and I will be in NYC.	Scotty and I will be in NYC.	119523926	1475198360751	1475198360910	i	73
235155	2516831	Scotty and I will be in NYC.	Scotty and I will be in NYC.	119523928	1475198360834	1475198360956	n	78
235155	2516831	Scotty and I will be in NYC.	Scotty and I will be in NYC.	119523933	1475198360912	1475198361108	 	32
235155	2516831	Scotty and I will be in NYC.	Scotty and I will be in NYC.	119523947	1475198360942	1475198361724	SHIFT	16
235155	2516831	Scotty and I will be in NYC.	Scotty and I will be in NYC.	119523937	1475198361066	1475198361194	N	78
235155	2516831	Scotty and I will be in NYC.	Scotty and I will be in NYC.	119523941	1475198361350	1475198361518	Y	89
235155	2516831	Scotty and I will be in NYC.	Scotty and I will be in NYC.	119523945	1475198361584	1475198361739	C	67
235155	2516831	Scotty and I will be in NYC.	Scotty and I will be in NYC.	119523951	1475198361793	1475198361910	.	190
235155	2516839	Can you supplement the answer to the visa question?	Can you supplement the answer to the visa question?	119524136	1475198363703	1475198363882	SHIFT	16
235155	2516839	Can you supplement the answer to the visa question?	Can you supplement the answer to the visa question?	119524143	1475198363824	1475198364002	C	67
235155	2516839	Can you supplement the answer to the visa question?	Can you supplement the answer to the visa question?	119524150	1475198363992	1475198364158	a	65
235155	2516839	Can you supplement the answer to the visa question?	Can you supplement the answer to the visa question?	119524154	1475198364032	1475198364160	n	78
235155	2516839	Can you supplement the answer to the visa question?	Can you supplement the answer to the visa question?	119524160	1475198364160	1475198364332	 	32
235155	2516839	Can you supplement the answer to the visa question?	Can you supplement the answer to the visa question?	119524166	1475198364274	1475198364426	y	89
235155	2516839	Can you supplement the answer to the visa question?	Can you supplement the answer to the visa question?	119524168	1475198364338	1475198364446	o	79
235155	2516839	Can you supplement the answer to the visa question?	Can you supplement the answer to the visa question?	119524170	1475198364390	1475198364566	u	85
235155	2516839	Can you supplement the answer to the visa question?	Can you supplement the answer to the visa question?	119524171	1475198364476	1475198364654	 	32
235155	2516839	Can you supplement the answer to the visa question?	Can you supplement the answer to the visa question?	119524212	1475198364520	1475198364678	s	83
235155	2516839	Can you supplement the answer to the visa question?	Can you supplement the answer to the visa question?	119524215	1475198364632	1475198364771	u	85
235155	2516839	Can you supplement the answer to the visa question?	Can you supplement the answer to the visa question?	119524218	1475198364708	1475198364808	p	80
235155	2516839	Can you supplement the answer to the visa question?	Can you supplement the answer to the visa question?	119524222	1475198364861	1475198364952	p	80
235155	2516839	Can you supplement the answer to the visa question?	Can you supplement the answer to the visa question?	119524225	1475198365048	1475198365146	l	76
235155	2516839	Can you supplement the answer to the visa question?	Can you supplement the answer to the visa question?	119524228	1475198365160	1475198365308	e	69
235155	2516839	Can you supplement the answer to the visa question?	Can you supplement the answer to the visa question?	119524254	1475198365286	1475198365446	m	77
235155	2516839	Can you supplement the answer to the visa question?	Can you supplement the answer to the visa question?	119524258	1475198365536	1475198365678	e	69
235155	2516839	Can you supplement the answer to the visa question?	Can you supplement the answer to the visa question?	119524262	1475198365666	1475198365820	n	78
235155	2516839	Can you supplement the answer to the visa question?	Can you supplement the answer to the visa question?	119524268	1475198365814	1475198365944	t	84
235155	2516839	Can you supplement the answer to the visa question?	Can you supplement the answer to the visa question?	119524272	1475198365922	1475198366050	 	32
235155	2516839	Can you supplement the answer to the visa question?	Can you supplement the answer to the visa question?	119524282	1475198366040	1475198366166	t	84
235155	2516839	Can you supplement the answer to the visa question?	Can you supplement the answer to the visa question?	119524285	1475198366092	1475198366208	h	72
235155	2516839	Can you supplement the answer to the visa question?	Can you supplement the answer to the visa question?	119524291	1475198366202	1475198366377	e	69
235155	2516839	Can you supplement the answer to the visa question?	Can you supplement the answer to the visa question?	119524295	1475198366256	1475198366398	 	32
235155	2516839	Can you supplement the answer to the visa question?	Can you supplement the answer to the visa question?	119524302	1475198366365	1475198366510	a	65
235155	2516839	Can you supplement the answer to the visa question?	Can you supplement the answer to the visa question?	119524364	1475198366460	1475198366660	n	78
235155	2516839	Can you supplement the answer to the visa question?	Can you supplement the answer to the visa question?	119524357	1475198366557	1475198366652	s	83
235155	2516839	Can you supplement the answer to the visa question?	Can you supplement the answer to the visa question?	119524371	1475198366746	1475198366884	w	87
235155	2516839	Can you supplement the answer to the visa question?	Can you supplement the answer to the visa question?	119524378	1475198366826	1475198366989	e	69
235155	2516839	Can you supplement the answer to the visa question?	Can you supplement the answer to the visa question?	119524381	1475198366916	1475198367056	r	82
235155	2516839	Can you supplement the answer to the visa question?	Can you supplement the answer to the visa question?	119524393	1475198367026	1475198367158	 	32
235155	2516839	Can you supplement the answer to the visa question?	Can you supplement the answer to the visa question?	119524395	1475198367143	1475198367282	t	84
235155	2516839	Can you supplement the answer to the visa question?	Can you supplement the answer to the visa question?	119524398	1475198367222	1475198367368	o	79
235155	2516839	Can you supplement the answer to the visa question?	Can you supplement the answer to the visa question?	119524402	1475198367290	1475198367408	 	32
235155	2516839	Can you supplement the answer to the visa question?	Can you supplement the answer to the visa question?	119524407	1475198367380	1475198367520	t	84
235155	2516839	Can you supplement the answer to the visa question?	Can you supplement the answer to the visa question?	119524426	1475198367468	1475198367576	h	72
235155	2516839	Can you supplement the answer to the visa question?	Can you supplement the answer to the visa question?	119524430	1475198367544	1475198367650	e	69
235155	2516839	Can you supplement the answer to the visa question?	Can you supplement the answer to the visa question?	119524434	1475198367622	1475198367779	 	32
235155	2516839	Can you supplement the answer to the visa question?	Can you supplement the answer to the visa question?	119524437	1475198367758	1475198367886	v	86
235155	2516839	Can you supplement the answer to the visa question?	Can you supplement the answer to the visa question?	119524442	1475198367857	1475198368030	i	73
235155	2516839	Can you supplement the answer to the visa question?	Can you supplement the answer to the visa question?	119524463	1475198367986	1475198368146	s	83
235155	2516839	Can you supplement the answer to the visa question?	Can you supplement the answer to the visa question?	119524466	1475198368094	1475198368203	a	65
235155	2516839	Can you supplement the answer to the visa question?	Can you supplement the answer to the visa question?	119524469	1475198368190	1475198368336	 	32
235155	2516839	Can you supplement the answer to the visa question?	Can you supplement the answer to the visa question?	119524473	1475198368328	1475198368464	q	81
235155	2516839	Can you supplement the answer to the visa question?	Can you supplement the answer to the visa question?	119524477	1475198368466	1475198368614	u	85
235155	2516839	Can you supplement the answer to the visa question?	Can you supplement the answer to the visa question?	119524492	1475198368580	1475198368708	e	69
235155	2516839	Can you supplement the answer to the visa question?	Can you supplement the answer to the visa question?	119524497	1475198368650	1475198368832	s	83
235155	2516839	Can you supplement the answer to the visa question?	Can you supplement the answer to the visa question?	119524502	1475198368750	1475198368906	t	84
235155	2516839	Can you supplement the answer to the visa question?	Can you supplement the answer to the visa question?	119524510	1475198368796	1475198368946	i	73
235155	2516839	Can you supplement the answer to the visa question?	Can you supplement the answer to the visa question?	119524514	1475198368866	1475198369048	o	79
235155	2516839	Can you supplement the answer to the visa question?	Can you supplement the answer to the visa question?	119524527	1475198368998	1475198369133	n	78
235155	2516839	Can you supplement the answer to the visa question?	Can you supplement the answer to the visa question?	119524532	1475198369120	1475198369348	SHIFT	16
235155	2516839	Can you supplement the answer to the visa question?	Can you supplement the answer to the visa question?	119524530	1475198369212	1475198369314	?	191
235155	2516849	Call me to give me a heads up.	Call me to give me a heads up.	119524790	1475198372840	1475198373298	SHIFT	16
235155	2516849	Call me to give me a heads up.	Call me to give me a heads up.	119524792	1475198373216	1475198373350	C	67
235155	2516849	Call me to give me a heads up.	Call me to give me a heads up.	119524795	1475198373402	1475198373552	a	65
235155	2516849	Call me to give me a heads up.	Call me to give me a heads up.	119524799	1475198373492	1475198373564	l	76
235155	2516849	Call me to give me a heads up.	Call me to give me a heads up.	119524805	1475198373636	1475198373771	l	76
235155	2516849	Call me to give me a heads up.	Call me to give me a heads up.	119524843	1475198373708	1475198373880	 	32
235155	2516849	Call me to give me a heads up.	Call me to give me a heads up.	119524850	1475198373820	1475198373942	m	77
235155	2516849	Call me to give me a heads up.	Call me to give me a heads up.	119524859	1475198373906	1475198374052	e	69
235155	2516849	Call me to give me a heads up.	Call me to give me a heads up.	119524864	1475198374002	1475198374128	 	32
235155	2516849	Call me to give me a heads up.	Call me to give me a heads up.	119524867	1475198374109	1475198374236	t	84
235155	2516849	Call me to give me a heads up.	Call me to give me a heads up.	119524875	1475198374188	1475198374304	o	79
235155	2516849	Call me to give me a heads up.	Call me to give me a heads up.	119524881	1475198374248	1475198374386	 	32
235155	2516849	Call me to give me a heads up.	Call me to give me a heads up.	119524886	1475198374350	1475198374459	g	71
235155	2516849	Call me to give me a heads up.	Call me to give me a heads up.	119524889	1475198374452	1475198374604	i	73
235155	2516849	Call me to give me a heads up.	Call me to give me a heads up.	119524897	1475198374568	1475198374702	v	86
235155	2516849	Call me to give me a heads up.	Call me to give me a heads up.	119524911	1475198374650	1475198374772	e	69
235155	2516849	Call me to give me a heads up.	Call me to give me a heads up.	119524914	1475198374728	1475198374892	 	32
235155	2516849	Call me to give me a heads up.	Call me to give me a heads up.	119524917	1475198374832	1475198374962	m	77
235155	2516849	Call me to give me a heads up.	Call me to give me a heads up.	119524921	1475198374922	1475198375075	e	69
235155	2516849	Call me to give me a heads up.	Call me to give me a heads up.	119524925	1475198375072	1475198375178	 	32
235155	2516849	Call me to give me a heads up.	Call me to give me a heads up.	119524955	1475198375164	1475198375286	a	65
235155	2516849	Call me to give me a heads up.	Call me to give me a heads up.	119524959	1475198375244	1475198375396	 	32
235155	2516849	Call me to give me a heads up.	Call me to give me a heads up.	119524964	1475198375366	1475198375506	h	72
235155	2516849	Call me to give me a heads up.	Call me to give me a heads up.	119524967	1475198375406	1475198375568	e	69
235155	2516849	Call me to give me a heads up.	Call me to give me a heads up.	119524970	1475198375512	1475198375706	a	65
235155	2516849	Call me to give me a heads up.	Call me to give me a heads up.	119525009	1475198375676	1475198375858	d	68
235155	2516849	Call me to give me a heads up.	Call me to give me a heads up.	119525013	1475198375798	1475198375952	s	83
235155	2516849	Call me to give me a heads up.	Call me to give me a heads up.	119525020	1475198375958	1475198376137	 	32
235155	2516849	Call me to give me a heads up.	Call me to give me a heads up.	119525026	1475198376046	1475198376248	u	85
235155	2516849	Call me to give me a heads up.	Call me to give me a heads up.	119525034	1475198376129	1475198376320	p	80
235155	2516849	Call me to give me a heads up.	Call me to give me a heads up.	119525043	1475198376426	1475198376548	.	190
235155	2516857	It's a shame to have to miss one or the other.	It's a shame to have to miss one or the other.	119525182	1475198378168	1475198378380	SHIFT	16
235155	2516857	It's a shame to have to miss one or the other.	It's a shame to have to miss one or the other.	119525187	1475198378321	1475198378452	I	73
235155	2516857	It's a shame to have to miss one or the other.	It's a shame to have to miss one or the other.	119525192	1475198378422	1475198378578	t	84
235155	2516857	It's a shame to have to miss one or the other.	It's a shame to have to miss one or the other.	119525197	1475198378518	1475198378636	'	222
235155	2516857	It's a shame to have to miss one or the other.	It's a shame to have to miss one or the other.	119525201	1475198378604	1475198378756	s	83
235155	2516857	It's a shame to have to miss one or the other.	It's a shame to have to miss one or the other.	119525209	1475198378702	1475198378800	 	32
235155	2516857	It's a shame to have to miss one or the other.	It's a shame to have to miss one or the other.	119525214	1475198378762	1475198378904	a	65
235155	2516857	It's a shame to have to miss one or the other.	It's a shame to have to miss one or the other.	119525219	1475198378876	1475198378992	 	32
235155	2516857	It's a shame to have to miss one or the other.	It's a shame to have to miss one or the other.	119525227	1475198378946	1475198379076	s	83
235155	2516857	It's a shame to have to miss one or the other.	It's a shame to have to miss one or the other.	119525231	1475198379044	1475198379138	h	72
235155	2516857	It's a shame to have to miss one or the other.	It's a shame to have to miss one or the other.	119525251	1475198379132	1475198379262	a	65
235155	2516857	It's a shame to have to miss one or the other.	It's a shame to have to miss one or the other.	119525252	1475198379242	1475198379356	m	77
235155	2516857	It's a shame to have to miss one or the other.	It's a shame to have to miss one or the other.	119525255	1475198379336	1475198379510	e	69
235155	2516857	It's a shame to have to miss one or the other.	It's a shame to have to miss one or the other.	119525260	1475198379408	1475198379529	 	32
235155	2516857	It's a shame to have to miss one or the other.	It's a shame to have to miss one or the other.	119525263	1475198379478	1475198379661	t	84
235155	2516857	It's a shame to have to miss one or the other.	It's a shame to have to miss one or the other.	119525287	1475198379596	1475198379737	o	79
235155	2516857	It's a shame to have to miss one or the other.	It's a shame to have to miss one or the other.	119525289	1475198379684	1475198379854	 	32
235155	2516857	It's a shame to have to miss one or the other.	It's a shame to have to miss one or the other.	119525295	1475198379764	1475198379856	h	72
235155	2516857	It's a shame to have to miss one or the other.	It's a shame to have to miss one or the other.	119525301	1475198379832	1475198379988	a	65
235155	2516857	It's a shame to have to miss one or the other.	It's a shame to have to miss one or the other.	119525304	1475198379936	1475198380016	v	86
235155	2516857	It's a shame to have to miss one or the other.	It's a shame to have to miss one or the other.	119525307	1475198380042	1475198380202	e	69
235155	2516857	It's a shame to have to miss one or the other.	It's a shame to have to miss one or the other.	119525308	1475198380094	1475198380210	 	32
235155	2516857	It's a shame to have to miss one or the other.	It's a shame to have to miss one or the other.	119525311	1475198380150	1475198380330	t	84
235155	2516857	It's a shame to have to miss one or the other.	It's a shame to have to miss one or the other.	119525314	1475198380232	1475198380360	o	79
235155	2516857	It's a shame to have to miss one or the other.	It's a shame to have to miss one or the other.	119525316	1475198380312	1475198380510	 	32
235155	2516857	It's a shame to have to miss one or the other.	It's a shame to have to miss one or the other.	119525318	1475198380400	1475198380534	m	77
235155	2516857	It's a shame to have to miss one or the other.	It's a shame to have to miss one or the other.	119525335	1475198380468	1475198380620	i	73
235155	2516857	It's a shame to have to miss one or the other.	It's a shame to have to miss one or the other.	119525340	1475198380530	1475198380624	s	83
235155	2516857	It's a shame to have to miss one or the other.	It's a shame to have to miss one or the other.	119525347	1475198380706	1475198380832	s	83
235155	2516857	It's a shame to have to miss one or the other.	It's a shame to have to miss one or the other.	119525352	1475198380776	1475198380922	 	32
235155	2516857	It's a shame to have to miss one or the other.	It's a shame to have to miss one or the other.	119525354	1475198380844	1475198381018	o	79
235155	2516857	It's a shame to have to miss one or the other.	It's a shame to have to miss one or the other.	119525364	1475198380934	1475198381061	n	78
235155	2516857	It's a shame to have to miss one or the other.	It's a shame to have to miss one or the other.	119525367	1475198381012	1475198381169	e	69
235155	2516857	It's a shame to have to miss one or the other.	It's a shame to have to miss one or the other.	119525370	1475198381103	1475198381241	 	32
235155	2516857	It's a shame to have to miss one or the other.	It's a shame to have to miss one or the other.	119525373	1475198381180	1475198381303	o	79
235155	2516857	It's a shame to have to miss one or the other.	It's a shame to have to miss one or the other.	119525374	1475198381280	1475198381406	r	82
235155	2516857	It's a shame to have to miss one or the other.	It's a shame to have to miss one or the other.	119525375	1475198381362	1475198381506	 	32
235155	2516857	It's a shame to have to miss one or the other.	It's a shame to have to miss one or the other.	119525377	1475198381470	1475198381608	t	84
235155	2516857	It's a shame to have to miss one or the other.	It's a shame to have to miss one or the other.	119525379	1475198381526	1475198381630	h	72
235155	2516857	It's a shame to have to miss one or the other.	It's a shame to have to miss one or the other.	119525382	1475198381634	1475198381788	e	69
235155	2516857	It's a shame to have to miss one or the other.	It's a shame to have to miss one or the other.	119525385	1475198381674	1475198381844	 	32
235155	2516857	It's a shame to have to miss one or the other.	It's a shame to have to miss one or the other.	119525419	1475198381738	1475198381866	o	79
235155	2516857	It's a shame to have to miss one or the other.	It's a shame to have to miss one or the other.	119525423	1475198381826	1475198381976	t	84
235155	2516857	It's a shame to have to miss one or the other.	It's a shame to have to miss one or the other.	119525430	1475198381914	1475198382046	h	72
235155	2516857	It's a shame to have to miss one or the other.	It's a shame to have to miss one or the other.	119525436	1475198382010	1475198382190	e	69
235155	2516857	It's a shame to have to miss one or the other.	It's a shame to have to miss one or the other.	119525438	1475198382100	1475198382296	r	82
235155	2516866	I should have more info by our meeting this afternoon.	I should have more info by our meeting this afternoon.	119525952	1475198382198	1475198389128	.	190
235155	2516866	I should have more info by our meeting this afternoon.	I should have more info by our meeting this afternoon.	119525580	1475198384086	1475198384207	SHIFT	16
235155	2516866	I should have more info by our meeting this afternoon.	I should have more info by our meeting this afternoon.	119525582	1475198384133	1475198384266	I	73
235155	2516866	I should have more info by our meeting this afternoon.	I should have more info by our meeting this afternoon.	119525584	1475198384237	1475198384427	 	32
235155	2516866	I should have more info by our meeting this afternoon.	I should have more info by our meeting this afternoon.	119525612	1475198384272	1475198384437	s	83
235155	2516866	I should have more info by our meeting this afternoon.	I should have more info by our meeting this afternoon.	119525617	1475198384348	1475198384450	h	72
235155	2516866	I should have more info by our meeting this afternoon.	I should have more info by our meeting this afternoon.	119525622	1475198384420	1475198384528	o	79
235155	2516866	I should have more info by our meeting this afternoon.	I should have more info by our meeting this afternoon.	119525625	1475198384512	1475198384678	u	85
235155	2516866	I should have more info by our meeting this afternoon.	I should have more info by our meeting this afternoon.	119525631	1475198384616	1475198384748	l	76
235155	2516866	I should have more info by our meeting this afternoon.	I should have more info by our meeting this afternoon.	119525635	1475198384664	1475198384844	d	68
235155	2516866	I should have more info by our meeting this afternoon.	I should have more info by our meeting this afternoon.	119525665	1475198384732	1475198384938	 	32
235155	2516866	I should have more info by our meeting this afternoon.	I should have more info by our meeting this afternoon.	119525655	1475198384818	1475198384922	h	72
235155	2516866	I should have more info by our meeting this afternoon.	I should have more info by our meeting this afternoon.	119525673	1475198384908	1475198385062	a	65
235155	2516866	I should have more info by our meeting this afternoon.	I should have more info by our meeting this afternoon.	119525681	1475198385016	1475198385104	v	86
235155	2516866	I should have more info by our meeting this afternoon.	I should have more info by our meeting this afternoon.	119525688	1475198385120	1475198385260	e	69
235155	2516866	I should have more info by our meeting this afternoon.	I should have more info by our meeting this afternoon.	119525698	1475198385176	1475198385362	 	32
235155	2516866	I should have more info by our meeting this afternoon.	I should have more info by our meeting this afternoon.	119525706	1475198385284	1475198385438	m	77
235155	2516866	I should have more info by our meeting this afternoon.	I should have more info by our meeting this afternoon.	119525709	1475198385352	1475198385486	o	79
235155	2516866	I should have more info by our meeting this afternoon.	I should have more info by our meeting this afternoon.	119525717	1475198385400	1475198385534	r	82
235155	2516866	I should have more info by our meeting this afternoon.	I should have more info by our meeting this afternoon.	119525723	1475198385472	1475198385627	e	69
235155	2516866	I should have more info by our meeting this afternoon.	I should have more info by our meeting this afternoon.	119525727	1475198385508	1475198385711	 	32
235155	2516866	I should have more info by our meeting this afternoon.	I should have more info by our meeting this afternoon.	119525742	1475198385588	1475198385733	i	73
235155	2516866	I should have more info by our meeting this afternoon.	I should have more info by our meeting this afternoon.	119525747	1475198385643	1475198385765	n	78
235155	2516866	I should have more info by our meeting this afternoon.	I should have more info by our meeting this afternoon.	119525752	1475198385751	1475198385918	f	70
235155	2516866	I should have more info by our meeting this afternoon.	I should have more info by our meeting this afternoon.	119525757	1475198385830	1475198385958	o	79
235155	2516866	I should have more info by our meeting this afternoon.	I should have more info by our meeting this afternoon.	119525760	1475198385924	1475198386094	 	32
235155	2516866	I should have more info by our meeting this afternoon.	I should have more info by our meeting this afternoon.	119525765	1475198386010	1475198386100	b	66
235155	2516866	I should have more info by our meeting this afternoon.	I should have more info by our meeting this afternoon.	119525769	1475198386214	1475198386322	y	89
235155	2516866	I should have more info by our meeting this afternoon.	I should have more info by our meeting this afternoon.	119525785	1475198386306	1475198386448	 	32
235155	2516866	I should have more info by our meeting this afternoon.	I should have more info by our meeting this afternoon.	119525790	1475198386388	1475198386566	o	79
235155	2516866	I should have more info by our meeting this afternoon.	I should have more info by our meeting this afternoon.	119525796	1475198386466	1475198386598	u	85
235155	2516866	I should have more info by our meeting this afternoon.	I should have more info by our meeting this afternoon.	119525802	1475198386604	1475198386770	r	82
235155	2516866	I should have more info by our meeting this afternoon.	I should have more info by our meeting this afternoon.	119525806	1475198386714	1475198386906	 	32
235155	2516866	I should have more info by our meeting this afternoon.	I should have more info by our meeting this afternoon.	119525828	1475198386822	1475198386984	m	77
235155	2516866	I should have more info by our meeting this afternoon.	I should have more info by our meeting this afternoon.	119525833	1475198386900	1475198386987	e	69
235155	2516866	I should have more info by our meeting this afternoon.	I should have more info by our meeting this afternoon.	119525837	1475198387086	1475198387197	e	69
235155	2516866	I should have more info by our meeting this afternoon.	I should have more info by our meeting this afternoon.	119525840	1475198387158	1475198387280	t	84
235155	2516866	I should have more info by our meeting this afternoon.	I should have more info by our meeting this afternoon.	119525843	1475198387241	1475198387398	i	73
235155	2516866	I should have more info by our meeting this afternoon.	I should have more info by our meeting this afternoon.	119525846	1475198387292	1475198387432	n	78
235155	2516866	I should have more info by our meeting this afternoon.	I should have more info by our meeting this afternoon.	119525850	1475198387406	1475198387500	g	71
235155	2516866	I should have more info by our meeting this afternoon.	I should have more info by our meeting this afternoon.	119525851	1475198387508	1475198387700	 	32
235155	2516866	I should have more info by our meeting this afternoon.	I should have more info by our meeting this afternoon.	119525853	1475198387600	1475198387762	t	84
235155	2516866	I should have more info by our meeting this afternoon.	I should have more info by our meeting this afternoon.	119525856	1475198387660	1475198387820	h	72
235155	2516866	I should have more info by our meeting this afternoon.	I should have more info by our meeting this afternoon.	119525877	1475198387734	1475198387850	i	73
235155	2516866	I should have more info by our meeting this afternoon.	I should have more info by our meeting this afternoon.	119525881	1475198387814	1475198387950	s	83
235155	2516866	I should have more info by our meeting this afternoon.	I should have more info by our meeting this afternoon.	119525884	1475198387926	1475198388136	 	32
235155	2516866	I should have more info by our meeting this afternoon.	I should have more info by our meeting this afternoon.	119525888	1475198387998	1475198388176	a	65
235155	2516866	I should have more info by our meeting this afternoon.	I should have more info by our meeting this afternoon.	119525894	1475198388096	1475198388212	f	70
235155	2516866	I should have more info by our meeting this afternoon.	I should have more info by our meeting this afternoon.	119525898	1475198388290	1475198388398	t	84
235155	2516866	I should have more info by our meeting this afternoon.	I should have more info by our meeting this afternoon.	119525920	1475198388366	1475198388563	e	69
235155	2516866	I should have more info by our meeting this afternoon.	I should have more info by our meeting this afternoon.	119525927	1475198388468	1475198388647	r	82
235155	2516866	I should have more info by our meeting this afternoon.	I should have more info by our meeting this afternoon.	119525935	1475198388532	1475198388675	n	78
235155	2516866	I should have more info by our meeting this afternoon.	I should have more info by our meeting this afternoon.	119525941	1475198388609	1475198388699	o	79
235155	2516866	I should have more info by our meeting this afternoon.	I should have more info by our meeting this afternoon.	119525946	1475198388772	1475198388908	o	79
235155	2516866	I should have more info by our meeting this afternoon.	I should have more info by our meeting this afternoon.	119525949	1475198388864	1475198388990	n	78
235155	2516876	Things are crazy for sure!	Things are crazy for sure!	119526096	1475198390772	1475198390958	SHIFT	16
235155	2516876	Things are crazy for sure!	Things are crazy for sure!	119526100	1475198390894	1475198391018	T	84
235155	2516876	Things are crazy for sure!	Things are crazy for sure!	119526104	1475198390968	1475198391062	h	72
235155	2516876	Things are crazy for sure!	Things are crazy for sure!	119526108	1475198391034	1475198391241	i	73
235155	2516876	Things are crazy for sure!	Things are crazy for sure!	119526131	1475198391142	1475198391293	n	78
235155	2516876	Things are crazy for sure!	Things are crazy for sure!	119526134	1475198391225	1475198391378	g	71
235155	2516876	Things are crazy for sure!	Things are crazy for sure!	119526136	1475198391313	1475198391428	s	83
235155	2516876	Things are crazy for sure!	Things are crazy for sure!	119526139	1475198391402	1475198391553	 	32
235155	2516876	Things are crazy for sure!	Things are crazy for sure!	119526141	1475198391494	1475198391687	a	65
235155	2516876	Things are crazy for sure!	Things are crazy for sure!	119526175	1475198391609	1475198391721	r	82
235155	2516876	Things are crazy for sure!	Things are crazy for sure!	119526180	1475198391642	1475198391790	e	69
235155	2516876	Things are crazy for sure!	Things are crazy for sure!	119526184	1475198391771	1475198391966	 	32
235155	2516876	Things are crazy for sure!	Things are crazy for sure!	119526188	1475198391878	1475198391972	c	67
235155	2516876	Things are crazy for sure!	Things are crazy for sure!	119526195	1475198392102	1475198392270	r	82
235155	2516876	Things are crazy for sure!	Things are crazy for sure!	119526200	1475198392198	1475198392300	a	65
235155	2516876	Things are crazy for sure!	Things are crazy for sure!	119526206	1475198392402	1475198392551	z	90
235155	2516876	Things are crazy for sure!	Things are crazy for sure!	119526221	1475198392542	1475198392682	y	89
235155	2516876	Things are crazy for sure!	Things are crazy for sure!	119526227	1475198392636	1475198392780	 	32
235155	2516876	Things are crazy for sure!	Things are crazy for sure!	119526231	1475198392684	1475198392817	f	70
235155	2516876	Things are crazy for sure!	Things are crazy for sure!	119526239	1475198392814	1475198392928	o	79
235155	2516876	Things are crazy for sure!	Things are crazy for sure!	119526246	1475198392910	1475198393054	r	82
235155	2516876	Things are crazy for sure!	Things are crazy for sure!	119526276	1475198392996	1475198393129	 	32
235155	2516876	Things are crazy for sure!	Things are crazy for sure!	119526279	1475198393076	1475198393217	s	83
235155	2516876	Things are crazy for sure!	Things are crazy for sure!	119526283	1475198393164	1475198393308	u	85
235155	2516876	Things are crazy for sure!	Things are crazy for sure!	119526286	1475198393239	1475198393415	r	82
235155	2516876	Things are crazy for sure!	Things are crazy for sure!	119526292	1475198393350	1475198393476	e	69
235155	2516876	Things are crazy for sure!	Things are crazy for sure!	119526282	1475198393538	1475198393814	SHIFT	16
235155	2516876	Things are crazy for sure!	Things are crazy for sure!	119526299	1475198393652	1475198393790	!	49
235155	2516883	Drop him unless you play in a keeper league.	Drop him unless you play in a keeper league.	119526422	1475198395319	1475198395604	SHIFT	16
235155	2516883	Drop him unless you play in a keeper league.	Drop him unless you play in a keeper league.	119526424	1475198395520	1475198395656	D	68
235155	2516883	Drop him unless you play in a keeper league.	Drop him unless you play in a keeper league.	119526427	1475198395686	1475198395850	r	82
235155	2516883	Drop him unless you play in a keeper league.	Drop him unless you play in a keeper league.	119526433	1475198395744	1475198395923	o	79
235155	2516883	Drop him unless you play in a keeper league.	Drop him unless you play in a keeper league.	119526440	1475198395838	1475198395979	p	80
235155	2516883	Drop him unless you play in a keeper league.	Drop him unless you play in a keeper league.	119526489	1475198395958	1475198396171	 	32
235155	2516883	Drop him unless you play in a keeper league.	Drop him unless you play in a keeper league.	119526485	1475198396050	1475198396147	h	72
235155	2516883	Drop him unless you play in a keeper league.	Drop him unless you play in a keeper league.	119526494	1475198396100	1475198396239	i	73
235155	2516883	Drop him unless you play in a keeper league.	Drop him unless you play in a keeper league.	119526499	1475198396278	1475198396386	m	77
235155	2516883	Drop him unless you play in a keeper league.	Drop him unless you play in a keeper league.	119526501	1475198396362	1475198396552	 	32
235155	2516883	Drop him unless you play in a keeper league.	Drop him unless you play in a keeper league.	119526514	1475198396500	1475198396572	u	85
235155	2516883	Drop him unless you play in a keeper league.	Drop him unless you play in a keeper league.	119526517	1475198396654	1475198396744	n	78
235155	2516883	Drop him unless you play in a keeper league.	Drop him unless you play in a keeper league.	119526523	1475198396792	1475198396932	l	76
235155	2516883	Drop him unless you play in a keeper league.	Drop him unless you play in a keeper league.	119526527	1475198396876	1475198397006	e	69
235155	2516883	Drop him unless you play in a keeper league.	Drop him unless you play in a keeper league.	119526529	1475198396940	1475198397044	s	83
235155	2516883	Drop him unless you play in a keeper league.	Drop him unless you play in a keeper league.	119526532	1475198397132	1475198397262	s	83
235155	2516883	Drop him unless you play in a keeper league.	Drop him unless you play in a keeper league.	119526538	1475198397180	1475198397334	 	32
235155	2516883	Drop him unless you play in a keeper league.	Drop him unless you play in a keeper league.	119526541	1475198397237	1475198397385	y	89
235155	2516883	Drop him unless you play in a keeper league.	Drop him unless you play in a keeper league.	119526546	1475198397308	1475198397432	o	79
235155	2516883	Drop him unless you play in a keeper league.	Drop him unless you play in a keeper league.	119526556	1475198397367	1475198397515	u	85
235155	2516883	Drop him unless you play in a keeper league.	Drop him unless you play in a keeper league.	119526560	1475198397470	1475198397668	 	32
235155	2516883	Drop him unless you play in a keeper league.	Drop him unless you play in a keeper league.	119526622	1475198397579	1475198397740	p	80
235155	2516883	Drop him unless you play in a keeper league.	Drop him unless you play in a keeper league.	119526629	1475198397653	1475198397762	l	76
235155	2516883	Drop him unless you play in a keeper league.	Drop him unless you play in a keeper league.	119526635	1475198397772	1475198397935	a	65
235155	2516883	Drop him unless you play in a keeper league.	Drop him unless you play in a keeper league.	119526644	1475198397880	1475198398008	y	89
235155	2516883	Drop him unless you play in a keeper league.	Drop him unless you play in a keeper league.	119526649	1475198397922	1475198398088	 	32
235155	2516883	Drop him unless you play in a keeper league.	Drop him unless you play in a keeper league.	119526656	1475198398012	1475198398245	i	73
235155	2516883	Drop him unless you play in a keeper league.	Drop him unless you play in a keeper league.	119526640	1475198398152	1475198398334	n	78
235155	2516883	Drop him unless you play in a keeper league.	Drop him unless you play in a keeper league.	119526646	1475198398230	1475198398338	 	32
235155	2516883	Drop him unless you play in a keeper league.	Drop him unless you play in a keeper league.	119526652	1475198398320	1475198398480	a	65
235155	2516883	Drop him unless you play in a keeper league.	Drop him unless you play in a keeper league.	119526657	1475198398400	1475198398552	 	32
235155	2516883	Drop him unless you play in a keeper league.	Drop him unless you play in a keeper league.	119526661	1475198398466	1475198398604	k	75
235155	2516883	Drop him unless you play in a keeper league.	Drop him unless you play in a keeper league.	119526665	1475198398598	1475198398736	e	69
235155	2516883	Drop him unless you play in a keeper league.	Drop him unless you play in a keeper league.	119526718	1475198398702	1475198398786	p	80
235155	2516883	Drop him unless you play in a keeper league.	Drop him unless you play in a keeper league.	119526722	1475198399083	1475198399147	BKSP	8
235155	2516883	Drop him unless you play in a keeper league.	Drop him unless you play in a keeper league.	119526725	1475198399215	1475198399326	e	69
235155	2516883	Drop him unless you play in a keeper league.	Drop him unless you play in a keeper league.	119526728	1475198399280	1475198399426	p	80
235155	2516883	Drop him unless you play in a keeper league.	Drop him unless you play in a keeper league.	119526731	1475198399428	1475198399548	e	69
235155	2516883	Drop him unless you play in a keeper league.	Drop him unless you play in a keeper league.	119526732	1475198399486	1475198399638	r	82
235155	2516883	Drop him unless you play in a keeper league.	Drop him unless you play in a keeper league.	119526739	1475198399550	1475198399724	 	32
235155	2516883	Drop him unless you play in a keeper league.	Drop him unless you play in a keeper league.	119526742	1475198399622	1475198399768	l	76
235155	2516883	Drop him unless you play in a keeper league.	Drop him unless you play in a keeper league.	119526746	1475198399738	1475198399870	e	69
235155	2516883	Drop him unless you play in a keeper league.	Drop him unless you play in a keeper league.	119526749	1475198399822	1475198400012	a	65
235155	2516883	Drop him unless you play in a keeper league.	Drop him unless you play in a keeper league.	119526754	1475198399962	1475198400074	g	71
235155	2516883	Drop him unless you play in a keeper league.	Drop him unless you play in a keeper league.	119526761	1475198400018	1475198400151	u	85
235155	2516883	Drop him unless you play in a keeper league.	Drop him unless you play in a keeper league.	119526755	1475198400148	1475198400289	e	69
235155	2516894	Call me if you have any questions.	Call me if you have any questions.	119526945	1475198401932	1475198402207	SHIFT	16
235155	2516894	Call me if you have any questions.	Call me if you have any questions.	119526949	1475198402121	1475198402312	C	67
235155	2516894	Call me if you have any questions.	Call me if you have any questions.	119526954	1475198402298	1475198402428	a	65
235155	2516894	Call me if you have any questions.	Call me if you have any questions.	119526959	1475198402394	1475198402462	l	76
235155	2516894	Call me if you have any questions.	Call me if you have any questions.	119526963	1475198402520	1475198402716	l	76
235155	2516894	Call me if you have any questions.	Call me if you have any questions.	119526974	1475198402628	1475198402828	 	32
235155	2516894	Call me if you have any questions.	Call me if you have any questions.	119526976	1475198402750	1475198402892	m	77
235155	2516894	Call me if you have any questions.	Call me if you have any questions.	119526980	1475198402862	1475198403002	e	69
235155	2516894	Call me if you have any questions.	Call me if you have any questions.	119526981	1475198402942	1475198403072	 	32
235155	2516894	Call me if you have any questions.	Call me if you have any questions.	119526982	1475198403018	1475198403148	i	73
235155	2516894	Call me if you have any questions.	Call me if you have any questions.	119526994	1475198403118	1475198403284	f	70
235155	2516894	Call me if you have any questions.	Call me if you have any questions.	119526998	1475198403158	1475198403342	 	32
235155	2516894	Call me if you have any questions.	Call me if you have any questions.	119527005	1475198403255	1475198403381	y	89
235155	2516894	Call me if you have any questions.	Call me if you have any questions.	119527011	1475198403300	1475198403417	o	79
235155	2516894	Call me if you have any questions.	Call me if you have any questions.	119527018	1475198403355	1475198403557	u	85
235155	2516894	Call me if you have any questions.	Call me if you have any questions.	119527039	1475198403468	1475198403691	 	32
235155	2516894	Call me if you have any questions.	Call me if you have any questions.	119527037	1475198403563	1475198403676	h	72
235155	2516894	Call me if you have any questions.	Call me if you have any questions.	119527041	1475198403661	1475198403817	a	65
235155	2516894	Call me if you have any questions.	Call me if you have any questions.	119527042	1475198403771	1475198403870	v	86
235155	2516894	Call me if you have any questions.	Call me if you have any questions.	119527044	1475198403864	1475198404038	e	69
235155	2516894	Call me if you have any questions.	Call me if you have any questions.	119527070	1475198403948	1475198404084	 	32
235155	2516894	Call me if you have any questions.	Call me if you have any questions.	119527072	1475198404060	1475198404227	a	65
235155	2516894	Call me if you have any questions.	Call me if you have any questions.	119527075	1475198404218	1475198404348	n	78
235155	2516894	Call me if you have any questions.	Call me if you have any questions.	119527079	1475198404456	1475198404574	y	89
235155	2516894	Call me if you have any questions.	Call me if you have any questions.	119527084	1475198404634	1475198404770	 	32
235155	2516894	Call me if you have any questions.	Call me if you have any questions.	119527109	1475198404728	1475198404874	q	81
235155	2516894	Call me if you have any questions.	Call me if you have any questions.	119527112	1475198404840	1475198405002	u	85
235155	2516894	Call me if you have any questions.	Call me if you have any questions.	119527117	1475198404973	1475198405155	e	69
235155	2516894	Call me if you have any questions.	Call me if you have any questions.	119527120	1475198405069	1475198405240	s	83
235155	2516894	Call me if you have any questions.	Call me if you have any questions.	119527154	1475198405177	1475198405342	t	84
235155	2516894	Call me if you have any questions.	Call me if you have any questions.	119527158	1475198405202	1475198405350	i	73
235155	2516894	Call me if you have any questions.	Call me if you have any questions.	119527163	1475198405276	1475198405434	o	79
235155	2516894	Call me if you have any questions.	Call me if you have any questions.	119527169	1475198405381	1475198405518	n	78
235155	2516894	Call me if you have any questions.	Call me if you have any questions.	119527173	1475198405486	1475198405666	s	83
235155	2516902	I'll get you one.	I'll get you one.	119527299	1475198407418	1475198407596	SHIFT	16
235155	2516902	I'll get you one.	I'll get you one.	119527300	1475198407540	1475198407654	I	73
235155	2516902	I'll get you one.	I'll get you one.	119527302	1475198407712	1475198407822	'	222
235155	2516902	I'll get you one.	I'll get you one.	119527305	1475198407788	1475198407895	l	76
235155	2516902	I'll get you one.	I'll get you one.	119527309	1475198407975	1475198408103	l	76
235155	2516902	I'll get you one.	I'll get you one.	119527324	1475198408063	1475198408223	 	32
235155	2516902	I'll get you one.	I'll get you one.	119527328	1475198408209	1475198408324	g	71
235155	2516902	I'll get you one.	I'll get you one.	119527330	1475198408262	1475198408454	e	69
235155	2516902	I'll get you one.	I'll get you one.	119527331	1475198408350	1475198408518	t	84
235155	2516902	I'll get you one.	I'll get you one.	119527333	1475198408414	1475198408560	 	32
235155	2516902	I'll get you one.	I'll get you one.	119527336	1475198408470	1475198408610	y	89
235155	2516902	I'll get you one.	I'll get you one.	119527342	1475198408548	1475198408654	o	79
235155	2516902	I'll get you one.	I'll get you one.	119527349	1475198408626	1475198408791	u	85
235155	2516902	I'll get you one.	I'll get you one.	119527356	1475198408706	1475198408914	 	32
235155	2516902	I'll get you one.	I'll get you one.	119527373	1475198408780	1475198408947	o	79
235155	2516902	I'll get you one.	I'll get you one.	119527377	1475198408894	1475198409024	n	78
235155	2516902	I'll get you one.	I'll get you one.	119527384	1475198408980	1475198409148	e	69
235155	2516906	The night promised to be long.	The night promised to be long.	119527546	1475198410892	1475198411127	SHIFT	16
235155	2516906	The night promised to be long.	The night promised to be long.	119527550	1475198411035	1475198411167	T	84
235155	2516906	The night promised to be long.	The night promised to be long.	119527554	1475198411163	1475198411274	h	72
235155	2516906	The night promised to be long.	The night promised to be long.	119527560	1475198411244	1475198411372	e	69
235155	2516906	The night promised to be long.	The night promised to be long.	119527566	1475198411334	1475198411538	 	32
235155	2516906	The night promised to be long.	The night promised to be long.	119527580	1475198411384	1475198411556	n	78
235155	2516906	The night promised to be long.	The night promised to be long.	119527581	1475198411476	1475198411628	i	73
235155	2516906	The night promised to be long.	The night promised to be long.	119527582	1475198411572	1475198411688	g	71
235155	2516906	The night promised to be long.	The night promised to be long.	119527583	1475198411694	1475198411824	h	72
235155	2516906	The night promised to be long.	The night promised to be long.	119527584	1475198411810	1475198411954	t	84
235155	2516906	The night promised to be long.	The night promised to be long.	119527619	1475198411882	1475198412088	 	32
235155	2516906	The night promised to be long.	The night promised to be long.	119527625	1475198411944	1475198412093	p	80
235155	2516906	The night promised to be long.	The night promised to be long.	119527628	1475198412074	1475198412233	r	82
235155	2516906	The night promised to be long.	The night promised to be long.	119527630	1475198412162	1475198412331	o	79
235155	2516906	The night promised to be long.	The night promised to be long.	119527632	1475198412290	1475198412415	m	77
235155	2516906	The night promised to be long.	The night promised to be long.	119527633	1475198412425	1475198412589	i	73
235155	2516906	The night promised to be long.	The night promised to be long.	119527644	1475198412521	1475198412657	s	83
235155	2516906	The night promised to be long.	The night promised to be long.	119527647	1475198412611	1475198412689	e	69
235155	2516906	The night promised to be long.	The night promised to be long.	119527652	1475198412774	1475198412888	d	68
235155	2516906	The night promised to be long.	The night promised to be long.	119527656	1475198412848	1475198412986	 	32
235155	2516906	The night promised to be long.	The night promised to be long.	119527660	1475198412922	1475198413087	t	84
235155	2516906	The night promised to be long.	The night promised to be long.	119527710	1475198413016	1475198413124	o	79
235155	2516906	The night promised to be long.	The night promised to be long.	119527714	1475198413080	1475198413250	 	32
235155	2516906	The night promised to be long.	The night promised to be long.	119527719	1475198413186	1475198413292	b	66
235155	2516906	The night promised to be long.	The night promised to be long.	119527724	1475198413268	1475198413412	e	69
235155	2516906	The night promised to be long.	The night promised to be long.	119527730	1475198413330	1475198413507	 	32
235155	2516906	The night promised to be long.	The night promised to be long.	119527738	1475198413466	1475198413539	l	76
235155	2516906	The night promised to be long.	The night promised to be long.	119527747	1475198413632	1475198413780	o	79
235155	2516906	The night promised to be long.	The night promised to be long.	119527744	1475198413722	1475198413856	n	78
235155	2516906	The night promised to be long.	The night promised to be long.	119527751	1475198413841	1475198414007	g	71
235155	2516910	Let's have this meeting today or tonight.	Let's have this meeting today or tonight.	119527860	1475198415554	1475198415732	SHIFT	16
235155	2516910	Let's have this meeting today or tonight.	Let's have this meeting today or tonight.	119527861	1475198415635	1475198415748	L	76
235155	2516910	Let's have this meeting today or tonight.	Let's have this meeting today or tonight.	119527862	1475198415770	1475198415949	e	69
235155	2516910	Let's have this meeting today or tonight.	Let's have this meeting today or tonight.	119527864	1475198415850	1475198415998	t	84
235155	2516910	Let's have this meeting today or tonight.	Let's have this meeting today or tonight.	119527866	1475198415940	1475198416044	'	222
235155	2516910	Let's have this meeting today or tonight.	Let's have this meeting today or tonight.	119527868	1475198416052	1475198416198	s	83
235155	2516910	Let's have this meeting today or tonight.	Let's have this meeting today or tonight.	119527881	1475198416142	1475198416330	 	32
235155	2516910	Let's have this meeting today or tonight.	Let's have this meeting today or tonight.	119527884	1475198416266	1475198416358	h	72
235155	2516910	Let's have this meeting today or tonight.	Let's have this meeting today or tonight.	119527886	1475198416314	1475198416446	a	65
235155	2516910	Let's have this meeting today or tonight.	Let's have this meeting today or tonight.	119527889	1475198416498	1475198416604	v	86
235155	2516910	Let's have this meeting today or tonight.	Let's have this meeting today or tonight.	119527892	1475198416678	1475198416833	e	69
235155	2516910	Let's have this meeting today or tonight.	Let's have this meeting today or tonight.	119527908	1475198416760	1475198416951	 	32
235155	2516910	Let's have this meeting today or tonight.	Let's have this meeting today or tonight.	119527913	1475198416800	1475198416953	t	84
235155	2516910	Let's have this meeting today or tonight.	Let's have this meeting today or tonight.	119527917	1475198416901	1475198417049	h	72
235155	2516910	Let's have this meeting today or tonight.	Let's have this meeting today or tonight.	119527920	1475198416963	1475198417087	i	73
235155	2516910	Let's have this meeting today or tonight.	Let's have this meeting today or tonight.	119527922	1475198417041	1475198417171	s	83
235155	2516910	Let's have this meeting today or tonight.	Let's have this meeting today or tonight.	119527923	1475198417119	1475198417300	 	32
235155	2516910	Let's have this meeting today or tonight.	Let's have this meeting today or tonight.	119527927	1475198417199	1475198417360	m	77
235155	2516910	Let's have this meeting today or tonight.	Let's have this meeting today or tonight.	119527925	1475198417264	1475198417332	e	69
235155	2516910	Let's have this meeting today or tonight.	Let's have this meeting today or tonight.	119527930	1475198417424	1475198417587	e	69
235155	2516910	Let's have this meeting today or tonight.	Let's have this meeting today or tonight.	119527934	1475198417528	1475198417664	t	84
235155	2516910	Let's have this meeting today or tonight.	Let's have this meeting today or tonight.	119527938	1475198417638	1475198417798	i	73
235155	2516910	Let's have this meeting today or tonight.	Let's have this meeting today or tonight.	119527947	1475198417708	1475198417850	n	78
235155	2516910	Let's have this meeting today or tonight.	Let's have this meeting today or tonight.	119527952	1475198417788	1475198417884	g	71
235155	2516910	Let's have this meeting today or tonight.	Let's have this meeting today or tonight.	119527956	1475198417892	1475198418042	 	32
235155	2516910	Let's have this meeting today or tonight.	Let's have this meeting today or tonight.	119527960	1475198417974	1475198418106	t	84
235155	2516910	Let's have this meeting today or tonight.	Let's have this meeting today or tonight.	119527965	1475198418068	1475198418183	o	79
235155	2516910	Let's have this meeting today or tonight.	Let's have this meeting today or tonight.	119527972	1475198418176	1475198418326	d	68
235155	2516910	Let's have this meeting today or tonight.	Let's have this meeting today or tonight.	119528007	1475198418246	1475198418417	a	65
235155	2516910	Let's have this meeting today or tonight.	Let's have this meeting today or tonight.	119528014	1475198418319	1475198418475	y	89
235155	2516910	Let's have this meeting today or tonight.	Let's have this meeting today or tonight.	119528019	1475198418369	1475198418523	 	32
235155	2516910	Let's have this meeting today or tonight.	Let's have this meeting today or tonight.	119528025	1475198418477	1475198418601	o	79
235155	2516910	Let's have this meeting today or tonight.	Let's have this meeting today or tonight.	119528029	1475198418567	1475198418691	r	82
235155	2516910	Let's have this meeting today or tonight.	Let's have this meeting today or tonight.	119528059	1475198418659	1475198418974	 	32
235155	2516910	Let's have this meeting today or tonight.	Let's have this meeting today or tonight.	119528032	1475198418766	1475198418916	t	84
235155	2516910	Let's have this meeting today or tonight.	Let's have this meeting today or tonight.	119528056	1475198418804	1475198418940	o	79
235155	2516910	Let's have this meeting today or tonight.	Let's have this meeting today or tonight.	119528063	1475198418896	1475198419032	n	78
235155	2516910	Let's have this meeting today or tonight.	Let's have this meeting today or tonight.	119528068	1475198418956	1475198419100	i	73
235155	2516910	Let's have this meeting today or tonight.	Let's have this meeting today or tonight.	119528071	1475198419062	1475198419184	g	71
235155	2516910	Let's have this meeting today or tonight.	Let's have this meeting today or tonight.	119528074	1475198419164	1475198419303	h	72
235155	2516910	Let's have this meeting today or tonight.	Let's have this meeting today or tonight.	119528078	1475198419278	1475198419469	t	84
235155	2516921	I want to compare the two.	I want to compare the two.	119528194	1475198421290	1475198421465	SHIFT	16
235155	2516921	I want to compare the two.	I want to compare the two.	119528196	1475198421393	1475198421567	I	73
235155	2516921	I want to compare the two.	I want to compare the two.	119528198	1475198421495	1475198421661	 	32
235155	2516921	I want to compare the two.	I want to compare the two.	119528199	1475198421585	1475198421705	w	87
235155	2516921	I want to compare the two.	I want to compare the two.	119528200	1475198421641	1475198421806	a	65
235155	2516921	I want to compare the two.	I want to compare the two.	119528207	1475198421744	1475198421862	n	78
235155	2516921	I want to compare the two.	I want to compare the two.	119528208	1475198421828	1475198421958	t	84
235155	2516921	I want to compare the two.	I want to compare the two.	119528211	1475198421934	1475198422056	 	32
235155	2516921	I want to compare the two.	I want to compare the two.	119528214	1475198422028	1475198422134	t	84
235155	2516921	I want to compare the two.	I want to compare the two.	119528218	1475198422106	1475198422244	o	79
235155	2516921	I want to compare the two.	I want to compare the two.	119528239	1475198422162	1475198422319	 	32
235155	2516921	I want to compare the two.	I want to compare the two.	119528244	1475198422280	1475198422410	c	67
235155	2516921	I want to compare the two.	I want to compare the two.	119528249	1475198422348	1475198422455	o	79
235155	2516921	I want to compare the two.	I want to compare the two.	119528254	1475198422422	1475198422557	m	77
235155	2516921	I want to compare the two.	I want to compare the two.	119528259	1475198422536	1475198422693	p	80
235155	2516921	I want to compare the two.	I want to compare the two.	119528269	1475198422608	1475198422781	a	65
235155	2516921	I want to compare the two.	I want to compare the two.	119528272	1475198422698	1475198422837	r	82
235155	2516921	I want to compare the two.	I want to compare the two.	119528275	1475198422766	1475198422953	e	69
235155	2516921	I want to compare the two.	I want to compare the two.	119528279	1475198422873	1475198423011	 	32
235155	2516921	I want to compare the two.	I want to compare the two.	119528281	1475198422919	1475198423075	t	84
235155	2516921	I want to compare the two.	I want to compare the two.	119528292	1475198423035	1475198423159	h	72
235155	2516921	I want to compare the two.	I want to compare the two.	119528295	1475198423108	1475198423252	e	69
235155	2516921	I want to compare the two.	I want to compare the two.	119528298	1475198423207	1475198423348	 	32
235155	2516921	I want to compare the two.	I want to compare the two.	119528299	1475198423270	1475198423440	t	84
235155	2516921	I want to compare the two.	I want to compare the two.	119528313	1475198423374	1475198423538	w	87
235155	2516921	I want to compare the two.	I want to compare the two.	119528316	1475198423436	1475198423554	o	79
235155	2516930	There was no such accord.	There was no such accord.	119528411	1475198425344	1475198425536	SHIFT	16
235155	2516930	There was no such accord.	There was no such accord.	119528412	1475198425472	1475198425599	T	84
235155	2516930	There was no such accord.	There was no such accord.	119528414	1475198425572	1475198425727	h	72
235155	2516930	There was no such accord.	There was no such accord.	119528418	1475198425633	1475198425743	e	69
235155	2516930	There was no such accord.	There was no such accord.	119528424	1475198425711	1475198425903	r	82
235155	2516930	There was no such accord.	There was no such accord.	119528452	1475198425821	1475198425955	e	69
235155	2516930	There was no such accord.	There was no such accord.	119528455	1475198425919	1475198426063	 	32
235155	2516930	There was no such accord.	There was no such accord.	119528457	1475198425977	1475198426065	w	87
235155	2516930	There was no such accord.	There was no such accord.	119528459	1475198426029	1475198426210	a	65
235155	2516930	There was no such accord.	There was no such accord.	119528460	1475198426137	1475198426290	s	83
235155	2516930	There was no such accord.	There was no such accord.	119528471	1475198426242	1475198426411	 	32
235155	2516930	There was no such accord.	There was no such accord.	119528475	1475198426330	1475198426496	n	78
235155	2516930	There was no such accord.	There was no such accord.	119528479	1475198426400	1475198426548	o	79
235155	2516930	There was no such accord.	There was no such accord.	119528483	1475198426520	1475198426648	 	32
235155	2516930	There was no such accord.	There was no such accord.	119528487	1475198426582	1475198426732	s	83
235155	2516930	There was no such accord.	There was no such accord.	119528496	1475198426676	1475198426778	u	85
235155	2516930	There was no such accord.	There was no such accord.	119528500	1475198426782	1475198426906	c	67
235155	2516930	There was no such accord.	There was no such accord.	119528503	1475198426882	1475198427010	h	72
235155	2516930	There was no such accord.	There was no such accord.	119528506	1475198426918	1475198427097	 	32
235155	2516930	There was no such accord.	There was no such accord.	119528544	1475198426970	1475198427171	a	65
235155	2516930	There was no such accord.	There was no such accord.	119528547	1475198427088	1475198427187	c	67
235155	2516930	There was no such accord.	There was no such accord.	119528552	1475198427305	1475198427449	c	67
235155	2516930	There was no such accord.	There was no such accord.	119528557	1475198427439	1475198427603	o	79
235155	2516930	There was no such accord.	There was no such accord.	119528559	1475198427635	1475198427812	r	82
235155	2516930	There was no such accord.	There was no such accord.	119528565	1475198427774	1475198427958	d	68
