PARTICIPANT_ID	TEST_SECTION_ID	SENTENCE	USER_INPUT	KEYSTROKE_ID	PRESS_TIME	RELEASE_TIME	LETTER	KEYCODE
235139	2516540	I've never worked with her.	I've never worked with her.	119509676	1475198161327	1475198161619	SHIFT	16
235139	2516540	I've never worked with her.	I've never worked with her.	119509680	1475198161513	1475198161619	I	73
235139	2516540	I've never worked with her.	I've never worked with her.	119509687	1475198162480	1475198162613	'	222
235139	2516540	I've never worked with her.	I've never worked with her.	119509693	1475198162696	1475198162795	v	86
235139	2516540	I've never worked with her.	I've never worked with her.	119509698	1475198162820	1475198162964	e	69
235139	2516540	I've never worked with her.	I've never worked with her.	119509736	1475198162921	1475198163016	 	32
235139	2516540	I've never worked with her.	I've never worked with her.	119509741	1475198163079	1475198163181	n	78
235139	2516540	I've never worked with her.	I've never worked with her.	119509744	1475198163133	1475198163220	e	69
235139	2516540	I've never worked with her.	I've never worked with her.	119509748	1475198163337	1475198163398	v	86
235139	2516540	I've never worked with her.	I've never worked with her.	119509754	1475198163440	1475198163573	e	69
235139	2516540	I've never worked with her.	I've never worked with her.	119509791	1475198163547	1475198163684	r	82
235139	2516540	I've never worked with her.	I've never worked with her.	119509795	1475198163647	1475198163763	 	32
235139	2516540	I've never worked with her.	I've never worked with her.	119509802	1475198163778	1475198163864	w	87
235139	2516540	I've never worked with her.	I've never worked with her.	119509806	1475198163895	1475198164037	o	79
235139	2516540	I've never worked with her.	I've never worked with her.	119509811	1475198164016	1475198164124	r	82
235139	2516540	I've never worked with her.	I've never worked with her.	119509816	1475198164140	1475198164270	k	75
235139	2516540	I've never worked with her.	I've never worked with her.	119509843	1475198164270	1475198164398	e	69
235139	2516540	I've never worked with her.	I've never worked with her.	119509848	1475198164319	1475198164470	d	68
235139	2516540	I've never worked with her.	I've never worked with her.	119509850	1475198164424	1475198164542	 	32
235139	2516540	I've never worked with her.	I've never worked with her.	119509852	1475198164618	1475198164726	w	87
235139	2516540	I've never worked with her.	I've never worked with her.	119509854	1475198164742	1475198164835	i	73
235139	2516540	I've never worked with her.	I've never worked with her.	119509877	1475198164848	1475198164981	t	84
235139	2516540	I've never worked with her.	I've never worked with her.	119509880	1475198164935	1475198165076	h	72
235139	2516540	I've never worked with her.	I've never worked with her.	119509884	1475198165060	1475198165175	 	32
235139	2516540	I've never worked with her.	I've never worked with her.	119509888	1475198165191	1475198165304	h	72
235139	2516540	I've never worked with her.	I've never worked with her.	119509962	1475198165253	1475198165354	e	69
235139	2516540	I've never worked with her.	I've never worked with her.	119509966	1475198165319	1475198165443	r	82
235139	2516540	I've never worked with her.	I've never worked with her.	119509972	1475198166454	1475198166532	.	190
235139	2516553	We've pursued other options and as a result we've made some progress.	We've pursued other options and as a result we've made some progress.	119510226	1475198169006	1475198169332	SHIFT	16
235139	2516553	We've pursued other options and as a result we've made some progress.	We've pursued other options and as a result we've made some progress.	119510227	1475198169228	1475198169348	W	87
235139	2516553	We've pursued other options and as a result we've made some progress.	We've pursued other options and as a result we've made some progress.	119510231	1475198169636	1475198169711	e	69
235139	2516553	We've pursued other options and as a result we've made some progress.	We've pursued other options and as a result we've made some progress.	119510235	1475198169876	1475198169976	v	86
235139	2516553	We've pursued other options and as a result we've made some progress.	We've pursued other options and as a result we've made some progress.	119510239	1475198170330	1475198170436	BKSP	8
235139	2516553	We've pursued other options and as a result we've made some progress.	We've pursued other options and as a result we've made some progress.	119510241	1475198170682	1475198170779	'	222
235139	2516553	We've pursued other options and as a result we've made some progress.	We've pursued other options and as a result we've made some progress.	119510244	1475198170779	1475198170885	v	86
235139	2516553	We've pursued other options and as a result we've made some progress.	We've pursued other options and as a result we've made some progress.	119510396	1475198170867	1475198170983	e	69
235139	2516553	We've pursued other options and as a result we've made some progress.	We've pursued other options and as a result we've made some progress.	119510400	1475198171063	1475198171173	 	32
235139	2516553	We've pursued other options and as a result we've made some progress.	We've pursued other options and as a result we've made some progress.	119510405	1475198171906	1475198172006	p	80
235139	2516553	We've pursued other options and as a result we've made some progress.	We've pursued other options and as a result we've made some progress.	119510411	1475198172606	1475198172716	u	85
235139	2516553	We've pursued other options and as a result we've made some progress.	We've pursued other options and as a result we've made some progress.	119510414	1475198172716	1475198172817	r	82
235139	2516553	We've pursued other options and as a result we've made some progress.	We've pursued other options and as a result we've made some progress.	119510420	1475198172994	1475198173141	s	83
235139	2516553	We've pursued other options and as a result we've made some progress.	We've pursued other options and as a result we've made some progress.	119510477	1475198173282	1475198173429	u	85
235139	2516553	We've pursued other options and as a result we've made some progress.	We've pursued other options and as a result we've made some progress.	119510480	1475198173518	1475198173685	e	69
235139	2516553	We've pursued other options and as a result we've made some progress.	We've pursued other options and as a result we've made some progress.	119510483	1475198173642	1475198173797	d	68
235139	2516553	We've pursued other options and as a result we've made some progress.	We've pursued other options and as a result we've made some progress.	119510485	1475198173752	1475198173887	 	32
235139	2516553	We've pursued other options and as a result we've made some progress.	We've pursued other options and as a result we've made some progress.	119510487	1475198174106	1475198174213	o	79
235139	2516553	We've pursued other options and as a result we've made some progress.	We've pursued other options and as a result we've made some progress.	119510500	1475198174261	1475198174373	t	84
235139	2516553	We've pursued other options and as a result we've made some progress.	We've pursued other options and as a result we've made some progress.	119510505	1475198174321	1475198174469	h	72
235139	2516553	We've pursued other options and as a result we've made some progress.	We've pursued other options and as a result we've made some progress.	119510512	1475198174436	1475198174557	e	69
235139	2516553	We've pursued other options and as a result we've made some progress.	We've pursued other options and as a result we've made some progress.	119510517	1475198174506	1475198174677	r	82
235139	2516553	We've pursued other options and as a result we've made some progress.	We've pursued other options and as a result we've made some progress.	119510572	1475198174583	1475198174704	 	32
235139	2516553	We've pursued other options and as a result we've made some progress.	We've pursued other options and as a result we've made some progress.	119510574	1475198174788	1475198174856	o	79
235139	2516553	We've pursued other options and as a result we've made some progress.	We've pursued other options and as a result we've made some progress.	119510577	1475198175027	1475198175099	p	80
235139	2516553	We've pursued other options and as a result we've made some progress.	We've pursued other options and as a result we've made some progress.	119510580	1475198175238	1475198175339	t	84
235139	2516553	We've pursued other options and as a result we've made some progress.	We've pursued other options and as a result we've made some progress.	119510585	1475198175355	1475198175492	i	73
235139	2516553	We've pursued other options and as a result we've made some progress.	We've pursued other options and as a result we've made some progress.	119510590	1475198175524	1475198175669	o	79
235139	2516553	We've pursued other options and as a result we've made some progress.	We've pursued other options and as a result we've made some progress.	119510623	1475198175647	1475198175792	n	78
235139	2516553	We've pursued other options and as a result we've made some progress.	We've pursued other options and as a result we've made some progress.	119510627	1475198175709	1475198175860	s	83
235139	2516553	We've pursued other options and as a result we've made some progress.	We've pursued other options and as a result we've made some progress.	119510630	1475198175824	1475198175957	 	32
235139	2516553	We've pursued other options and as a result we've made some progress.	We've pursued other options and as a result we've made some progress.	119510633	1475198175928	1475198176097	a	65
235139	2516553	We've pursued other options and as a result we've made some progress.	We've pursued other options and as a result we've made some progress.	119510636	1475198176097	1475198176211	n	78
235139	2516553	We've pursued other options and as a result we've made some progress.	We've pursued other options and as a result we've made some progress.	119510715	1475198176175	1475198176403	d	68
235139	2516553	We've pursued other options and as a result we've made some progress.	We've pursued other options and as a result we've made some progress.	119510717	1475198176313	1475198176485	 	32
235139	2516553	We've pursued other options and as a result we've made some progress.	We've pursued other options and as a result we've made some progress.	119510720	1475198176832	1475198176946	a	65
235139	2516553	We've pursued other options and as a result we've made some progress.	We've pursued other options and as a result we've made some progress.	119510725	1475198176914	1475198177049	s	83
235139	2516553	We've pursued other options and as a result we've made some progress.	We've pursued other options and as a result we've made some progress.	119510727	1475198177049	1475198177175	 	32
235139	2516553	We've pursued other options and as a result we've made some progress.	We've pursued other options and as a result we've made some progress.	119510731	1475198177200	1475198177349	a	65
235139	2516553	We've pursued other options and as a result we've made some progress.	We've pursued other options and as a result we've made some progress.	119510798	1475198177317	1475198177411	 	32
235139	2516553	We've pursued other options and as a result we've made some progress.	We've pursued other options and as a result we've made some progress.	119510806	1475198177493	1475198177629	r	82
235139	2516553	We've pursued other options and as a result we've made some progress.	We've pursued other options and as a result we've made some progress.	119510809	1475198177578	1475198177733	e	69
235139	2516553	We've pursued other options and as a result we've made some progress.	We've pursued other options and as a result we've made some progress.	119510813	1475198177717	1475198177852	s	83
235139	2516553	We've pursued other options and as a result we've made some progress.	We've pursued other options and as a result we've made some progress.	119510817	1475198178062	1475198178137	u	85
235139	2516553	We've pursued other options and as a result we've made some progress.	We've pursued other options and as a result we've made some progress.	119510821	1475198178293	1475198178399	l	76
235139	2516553	We've pursued other options and as a result we've made some progress.	We've pursued other options and as a result we've made some progress.	119510864	1475198178364	1475198178547	t	84
235139	2516553	We've pursued other options and as a result we've made some progress.	We've pursued other options and as a result we've made some progress.	119510870	1475198178463	1475198178578	 	32
235139	2516553	We've pursued other options and as a result we've made some progress.	We've pursued other options and as a result we've made some progress.	119510878	1475198178703	1475198178821	w	87
235139	2516553	We've pursued other options and as a result we've made some progress.	We've pursued other options and as a result we've made some progress.	119510881	1475198178781	1475198178899	e	69
235139	2516553	We've pursued other options and as a result we've made some progress.	We've pursued other options and as a result we've made some progress.	119510885	1475198179117	1475198179222	'	222
235139	2516553	We've pursued other options and as a result we've made some progress.	We've pursued other options and as a result we've made some progress.	119510894	1475198179331	1475198179400	v	86
235139	2516553	We've pursued other options and as a result we've made some progress.	We've pursued other options and as a result we've made some progress.	119510931	1475198179493	1475198179621	e	69
235139	2516553	We've pursued other options and as a result we've made some progress.	We've pursued other options and as a result we've made some progress.	119510932	1475198179604	1475198179720	 	32
235139	2516553	We've pursued other options and as a result we've made some progress.	We've pursued other options and as a result we've made some progress.	119510933	1475198179953	1475198180085	m	77
235139	2516553	We've pursued other options and as a result we've made some progress.	We've pursued other options and as a result we've made some progress.	119510936	1475198180043	1475198180165	a	65
235139	2516553	We've pursued other options and as a result we've made some progress.	We've pursued other options and as a result we've made some progress.	119510965	1475198180136	1475198180277	d	68
235139	2516553	We've pursued other options and as a result we've made some progress.	We've pursued other options and as a result we've made some progress.	119510969	1475198180257	1475198180389	e	69
235139	2516553	We've pursued other options and as a result we've made some progress.	We've pursued other options and as a result we've made some progress.	119510974	1475198180333	1475198180469	 	32
235139	2516553	We've pursued other options and as a result we've made some progress.	We've pursued other options and as a result we've made some progress.	119510978	1475198180501	1475198180597	s	83
235139	2516553	We've pursued other options and as a result we've made some progress.	We've pursued other options and as a result we've made some progress.	119510981	1475198180568	1475198180703	o	79
235139	2516553	We've pursued other options and as a result we've made some progress.	We've pursued other options and as a result we've made some progress.	119511027	1475198180652	1475198180804	m	77
235139	2516553	We've pursued other options and as a result we've made some progress.	We've pursued other options and as a result we've made some progress.	119511030	1475198180722	1475198180855	e	69
235139	2516553	We've pursued other options and as a result we've made some progress.	We've pursued other options and as a result we've made some progress.	119511032	1475198180820	1475198180928	 	32
235139	2516553	We've pursued other options and as a result we've made some progress.	We've pursued other options and as a result we've made some progress.	119511033	1475198181004	1475198181110	p	80
235139	2516553	We've pursued other options and as a result we've made some progress.	We've pursued other options and as a result we've made some progress.	119511034	1475198181173	1475198181284	r	82
235139	2516553	We've pursued other options and as a result we've made some progress.	We've pursued other options and as a result we've made some progress.	119511035	1475198181605	1475198181736	o	79
235139	2516553	We've pursued other options and as a result we've made some progress.	We've pursued other options and as a result we've made some progress.	119511078	1475198181883	1475198181970	g	71
235139	2516553	We've pursued other options and as a result we've made some progress.	We've pursued other options and as a result we've made some progress.	119511082	1475198182244	1475198182347	r	82
235139	2516553	We've pursued other options and as a result we've made some progress.	We've pursued other options and as a result we've made some progress.	119511087	1475198182405	1475198182488	e	69
235139	2516553	We've pursued other options and as a result we've made some progress.	We've pursued other options and as a result we've made some progress.	119511093	1475198182613	1475198182689	s	83
235139	2516553	We've pursued other options and as a result we've made some progress.	We've pursued other options and as a result we've made some progress.	119511100	1475198182781	1475198182874	s	83
235139	2516553	We've pursued other options and as a result we've made some progress.	We've pursued other options and as a result we've made some progress.	119511248	1475198183350	1475198183408	,	188
235139	2516553	We've pursued other options and as a result we've made some progress.	We've pursued other options and as a result we've made some progress.	119511251	1475198183681	1475198183797	BKSP	8
235139	2516553	We've pursued other options and as a result we've made some progress.	We've pursued other options and as a result we've made some progress.	119511253	1475198184516	1475198184624	.	190
235139	2516576	The matter was still being investigated.	The matter was still being investigated.	119511428	1475198187314	1475198187584	SHIFT	16
235139	2516576	The matter was still being investigated.	The matter was still being investigated.	119511434	1475198187541	1475198187615	T	84
235139	2516576	The matter was still being investigated.	The matter was still being investigated.	119511439	1475198187672	1475198187797	h	72
235139	2516576	The matter was still being investigated.	The matter was still being investigated.	119511443	1475198187759	1475198187886	e	69
235139	2516576	The matter was still being investigated.	The matter was still being investigated.	119511446	1475198187860	1475198187968	 	32
235139	2516576	The matter was still being investigated.	The matter was still being investigated.	119511448	1475198187983	1475198188089	m	77
235139	2516576	The matter was still being investigated.	The matter was still being investigated.	119511484	1475198188089	1475198188199	a	65
235139	2516576	The matter was still being investigated.	The matter was still being investigated.	119511488	1475198188231	1475198188358	t	84
235139	2516576	The matter was still being investigated.	The matter was still being investigated.	119511491	1475198188462	1475198188519	t	84
235139	2516576	The matter was still being investigated.	The matter was still being investigated.	119511498	1475198188654	1475198188757	e	69
235139	2516576	The matter was still being investigated.	The matter was still being investigated.	119511531	1475198188734	1475198188903	r	82
235139	2516576	The matter was still being investigated.	The matter was still being investigated.	119511533	1475198188852	1475198188976	 	32
235139	2516576	The matter was still being investigated.	The matter was still being investigated.	119511538	1475198188991	1475198189123	w	87
235139	2516576	The matter was still being investigated.	The matter was still being investigated.	119511542	1475198189090	1475198189253	a	65
235139	2516576	The matter was still being investigated.	The matter was still being investigated.	119511546	1475198189211	1475198189349	s	83
235139	2516576	The matter was still being investigated.	The matter was still being investigated.	119511609	1475198189324	1475198189460	 	32
235139	2516576	The matter was still being investigated.	The matter was still being investigated.	119511612	1475198189507	1475198189618	s	83
235139	2516576	The matter was still being investigated.	The matter was still being investigated.	119511616	1475198189675	1475198189771	t	84
235139	2516576	The matter was still being investigated.	The matter was still being investigated.	119511621	1475198189787	1475198189865	i	73
235139	2516576	The matter was still being investigated.	The matter was still being investigated.	119511624	1475198190004	1475198190056	l	76
235139	2516576	The matter was still being investigated.	The matter was still being investigated.	119511628	1475198190135	1475198190258	l	76
235139	2516576	The matter was still being investigated.	The matter was still being investigated.	119511740	1475198190222	1475198190319	 	32
235139	2516576	The matter was still being investigated.	The matter was still being investigated.	119511742	1475198190505	1475198190533	v	86
235139	2516576	The matter was still being investigated.	The matter was still being investigated.	119511744	1475198190863	1475198190974	BKSP	8
235139	2516576	The matter was still being investigated.	The matter was still being investigated.	119511746	1475198191181	1475198191299	b	66
235139	2516576	The matter was still being investigated.	The matter was still being investigated.	119511751	1475198191840	1475198191910	e	69
235139	2516576	The matter was still being investigated.	The matter was still being investigated.	119511755	1475198191982	1475198192127	i	73
235139	2516576	The matter was still being investigated.	The matter was still being investigated.	119511809	1475198192070	1475198192229	n	78
235139	2516576	The matter was still being investigated.	The matter was still being investigated.	119511813	1475198192201	1475198192357	g	71
235139	2516576	The matter was still being investigated.	The matter was still being investigated.	119511817	1475198192309	1475198192433	 	32
235139	2516576	The matter was still being investigated.	The matter was still being investigated.	119511820	1475198192868	1475198192965	i	73
235139	2516576	The matter was still being investigated.	The matter was still being investigated.	119511824	1475198192929	1475198193084	n	78
235139	2516576	The matter was still being investigated.	The matter was still being investigated.	119511827	1475198193084	1475198193131	v	86
235139	2516576	The matter was still being investigated.	The matter was still being investigated.	119511876	1475198193194	1475198193402	e	69
235139	2516576	The matter was still being investigated.	The matter was still being investigated.	119511882	1475198193304	1475198193493	s	83
235139	2516576	The matter was still being investigated.	The matter was still being investigated.	119511888	1475198193461	1475198193545	t	84
235139	2516576	The matter was still being investigated.	The matter was still being investigated.	119511891	1475198193643	1475198193764	i	73
235139	2516576	The matter was still being investigated.	The matter was still being investigated.	119511893	1475198193780	1475198193880	g	71
235139	2516576	The matter was still being investigated.	The matter was still being investigated.	119511927	1475198193987	1475198194105	a	65
235139	2516576	The matter was still being investigated.	The matter was still being investigated.	119511932	1475198194136	1475198194281	t	84
235139	2516576	The matter was still being investigated.	The matter was still being investigated.	119511936	1475198194281	1475198194433	e	69
235139	2516576	The matter was still being investigated.	The matter was still being investigated.	119511939	1475198194374	1475198194466	r	82
235139	2516576	The matter was still being investigated.	The matter was still being investigated.	119511942	1475198194466	1475198194566	d	68
235139	2516576	The matter was still being investigated.	The matter was still being investigated.	119512026	1475198194965	1475198195018	BKSP	8
235139	2516576	The matter was still being investigated.	The matter was still being investigated.	119512028	1475198195122	1475198195193	BKSP	8
235139	2516576	The matter was still being investigated.	The matter was still being investigated.	119512032	1475198195240	1475198195389	d	68
235139	2516576	The matter was still being investigated.	The matter was still being investigated.	119512037	1475198195892	1475198195977	.	190
235139	2516597	It is definitely time to give up on the disappointing wideout.	It is definitely time to give up on the disappointing wideout.	119512219	1475198198140	1475198198479	SHIFT	16
235139	2516597	It is definitely time to give up on the disappointing wideout.	It is definitely time to give up on the disappointing wideout.	119512223	1475198198398	1475198198526	I	73
235139	2516597	It is definitely time to give up on the disappointing wideout.	It is definitely time to give up on the disappointing wideout.	119512228	1475198198580	1475198198725	t	84
235139	2516597	It is definitely time to give up on the disappointing wideout.	It is definitely time to give up on the disappointing wideout.	119512233	1475198198675	1475198198782	 	32
235139	2516597	It is definitely time to give up on the disappointing wideout.	It is definitely time to give up on the disappointing wideout.	119512239	1475198198797	1475198198925	i	73
235139	2516597	It is definitely time to give up on the disappointing wideout.	It is definitely time to give up on the disappointing wideout.	119512245	1475198198925	1475198199043	s	83
235139	2516597	It is definitely time to give up on the disappointing wideout.	It is definitely time to give up on the disappointing wideout.	119512301	1475198198991	1475198199114	 	32
235139	2516597	It is definitely time to give up on the disappointing wideout.	It is definitely time to give up on the disappointing wideout.	119512304	1475198199248	1475198199357	d	68
235139	2516597	It is definitely time to give up on the disappointing wideout.	It is definitely time to give up on the disappointing wideout.	119512308	1475198199408	1475198199539	e	69
235139	2516597	It is definitely time to give up on the disappointing wideout.	It is definitely time to give up on the disappointing wideout.	119512313	1475198199555	1475198199657	f	70
235139	2516597	It is definitely time to give up on the disappointing wideout.	It is definitely time to give up on the disappointing wideout.	119512318	1475198199680	1475198199797	i	73
235139	2516597	It is definitely time to give up on the disappointing wideout.	It is definitely time to give up on the disappointing wideout.	119512326	1475198199877	1475198199959	n	78
235139	2516597	It is definitely time to give up on the disappointing wideout.	It is definitely time to give up on the disappointing wideout.	119512353	1475198199975	1475198200116	i	73
235139	2516597	It is definitely time to give up on the disappointing wideout.	It is definitely time to give up on the disappointing wideout.	119512356	1475198200116	1475198200228	t	84
235139	2516597	It is definitely time to give up on the disappointing wideout.	It is definitely time to give up on the disappointing wideout.	119512359	1475198200203	1475198200297	e	69
235139	2516597	It is definitely time to give up on the disappointing wideout.	It is definitely time to give up on the disappointing wideout.	119512363	1475198200360	1475198200517	l	76
235139	2516597	It is definitely time to give up on the disappointing wideout.	It is definitely time to give up on the disappointing wideout.	119512456	1475198200495	1475198200562	y	85
235139	2516597	It is definitely time to give up on the disappointing wideout.	It is definitely time to give up on the disappointing wideout.	119512459	1475198200562	1475198200681	 	32
235139	2516597	It is definitely time to give up on the disappointing wideout.	It is definitely time to give up on the disappointing wideout.	119512465	1475198200996	1475198201077	BKSP	8
235139	2516597	It is definitely time to give up on the disappointing wideout.	It is definitely time to give up on the disappointing wideout.	119512468	1475198201146	1475198201229	BKSP	8
235139	2516597	It is definitely time to give up on the disappointing wideout.	It is definitely time to give up on the disappointing wideout.	119512470	1475198201286	1475198201404	BKSP	8
235139	2516597	It is definitely time to give up on the disappointing wideout.	It is definitely time to give up on the disappointing wideout.	119512474	1475198201404	1475198201532	y	89
235139	2516597	It is definitely time to give up on the disappointing wideout.	It is definitely time to give up on the disappointing wideout.	119512479	1475198201465	1475198201587	 	32
235139	2516597	It is definitely time to give up on the disappointing wideout.	It is definitely time to give up on the disappointing wideout.	119512484	1475198201729	1475198201823	t	84
235139	2516597	It is definitely time to give up on the disappointing wideout.	It is definitely time to give up on the disappointing wideout.	119512494	1475198201823	1475198201947	i	73
235139	2516597	It is definitely time to give up on the disappointing wideout.	It is definitely time to give up on the disappointing wideout.	119512508	1475198201947	1475198202066	m	77
235139	2516597	It is definitely time to give up on the disappointing wideout.	It is definitely time to give up on the disappointing wideout.	119512514	1475198202010	1475198202134	e	69
235139	2516597	It is definitely time to give up on the disappointing wideout.	It is definitely time to give up on the disappointing wideout.	119512517	1475198202091	1475198202206	 	32
235139	2516597	It is definitely time to give up on the disappointing wideout.	It is definitely time to give up on the disappointing wideout.	119512519	1475198202283	1475198202392	t	84
235139	2516597	It is definitely time to give up on the disappointing wideout.	It is definitely time to give up on the disappointing wideout.	119512521	1475198202407	1475198202535	o	79
235139	2516597	It is definitely time to give up on the disappointing wideout.	It is definitely time to give up on the disappointing wideout.	119512538	1475198202500	1475198202592	 	32
235139	2516597	It is definitely time to give up on the disappointing wideout.	It is definitely time to give up on the disappointing wideout.	119512543	1475198202655	1475198202765	g	71
235139	2516597	It is definitely time to give up on the disappointing wideout.	It is definitely time to give up on the disappointing wideout.	119512549	1475198202788	1475198202888	i	73
235139	2516597	It is definitely time to give up on the disappointing wideout.	It is definitely time to give up on the disappointing wideout.	119512551	1475198202888	1475198202967	v	86
235139	2516597	It is definitely time to give up on the disappointing wideout.	It is definitely time to give up on the disappointing wideout.	119512617	1475198203033	1475198203189	e	69
235139	2516597	It is definitely time to give up on the disappointing wideout.	It is definitely time to give up on the disappointing wideout.	119512552	1475198203093	1475198203134	r	82
235139	2516597	It is definitely time to give up on the disappointing wideout.	It is definitely time to give up on the disappointing wideout.	119512622	1475198203134	1475198203256	 	32
235139	2516597	It is definitely time to give up on the disappointing wideout.	It is definitely time to give up on the disappointing wideout.	119512626	1475198203505	1475198203584	BKSP	8
235139	2516597	It is definitely time to give up on the disappointing wideout.	It is definitely time to give up on the disappointing wideout.	119512632	1475198203685	1475198203752	BKSP	8
235139	2516597	It is definitely time to give up on the disappointing wideout.	It is definitely time to give up on the disappointing wideout.	119512637	1475198203960	1475198204101	 	32
235139	2516597	It is definitely time to give up on the disappointing wideout.	It is definitely time to give up on the disappointing wideout.	119512642	1475198204171	1475198204268	u	85
235139	2516597	It is definitely time to give up on the disappointing wideout.	It is definitely time to give up on the disappointing wideout.	119512649	1475198204310	1475198204412	p	80
235139	2516597	It is definitely time to give up on the disappointing wideout.	It is definitely time to give up on the disappointing wideout.	119512654	1475198204412	1475198204505	 	32
235139	2516597	It is definitely time to give up on the disappointing wideout.	It is definitely time to give up on the disappointing wideout.	119512662	1475198204575	1475198204706	o	79
235139	2516597	It is definitely time to give up on the disappointing wideout.	It is definitely time to give up on the disappointing wideout.	119512665	1475198204668	1475198204805	n	78
235139	2516597	It is definitely time to give up on the disappointing wideout.	It is definitely time to give up on the disappointing wideout.	119512666	1475198204768	1475198204910	 	32
235139	2516597	It is definitely time to give up on the disappointing wideout.	It is definitely time to give up on the disappointing wideout.	119512669	1475198204910	1475198205015	t	84
235139	2516597	It is definitely time to give up on the disappointing wideout.	It is definitely time to give up on the disappointing wideout.	119512701	1475198204949	1475198205056	h	72
235139	2516597	It is definitely time to give up on the disappointing wideout.	It is definitely time to give up on the disappointing wideout.	119512703	1475198205056	1475198205209	e	69
235139	2516597	It is definitely time to give up on the disappointing wideout.	It is definitely time to give up on the disappointing wideout.	119512705	1475198205138	1475198205256	 	32
235139	2516597	It is definitely time to give up on the disappointing wideout.	It is definitely time to give up on the disappointing wideout.	119512707	1475198205337	1475198205461	d	68
235139	2516597	It is definitely time to give up on the disappointing wideout.	It is definitely time to give up on the disappointing wideout.	119512709	1475198205432	1475198205570	i	73
235139	2516597	It is definitely time to give up on the disappointing wideout.	It is definitely time to give up on the disappointing wideout.	119512713	1475198205570	1475198205624	s	83
235139	2516597	It is definitely time to give up on the disappointing wideout.	It is definitely time to give up on the disappointing wideout.	119512765	1475198205723	1475198205844	s	83
235139	2516597	It is definitely time to give up on the disappointing wideout.	It is definitely time to give up on the disappointing wideout.	119512768	1475198205815	1475198205931	a	65
235139	2516597	It is definitely time to give up on the disappointing wideout.	It is definitely time to give up on the disappointing wideout.	119512774	1475198206045	1475198206197	p	80
235139	2516597	It is definitely time to give up on the disappointing wideout.	It is definitely time to give up on the disappointing wideout.	119512778	1475198206240	1475198206317	o	79
235139	2516597	It is definitely time to give up on the disappointing wideout.	It is definitely time to give up on the disappointing wideout.	119512783	1475198206405	1475198206474	i	73
235139	2516597	It is definitely time to give up on the disappointing wideout.	It is definitely time to give up on the disappointing wideout.	119512797	1475198206586	1475198206689	n	78
235139	2516597	It is definitely time to give up on the disappointing wideout.	It is definitely time to give up on the disappointing wideout.	119512799	1475198206715	1475198206817	t	84
235139	2516597	It is definitely time to give up on the disappointing wideout.	It is definitely time to give up on the disappointing wideout.	119512807	1475198206817	1475198206891	i	73
235139	2516597	It is definitely time to give up on the disappointing wideout.	It is definitely time to give up on the disappointing wideout.	119512812	1475198206964	1475198207090	n	78
235139	2516597	It is definitely time to give up on the disappointing wideout.	It is definitely time to give up on the disappointing wideout.	119513209	1475198206994	1475198207205	g	71
235139	2516597	It is definitely time to give up on the disappointing wideout.	It is definitely time to give up on the disappointing wideout.	119513213	1475198207158	1475198207301	 	32
235139	2516597	It is definitely time to give up on the disappointing wideout.	It is definitely time to give up on the disappointing wideout.	119513216	1475198207674	1475198207744	BKSP	8
235139	2516597	It is definitely time to give up on the disappointing wideout.	It is definitely time to give up on the disappointing wideout.	119513219	1475198207858	1475198207909	BKSP	8
235139	2516597	It is definitely time to give up on the disappointing wideout.	It is definitely time to give up on the disappointing wideout.	119513224	1475198208015	1475198208062	BKSP	8
235139	2516597	It is definitely time to give up on the disappointing wideout.	It is definitely time to give up on the disappointing wideout.	119513226	1475198208149	1475198208230	BKSP	8
235139	2516597	It is definitely time to give up on the disappointing wideout.	It is definitely time to give up on the disappointing wideout.	119513228	1475198209622	1475198210228	BKSP	8
235139	2516597	It is definitely time to give up on the disappointing wideout.	It is definitely time to give up on the disappointing wideout.	119513231	1475198210386	1475198210465	BKSP	8
235139	2516597	It is definitely time to give up on the disappointing wideout.	It is definitely time to give up on the disappointing wideout.	119513237	1475198210553	1475198210626	BKSP	8
235139	2516597	It is definitely time to give up on the disappointing wideout.	It is definitely time to give up on the disappointing wideout.	119513243	1475198210918	1475198211025	a	65
235139	2516597	It is definitely time to give up on the disappointing wideout.	It is definitely time to give up on the disappointing wideout.	119513251	1475198211165	1475198211219	p	80
235139	2516597	It is definitely time to give up on the disappointing wideout.	It is definitely time to give up on the disappointing wideout.	119513256	1475198211316	1475198211384	p	80
235139	2516597	It is definitely time to give up on the disappointing wideout.	It is definitely time to give up on the disappointing wideout.	119513263	1475198212768	1475198212893	o	79
235139	2516597	It is definitely time to give up on the disappointing wideout.	It is definitely time to give up on the disappointing wideout.	119513297	1475198212922	1475198213003	i	73
235139	2516597	It is definitely time to give up on the disappointing wideout.	It is definitely time to give up on the disappointing wideout.	119513301	1475198213153	1475198213263	n	78
235139	2516597	It is definitely time to give up on the disappointing wideout.	It is definitely time to give up on the disappointing wideout.	119513306	1475198213741	1475198213847	t	84
235139	2516597	It is definitely time to give up on the disappointing wideout.	It is definitely time to give up on the disappointing wideout.	119513310	1475198213847	1475198213972	i	73
235139	2516597	It is definitely time to give up on the disappointing wideout.	It is definitely time to give up on the disappointing wideout.	119513332	1475198213948	1475198214092	n	78
235139	2516597	It is definitely time to give up on the disappointing wideout.	It is definitely time to give up on the disappointing wideout.	119513336	1475198214048	1475198214205	g	71
235139	2516597	It is definitely time to give up on the disappointing wideout.	It is definitely time to give up on the disappointing wideout.	119513341	1475198214131	1475198214247	 	32
235139	2516597	It is definitely time to give up on the disappointing wideout.	It is definitely time to give up on the disappointing wideout.	119513343	1475198214345	1475198214466	w	87
235139	2516597	It is definitely time to give up on the disappointing wideout.	It is definitely time to give up on the disappointing wideout.	119513346	1475198214541	1475198214660	i	73
235139	2516597	It is definitely time to give up on the disappointing wideout.	It is definitely time to give up on the disappointing wideout.	119513388	1475198214634	1475198214788	d	68
235139	2516597	It is definitely time to give up on the disappointing wideout.	It is definitely time to give up on the disappointing wideout.	119513390	1475198214764	1475198214884	e	69
235139	2516597	It is definitely time to give up on the disappointing wideout.	It is definitely time to give up on the disappointing wideout.	119513396	1475198214930	1475198215075	o	79
235139	2516597	It is definitely time to give up on the disappointing wideout.	It is definitely time to give up on the disappointing wideout.	119513402	1475198215049	1475198215151	u	85
235139	2516597	It is definitely time to give up on the disappointing wideout.	It is definitely time to give up on the disappointing wideout.	119513409	1475198215151	1475198215243	t	84
235139	2516628	I will call you Monday morning to discuss.	I will call you Monday morning to discuss.	119513618	1475198217880	1475198218166	SHIFT	16
235139	2516628	I will call you Monday morning to discuss.	I will call you Monday morning to discuss.	119513624	1475198218104	1475198218213	I	73
235139	2516628	I will call you Monday morning to discuss.	I will call you Monday morning to discuss.	119513630	1475198218270	1475198218402	 	32
235139	2516628	I will call you Monday morning to discuss.	I will call you Monday morning to discuss.	119513635	1475198218357	1475198218468	w	87
235139	2516628	I will call you Monday morning to discuss.	I will call you Monday morning to discuss.	119513640	1475198218435	1475198218532	i	73
235139	2516628	I will call you Monday morning to discuss.	I will call you Monday morning to discuss.	119513644	1475198218634	1475198218700	l	76
235139	2516628	I will call you Monday morning to discuss.	I will call you Monday morning to discuss.	119513650	1475198218781	1475198218883	l	76
235139	2516628	I will call you Monday morning to discuss.	I will call you Monday morning to discuss.	119513657	1475198218820	1475198218932	 	32
235139	2516628	I will call you Monday morning to discuss.	I will call you Monday morning to discuss.	119513665	1475198218914	1475198219052	c	67
235139	2516628	I will call you Monday morning to discuss.	I will call you Monday morning to discuss.	119513674	1475198219000	1475198219136	a	65
235139	2516628	I will call you Monday morning to discuss.	I will call you Monday morning to discuss.	119513710	1475198219099	1475198219169	l	76
235139	2516628	I will call you Monday morning to discuss.	I will call you Monday morning to discuss.	119513715	1475198219241	1475198219348	l	76
235139	2516628	I will call you Monday morning to discuss.	I will call you Monday morning to discuss.	119513719	1475198219352	1475198219468	 	32
235139	2516628	I will call you Monday morning to discuss.	I will call you Monday morning to discuss.	119513722	1475198219571	1475198219636	y	89
235139	2516628	I will call you Monday morning to discuss.	I will call you Monday morning to discuss.	119513725	1475198219657	1475198219764	o	79
235139	2516628	I will call you Monday morning to discuss.	I will call you Monday morning to discuss.	119513779	1475198219740	1475198219856	u	85
235139	2516628	I will call you Monday morning to discuss.	I will call you Monday morning to discuss.	119513783	1475198219803	1475198219919	 	32
235139	2516628	I will call you Monday morning to discuss.	I will call you Monday morning to discuss.	119513787	1475198219960	1475198220095	SHIFT	16
235139	2516628	I will call you Monday morning to discuss.	I will call you Monday morning to discuss.	119513792	1475198220111	1475198220233	m	77
235139	2516628	I will call you Monday morning to discuss.	I will call you Monday morning to discuss.	119513795	1475198220233	1475198220355	o	79
235139	2516628	I will call you Monday morning to discuss.	I will call you Monday morning to discuss.	119513802	1475198220355	1475198220462	n	78
235139	2516628	I will call you Monday morning to discuss.	I will call you Monday morning to discuss.	119513806	1475198220462	1475198220594	d	68
235139	2516628	I will call you Monday morning to discuss.	I will call you Monday morning to discuss.	119513976	1475198220623	1475198220734	a	65
235139	2516628	I will call you Monday morning to discuss.	I will call you Monday morning to discuss.	119513980	1475198220793	1475198220932	y	89
235139	2516628	I will call you Monday morning to discuss.	I will call you Monday morning to discuss.	119513984	1475198220905	1475198221019	 	32
235139	2516628	I will call you Monday morning to discuss.	I will call you Monday morning to discuss.	119513987	1475198222057	1475198222628	BKSP	8
235139	2516628	I will call you Monday morning to discuss.	I will call you Monday morning to discuss.	119513991	1475198222748	1475198222809	BKSP	8
235139	2516628	I will call you Monday morning to discuss.	I will call you Monday morning to discuss.	119513996	1475198222913	1475198222978	BKSP	8
235139	2516628	I will call you Monday morning to discuss.	I will call you Monday morning to discuss.	119514000	1475198223076	1475198223140	BKSP	8
235139	2516628	I will call you Monday morning to discuss.	I will call you Monday morning to discuss.	119514005	1475198223260	1475198223644	SHIFT	16
235139	2516628	I will call you Monday morning to discuss.	I will call you Monday morning to discuss.	119514009	1475198223572	1475198223683	M	77
235139	2516628	I will call you Monday morning to discuss.	I will call you Monday morning to discuss.	119514012	1475198223834	1475198223978	o	79
235139	2516628	I will call you Monday morning to discuss.	I will call you Monday morning to discuss.	119514074	1475198223911	1475198224061	n	78
235139	2516628	I will call you Monday morning to discuss.	I will call you Monday morning to discuss.	119514080	1475198224152	1475198224292	d	68
235139	2516628	I will call you Monday morning to discuss.	I will call you Monday morning to discuss.	119514085	1475198224276	1475198224345	a	65
235139	2516628	I will call you Monday morning to discuss.	I will call you Monday morning to discuss.	119514088	1475198224449	1475198224544	y	84
235139	2516628	I will call you Monday morning to discuss.	I will call you Monday morning to discuss.	119514093	1475198224820	1475198224883	BKSP	8
235139	2516628	I will call you Monday morning to discuss.	I will call you Monday morning to discuss.	119514098	1475198224980	1475198225047	BKSP	8
235139	2516628	I will call you Monday morning to discuss.	I will call you Monday morning to discuss.	119514102	1475198225047	1475198225203	y	89
235139	2516628	I will call you Monday morning to discuss.	I will call you Monday morning to discuss.	119514155	1475198225187	1475198225380	 	32
235139	2516628	I will call you Monday morning to discuss.	I will call you Monday morning to discuss.	119514159	1475198225749	1475198225900	m	77
235139	2516628	I will call you Monday morning to discuss.	I will call you Monday morning to discuss.	119514163	1475198225847	1475198225931	o	79
235139	2516628	I will call you Monday morning to discuss.	I will call you Monday morning to discuss.	119514168	1475198225931	1475198226045	r	82
235139	2516628	I will call you Monday morning to discuss.	I will call you Monday morning to discuss.	119514174	1475198226086	1475198226196	i	73
235139	2516628	I will call you Monday morning to discuss.	I will call you Monday morning to discuss.	119514365	1475198226165	1475198226292	n	78
235139	2516628	I will call you Monday morning to discuss.	I will call you Monday morning to discuss.	119514369	1475198226327	1475198226451	i	73
235139	2516628	I will call you Monday morning to discuss.	I will call you Monday morning to discuss.	119514372	1475198226422	1475198226569	n	78
235139	2516628	I will call you Monday morning to discuss.	I will call you Monday morning to discuss.	119514375	1475198226947	1475198227000	BKSP	8
235139	2516628	I will call you Monday morning to discuss.	I will call you Monday morning to discuss.	119514379	1475198227104	1475198227152	BKSP	8
235139	2516628	I will call you Monday morning to discuss.	I will call you Monday morning to discuss.	119514382	1475198227238	1475198227286	BKSP	8
235139	2516628	I will call you Monday morning to discuss.	I will call you Monday morning to discuss.	119514385	1475198227381	1475198227468	BKSP	8
235139	2516628	I will call you Monday morning to discuss.	I will call you Monday morning to discuss.	119514390	1475198227892	1475198227987	n	78
235139	2516628	I will call you Monday morning to discuss.	I will call you Monday morning to discuss.	119514400	1475198227968	1475198228084	i	73
235139	2516628	I will call you Monday morning to discuss.	I will call you Monday morning to discuss.	119514407	1475198228084	1475198228237	n	78
235139	2516628	I will call you Monday morning to discuss.	I will call you Monday morning to discuss.	119514461	1475198228185	1475198228404	g	71
235139	2516628	I will call you Monday morning to discuss.	I will call you Monday morning to discuss.	119514465	1475198228359	1475198228509	 	32
235139	2516628	I will call you Monday morning to discuss.	I will call you Monday morning to discuss.	119514473	1475198228742	1475198228908	t	84
235139	2516628	I will call you Monday morning to discuss.	I will call you Monday morning to discuss.	119514478	1475198228862	1475198228973	o	79
235139	2516628	I will call you Monday morning to discuss.	I will call you Monday morning to discuss.	119514481	1475198228908	1475198229030	 	32
235139	2516628	I will call you Monday morning to discuss.	I will call you Monday morning to discuss.	119514488	1475198229204	1475198229330	d	68
235139	2516628	I will call you Monday morning to discuss.	I will call you Monday morning to discuss.	119514530	1475198229343	1475198229460	i	73
235139	2516628	I will call you Monday morning to discuss.	I will call you Monday morning to discuss.	119514533	1475198229432	1475198229532	s	83
235139	2516628	I will call you Monday morning to discuss.	I will call you Monday morning to discuss.	119514539	1475198229671	1475198229796	c	67
235139	2516628	I will call you Monday morning to discuss.	I will call you Monday morning to discuss.	119514543	1475198229774	1475198229856	u	85
235139	2516628	I will call you Monday morning to discuss.	I will call you Monday morning to discuss.	119514549	1475198229960	1475198230025	s	83
235139	2516628	I will call you Monday morning to discuss.	I will call you Monday morning to discuss.	119514563	1475198230114	1475198230211	s	83
235139	2516647	Edwards said Chrebet passed the various tests and scans he was given.	Edwards said Chrebet passed the various tests and scans he was given.	119514769	1475198232380	1475198232564	SHIFT	16
235139	2516647	Edwards said Chrebet passed the various tests and scans he was given.	Edwards said Chrebet passed the various tests and scans he was given.	119514772	1475198232519	1475198232668	E	69
235139	2516647	Edwards said Chrebet passed the various tests and scans he was given.	Edwards said Chrebet passed the various tests and scans he was given.	119514777	1475198232881	1475198232993	d	68
235139	2516647	Edwards said Chrebet passed the various tests and scans he was given.	Edwards said Chrebet passed the various tests and scans he was given.	119514786	1475198233155	1475198233316	w	87
235139	2516647	Edwards said Chrebet passed the various tests and scans he was given.	Edwards said Chrebet passed the various tests and scans he was given.	119514791	1475198233271	1475198233412	a	65
235139	2516647	Edwards said Chrebet passed the various tests and scans he was given.	Edwards said Chrebet passed the various tests and scans he was given.	119514861	1475198233371	1475198233471	r	82
235139	2516647	Edwards said Chrebet passed the various tests and scans he was given.	Edwards said Chrebet passed the various tests and scans he was given.	119514863	1475198233924	1475198234014	d	68
235139	2516647	Edwards said Chrebet passed the various tests and scans he was given.	Edwards said Chrebet passed the various tests and scans he was given.	119514866	1475198234056	1475198234190	s	83
235139	2516647	Edwards said Chrebet passed the various tests and scans he was given.	Edwards said Chrebet passed the various tests and scans he was given.	119514869	1475198234205	1475198234335	 	32
235139	2516647	Edwards said Chrebet passed the various tests and scans he was given.	Edwards said Chrebet passed the various tests and scans he was given.	119514873	1475198234413	1475198234603	s	83
235139	2516647	Edwards said Chrebet passed the various tests and scans he was given.	Edwards said Chrebet passed the various tests and scans he was given.	119514922	1475198234560	1475198234683	a	65
235139	2516647	Edwards said Chrebet passed the various tests and scans he was given.	Edwards said Chrebet passed the various tests and scans he was given.	119514925	1475198234714	1475198234837	i	73
235139	2516647	Edwards said Chrebet passed the various tests and scans he was given.	Edwards said Chrebet passed the various tests and scans he was given.	119514930	1475198234800	1475198234954	d	68
235139	2516647	Edwards said Chrebet passed the various tests and scans he was given.	Edwards said Chrebet passed the various tests and scans he was given.	119514934	1475198234884	1475198235001	 	32
235139	2516647	Edwards said Chrebet passed the various tests and scans he was given.	Edwards said Chrebet passed the various tests and scans he was given.	119514939	1475198235016	1475198235236	SHIFT	16
235139	2516647	Edwards said Chrebet passed the various tests and scans he was given.	Edwards said Chrebet passed the various tests and scans he was given.	119514944	1475198235177	1475198235293	C	67
235139	2516647	Edwards said Chrebet passed the various tests and scans he was given.	Edwards said Chrebet passed the various tests and scans he was given.	119514952	1475198235293	1475198235416	h	72
235139	2516647	Edwards said Chrebet passed the various tests and scans he was given.	Edwards said Chrebet passed the various tests and scans he was given.	119514984	1475198235439	1475198235544	e	69
235139	2516647	Edwards said Chrebet passed the various tests and scans he was given.	Edwards said Chrebet passed the various tests and scans he was given.	119514987	1475198235544	1475198235700	r	82
235139	2516647	Edwards said Chrebet passed the various tests and scans he was given.	Edwards said Chrebet passed the various tests and scans he was given.	119514990	1475198235669	1475198235810	e	69
235139	2516647	Edwards said Chrebet passed the various tests and scans he was given.	Edwards said Chrebet passed the various tests and scans he was given.	119514996	1475198235988	1475198236020	v	66
235139	2516647	Edwards said Chrebet passed the various tests and scans he was given.	Edwards said Chrebet passed the various tests and scans he was given.	119515313	1475198236603	1475198236719	BKSP	8
235139	2516647	Edwards said Chrebet passed the various tests and scans he was given.	Edwards said Chrebet passed the various tests and scans he was given.	119515318	1475198236739	1475198236852	e	69
235139	2516647	Edwards said Chrebet passed the various tests and scans he was given.	Edwards said Chrebet passed the various tests and scans he was given.	119515325	1475198236820	1475198236979	t	84
235139	2516647	Edwards said Chrebet passed the various tests and scans he was given.	Edwards said Chrebet passed the various tests and scans he was given.	119515333	1475198236961	1475198237065	 	32
235139	2516647	Edwards said Chrebet passed the various tests and scans he was given.	Edwards said Chrebet passed the various tests and scans he was given.	119515339	1475198237694	1475198237805	BKSP	8
235139	2516647	Edwards said Chrebet passed the various tests and scans he was given.	Edwards said Chrebet passed the various tests and scans he was given.	119515346	1475198238659	1475198238740	BKSP	8
235139	2516647	Edwards said Chrebet passed the various tests and scans he was given.	Edwards said Chrebet passed the various tests and scans he was given.	119515351	1475198238836	1475198238894	BKSP	8
235139	2516647	Edwards said Chrebet passed the various tests and scans he was given.	Edwards said Chrebet passed the various tests and scans he was given.	119515354	1475198238982	1475198239044	BKSP	8
235139	2516647	Edwards said Chrebet passed the various tests and scans he was given.	Edwards said Chrebet passed the various tests and scans he was given.	119515357	1475198239149	1475198239196	BKSP	8
235139	2516647	Edwards said Chrebet passed the various tests and scans he was given.	Edwards said Chrebet passed the various tests and scans he was given.	119515360	1475198239315	1475198239362	BKSP	8
235139	2516647	Edwards said Chrebet passed the various tests and scans he was given.	Edwards said Chrebet passed the various tests and scans he was given.	119515363	1475198239444	1475198239496	BKSP	8
235139	2516647	Edwards said Chrebet passed the various tests and scans he was given.	Edwards said Chrebet passed the various tests and scans he was given.	119515365	1475198239601	1475198239661	BKSP	8
235139	2516647	Edwards said Chrebet passed the various tests and scans he was given.	Edwards said Chrebet passed the various tests and scans he was given.	119515369	1475198240197	1475198240355	SHIFT	16
235139	2516647	Edwards said Chrebet passed the various tests and scans he was given.	Edwards said Chrebet passed the various tests and scans he was given.	119515374	1475198240551	1475198240656	h	72
235139	2516647	Edwards said Chrebet passed the various tests and scans he was given.	Edwards said Chrebet passed the various tests and scans he was given.	119515379	1475198240687	1475198240832	r	82
235139	2516647	Edwards said Chrebet passed the various tests and scans he was given.	Edwards said Chrebet passed the various tests and scans he was given.	119515474	1475198240780	1475198240911	e	69
235139	2516647	Edwards said Chrebet passed the various tests and scans he was given.	Edwards said Chrebet passed the various tests and scans he was given.	119515478	1475198241127	1475198241230	b	66
235139	2516647	Edwards said Chrebet passed the various tests and scans he was given.	Edwards said Chrebet passed the various tests and scans he was given.	119515484	1475198241369	1475198241501	e	69
235139	2516647	Edwards said Chrebet passed the various tests and scans he was given.	Edwards said Chrebet passed the various tests and scans he was given.	119515489	1475198241459	1475198241602	t	84
235139	2516647	Edwards said Chrebet passed the various tests and scans he was given.	Edwards said Chrebet passed the various tests and scans he was given.	119515493	1475198241555	1475198241665	 	32
235139	2516647	Edwards said Chrebet passed the various tests and scans he was given.	Edwards said Chrebet passed the various tests and scans he was given.	119515499	1475198242192	1475198242283	SHIFT	16
235139	2516647	Edwards said Chrebet passed the various tests and scans he was given.	Edwards said Chrebet passed the various tests and scans he was given.	119515502	1475198242758	1475198242805	p	80
235139	2516647	Edwards said Chrebet passed the various tests and scans he was given.	Edwards said Chrebet passed the various tests and scans he was given.	119515569	1475198243257	1475198243410	a	65
235139	2516647	Edwards said Chrebet passed the various tests and scans he was given.	Edwards said Chrebet passed the various tests and scans he was given.	119515571	1475198243425	1475198243518	s	83
235139	2516647	Edwards said Chrebet passed the various tests and scans he was given.	Edwards said Chrebet passed the various tests and scans he was given.	119515573	1475198243606	1475198243703	s	83
235139	2516647	Edwards said Chrebet passed the various tests and scans he was given.	Edwards said Chrebet passed the various tests and scans he was given.	119515576	1475198243703	1475198243856	e	69
235139	2516647	Edwards said Chrebet passed the various tests and scans he was given.	Edwards said Chrebet passed the various tests and scans he was given.	119515579	1475198243903	1475198244034	d	68
235139	2516647	Edwards said Chrebet passed the various tests and scans he was given.	Edwards said Chrebet passed the various tests and scans he was given.	119515587	1475198244034	1475198244107	 	32
235139	2516647	Edwards said Chrebet passed the various tests and scans he was given.	Edwards said Chrebet passed the various tests and scans he was given.	119515589	1475198244179	1475198244290	t	84
235139	2516647	Edwards said Chrebet passed the various tests and scans he was given.	Edwards said Chrebet passed the various tests and scans he was given.	119515593	1475198244259	1475198244387	h	72
235139	2516647	Edwards said Chrebet passed the various tests and scans he was given.	Edwards said Chrebet passed the various tests and scans he was given.	119515595	1475198244305	1475198244452	e	69
235139	2516647	Edwards said Chrebet passed the various tests and scans he was given.	Edwards said Chrebet passed the various tests and scans he was given.	119515676	1475198244387	1475198244510	 	32
235139	2516647	Edwards said Chrebet passed the various tests and scans he was given.	Edwards said Chrebet passed the various tests and scans he was given.	119515680	1475198244578	1475198244673	v	86
235139	2516647	Edwards said Chrebet passed the various tests and scans he was given.	Edwards said Chrebet passed the various tests and scans he was given.	119515684	1475198244704	1475198244859	a	65
235139	2516647	Edwards said Chrebet passed the various tests and scans he was given.	Edwards said Chrebet passed the various tests and scans he was given.	119515686	1475198244820	1475198244937	r	82
235139	2516647	Edwards said Chrebet passed the various tests and scans he was given.	Edwards said Chrebet passed the various tests and scans he was given.	119515688	1475198245339	1475198245439	i	73
235139	2516647	Edwards said Chrebet passed the various tests and scans he was given.	Edwards said Chrebet passed the various tests and scans he was given.	119515690	1475198245600	1475198245690	o	79
235139	2516647	Edwards said Chrebet passed the various tests and scans he was given.	Edwards said Chrebet passed the various tests and scans he was given.	119515712	1475198245711	1475198245844	u	85
235139	2516647	Edwards said Chrebet passed the various tests and scans he was given.	Edwards said Chrebet passed the various tests and scans he was given.	119515716	1475198245806	1475198245924	s	83
235139	2516647	Edwards said Chrebet passed the various tests and scans he was given.	Edwards said Chrebet passed the various tests and scans he was given.	119515717	1475198245884	1475198246016	 	32
235139	2516647	Edwards said Chrebet passed the various tests and scans he was given.	Edwards said Chrebet passed the various tests and scans he was given.	119515720	1475198246179	1475198246308	t	84
235139	2516647	Edwards said Chrebet passed the various tests and scans he was given.	Edwards said Chrebet passed the various tests and scans he was given.	119515769	1475198246260	1475198246467	e	69
235139	2516647	Edwards said Chrebet passed the various tests and scans he was given.	Edwards said Chrebet passed the various tests and scans he was given.	119515772	1475198246376	1475198246511	s	83
235139	2516647	Edwards said Chrebet passed the various tests and scans he was given.	Edwards said Chrebet passed the various tests and scans he was given.	119515776	1475198246482	1475198246600	t	84
235139	2516647	Edwards said Chrebet passed the various tests and scans he was given.	Edwards said Chrebet passed the various tests and scans he was given.	119515780	1475198246796	1475198246912	s	83
235139	2516647	Edwards said Chrebet passed the various tests and scans he was given.	Edwards said Chrebet passed the various tests and scans he was given.	119515786	1475198246963	1475198247070	 	32
235139	2516647	Edwards said Chrebet passed the various tests and scans he was given.	Edwards said Chrebet passed the various tests and scans he was given.	119515789	1475198247086	1475198247218	a	65
235139	2516647	Edwards said Chrebet passed the various tests and scans he was given.	Edwards said Chrebet passed the various tests and scans he was given.	119515803	1475198247252	1475198247380	n	78
235139	2516647	Edwards said Chrebet passed the various tests and scans he was given.	Edwards said Chrebet passed the various tests and scans he was given.	119515807	1475198247343	1475198247480	d	68
235139	2516647	Edwards said Chrebet passed the various tests and scans he was given.	Edwards said Chrebet passed the various tests and scans he was given.	119515812	1475198247427	1475198247572	 	32
235139	2516647	Edwards said Chrebet passed the various tests and scans he was given.	Edwards said Chrebet passed the various tests and scans he was given.	119515818	1475198247527	1475198247667	s	83
235139	2516647	Edwards said Chrebet passed the various tests and scans he was given.	Edwards said Chrebet passed the various tests and scans he was given.	119515824	1475198247745	1475198247828	c	67
235139	2516647	Edwards said Chrebet passed the various tests and scans he was given.	Edwards said Chrebet passed the various tests and scans he was given.	119515888	1475198247911	1475198248028	a	65
235139	2516647	Edwards said Chrebet passed the various tests and scans he was given.	Edwards said Chrebet passed the various tests and scans he was given.	119515891	1475198248067	1475198248172	n	78
235139	2516647	Edwards said Chrebet passed the various tests and scans he was given.	Edwards said Chrebet passed the various tests and scans he was given.	119515894	1475198248172	1475198248304	s	83
235139	2516647	Edwards said Chrebet passed the various tests and scans he was given.	Edwards said Chrebet passed the various tests and scans he was given.	119515897	1475198248381	1475198248512	 	32
235139	2516647	Edwards said Chrebet passed the various tests and scans he was given.	Edwards said Chrebet passed the various tests and scans he was given.	119515899	1475198248901	1475198249043	h	72
235139	2516647	Edwards said Chrebet passed the various tests and scans he was given.	Edwards said Chrebet passed the various tests and scans he was given.	119515911	1475198249007	1475198249117	e	69
235139	2516647	Edwards said Chrebet passed the various tests and scans he was given.	Edwards said Chrebet passed the various tests and scans he was given.	119515917	1475198249066	1475198249190	 	32
235139	2516647	Edwards said Chrebet passed the various tests and scans he was given.	Edwards said Chrebet passed the various tests and scans he was given.	119515925	1475198249205	1475198249364	w	87
235139	2516647	Edwards said Chrebet passed the various tests and scans he was given.	Edwards said Chrebet passed the various tests and scans he was given.	119515932	1475198249323	1475198249476	a	65
235139	2516647	Edwards said Chrebet passed the various tests and scans he was given.	Edwards said Chrebet passed the various tests and scans he was given.	119515942	1475198249431	1475198249572	s	83
235139	2516647	Edwards said Chrebet passed the various tests and scans he was given.	Edwards said Chrebet passed the various tests and scans he was given.	119515997	1475198249532	1475198249645	 	32
235139	2516647	Edwards said Chrebet passed the various tests and scans he was given.	Edwards said Chrebet passed the various tests and scans he was given.	119516000	1475198249702	1475198249826	g	71
235139	2516647	Edwards said Chrebet passed the various tests and scans he was given.	Edwards said Chrebet passed the various tests and scans he was given.	119516002	1475198249876	1475198250036	i	73
235139	2516647	Edwards said Chrebet passed the various tests and scans he was given.	Edwards said Chrebet passed the various tests and scans he was given.	119516004	1475198249995	1475198250068	v	86
235139	2516647	Edwards said Chrebet passed the various tests and scans he was given.	Edwards said Chrebet passed the various tests and scans he was given.	119516146	1475198250127	1475198250256	r	69
235139	2516647	Edwards said Chrebet passed the various tests and scans he was given.	Edwards said Chrebet passed the various tests and scans he was given.	119516152	1475198250525	1475198250611	BKSP	8
235139	2516647	Edwards said Chrebet passed the various tests and scans he was given.	Edwards said Chrebet passed the various tests and scans he was given.	119516160	1475198251193	1475198251270	n	78
235139	2516681	We can have wine and catch up.	We can have wine and catch up.	119516340	1475198254404	1475198254704	SHIFT	16
235139	2516681	We can have wine and catch up.	We can have wine and catch up.	119516343	1475198254620	1475198254795	W	87
235139	2516681	We can have wine and catch up.	We can have wine and catch up.	119516349	1475198254899	1475198255060	e	69
235139	2516681	We can have wine and catch up.	We can have wine and catch up.	119516354	1475198255018	1475198255151	 	32
235139	2516681	We can have wine and catch up.	We can have wine and catch up.	119516360	1475198255212	1475198255347	c	67
235139	2516681	We can have wine and catch up.	We can have wine and catch up.	119516411	1475198255319	1475198255460	a	65
235139	2516681	We can have wine and catch up.	We can have wine and catch up.	119516415	1475198255437	1475198255564	n	78
235139	2516681	We can have wine and catch up.	We can have wine and catch up.	119516420	1475198255506	1475198255621	 	32
235139	2516681	We can have wine and catch up.	We can have wine and catch up.	119516424	1475198255684	1475198255850	h	72
235139	2516681	We can have wine and catch up.	We can have wine and catch up.	119516427	1475198255850	1475198255965	a	65
235139	2516681	We can have wine and catch up.	We can have wine and catch up.	119516431	1475198256048	1475198256123	v	86
235139	2516681	We can have wine and catch up.	We can have wine and catch up.	119516443	1475198256174	1475198256308	e	69
235139	2516681	We can have wine and catch up.	We can have wine and catch up.	119516447	1475198256264	1475198256379	 	32
235139	2516681	We can have wine and catch up.	We can have wine and catch up.	119516449	1475198256414	1475198256531	w	87
235139	2516681	We can have wine and catch up.	We can have wine and catch up.	119516451	1475198256514	1475198256692	i	73
235139	2516681	We can have wine and catch up.	We can have wine and catch up.	119516474	1475198256637	1475198256782	n	78
235139	2516681	We can have wine and catch up.	We can have wine and catch up.	119516477	1475198256720	1475198256900	e	69
235139	2516681	We can have wine and catch up.	We can have wine and catch up.	119516482	1475198256819	1475198256947	 	32
235139	2516681	We can have wine and catch up.	We can have wine and catch up.	119516487	1475198256947	1475198257092	a	65
235139	2516681	We can have wine and catch up.	We can have wine and catch up.	119516492	1475198257063	1475198257202	n	78
235139	2516681	We can have wine and catch up.	We can have wine and catch up.	119516560	1475198257163	1475198257310	d	68
235139	2516681	We can have wine and catch up.	We can have wine and catch up.	119516567	1475198257246	1475198257357	 	32
235139	2516681	We can have wine and catch up.	We can have wine and catch up.	119516574	1475198257433	1475198257550	c	67
235139	2516681	We can have wine and catch up.	We can have wine and catch up.	119516582	1475198257550	1475198257685	a	65
235139	2516681	We can have wine and catch up.	We can have wine and catch up.	119516586	1475198257685	1475198257767	t	84
235139	2516681	We can have wine and catch up.	We can have wine and catch up.	119516594	1475198257904	1475198258034	c	67
235139	2516681	We can have wine and catch up.	We can have wine and catch up.	119516634	1475198258034	1475198258137	h	72
235139	2516681	We can have wine and catch up.	We can have wine and catch up.	119516637	1475198258100	1475198258184	 	32
235139	2516681	We can have wine and catch up.	We can have wine and catch up.	119516641	1475198258204	1475198258307	u	85
235139	2516681	We can have wine and catch up.	We can have wine and catch up.	119516645	1475198258489	1475198258585	p	80
235139	2516681	We can have wine and catch up.	We can have wine and catch up.	119516649	1475198258798	1475198258885	.	190
235139	2516693	In a separate room, next door.	In a seperate room, next door.	119516843	1475198260892	1475198261166	SHIFT	16
235139	2516693	In a separate room, next door.	In a seperate room, next door.	119516852	1475198261074	1475198261166	I	73
235139	2516693	In a separate room, next door.	In a seperate room, next door.	119516859	1475198261346	1475198261475	n	78
235139	2516693	In a separate room, next door.	In a seperate room, next door.	119516867	1475198261449	1475198261604	 	32
235139	2516693	In a separate room, next door.	In a seperate room, next door.	119516874	1475198261566	1475198261716	a	65
235139	2516693	In a separate room, next door.	In a seperate room, next door.	119516942	1475198261699	1475198261807	 	32
235139	2516693	In a separate room, next door.	In a seperate room, next door.	119516945	1475198261827	1475198261950	s	83
235139	2516693	In a separate room, next door.	In a seperate room, next door.	119516951	1475198262059	1475198262184	e	69
235139	2516693	In a separate room, next door.	In a seperate room, next door.	119516957	1475198262259	1475198262361	p	80
235139	2516693	In a separate room, next door.	In a seperate room, next door.	119516961	1475198262579	1475198262701	e	69
235139	2516693	In a separate room, next door.	In a seperate room, next door.	119516967	1475198262745	1475198262884	r	82
235139	2516693	In a separate room, next door.	In a seperate room, next door.	119517019	1475198262860	1475198263011	a	65
235139	2516693	In a separate room, next door.	In a seperate room, next door.	119517024	1475198262985	1475198263076	t	84
235139	2516693	In a separate room, next door.	In a seperate room, next door.	119517027	1475198263047	1475198263236	e	69
235139	2516693	In a separate room, next door.	In a seperate room, next door.	119517033	1475198263220	1475198263352	d	68
235139	2516693	In a separate room, next door.	In a seperate room, next door.	119517039	1475198263556	1475198263682	 	32
235139	2516693	In a separate room, next door.	In a seperate room, next door.	119517344	1475198263639	1475198263752	r	82
235139	2516693	In a separate room, next door.	In a seperate room, next door.	119517347	1475198264099	1475198264579	BKSP	8
235139	2516693	In a separate room, next door.	In a seperate room, next door.	119517348	1475198264667	1475198264756	BKSP	8
235139	2516693	In a separate room, next door.	In a seperate room, next door.	119517350	1475198264852	1475198264916	BKSP	8
235139	2516693	In a separate room, next door.	In a seperate room, next door.	119517353	1475198265206	1475198265331	 	32
235139	2516693	In a separate room, next door.	In a seperate room, next door.	119517358	1475198267234	1475198267335	r	82
235139	2516693	In a separate room, next door.	In a seperate room, next door.	119517360	1475198267972	1475198268023	o	79
235139	2516693	In a separate room, next door.	In a seperate room, next door.	119517367	1475198268123	1475198268220	o	79
235139	2516693	In a separate room, next door.	In a seperate room, next door.	119517375	1475198268252	1475198268338	m	77
235139	2516693	In a separate room, next door.	In a seperate room, next door.	119517463	1475198268857	1475198268954	,	188
235139	2516693	In a separate room, next door.	In a seperate room, next door.	119517470	1475198268985	1475198269090	 	32
235139	2516693	In a separate room, next door.	In a seperate room, next door.	119517475	1475198269577	1475198269619	n	66
235139	2516693	In a separate room, next door.	In a seperate room, next door.	119517645	1475198269620	1475198269734	e	69
235139	2516693	In a separate room, next door.	In a seperate room, next door.	119517649	1475198269977	1475198270028	BKSP	8
235139	2516693	In a separate room, next door.	In a seperate room, next door.	119517655	1475198270131	1475198270208	BKSP	8
235139	2516693	In a separate room, next door.	In a seperate room, next door.	119517665	1475198270448	1475198270537	BKSP	8
235139	2516693	In a separate room, next door.	In a seperate room, next door.	119517674	1475198270776	1475198270853	n	78
235139	2516693	In a separate room, next door.	In a seperate room, next door.	119517683	1475198270853	1475198270984	e	69
235139	2516693	In a separate room, next door.	In a seperate room, next door.	119517694	1475198271092	1475198271186	c	67
235139	2516693	In a separate room, next door.	In a seperate room, next door.	119517702	1475198271334	1475198271507	t	84
235139	2516693	In a separate room, next door.	In a seperate room, next door.	119517873	1475198271469	1475198271593	 	32
235139	2516693	In a separate room, next door.	In a seperate room, next door.	119517877	1475198271746	1475198271870	d	68
235139	2516693	In a separate room, next door.	In a seperate room, next door.	119517883	1475198271994	1475198272082	BKSP	8
235139	2516693	In a separate room, next door.	In a seperate room, next door.	119517889	1475198272170	1475198272241	BKSP	8
235139	2516693	In a separate room, next door.	In a seperate room, next door.	119517894	1475198272323	1475198272381	BKSP	8
235139	2516693	In a separate room, next door.	In a seperate room, next door.	119517896	1475198272467	1475198272533	BKSP	8
235139	2516693	In a separate room, next door.	In a seperate room, next door.	119517901	1475198272580	1475198272664	x	88
235139	2516693	In a separate room, next door.	In a seperate room, next door.	119517904	1475198272872	1475198272943	r	82
235139	2516693	In a separate room, next door.	In a seperate room, next door.	119517907	1475198273237	1475198273342	BKSP	8
235139	2516693	In a separate room, next door.	In a seperate room, next door.	119517912	1475198273342	1475198273490	t	84
235139	2516693	In a separate room, next door.	In a seperate room, next door.	119518008	1475198273474	1475198273576	 	32
235139	2516693	In a separate room, next door.	In a seperate room, next door.	119518011	1475198273735	1475198273858	d	68
235139	2516693	In a separate room, next door.	In a seperate room, next door.	119518015	1475198273905	1475198273999	o	79
235139	2516693	In a separate room, next door.	In a seperate room, next door.	119518018	1475198274035	1475198274085	r	82
235139	2516693	In a separate room, next door.	In a seperate room, next door.	119518022	1475198274174	1475198274245	r	82
235139	2516693	In a separate room, next door.	In a seperate room, next door.	119518028	1475198274692	1475198274770	BKSP	8
235139	2516693	In a separate room, next door.	In a seperate room, next door.	119518035	1475198274842	1475198274904	BKSP	8
235139	2516693	In a separate room, next door.	In a seperate room, next door.	119518043	1475198275060	1475198275154	o	79
235139	2516693	In a separate room, next door.	In a seperate room, next door.	119518232	1475198275235	1475198275288	o	79
235139	2516693	In a separate room, next door.	In a seperate room, next door.	119518235	1475198275320	1475198275420	r	82
235139	2516693	In a separate room, next door.	In a seperate room, next door.	119518239	1475198276040	1475198276146	.	190
235139	2516693	In a separate room, next door.	In a seperate room, next door.	119518244	1475198276572	1475198276650	BKSP	8
235139	2516693	In a separate room, next door.	In a seperate room, next door.	119518248	1475198276749	1475198276809	BKSP	8
235139	2516693	In a separate room, next door.	In a seperate room, next door.	119518254	1475198276892	1475198276973	BKSP	8
235139	2516693	In a separate room, next door.	In a seperate room, next door.	119518259	1475198277212	1475198277292	r	82
235139	2516693	In a separate room, next door.	In a seperate room, next door.	119518265	1475198277500	1475198277560	.	190
235139	2516729	It's a shame to have to miss one or the other.	It's a shame to have to miss one or the other.	119518430	1475198279666	1475198279965	SHIFT	16
235139	2516729	It's a shame to have to miss one or the other.	It's a shame to have to miss one or the other.	119518434	1475198279911	1475198279997	I	73
235139	2516729	It's a shame to have to miss one or the other.	It's a shame to have to miss one or the other.	119518438	1475198280116	1475198280214	t	84
235139	2516729	It's a shame to have to miss one or the other.	It's a shame to have to miss one or the other.	119518443	1475198280339	1475198280414	;	186
235139	2516729	It's a shame to have to miss one or the other.	It's a shame to have to miss one or the other.	119518448	1475198280450	1475198280583	s	83
235139	2516729	It's a shame to have to miss one or the other.	It's a shame to have to miss one or the other.	119518606	1475198280531	1475198280650	 	32
235139	2516729	It's a shame to have to miss one or the other.	It's a shame to have to miss one or the other.	119518612	1475198280801	1475198280860	BKSP	8
235139	2516729	It's a shame to have to miss one or the other.	It's a shame to have to miss one or the other.	119518618	1475198281139	1475198281201	BKSP	8
235139	2516729	It's a shame to have to miss one or the other.	It's a shame to have to miss one or the other.	119518624	1475198281305	1475198281352	BKSP	8
235139	2516729	It's a shame to have to miss one or the other.	It's a shame to have to miss one or the other.	119518627	1475198281803	1475198281861	'	222
235139	2516729	It's a shame to have to miss one or the other.	It's a shame to have to miss one or the other.	119518629	1475198281924	1475198282083	s	83
235139	2516729	It's a shame to have to miss one or the other.	It's a shame to have to miss one or the other.	119518634	1475198282051	1475198282172	 	32
235139	2516729	It's a shame to have to miss one or the other.	It's a shame to have to miss one or the other.	119518643	1475198282269	1475198282393	a	65
235139	2516729	It's a shame to have to miss one or the other.	It's a shame to have to miss one or the other.	119518650	1475198282451	1475198282535	l	76
235139	2516729	It's a shame to have to miss one or the other.	It's a shame to have to miss one or the other.	119518681	1475198282710	1475198282834	m	77
235139	2516729	It's a shame to have to miss one or the other.	It's a shame to have to miss one or the other.	119518685	1475198282876	1475198283027	o	79
235139	2516729	It's a shame to have to miss one or the other.	It's a shame to have to miss one or the other.	119518688	1475198283011	1475198283133	s	83
235139	2516729	It's a shame to have to miss one or the other.	It's a shame to have to miss one or the other.	119518690	1475198283155	1475198283298	t	84
235139	2516729	It's a shame to have to miss one or the other.	It's a shame to have to miss one or the other.	119518956	1475198283277	1475198283403	 	32
235139	2516729	It's a shame to have to miss one or the other.	It's a shame to have to miss one or the other.	119518958	1475198283439	1475198283571	t	84
235139	2516729	It's a shame to have to miss one or the other.	It's a shame to have to miss one or the other.	119518962	1475198283555	1475198283606	i	73
235139	2516729	It's a shame to have to miss one or the other.	It's a shame to have to miss one or the other.	119518964	1475198284190	1475198284290	BKSP	8
235139	2516729	It's a shame to have to miss one or the other.	It's a shame to have to miss one or the other.	119518966	1475198284378	1475198284459	BKSP	8
235139	2516729	It's a shame to have to miss one or the other.	It's a shame to have to miss one or the other.	119518970	1475198284560	1475198284640	BKSP	8
235139	2516729	It's a shame to have to miss one or the other.	It's a shame to have to miss one or the other.	119518973	1475198284728	1475198284994	BKSP	8
235139	2516729	It's a shame to have to miss one or the other.	It's a shame to have to miss one or the other.	119518978	1475198285067	1475198285141	BKSP	8
235139	2516729	It's a shame to have to miss one or the other.	It's a shame to have to miss one or the other.	119518986	1475198285230	1475198285308	BKSP	8
235139	2516729	It's a shame to have to miss one or the other.	It's a shame to have to miss one or the other.	119518989	1475198285404	1475198285486	BKSP	8
235139	2516729	It's a shame to have to miss one or the other.	It's a shame to have to miss one or the other.	119518995	1475198285577	1475198285686	BKSP	8
235139	2516729	It's a shame to have to miss one or the other.	It's a shame to have to miss one or the other.	119518998	1475198285842	1475198285967	 	32
235139	2516729	It's a shame to have to miss one or the other.	It's a shame to have to miss one or the other.	119519003	1475198286014	1475198286143	s	83
235139	2516729	It's a shame to have to miss one or the other.	It's a shame to have to miss one or the other.	119519006	1475198286309	1475198286418	h	72
235139	2516729	It's a shame to have to miss one or the other.	It's a shame to have to miss one or the other.	119519013	1475198286395	1475198286534	a	65
235139	2516729	It's a shame to have to miss one or the other.	It's a shame to have to miss one or the other.	119519020	1475198286659	1475198286781	m	77
235139	2516729	It's a shame to have to miss one or the other.	It's a shame to have to miss one or the other.	119519026	1475198286745	1475198286867	e	69
235139	2516729	It's a shame to have to miss one or the other.	It's a shame to have to miss one or the other.	119519033	1475198286843	1475198286963	 	32
235139	2516729	It's a shame to have to miss one or the other.	It's a shame to have to miss one or the other.	119519043	1475198287000	1475198287155	t	84
235139	2516729	It's a shame to have to miss one or the other.	It's a shame to have to miss one or the other.	119519084	1475198287136	1475198287216	o	79
235139	2516729	It's a shame to have to miss one or the other.	It's a shame to have to miss one or the other.	119519086	1475198287183	1475198287288	 	32
235139	2516729	It's a shame to have to miss one or the other.	It's a shame to have to miss one or the other.	119519092	1475198287371	1475198287465	h	72
235139	2516729	It's a shame to have to miss one or the other.	It's a shame to have to miss one or the other.	119519096	1475198287465	1475198287569	a	65
235139	2516729	It's a shame to have to miss one or the other.	It's a shame to have to miss one or the other.	119519099	1475198287632	1475198287702	v	86
235139	2516729	It's a shame to have to miss one or the other.	It's a shame to have to miss one or the other.	119519104	1475198287767	1475198287905	e	69
235139	2516729	It's a shame to have to miss one or the other.	It's a shame to have to miss one or the other.	119519183	1475198287955	1475198288046	t	32
235139	2516729	It's a shame to have to miss one or the other.	It's a shame to have to miss one or the other.	119519186	1475198288534	1475198288648	o	79
235139	2516729	It's a shame to have to miss one or the other.	It's a shame to have to miss one or the other.	119519189	1475198288673	1475198288774	 	32
235139	2516729	It's a shame to have to miss one or the other.	It's a shame to have to miss one or the other.	119519194	1475198288866	1475198288949	m	77
235139	2516729	It's a shame to have to miss one or the other.	It's a shame to have to miss one or the other.	119519253	1475198289119	1475198289218	i	73
235139	2516729	It's a shame to have to miss one or the other.	It's a shame to have to miss one or the other.	119519263	1475198289184	1475198289251	s	83
235139	2516729	It's a shame to have to miss one or the other.	It's a shame to have to miss one or the other.	119519273	1475198289331	1475198289475	s	83
235139	2516729	It's a shame to have to miss one or the other.	It's a shame to have to miss one or the other.	119519284	1475198289445	1475198289570	 	32
235139	2516729	It's a shame to have to miss one or the other.	It's a shame to have to miss one or the other.	119519295	1475198289586	1475198289715	o	79
235139	2516729	It's a shame to have to miss one or the other.	It's a shame to have to miss one or the other.	119519335	1475198289693	1475198289803	n	78
235139	2516729	It's a shame to have to miss one or the other.	It's a shame to have to miss one or the other.	119519340	1475198289737	1475198289872	e	69
235139	2516729	It's a shame to have to miss one or the other.	It's a shame to have to miss one or the other.	119519343	1475198289834	1475198289970	 	32
235139	2516729	It's a shame to have to miss one or the other.	It's a shame to have to miss one or the other.	119519344	1475198290048	1475198290171	o	79
235139	2516729	It's a shame to have to miss one or the other.	It's a shame to have to miss one or the other.	119519345	1475198290135	1475198290259	r	82
235139	2516729	It's a shame to have to miss one or the other.	It's a shame to have to miss one or the other.	119519378	1475198290233	1475198290350	 	32
235139	2516729	It's a shame to have to miss one or the other.	It's a shame to have to miss one or the other.	119519387	1475198290350	1475198290451	t	84
235139	2516729	It's a shame to have to miss one or the other.	It's a shame to have to miss one or the other.	119519394	1475198290421	1475198290547	h	72
235139	2516729	It's a shame to have to miss one or the other.	It's a shame to have to miss one or the other.	119519402	1475198290503	1475198290639	e	69
235139	2516729	It's a shame to have to miss one or the other.	It's a shame to have to miss one or the other.	119519411	1475198290593	1475198290706	 	32
235139	2516729	It's a shame to have to miss one or the other.	It's a shame to have to miss one or the other.	119519419	1475198290752	1475198290852	o	79
235139	2516729	It's a shame to have to miss one or the other.	It's a shame to have to miss one or the other.	119519469	1475198290868	1475198290993	t	84
235139	2516729	It's a shame to have to miss one or the other.	It's a shame to have to miss one or the other.	119519475	1475198290993	1475198291106	h	72
235139	2516729	It's a shame to have to miss one or the other.	It's a shame to have to miss one or the other.	119519485	1475198291054	1475198291170	e	69
235139	2516729	It's a shame to have to miss one or the other.	It's a shame to have to miss one or the other.	119519493	1475198291137	1475198291237	r	82
235139	2516748	Are you going to apply?	Are you going to apply?	119520194	1475198291616	1475198299234	.	190
235139	2516748	Are you going to apply?	Are you going to apply?	119519805	1475198293923	1475198294145	SHIFT	16
235139	2516748	Are you going to apply?	Are you going to apply?	119519807	1475198294066	1475198294196	A	65
235139	2516748	Are you going to apply?	Are you going to apply?	119519811	1475198294312	1475198294447	r	82
235139	2516748	Are you going to apply?	Are you going to apply?	119519816	1475198294397	1475198294547	e	69
235139	2516748	Are you going to apply?	Are you going to apply?	119519821	1475198294504	1475198294614	 	32
235139	2516748	Are you going to apply?	Are you going to apply?	119519827	1475198295353	1475198295415	y	89
235139	2516748	Are you going to apply?	Are you going to apply?	119519853	1475198295505	1475198295583	o	79
235139	2516748	Are you going to apply?	Are you going to apply?	119519859	1475198295549	1475198295682	u	85
235139	2516748	Are you going to apply?	Are you going to apply?	119519864	1475198295640	1475198295755	 	32
235139	2516748	Are you going to apply?	Are you going to apply?	119519870	1475198295815	1475198295951	g	71
235139	2516748	Are you going to apply?	Are you going to apply?	119519905	1475198295908	1475198296082	o	79
235139	2516748	Are you going to apply?	Are you going to apply?	119519910	1475198296023	1475198296120	i	73
235139	2516748	Are you going to apply?	Are you going to apply?	119519916	1475198296224	1475198296318	n	78
235139	2516748	Are you going to apply?	Are you going to apply?	119519926	1475198296285	1475198296401	g	71
235139	2516748	Are you going to apply?	Are you going to apply?	119519931	1475198296401	1475198296530	 	32
235139	2516748	Are you going to apply?	Are you going to apply?	119519971	1475198296501	1475198296640	t	84
235139	2516748	Are you going to apply?	Are you going to apply?	119519972	1475198296640	1475198296735	o	79
235139	2516748	Are you going to apply?	Are you going to apply?	119519973	1475198296685	1475198296801	 	32
235139	2516748	Are you going to apply?	Are you going to apply?	119519975	1475198296833	1475198296958	a	65
235139	2516748	Are you going to apply?	Are you going to apply?	119519979	1475198297025	1475198297052	p	80
235139	2516748	Are you going to apply?	Are you going to apply?	119519987	1475198297165	1475198297224	p	80
235139	2516748	Are you going to apply?	Are you going to apply?	119520157	1475198297319	1475198297378	p	80
235139	2516748	Are you going to apply?	Are you going to apply?	119520160	1475198297346	1475198297450	l	76
235139	2516748	Are you going to apply?	Are you going to apply?	119520169	1475198297751	1475198297826	BKSP	8
235139	2516748	Are you going to apply?	Are you going to apply?	119520175	1475198297920	1475198297987	BKSP	8
235139	2516748	Are you going to apply?	Are you going to apply?	119520182	1475198298305	1475198298427	l	76
235139	2516748	Are you going to apply?	Are you going to apply?	119520190	1475198298609	1475198298705	y	89
235139	2516748	Are you going to apply?	Are you going to apply?	119520232	1475198299059	1475198299546	SHIFT	16
235139	2516748	Are you going to apply?	Are you going to apply?	119520228	1475198299175	1475198299246	?	191
235139	2516748	Are you going to apply?	Are you going to apply?	119520237	1475198299746	1475198299849	BKSP	8
235139	2516767	I would love to take Dawn and Sara riding.	I would love to take Dawn and Sara riding.	119520436	1475198302230	1475198302594	SHIFT	16
235139	2516767	I would love to take Dawn and Sara riding.	I would love to take Dawn and Sara riding.	119520441	1475198302484	1475198302610	I	73
235139	2516767	I would love to take Dawn and Sara riding.	I would love to take Dawn and Sara riding.	119520448	1475198302635	1475198302766	 	32
235139	2516767	I would love to take Dawn and Sara riding.	I would love to take Dawn and Sara riding.	119520454	1475198302739	1475198302881	w	87
235139	2516767	I would love to take Dawn and Sara riding.	I would love to take Dawn and Sara riding.	119520460	1475198302831	1475198302938	o	79
235139	2516767	I would love to take Dawn and Sara riding.	I would love to take Dawn and Sara riding.	119520467	1475198302954	1475198303031	u	85
235139	2516767	I would love to take Dawn and Sara riding.	I would love to take Dawn and Sara riding.	119520533	1475198303162	1475198303298	l	76
235139	2516767	I would love to take Dawn and Sara riding.	I would love to take Dawn and Sara riding.	119520537	1475198303262	1475198303433	d	68
235139	2516767	I would love to take Dawn and Sara riding.	I would love to take Dawn and Sara riding.	119520542	1475198303371	1475198303480	 	32
235139	2516767	I would love to take Dawn and Sara riding.	I would love to take Dawn and Sara riding.	119520547	1475198303836	1475198303921	l	76
235139	2516767	I would love to take Dawn and Sara riding.	I would love to take Dawn and Sara riding.	119520550	1475198304018	1475198304130	o	79
235139	2516767	I would love to take Dawn and Sara riding.	I would love to take Dawn and Sara riding.	119520587	1475198304098	1475198304210	v	86
235139	2516767	I would love to take Dawn and Sara riding.	I would love to take Dawn and Sara riding.	119520592	1475198304234	1475198304373	e	69
235139	2516767	I would love to take Dawn and Sara riding.	I would love to take Dawn and Sara riding.	119520596	1475198304389	1475198304466	 	32
235139	2516767	I would love to take Dawn and Sara riding.	I would love to take Dawn and Sara riding.	119520602	1475198304435	1475198304559	t	84
235139	2516767	I would love to take Dawn and Sara riding.	I would love to take Dawn and Sara riding.	119520606	1475198304635	1475198304797	o	79
235139	2516767	I would love to take Dawn and Sara riding.	I would love to take Dawn and Sara riding.	119520608	1475198304839	1475198304976	 	32
235139	2516767	I would love to take Dawn and Sara riding.	I would love to take Dawn and Sara riding.	119520639	1475198305010	1475198305121	t	84
235139	2516767	I would love to take Dawn and Sara riding.	I would love to take Dawn and Sara riding.	119520645	1475198305184	1475198305284	a	65
235139	2516767	I would love to take Dawn and Sara riding.	I would love to take Dawn and Sara riding.	119520651	1475198305341	1475198305454	k	75
235139	2516767	I would love to take Dawn and Sara riding.	I would love to take Dawn and Sara riding.	119520655	1475198305410	1475198305585	e	69
235139	2516767	I would love to take Dawn and Sara riding.	I would love to take Dawn and Sara riding.	119520695	1475198305501	1475198305623	 	32
235139	2516767	I would love to take Dawn and Sara riding.	I would love to take Dawn and Sara riding.	119520697	1475198305655	1475198305855	SHIFT	16
235139	2516767	I would love to take Dawn and Sara riding.	I would love to take Dawn and Sara riding.	119520699	1475198305810	1475198305928	D	68
235139	2516767	I would love to take Dawn and Sara riding.	I would love to take Dawn and Sara riding.	119520701	1475198305959	1475198306130	a	65
235139	2516767	I would love to take Dawn and Sara riding.	I would love to take Dawn and Sara riding.	119520705	1475198306131	1475198306256	w	87
235139	2516767	I would love to take Dawn and Sara riding.	I would love to take Dawn and Sara riding.	119520707	1475198306256	1475198306386	n	78
235139	2516767	I would love to take Dawn and Sara riding.	I would love to take Dawn and Sara riding.	119520710	1475198306386	1475198306486	 	32
235139	2516767	I would love to take Dawn and Sara riding.	I would love to take Dawn and Sara riding.	119520740	1475198306517	1475198306645	a	65
235139	2516767	I would love to take Dawn and Sara riding.	I would love to take Dawn and Sara riding.	119520742	1475198306660	1475198306790	n	78
235139	2516767	I would love to take Dawn and Sara riding.	I would love to take Dawn and Sara riding.	119520747	1475198306738	1475198306945	d	68
235139	2516767	I would love to take Dawn and Sara riding.	I would love to take Dawn and Sara riding.	119520756	1475198306822	1475198306961	 	32
235139	2516767	I would love to take Dawn and Sara riding.	I would love to take Dawn and Sara riding.	119520761	1475198306961	1475198307138	SHIFT	16
235139	2516767	I would love to take Dawn and Sara riding.	I would love to take Dawn and Sara riding.	119520841	1475198307112	1475198307282	S	83
235139	2516767	I would love to take Dawn and Sara riding.	I would love to take Dawn and Sara riding.	119520842	1475198307256	1475198307412	a	65
235139	2516767	I would love to take Dawn and Sara riding.	I would love to take Dawn and Sara riding.	119520843	1475198307412	1475198307539	r	82
235139	2516767	I would love to take Dawn and Sara riding.	I would love to take Dawn and Sara riding.	119520844	1475198307542	1475198307697	a	65
235139	2516767	I would love to take Dawn and Sara riding.	I would love to take Dawn and Sara riding.	119520846	1475198307712	1475198307842	 	32
235139	2516767	I would love to take Dawn and Sara riding.	I would love to take Dawn and Sara riding.	119520850	1475198307873	1475198307993	SHIFT	16
235139	2516767	I would love to take Dawn and Sara riding.	I would love to take Dawn and Sara riding.	119520857	1475198308208	1475198308284	r	82
235139	2516767	I would love to take Dawn and Sara riding.	I would love to take Dawn and Sara riding.	119520895	1475198308343	1475198308498	i	73
235139	2516767	I would love to take Dawn and Sara riding.	I would love to take Dawn and Sara riding.	119520898	1475198308559	1475198308684	d	68
235139	2516767	I would love to take Dawn and Sara riding.	I would love to take Dawn and Sara riding.	119520904	1475198308684	1475198308802	i	73
235139	2516767	I would love to take Dawn and Sara riding.	I would love to take Dawn and Sara riding.	119520911	1475198308760	1475198308877	n	78
235139	2516767	I would love to take Dawn and Sara riding.	I would love to take Dawn and Sara riding.	119520981	1475198308827	1475198308945	g	71
235139	2516779	They are still burning.	They are still burning.	119521144	1475198311750	1475198311976	SHIFT	16
235139	2516779	They are still burning.	They are still burning.	119521149	1475198311914	1475198312023	T	84
235139	2516779	They are still burning.	They are still burning.	119521153	1475198312106	1475198312235	h	72
235139	2516779	They are still burning.	They are still burning.	119521157	1475198312200	1475198312322	e	69
235139	2516779	They are still burning.	They are still burning.	119521162	1475198312292	1475198312450	y	89
235139	2516779	They are still burning.	They are still burning.	119521232	1475198312424	1475198312590	 	32
235139	2516779	They are still burning.	They are still burning.	119521236	1475198312621	1475198312769	a	65
235139	2516779	They are still burning.	They are still burning.	119521242	1475198312769	1475198312936	r	82
235139	2516779	They are still burning.	They are still burning.	119521246	1475198312867	1475198313003	e	69
235139	2516779	They are still burning.	They are still burning.	119521248	1475198312977	1475198313117	 	32
235139	2516779	They are still burning.	They are still burning.	119521249	1475198313174	1475198313293	s	83
235139	2516779	They are still burning.	They are still burning.	119521272	1475198313310	1475198313395	t	84
235139	2516779	They are still burning.	They are still burning.	119521278	1475198313427	1475198313508	i	73
235139	2516779	They are still burning.	They are still burning.	119521287	1475198313643	1475198313705	l	76
235139	2516779	They are still burning.	They are still burning.	119521290	1475198313804	1475198313896	l	76
235139	2516779	They are still burning.	They are still burning.	119521296	1475198313896	1475198313987	 	32
235139	2516779	They are still burning.	They are still burning.	119521340	1475198314072	1475198314154	b	66
235139	2516779	They are still burning.	They are still burning.	119521347	1475198314344	1475198314421	u	85
235139	2516779	They are still burning.	They are still burning.	119521353	1475198314452	1475198314554	r	82
235139	2516779	They are still burning.	They are still burning.	119521361	1475198314621	1475198314674	i	73
235139	2516779	They are still burning.	They are still burning.	119521365	1475198314721	1475198314836	n	78
235139	2516779	They are still burning.	They are still burning.	119521505	1475198314993	1475198315074	BKSP	8
235139	2516779	They are still burning.	They are still burning.	119521507	1475198315153	1475198315223	BKSP	8
235139	2516779	They are still burning.	They are still burning.	119521508	1475198315427	1475198315524	n	78
235139	2516779	They are still burning.	They are still burning.	119521511	1475198315539	1475198315666	i	73
235139	2516779	They are still burning.	They are still burning.	119521513	1475198315639	1475198315786	n	78
235139	2516779	They are still burning.	They are still burning.	119521518	1475198315724	1475198315874	g	71
235139	2516788	Newly-signed Tony Simmons might work as the third receiver.	Newly-signed Tony Simmons might work as the third reciever.	119521757	1475198318867	1475198319199	SHIFT	16
235139	2516788	Newly-signed Tony Simmons might work as the third receiver.	Newly-signed Tony Simmons might work as the third reciever.	119521761	1475198319139	1475198319230	N	78
235139	2516788	Newly-signed Tony Simmons might work as the third receiver.	Newly-signed Tony Simmons might work as the third reciever.	119521766	1475198319303	1475198319392	e	69
235139	2516788	Newly-signed Tony Simmons might work as the third receiver.	Newly-signed Tony Simmons might work as the third reciever.	119521773	1475198319516	1475198319624	w	87
235139	2516788	Newly-signed Tony Simmons might work as the third receiver.	Newly-signed Tony Simmons might work as the third reciever.	119521780	1475198319821	1475198319916	d	68
235139	2516788	Newly-signed Tony Simmons might work as the third receiver.	Newly-signed Tony Simmons might work as the third reciever.	119521783	1475198320120	1475198320226	BKSP	8
235139	2516788	Newly-signed Tony Simmons might work as the third receiver.	Newly-signed Tony Simmons might work as the third reciever.	119521786	1475198320340	1475198320466	l	76
235139	2516788	Newly-signed Tony Simmons might work as the third receiver.	Newly-signed Tony Simmons might work as the third reciever.	119521896	1475198320482	1475198320608	y	89
235139	2516788	Newly-signed Tony Simmons might work as the third receiver.	Newly-signed Tony Simmons might work as the third reciever.	119521898	1475198321535	1475198321626	-	189
235139	2516788	Newly-signed Tony Simmons might work as the third receiver.	Newly-signed Tony Simmons might work as the third reciever.	119521899	1475198321657	1475198321793	 	32
235139	2516788	Newly-signed Tony Simmons might work as the third receiver.	Newly-signed Tony Simmons might work as the third reciever.	119521902	1475198322021	1475198322146	BKSP	8
235139	2516788	Newly-signed Tony Simmons might work as the third receiver.	Newly-signed Tony Simmons might work as the third reciever.	119521906	1475198322222	1475198322299	s	83
235139	2516788	Newly-signed Tony Simmons might work as the third receiver.	Newly-signed Tony Simmons might work as the third reciever.	119521910	1475198322538	1475198322631	i	73
235139	2516788	Newly-signed Tony Simmons might work as the third receiver.	Newly-signed Tony Simmons might work as the third reciever.	119521953	1475198322669	1475198322771	g	71
235139	2516788	Newly-signed Tony Simmons might work as the third receiver.	Newly-signed Tony Simmons might work as the third reciever.	119521958	1475198322787	1475198322913	n	78
235139	2516788	Newly-signed Tony Simmons might work as the third receiver.	Newly-signed Tony Simmons might work as the third reciever.	119521963	1475198322929	1475198323075	e	69
235139	2516788	Newly-signed Tony Simmons might work as the third receiver.	Newly-signed Tony Simmons might work as the third reciever.	119521966	1475198323031	1475198323198	d	68
235139	2516788	Newly-signed Tony Simmons might work as the third receiver.	Newly-signed Tony Simmons might work as the third reciever.	119521969	1475198323198	1475198323297	 	32
235139	2516788	Newly-signed Tony Simmons might work as the third receiver.	Newly-signed Tony Simmons might work as the third reciever.	119522030	1475198323357	1475198323425	t	84
235139	2516788	Newly-signed Tony Simmons might work as the third receiver.	Newly-signed Tony Simmons might work as the third reciever.	119522034	1475198323625	1475198323734	BKSP	8
235139	2516788	Newly-signed Tony Simmons might work as the third receiver.	Newly-signed Tony Simmons might work as the third reciever.	119522039	1475198323702	1475198323891	SHIFT	16
235139	2516788	Newly-signed Tony Simmons might work as the third receiver.	Newly-signed Tony Simmons might work as the third reciever.	119522043	1475198323794	1475198323910	T	84
235139	2516788	Newly-signed Tony Simmons might work as the third receiver.	Newly-signed Tony Simmons might work as the third reciever.	119522047	1475198323925	1475198324066	o	79
235139	2516788	Newly-signed Tony Simmons might work as the third receiver.	Newly-signed Tony Simmons might work as the third reciever.	119522053	1475198324513	1475198324619	n	78
235139	2516788	Newly-signed Tony Simmons might work as the third receiver.	Newly-signed Tony Simmons might work as the third reciever.	119522056	1475198324635	1475198324746	y	89
235139	2516788	Newly-signed Tony Simmons might work as the third receiver.	Newly-signed Tony Simmons might work as the third reciever.	119522129	1475198324695	1475198324827	 	32
235139	2516788	Newly-signed Tony Simmons might work as the third receiver.	Newly-signed Tony Simmons might work as the third reciever.	119522136	1475198324897	1475198325161	SHIFT	16
235139	2516788	Newly-signed Tony Simmons might work as the third receiver.	Newly-signed Tony Simmons might work as the third reciever.	119522141	1475198325064	1475198325200	S	83
235139	2516788	Newly-signed Tony Simmons might work as the third receiver.	Newly-signed Tony Simmons might work as the third reciever.	119522143	1475198325416	1475198325521	i	73
235139	2516788	Newly-signed Tony Simmons might work as the third receiver.	Newly-signed Tony Simmons might work as the third reciever.	119522148	1475198325568	1475198325661	m	77
235139	2516788	Newly-signed Tony Simmons might work as the third receiver.	Newly-signed Tony Simmons might work as the third reciever.	119522149	1475198325744	1475198325818	m	77
235139	2516788	Newly-signed Tony Simmons might work as the third receiver.	Newly-signed Tony Simmons might work as the third reciever.	119522153	1475198325905	1475198326015	o	79
235139	2516788	Newly-signed Tony Simmons might work as the third receiver.	Newly-signed Tony Simmons might work as the third reciever.	119522199	1475198325963	1475198326146	n	78
235139	2516788	Newly-signed Tony Simmons might work as the third receiver.	Newly-signed Tony Simmons might work as the third reciever.	119522202	1475198326103	1475198326266	s	83
235139	2516788	Newly-signed Tony Simmons might work as the third receiver.	Newly-signed Tony Simmons might work as the third reciever.	119522205	1475198326221	1475198326354	 	32
235139	2516788	Newly-signed Tony Simmons might work as the third receiver.	Newly-signed Tony Simmons might work as the third reciever.	119522206	1475198326478	1475198326580	m	77
235139	2516788	Newly-signed Tony Simmons might work as the third receiver.	Newly-signed Tony Simmons might work as the third reciever.	119522207	1475198326704	1475198326781	i	73
235139	2516788	Newly-signed Tony Simmons might work as the third receiver.	Newly-signed Tony Simmons might work as the third reciever.	119522208	1475198326801	1475198326898	g	71
235139	2516788	Newly-signed Tony Simmons might work as the third receiver.	Newly-signed Tony Simmons might work as the third reciever.	119522246	1475198326880	1475198327010	h	72
235139	2516788	Newly-signed Tony Simmons might work as the third receiver.	Newly-signed Tony Simmons might work as the third reciever.	119522251	1475198326981	1475198327105	t	84
235139	2516788	Newly-signed Tony Simmons might work as the third receiver.	Newly-signed Tony Simmons might work as the third reciever.	119522259	1475198327105	1475198327181	 	32
235139	2516788	Newly-signed Tony Simmons might work as the third receiver.	Newly-signed Tony Simmons might work as the third reciever.	119522264	1475198327280	1475198327381	w	87
235139	2516788	Newly-signed Tony Simmons might work as the third receiver.	Newly-signed Tony Simmons might work as the third reciever.	119522268	1475198327426	1475198327505	o	79
235139	2516788	Newly-signed Tony Simmons might work as the third receiver.	Newly-signed Tony Simmons might work as the third reciever.	119522271	1475198327552	1475198327658	r	82
235139	2516788	Newly-signed Tony Simmons might work as the third receiver.	Newly-signed Tony Simmons might work as the third reciever.	119522286	1475198327678	1475198327794	k	75
235139	2516788	Newly-signed Tony Simmons might work as the third receiver.	Newly-signed Tony Simmons might work as the third reciever.	119522288	1475198327766	1475198327905	 	32
235139	2516788	Newly-signed Tony Simmons might work as the third receiver.	Newly-signed Tony Simmons might work as the third reciever.	119522291	1475198327905	1475198328066	a	65
235139	2516788	Newly-signed Tony Simmons might work as the third receiver.	Newly-signed Tony Simmons might work as the third reciever.	119522295	1475198328025	1475198328178	s	83
235139	2516788	Newly-signed Tony Simmons might work as the third receiver.	Newly-signed Tony Simmons might work as the third reciever.	119522310	1475198328142	1475198328264	 	32
235139	2516788	Newly-signed Tony Simmons might work as the third receiver.	Newly-signed Tony Simmons might work as the third reciever.	119522312	1475198328320	1475198328448	t	84
235139	2516788	Newly-signed Tony Simmons might work as the third receiver.	Newly-signed Tony Simmons might work as the third reciever.	119522315	1475198328424	1475198328567	h	72
235139	2516788	Newly-signed Tony Simmons might work as the third receiver.	Newly-signed Tony Simmons might work as the third reciever.	119522318	1475198328503	1475198328634	e	69
235139	2516788	Newly-signed Tony Simmons might work as the third receiver.	Newly-signed Tony Simmons might work as the third reciever.	119522322	1475198328567	1475198328720	 	32
235139	2516788	Newly-signed Tony Simmons might work as the third receiver.	Newly-signed Tony Simmons might work as the third reciever.	119522430	1475198328703	1475198328810	t	84
235139	2516788	Newly-signed Tony Simmons might work as the third receiver.	Newly-signed Tony Simmons might work as the third reciever.	119522435	1475198328841	1475198328992	h	72
235139	2516788	Newly-signed Tony Simmons might work as the third receiver.	Newly-signed Tony Simmons might work as the third reciever.	119522443	1475198328974	1475198329082	r	82
235139	2516788	Newly-signed Tony Simmons might work as the third receiver.	Newly-signed Tony Simmons might work as the third reciever.	119522448	1475198329304	1475198329412	BKSP	8
235139	2516788	Newly-signed Tony Simmons might work as the third receiver.	Newly-signed Tony Simmons might work as the third reciever.	119522456	1475198330010	1475198330128	i	73
235139	2516788	Newly-signed Tony Simmons might work as the third receiver.	Newly-signed Tony Simmons might work as the third reciever.	119522462	1475198330111	1475198330207	r	82
235139	2516788	Newly-signed Tony Simmons might work as the third receiver.	Newly-signed Tony Simmons might work as the third reciever.	119522467	1475198330311	1475198330511	d	68
235139	2516788	Newly-signed Tony Simmons might work as the third receiver.	Newly-signed Tony Simmons might work as the third reciever.	119522509	1475198330445	1475198330586	 	32
235139	2516788	Newly-signed Tony Simmons might work as the third receiver.	Newly-signed Tony Simmons might work as the third reciever.	119522515	1475198330826	1475198330947	r	82
235139	2516788	Newly-signed Tony Simmons might work as the third receiver.	Newly-signed Tony Simmons might work as the third reciever.	119522518	1475198330947	1475198331054	e	69
235139	2516788	Newly-signed Tony Simmons might work as the third receiver.	Newly-signed Tony Simmons might work as the third reciever.	119522522	1475198331174	1475198331272	c	67
235139	2516788	Newly-signed Tony Simmons might work as the third receiver.	Newly-signed Tony Simmons might work as the third reciever.	119522527	1475198331344	1475198331447	i	73
235139	2516788	Newly-signed Tony Simmons might work as the third receiver.	Newly-signed Tony Simmons might work as the third reciever.	119522529	1475198331447	1475198331536	e	69
235139	2516788	Newly-signed Tony Simmons might work as the third receiver.	Newly-signed Tony Simmons might work as the third reciever.	119522598	1475198331640	1475198331715	v	86
235139	2516788	Newly-signed Tony Simmons might work as the third receiver.	Newly-signed Tony Simmons might work as the third reciever.	119522604	1475198331778	1475198331888	e	69
235139	2516788	Newly-signed Tony Simmons might work as the third receiver.	Newly-signed Tony Simmons might work as the third reciever.	119522611	1475198331858	1475198331957	r	82
235139	2516812	He is listed as probable for Monday's game against Tennessee.	He is listed as probable for Monday's game against Tennessee.	119522815	1475198334769	1475198335017	SHIFT	16
235139	2516812	He is listed as probable for Monday's game against Tennessee.	He is listed as probable for Monday's game against Tennessee.	119522820	1475198334969	1475198335064	H	72
235139	2516812	He is listed as probable for Monday's game against Tennessee.	He is listed as probable for Monday's game against Tennessee.	119522822	1475198335136	1475198335248	e	69
235139	2516812	He is listed as probable for Monday's game against Tennessee.	He is listed as probable for Monday's game against Tennessee.	119522826	1475198335216	1475198335322	 	32
235139	2516812	He is listed as probable for Monday's game against Tennessee.	He is listed as probable for Monday's game against Tennessee.	119522831	1475198335353	1475198335464	i	73
235139	2516812	He is listed as probable for Monday's game against Tennessee.	He is listed as probable for Monday's game against Tennessee.	119522834	1475198335479	1475198335616	s	83
235139	2516812	He is listed as probable for Monday's game against Tennessee.	He is listed as probable for Monday's game against Tennessee.	119522861	1475198335565	1475198335675	 	32
235139	2516812	He is listed as probable for Monday's game against Tennessee.	He is listed as probable for Monday's game against Tennessee.	119522865	1475198335837	1475198335935	l	76
235139	2516812	He is listed as probable for Monday's game against Tennessee.	He is listed as probable for Monday's game against Tennessee.	119522872	1475198336018	1475198336126	i	73
235139	2516812	He is listed as probable for Monday's game against Tennessee.	He is listed as probable for Monday's game against Tennessee.	119522877	1475198336141	1475198336221	s	83
235139	2516812	He is listed as probable for Monday's game against Tennessee.	He is listed as probable for Monday's game against Tennessee.	119522883	1475198336221	1475198336326	t	84
235139	2516812	He is listed as probable for Monday's game against Tennessee.	He is listed as probable for Monday's game against Tennessee.	119522887	1475198336341	1475198336491	e	69
235139	2516812	He is listed as probable for Monday's game against Tennessee.	He is listed as probable for Monday's game against Tennessee.	119522905	1475198336491	1475198336599	d	68
235139	2516812	He is listed as probable for Monday's game against Tennessee.	He is listed as probable for Monday's game against Tennessee.	119522909	1475198336599	1475198336720	 	32
235139	2516812	He is listed as probable for Monday's game against Tennessee.	He is listed as probable for Monday's game against Tennessee.	119522912	1475198336751	1475198336880	a	65
235139	2516812	He is listed as probable for Monday's game against Tennessee.	He is listed as probable for Monday's game against Tennessee.	119522915	1475198336860	1475198336992	s	83
235139	2516812	He is listed as probable for Monday's game against Tennessee.	He is listed as probable for Monday's game against Tennessee.	119522971	1475198336976	1475198337082	 	32
235139	2516812	He is listed as probable for Monday's game against Tennessee.	He is listed as probable for Monday's game against Tennessee.	119522976	1475198337186	1475198337301	p	80
235139	2516812	He is listed as probable for Monday's game against Tennessee.	He is listed as probable for Monday's game against Tennessee.	119522980	1475198337325	1475198337428	r	82
235139	2516812	He is listed as probable for Monday's game against Tennessee.	He is listed as probable for Monday's game against Tennessee.	119522989	1475198337444	1475198337584	o	79
235139	2516812	He is listed as probable for Monday's game against Tennessee.	He is listed as probable for Monday's game against Tennessee.	119522992	1475198337599	1475198337654	b	66
235139	2516812	He is listed as probable for Monday's game against Tennessee.	He is listed as probable for Monday's game against Tennessee.	119522996	1475198337800	1475198337920	a	65
235139	2516812	He is listed as probable for Monday's game against Tennessee.	He is listed as probable for Monday's game against Tennessee.	119523011	1475198337994	1475198338055	b	66
235139	2516812	He is listed as probable for Monday's game against Tennessee.	He is listed as probable for Monday's game against Tennessee.	119523017	1475198338102	1475198338223	l	76
235139	2516812	He is listed as probable for Monday's game against Tennessee.	He is listed as probable for Monday's game against Tennessee.	119523021	1475198338239	1475198338368	e	69
235139	2516812	He is listed as probable for Monday's game against Tennessee.	He is listed as probable for Monday's game against Tennessee.	119523025	1475198338326	1475198338446	 	32
235139	2516812	He is listed as probable for Monday's game against Tennessee.	He is listed as probable for Monday's game against Tennessee.	119523028	1475198338512	1475198338592	f	70
235139	2516812	He is listed as probable for Monday's game against Tennessee.	He is listed as probable for Monday's game against Tennessee.	119523066	1475198338624	1475198338736	o	79
235139	2516812	He is listed as probable for Monday's game against Tennessee.	He is listed as probable for Monday's game against Tennessee.	119523070	1475198338704	1475198338825	r	82
235139	2516812	He is listed as probable for Monday's game against Tennessee.	He is listed as probable for Monday's game against Tennessee.	119523074	1475198338773	1475198338903	 	32
235139	2516812	He is listed as probable for Monday's game against Tennessee.	He is listed as probable for Monday's game against Tennessee.	119523079	1475198338903	1475198339072	SHIFT	16
235139	2516812	He is listed as probable for Monday's game against Tennessee.	He is listed as probable for Monday's game against Tennessee.	119523084	1475198339032	1475198339147	M	77
235139	2516812	He is listed as probable for Monday's game against Tennessee.	He is listed as probable for Monday's game against Tennessee.	119523088	1475198339194	1475198339312	o	79
235139	2516812	He is listed as probable for Monday's game against Tennessee.	He is listed as probable for Monday's game against Tennessee.	119523162	1475198339274	1475198339403	n	78
235139	2516812	He is listed as probable for Monday's game against Tennessee.	He is listed as probable for Monday's game against Tennessee.	119523169	1475198339460	1475198339574	d	68
235139	2516812	He is listed as probable for Monday's game against Tennessee.	He is listed as probable for Monday's game against Tennessee.	119523177	1475198339574	1475198339689	a	65
235139	2516812	He is listed as probable for Monday's game against Tennessee.	He is listed as probable for Monday's game against Tennessee.	119523187	1475198339758	1475198339842	y	89
235139	2516812	He is listed as probable for Monday's game against Tennessee.	He is listed as probable for Monday's game against Tennessee.	119523193	1475198340783	1475198340884	'	222
235139	2516812	He is listed as probable for Monday's game against Tennessee.	He is listed as probable for Monday's game against Tennessee.	119523197	1475198340884	1475198340979	s	83
235139	2516812	He is listed as probable for Monday's game against Tennessee.	He is listed as probable for Monday's game against Tennessee.	119523270	1475198340930	1475198341061	 	32
235139	2516812	He is listed as probable for Monday's game against Tennessee.	He is listed as probable for Monday's game against Tennessee.	119523273	1475198341993	1475198342110	g	71
235139	2516812	He is listed as probable for Monday's game against Tennessee.	He is listed as probable for Monday's game against Tennessee.	119523276	1475198342128	1475198342212	a	65
235139	2516812	He is listed as probable for Monday's game against Tennessee.	He is listed as probable for Monday's game against Tennessee.	119523280	1475198342269	1475198342315	m	78
235139	2516812	He is listed as probable for Monday's game against Tennessee.	He is listed as probable for Monday's game against Tennessee.	119523284	1475198342666	1475198342740	BKSP	8
235139	2516812	He is listed as probable for Monday's game against Tennessee.	He is listed as probable for Monday's game against Tennessee.	119523287	1475198342832	1475198342898	BKSP	8
235139	2516812	He is listed as probable for Monday's game against Tennessee.	He is listed as probable for Monday's game against Tennessee.	119523289	1475198343232	1475198343328	m	77
235139	2516812	He is listed as probable for Monday's game against Tennessee.	He is listed as probable for Monday's game against Tennessee.	119523305	1475198343283	1475198343417	e	69
235139	2516812	He is listed as probable for Monday's game against Tennessee.	He is listed as probable for Monday's game against Tennessee.	119523311	1475198343387	1475198343519	 	32
235139	2516812	He is listed as probable for Monday's game against Tennessee.	He is listed as probable for Monday's game against Tennessee.	119523315	1475198343536	1475198343656	a	65
235139	2516812	He is listed as probable for Monday's game against Tennessee.	He is listed as probable for Monday's game against Tennessee.	119523318	1475198343688	1475198343797	g	71
235139	2516812	He is listed as probable for Monday's game against Tennessee.	He is listed as probable for Monday's game against Tennessee.	119523321	1475198343812	1475198343952	a	65
235139	2516812	He is listed as probable for Monday's game against Tennessee.	He is listed as probable for Monday's game against Tennessee.	119523387	1475198343930	1475198344085	i	73
235139	2516812	He is listed as probable for Monday's game against Tennessee.	He is listed as probable for Monday's game against Tennessee.	119523389	1475198344049	1475198344189	n	78
235139	2516812	He is listed as probable for Monday's game against Tennessee.	He is listed as probable for Monday's game against Tennessee.	119523391	1475198344418	1475198344533	s	83
235139	2516812	He is listed as probable for Monday's game against Tennessee.	He is listed as probable for Monday's game against Tennessee.	119523394	1475198344620	1475198344771	t	84
235139	2516812	He is listed as probable for Monday's game against Tennessee.	He is listed as probable for Monday's game against Tennessee.	119523397	1475198344733	1475198344854	 	32
235139	2516812	He is listed as probable for Monday's game against Tennessee.	He is listed as probable for Monday's game against Tennessee.	119523404	1475198345001	1475198345237	SHIFT	16
235139	2516812	He is listed as probable for Monday's game against Tennessee.	He is listed as probable for Monday's game against Tennessee.	119523457	1475198345172	1475198345275	T	84
235139	2516812	He is listed as probable for Monday's game against Tennessee.	He is listed as probable for Monday's game against Tennessee.	119523464	1475198345338	1475198345434	e	69
235139	2516812	He is listed as probable for Monday's game against Tennessee.	He is listed as probable for Monday's game against Tennessee.	119523472	1475198345491	1475198345555	n	78
235139	2516812	He is listed as probable for Monday's game against Tennessee.	He is listed as probable for Monday's game against Tennessee.	119523477	1475198345634	1475198345762	n	78
235139	2516812	He is listed as probable for Monday's game against Tennessee.	He is listed as probable for Monday's game against Tennessee.	119523483	1475198345902	1475198346012	e	69
235139	2516812	He is listed as probable for Monday's game against Tennessee.	He is listed as probable for Monday's game against Tennessee.	119523487	1475198346079	1475198346159	s	83
235139	2516812	He is listed as probable for Monday's game against Tennessee.	He is listed as probable for Monday's game against Tennessee.	119523556	1475198346234	1475198346368	s	83
235139	2516812	He is listed as probable for Monday's game against Tennessee.	He is listed as probable for Monday's game against Tennessee.	119523559	1475198346336	1475198346437	e	69
235139	2516812	He is listed as probable for Monday's game against Tennessee.	He is listed as probable for Monday's game against Tennessee.	119523562	1475198346522	1475198346637	e	69
235139	2516829	Call me anytime for information.	Call me anytime for information.	119523731	1475198349379	1475198349781	SHIFT	16
235139	2516829	Call me anytime for information.	Call me anytime for information.	119523733	1475198349742	1475198349843	C	67
235139	2516829	Call me anytime for information.	Call me anytime for information.	119523735	1475198349932	1475198350064	a	65
235139	2516829	Call me anytime for information.	Call me anytime for information.	119523737	1475198350044	1475198350082	l	76
235139	2516829	Call me anytime for information.	Call me anytime for information.	119523738	1475198350185	1475198350249	l	76
235139	2516829	Call me anytime for information.	Call me anytime for information.	119523740	1475198350281	1475198350416	 	32
235139	2516829	Call me anytime for information.	Call me anytime for information.	119523750	1475198350388	1475198350484	m	77
235139	2516829	Call me anytime for information.	Call me anytime for information.	119523753	1475198350433	1475198350583	e	69
235139	2516829	Call me anytime for information.	Call me anytime for information.	119523756	1475198350531	1475198350667	 	32
235139	2516829	Call me anytime for information.	Call me anytime for information.	119523761	1475198350630	1475198350768	a	65
235139	2516829	Call me anytime for information.	Call me anytime for information.	119523765	1475198350730	1475198350846	n	78
235139	2516829	Call me anytime for information.	Call me anytime for information.	119523773	1475198350872	1475198350917	y	89
235139	2516829	Call me anytime for information.	Call me anytime for information.	119523797	1475198351056	1475198351134	t	84
235139	2516829	Call me anytime for information.	Call me anytime for information.	119523806	1475198351100	1475198351170	h	72
235139	2516829	Call me anytime for information.	Call me anytime for information.	119523812	1475198351185	1475198351312	i	73
235139	2516829	Call me anytime for information.	Call me anytime for information.	119523817	1475198351283	1475198351401	n	78
235139	2516829	Call me anytime for information.	Call me anytime for information.	119523968	1475198351375	1475198351535	g	71
235139	2516829	Call me anytime for information.	Call me anytime for information.	119523974	1475198351499	1475198351614	 	32
235139	2516829	Call me anytime for information.	Call me anytime for information.	119523979	1475198351791	1475198351850	BKSP	8
235139	2516829	Call me anytime for information.	Call me anytime for information.	119523987	1475198351938	1475198351987	BKSP	8
235139	2516829	Call me anytime for information.	Call me anytime for information.	119523992	1475198352086	1475198352137	BKSP	8
235139	2516829	Call me anytime for information.	Call me anytime for information.	119523996	1475198352225	1475198352298	BKSP	8
235139	2516829	Call me anytime for information.	Call me anytime for information.	119524000	1475198353008	1475198353095	BKSP	8
235139	2516829	Call me anytime for information.	Call me anytime for information.	119524002	1475198353320	1475198353413	i	73
235139	2516829	Call me anytime for information.	Call me anytime for information.	119524006	1475198353413	1475198353552	m	77
235139	2516829	Call me anytime for information.	Call me anytime for information.	119524008	1475198353525	1475198353640	e	69
235139	2516829	Call me anytime for information.	Call me anytime for information.	119524034	1475198353589	1475198353720	 	32
235139	2516829	Call me anytime for information.	Call me anytime for information.	119524040	1475198353855	1475198353937	f	70
235139	2516829	Call me anytime for information.	Call me anytime for information.	119524047	1475198353985	1475198354090	o	79
235139	2516829	Call me anytime for information.	Call me anytime for information.	119524053	1475198354055	1475198354200	r	82
235139	2516829	Call me anytime for information.	Call me anytime for information.	119524061	1475198354137	1475198354247	 	32
235139	2516829	Call me anytime for information.	Call me anytime for information.	119524071	1475198354262	1475198354384	i	73
235139	2516829	Call me anytime for information.	Call me anytime for information.	119524097	1475198354339	1475198354475	n	78
235139	2516829	Call me anytime for information.	Call me anytime for information.	119524102	1475198354475	1475198354572	f	70
235139	2516829	Call me anytime for information.	Call me anytime for information.	119524105	1475198354607	1475198354699	o	79
235139	2516829	Call me anytime for information.	Call me anytime for information.	119524110	1475198354699	1475198354815	r	82
235139	2516829	Call me anytime for information.	Call me anytime for information.	119524113	1475198354846	1475198354948	m	77
235139	2516829	Call me anytime for information.	Call me anytime for information.	119524118	1475198354948	1475198355056	a	65
235139	2516829	Call me anytime for information.	Call me anytime for information.	119524181	1475198355017	1475198355133	t	84
235139	2516829	Call me anytime for information.	Call me anytime for information.	119524187	1475198355149	1475198355222	i	73
235139	2516829	Call me anytime for information.	Call me anytime for information.	119524192	1475198355326	1475198355440	o	79
235139	2516829	Call me anytime for information.	Call me anytime for information.	119524196	1475198355408	1475198355532	n	78
