PARTICIPANT_ID	TEST_SECTION_ID	SENTENCE	USER_INPUT	KEYSTROKE_ID	PRESS_TIME	RELEASE_TIME	LETTER	KEYCODE
239811	2565729	Diplomats are predicting that the embargo will remain in force.	Diplomats are predicting that the embargo will remain in force.	121853286	1475257536647	1475257536830	SHIFT	16
239811	2565729	Diplomats are predicting that the embargo will remain in force.	Diplomats are predicting that the embargo will remain in force.	121853288	1475257536745	1475257536904	D	68
239811	2565729	Diplomats are predicting that the embargo will remain in force.	Diplomats are predicting that the embargo will remain in force.	121853291	1475257536918	1475257537021	i	73
239811	2565729	Diplomats are predicting that the embargo will remain in force.	Diplomats are predicting that the embargo will remain in force.	121853295	1475257537115	1475257537210	m	77
239811	2565729	Diplomats are predicting that the embargo will remain in force.	Diplomats are predicting that the embargo will remain in force.	121853297	1475257537496	1475257537615	BKSP	8
239811	2565729	Diplomats are predicting that the embargo will remain in force.	Diplomats are predicting that the embargo will remain in force.	121853300	1475257537697	1475257537810	p	80
239811	2565729	Diplomats are predicting that the embargo will remain in force.	Diplomats are predicting that the embargo will remain in force.	121853303	1475257538248	1475257538342	l	76
239811	2565729	Diplomats are predicting that the embargo will remain in force.	Diplomats are predicting that the embargo will remain in force.	121853324	1475257538411	1475257538509	o	79
239811	2565729	Diplomats are predicting that the embargo will remain in force.	Diplomats are predicting that the embargo will remain in force.	121853326	1475257538625	1475257538727	m	77
239811	2565729	Diplomats are predicting that the embargo will remain in force.	Diplomats are predicting that the embargo will remain in force.	121853330	1475257538796	1475257538904	a	65
239811	2565729	Diplomats are predicting that the embargo will remain in force.	Diplomats are predicting that the embargo will remain in force.	121853337	1475257538908	1475257539008	t	84
239811	2565729	Diplomats are predicting that the embargo will remain in force.	Diplomats are predicting that the embargo will remain in force.	121853347	1475257539018	1475257539113	s	83
239811	2565729	Diplomats are predicting that the embargo will remain in force.	Diplomats are predicting that the embargo will remain in force.	121853412	1475257539132	1475257539256	 	32
239811	2565729	Diplomats are predicting that the embargo will remain in force.	Diplomats are predicting that the embargo will remain in force.	121853415	1475257539295	1475257539388	a	65
239811	2565729	Diplomats are predicting that the embargo will remain in force.	Diplomats are predicting that the embargo will remain in force.	121853418	1475257539491	1475257539563	r	82
239811	2565729	Diplomats are predicting that the embargo will remain in force.	Diplomats are predicting that the embargo will remain in force.	121853419	1475257539634	1475257539735	e	69
239811	2565729	Diplomats are predicting that the embargo will remain in force.	Diplomats are predicting that the embargo will remain in force.	121853421	1475257539741	1475257539813	 	32
239811	2565729	Diplomats are predicting that the embargo will remain in force.	Diplomats are predicting that the embargo will remain in force.	121853458	1475257539947	1475257540077	p	80
239811	2565729	Diplomats are predicting that the embargo will remain in force.	Diplomats are predicting that the embargo will remain in force.	121853462	1475257540049	1475257540136	r	82
239811	2565729	Diplomats are predicting that the embargo will remain in force.	Diplomats are predicting that the embargo will remain in force.	121853467	1475257540188	1475257540284	e	69
239811	2565729	Diplomats are predicting that the embargo will remain in force.	Diplomats are predicting that the embargo will remain in force.	121853472	1475257540337	1475257540451	d	68
239811	2565729	Diplomats are predicting that the embargo will remain in force.	Diplomats are predicting that the embargo will remain in force.	121853480	1475257540464	1475257540559	i	73
239811	2565729	Diplomats are predicting that the embargo will remain in force.	Diplomats are predicting that the embargo will remain in force.	121853512	1475257540564	1475257540649	c	67
239811	2565729	Diplomats are predicting that the embargo will remain in force.	Diplomats are predicting that the embargo will remain in force.	121853514	1475257540755	1475257540832	t	84
239811	2565729	Diplomats are predicting that the embargo will remain in force.	Diplomats are predicting that the embargo will remain in force.	121853520	1475257540891	1475257540995	i	73
239811	2565729	Diplomats are predicting that the embargo will remain in force.	Diplomats are predicting that the embargo will remain in force.	121853525	1475257541074	1475257541186	n	78
239811	2565729	Diplomats are predicting that the embargo will remain in force.	Diplomats are predicting that the embargo will remain in force.	121853549	1475257541174	1475257541245	g	71
239811	2565729	Diplomats are predicting that the embargo will remain in force.	Diplomats are predicting that the embargo will remain in force.	121853554	1475257541247	1475257541349	 	32
239811	2565729	Diplomats are predicting that the embargo will remain in force.	Diplomats are predicting that the embargo will remain in force.	121853558	1475257541362	1475257541453	t	84
239811	2565729	Diplomats are predicting that the embargo will remain in force.	Diplomats are predicting that the embargo will remain in force.	121853562	1475257541470	1475257541580	h	72
239811	2565729	Diplomats are predicting that the embargo will remain in force.	Diplomats are predicting that the embargo will remain in force.	121853569	1475257541600	1475257541716	a	65
239811	2565729	Diplomats are predicting that the embargo will remain in force.	Diplomats are predicting that the embargo will remain in force.	121853581	1475257541698	1475257541794	t	84
239811	2565729	Diplomats are predicting that the embargo will remain in force.	Diplomats are predicting that the embargo will remain in force.	121853584	1475257541743	1475257541817	 	32
239811	2565729	Diplomats are predicting that the embargo will remain in force.	Diplomats are predicting that the embargo will remain in force.	121853587	1475257541882	1475257541989	t	84
239811	2565729	Diplomats are predicting that the embargo will remain in force.	Diplomats are predicting that the embargo will remain in force.	121853590	1475257542089	1475257542158	h	72
239811	2565729	Diplomats are predicting that the embargo will remain in force.	Diplomats are predicting that the embargo will remain in force.	121853592	1475257542152	1475257542266	e	69
239811	2565729	Diplomats are predicting that the embargo will remain in force.	Diplomats are predicting that the embargo will remain in force.	121853686	1475257542256	1475257542357	 	32
239811	2565729	Diplomats are predicting that the embargo will remain in force.	Diplomats are predicting that the embargo will remain in force.	121853695	1475257542393	1475257542510	e	69
239811	2565729	Diplomats are predicting that the embargo will remain in force.	Diplomats are predicting that the embargo will remain in force.	121853704	1475257542511	1475257542627	m	77
239811	2565729	Diplomats are predicting that the embargo will remain in force.	Diplomats are predicting that the embargo will remain in force.	121853711	1475257543114	1475257543211	b	66
239811	2565729	Diplomats are predicting that the embargo will remain in force.	Diplomats are predicting that the embargo will remain in force.	121853720	1475257543223	1475257543328	a	65
239811	2565729	Diplomats are predicting that the embargo will remain in force.	Diplomats are predicting that the embargo will remain in force.	121853727	1475257543429	1475257543540	r	82
239811	2565729	Diplomats are predicting that the embargo will remain in force.	Diplomats are predicting that the embargo will remain in force.	121853753	1475257543654	1475257543731	g	71
239811	2565729	Diplomats are predicting that the embargo will remain in force.	Diplomats are predicting that the embargo will remain in force.	121853757	1475257543820	1475257543972	o	79
239811	2565729	Diplomats are predicting that the embargo will remain in force.	Diplomats are predicting that the embargo will remain in force.	121853759	1475257543921	1475257544030	 	32
239811	2565729	Diplomats are predicting that the embargo will remain in force.	Diplomats are predicting that the embargo will remain in force.	121853763	1475257544025	1475257544122	w	87
239811	2565729	Diplomats are predicting that the embargo will remain in force.	Diplomats are predicting that the embargo will remain in force.	121853781	1475257544087	1475257544181	i	73
239811	2565729	Diplomats are predicting that the embargo will remain in force.	Diplomats are predicting that the embargo will remain in force.	121853783	1475257544273	1475257544344	l	76
239811	2565729	Diplomats are predicting that the embargo will remain in force.	Diplomats are predicting that the embargo will remain in force.	121853785	1475257544409	1475257544532	l	76
239811	2565729	Diplomats are predicting that the embargo will remain in force.	Diplomats are predicting that the embargo will remain in force.	121853789	1475257544471	1475257544577	 	32
239811	2565729	Diplomats are predicting that the embargo will remain in force.	Diplomats are predicting that the embargo will remain in force.	121853793	1475257544558	1475257544640	r	82
239811	2565729	Diplomats are predicting that the embargo will remain in force.	Diplomats are predicting that the embargo will remain in force.	121853798	1475257544702	1475257544806	e	69
239811	2565729	Diplomats are predicting that the embargo will remain in force.	Diplomats are predicting that the embargo will remain in force.	121853812	1475257544848	1475257544939	m	77
239811	2565729	Diplomats are predicting that the embargo will remain in force.	Diplomats are predicting that the embargo will remain in force.	121853815	1475257544989	1475257545106	a	65
239811	2565729	Diplomats are predicting that the embargo will remain in force.	Diplomats are predicting that the embargo will remain in force.	121853817	1475257545107	1475257545232	i	73
239811	2565729	Diplomats are predicting that the embargo will remain in force.	Diplomats are predicting that the embargo will remain in force.	121853820	1475257545219	1475257545354	n	78
239811	2565729	Diplomats are predicting that the embargo will remain in force.	Diplomats are predicting that the embargo will remain in force.	121853871	1475257545313	1475257545397	 	32
239811	2565729	Diplomats are predicting that the embargo will remain in force.	Diplomats are predicting that the embargo will remain in force.	121853873	1475257545419	1475257545547	i	73
239811	2565729	Diplomats are predicting that the embargo will remain in force.	Diplomats are predicting that the embargo will remain in force.	121853877	1475257545548	1475257545686	n	78
239811	2565729	Diplomats are predicting that the embargo will remain in force.	Diplomats are predicting that the embargo will remain in force.	121853880	1475257545625	1475257545751	 	32
239811	2565729	Diplomats are predicting that the embargo will remain in force.	Diplomats are predicting that the embargo will remain in force.	121853883	1475257545790	1475257545891	f	70
239811	2565729	Diplomats are predicting that the embargo will remain in force.	Diplomats are predicting that the embargo will remain in force.	121853887	1475257545966	1475257546083	o	79
239811	2565729	Diplomats are predicting that the embargo will remain in force.	Diplomats are predicting that the embargo will remain in force.	121853933	1475257546109	1475257546207	r	82
239811	2565729	Diplomats are predicting that the embargo will remain in force.	Diplomats are predicting that the embargo will remain in force.	121853936	1475257546288	1475257546379	c	67
239811	2565729	Diplomats are predicting that the embargo will remain in force.	Diplomats are predicting that the embargo will remain in force.	121853939	1475257546457	1475257546558	e	69
239811	2565729	Diplomats are predicting that the embargo will remain in force.	Diplomats are predicting that the embargo will remain in force.	121853943	1475257546593	1475257546690	.	190
239811	2565755	Anything exciting going on today?	Anything exciting going on today?	121854308	1475257550872	1475257551071	SHIFT	16
239811	2565755	Anything exciting going on today?	Anything exciting going on today?	121854314	1475257551003	1475257551162	A	65
239811	2565755	Anything exciting going on today?	Anything exciting going on today?	121854320	1475257551163	1475257551259	n	78
239811	2565755	Anything exciting going on today?	Anything exciting going on today?	121854326	1475257551311	1475257551406	y	89
239811	2565755	Anything exciting going on today?	Anything exciting going on today?	121854330	1475257551455	1475257551555	t	84
239811	2565755	Anything exciting going on today?	Anything exciting going on today?	121854337	1475257551627	1475257551721	h	72
239811	2565755	Anything exciting going on today?	Anything exciting going on today?	121854358	1475257551751	1475257551858	i	73
239811	2565755	Anything exciting going on today?	Anything exciting going on today?	121854360	1475257551897	1475257552032	n	78
239811	2565755	Anything exciting going on today?	Anything exciting going on today?	121854364	1475257552013	1475257552101	g	71
239811	2565755	Anything exciting going on today?	Anything exciting going on today?	121854369	1475257552120	1475257552231	 	32
239811	2565755	Anything exciting going on today?	Anything exciting going on today?	121854376	1475257552258	1475257552371	e	69
239811	2565755	Anything exciting going on today?	Anything exciting going on today?	121854413	1475257552459	1475257552569	x	88
239811	2565755	Anything exciting going on today?	Anything exciting going on today?	121854421	1475257552644	1475257552738	c	67
239811	2565755	Anything exciting going on today?	Anything exciting going on today?	121854428	1475257552793	1475257552903	i	73
239811	2565755	Anything exciting going on today?	Anything exciting going on today?	121854433	1475257552878	1475257552977	t	84
239811	2565755	Anything exciting going on today?	Anything exciting going on today?	121854440	1475257552978	1475257553090	i	73
239811	2565755	Anything exciting going on today?	Anything exciting going on today?	121854455	1475257553144	1475257553226	n	78
239811	2565755	Anything exciting going on today?	Anything exciting going on today?	121854460	1475257553222	1475257553318	g	71
239811	2565755	Anything exciting going on today?	Anything exciting going on today?	121854466	1475257553300	1475257553391	 	32
239811	2565755	Anything exciting going on today?	Anything exciting going on today?	121854471	1475257553417	1475257553516	g	71
239811	2565755	Anything exciting going on today?	Anything exciting going on today?	121854521	1475257553505	1475257553592	o	79
239811	2565755	Anything exciting going on today?	Anything exciting going on today?	121854526	1475257553651	1475257553736	i	73
239811	2565755	Anything exciting going on today?	Anything exciting going on today?	121854535	1475257553801	1475257553901	n	78
239811	2565755	Anything exciting going on today?	Anything exciting going on today?	121854540	1475257553911	1475257554006	g	71
239811	2565755	Anything exciting going on today?	Anything exciting going on today?	121854543	1475257554011	1475257554096	 	32
239811	2565755	Anything exciting going on today?	Anything exciting going on today?	121854550	1475257554146	1475257554266	o	79
239811	2565755	Anything exciting going on today?	Anything exciting going on today?	121854571	1475257554295	1475257554442	n	78
239811	2565755	Anything exciting going on today?	Anything exciting going on today?	121854575	1475257554396	1475257554520	 	32
239811	2565755	Anything exciting going on today?	Anything exciting going on today?	121854579	1475257554475	1475257554585	t	84
239811	2565755	Anything exciting going on today?	Anything exciting going on today?	121854587	1475257554572	1475257554697	o	79
239811	2565755	Anything exciting going on today?	Anything exciting going on today?	121854594	1475257554709	1475257554804	d	68
239811	2565755	Anything exciting going on today?	Anything exciting going on today?	121854675	1475257554901	1475257555053	a	65
239811	2565755	Anything exciting going on today?	Anything exciting going on today?	121854682	1475257555042	1475257555155	y	89
239811	2565755	Anything exciting going on today?	Anything exciting going on today?	121854690	1475257555363	1475257555552	SHIFT	16
239811	2565755	Anything exciting going on today?	Anything exciting going on today?	121854699	1475257555469	1475257555621	?	191
239811	2565770	Very foggy this morning.	Very foggy this morning.	121855001	1475257559540	1475257559813	SHIFT	16
239811	2565770	Very foggy this morning.	Very foggy this morning.	121854997	1475257559687	1475257559803	V	86
239811	2565770	Very foggy this morning.	Very foggy this morning.	121855006	1475257559973	1475257560109	e	69
239811	2565770	Very foggy this morning.	Very foggy this morning.	121855012	1475257560054	1475257560197	r	82
239811	2565770	Very foggy this morning.	Very foggy this morning.	121855018	1475257560138	1475257560278	y	89
239811	2565770	Very foggy this morning.	Very foggy this morning.	121855084	1475257560223	1475257560352	 	32
239811	2565770	Very foggy this morning.	Very foggy this morning.	121855087	1475257560333	1475257560418	g	71
239811	2565770	Very foggy this morning.	Very foggy this morning.	121855094	1475257560690	1475257560773	BKSP	8
239811	2565770	Very foggy this morning.	Very foggy this morning.	121855101	1475257560836	1475257560926	f	70
239811	2565770	Very foggy this morning.	Very foggy this morning.	121855108	1475257560940	1475257561053	o	79
239811	2565770	Very foggy this morning.	Very foggy this morning.	121855118	1475257561099	1475257561173	g	71
239811	2565770	Very foggy this morning.	Very foggy this morning.	121855126	1475257561229	1475257561330	g	71
239811	2565770	Very foggy this morning.	Very foggy this morning.	121855166	1475257561349	1475257561476	y	89
239811	2565770	Very foggy this morning.	Very foggy this morning.	121855169	1475257561417	1475257561547	 	32
239811	2565770	Very foggy this morning.	Very foggy this morning.	121855174	1475257561721	1475257561819	t	84
239811	2565770	Very foggy this morning.	Very foggy this morning.	121855180	1475257561835	1475257561925	h	72
239811	2565770	Very foggy this morning.	Very foggy this morning.	121855187	1475257562007	1475257562123	i	73
239811	2565770	Very foggy this morning.	Very foggy this morning.	121855274	1475257562105	1475257562206	s	83
239811	2565770	Very foggy this morning.	Very foggy this morning.	121855281	1475257562186	1475257562280	 	32
239811	2565770	Very foggy this morning.	Very foggy this morning.	121855286	1475257562316	1475257562423	m	77
239811	2565770	Very foggy this morning.	Very foggy this morning.	121855292	1475257562665	1475257562746	r	82
239811	2565770	Very foggy this morning.	Very foggy this morning.	121855299	1475257562987	1475257563081	BKSP	8
239811	2565770	Very foggy this morning.	Very foggy this morning.	121855305	1475257563201	1475257563300	o	79
239811	2565770	Very foggy this morning.	Very foggy this morning.	121855312	1475257563514	1475257563609	r	82
239811	2565770	Very foggy this morning.	Very foggy this morning.	121855331	1475257563652	1475257563742	n	78
239811	2565770	Very foggy this morning.	Very foggy this morning.	121855336	1475257563794	1475257563902	i	73
239811	2565770	Very foggy this morning.	Very foggy this morning.	121855342	1475257563911	1475257564044	n	78
239811	2565770	Very foggy this morning.	Very foggy this morning.	121855345	1475257564020	1475257564107	g	71
239811	2565770	Very foggy this morning.	Very foggy this morning.	121855350	1475257564159	1475257564275	.	190
239811	2565789	I didn t mean to get you so bent out of shape.	I didn t mean to get you so bent out of shape.	121856224	1475257573392	1475257573709	SHIFT	16
239811	2565789	I didn t mean to get you so bent out of shape.	I didn t mean to get you so bent out of shape.	121856221	1475257573527	1475257573640	I	73
239811	2565789	I didn t mean to get you so bent out of shape.	I didn t mean to get you so bent out of shape.	121856229	1475257573781	1475257573901	 	32
239811	2565789	I didn t mean to get you so bent out of shape.	I didn t mean to get you so bent out of shape.	121856236	1475257573963	1475257574082	d	68
239811	2565789	I didn t mean to get you so bent out of shape.	I didn t mean to get you so bent out of shape.	121856245	1475257574233	1475257574353	i	73
239811	2565789	I didn t mean to get you so bent out of shape.	I didn t mean to get you so bent out of shape.	121856252	1475257574386	1475257574519	d	68
239811	2565789	I didn t mean to get you so bent out of shape.	I didn t mean to get you so bent out of shape.	121856366	1475257574569	1475257574704	n	78
239811	2565789	I didn t mean to get you so bent out of shape.	I didn t mean to get you so bent out of shape.	121856368	1475257575089	1475257575196	 	32
239811	2565789	I didn t mean to get you so bent out of shape.	I didn t mean to get you so bent out of shape.	121856372	1475257575315	1475257575403	t	84
239811	2565789	I didn t mean to get you so bent out of shape.	I didn t mean to get you so bent out of shape.	121856375	1475257575446	1475257575539	 	32
239811	2565789	I didn t mean to get you so bent out of shape.	I didn t mean to get you so bent out of shape.	121856378	1475257575695	1475257575822	m	77
239811	2565789	I didn t mean to get you so bent out of shape.	I didn t mean to get you so bent out of shape.	121856435	1475257575829	1475257575923	e	69
239811	2565789	I didn t mean to get you so bent out of shape.	I didn t mean to get you so bent out of shape.	121856439	1475257576004	1475257576146	a	65
239811	2565789	I didn t mean to get you so bent out of shape.	I didn t mean to get you so bent out of shape.	121856443	1475257576125	1475257576244	n	78
239811	2565789	I didn t mean to get you so bent out of shape.	I didn t mean to get you so bent out of shape.	121856444	1475257576193	1475257576319	 	32
239811	2565789	I didn t mean to get you so bent out of shape.	I didn t mean to get you so bent out of shape.	121856445	1475257576359	1475257576460	t	84
239811	2565789	I didn t mean to get you so bent out of shape.	I didn t mean to get you so bent out of shape.	121856487	1475257576442	1475257576569	o	79
239811	2565789	I didn t mean to get you so bent out of shape.	I didn t mean to get you so bent out of shape.	121856490	1475257576508	1475257576637	 	32
239811	2565789	I didn t mean to get you so bent out of shape.	I didn t mean to get you so bent out of shape.	121856493	1475257576664	1475257576738	g	71
239811	2565789	I didn t mean to get you so bent out of shape.	I didn t mean to get you so bent out of shape.	121856497	1475257576834	1475257576934	e	69
239811	2565789	I didn t mean to get you so bent out of shape.	I didn t mean to get you so bent out of shape.	121856501	1475257577016	1475257577117	t	84
239811	2565789	I didn t mean to get you so bent out of shape.	I didn t mean to get you so bent out of shape.	121856505	1475257577139	1475257577227	 	32
239811	2565789	I didn t mean to get you so bent out of shape.	I didn t mean to get you so bent out of shape.	121856534	1475257577236	1475257577340	y	89
239811	2565789	I didn t mean to get you so bent out of shape.	I didn t mean to get you so bent out of shape.	121856541	1475257577334	1475257577447	o	79
239811	2565789	I didn t mean to get you so bent out of shape.	I didn t mean to get you so bent out of shape.	121856548	1475257577409	1475257577514	u	85
239811	2565789	I didn t mean to get you so bent out of shape.	I didn t mean to get you so bent out of shape.	121856552	1475257577500	1475257577591	 	32
239811	2565789	I didn t mean to get you so bent out of shape.	I didn t mean to get you so bent out of shape.	121856557	1475257577732	1475257577868	o	79
239811	2565789	I didn t mean to get you so bent out of shape.	I didn t mean to get you so bent out of shape.	121856594	1475257578001	1475257578127	BKSP	8
239811	2565789	I didn t mean to get you so bent out of shape.	I didn t mean to get you so bent out of shape.	121856598	1475257578170	1475257578277	s	83
239811	2565789	I didn t mean to get you so bent out of shape.	I didn t mean to get you so bent out of shape.	121856601	1475257578218	1475257578376	o	79
239811	2565789	I didn t mean to get you so bent out of shape.	I didn t mean to get you so bent out of shape.	121856606	1475257578297	1475257578413	 	32
239811	2565789	I didn t mean to get you so bent out of shape.	I didn t mean to get you so bent out of shape.	121856609	1475257578495	1475257578592	b	66
239811	2565789	I didn t mean to get you so bent out of shape.	I didn t mean to get you so bent out of shape.	121856646	1475257578566	1475257578670	e	69
239811	2565789	I didn t mean to get you so bent out of shape.	I didn t mean to get you so bent out of shape.	121856651	1475257578719	1475257578829	n	78
239811	2565789	I didn t mean to get you so bent out of shape.	I didn t mean to get you so bent out of shape.	121856654	1475257578809	1475257578894	t	84
239811	2565789	I didn t mean to get you so bent out of shape.	I didn t mean to get you so bent out of shape.	121856656	1475257578888	1475257578972	 	32
239811	2565789	I didn t mean to get you so bent out of shape.	I didn t mean to get you so bent out of shape.	121856658	1475257579044	1475257579141	o	79
239811	2565789	I didn t mean to get you so bent out of shape.	I didn t mean to get you so bent out of shape.	121856662	1475257579219	1475257579316	u	85
239811	2565789	I didn t mean to get you so bent out of shape.	I didn t mean to get you so bent out of shape.	121856676	1475257579340	1475257579427	t	84
239811	2565789	I didn t mean to get you so bent out of shape.	I didn t mean to get you so bent out of shape.	121856683	1475257579394	1475257579489	 	32
239811	2565789	I didn t mean to get you so bent out of shape.	I didn t mean to get you so bent out of shape.	121856690	1475257579570	1475257579690	o	79
239811	2565789	I didn t mean to get you so bent out of shape.	I didn t mean to get you so bent out of shape.	121856695	1475257579668	1475257579776	f	70
239811	2565789	I didn t mean to get you so bent out of shape.	I didn t mean to get you so bent out of shape.	121856791	1475257579756	1475257579853	 	32
239811	2565789	I didn t mean to get you so bent out of shape.	I didn t mean to get you so bent out of shape.	121856796	1475257579911	1475257580025	s	83
239811	2565789	I didn t mean to get you so bent out of shape.	I didn t mean to get you so bent out of shape.	121856800	1475257580019	1475257580110	h	72
239811	2565789	I didn t mean to get you so bent out of shape.	I didn t mean to get you so bent out of shape.	121856804	1475257580220	1475257580324	a	65
239811	2565789	I didn t mean to get you so bent out of shape.	I didn t mean to get you so bent out of shape.	121856807	1475257580325	1475257580453	p	80
239811	2565789	I didn t mean to get you so bent out of shape.	I didn t mean to get you so bent out of shape.	121856810	1475257580480	1475257580557	e	69
239811	2565789	I didn t mean to get you so bent out of shape.	I didn t mean to get you so bent out of shape.	121856865	1475257580928	1475257581029	.	190
239811	2565824	We don't recommend McNair this week as a result.	We don't recommend McNair this week as a rsult.	121857789	1475257589930	1475257590281	SHIFT	16
239811	2565824	We don't recommend McNair this week as a result.	We don't recommend McNair this week as a rsult.	121857793	1475257590141	1475257590406	A	65
239811	2565824	We don't recommend McNair this week as a result.	We don't recommend McNair this week as a rsult.	121857799	1475257590642	1475257590759	BKSP	8
239811	2565824	We don't recommend McNair this week as a result.	We don't recommend McNair this week as a rsult.	121857804	1475257590924	1475257591325	SHIFT	16
239811	2565824	We don't recommend McNair this week as a result.	We don't recommend McNair this week as a rsult.	121857806	1475257591224	1475257591399	W	87
239811	2565824	We don't recommend McNair this week as a result.	We don't recommend McNair this week as a rsult.	121857808	1475257591348	1475257591512	e	69
239811	2565824	We don't recommend McNair this week as a result.	We don't recommend McNair this week as a rsult.	121857812	1475257591498	1475257591637	 	32
239811	2565824	We don't recommend McNair this week as a result.	We don't recommend McNair this week as a rsult.	121857820	1475257591749	1475257591870	d	68
239811	2565824	We don't recommend McNair this week as a result.	We don't recommend McNair this week as a rsult.	121857845	1475257591906	1475257591996	o	79
239811	2565824	We don't recommend McNair this week as a result.	We don't recommend McNair this week as a rsult.	121857848	1475257592065	1475257592166	n	78
239811	2565824	We don't recommend McNair this week as a result.	We don't recommend McNair this week as a rsult.	121857850	1475257592462	1475257592569	'	222
239811	2565824	We don't recommend McNair this week as a result.	We don't recommend McNair this week as a rsult.	121857854	1475257592573	1475257592667	t	84
239811	2565824	We don't recommend McNair this week as a result.	We don't recommend McNair this week as a rsult.	121857861	1475257592684	1475257592775	 	32
239811	2565824	We don't recommend McNair this week as a result.	We don't recommend McNair this week as a rsult.	121857948	1475257592893	1475257593004	r	82
239811	2565824	We don't recommend McNair this week as a result.	We don't recommend McNair this week as a rsult.	121857954	1475257593046	1475257593157	e	69
239811	2565824	We don't recommend McNair this week as a result.	We don't recommend McNair this week as a rsult.	121857959	1475257593273	1475257593334	c	67
239811	2565824	We don't recommend McNair this week as a result.	We don't recommend McNair this week as a rsult.	121857967	1475257593406	1475257593500	c	67
239811	2565824	We don't recommend McNair this week as a result.	We don't recommend McNair this week as a rsult.	121857972	1475257593700	1475257593795	BKSP	8
239811	2565824	We don't recommend McNair this week as a result.	We don't recommend McNair this week as a rsult.	121857976	1475257593908	1475257594026	o	79
239811	2565824	We don't recommend McNair this week as a result.	We don't recommend McNair this week as a rsult.	121858018	1475257594166	1475257594254	m	77
239811	2565824	We don't recommend McNair this week as a result.	We don't recommend McNair this week as a rsult.	121858022	1475257594322	1475257594449	m	77
239811	2565824	We don't recommend McNair this week as a result.	We don't recommend McNair this week as a rsult.	121858025	1475257594466	1475257594566	e	69
239811	2565824	We don't recommend McNair this week as a result.	We don't recommend McNair this week as a rsult.	121858028	1475257594589	1475257594693	n	78
239811	2565824	We don't recommend McNair this week as a result.	We don't recommend McNair this week as a rsult.	121858033	1475257594696	1475257594813	d	68
239811	2565824	We don't recommend McNair this week as a result.	We don't recommend McNair this week as a rsult.	121858193	1475257594794	1475257594882	 	32
239811	2565824	We don't recommend McNair this week as a result.	We don't recommend McNair this week as a rsult.	121858198	1475257595055	1475257595334	SHIFT	16
239811	2565824	We don't recommend McNair this week as a result.	We don't recommend McNair this week as a rsult.	121858196	1475257595219	1475257595332	M	77
239811	2565824	We don't recommend McNair this week as a result.	We don't recommend McNair this week as a rsult.	121858202	1475257595455	1475257595546	c	67
239811	2565824	We don't recommend McNair this week as a result.	We don't recommend McNair this week as a rsult.	121858205	1475257595701	1475257596030	SHIFT	16
239811	2565824	We don't recommend McNair this week as a result.	We don't recommend McNair this week as a rsult.	121858203	1475257595867	1475257595987	N	78
239811	2565824	We don't recommend McNair this week as a result.	We don't recommend McNair this week as a rsult.	121858208	1475257596023	1475257596156	A	65
239811	2565824	We don't recommend McNair this week as a result.	We don't recommend McNair this week as a rsult.	121858211	1475257596492	1475257596603	i	73
239811	2565824	We don't recommend McNair this week as a result.	We don't recommend McNair this week as a rsult.	121858280	1475257596764	1475257596839	BKSP	8
239811	2565824	We don't recommend McNair this week as a result.	We don't recommend McNair this week as a rsult.	121858285	1475257596897	1475257597008	BKSP	8
239811	2565824	We don't recommend McNair this week as a result.	We don't recommend McNair this week as a rsult.	121858289	1475257597011	1475257597151	a	65
239811	2565824	We don't recommend McNair this week as a result.	We don't recommend McNair this week as a rsult.	121858296	1475257597152	1475257597249	i	73
239811	2565824	We don't recommend McNair this week as a result.	We don't recommend McNair this week as a rsult.	121858301	1475257597252	1475257597340	r	82
239811	2565824	We don't recommend McNair this week as a result.	We don't recommend McNair this week as a rsult.	121858308	1475257597415	1475257597545	 	32
239811	2565824	We don't recommend McNair this week as a result.	We don't recommend McNair this week as a rsult.	121858315	1475257597871	1475257597962	t	84
239811	2565824	We don't recommend McNair this week as a result.	We don't recommend McNair this week as a rsult.	121858330	1475257597968	1475257598052	h	72
239811	2565824	We don't recommend McNair this week as a result.	We don't recommend McNair this week as a rsult.	121858334	1475257598137	1475257598247	i	73
239811	2565824	We don't recommend McNair this week as a result.	We don't recommend McNair this week as a rsult.	121858338	1475257598214	1475257598324	s	83
239811	2565824	We don't recommend McNair this week as a result.	We don't recommend McNair this week as a rsult.	121858343	1475257598315	1475257598407	 	32
239811	2565824	We don't recommend McNair this week as a result.	We don't recommend McNair this week as a rsult.	121858362	1475257598403	1475257598508	w	87
239811	2565824	We don't recommend McNair this week as a result.	We don't recommend McNair this week as a rsult.	121858364	1475257598557	1475257598638	e	69
239811	2565824	We don't recommend McNair this week as a result.	We don't recommend McNair this week as a rsult.	121858368	1475257598684	1475257598793	e	69
239811	2565824	We don't recommend McNair this week as a result.	We don't recommend McNair this week as a rsult.	121858370	1475257598804	1475257598924	k	75
239811	2565824	We don't recommend McNair this week as a result.	We don't recommend McNair this week as a rsult.	121858375	1475257598862	1475257598989	 	32
239811	2565824	We don't recommend McNair this week as a result.	We don't recommend McNair this week as a rsult.	121858421	1475257598983	1475257599093	a	65
239811	2565824	We don't recommend McNair this week as a result.	We don't recommend McNair this week as a rsult.	121858424	1475257599130	1475257599224	s	83
239811	2565824	We don't recommend McNair this week as a result.	We don't recommend McNair this week as a rsult.	121858430	1475257599247	1475257599354	 	32
239811	2565824	We don't recommend McNair this week as a result.	We don't recommend McNair this week as a rsult.	121858435	1475257599332	1475257599450	a	65
239811	2565824	We don't recommend McNair this week as a result.	We don't recommend McNair this week as a rsult.	121858440	1475257599436	1475257599523	 	32
239811	2565824	We don't recommend McNair this week as a result.	We don't recommend McNair this week as a rsult.	121858446	1475257599543	1475257599628	r	82
239811	2565824	We don't recommend McNair this week as a result.	We don't recommend McNair this week as a rsult.	121858488	1475257599802	1475257599909	s	83
239811	2565824	We don't recommend McNair this week as a result.	We don't recommend McNair this week as a rsult.	121858491	1475257599933	1475257600027	u	85
239811	2565824	We don't recommend McNair this week as a result.	We don't recommend McNair this week as a rsult.	121858503	1475257600130	1475257600247	l	76
239811	2565824	We don't recommend McNair this week as a result.	We don't recommend McNair this week as a rsult.	121858510	1475257600228	1475257600322	t	84
239811	2565824	We don't recommend McNair this week as a result.	We don't recommend McNair this week as a rsult.	121858519	1475257600379	1475257600488	.	190
239811	2565852	He said Telecom was still in a position of substantial protection.	He said Telecom was still in a position of substantial protection.	121859000	1475257606034	1475257606287	SHIFT	16
239811	2565852	He said Telecom was still in a position of substantial protection.	He said Telecom was still in a position of substantial protection.	121859005	1475257606181	1475257606310	H	72
239811	2565852	He said Telecom was still in a position of substantial protection.	He said Telecom was still in a position of substantial protection.	121859010	1475257606425	1475257606532	e	69
239811	2565852	He said Telecom was still in a position of substantial protection.	He said Telecom was still in a position of substantial protection.	121859014	1475257606561	1475257606672	 	32
239811	2565852	He said Telecom was still in a position of substantial protection.	He said Telecom was still in a position of substantial protection.	121859022	1475257606955	1475257607052	s	83
239811	2565852	He said Telecom was still in a position of substantial protection.	He said Telecom was still in a position of substantial protection.	121859028	1475257607114	1475257607228	a	65
239811	2565852	He said Telecom was still in a position of substantial protection.	He said Telecom was still in a position of substantial protection.	121859070	1475257607234	1475257607350	i	73
239811	2565852	He said Telecom was still in a position of substantial protection.	He said Telecom was still in a position of substantial protection.	121859074	1475257607322	1475257607422	d	68
239811	2565852	He said Telecom was still in a position of substantial protection.	He said Telecom was still in a position of substantial protection.	121859079	1475257607425	1475257607527	 	32
239811	2565852	He said Telecom was still in a position of substantial protection.	He said Telecom was still in a position of substantial protection.	121859090	1475257607829	1475257608131	SHIFT	16
239811	2565852	He said Telecom was still in a position of substantial protection.	He said Telecom was still in a position of substantial protection.	121859085	1475257607962	1475257608082	T	84
239811	2565852	He said Telecom was still in a position of substantial protection.	He said Telecom was still in a position of substantial protection.	121859093	1475257608189	1475257608279	e	69
239811	2565852	He said Telecom was still in a position of substantial protection.	He said Telecom was still in a position of substantial protection.	121859120	1475257608370	1475257608490	l	76
239811	2565852	He said Telecom was still in a position of substantial protection.	He said Telecom was still in a position of substantial protection.	121859123	1475257608455	1475257608571	e	69
239811	2565852	He said Telecom was still in a position of substantial protection.	He said Telecom was still in a position of substantial protection.	121859127	1475257608694	1475257608804	c	67
239811	2565852	He said Telecom was still in a position of substantial protection.	He said Telecom was still in a position of substantial protection.	121859129	1475257608791	1475257608902	o	79
239811	2565852	He said Telecom was still in a position of substantial protection.	He said Telecom was still in a position of substantial protection.	121859132	1475257608948	1475257609093	m	77
239811	2565852	He said Telecom was still in a position of substantial protection.	He said Telecom was still in a position of substantial protection.	121859175	1475257609035	1475257609152	 	32
239811	2565852	He said Telecom was still in a position of substantial protection.	He said Telecom was still in a position of substantial protection.	121859183	1475257609283	1475257609397	w	87
239811	2565852	He said Telecom was still in a position of substantial protection.	He said Telecom was still in a position of substantial protection.	121859187	1475257609482	1475257609580	a	65
239811	2565852	He said Telecom was still in a position of substantial protection.	He said Telecom was still in a position of substantial protection.	121859192	1475257609625	1475257609725	s	83
239811	2565852	He said Telecom was still in a position of substantial protection.	He said Telecom was still in a position of substantial protection.	121859198	1475257609718	1475257609817	 	32
239811	2565852	He said Telecom was still in a position of substantial protection.	He said Telecom was still in a position of substantial protection.	121859243	1475257609807	1475257609917	s	83
239811	2565852	He said Telecom was still in a position of substantial protection.	He said Telecom was still in a position of substantial protection.	121859251	1475257610024	1475257610110	t	84
239811	2565852	He said Telecom was still in a position of substantial protection.	He said Telecom was still in a position of substantial protection.	121859256	1475257610098	1475257610192	i	73
239811	2565852	He said Telecom was still in a position of substantial protection.	He said Telecom was still in a position of substantial protection.	121859260	1475257610285	1475257610362	l	76
239811	2565852	He said Telecom was still in a position of substantial protection.	He said Telecom was still in a position of substantial protection.	121859263	1475257610427	1475257610530	l	76
239811	2565852	He said Telecom was still in a position of substantial protection.	He said Telecom was still in a position of substantial protection.	121859275	1475257610472	1475257610629	 	32
239811	2565852	He said Telecom was still in a position of substantial protection.	He said Telecom was still in a position of substantial protection.	121859278	1475257610648	1475257610742	i	73
239811	2565852	He said Telecom was still in a position of substantial protection.	He said Telecom was still in a position of substantial protection.	121859281	1475257610788	1475257610950	n	78
239811	2565852	He said Telecom was still in a position of substantial protection.	He said Telecom was still in a position of substantial protection.	121859287	1475257610869	1475257610989	 	32
239811	2565852	He said Telecom was still in a position of substantial protection.	He said Telecom was still in a position of substantial protection.	121859292	1475257610996	1475257611116	a	65
239811	2565852	He said Telecom was still in a position of substantial protection.	He said Telecom was still in a position of substantial protection.	121859331	1475257611061	1475257611171	 	32
239811	2565852	He said Telecom was still in a position of substantial protection.	He said Telecom was still in a position of substantial protection.	121859334	1475257611253	1475257611347	p	80
239811	2565852	He said Telecom was still in a position of substantial protection.	He said Telecom was still in a position of substantial protection.	121859337	1475257611419	1475257611519	o	79
239811	2565852	He said Telecom was still in a position of substantial protection.	He said Telecom was still in a position of substantial protection.	121859342	1475257611546	1475257611658	s	83
239811	2565852	He said Telecom was still in a position of substantial protection.	He said Telecom was still in a position of substantial protection.	121859348	1475257611643	1475257611747	i	73
239811	2565852	He said Telecom was still in a position of substantial protection.	He said Telecom was still in a position of substantial protection.	121859351	1475257611799	1475257611888	t	84
239811	2565852	He said Telecom was still in a position of substantial protection.	He said Telecom was still in a position of substantial protection.	121859388	1475257611883	1475257611987	i	73
239811	2565852	He said Telecom was still in a position of substantial protection.	He said Telecom was still in a position of substantial protection.	121859392	1475257612023	1475257612130	o	79
239811	2565852	He said Telecom was still in a position of substantial protection.	He said Telecom was still in a position of substantial protection.	121859397	1475257612199	1475257612328	n	78
239811	2565852	He said Telecom was still in a position of substantial protection.	He said Telecom was still in a position of substantial protection.	121859400	1475257612290	1475257612406	 	32
239811	2565852	He said Telecom was still in a position of substantial protection.	He said Telecom was still in a position of substantial protection.	121859403	1475257612455	1475257612563	o	79
239811	2565852	He said Telecom was still in a position of substantial protection.	He said Telecom was still in a position of substantial protection.	121859405	1475257612565	1475257612660	f	70
239811	2565852	He said Telecom was still in a position of substantial protection.	He said Telecom was still in a position of substantial protection.	121859436	1475257612649	1475257612747	 	32
239811	2565852	He said Telecom was still in a position of substantial protection.	He said Telecom was still in a position of substantial protection.	121859438	1475257612793	1475257612903	s	83
239811	2565852	He said Telecom was still in a position of substantial protection.	He said Telecom was still in a position of substantial protection.	121859444	1475257612874	1475257612968	u	85
239811	2565852	He said Telecom was still in a position of substantial protection.	He said Telecom was still in a position of substantial protection.	121859453	1475257612988	1475257613089	b	66
239811	2565852	He said Telecom was still in a position of substantial protection.	He said Telecom was still in a position of substantial protection.	121859462	1475257613105	1475257613202	s	83
239811	2565852	He said Telecom was still in a position of substantial protection.	He said Telecom was still in a position of substantial protection.	121859470	1475257613320	1475257613394	t	84
239811	2565852	He said Telecom was still in a position of substantial protection.	He said Telecom was still in a position of substantial protection.	121859530	1475257613511	1475257613605	a	65
239811	2565852	He said Telecom was still in a position of substantial protection.	He said Telecom was still in a position of substantial protection.	121859536	1475257613611	1475257613702	n	78
239811	2565852	He said Telecom was still in a position of substantial protection.	He said Telecom was still in a position of substantial protection.	121859543	1475257613768	1475257613845	t	84
239811	2565852	He said Telecom was still in a position of substantial protection.	He said Telecom was still in a position of substantial protection.	121859549	1475257613957	1475257614061	i	73
239811	2565852	He said Telecom was still in a position of substantial protection.	He said Telecom was still in a position of substantial protection.	121859555	1475257614116	1475257614213	a	65
239811	2565852	He said Telecom was still in a position of substantial protection.	He said Telecom was still in a position of substantial protection.	121859590	1475257614230	1475257614378	l	76
239811	2565852	He said Telecom was still in a position of substantial protection.	He said Telecom was still in a position of substantial protection.	121859591	1475257614321	1475257614427	 	32
239811	2565852	He said Telecom was still in a position of substantial protection.	He said Telecom was still in a position of substantial protection.	121859592	1475257614506	1475257614610	p	80
239811	2565852	He said Telecom was still in a position of substantial protection.	He said Telecom was still in a position of substantial protection.	121859593	1475257614616	1475257614710	r	82
239811	2565852	He said Telecom was still in a position of substantial protection.	He said Telecom was still in a position of substantial protection.	121859594	1475257614720	1475257614818	o	79
239811	2565852	He said Telecom was still in a position of substantial protection.	He said Telecom was still in a position of substantial protection.	121859644	1475257614840	1475257614928	t	84
239811	2565852	He said Telecom was still in a position of substantial protection.	He said Telecom was still in a position of substantial protection.	121859648	1475257614990	1475257615100	e	69
239811	2565852	He said Telecom was still in a position of substantial protection.	He said Telecom was still in a position of substantial protection.	121859655	1475257615163	1475257615270	c	67
239811	2565852	He said Telecom was still in a position of substantial protection.	He said Telecom was still in a position of substantial protection.	121859662	1475257615351	1475257615451	t	84
239811	2565852	He said Telecom was still in a position of substantial protection.	He said Telecom was still in a position of substantial protection.	121859704	1475257615422	1475257615512	i	73
239811	2565852	He said Telecom was still in a position of substantial protection.	He said Telecom was still in a position of substantial protection.	121859708	1475257615571	1475257615684	o	79
239811	2565852	He said Telecom was still in a position of substantial protection.	He said Telecom was still in a position of substantial protection.	121859714	1475257615666	1475257615750	n	78
239811	2565852	He said Telecom was still in a position of substantial protection.	He said Telecom was still in a position of substantial protection.	121859719	1475257615890	1475257616020	.	190
239811	2565879	After leaving the navy in he joined the merchant marines.	After leaving the navy in he joined the merchant marines.	121860326	1475257623827	1475257624063	SHIFT	16
239811	2565879	After leaving the navy in he joined the merchant marines.	After leaving the navy in he joined the merchant marines.	121860333	1475257623979	1475257624154	A	65
239811	2565879	After leaving the navy in he joined the merchant marines.	After leaving the navy in he joined the merchant marines.	121860345	1475257624119	1475257624222	f	70
239811	2565879	After leaving the navy in he joined the merchant marines.	After leaving the navy in he joined the merchant marines.	121860352	1475257624290	1475257624411	t	84
239811	2565879	After leaving the navy in he joined the merchant marines.	After leaving the navy in he joined the merchant marines.	121860360	1475257624417	1475257624524	e	69
239811	2565879	After leaving the navy in he joined the merchant marines.	After leaving the navy in he joined the merchant marines.	121860385	1475257624466	1475257624622	r	82
239811	2565879	After leaving the navy in he joined the merchant marines.	After leaving the navy in he joined the merchant marines.	121860388	1475257624529	1475257624628	 	32
239811	2565879	After leaving the navy in he joined the merchant marines.	After leaving the navy in he joined the merchant marines.	121860391	1475257624687	1475257624787	l	76
239811	2565879	After leaving the navy in he joined the merchant marines.	After leaving the navy in he joined the merchant marines.	121860395	1475257624797	1475257624875	e	69
239811	2565879	After leaving the navy in he joined the merchant marines.	After leaving the navy in he joined the merchant marines.	121860400	1475257624974	1475257625065	a	65
239811	2565879	After leaving the navy in he joined the merchant marines.	After leaving the navy in he joined the merchant marines.	121860406	1475257625087	1475257625179	v	86
239811	2565879	After leaving the navy in he joined the merchant marines.	After leaving the navy in he joined the merchant marines.	121860432	1475257625253	1475257625367	i	73
239811	2565879	After leaving the navy in he joined the merchant marines.	After leaving the navy in he joined the merchant marines.	121860435	1475257625409	1475257625516	n	78
239811	2565879	After leaving the navy in he joined the merchant marines.	After leaving the navy in he joined the merchant marines.	121860438	1475257625526	1475257625626	g	71
239811	2565879	After leaving the navy in he joined the merchant marines.	After leaving the navy in he joined the merchant marines.	121860443	1475257625604	1475257625691	 	32
239811	2565879	After leaving the navy in he joined the merchant marines.	After leaving the navy in he joined the merchant marines.	121860450	1475257625728	1475257625808	t	84
239811	2565879	After leaving the navy in he joined the merchant marines.	After leaving the navy in he joined the merchant marines.	121860528	1475257625796	1475257625909	h	72
239811	2565879	After leaving the navy in he joined the merchant marines.	After leaving the navy in he joined the merchant marines.	121860534	1475257625890	1475257626007	e	69
239811	2565879	After leaving the navy in he joined the merchant marines.	After leaving the navy in he joined the merchant marines.	121860541	1475257625981	1475257626075	 	32
239811	2565879	After leaving the navy in he joined the merchant marines.	After leaving the navy in he joined the merchant marines.	121860547	1475257626390	1475257626486	a	65
239811	2565879	After leaving the navy in he joined the merchant marines.	After leaving the navy in he joined the merchant marines.	121860556	1475257626638	1475257626735	BKSP	8
239811	2565879	After leaving the navy in he joined the merchant marines.	After leaving the navy in he joined the merchant marines.	121860565	1475257626824	1475257626926	n	78
239811	2565879	After leaving the navy in he joined the merchant marines.	After leaving the navy in he joined the merchant marines.	121860591	1475257626915	1475257627015	a	65
239811	2565879	After leaving the navy in he joined the merchant marines.	After leaving the navy in he joined the merchant marines.	121860593	1475257627100	1475257627188	v	86
239811	2565879	After leaving the navy in he joined the merchant marines.	After leaving the navy in he joined the merchant marines.	121860594	1475257627169	1475257627295	y	89
239811	2565879	After leaving the navy in he joined the merchant marines.	After leaving the navy in he joined the merchant marines.	121860596	1475257627236	1475257627341	 	32
239811	2565879	After leaving the navy in he joined the merchant marines.	After leaving the navy in he joined the merchant marines.	121860598	1475257627386	1475257627490	i	73
239811	2565879	After leaving the navy in he joined the merchant marines.	After leaving the navy in he joined the merchant marines.	121860600	1475257627577	1475257627677	n	78
239811	2565879	After leaving the navy in he joined the merchant marines.	After leaving the navy in he joined the merchant marines.	121860665	1475257628008	1475257628095	 	32
239811	2565879	After leaving the navy in he joined the merchant marines.	After leaving the navy in he joined the merchant marines.	121860668	1475257628210	1475257628307	h	72
239811	2565879	After leaving the navy in he joined the merchant marines.	After leaving the navy in he joined the merchant marines.	121860674	1475257628323	1475257628430	e	69
239811	2565879	After leaving the navy in he joined the merchant marines.	After leaving the navy in he joined the merchant marines.	121860682	1475257628412	1475257628509	 	32
239811	2565879	After leaving the navy in he joined the merchant marines.	After leaving the navy in he joined the merchant marines.	121860688	1475257628593	1475257628704	j	74
239811	2565879	After leaving the navy in he joined the merchant marines.	After leaving the navy in he joined the merchant marines.	121860739	1475257628772	1475257628863	o	79
239811	2565879	After leaving the navy in he joined the merchant marines.	After leaving the navy in he joined the merchant marines.	121860748	1475257628916	1475257629010	i	73
239811	2565879	After leaving the navy in he joined the merchant marines.	After leaving the navy in he joined the merchant marines.	121860753	1475257629088	1475257629188	n	78
239811	2565879	After leaving the navy in he joined the merchant marines.	After leaving the navy in he joined the merchant marines.	121860757	1475257629162	1475257629266	e	69
239811	2565879	After leaving the navy in he joined the merchant marines.	After leaving the navy in he joined the merchant marines.	121860762	1475257629321	1475257629443	d	68
239811	2565879	After leaving the navy in he joined the merchant marines.	After leaving the navy in he joined the merchant marines.	121860789	1475257629432	1475257629523	 	32
239811	2565879	After leaving the navy in he joined the merchant marines.	After leaving the navy in he joined the merchant marines.	121860792	1475257629566	1475257629652	t	84
239811	2565879	After leaving the navy in he joined the merchant marines.	After leaving the navy in he joined the merchant marines.	121860796	1475257629630	1475257629743	h	72
239811	2565879	After leaving the navy in he joined the merchant marines.	After leaving the navy in he joined the merchant marines.	121860800	1475257629731	1475257629848	e	69
239811	2565879	After leaving the navy in he joined the merchant marines.	After leaving the navy in he joined the merchant marines.	121860807	1475257629799	1475257629890	 	32
239811	2565879	After leaving the navy in he joined the merchant marines.	After leaving the navy in he joined the merchant marines.	121860815	1475257629949	1475257630056	m	77
239811	2565879	After leaving the navy in he joined the merchant marines.	After leaving the navy in he joined the merchant marines.	121860837	1475257630064	1475257630162	e	69
239811	2565879	After leaving the navy in he joined the merchant marines.	After leaving the navy in he joined the merchant marines.	121860843	1475257630114	1475257630228	r	82
239811	2565879	After leaving the navy in he joined the merchant marines.	After leaving the navy in he joined the merchant marines.	121860850	1475257630312	1475257630405	c	67
239811	2565879	After leaving the navy in he joined the merchant marines.	After leaving the navy in he joined the merchant marines.	121860853	1475257630408	1475257630514	h	72
239811	2565879	After leaving the navy in he joined the merchant marines.	After leaving the navy in he joined the merchant marines.	121860883	1475257630510	1475257630610	a	65
239811	2565879	After leaving the navy in he joined the merchant marines.	After leaving the navy in he joined the merchant marines.	121860890	1475257630630	1475257630734	n	78
239811	2565879	After leaving the navy in he joined the merchant marines.	After leaving the navy in he joined the merchant marines.	121860896	1475257630757	1475257630856	t	84
239811	2565879	After leaving the navy in he joined the merchant marines.	After leaving the navy in he joined the merchant marines.	121860902	1475257630844	1475257630926	 	32
239811	2565879	After leaving the navy in he joined the merchant marines.	After leaving the navy in he joined the merchant marines.	121860910	1475257631001	1475257631094	m	77
239811	2565879	After leaving the navy in he joined the merchant marines.	After leaving the navy in he joined the merchant marines.	121860916	1475257631101	1475257631192	a	65
239811	2565879	After leaving the navy in he joined the merchant marines.	After leaving the navy in he joined the merchant marines.	121860941	1475257631298	1475257631389	r	82
239811	2565879	After leaving the navy in he joined the merchant marines.	After leaving the navy in he joined the merchant marines.	121860945	1475257631428	1475257631548	i	73
239811	2565879	After leaving the navy in he joined the merchant marines.	After leaving the navy in he joined the merchant marines.	121860947	1475257631555	1475257631675	n	78
239811	2565879	After leaving the navy in he joined the merchant marines.	After leaving the navy in he joined the merchant marines.	121860948	1475257631653	1475257631727	e	69
239811	2565879	After leaving the navy in he joined the merchant marines.	After leaving the navy in he joined the merchant marines.	121860950	1475257631792	1475257631921	s	83
239811	2565879	After leaving the navy in he joined the merchant marines.	After leaving the navy in he joined the merchant marines.	121860955	1475257631890	1475257632020	.	190
239811	2565904	Do you need to be there?	Do you need to be there?	121861286	1475257637405	1475257637639	SHIFT	16
239811	2565904	Do you need to be there?	Do you need to be there?	121861290	1475257637544	1475257637681	D	68
239811	2565904	Do you need to be there?	Do you need to be there?	121861293	1475257637777	1475257637881	o	79
239811	2565904	Do you need to be there?	Do you need to be there?	121861295	1475257637940	1475257638033	 	32
239811	2565904	Do you need to be there?	Do you need to be there?	121861298	1475257638069	1475257638172	y	89
239811	2565904	Do you need to be there?	Do you need to be there?	121861324	1475257638137	1475257638257	o	79
239811	2565904	Do you need to be there?	Do you need to be there?	121861330	1475257638222	1475257638321	u	85
239811	2565904	Do you need to be there?	Do you need to be there?	121861340	1475257638313	1475257638387	 	32
239811	2565904	Do you need to be there?	Do you need to be there?	121861347	1475257638443	1475257638539	n	78
239811	2565904	Do you need to be there?	Do you need to be there?	121861358	1475257638534	1475257638641	e	69
239811	2565904	Do you need to be there?	Do you need to be there?	121861362	1475257638687	1475257638788	e	69
239811	2565904	Do you need to be there?	Do you need to be there?	121861366	1475257638840	1475257638930	d	68
239811	2565904	Do you need to be there?	Do you need to be there?	121861368	1475257638960	1475257639044	 	32
239811	2565904	Do you need to be there?	Do you need to be there?	121861373	1475257639093	1475257639170	t	84
239811	2565904	Do you need to be there?	Do you need to be there?	121861379	1475257639142	1475257639255	o	79
239811	2565904	Do you need to be there?	Do you need to be there?	121861412	1475257639200	1475257639288	 	32
239811	2565904	Do you need to be there?	Do you need to be there?	121861416	1475257639363	1475257639472	b	66
239811	2565904	Do you need to be there?	Do you need to be there?	121861423	1475257639447	1475257639541	e	69
239811	2565904	Do you need to be there?	Do you need to be there?	121861429	1475257639525	1475257639616	 	32
239811	2565904	Do you need to be there?	Do you need to be there?	121861434	1475257639632	1475257639724	t	84
239811	2565904	Do you need to be there?	Do you need to be there?	121861481	1475257639711	1475257639808	h	72
239811	2565904	Do you need to be there?	Do you need to be there?	121861485	1475257639840	1475257639957	e	69
239811	2565904	Do you need to be there?	Do you need to be there?	121861488	1475257640002	1475257640097	r	82
239811	2565904	Do you need to be there?	Do you need to be there?	121861492	1475257640152	1475257640282	e	69
239811	2565904	Do you need to be there?	Do you need to be there?	121861497	1475257640263	1475257640405	SHIFT	16
239811	2565904	Do you need to be there?	Do you need to be there?	121861503	1475257640347	1475257640470	?	191
239811	2565918	These factors dictate clear limits to the concept of safe areas.	These factors dictate clear limits to the concept of safe areas.	121861906	1475257645187	1475257645462	SHIFT	16
239811	2565918	These factors dictate clear limits to the concept of safe areas.	These factors dictate clear limits to the concept of safe areas.	121861903	1475257645329	1475257645436	T	84
239811	2565918	These factors dictate clear limits to the concept of safe areas.	These factors dictate clear limits to the concept of safe areas.	121861910	1475257645541	1475257645645	h	72
239811	2565918	These factors dictate clear limits to the concept of safe areas.	These factors dictate clear limits to the concept of safe areas.	121861917	1475257645680	1475257645801	e	69
239811	2565918	These factors dictate clear limits to the concept of safe areas.	These factors dictate clear limits to the concept of safe areas.	121861922	1475257645891	1475257646001	s	83
239811	2565918	These factors dictate clear limits to the concept of safe areas.	These factors dictate clear limits to the concept of safe areas.	121861925	1475257646042	1475257646150	e	69
239811	2565918	These factors dictate clear limits to the concept of safe areas.	These factors dictate clear limits to the concept of safe areas.	121861978	1475257646158	1475257646247	 	32
239811	2565918	These factors dictate clear limits to the concept of safe areas.	These factors dictate clear limits to the concept of safe areas.	121861983	1475257646300	1475257646384	f	70
239811	2565918	These factors dictate clear limits to the concept of safe areas.	These factors dictate clear limits to the concept of safe areas.	121861986	1475257646466	1475257646579	a	65
239811	2565918	These factors dictate clear limits to the concept of safe areas.	These factors dictate clear limits to the concept of safe areas.	121861989	1475257646675	1475257646730	c	67
239811	2565918	These factors dictate clear limits to the concept of safe areas.	These factors dictate clear limits to the concept of safe areas.	121861992	1475257647053	1475257647169	t	84
239811	2565918	These factors dictate clear limits to the concept of safe areas.	These factors dictate clear limits to the concept of safe areas.	121862021	1475257647205	1475257647303	o	79
239811	2565918	These factors dictate clear limits to the concept of safe areas.	These factors dictate clear limits to the concept of safe areas.	121862024	1475257647652	1475257647754	r	82
239811	2565918	These factors dictate clear limits to the concept of safe areas.	These factors dictate clear limits to the concept of safe areas.	121862027	1475257647852	1475257647983	s	83
239811	2565918	These factors dictate clear limits to the concept of safe areas.	These factors dictate clear limits to the concept of safe areas.	121862032	1475257647975	1475257648069	 	32
239811	2565918	These factors dictate clear limits to the concept of safe areas.	These factors dictate clear limits to the concept of safe areas.	121862036	1475257648115	1475257648207	d	68
239811	2565918	These factors dictate clear limits to the concept of safe areas.	These factors dictate clear limits to the concept of safe areas.	121862077	1475257648196	1475257648300	i	73
239811	2565918	These factors dictate clear limits to the concept of safe areas.	These factors dictate clear limits to the concept of safe areas.	121862082	1475257648320	1475257648410	c	67
239811	2565918	These factors dictate clear limits to the concept of safe areas.	These factors dictate clear limits to the concept of safe areas.	121862089	1475257648640	1475257648770	t	84
239811	2565918	These factors dictate clear limits to the concept of safe areas.	These factors dictate clear limits to the concept of safe areas.	121862096	1475257648780	1475257648884	a	65
239811	2565918	These factors dictate clear limits to the concept of safe areas.	These factors dictate clear limits to the concept of safe areas.	121862104	1475257648873	1475257649007	t	84
239811	2565918	These factors dictate clear limits to the concept of safe areas.	These factors dictate clear limits to the concept of safe areas.	121862112	1475257649040	1475257649127	e	69
239811	2565918	These factors dictate clear limits to the concept of safe areas.	These factors dictate clear limits to the concept of safe areas.	121862150	1475257649163	1475257649261	 	32
239811	2565918	These factors dictate clear limits to the concept of safe areas.	These factors dictate clear limits to the concept of safe areas.	121862155	1475257649423	1475257649517	c	67
239811	2565918	These factors dictate clear limits to the concept of safe areas.	These factors dictate clear limits to the concept of safe areas.	121862159	1475257649549	1475257649646	l	76
239811	2565918	These factors dictate clear limits to the concept of safe areas.	These factors dictate clear limits to the concept of safe areas.	121862163	1475257649621	1475257649696	e	69
239811	2565918	These factors dictate clear limits to the concept of safe areas.	These factors dictate clear limits to the concept of safe areas.	121862169	1475257649755	1475257649872	a	65
239811	2565918	These factors dictate clear limits to the concept of safe areas.	These factors dictate clear limits to the concept of safe areas.	121862233	1475257649947	1475257650041	r	82
239811	2565918	These factors dictate clear limits to the concept of safe areas.	These factors dictate clear limits to the concept of safe areas.	121862240	1475257650048	1475257650129	 	32
239811	2565918	These factors dictate clear limits to the concept of safe areas.	These factors dictate clear limits to the concept of safe areas.	121862247	1475257650138	1475257650266	l	76
239811	2565918	These factors dictate clear limits to the concept of safe areas.	These factors dictate clear limits to the concept of safe areas.	121862256	1475257650407	1475257650504	i	73
239811	2565918	These factors dictate clear limits to the concept of safe areas.	These factors dictate clear limits to the concept of safe areas.	121862261	1475257650560	1475257650658	m	77
239811	2565918	These factors dictate clear limits to the concept of safe areas.	These factors dictate clear limits to the concept of safe areas.	121862278	1475257650723	1475257650825	i	73
239811	2565918	These factors dictate clear limits to the concept of safe areas.	These factors dictate clear limits to the concept of safe areas.	121862282	1475257650814	1475257650902	t	84
239811	2565918	These factors dictate clear limits to the concept of safe areas.	These factors dictate clear limits to the concept of safe areas.	121862289	1475257650991	1475257651114	s	83
239811	2565918	These factors dictate clear limits to the concept of safe areas.	These factors dictate clear limits to the concept of safe areas.	121862298	1475257651093	1475257651196	 	32
239811	2565918	These factors dictate clear limits to the concept of safe areas.	These factors dictate clear limits to the concept of safe areas.	121862311	1475257651258	1475257651352	t	84
239811	2565918	These factors dictate clear limits to the concept of safe areas.	These factors dictate clear limits to the concept of safe areas.	121862331	1475257651327	1475257651450	o	79
239811	2565918	These factors dictate clear limits to the concept of safe areas.	These factors dictate clear limits to the concept of safe areas.	121862335	1475257651388	1475257651495	 	32
239811	2565918	These factors dictate clear limits to the concept of safe areas.	These factors dictate clear limits to the concept of safe areas.	121862340	1475257651502	1475257651603	t	84
239811	2565918	These factors dictate clear limits to the concept of safe areas.	These factors dictate clear limits to the concept of safe areas.	121862344	1475257651590	1475257651695	h	72
239811	2565918	These factors dictate clear limits to the concept of safe areas.	These factors dictate clear limits to the concept of safe areas.	121862347	1475257651672	1475257651788	e	69
239811	2565918	These factors dictate clear limits to the concept of safe areas.	These factors dictate clear limits to the concept of safe areas.	121862367	1475257651746	1475257651844	 	32
239811	2565918	These factors dictate clear limits to the concept of safe areas.	These factors dictate clear limits to the concept of safe areas.	121862370	1475257651863	1475257651972	c	67
239811	2565918	These factors dictate clear limits to the concept of safe areas.	These factors dictate clear limits to the concept of safe areas.	121862374	1475257651961	1475257652069	o	79
239811	2565918	These factors dictate clear limits to the concept of safe areas.	These factors dictate clear limits to the concept of safe areas.	121862378	1475257652082	1475257652186	n	78
239811	2565918	These factors dictate clear limits to the concept of safe areas.	These factors dictate clear limits to the concept of safe areas.	121862381	1475257652193	1475257652287	c	67
239811	2565918	These factors dictate clear limits to the concept of safe areas.	These factors dictate clear limits to the concept of safe areas.	121862386	1475257652355	1475257652463	e	69
239811	2565918	These factors dictate clear limits to the concept of safe areas.	These factors dictate clear limits to the concept of safe areas.	121862415	1475257652468	1475257652578	p	80
239811	2565918	These factors dictate clear limits to the concept of safe areas.	These factors dictate clear limits to the concept of safe areas.	121862420	1475257652574	1475257652668	t	84
239811	2565918	These factors dictate clear limits to the concept of safe areas.	These factors dictate clear limits to the concept of safe areas.	121862426	1475257652669	1475257652746	 	32
239811	2565918	These factors dictate clear limits to the concept of safe areas.	These factors dictate clear limits to the concept of safe areas.	121862430	1475257652818	1475257652929	o	79
239811	2565918	These factors dictate clear limits to the concept of safe areas.	These factors dictate clear limits to the concept of safe areas.	121862433	1475257652932	1475257653027	f	70
239811	2565918	These factors dictate clear limits to the concept of safe areas.	These factors dictate clear limits to the concept of safe areas.	121862469	1475257653014	1475257653124	 	32
239811	2565918	These factors dictate clear limits to the concept of safe areas.	These factors dictate clear limits to the concept of safe areas.	121862474	1475257653180	1475257653297	s	83
239811	2565918	These factors dictate clear limits to the concept of safe areas.	These factors dictate clear limits to the concept of safe areas.	121862476	1475257653381	1475257653484	a	65
239811	2565918	These factors dictate clear limits to the concept of safe areas.	These factors dictate clear limits to the concept of safe areas.	121862484	1475257653642	1475257653739	f	70
239811	2565918	These factors dictate clear limits to the concept of safe areas.	These factors dictate clear limits to the concept of safe areas.	121862491	1475257653821	1475257653938	e	69
239811	2565918	These factors dictate clear limits to the concept of safe areas.	These factors dictate clear limits to the concept of safe areas.	121862496	1475257653939	1475257654045	 	32
239811	2565918	These factors dictate clear limits to the concept of safe areas.	These factors dictate clear limits to the concept of safe areas.	121862521	1475257654078	1475257654169	a	65
239811	2565918	These factors dictate clear limits to the concept of safe areas.	These factors dictate clear limits to the concept of safe areas.	121862524	1475257654266	1475257654357	r	82
239811	2565918	These factors dictate clear limits to the concept of safe areas.	These factors dictate clear limits to the concept of safe areas.	121862534	1475257654406	1475257654503	e	69
239811	2565918	These factors dictate clear limits to the concept of safe areas.	These factors dictate clear limits to the concept of safe areas.	121862538	1475257654591	1475257654711	a	65
239811	2565918	These factors dictate clear limits to the concept of safe areas.	These factors dictate clear limits to the concept of safe areas.	121862544	1475257654776	1475257654884	s	83
239811	2565918	These factors dictate clear limits to the concept of safe areas.	These factors dictate clear limits to the concept of safe areas.	121862548	1475257654923	1475257655020	.	190
239811	2565939	Maybe you can leave early.	Maybe you can leave early.	121862784	1475257658204	1475257658472	SHIFT	16
239811	2565939	Maybe you can leave early.	Maybe you can leave early.	121862788	1475257658342	1475257658474	M	77
239811	2565939	Maybe you can leave early.	Maybe you can leave early.	121862794	1475257658550	1475257658673	a	65
239811	2565939	Maybe you can leave early.	Maybe you can leave early.	121862801	1475257658654	1475257658763	y	89
239811	2565939	Maybe you can leave early.	Maybe you can leave early.	121862806	1475257658783	1475257658906	b	66
239811	2565939	Maybe you can leave early.	Maybe you can leave early.	121862827	1475257658877	1475257658978	e	69
239811	2565939	Maybe you can leave early.	Maybe you can leave early.	121862835	1475257658969	1475257659063	 	32
239811	2565939	Maybe you can leave early.	Maybe you can leave early.	121862841	1475257659167	1475257659279	y	89
239811	2565939	Maybe you can leave early.	Maybe you can leave early.	121862848	1475257659265	1475257659372	o	79
239811	2565939	Maybe you can leave early.	Maybe you can leave early.	121862856	1475257659330	1475257659414	u	85
239811	2565939	Maybe you can leave early.	Maybe you can leave early.	121862862	1475257659443	1475257659534	 	32
239811	2565939	Maybe you can leave early.	Maybe you can leave early.	121862901	1475257659569	1475257659658	c	67
239811	2565939	Maybe you can leave early.	Maybe you can leave early.	121862906	1475257659748	1475257659861	a	65
239811	2565939	Maybe you can leave early.	Maybe you can leave early.	121862909	1475257659832	1475257659942	n	78
239811	2565939	Maybe you can leave early.	Maybe you can leave early.	121862913	1475257659888	1475257659998	 	32
239811	2565939	Maybe you can leave early.	Maybe you can leave early.	121862916	1475257660038	1475257660154	l	76
239811	2565939	Maybe you can leave early.	Maybe you can leave early.	121862948	1475257660092	1475257660173	e	69
239811	2565939	Maybe you can leave early.	Maybe you can leave early.	121862953	1475257660258	1475257660358	a	65
239811	2565939	Maybe you can leave early.	Maybe you can leave early.	121862958	1475257660346	1475257660463	v	86
239811	2565939	Maybe you can leave early.	Maybe you can leave early.	121862962	1475257660447	1475257660550	e	69
239811	2565939	Maybe you can leave early.	Maybe you can leave early.	121862968	1475257660525	1475257660619	 	32
239811	2565939	Maybe you can leave early.	Maybe you can leave early.	121862973	1475257660744	1475257660837	e	69
239811	2565939	Maybe you can leave early.	Maybe you can leave early.	121863020	1475257660919	1475257661026	a	65
239811	2565939	Maybe you can leave early.	Maybe you can leave early.	121863025	1475257661133	1475257661232	r	82
239811	2565939	Maybe you can leave early.	Maybe you can leave early.	121863033	1475257661367	1475257661467	l	76
239811	2565939	Maybe you can leave early.	Maybe you can leave early.	121863040	1475257661474	1475257661565	y	89
239811	2565939	Maybe you can leave early.	Maybe you can leave early.	121863045	1475257661597	1475257661701	.	190
239811	2565945	We just need a sitter.	We just need a sitter.	121863313	1475257665031	1475257665281	SHIFT	16
239811	2565945	We just need a sitter.	We just need a sitter.	121863315	1475257665205	1475257665343	W	87
239811	2565945	We just need a sitter.	We just need a sitter.	121863317	1475257665408	1475257665514	e	69
239811	2565945	We just need a sitter.	We just need a sitter.	121863319	1475257665499	1475257665587	 	32
239811	2565945	We just need a sitter.	We just need a sitter.	121863321	1475257665626	1475257665717	j	74
239811	2565945	We just need a sitter.	We just need a sitter.	121863323	1475257665795	1475257665907	u	85
239811	2565945	We just need a sitter.	We just need a sitter.	121863353	1475257665857	1475257665965	s	83
239811	2565945	We just need a sitter.	We just need a sitter.	121863359	1475257666044	1475257666142	t	84
239811	2565945	We just need a sitter.	We just need a sitter.	121863363	1475257666110	1475257666203	 	32
239811	2565945	We just need a sitter.	We just need a sitter.	121863367	1475257666229	1475257666332	n	78
239811	2565945	We just need a sitter.	We just need a sitter.	121863373	1475257666328	1475257666412	e	69
239811	2565945	We just need a sitter.	We just need a sitter.	121863380	1475257666474	1475257666571	e	69
239811	2565945	We just need a sitter.	We just need a sitter.	121863408	1475257666626	1475257666740	d	68
239811	2565945	We just need a sitter.	We just need a sitter.	121863412	1475257666753	1475257666867	 	32
239811	2565945	We just need a sitter.	We just need a sitter.	121863420	1475257666877	1475257666986	a	65
239811	2565945	We just need a sitter.	We just need a sitter.	121863424	1475257666965	1475257667046	 	32
239811	2565945	We just need a sitter.	We just need a sitter.	121863429	1475257667135	1475257667235	s	83
239811	2565945	We just need a sitter.	We just need a sitter.	121863452	1475257667272	1475257667369	i	73
239811	2565945	We just need a sitter.	We just need a sitter.	121863455	1475257667398	1475257667480	t	84
239811	2565945	We just need a sitter.	We just need a sitter.	121863458	1475257667522	1475257667626	t	84
239811	2565945	We just need a sitter.	We just need a sitter.	121863464	1475257667702	1475257667801	e	69
239811	2565945	We just need a sitter.	We just need a sitter.	121863468	1475257667752	1475257667885	r	82
239811	2565945	We just need a sitter.	We just need a sitter.	121863472	1475257667863	1475257667980	.	190
239811	2565955	Kay Mann is going to take the lead on this.	Kay Mann is going to take the lead on this.	121863810	1475257672636	1475257672842	SHIFT	16
239811	2565955	Kay Mann is going to take the lead on this.	Kay Mann is going to take the lead on this.	121863811	1475257672751	1475257672858	K	75
239811	2565955	Kay Mann is going to take the lead on this.	Kay Mann is going to take the lead on this.	121863813	1475257672934	1475257673044	a	65
239811	2565955	Kay Mann is going to take the lead on this.	Kay Mann is going to take the lead on this.	121863815	1475257673025	1475257673151	y	89
239811	2565955	Kay Mann is going to take the lead on this.	Kay Mann is going to take the lead on this.	121863817	1475257673100	1475257673171	 	32
239811	2565955	Kay Mann is going to take the lead on this.	Kay Mann is going to take the lead on this.	121863819	1475257673590	1475257673886	SHIFT	16
239811	2565955	Kay Mann is going to take the lead on this.	Kay Mann is going to take the lead on this.	121863822	1475257673901	1475257674017	m	77
239811	2565955	Kay Mann is going to take the lead on this.	Kay Mann is going to take the lead on this.	121863916	1475257674475	1475257674549	BKSP	8
239811	2565955	Kay Mann is going to take the lead on this.	Kay Mann is going to take the lead on this.	121863918	1475257674601	1475257674855	SHIFT	16
239811	2565955	Kay Mann is going to take the lead on this.	Kay Mann is going to take the lead on this.	121863917	1475257674686	1475257674812	M	77
239811	2565955	Kay Mann is going to take the lead on this.	Kay Mann is going to take the lead on this.	121863923	1475257674948	1475257675049	a	65
239811	2565955	Kay Mann is going to take the lead on this.	Kay Mann is going to take the lead on this.	121863926	1475257675082	1475257675153	n	78
239811	2565955	Kay Mann is going to take the lead on this.	Kay Mann is going to take the lead on this.	121863929	1475257675234	1475257675368	n	78
239811	2565955	Kay Mann is going to take the lead on this.	Kay Mann is going to take the lead on this.	121863965	1475257675309	1475257675443	 	32
239811	2565955	Kay Mann is going to take the lead on this.	Kay Mann is going to take the lead on this.	121863966	1475257675514	1475257675616	i	73
239811	2565955	Kay Mann is going to take the lead on this.	Kay Mann is going to take the lead on this.	121863969	1475257675605	1475257675709	s	83
239811	2565955	Kay Mann is going to take the lead on this.	Kay Mann is going to take the lead on this.	121863974	1475257675670	1475257675778	 	32
239811	2565955	Kay Mann is going to take the lead on this.	Kay Mann is going to take the lead on this.	121863980	1475257675884	1475257675961	g	71
239811	2565955	Kay Mann is going to take the lead on this.	Kay Mann is going to take the lead on this.	121863983	1475257676000	1475257676089	o	79
239811	2565955	Kay Mann is going to take the lead on this.	Kay Mann is going to take the lead on this.	121863995	1475257676140	1475257676225	i	73
239811	2565955	Kay Mann is going to take the lead on this.	Kay Mann is going to take the lead on this.	121863997	1475257676286	1475257676382	n	78
239811	2565955	Kay Mann is going to take the lead on this.	Kay Mann is going to take the lead on this.	121863999	1475257676374	1475257676467	g	71
239811	2565955	Kay Mann is going to take the lead on this.	Kay Mann is going to take the lead on this.	121864003	1475257676452	1475257676537	 	32
239811	2565955	Kay Mann is going to take the lead on this.	Kay Mann is going to take the lead on this.	121864007	1475257676586	1475257676672	t	84
239811	2565955	Kay Mann is going to take the lead on this.	Kay Mann is going to take the lead on this.	121864026	1475257676630	1475257676770	o	79
239811	2565955	Kay Mann is going to take the lead on this.	Kay Mann is going to take the lead on this.	121864031	1475257676706	1475257676819	 	32
239811	2565955	Kay Mann is going to take the lead on this.	Kay Mann is going to take the lead on this.	121864037	1475257676807	1475257676907	t	84
239811	2565955	Kay Mann is going to take the lead on this.	Kay Mann is going to take the lead on this.	121864041	1475257677005	1475257677122	a	65
239811	2565955	Kay Mann is going to take the lead on this.	Kay Mann is going to take the lead on this.	121864048	1475257677129	1475257677236	k	75
239811	2565955	Kay Mann is going to take the lead on this.	Kay Mann is going to take the lead on this.	121864067	1475257677214	1475257677314	e	69
239811	2565955	Kay Mann is going to take the lead on this.	Kay Mann is going to take the lead on this.	121864070	1475257677295	1475257677386	 	32
239811	2565955	Kay Mann is going to take the lead on this.	Kay Mann is going to take the lead on this.	121864076	1475257677409	1475257677491	t	84
239811	2565955	Kay Mann is going to take the lead on this.	Kay Mann is going to take the lead on this.	121864082	1475257677474	1475257677578	h	72
239811	2565955	Kay Mann is going to take the lead on this.	Kay Mann is going to take the lead on this.	121864087	1475257677572	1475257677688	e	69
239811	2565955	Kay Mann is going to take the lead on this.	Kay Mann is going to take the lead on this.	121864101	1475257677633	1475257677721	 	32
239811	2565955	Kay Mann is going to take the lead on this.	Kay Mann is going to take the lead on this.	121864103	1475257677764	1475257677874	l	76
239811	2565955	Kay Mann is going to take the lead on this.	Kay Mann is going to take the lead on this.	121864105	1475257677852	1475257677950	e	69
239811	2565955	Kay Mann is going to take the lead on this.	Kay Mann is going to take the lead on this.	121864109	1475257678005	1475257678116	a	65
239811	2565955	Kay Mann is going to take the lead on this.	Kay Mann is going to take the lead on this.	121864112	1475257678185	1475257678285	d	68
239811	2565955	Kay Mann is going to take the lead on this.	Kay Mann is going to take the lead on this.	121864140	1475257678269	1475257678380	 	32
239811	2565955	Kay Mann is going to take the lead on this.	Kay Mann is going to take the lead on this.	121864143	1475257678415	1475257678509	o	79
239811	2565955	Kay Mann is going to take the lead on this.	Kay Mann is going to take the lead on this.	121864145	1475257678549	1475257678669	n	78
239811	2565955	Kay Mann is going to take the lead on this.	Kay Mann is going to take the lead on this.	121864146	1475257678614	1475257678738	 	32
239811	2565955	Kay Mann is going to take the lead on this.	Kay Mann is going to take the lead on this.	121864147	1475257678950	1475257679035	t	84
239811	2565955	Kay Mann is going to take the lead on this.	Kay Mann is going to take the lead on this.	121864166	1475257679021	1475257679115	h	72
239811	2565955	Kay Mann is going to take the lead on this.	Kay Mann is going to take the lead on this.	121864169	1475257679164	1475257679283	i	73
239811	2565955	Kay Mann is going to take the lead on this.	Kay Mann is going to take the lead on this.	121864171	1475257679269	1475257679388	s	83
239811	2565955	Kay Mann is going to take the lead on this.	Kay Mann is going to take the lead on this.	121864174	1475257679398	1475257679515	.	190
239811	2565970	Can you call me at home?	Can you call me at home?	121864475	1475257682571	1475257682836	SHIFT	16
239811	2565970	Can you call me at home?	Can you call me at home?	121864471	1475257682719	1475257682823	C	67
239811	2565970	Can you call me at home?	Can you call me at home?	121864481	1475257682865	1475257682976	a	65
239811	2565970	Can you call me at home?	Can you call me at home?	121864490	1475257683026	1475257683133	l	76
239811	2565970	Can you call me at home?	Can you call me at home?	121864498	1475257683463	1475257683567	BKSP	8
239811	2565970	Can you call me at home?	Can you call me at home?	121864506	1475257683658	1475257683804	n	78
239811	2565970	Can you call me at home?	Can you call me at home?	121864535	1475257683762	1475257683888	 	32
239811	2565970	Can you call me at home?	Can you call me at home?	121864538	1475257684088	1475257684177	y	89
239811	2565970	Can you call me at home?	Can you call me at home?	121864542	1475257684169	1475257684263	o	79
239811	2565970	Can you call me at home?	Can you call me at home?	121864547	1475257684230	1475257684308	u	85
239811	2565970	Can you call me at home?	Can you call me at home?	121864553	1475257684318	1475257684425	 	32
239811	2565970	Can you call me at home?	Can you call me at home?	121864557	1475257684455	1475257684556	c	67
239811	2565970	Can you call me at home?	Can you call me at home?	121864571	1475257684634	1475257684744	a	65
239811	2565970	Can you call me at home?	Can you call me at home?	121864572	1475257684747	1475257684828	l	76
239811	2565970	Can you call me at home?	Can you call me at home?	121864573	1475257684890	1475257685023	l	76
239811	2565970	Can you call me at home?	Can you call me at home?	121864574	1475257684962	1475257685082	 	32
239811	2565970	Can you call me at home?	Can you call me at home?	121864576	1475257685115	1475257685231	m	77
239811	2565970	Can you call me at home?	Can you call me at home?	121864632	1475257685211	1475257685306	e	69
239811	2565970	Can you call me at home?	Can you call me at home?	121864635	1475257685280	1475257685387	 	32
239811	2565970	Can you call me at home?	Can you call me at home?	121864641	1475257685489	1475257685587	a	65
239811	2565970	Can you call me at home?	Can you call me at home?	121864648	1475257685694	1475257685772	t	84
239811	2565970	Can you call me at home?	Can you call me at home?	121864651	1475257685775	1475257685860	 	32
239811	2565970	Can you call me at home?	Can you call me at home?	121864656	1475257686046	1475257686128	h	72
239811	2565970	Can you call me at home?	Can you call me at home?	121864687	1475257686153	1475257686250	o	79
239811	2565970	Can you call me at home?	Can you call me at home?	121864691	1475257686286	1475257686400	m	77
239811	2565970	Can you call me at home?	Can you call me at home?	121864695	1475257686385	1475257686479	e	69
239811	2565970	Can you call me at home?	Can you call me at home?	121864700	1475257686482	1475257686619	SHIFT	16
239811	2565983	The rule was aimed at allowing low-budget teams to be competitive.	The rule was aimed at allowing low-budget teams to be competitive.	121865191	1475257693299	1475257693604	SHIFT	16
239811	2565983	The rule was aimed at allowing low-budget teams to be competitive.	The rule was aimed at allowing low-budget teams to be competitive.	121865186	1475257693436	1475257693543	T	84
239811	2565983	The rule was aimed at allowing low-budget teams to be competitive.	The rule was aimed at allowing low-budget teams to be competitive.	121865197	1475257693621	1475257693744	h	72
239811	2565983	The rule was aimed at allowing low-budget teams to be competitive.	The rule was aimed at allowing low-budget teams to be competitive.	121865201	1475257693751	1475257693861	e	69
239811	2565983	The rule was aimed at allowing low-budget teams to be competitive.	The rule was aimed at allowing low-budget teams to be competitive.	121865205	1475257693848	1475257693939	 	32
239811	2565983	The rule was aimed at allowing low-budget teams to be competitive.	The rule was aimed at allowing low-budget teams to be competitive.	121865209	1475257693971	1475257694058	r	82
239811	2565983	The rule was aimed at allowing low-budget teams to be competitive.	The rule was aimed at allowing low-budget teams to be competitive.	121865236	1475257694061	1475257694144	u	85
239811	2565983	The rule was aimed at allowing low-budget teams to be competitive.	The rule was aimed at allowing low-budget teams to be competitive.	121865239	1475257694229	1475257694342	l	76
239811	2565983	The rule was aimed at allowing low-budget teams to be competitive.	The rule was aimed at allowing low-budget teams to be competitive.	121865245	1475257694355	1475257694459	e	69
239811	2565983	The rule was aimed at allowing low-budget teams to be competitive.	The rule was aimed at allowing low-budget teams to be competitive.	121865251	1475257694437	1475257694538	 	32
239811	2565983	The rule was aimed at allowing low-budget teams to be competitive.	The rule was aimed at allowing low-budget teams to be competitive.	121865258	1475257694573	1475257694681	w	87
239811	2565983	The rule was aimed at allowing low-budget teams to be competitive.	The rule was aimed at allowing low-budget teams to be competitive.	121865272	1475257694739	1475257694856	a	65
239811	2565983	The rule was aimed at allowing low-budget teams to be competitive.	The rule was aimed at allowing low-budget teams to be competitive.	121865278	1475257694898	1475257694995	s	83
239811	2565983	The rule was aimed at allowing low-budget teams to be competitive.	The rule was aimed at allowing low-budget teams to be competitive.	121865281	1475257694989	1475257695074	 	32
239811	2565983	The rule was aimed at allowing low-budget teams to be competitive.	The rule was aimed at allowing low-budget teams to be competitive.	121865284	1475257695083	1475257695193	a	65
239811	2565983	The rule was aimed at allowing low-budget teams to be competitive.	The rule was aimed at allowing low-budget teams to be competitive.	121865339	1475257695171	1475257695275	i	73
239811	2565983	The rule was aimed at allowing low-budget teams to be competitive.	The rule was aimed at allowing low-budget teams to be competitive.	121865346	1475257695327	1475257695431	m	77
239811	2565983	The rule was aimed at allowing low-budget teams to be competitive.	The rule was aimed at allowing low-budget teams to be competitive.	121865352	1475257695415	1475257695506	e	69
239811	2565983	The rule was aimed at allowing low-budget teams to be competitive.	The rule was aimed at allowing low-budget teams to be competitive.	121865356	1475257695564	1475257695672	d	68
239811	2565983	The rule was aimed at allowing low-budget teams to be competitive.	The rule was aimed at allowing low-budget teams to be competitive.	121865362	1475257695674	1475257695773	 	32
239811	2565983	The rule was aimed at allowing low-budget teams to be competitive.	The rule was aimed at allowing low-budget teams to be competitive.	121865367	1475257695819	1475257695923	a	65
239811	2565983	The rule was aimed at allowing low-budget teams to be competitive.	The rule was aimed at allowing low-budget teams to be competitive.	121865402	1475257695906	1475257696032	t	84
239811	2565983	The rule was aimed at allowing low-budget teams to be competitive.	The rule was aimed at allowing low-budget teams to be competitive.	121865407	1475257695980	1475257696105	 	32
239811	2565983	The rule was aimed at allowing low-budget teams to be competitive.	The rule was aimed at allowing low-budget teams to be competitive.	121865414	1475257696094	1475257696188	a	65
239811	2565983	The rule was aimed at allowing low-budget teams to be competitive.	The rule was aimed at allowing low-budget teams to be competitive.	121865419	1475257696215	1475257696308	l	76
239811	2565983	The rule was aimed at allowing low-budget teams to be competitive.	The rule was aimed at allowing low-budget teams to be competitive.	121865423	1475257696364	1475257696458	l	76
239811	2565983	The rule was aimed at allowing low-budget teams to be competitive.	The rule was aimed at allowing low-budget teams to be competitive.	121865428	1475257696520	1475257696631	o	79
239811	2565983	The rule was aimed at allowing low-budget teams to be competitive.	The rule was aimed at allowing low-budget teams to be competitive.	121865437	1475257696641	1475257696745	w	87
239811	2565983	The rule was aimed at allowing low-budget teams to be competitive.	The rule was aimed at allowing low-budget teams to be competitive.	121865440	1475257696752	1475257696872	i	73
239811	2565983	The rule was aimed at allowing low-budget teams to be competitive.	The rule was aimed at allowing low-budget teams to be competitive.	121865444	1475257696924	1475257697044	n	78
239811	2565983	The rule was aimed at allowing low-budget teams to be competitive.	The rule was aimed at allowing low-budget teams to be competitive.	121865452	1475257697028	1475257697131	g	71
239811	2565983	The rule was aimed at allowing low-budget teams to be competitive.	The rule was aimed at allowing low-budget teams to be competitive.	121865531	1475257697119	1475257697223	 	32
239811	2565983	The rule was aimed at allowing low-budget teams to be competitive.	The rule was aimed at allowing low-budget teams to be competitive.	121865535	1475257697272	1475257697356	t	84
239811	2565983	The rule was aimed at allowing low-budget teams to be competitive.	The rule was aimed at allowing low-budget teams to be competitive.	121865542	1475257697628	1475257697741	BKSP	8
239811	2565983	The rule was aimed at allowing low-budget teams to be competitive.	The rule was aimed at allowing low-budget teams to be competitive.	121865547	1475257697810	1475257697904	l	76
239811	2565983	The rule was aimed at allowing low-budget teams to be competitive.	The rule was aimed at allowing low-budget teams to be competitive.	121865557	1475257697962	1475257698064	o	79
239811	2565983	The rule was aimed at allowing low-budget teams to be competitive.	The rule was aimed at allowing low-budget teams to be competitive.	121865568	1475257698050	1475257698151	w	87
239811	2565983	The rule was aimed at allowing low-budget teams to be competitive.	The rule was aimed at allowing low-budget teams to be competitive.	121865577	1475257698379	1475257698482	-	189
239811	2565983	The rule was aimed at allowing low-budget teams to be competitive.	The rule was aimed at allowing low-budget teams to be competitive.	121865629	1475257698650	1475257698731	b	66
239811	2565983	The rule was aimed at allowing low-budget teams to be competitive.	The rule was aimed at allowing low-budget teams to be competitive.	121865635	1475257699073	1475257699180	u	85
239811	2565983	The rule was aimed at allowing low-budget teams to be competitive.	The rule was aimed at allowing low-budget teams to be competitive.	121865640	1475257699219	1475257699320	d	68
239811	2565983	The rule was aimed at allowing low-budget teams to be competitive.	The rule was aimed at allowing low-budget teams to be competitive.	121865645	1475257699323	1475257699431	g	71
239811	2565983	The rule was aimed at allowing low-budget teams to be competitive.	The rule was aimed at allowing low-budget teams to be competitive.	121865651	1475257699493	1475257699577	e	69
239811	2565983	The rule was aimed at allowing low-budget teams to be competitive.	The rule was aimed at allowing low-budget teams to be competitive.	121865698	1475257699600	1475257699726	t	84
239811	2565983	The rule was aimed at allowing low-budget teams to be competitive.	The rule was aimed at allowing low-budget teams to be competitive.	121865700	1475257699671	1475257699798	 	32
239811	2565983	The rule was aimed at allowing low-budget teams to be competitive.	The rule was aimed at allowing low-budget teams to be competitive.	121865702	1475257699883	1475257699977	t	84
239811	2565983	The rule was aimed at allowing low-budget teams to be competitive.	The rule was aimed at allowing low-budget teams to be competitive.	121865704	1475257700055	1475257700156	e	69
239811	2565983	The rule was aimed at allowing low-budget teams to be competitive.	The rule was aimed at allowing low-budget teams to be competitive.	121865706	1475257700230	1475257700367	a	65
239811	2565983	The rule was aimed at allowing low-budget teams to be competitive.	The rule was aimed at allowing low-budget teams to be competitive.	121865723	1475257700350	1475257700463	m	77
239811	2565983	The rule was aimed at allowing low-budget teams to be competitive.	The rule was aimed at allowing low-budget teams to be competitive.	121865726	1475257700451	1475257700541	s	83
239811	2565983	The rule was aimed at allowing low-budget teams to be competitive.	The rule was aimed at allowing low-budget teams to be competitive.	121865734	1475257700513	1475257700626	 	32
239811	2565983	The rule was aimed at allowing low-budget teams to be competitive.	The rule was aimed at allowing low-budget teams to be competitive.	121865739	1475257700649	1475257700726	t	84
239811	2565983	The rule was aimed at allowing low-budget teams to be competitive.	The rule was aimed at allowing low-budget teams to be competitive.	121865742	1475257700691	1475257700828	o	79
239811	2565983	The rule was aimed at allowing low-budget teams to be competitive.	The rule was aimed at allowing low-budget teams to be competitive.	121865746	1475257700769	1475257700860	 	32
239811	2565983	The rule was aimed at allowing low-budget teams to be competitive.	The rule was aimed at allowing low-budget teams to be competitive.	121865747	1475257700922	1475257701042	b	66
239811	2565983	The rule was aimed at allowing low-budget teams to be competitive.	The rule was aimed at allowing low-budget teams to be competitive.	121865748	1475257700974	1475257701081	e	69
239811	2565983	The rule was aimed at allowing low-budget teams to be competitive.	The rule was aimed at allowing low-budget teams to be competitive.	121865749	1475257701065	1475257701154	 	32
239811	2565983	The rule was aimed at allowing low-budget teams to be competitive.	The rule was aimed at allowing low-budget teams to be competitive.	121865750	1475257701147	1475257701257	c	67
239811	2565983	The rule was aimed at allowing low-budget teams to be competitive.	The rule was aimed at allowing low-budget teams to be competitive.	121865797	1475257701235	1475257701335	o	79
239811	2565983	The rule was aimed at allowing low-budget teams to be competitive.	The rule was aimed at allowing low-budget teams to be competitive.	121865800	1475257701361	1475257701449	m	77
239811	2565983	The rule was aimed at allowing low-budget teams to be competitive.	The rule was aimed at allowing low-budget teams to be competitive.	121865806	1475257701543	1475257701641	p	80
239811	2565983	The rule was aimed at allowing low-budget teams to be competitive.	The rule was aimed at allowing low-budget teams to be competitive.	121865813	1475257701654	1475257701749	e	69
239811	2565983	The rule was aimed at allowing low-budget teams to be competitive.	The rule was aimed at allowing low-budget teams to be competitive.	121865819	1475257701862	1475257701950	t	84
239811	2565983	The rule was aimed at allowing low-budget teams to be competitive.	The rule was aimed at allowing low-budget teams to be competitive.	121865825	1475257701989	1475257702103	i	73
239811	2565983	The rule was aimed at allowing low-budget teams to be competitive.	The rule was aimed at allowing low-budget teams to be competitive.	121865859	1475257702064	1475257702174	t	84
239811	2565983	The rule was aimed at allowing low-budget teams to be competitive.	The rule was aimed at allowing low-budget teams to be competitive.	121865866	1475257702187	1475257702308	i	73
239811	2565983	The rule was aimed at allowing low-budget teams to be competitive.	The rule was aimed at allowing low-budget teams to be competitive.	121865871	1475257702301	1475257702398	v	86
239811	2565983	The rule was aimed at allowing low-budget teams to be competitive.	The rule was aimed at allowing low-budget teams to be competitive.	121865878	1475257702467	1475257702568	e	69
239811	2565983	The rule was aimed at allowing low-budget teams to be competitive.	The rule was aimed at allowing low-budget teams to be competitive.	121865883	1475257702601	1475257702708	.	190
239811	2566005	I heard it was at 5?	I heard it was at 5?	121866213	1475257706580	1475257706834	SHIFT	16
239811	2566005	I heard it was at 5?	I heard it was at 5?	121866210	1475257706662	1475257706779	I	73
239811	2566005	I heard it was at 5?	I heard it was at 5?	121866217	1475257706808	1475257706922	 	32
239811	2566005	I heard it was at 5?	I heard it was at 5?	121866222	1475257707210	1475257707301	h	72
239811	2566005	I heard it was at 5?	I heard it was at 5?	121866228	1475257707307	1475257707391	e	69
239811	2566005	I heard it was at 5?	I heard it was at 5?	121866235	1475257707457	1475257707580	a	65
239811	2566005	I heard it was at 5?	I heard it was at 5?	121866293	1475257707911	1475257707996	r	82
239811	2566005	I heard it was at 5?	I heard it was at 5?	121866297	1475257708074	1475257708181	d	68
239811	2566005	I heard it was at 5?	I heard it was at 5?	121866302	1475257708184	1475257708265	 	32
239811	2566005	I heard it was at 5?	I heard it was at 5?	121866308	1475257708307	1475257708411	i	73
239811	2566005	I heard it was at 5?	I heard it was at 5?	121866342	1475257708388	1475257708469	t	84
239811	2566005	I heard it was at 5?	I heard it was at 5?	121866346	1475257708457	1475257708561	 	32
239811	2566005	I heard it was at 5?	I heard it was at 5?	121866357	1475257708587	1475257708714	w	87
239811	2566005	I heard it was at 5?	I heard it was at 5?	121866363	1475257708789	1475257708886	a	65
239811	2566005	I heard it was at 5?	I heard it was at 5?	121866374	1475257708925	1475257709032	s	83
239811	2566005	I heard it was at 5?	I heard it was at 5?	121866379	1475257709042	1475257709139	 	32
239811	2566005	I heard it was at 5?	I heard it was at 5?	121866427	1475257709133	1475257709252	a	65
239811	2566005	I heard it was at 5?	I heard it was at 5?	121866434	1475257709241	1475257709390	t	84
239811	2566005	I heard it was at 5?	I heard it was at 5?	121866440	1475257709344	1475257709467	 	32
239811	2566005	I heard it was at 5?	I heard it was at 5?	121866444	1475257709604	1475257709708	5	53
239811	2566005	I heard it was at 5?	I heard it was at 5?	121866447	1475257709737	1475257709873	SHIFT	16
