PARTICIPANT_ID	TEST_SECTION_ID	SENTENCE	USER_INPUT	KEYSTROKE_ID	PRESS_TIME	RELEASE_TIME	LETTER	KEYCODE
239914	2566817	I encourage each of you to attend or tune in tomorrow.	I encourage each of you to attend or tune in tomorrow.	121904898	1475258200898	1475258201202	SHIFT	16
239914	2566817	I encourage each of you to attend or tune in tomorrow.	I encourage each of you to attend or tune in tomorrow.	121904900	1475258201127	1475258201212	I	73
239914	2566817	I encourage each of you to attend or tune in tomorrow.	I encourage each of you to attend or tune in tomorrow.	121904905	1475258201304	1475258201425	 	32
239914	2566817	I encourage each of you to attend or tune in tomorrow.	I encourage each of you to attend or tune in tomorrow.	121904912	1475258201466	1475258201570	e	69
239914	2566817	I encourage each of you to attend or tune in tomorrow.	I encourage each of you to attend or tune in tomorrow.	121904918	1475258201602	1475258201744	n	78
239914	2566817	I encourage each of you to attend or tune in tomorrow.	I encourage each of you to attend or tune in tomorrow.	121904923	1475258201794	1475258201945	c	67
239914	2566817	I encourage each of you to attend or tune in tomorrow.	I encourage each of you to attend or tune in tomorrow.	121904965	1475258201897	1475258202060	o	79
239914	2566817	I encourage each of you to attend or tune in tomorrow.	I encourage each of you to attend or tune in tomorrow.	121904968	1475258201966	1475258202070	u	85
239914	2566817	I encourage each of you to attend or tune in tomorrow.	I encourage each of you to attend or tune in tomorrow.	121904971	1475258202090	1475258202272	r	82
239914	2566817	I encourage each of you to attend or tune in tomorrow.	I encourage each of you to attend or tune in tomorrow.	121904976	1475258202302	1475258202450	a	65
239914	2566817	I encourage each of you to attend or tune in tomorrow.	I encourage each of you to attend or tune in tomorrow.	121904981	1475258202490	1475258202646	g	71
239914	2566817	I encourage each of you to attend or tune in tomorrow.	I encourage each of you to attend or tune in tomorrow.	121904989	1475258202656	1475258202790	e	69
239914	2566817	I encourage each of you to attend or tune in tomorrow.	I encourage each of you to attend or tune in tomorrow.	121905049	1475258202800	1475258202936	 	32
239914	2566817	I encourage each of you to attend or tune in tomorrow.	I encourage each of you to attend or tune in tomorrow.	121905052	1475258202936	1475258203086	e	69
239914	2566817	I encourage each of you to attend or tune in tomorrow.	I encourage each of you to attend or tune in tomorrow.	121905059	1475258203016	1475258203156	a	65
239914	2566817	I encourage each of you to attend or tune in tomorrow.	I encourage each of you to attend or tune in tomorrow.	121905063	1475258203236	1475258203394	c	67
239914	2566817	I encourage each of you to attend or tune in tomorrow.	I encourage each of you to attend or tune in tomorrow.	121905118	1475258203384	1475258203573	h	72
239914	2566817	I encourage each of you to attend or tune in tomorrow.	I encourage each of you to attend or tune in tomorrow.	121905125	1475258203513	1475258203643	 	32
239914	2566817	I encourage each of you to attend or tune in tomorrow.	I encourage each of you to attend or tune in tomorrow.	121905134	1475258203583	1475258203713	o	79
239914	2566817	I encourage each of you to attend or tune in tomorrow.	I encourage each of you to attend or tune in tomorrow.	121905140	1475258203723	1475258203873	f	70
239914	2566817	I encourage each of you to attend or tune in tomorrow.	I encourage each of you to attend or tune in tomorrow.	121905145	1475258203848	1475258203956	 	32
239914	2566817	I encourage each of you to attend or tune in tomorrow.	I encourage each of you to attend or tune in tomorrow.	121905150	1475258204016	1475258204113	y	89
239914	2566817	I encourage each of you to attend or tune in tomorrow.	I encourage each of you to attend or tune in tomorrow.	121905163	1475258204175	1475258204336	o	79
239914	2566817	I encourage each of you to attend or tune in tomorrow.	I encourage each of you to attend or tune in tomorrow.	121905167	1475258204249	1475258204346	u	85
239914	2566817	I encourage each of you to attend or tune in tomorrow.	I encourage each of you to attend or tune in tomorrow.	121905172	1475258204292	1475258204427	 	32
239914	2566817	I encourage each of you to attend or tune in tomorrow.	I encourage each of you to attend or tune in tomorrow.	121905179	1475258204447	1475258204569	t	84
239914	2566817	I encourage each of you to attend or tune in tomorrow.	I encourage each of you to attend or tune in tomorrow.	121905226	1475258204522	1475258204682	o	79
239914	2566817	I encourage each of you to attend or tune in tomorrow.	I encourage each of you to attend or tune in tomorrow.	121905234	1475258204591	1475258204722	 	32
239914	2566817	I encourage each of you to attend or tune in tomorrow.	I encourage each of you to attend or tune in tomorrow.	121905241	1475258204792	1475258204942	a	65
239914	2566817	I encourage each of you to attend or tune in tomorrow.	I encourage each of you to attend or tune in tomorrow.	121905250	1475258205015	1475258205089	t	84
239914	2566817	I encourage each of you to attend or tune in tomorrow.	I encourage each of you to attend or tune in tomorrow.	121905257	1475258205179	1475258205329	t	84
239914	2566817	I encourage each of you to attend or tune in tomorrow.	I encourage each of you to attend or tune in tomorrow.	121905298	1475258205296	1475258205389	e	69
239914	2566817	I encourage each of you to attend or tune in tomorrow.	I encourage each of you to attend or tune in tomorrow.	121905300	1475258205459	1475258205609	n	78
239914	2566817	I encourage each of you to attend or tune in tomorrow.	I encourage each of you to attend or tune in tomorrow.	121905304	1475258205578	1475258205695	d	68
239914	2566817	I encourage each of you to attend or tune in tomorrow.	I encourage each of you to attend or tune in tomorrow.	121905308	1475258205695	1475258205857	 	32
239914	2566817	I encourage each of you to attend or tune in tomorrow.	I encourage each of you to attend or tune in tomorrow.	121905312	1475258205825	1475258205948	o	79
239914	2566817	I encourage each of you to attend or tune in tomorrow.	I encourage each of you to attend or tune in tomorrow.	121905371	1475258205938	1475258206025	r	82
239914	2566817	I encourage each of you to attend or tune in tomorrow.	I encourage each of you to attend or tune in tomorrow.	121905382	1475258206045	1475258206192	 	32
239914	2566817	I encourage each of you to attend or tune in tomorrow.	I encourage each of you to attend or tune in tomorrow.	121905391	1475258206232	1475258206378	t	84
239914	2566817	I encourage each of you to attend or tune in tomorrow.	I encourage each of you to attend or tune in tomorrow.	121905399	1475258206318	1475258206400	u	85
239914	2566817	I encourage each of you to attend or tune in tomorrow.	I encourage each of you to attend or tune in tomorrow.	121905408	1475258206541	1475258206682	n	78
239914	2566817	I encourage each of you to attend or tune in tomorrow.	I encourage each of you to attend or tune in tomorrow.	121905417	1475258206712	1475258206828	e	69
239914	2566817	I encourage each of you to attend or tune in tomorrow.	I encourage each of you to attend or tune in tomorrow.	121905442	1475258206838	1475258207035	 	32
239914	2566817	I encourage each of you to attend or tune in tomorrow.	I encourage each of you to attend or tune in tomorrow.	121905445	1475258206991	1475258207153	i	73
239914	2566817	I encourage each of you to attend or tune in tomorrow.	I encourage each of you to attend or tune in tomorrow.	121905452	1475258207085	1475258207241	n	78
239914	2566817	I encourage each of you to attend or tune in tomorrow.	I encourage each of you to attend or tune in tomorrow.	121905457	1475258207193	1475258207331	 	32
239914	2566817	I encourage each of you to attend or tune in tomorrow.	I encourage each of you to attend or tune in tomorrow.	121905466	1475258207341	1475258207471	t	84
239914	2566817	I encourage each of you to attend or tune in tomorrow.	I encourage each of you to attend or tune in tomorrow.	121905513	1475258207471	1475258207593	o	79
239914	2566817	I encourage each of you to attend or tune in tomorrow.	I encourage each of you to attend or tune in tomorrow.	121905516	1475258207550	1475258207668	m	77
239914	2566817	I encourage each of you to attend or tune in tomorrow.	I encourage each of you to attend or tune in tomorrow.	121905519	1475258207738	1475258207835	o	79
239914	2566817	I encourage each of you to attend or tune in tomorrow.	I encourage each of you to attend or tune in tomorrow.	121905522	1475258207835	1475258207921	r	82
239914	2566817	I encourage each of you to attend or tune in tomorrow.	I encourage each of you to attend or tune in tomorrow.	121905528	1475258207991	1475258208094	r	82
239914	2566817	I encourage each of you to attend or tune in tomorrow.	I encourage each of you to attend or tune in tomorrow.	121905536	1475258208104	1475258208192	o	79
239914	2566817	I encourage each of you to attend or tune in tomorrow.	I encourage each of you to attend or tune in tomorrow.	121905606	1475258208274	1475258208388	w	87
239914	2566817	I encourage each of you to attend or tune in tomorrow.	I encourage each of you to attend or tune in tomorrow.	121905610	1475258208448	1475258208586	.	190
239914	2566817	I encourage each of you to attend or tune in tomorrow.	I encourage each of you to attend or tune in tomorrow.	121905613	1475258208646	1475258208736	SHIFT	16
239914	2566843	Have a good weekend.	Have a good weekend.	121905818	1475258210864	1475258211070	SHIFT	16
239914	2566843	Have a good weekend.	Have a good weekend.	121905827	1475258210984	1475258211120	H	72
239914	2566843	Have a good weekend.	Have a good weekend.	121905832	1475258211380	1475258211579	a	65
239914	2566843	Have a good weekend.	Have a good weekend.	121905838	1475258211569	1475258211657	v	86
239914	2566843	Have a good weekend.	Have a good weekend.	121905845	1475258211727	1475258211872	e	69
239914	2566843	Have a good weekend.	Have a good weekend.	121905893	1475258211840	1475258211984	 	32
239914	2566843	Have a good weekend.	Have a good weekend.	121905899	1475258211960	1475258212096	a	65
239914	2566843	Have a good weekend.	Have a good weekend.	121905907	1475258212066	1475258212206	 	32
239914	2566843	Have a good weekend.	Have a good weekend.	121905915	1475258212306	1475258212456	g	71
239914	2566843	Have a good weekend.	Have a good weekend.	121905925	1475258212416	1475258212506	o	79
239914	2566843	Have a good weekend.	Have a good weekend.	121905930	1475258212576	1475258212705	o	79
239914	2566843	Have a good weekend.	Have a good weekend.	121905957	1475258212673	1475258212803	d	68
239914	2566843	Have a good weekend.	Have a good weekend.	121905963	1475258212813	1475258212956	 	32
239914	2566843	Have a good weekend.	Have a good weekend.	121905968	1475258212946	1475258213086	w	87
239914	2566843	Have a good weekend.	Have a good weekend.	121905977	1475258213086	1475258213163	e	69
239914	2566843	Have a good weekend.	Have a good weekend.	121905982	1475258213254	1475258213336	e	69
239914	2566843	Have a good weekend.	Have a good weekend.	121906068	1475258213336	1475258213443	k	75
239914	2566843	Have a good weekend.	Have a good weekend.	121906069	1475258213463	1475258213576	e	69
239914	2566843	Have a good weekend.	Have a good weekend.	121906074	1475258213586	1475258213723	n	78
239914	2566843	Have a good weekend.	Have a good weekend.	121906080	1475258213713	1475258213810	d	68
239914	2566843	Have a good weekend.	Have a good weekend.	121906084	1475258213870	1475258214052	.	190
239914	2566855	I think this move will not overcome the problem.	I think this move will not overcome the problem.	121906321	1475258215967	1475258216248	SHIFT	16
239914	2566855	I think this move will not overcome the problem.	I think this move will not overcome the problem.	121906324	1475258216135	1475258216268	I	73
239914	2566855	I think this move will not overcome the problem.	I think this move will not overcome the problem.	121906331	1475258216558	1475258216688	 	32
239914	2566855	I think this move will not overcome the problem.	I think this move will not overcome the problem.	121906337	1475258216728	1475258216871	t	84
239914	2566855	I think this move will not overcome the problem.	I think this move will not overcome the problem.	121906343	1475258216841	1475258216944	h	72
239914	2566855	I think this move will not overcome the problem.	I think this move will not overcome the problem.	121906375	1475258216911	1475258217041	i	73
239914	2566855	I think this move will not overcome the problem.	I think this move will not overcome the problem.	121906380	1475258217041	1475258217208	n	78
239914	2566855	I think this move will not overcome the problem.	I think this move will not overcome the problem.	121906384	1475258217178	1475258217338	k	75
239914	2566855	I think this move will not overcome the problem.	I think this move will not overcome the problem.	121906389	1475258217291	1475258217433	 	32
239914	2566855	I think this move will not overcome the problem.	I think this move will not overcome the problem.	121906395	1475258217408	1475258217548	t	84
239914	2566855	I think this move will not overcome the problem.	I think this move will not overcome the problem.	121906453	1475258217488	1475258217632	h	72
239914	2566855	I think this move will not overcome the problem.	I think this move will not overcome the problem.	121906460	1475258217578	1475258217712	i	73
239914	2566855	I think this move will not overcome the problem.	I think this move will not overcome the problem.	121906467	1475258217712	1475258217855	s	83
239914	2566855	I think this move will not overcome the problem.	I think this move will not overcome the problem.	121906476	1475258217815	1475258217945	 	32
239914	2566855	I think this move will not overcome the problem.	I think this move will not overcome the problem.	121906481	1475258217985	1475258218202	m	77
239914	2566855	I think this move will not overcome the problem.	I think this move will not overcome the problem.	121906527	1475258218124	1475258218305	o	79
239914	2566855	I think this move will not overcome the problem.	I think this move will not overcome the problem.	121906532	1475258218264	1475258218405	v	86
239914	2566855	I think this move will not overcome the problem.	I think this move will not overcome the problem.	121906541	1475258218425	1475258218545	e	69
239914	2566855	I think this move will not overcome the problem.	I think this move will not overcome the problem.	121906552	1475258218535	1475258218678	 	32
239914	2566855	I think this move will not overcome the problem.	I think this move will not overcome the problem.	121906559	1475258218718	1475258218889	w	87
239914	2566855	I think this move will not overcome the problem.	I think this move will not overcome the problem.	121906598	1475258218855	1475258219012	i	73
239914	2566855	I think this move will not overcome the problem.	I think this move will not overcome the problem.	121906601	1475258218945	1475258219072	l	76
239914	2566855	I think this move will not overcome the problem.	I think this move will not overcome the problem.	121906605	1475258219112	1475258219265	l	76
239914	2566855	I think this move will not overcome the problem.	I think this move will not overcome the problem.	121906611	1475258219197	1475258219355	 	32
239914	2566855	I think this move will not overcome the problem.	I think this move will not overcome the problem.	121906617	1475258219345	1475258219492	n	78
239914	2566855	I think this move will not overcome the problem.	I think this move will not overcome the problem.	121906693	1475258219432	1475258219555	o	79
239914	2566855	I think this move will not overcome the problem.	I think this move will not overcome the problem.	121906698	1475258219513	1475258219625	t	84
239914	2566855	I think this move will not overcome the problem.	I think this move will not overcome the problem.	121906706	1475258219635	1475258219769	 	32
239914	2566855	I think this move will not overcome the problem.	I think this move will not overcome the problem.	121906711	1475258219819	1475258219965	o	79
239914	2566855	I think this move will not overcome the problem.	I think this move will not overcome the problem.	121906717	1475258219990	1475258220088	v	86
239914	2566855	I think this move will not overcome the problem.	I think this move will not overcome the problem.	121906725	1475258220198	1475258220345	e	69
239914	2566855	I think this move will not overcome the problem.	I think this move will not overcome the problem.	121906775	1475258220258	1475258220395	r	82
239914	2566855	I think this move will not overcome the problem.	I think this move will not overcome the problem.	121906781	1475258220535	1475258220729	c	67
239914	2566855	I think this move will not overcome the problem.	I think this move will not overcome the problem.	121906788	1475258220701	1475258220880	o	79
239914	2566855	I think this move will not overcome the problem.	I think this move will not overcome the problem.	121906792	1475258220784	1475258220937	m	77
239914	2566855	I think this move will not overcome the problem.	I think this move will not overcome the problem.	121906799	1475258220910	1475258221024	e	69
239914	2566855	I think this move will not overcome the problem.	I think this move will not overcome the problem.	121906810	1475258221024	1475258221162	 	32
239914	2566855	I think this move will not overcome the problem.	I think this move will not overcome the problem.	121906855	1475258221138	1475258221254	t	84
239914	2566855	I think this move will not overcome the problem.	I think this move will not overcome the problem.	121906861	1475258221208	1475258221337	h	72
239914	2566855	I think this move will not overcome the problem.	I think this move will not overcome the problem.	121906869	1475258221304	1475258221447	e	69
239914	2566855	I think this move will not overcome the problem.	I think this move will not overcome the problem.	121906875	1475258221385	1475258221537	 	32
239914	2566855	I think this move will not overcome the problem.	I think this move will not overcome the problem.	121906879	1475258221547	1475258221678	p	80
239914	2566855	I think this move will not overcome the problem.	I think this move will not overcome the problem.	121906948	1475258221668	1475258221764	r	82
239914	2566855	I think this move will not overcome the problem.	I think this move will not overcome the problem.	121906953	1475258221784	1475258221907	o	79
239914	2566855	I think this move will not overcome the problem.	I think this move will not overcome the problem.	121906960	1475258221940	1475258222077	b	66
239914	2566855	I think this move will not overcome the problem.	I think this move will not overcome the problem.	121906964	1475258222067	1475258222224	l	76
239914	2566855	I think this move will not overcome the problem.	I think this move will not overcome the problem.	121906971	1475258222234	1475258222377	e	69
239914	2566855	I think this move will not overcome the problem.	I think this move will not overcome the problem.	121907011	1475258222341	1475258222514	m	77
239914	2566855	I think this move will not overcome the problem.	I think this move will not overcome the problem.	121907022	1475258222504	1475258222664	.	190
239914	2566870	I have no personal transactions with any Enron entity.	I have no personal transactions with any Enron entity.	121907267	1475258224297	1475258224570	SHIFT	16
239914	2566870	I have no personal transactions with any Enron entity.	I have no personal transactions with any Enron entity.	121907270	1475258224478	1475258224600	I	73
239914	2566870	I have no personal transactions with any Enron entity.	I have no personal transactions with any Enron entity.	121907273	1475258224620	1475258224760	 	32
239914	2566870	I have no personal transactions with any Enron entity.	I have no personal transactions with any Enron entity.	121907278	1475258224810	1475258224963	h	72
239914	2566870	I have no personal transactions with any Enron entity.	I have no personal transactions with any Enron entity.	121907284	1475258224903	1475258225065	a	65
239914	2566870	I have no personal transactions with any Enron entity.	I have no personal transactions with any Enron entity.	121907293	1475258225065	1475258225153	v	86
239914	2566870	I have no personal transactions with any Enron entity.	I have no personal transactions with any Enron entity.	121907323	1475258225214	1475258225330	e	69
239914	2566870	I have no personal transactions with any Enron entity.	I have no personal transactions with any Enron entity.	121907325	1475258225283	1475258225430	 	32
239914	2566870	I have no personal transactions with any Enron entity.	I have no personal transactions with any Enron entity.	121907327	1475258225420	1475258225576	n	78
239914	2566870	I have no personal transactions with any Enron entity.	I have no personal transactions with any Enron entity.	121907329	1475258225503	1475258225656	o	79
239914	2566870	I have no personal transactions with any Enron entity.	I have no personal transactions with any Enron entity.	121907395	1475258225646	1475258225753	 	32
239914	2566870	I have no personal transactions with any Enron entity.	I have no personal transactions with any Enron entity.	121907399	1475258225803	1475258225966	p	80
239914	2566870	I have no personal transactions with any Enron entity.	I have no personal transactions with any Enron entity.	121907407	1475258225956	1475258226126	e	69
239914	2566870	I have no personal transactions with any Enron entity.	I have no personal transactions with any Enron entity.	121907413	1475258226033	1475258226217	r	82
239914	2566870	I have no personal transactions with any Enron entity.	I have no personal transactions with any Enron entity.	121907419	1475258226176	1475258226329	s	83
239914	2566870	I have no personal transactions with any Enron entity.	I have no personal transactions with any Enron entity.	121907422	1475258226429	1475258226569	o	79
239914	2566870	I have no personal transactions with any Enron entity.	I have no personal transactions with any Enron entity.	121907478	1475258226640	1475258226776	n	78
239914	2566870	I have no personal transactions with any Enron entity.	I have no personal transactions with any Enron entity.	121907483	1475258226776	1475258226919	a	65
239914	2566870	I have no personal transactions with any Enron entity.	I have no personal transactions with any Enron entity.	121907489	1475258226929	1475258227081	l	76
239914	2566870	I have no personal transactions with any Enron entity.	I have no personal transactions with any Enron entity.	121907500	1475258227039	1475258227175	 	32
239914	2566870	I have no personal transactions with any Enron entity.	I have no personal transactions with any Enron entity.	121907507	1475258227292	1475258227385	t	84
239914	2566870	I have no personal transactions with any Enron entity.	I have no personal transactions with any Enron entity.	121907554	1475258227477	1475258227639	r	82
239914	2566870	I have no personal transactions with any Enron entity.	I have no personal transactions with any Enron entity.	121907559	1475258227569	1475258227689	a	65
239914	2566870	I have no personal transactions with any Enron entity.	I have no personal transactions with any Enron entity.	121907564	1475258227689	1475258227835	n	78
239914	2566870	I have no personal transactions with any Enron entity.	I have no personal transactions with any Enron entity.	121907568	1475258227835	1475258227969	s	83
239914	2566870	I have no personal transactions with any Enron entity.	I have no personal transactions with any Enron entity.	121907572	1475258228009	1475258228144	a	65
239914	2566870	I have no personal transactions with any Enron entity.	I have no personal transactions with any Enron entity.	121907589	1475258228247	1475258228342	c	67
239914	2566870	I have no personal transactions with any Enron entity.	I have no personal transactions with any Enron entity.	121907594	1475258228372	1475258228498	t	84
239914	2566870	I have no personal transactions with any Enron entity.	I have no personal transactions with any Enron entity.	121907600	1475258228435	1475258228658	i	73
239914	2566870	I have no personal transactions with any Enron entity.	I have no personal transactions with any Enron entity.	121907689	1475258228558	1475258228705	o	79
239914	2566870	I have no personal transactions with any Enron entity.	I have no personal transactions with any Enron entity.	121907691	1475258228632	1475258228745	n	78
239914	2566870	I have no personal transactions with any Enron entity.	I have no personal transactions with any Enron entity.	121907694	1475258228745	1475258228865	s	83
239914	2566870	I have no personal transactions with any Enron entity.	I have no personal transactions with any Enron entity.	121907699	1475258228895	1475258229055	 	32
239914	2566870	I have no personal transactions with any Enron entity.	I have no personal transactions with any Enron entity.	121907702	1475258229175	1475258229350	w	87
239914	2566870	I have no personal transactions with any Enron entity.	I have no personal transactions with any Enron entity.	121907706	1475258229440	1475258229591	i	73
239914	2566870	I have no personal transactions with any Enron entity.	I have no personal transactions with any Enron entity.	121907709	1475258229611	1475258229721	t	84
239914	2566870	I have no personal transactions with any Enron entity.	I have no personal transactions with any Enron entity.	121907744	1475258229741	1475258229881	h	72
239914	2566870	I have no personal transactions with any Enron entity.	I have no personal transactions with any Enron entity.	121907751	1475258229821	1475258229971	 	32
239914	2566870	I have no personal transactions with any Enron entity.	I have no personal transactions with any Enron entity.	121907756	1475258230041	1475258230209	a	65
239914	2566870	I have no personal transactions with any Enron entity.	I have no personal transactions with any Enron entity.	121907760	1475258230181	1475258230284	n	78
239914	2566870	I have no personal transactions with any Enron entity.	I have no personal transactions with any Enron entity.	121907767	1475258230424	1475258230540	y	89
239914	2566870	I have no personal transactions with any Enron entity.	I have no personal transactions with any Enron entity.	121907844	1475258230467	1475258230612	 	32
239914	2566870	I have no personal transactions with any Enron entity.	I have no personal transactions with any Enron entity.	121907851	1475258230592	1475258230944	SHIFT	16
239914	2566870	I have no personal transactions with any Enron entity.	I have no personal transactions with any Enron entity.	121907847	1475258230800	1475258230924	E	69
239914	2566870	I have no personal transactions with any Enron entity.	I have no personal transactions with any Enron entity.	121907855	1475258231016	1475258231127	n	78
239914	2566870	I have no personal transactions with any Enron entity.	I have no personal transactions with any Enron entity.	121907857	1475258231157	1475258231320	r	82
239914	2566870	I have no personal transactions with any Enron entity.	I have no personal transactions with any Enron entity.	121907862	1475258231340	1475258231490	o	79
239914	2566870	I have no personal transactions with any Enron entity.	I have no personal transactions with any Enron entity.	121907885	1475258231410	1475258231552	n	78
239914	2566870	I have no personal transactions with any Enron entity.	I have no personal transactions with any Enron entity.	121907891	1475258231562	1475258231690	 	32
239914	2566870	I have no personal transactions with any Enron entity.	I have no personal transactions with any Enron entity.	121907897	1475258231750	1475258231882	e	69
239914	2566870	I have no personal transactions with any Enron entity.	I have no personal transactions with any Enron entity.	121907902	1475258231843	1475258231963	n	78
239914	2566870	I have no personal transactions with any Enron entity.	I have no personal transactions with any Enron entity.	121907910	1475258231993	1475258232113	t	84
239914	2566870	I have no personal transactions with any Enron entity.	I have no personal transactions with any Enron entity.	121907981	1475258232103	1475258232173	i	73
239914	2566870	I have no personal transactions with any Enron entity.	I have no personal transactions with any Enron entity.	121907984	1475258232313	1475258232449	t	84
239914	2566870	I have no personal transactions with any Enron entity.	I have no personal transactions with any Enron entity.	121907988	1475258232400	1475258232536	y	89
239914	2566870	I have no personal transactions with any Enron entity.	I have no personal transactions with any Enron entity.	121907995	1475258232663	1475258232820	.	190
239914	2566896	Did he get a signing bonus?	Did he get a signing bonus?	121908292	1475258235352	1475258235615	SHIFT	16
239914	2566896	Did he get a signing bonus?	Did he get a signing bonus?	121908296	1475258235482	1475258235625	D	68
239914	2566896	Did he get a signing bonus?	Did he get a signing bonus?	121908300	1475258235705	1475258235792	i	73
239914	2566896	Did he get a signing bonus?	Did he get a signing bonus?	121908304	1475258235792	1475258235929	d	68
239914	2566896	Did he get a signing bonus?	Did he get a signing bonus?	121908307	1475258235919	1475258236055	 	32
239914	2566896	Did he get a signing bonus?	Did he get a signing bonus?	121908313	1475258236210	1475258236368	h	72
239914	2566896	Did he get a signing bonus?	Did he get a signing bonus?	121908349	1475258236289	1475258236400	e	69
239914	2566896	Did he get a signing bonus?	Did he get a signing bonus?	121908353	1475258236420	1475258236545	 	32
239914	2566896	Did he get a signing bonus?	Did he get a signing bonus?	121908356	1475258236635	1475258236762	g	71
239914	2566896	Did he get a signing bonus?	Did he get a signing bonus?	121908359	1475258236842	1475258237008	e	69
239914	2566896	Did he get a signing bonus?	Did he get a signing bonus?	121908362	1475258236909	1475258237081	t	84
239914	2566896	Did he get a signing bonus?	Did he get a signing bonus?	121908428	1475258237058	1475258237198	 	32
239914	2566896	Did he get a signing bonus?	Did he get a signing bonus?	121908431	1475258237198	1475258237371	a	65
239914	2566896	Did he get a signing bonus?	Did he get a signing bonus?	121908440	1475258237298	1475258237421	 	32
239914	2566896	Did he get a signing bonus?	Did he get a signing bonus?	121908445	1475258237456	1475258237608	s	83
239914	2566896	Did he get a signing bonus?	Did he get a signing bonus?	121908452	1475258237618	1475258237721	i	73
239914	2566896	Did he get a signing bonus?	Did he get a signing bonus?	121908464	1475258237761	1475258237904	g	71
239914	2566896	Did he get a signing bonus?	Did he get a signing bonus?	121908534	1475258237904	1475258237961	n	78
239914	2566896	Did he get a signing bonus?	Did he get a signing bonus?	121908538	1475258238031	1475258238168	i	73
239914	2566896	Did he get a signing bonus?	Did he get a signing bonus?	121908543	1475258238105	1475258238208	n	78
239914	2566896	Did he get a signing bonus?	Did he get a signing bonus?	121908547	1475258238218	1475258238385	g	71
239914	2566896	Did he get a signing bonus?	Did he get a signing bonus?	121908552	1475258238385	1475258238511	 	32
239914	2566896	Did he get a signing bonus?	Did he get a signing bonus?	121908557	1475258238671	1475258238851	b	66
239914	2566896	Did he get a signing bonus?	Did he get a signing bonus?	121908661	1475258238784	1475258238961	o	79
239914	2566896	Did he get a signing bonus?	Did he get a signing bonus?	121908665	1475258238893	1475258239041	n	78
239914	2566896	Did he get a signing bonus?	Did he get a signing bonus?	121908668	1475258239171	1475258239305	u	85
239914	2566896	Did he get a signing bonus?	Did he get a signing bonus?	121908671	1475258239284	1475258239417	s	83
239914	2566896	Did he get a signing bonus?	Did he get a signing bonus?	121908676	1475258239547	1475258239997	SHIFT	16
239914	2566896	Did he get a signing bonus?	Did he get a signing bonus?	121908674	1475258239817	1475258239937	?	191
239914	2566905	It's this issue's featured eBook.	It's this issue's featured eBook.	121909042	1475258242409	1475258243876	SHIFT	16
239914	2566905	It's this issue's featured eBook.	It's this issue's featured eBook.	121909045	1475258243753	1475258243876	I	73
239914	2566905	It's this issue's featured eBook.	It's this issue's featured eBook.	121909049	1475258243976	1475258244132	t	84
239914	2566905	It's this issue's featured eBook.	It's this issue's featured eBook.	121909053	1475258244442	1475258244565	'	222
239914	2566905	It's this issue's featured eBook.	It's this issue's featured eBook.	121909057	1475258244625	1475258244772	s	83
239914	2566905	It's this issue's featured eBook.	It's this issue's featured eBook.	121909113	1475258244722	1475258244864	 	32
239914	2566905	It's this issue's featured eBook.	It's this issue's featured eBook.	121909118	1475258245084	1475258245232	t	84
239914	2566905	It's this issue's featured eBook.	It's this issue's featured eBook.	121909124	1475258245179	1475258245335	h	72
239914	2566905	It's this issue's featured eBook.	It's this issue's featured eBook.	121909130	1475258245262	1475258245385	i	73
239914	2566905	It's this issue's featured eBook.	It's this issue's featured eBook.	121909137	1475258245405	1475258245545	s	83
239914	2566905	It's this issue's featured eBook.	It's this issue's featured eBook.	121909178	1475258245512	1475258245657	 	32
239914	2566905	It's this issue's featured eBook.	It's this issue's featured eBook.	121909182	1475258245617	1475258245752	i	73
239914	2566905	It's this issue's featured eBook.	It's this issue's featured eBook.	121909189	1475258245742	1475258245848	s	83
239914	2566905	It's this issue's featured eBook.	It's this issue's featured eBook.	121909196	1475258245908	1475258246045	s	83
239914	2566905	It's this issue's featured eBook.	It's this issue's featured eBook.	121909203	1475258246055	1475258246195	u	85
239914	2566905	It's this issue's featured eBook.	It's this issue's featured eBook.	121909285	1475258246185	1475258246328	e	69
239914	2566905	It's this issue's featured eBook.	It's this issue's featured eBook.	121909287	1475258246368	1475258246508	'	222
239914	2566905	It's this issue's featured eBook.	It's this issue's featured eBook.	121909292	1475258246538	1475258246699	s	83
239914	2566905	It's this issue's featured eBook.	It's this issue's featured eBook.	121909299	1475258246689	1475258246808	 	32
239914	2566905	It's this issue's featured eBook.	It's this issue's featured eBook.	121909304	1475258246908	1475258247071	f	70
239914	2566905	It's this issue's featured eBook.	It's this issue's featured eBook.	121909309	1475258247181	1475258247361	e	69
239914	2566905	It's this issue's featured eBook.	It's this issue's featured eBook.	121909355	1475258247302	1475258247465	a	65
239914	2566905	It's this issue's featured eBook.	It's this issue's featured eBook.	121909362	1475258247422	1475258247568	t	84
239914	2566905	It's this issue's featured eBook.	It's this issue's featured eBook.	121909368	1475258247608	1475258247761	u	85
239914	2566905	It's this issue's featured eBook.	It's this issue's featured eBook.	121909373	1475258247734	1475258247881	r	82
239914	2566905	It's this issue's featured eBook.	It's this issue's featured eBook.	121909379	1475258247818	1475258247941	e	69
239914	2566905	It's this issue's featured eBook.	It's this issue's featured eBook.	121909383	1475258248051	1475258248174	d	68
239914	2566905	It's this issue's featured eBook.	It's this issue's featured eBook.	121909470	1475258248206	1475258248334	 	32
239914	2566905	It's this issue's featured eBook.	It's this issue's featured eBook.	121909476	1475258248384	1475258248524	e	69
239914	2566905	It's this issue's featured eBook.	It's this issue's featured eBook.	121909480	1475258248704	1475258249057	SHIFT	16
239914	2566905	It's this issue's featured eBook.	It's this issue's featured eBook.	121909486	1475258248924	1475258249077	B	66
239914	2566905	It's this issue's featured eBook.	It's this issue's featured eBook.	121909492	1475258249177	1475258249237	o	79
239914	2566905	It's this issue's featured eBook.	It's this issue's featured eBook.	121909497	1475258249337	1475258249433	o	79
239914	2566905	It's this issue's featured eBook.	It's this issue's featured eBook.	121909522	1475258249408	1475258249552	k	75
239914	2566905	It's this issue's featured eBook.	It's this issue's featured eBook.	121909524	1475258249722	1475258249871	.	190
239914	2566922	Hopefully this can wait until Monday.	Hopefully this can wait until Monday.	121909774	1475258252386	1475258252713	SHIFT	16
239914	2566922	Hopefully this can wait until Monday.	Hopefully this can wait until Monday.	121909779	1475258252640	1475258252743	H	72
239914	2566922	Hopefully this can wait until Monday.	Hopefully this can wait until Monday.	121909784	1475258252863	1475258253049	o	79
239914	2566922	Hopefully this can wait until Monday.	Hopefully this can wait until Monday.	121909788	1475258252949	1475258253089	p	80
239914	2566922	Hopefully this can wait until Monday.	Hopefully this can wait until Monday.	121909794	1475258253099	1475258253233	e	69
239914	2566922	Hopefully this can wait until Monday.	Hopefully this can wait until Monday.	121909798	1475258253313	1475258253453	f	70
239914	2566922	Hopefully this can wait until Monday.	Hopefully this can wait until Monday.	121909819	1475258253406	1475258253526	u	85
239914	2566922	Hopefully this can wait until Monday.	Hopefully this can wait until Monday.	121909822	1475258253473	1475258253586	l	76
239914	2566922	Hopefully this can wait until Monday.	Hopefully this can wait until Monday.	121909826	1475258253657	1475258253792	l	76
239914	2566922	Hopefully this can wait until Monday.	Hopefully this can wait until Monday.	121909831	1475258253812	1475258253902	y	89
239914	2566922	Hopefully this can wait until Monday.	Hopefully this can wait until Monday.	121909836	1475258253857	1475258254012	 	32
239914	2566922	Hopefully this can wait until Monday.	Hopefully this can wait until Monday.	121909842	1475258254043	1475258254185	t	84
239914	2566922	Hopefully this can wait until Monday.	Hopefully this can wait until Monday.	121909880	1475258254136	1475258254329	h	72
239914	2566922	Hopefully this can wait until Monday.	Hopefully this can wait until Monday.	121909881	1475258254277	1475258254420	i	73
239914	2566922	Hopefully this can wait until Monday.	Hopefully this can wait until Monday.	121909884	1475258254440	1475258254601	s	83
239914	2566922	Hopefully this can wait until Monday.	Hopefully this can wait until Monday.	121909887	1475258254565	1475258254691	 	32
239914	2566922	Hopefully this can wait until Monday.	Hopefully this can wait until Monday.	121909890	1475258254971	1475258255129	c	67
239914	2566922	Hopefully this can wait until Monday.	Hopefully this can wait until Monday.	121909936	1475258255065	1475258255221	a	65
239914	2566922	Hopefully this can wait until Monday.	Hopefully this can wait until Monday.	121909939	1475258255211	1475258255375	n	78
239914	2566922	Hopefully this can wait until Monday.	Hopefully this can wait until Monday.	121909945	1475258255455	1475258255582	 	32
239914	2566922	Hopefully this can wait until Monday.	Hopefully this can wait until Monday.	121909951	1475258255592	1475258255782	w	87
239914	2566922	Hopefully this can wait until Monday.	Hopefully this can wait until Monday.	121909957	1475258255705	1475258255862	a	65
239914	2566922	Hopefully this can wait until Monday.	Hopefully this can wait until Monday.	121910037	1475258255852	1475258255942	i	73
239914	2566922	Hopefully this can wait until Monday.	Hopefully this can wait until Monday.	121910041	1475258255982	1475258256085	t	84
239914	2566922	Hopefully this can wait until Monday.	Hopefully this can wait until Monday.	121910045	1475258256648	1475258256788	 	32
239914	2566922	Hopefully this can wait until Monday.	Hopefully this can wait until Monday.	121910049	1475258256848	1475258256951	u	85
239914	2566922	Hopefully this can wait until Monday.	Hopefully this can wait until Monday.	121910053	1475258257081	1475258257168	n	78
239914	2566922	Hopefully this can wait until Monday.	Hopefully this can wait until Monday.	121910111	1475258257168	1475258257281	t	84
239914	2566922	Hopefully this can wait until Monday.	Hopefully this can wait until Monday.	121910114	1475258257271	1475258257417	i	73
239914	2566922	Hopefully this can wait until Monday.	Hopefully this can wait until Monday.	121910119	1475258257344	1475258257545	l	76
239914	2566922	Hopefully this can wait until Monday.	Hopefully this can wait until Monday.	121910127	1475258257503	1475258257618	 	32
239914	2566922	Hopefully this can wait until Monday.	Hopefully this can wait until Monday.	121910134	1475258257720	1475258257901	SHIFT	16
239914	2566922	Hopefully this can wait until Monday.	Hopefully this can wait until Monday.	121910141	1475258257800	1475258257911	M	77
239914	2566922	Hopefully this can wait until Monday.	Hopefully this can wait until Monday.	121910148	1475258258001	1475258258148	o	79
239914	2566922	Hopefully this can wait until Monday.	Hopefully this can wait until Monday.	121910183	1475258258067	1475258258193	n	78
239914	2566922	Hopefully this can wait until Monday.	Hopefully this can wait until Monday.	121910189	1475258258170	1475258258361	d	68
239914	2566922	Hopefully this can wait until Monday.	Hopefully this can wait until Monday.	121910194	1475258258308	1475258258457	a	65
239914	2566922	Hopefully this can wait until Monday.	Hopefully this can wait until Monday.	121910198	1475258258401	1475258258537	y	89
239914	2566922	Hopefully this can wait until Monday.	Hopefully this can wait until Monday.	121910202	1475258258628	1475258258804	.	190
239914	2566932	We have lots of paper stuff.	We have lots of paper stuff.	121910339	1475258261280	1475258261603	SHIFT	16
239914	2566932	We have lots of paper stuff.	We have lots of paper stuff.	121910336	1475258261470	1475258261573	W	87
239914	2566932	We have lots of paper stuff.	We have lots of paper stuff.	121910342	1475258261703	1475258261816	e	69
239914	2566932	We have lots of paper stuff.	We have lots of paper stuff.	121910344	1475258261826	1475258261953	 	32
239914	2566932	We have lots of paper stuff.	We have lots of paper stuff.	121910346	1475258262003	1475258262169	h	72
239914	2566932	We have lots of paper stuff.	We have lots of paper stuff.	121910375	1475258262080	1475258262233	a	65
239914	2566932	We have lots of paper stuff.	We have lots of paper stuff.	121910378	1475258262210	1475258262336	v	86
239914	2566932	We have lots of paper stuff.	We have lots of paper stuff.	121910382	1475258262376	1475258262505	e	69
239914	2566932	We have lots of paper stuff.	We have lots of paper stuff.	121910385	1475258262473	1475258262639	 	32
239914	2566932	We have lots of paper stuff.	We have lots of paper stuff.	121910389	1475258262578	1475258262699	l	76
239914	2566932	We have lots of paper stuff.	We have lots of paper stuff.	121910394	1475258262789	1475258262933	o	79
239914	2566932	We have lots of paper stuff.	We have lots of paper stuff.	121910416	1475258262873	1475258263005	t	84
239914	2566932	We have lots of paper stuff.	We have lots of paper stuff.	121910422	1475258263065	1475258263241	s	83
239914	2566932	We have lots of paper stuff.	We have lots of paper stuff.	121910430	1475258263209	1475258263369	 	32
239914	2566932	We have lots of paper stuff.	We have lots of paper stuff.	121910438	1475258263312	1475258263456	o	79
239914	2566932	We have lots of paper stuff.	We have lots of paper stuff.	121910442	1475258263409	1475258263545	f	70
239914	2566932	We have lots of paper stuff.	We have lots of paper stuff.	121910490	1475258263516	1475258263654	 	32
239914	2566932	We have lots of paper stuff.	We have lots of paper stuff.	121910491	1475258263684	1475258263849	p	80
239914	2566932	We have lots of paper stuff.	We have lots of paper stuff.	121910493	1475258263803	1475258263969	a	65
239914	2566932	We have lots of paper stuff.	We have lots of paper stuff.	121910495	1475258263936	1475258264072	p	80
239914	2566932	We have lots of paper stuff.	We have lots of paper stuff.	121910498	1475258264102	1475258264269	e	69
239914	2566932	We have lots of paper stuff.	We have lots of paper stuff.	121910533	1475258264179	1475258264321	r	82
239914	2566932	We have lots of paper stuff.	We have lots of paper stuff.	121910539	1475258264341	1475258264482	 	32
239914	2566932	We have lots of paper stuff.	We have lots of paper stuff.	121910544	1475258264432	1475258264633	s	83
239914	2566932	We have lots of paper stuff.	We have lots of paper stuff.	121910549	1475258264582	1475258264729	t	84
239914	2566932	We have lots of paper stuff.	We have lots of paper stuff.	121910552	1475258264705	1475258264809	u	85
239914	2566932	We have lots of paper stuff.	We have lots of paper stuff.	121910555	1475258264849	1475258264929	f	70
239914	2566932	We have lots of paper stuff.	We have lots of paper stuff.	121910567	1475258265011	1475258265145	f	70
239914	2566932	We have lots of paper stuff.	We have lots of paper stuff.	121910571	1475258265125	1475258265336	.	190
239914	2566942	All our demographics indicate that is a family audience.	All our demographics indicate that is a family audience.	121910936	1475258270087	1475258270337	SHIFT	16
239914	2566942	All our demographics indicate that is a family audience.	All our demographics indicate that is a family audience.	121910931	1475258270183	1475258270337	A	65
239914	2566942	All our demographics indicate that is a family audience.	All our demographics indicate that is a family audience.	121910937	1475258270397	1475258270497	l	76
239914	2566942	All our demographics indicate that is a family audience.	All our demographics indicate that is a family audience.	121910938	1475258270577	1475258270721	l	76
239914	2566942	All our demographics indicate that is a family audience.	All our demographics indicate that is a family audience.	121910939	1475258270680	1475258270807	 	32
239914	2566942	All our demographics indicate that is a family audience.	All our demographics indicate that is a family audience.	121910940	1475258270897	1475258271053	o	79
239914	2566942	All our demographics indicate that is a family audience.	All our demographics indicate that is a family audience.	121910973	1475258270966	1475258271095	u	85
239914	2566942	All our demographics indicate that is a family audience.	All our demographics indicate that is a family audience.	121910977	1475258271105	1475258271270	r	82
239914	2566942	All our demographics indicate that is a family audience.	All our demographics indicate that is a family audience.	121910981	1475258271232	1475258271360	 	32
239914	2566942	All our demographics indicate that is a family audience.	All our demographics indicate that is a family audience.	121910984	1475258271380	1475258271480	d	68
239914	2566942	All our demographics indicate that is a family audience.	All our demographics indicate that is a family audience.	121910989	1475258271570	1475258271663	e	69
239914	2566942	All our demographics indicate that is a family audience.	All our demographics indicate that is a family audience.	121910995	1475258271723	1475258271846	m	77
239914	2566942	All our demographics indicate that is a family audience.	All our demographics indicate that is a family audience.	121911124	1475258271898	1475258272043	o	79
239914	2566942	All our demographics indicate that is a family audience.	All our demographics indicate that is a family audience.	121911131	1475258272063	1475258272083	c	67
239914	2566942	All our demographics indicate that is a family audience.	All our demographics indicate that is a family audience.	121911138	1475258272253	1475258272402	g	71
239914	2566942	All our demographics indicate that is a family audience.	All our demographics indicate that is a family audience.	121911143	1475258272793	1475258272856	BKSP	8
239914	2566942	All our demographics indicate that is a family audience.	All our demographics indicate that is a family audience.	121911146	1475258272946	1475258273042	BKSP	8
239914	2566942	All our demographics indicate that is a family audience.	All our demographics indicate that is a family audience.	121911152	1475258273032	1475258273149	g	71
239914	2566942	All our demographics indicate that is a family audience.	All our demographics indicate that is a family audience.	121911158	1475258273249	1475258273469	r	82
239914	2566942	All our demographics indicate that is a family audience.	All our demographics indicate that is a family audience.	121911219	1475258273356	1475258273529	a	65
239914	2566942	All our demographics indicate that is a family audience.	All our demographics indicate that is a family audience.	121911222	1475258273809	1475258273982	p	80
239914	2566942	All our demographics indicate that is a family audience.	All our demographics indicate that is a family audience.	121911228	1475258274002	1475258274202	h	72
239914	2566942	All our demographics indicate that is a family audience.	All our demographics indicate that is a family audience.	121911234	1475258274162	1475258274322	i	73
239914	2566942	All our demographics indicate that is a family audience.	All our demographics indicate that is a family audience.	121911238	1475258274312	1475258274449	c	67
239914	2566942	All our demographics indicate that is a family audience.	All our demographics indicate that is a family audience.	121911243	1475258274489	1475258274655	s	83
239914	2566942	All our demographics indicate that is a family audience.	All our demographics indicate that is a family audience.	121911298	1475258274645	1475258274765	 	32
239914	2566942	All our demographics indicate that is a family audience.	All our demographics indicate that is a family audience.	121911301	1475258274775	1475258274935	i	73
239914	2566942	All our demographics indicate that is a family audience.	All our demographics indicate that is a family audience.	121911305	1475258274855	1475258274985	n	78
239914	2566942	All our demographics indicate that is a family audience.	All our demographics indicate that is a family audience.	121911309	1475258275205	1475258275342	d	68
239914	2566942	All our demographics indicate that is a family audience.	All our demographics indicate that is a family audience.	121911312	1475258275352	1475258275482	i	73
239914	2566942	All our demographics indicate that is a family audience.	All our demographics indicate that is a family audience.	121911314	1475258275542	1475258275712	c	67
239914	2566942	All our demographics indicate that is a family audience.	All our demographics indicate that is a family audience.	121911331	1475258275754	1475258275912	a	65
239914	2566942	All our demographics indicate that is a family audience.	All our demographics indicate that is a family audience.	121911334	1475258275871	1475258276045	t	84
239914	2566942	All our demographics indicate that is a family audience.	All our demographics indicate that is a family audience.	121911338	1475258276008	1475258276165	e	69
239914	2566942	All our demographics indicate that is a family audience.	All our demographics indicate that is a family audience.	121911345	1475258276175	1475258276295	 	32
239914	2566942	All our demographics indicate that is a family audience.	All our demographics indicate that is a family audience.	121911351	1475258276295	1475258276432	t	84
239914	2566942	All our demographics indicate that is a family audience.	All our demographics indicate that is a family audience.	121911388	1475258276385	1475258276535	h	72
239914	2566942	All our demographics indicate that is a family audience.	All our demographics indicate that is a family audience.	121911391	1475258276525	1475258276675	a	65
239914	2566942	All our demographics indicate that is a family audience.	All our demographics indicate that is a family audience.	121911392	1475258276585	1475258276751	t	84
239914	2566942	All our demographics indicate that is a family audience.	All our demographics indicate that is a family audience.	121911394	1475258276705	1475258276880	 	32
239914	2566942	All our demographics indicate that is a family audience.	All our demographics indicate that is a family audience.	121911397	1475258276841	1475258276968	i	73
239914	2566942	All our demographics indicate that is a family audience.	All our demographics indicate that is a family audience.	121911445	1475258276944	1475258277101	s	83
239914	2566942	All our demographics indicate that is a family audience.	All our demographics indicate that is a family audience.	121911449	1475258277071	1475258277184	 	32
239914	2566942	All our demographics indicate that is a family audience.	All our demographics indicate that is a family audience.	121911453	1475258277194	1475258277344	a	65
239914	2566942	All our demographics indicate that is a family audience.	All our demographics indicate that is a family audience.	121911458	1475258277304	1475258277441	 	32
239914	2566942	All our demographics indicate that is a family audience.	All our demographics indicate that is a family audience.	121911463	1475258277501	1475258277652	f	70
239914	2566942	All our demographics indicate that is a family audience.	All our demographics indicate that is a family audience.	121911468	1475258277672	1475258277840	a	65
239914	2566942	All our demographics indicate that is a family audience.	All our demographics indicate that is a family audience.	121911527	1475258277807	1475258277923	m	77
239914	2566942	All our demographics indicate that is a family audience.	All our demographics indicate that is a family audience.	121911530	1475258278023	1475258278177	i	73
239914	2566942	All our demographics indicate that is a family audience.	All our demographics indicate that is a family audience.	121911536	1475258278108	1475258278253	l	76
239914	2566942	All our demographics indicate that is a family audience.	All our demographics indicate that is a family audience.	121911545	1475258278303	1475258278434	y	89
239914	2566942	All our demographics indicate that is a family audience.	All our demographics indicate that is a family audience.	121911552	1475258278391	1475258278534	 	32
239914	2566942	All our demographics indicate that is a family audience.	All our demographics indicate that is a family audience.	121911559	1475258278594	1475258278754	a	65
239914	2566942	All our demographics indicate that is a family audience.	All our demographics indicate that is a family audience.	121911619	1475258278744	1475258278880	u	85
239914	2566942	All our demographics indicate that is a family audience.	All our demographics indicate that is a family audience.	121911621	1475258278900	1475258279054	d	68
239914	2566942	All our demographics indicate that is a family audience.	All our demographics indicate that is a family audience.	121911623	1475258279074	1475258279166	i	73
239914	2566942	All our demographics indicate that is a family audience.	All our demographics indicate that is a family audience.	121911624	1475258279256	1475258279360	e	69
239914	2566942	All our demographics indicate that is a family audience.	All our demographics indicate that is a family audience.	121911625	1475258279360	1475258279510	n	78
239914	2566942	All our demographics indicate that is a family audience.	All our demographics indicate that is a family audience.	121911627	1475258279550	1475258279664	c	67
239914	2566942	All our demographics indicate that is a family audience.	All our demographics indicate that is a family audience.	121911649	1475258279786	1475258279911	e	69
239914	2566961	This upgrade may take up to 2 hours.	This upgrade may take up to 2 hours.	121911868	1475258281794	1475258282080	SHIFT	16
239914	2566961	This upgrade may take up to 2 hours.	This upgrade may take up to 2 hours.	121911871	1475258281944	1475258282100	T	84
239914	2566961	This upgrade may take up to 2 hours.	This upgrade may take up to 2 hours.	121911876	1475258282170	1475258282242	h	72
239914	2566961	This upgrade may take up to 2 hours.	This upgrade may take up to 2 hours.	121911882	1475258282532	1475258282652	i	73
239914	2566961	This upgrade may take up to 2 hours.	This upgrade may take up to 2 hours.	121911887	1475258282672	1475258282819	s	83
239914	2566961	This upgrade may take up to 2 hours.	This upgrade may take up to 2 hours.	121911967	1475258282809	1475258282955	 	32
239914	2566961	This upgrade may take up to 2 hours.	This upgrade may take up to 2 hours.	121911978	1475258282985	1475258283176	u	85
239914	2566961	This upgrade may take up to 2 hours.	This upgrade may take up to 2 hours.	121911990	1475258283122	1475258283255	p	80
239914	2566961	This upgrade may take up to 2 hours.	This upgrade may take up to 2 hours.	121912001	1475258283415	1475258283536	g	71
239914	2566961	This upgrade may take up to 2 hours.	This upgrade may take up to 2 hours.	121912011	1475258283656	1475258283816	r	82
239914	2566961	This upgrade may take up to 2 hours.	This upgrade may take up to 2 hours.	121912056	1475258283719	1475258283857	a	65
239914	2566961	This upgrade may take up to 2 hours.	This upgrade may take up to 2 hours.	121912063	1475258283927	1475258284026	d	68
239914	2566961	This upgrade may take up to 2 hours.	This upgrade may take up to 2 hours.	121912071	1475258284126	1475258284262	e	69
239914	2566961	This upgrade may take up to 2 hours.	This upgrade may take up to 2 hours.	121912083	1475258284252	1475258284379	 	32
239914	2566961	This upgrade may take up to 2 hours.	This upgrade may take up to 2 hours.	121912091	1475258284491	1475258284575	a	65
239914	2566961	This upgrade may take up to 2 hours.	This upgrade may take up to 2 hours.	121912217	1475258284520	1475258284737	m	77
239914	2566961	This upgrade may take up to 2 hours.	This upgrade may take up to 2 hours.	121912221	1475258285168	1475258285231	BKSP	8
239914	2566961	This upgrade may take up to 2 hours.	This upgrade may take up to 2 hours.	121912225	1475258285331	1475258285375	BKSP	8
239914	2566961	This upgrade may take up to 2 hours.	This upgrade may take up to 2 hours.	121912229	1475258285535	1475258285648	m	77
239914	2566961	This upgrade may take up to 2 hours.	This upgrade may take up to 2 hours.	121912236	1475258285622	1475258285771	a	65
239914	2566961	This upgrade may take up to 2 hours.	This upgrade may take up to 2 hours.	121912240	1475258285781	1475258285898	y	89
239914	2566961	This upgrade may take up to 2 hours.	This upgrade may take up to 2 hours.	121912246	1475258285855	1475258285998	 	32
239914	2566961	This upgrade may take up to 2 hours.	This upgrade may take up to 2 hours.	121912251	1475258286038	1475258286228	t	84
239914	2566961	This upgrade may take up to 2 hours.	This upgrade may take up to 2 hours.	121912271	1475258286152	1475258286290	a	65
239914	2566961	This upgrade may take up to 2 hours.	This upgrade may take up to 2 hours.	121912273	1475258286290	1475258286411	k	75
239914	2566961	This upgrade may take up to 2 hours.	This upgrade may take up to 2 hours.	121912276	1475258286421	1475258286560	e	69
239914	2566961	This upgrade may take up to 2 hours.	This upgrade may take up to 2 hours.	121912280	1475258286524	1475258286672	 	32
239914	2566961	This upgrade may take up to 2 hours.	This upgrade may take up to 2 hours.	121912282	1475258286662	1475258286870	u	85
239914	2566961	This upgrade may take up to 2 hours.	This upgrade may take up to 2 hours.	121912334	1475258286808	1475258286976	p	80
239914	2566961	This upgrade may take up to 2 hours.	This upgrade may take up to 2 hours.	121912336	1475258286952	1475258287101	 	32
239914	2566961	This upgrade may take up to 2 hours.	This upgrade may take up to 2 hours.	121912341	1475258287111	1475258287258	t	84
239914	2566961	This upgrade may take up to 2 hours.	This upgrade may take up to 2 hours.	121912343	1475258287208	1475258287364	o	79
239914	2566961	This upgrade may take up to 2 hours.	This upgrade may take up to 2 hours.	121912350	1475258287308	1475258287414	 	32
239914	2566961	This upgrade may take up to 2 hours.	This upgrade may take up to 2 hours.	121912355	1475258287843	1475258288044	2	50
239914	2566961	This upgrade may take up to 2 hours.	This upgrade may take up to 2 hours.	121912411	1475258288176	1475258288310	 	32
239914	2566961	This upgrade may take up to 2 hours.	This upgrade may take up to 2 hours.	121912415	1475258288400	1475258288510	h	72
239914	2566961	This upgrade may take up to 2 hours.	This upgrade may take up to 2 hours.	121912419	1475258288530	1475258288687	o	79
239914	2566961	This upgrade may take up to 2 hours.	This upgrade may take up to 2 hours.	121912422	1475258288614	1475258288767	u	85
239914	2566961	This upgrade may take up to 2 hours.	This upgrade may take up to 2 hours.	121912426	1475258288807	1475258289034	r	82
239914	2566961	This upgrade may take up to 2 hours.	This upgrade may take up to 2 hours.	121912439	1475258288967	1475258289116	s	83
239914	2566979	Count me out for this round.	Count me out for this round.	121912641	1475258290940	1475258291223	SHIFT	16
239914	2566979	Count me out for this round.	Count me out for this round.	121912646	1475258291160	1475258291283	C	67
239914	2566979	Count me out for this round.	Count me out for this round.	121912650	1475258291343	1475258291513	o	79
239914	2566979	Count me out for this round.	Count me out for this round.	121912656	1475258291408	1475258291533	u	85
239914	2566979	Count me out for this round.	Count me out for this round.	121912659	1475258291613	1475258291766	t	84
239914	2566979	Count me out for this round.	Count me out for this round.	121912737	1475258291705	1475258291848	n	78
239914	2566979	Count me out for this round.	Count me out for this round.	121912743	1475258292008	1475258292082	BKSP	8
239914	2566979	Count me out for this round.	Count me out for this round.	121912748	1475258292172	1475258292233	BKSP	8
239914	2566979	Count me out for this round.	Count me out for this round.	121912753	1475258292364	1475258292466	n	78
239914	2566979	Count me out for this round.	Count me out for this round.	121912759	1475258292456	1475258292602	t	84
239914	2566979	Count me out for this round.	Count me out for this round.	121912765	1475258292592	1475258292719	 	32
239914	2566979	Count me out for this round.	Count me out for this round.	121912770	1475258292759	1475258292896	m	77
239914	2566979	Count me out for this round.	Count me out for this round.	121912775	1475258293036	1475258293159	o	79
239914	2566979	Count me out for this round.	Count me out for this round.	121912810	1475258293383	1475258293439	BKSP	8
239914	2566979	Count me out for this round.	Count me out for this round.	121912811	1475258293479	1475258293595	e	69
239914	2566979	Count me out for this round.	Count me out for this round.	121912814	1475258293615	1475258293745	 	32
239914	2566979	Count me out for this round.	Count me out for this round.	121912817	1475258293795	1475258293953	o	79
239914	2566979	Count me out for this round.	Count me out for this round.	121912820	1475258293856	1475258293993	u	85
239914	2566979	Count me out for this round.	Count me out for this round.	121912824	1475258294023	1475258294128	t	84
239914	2566979	Count me out for this round.	Count me out for this round.	121912853	1475258294200	1475258294345	 	32
239914	2566979	Count me out for this round.	Count me out for this round.	121912858	1475258294385	1475258294488	f	70
239914	2566979	Count me out for this round.	Count me out for this round.	121912862	1475258294488	1475258294605	o	79
239914	2566979	Count me out for this round.	Count me out for this round.	121912865	1475258294595	1475258294719	r	82
239914	2566979	Count me out for this round.	Count me out for this round.	121912932	1475258294719	1475258294852	 	32
239914	2566979	Count me out for this round.	Count me out for this round.	121912936	1475258294882	1475258295031	h	72
239914	2566979	Count me out for this round.	Count me out for this round.	121912940	1475258294975	1475258295141	t	84
239914	2566979	Count me out for this round.	Count me out for this round.	121912944	1475258295585	1475258295654	BKSP	8
239914	2566979	Count me out for this round.	Count me out for this round.	121912951	1475258295764	1475258295792	BKSP	8
239914	2566979	Count me out for this round.	Count me out for this round.	121912962	1475258295824	1475258295941	t	84
239914	2566979	Count me out for this round.	Count me out for this round.	121912972	1475258295951	1475258296108	h	72
239914	2566979	Count me out for this round.	Count me out for this round.	121913015	1475258296041	1475258296178	i	73
239914	2566979	Count me out for this round.	Count me out for this round.	121913023	1475258296188	1475258296360	s	83
239914	2566979	Count me out for this round.	Count me out for this round.	121913028	1475258296328	1475258296451	 	32
239914	2566979	Count me out for this round.	Count me out for this round.	121913036	1475258296521	1475258296688	r	82
239914	2566979	Count me out for this round.	Count me out for this round.	121913086	1475258296591	1475258296760	o	79
239914	2566979	Count me out for this round.	Count me out for this round.	121913088	1475258296644	1475258296760	u	85
239914	2566979	Count me out for this round.	Count me out for this round.	121913089	1475258296871	1475258296994	n	78
239914	2566979	Count me out for this round.	Count me out for this round.	121913092	1475258296961	1475258297104	d	68
239914	2566992	Our advantages have been brought into fuller play.	Our advantages have been brought into fuller play.	121913411	1475258300650	1475258300936	SHIFT	16
239914	2566992	Our advantages have been brought into fuller play.	Our advantages have been brought into fuller play.	121913416	1475258300913	1475258301006	O	79
239914	2566992	Our advantages have been brought into fuller play.	Our advantages have been brought into fuller play.	121913423	1475258301096	1475258301223	u	85
239914	2566992	Our advantages have been brought into fuller play.	Our advantages have been brought into fuller play.	121913428	1475258301263	1475258301424	r	82
239914	2566992	Our advantages have been brought into fuller play.	Our advantages have been brought into fuller play.	121913434	1475258301400	1475258301523	 	32
239914	2566992	Our advantages have been brought into fuller play.	Our advantages have been brought into fuller play.	121913442	1475258301623	1475258301872	a	65
239914	2566992	Our advantages have been brought into fuller play.	Our advantages have been brought into fuller play.	121913529	1475258301756	1475258301904	d	68
239914	2566992	Our advantages have been brought into fuller play.	Our advantages have been brought into fuller play.	121913536	1475258302035	1475258302226	v	86
239914	2566992	Our advantages have been brought into fuller play.	Our advantages have been brought into fuller play.	121913544	1475258302166	1475258302328	a	65
239914	2566992	Our advantages have been brought into fuller play.	Our advantages have been brought into fuller play.	121913549	1475258302296	1475258302452	n	78
239914	2566992	Our advantages have been brought into fuller play.	Our advantages have been brought into fuller play.	121913555	1475258302502	1475258302652	g	71
239914	2566992	Our advantages have been brought into fuller play.	Our advantages have been brought into fuller play.	121913561	1475258302952	1475258303039	BKSP	8
239914	2566992	Our advantages have been brought into fuller play.	Our advantages have been brought into fuller play.	121913569	1475258303039	1475258303232	t	84
239914	2566992	Our advantages have been brought into fuller play.	Our advantages have been brought into fuller play.	121913653	1475258303202	1475258303355	a	65
239914	2566992	Our advantages have been brought into fuller play.	Our advantages have been brought into fuller play.	121913658	1475258303475	1475258303655	g	71
239914	2566992	Our advantages have been brought into fuller play.	Our advantages have been brought into fuller play.	121913664	1475258303775	1475258303958	e	69
239914	2566992	Our advantages have been brought into fuller play.	Our advantages have been brought into fuller play.	121913670	1475258303872	1475258304032	s	83
239914	2566992	Our advantages have been brought into fuller play.	Our advantages have been brought into fuller play.	121913678	1475258304008	1475258304138	 	32
239914	2566992	Our advantages have been brought into fuller play.	Our advantages have been brought into fuller play.	121913683	1475258304168	1475258304325	h	72
239914	2566992	Our advantages have been brought into fuller play.	Our advantages have been brought into fuller play.	121913756	1475258304295	1475258304448	a	65
239914	2566992	Our advantages have been brought into fuller play.	Our advantages have been brought into fuller play.	121913760	1475258304417	1475258304568	v	86
239914	2566992	Our advantages have been brought into fuller play.	Our advantages have been brought into fuller play.	121913763	1475258304608	1475258304736	e	69
239914	2566992	Our advantages have been brought into fuller play.	Our advantages have been brought into fuller play.	121913768	1475258304702	1475258304838	 	32
239914	2566992	Our advantages have been brought into fuller play.	Our advantages have been brought into fuller play.	121913770	1475258304864	1475258304968	g	71
239914	2566992	Our advantages have been brought into fuller play.	Our advantages have been brought into fuller play.	121913777	1475258305224	1475258305304	BKSP	8
239914	2566992	Our advantages have been brought into fuller play.	Our advantages have been brought into fuller play.	121913843	1475258305278	1475258305405	b	66
239914	2566992	Our advantages have been brought into fuller play.	Our advantages have been brought into fuller play.	121913847	1475258305505	1475258305582	e	69
239914	2566992	Our advantages have been brought into fuller play.	Our advantages have been brought into fuller play.	121913854	1475258305662	1475258305800	e	69
239914	2566992	Our advantages have been brought into fuller play.	Our advantages have been brought into fuller play.	121913859	1475258305761	1475258305914	n	78
239914	2566992	Our advantages have been brought into fuller play.	Our advantages have been brought into fuller play.	121913863	1475258305984	1475258306111	 	32
239914	2566992	Our advantages have been brought into fuller play.	Our advantages have been brought into fuller play.	121913868	1475258306237	1475258306384	b	66
239914	2566992	Our advantages have been brought into fuller play.	Our advantages have been brought into fuller play.	121913897	1475258306495	1475258306632	r	82
239914	2566992	Our advantages have been brought into fuller play.	Our advantages have been brought into fuller play.	121913902	1475258306607	1475258306751	o	79
239914	2566992	Our advantages have been brought into fuller play.	Our advantages have been brought into fuller play.	121913907	1475258306640	1475258306771	u	85
239914	2566992	Our advantages have been brought into fuller play.	Our advantages have been brought into fuller play.	121913912	1475258306792	1475258306914	g	71
239914	2566992	Our advantages have been brought into fuller play.	Our advantages have been brought into fuller play.	121913968	1475258306904	1475258307027	h	72
239914	2566992	Our advantages have been brought into fuller play.	Our advantages have been brought into fuller play.	121913975	1475258307007	1475258307168	t	84
239914	2566992	Our advantages have been brought into fuller play.	Our advantages have been brought into fuller play.	121913980	1475258307147	1475258307312	 	32
239914	2566992	Our advantages have been brought into fuller play.	Our advantages have been brought into fuller play.	121913985	1475258307271	1475258307414	i	73
239914	2566992	Our advantages have been brought into fuller play.	Our advantages have been brought into fuller play.	121913993	1475258307335	1475258307504	n	78
239914	2566992	Our advantages have been brought into fuller play.	Our advantages have been brought into fuller play.	121913999	1475258307504	1475258307648	t	84
239914	2566992	Our advantages have been brought into fuller play.	Our advantages have been brought into fuller play.	121914039	1475258307607	1475258307771	o	79
239914	2566992	Our advantages have been brought into fuller play.	Our advantages have been brought into fuller play.	121914042	1475258307712	1475258307851	 	32
239914	2566992	Our advantages have been brought into fuller play.	Our advantages have been brought into fuller play.	121914046	1475258307861	1475258308016	f	70
239914	2566992	Our advantages have been brought into fuller play.	Our advantages have been brought into fuller play.	121914051	1475258307987	1475258308107	u	85
239914	2566992	Our advantages have been brought into fuller play.	Our advantages have been brought into fuller play.	121914053	1475258308054	1475258308167	l	76
239914	2566992	Our advantages have been brought into fuller play.	Our advantages have been brought into fuller play.	121914058	1475258308237	1475258308343	l	76
239914	2566992	Our advantages have been brought into fuller play.	Our advantages have been brought into fuller play.	121914113	1475258308434	1475258308617	e	69
239914	2566992	Our advantages have been brought into fuller play.	Our advantages have been brought into fuller play.	121914115	1475258308520	1475258308677	r	82
239914	2566992	Our advantages have been brought into fuller play.	Our advantages have been brought into fuller play.	121914120	1475258308667	1475258308829	 	32
239914	2566992	Our advantages have been brought into fuller play.	Our advantages have been brought into fuller play.	121914126	1475258308859	1475258308970	p	80
239914	2566992	Our advantages have been brought into fuller play.	Our advantages have been brought into fuller play.	121914129	1475258309050	1475258309177	l	76
239914	2566992	Our advantages have been brought into fuller play.	Our advantages have been brought into fuller play.	121914157	1475258309167	1475258309312	a	65
239914	2566992	Our advantages have been brought into fuller play.	Our advantages have been brought into fuller play.	121914162	1475258309287	1475258309373	y	89
239914	2566992	Our advantages have been brought into fuller play.	Our advantages have been brought into fuller play.	121914166	1475258309503	1475258309606	.	190
239914	2567019	He is one of three Eagles who will be held out of the game.	He is one of three Eagles who will be held out of the game.	121914510	1475258313513	1475258313800	SHIFT	16
239914	2567019	He is one of three Eagles who will be held out of the game.	He is one of three Eagles who will be held out of the game.	121914513	1475258313752	1475258313875	H	72
239914	2567019	He is one of three Eagles who will be held out of the game.	He is one of three Eagles who will be held out of the game.	121914518	1475258313935	1475258314062	e	69
239914	2567019	He is one of three Eagles who will be held out of the game.	He is one of three Eagles who will be held out of the game.	121914526	1475258314062	1475258314215	 	32
239914	2567019	He is one of three Eagles who will be held out of the game.	He is one of three Eagles who will be held out of the game.	121914531	1475258314215	1475258314321	i	73
239914	2567019	He is one of three Eagles who will be held out of the game.	He is one of three Eagles who will be held out of the game.	121914540	1475258314341	1475258314491	s	83
239914	2567019	He is one of three Eagles who will be held out of the game.	He is one of three Eagles who will be held out of the game.	121914564	1475258314431	1475258314603	 	32
239914	2567019	He is one of three Eagles who will be held out of the game.	He is one of three Eagles who will be held out of the game.	121914570	1475258314593	1475258314800	o	79
239914	2567019	He is one of three Eagles who will be held out of the game.	He is one of three Eagles who will be held out of the game.	121914577	1475258314678	1475258314800	n	78
239914	2567019	He is one of three Eagles who will be held out of the game.	He is one of three Eagles who will be held out of the game.	121914584	1475258314790	1475258314881	e	69
239914	2567019	He is one of three Eagles who will be held out of the game.	He is one of three Eagles who will be held out of the game.	121914592	1475258314891	1475258315008	 	32
239914	2567019	He is one of three Eagles who will be held out of the game.	He is one of three Eagles who will be held out of the game.	121914650	1475258314978	1475258315128	o	79
239914	2567019	He is one of three Eagles who will be held out of the game.	He is one of three Eagles who will be held out of the game.	121914655	1475258315091	1475258315195	f	70
239914	2567019	He is one of three Eagles who will be held out of the game.	He is one of three Eagles who will be held out of the game.	121914660	1475258315185	1475258315311	 	32
239914	2567019	He is one of three Eagles who will be held out of the game.	He is one of three Eagles who will be held out of the game.	121914665	1475258315321	1475258315496	t	84
239914	2567019	He is one of three Eagles who will be held out of the game.	He is one of three Eagles who will be held out of the game.	121914671	1475258315536	1475258315671	h	72
239914	2567019	He is one of three Eagles who will be held out of the game.	He is one of three Eagles who will be held out of the game.	121914677	1475258315691	1475258315848	r	82
239914	2567019	He is one of three Eagles who will be held out of the game.	He is one of three Eagles who will be held out of the game.	121914748	1475258315784	1475258315878	e	69
239914	2567019	He is one of three Eagles who will be held out of the game.	He is one of three Eagles who will be held out of the game.	121914751	1475258315948	1475258316078	e	69
239914	2567019	He is one of three Eagles who will be held out of the game.	He is one of three Eagles who will be held out of the game.	121914754	1475258316088	1475258316237	 	32
239914	2567019	He is one of three Eagles who will be held out of the game.	He is one of three Eagles who will be held out of the game.	121914757	1475258316197	1475258316411	SHIFT	16
239914	2567019	He is one of three Eagles who will be held out of the game.	He is one of three Eagles who will be held out of the game.	121914762	1475258316277	1475258316471	E	69
239914	2567019	He is one of three Eagles who will be held out of the game.	He is one of three Eagles who will be held out of the game.	121914768	1475258316541	1475258316671	a	65
239914	2567019	He is one of three Eagles who will be held out of the game.	He is one of three Eagles who will be held out of the game.	121914776	1475258316731	1475258316841	g	71
239914	2567019	He is one of three Eagles who will be held out of the game.	He is one of three Eagles who will be held out of the game.	121914807	1475258316863	1475258317000	l	76
239914	2567019	He is one of three Eagles who will be held out of the game.	He is one of three Eagles who will be held out of the game.	121914811	1475258317000	1475258317171	e	69
239914	2567019	He is one of three Eagles who will be held out of the game.	He is one of three Eagles who will be held out of the game.	121914819	1475258317077	1475258317240	s	83
239914	2567019	He is one of three Eagles who will be held out of the game.	He is one of three Eagles who will be held out of the game.	121914826	1475258317211	1475258317340	 	32
239914	2567019	He is one of three Eagles who will be held out of the game.	He is one of three Eagles who will be held out of the game.	121914832	1475258317400	1475258317564	w	87
239914	2567019	He is one of three Eagles who will be held out of the game.	He is one of three Eagles who will be held out of the game.	121914877	1475258317507	1475258317687	h	72
239914	2567019	He is one of three Eagles who will be held out of the game.	He is one of three Eagles who will be held out of the game.	121914882	1475258317596	1475258317752	o	79
239914	2567019	He is one of three Eagles who will be held out of the game.	He is one of three Eagles who will be held out of the game.	121914885	1475258317707	1475258317837	 	32
239914	2567019	He is one of three Eagles who will be held out of the game.	He is one of three Eagles who will be held out of the game.	121914887	1475258317867	1475258318040	w	87
239914	2567019	He is one of three Eagles who will be held out of the game.	He is one of three Eagles who will be held out of the game.	121914889	1475258317984	1475258318117	i	73
239914	2567019	He is one of three Eagles who will be held out of the game.	He is one of three Eagles who will be held out of the game.	121914956	1475258318055	1475258318159	l	76
239914	2567019	He is one of three Eagles who will be held out of the game.	He is one of three Eagles who will be held out of the game.	121914961	1475258318239	1475258318410	l	76
239914	2567019	He is one of three Eagles who will be held out of the game.	He is one of three Eagles who will be held out of the game.	121914967	1475258318327	1475258318520	 	32
239914	2567019	He is one of three Eagles who will be held out of the game.	He is one of three Eagles who will be held out of the game.	121914971	1475258318592	1475258318647	h	72
239914	2567019	He is one of three Eagles who will be held out of the game.	He is one of three Eagles who will be held out of the game.	121914977	1475258318847	1475258318947	BKSP	8
239914	2567019	He is one of three Eagles who will be held out of the game.	He is one of three Eagles who will be held out of the game.	121914981	1475258318957	1475258319063	b	66
239914	2567019	He is one of three Eagles who will be held out of the game.	He is one of three Eagles who will be held out of the game.	121914984	1475258319123	1475258319288	e	69
239914	2567019	He is one of three Eagles who will be held out of the game.	He is one of three Eagles who will be held out of the game.	121915044	1475258319254	1475258319383	 	32
239914	2567019	He is one of three Eagles who will be held out of the game.	He is one of three Eagles who will be held out of the game.	121915047	1475258319463	1475258319583	h	72
239914	2567019	He is one of three Eagles who will be held out of the game.	He is one of three Eagles who will be held out of the game.	121915049	1475258319583	1475258319712	e	69
239914	2567019	He is one of three Eagles who will be held out of the game.	He is one of three Eagles who will be held out of the game.	121915052	1475258319686	1475258319830	l	76
239914	2567019	He is one of three Eagles who will be held out of the game.	He is one of three Eagles who will be held out of the game.	121915054	1475258319890	1475258320023	d	68
239914	2567019	He is one of three Eagles who will be held out of the game.	He is one of three Eagles who will be held out of the game.	121915058	1475258320023	1475258320160	 	32
239914	2567019	He is one of three Eagles who will be held out of the game.	He is one of three Eagles who will be held out of the game.	121915092	1475258320182	1475258320353	o	79
239914	2567019	He is one of three Eagles who will be held out of the game.	He is one of three Eagles who will be held out of the game.	121915095	1475258320256	1475258320392	u	85
239914	2567019	He is one of three Eagles who will be held out of the game.	He is one of three Eagles who will be held out of the game.	121915101	1475258320363	1475258320493	t	84
239914	2567019	He is one of three Eagles who will be held out of the game.	He is one of three Eagles who will be held out of the game.	121915113	1475258320483	1475258320656	 	32
239914	2567019	He is one of three Eagles who will be held out of the game.	He is one of three Eagles who will be held out of the game.	121915160	1475258320609	1475258320759	o	79
239914	2567019	He is one of three Eagles who will be held out of the game.	He is one of three Eagles who will be held out of the game.	121915162	1475258320759	1475258320876	f	70
239914	2567019	He is one of three Eagles who will be held out of the game.	He is one of three Eagles who will be held out of the game.	121915165	1475258320866	1475258320983	 	32
239914	2567019	He is one of three Eagles who will be held out of the game.	He is one of three Eagles who will be held out of the game.	121915170	1475258320993	1475258321128	t	84
239914	2567019	He is one of three Eagles who will be held out of the game.	He is one of three Eagles who will be held out of the game.	121915175	1475258321103	1475258321192	h	72
239914	2567019	He is one of three Eagles who will be held out of the game.	He is one of three Eagles who will be held out of the game.	121915179	1475258321212	1475258321336	e	69
239914	2567019	He is one of three Eagles who will be held out of the game.	He is one of three Eagles who will be held out of the game.	121915211	1475258321292	1475258321407	 	32
239914	2567019	He is one of three Eagles who will be held out of the game.	He is one of three Eagles who will be held out of the game.	121915215	1475258321477	1475258321656	g	71
239914	2567019	He is one of three Eagles who will be held out of the game.	He is one of three Eagles who will be held out of the game.	121915219	1475258321600	1475258321756	a	65
239914	2567019	He is one of three Eagles who will be held out of the game.	He is one of three Eagles who will be held out of the game.	121915225	1475258321746	1475258321879	m	77
239914	2567019	He is one of three Eagles who will be held out of the game.	He is one of three Eagles who will be held out of the game.	121915235	1475258321879	1475258321975	e	69
239914	2567019	He is one of three Eagles who will be held out of the game.	He is one of three Eagles who will be held out of the game.	121915244	1475258321975	1475258322162	.	190
239914	2567040	Would you mind taking the lead on this?	Would you mind taking the lead on this?	121915445	1475258323858	1475258324188	SHIFT	16
239914	2567040	Would you mind taking the lead on this?	Would you mind taking the lead on this?	121915442	1475258324018	1475258324138	W	87
239914	2567040	Would you mind taking the lead on this?	Would you mind taking the lead on this?	121915448	1475258324248	1475258324408	o	79
239914	2567040	Would you mind taking the lead on this?	Would you mind taking the lead on this?	121915449	1475258324305	1475258324438	u	85
239914	2567040	Would you mind taking the lead on this?	Would you mind taking the lead on this?	121915451	1475258324568	1475258324681	l	76
239914	2567040	Would you mind taking the lead on this?	Would you mind taking the lead on this?	121915453	1475258324691	1475258324805	d	68
239914	2567040	Would you mind taking the lead on this?	Would you mind taking the lead on this?	121915496	1475258324795	1475258324911	 	32
239914	2567040	Would you mind taking the lead on this?	Would you mind taking the lead on this?	121915499	1475258325001	1475258325101	y	89
239914	2567040	Would you mind taking the lead on this?	Would you mind taking the lead on this?	121915507	1475258325151	1475258325356	o	79
239914	2567040	Would you mind taking the lead on this?	Would you mind taking the lead on this?	121915504	1475258325231	1475258325352	u	85
239914	2567040	Would you mind taking the lead on this?	Would you mind taking the lead on this?	121915509	1475258325278	1475258325426	 	32
239914	2567040	Would you mind taking the lead on this?	Would you mind taking the lead on this?	121915511	1475258325516	1475258325658	m	77
239914	2567040	Would you mind taking the lead on this?	Would you mind taking the lead on this?	121915546	1475258325740	1475258325944	i	73
239914	2567040	Would you mind taking the lead on this?	Would you mind taking the lead on this?	121915542	1475258325804	1475258325934	n	78
239914	2567040	Would you mind taking the lead on this?	Would you mind taking the lead on this?	121915550	1475258325984	1475258326128	d	68
239914	2567040	Would you mind taking the lead on this?	Would you mind taking the lead on this?	121915554	1475258326128	1475258326264	 	32
239914	2567040	Would you mind taking the lead on this?	Would you mind taking the lead on this?	121915560	1475258326375	1475258326544	t	84
239914	2567040	Would you mind taking the lead on this?	Would you mind taking the lead on this?	121915658	1475258326497	1475258326656	a	65
239914	2567040	Would you mind taking the lead on this?	Would you mind taking the lead on this?	121915663	1475258326636	1475258326824	l	76
239914	2567040	Would you mind taking the lead on this?	Would you mind taking the lead on this?	121915669	1475258326747	1475258326904	k	75
239914	2567040	Would you mind taking the lead on this?	Would you mind taking the lead on this?	121915673	1475258327164	1475258327225	BKSP	8
239914	2567040	Would you mind taking the lead on this?	Would you mind taking the lead on this?	121915676	1475258327327	1475258327395	BKSP	8
239914	2567040	Would you mind taking the lead on this?	Would you mind taking the lead on this?	121915678	1475258327555	1475258327681	k	75
239914	2567040	Would you mind taking the lead on this?	Would you mind taking the lead on this?	121915683	1475258327781	1475258327945	i	73
239914	2567040	Would you mind taking the lead on this?	Would you mind taking the lead on this?	121915698	1475258327844	1475258327976	n	78
239914	2567040	Would you mind taking the lead on this?	Would you mind taking the lead on this?	121915702	1475258327966	1475258328105	g	71
239914	2567040	Would you mind taking the lead on this?	Would you mind taking the lead on this?	121915706	1475258328081	1475258328204	 	32
239914	2567040	Would you mind taking the lead on this?	Would you mind taking the lead on this?	121915711	1475258328214	1475258328311	t	84
239914	2567040	Would you mind taking the lead on this?	Would you mind taking the lead on this?	121915715	1475258328271	1475258328371	h	72
239914	2567040	Would you mind taking the lead on this?	Would you mind taking the lead on this?	121915721	1475258328391	1475258328518	e	69
239914	2567040	Would you mind taking the lead on this?	Would you mind taking the lead on this?	121915761	1475258328474	1475258328610	 	32
239914	2567040	Would you mind taking the lead on this?	Would you mind taking the lead on this?	121915765	1475258328631	1475258328784	l	76
239914	2567040	Would you mind taking the lead on this?	Would you mind taking the lead on this?	121915771	1475258328727	1475258328897	e	69
239914	2567040	Would you mind taking the lead on this?	Would you mind taking the lead on this?	121915777	1475258328824	1475258328967	a	65
239914	2567040	Would you mind taking the lead on this?	Would you mind taking the lead on this?	121915783	1475258329040	1475258329157	d	68
239914	2567040	Would you mind taking the lead on this?	Would you mind taking the lead on this?	121915788	1475258329167	1475258329307	 	32
239914	2567040	Would you mind taking the lead on this?	Would you mind taking the lead on this?	121915812	1475258329297	1475258329467	o	79
239914	2567040	Would you mind taking the lead on this?	Would you mind taking the lead on this?	121915816	1475258329381	1475258329507	n	78
239914	2567040	Would you mind taking the lead on this?	Would you mind taking the lead on this?	121915820	1475258329497	1475258329664	 	32
239914	2567040	Would you mind taking the lead on this?	Would you mind taking the lead on this?	121915825	1475258329674	1475258329834	t	84
239914	2567040	Would you mind taking the lead on this?	Would you mind taking the lead on this?	121915830	1475258329744	1475258329920	h	72
239914	2567040	Would you mind taking the lead on this?	Would you mind taking the lead on this?	121915861	1475258329863	1475258330014	i	73
239914	2567040	Would you mind taking the lead on this?	Would you mind taking the lead on this?	121915863	1475258329951	1475258330124	s	83
239914	2567040	Would you mind taking the lead on this?	Would you mind taking the lead on this?	121915879	1475258330224	1475258330433	SHIFT	16
239914	2567040	Would you mind taking the lead on this?	Would you mind taking the lead on this?	121915870	1475258330264	1475258330381	?	191
239914	2567054	We are sitting in Weil's offices, waiting to negotiate.	We are sitting in Weil's offices, waiting to negotiate.	121916323	1475258335682	1475258336032	SHIFT	16
239914	2567054	We are sitting in Weil's offices, waiting to negotiate.	We are sitting in Weil's offices, waiting to negotiate.	121916320	1475258335882	1475258335992	W	87
239914	2567054	We are sitting in Weil's offices, waiting to negotiate.	We are sitting in Weil's offices, waiting to negotiate.	121916327	1475258336072	1475258336211	e	69
239914	2567054	We are sitting in Weil's offices, waiting to negotiate.	We are sitting in Weil's offices, waiting to negotiate.	121916334	1475258336261	1475258336388	 	32
239914	2567054	We are sitting in Weil's offices, waiting to negotiate.	We are sitting in Weil's offices, waiting to negotiate.	121916340	1475258336408	1475258336568	a	65
239914	2567054	We are sitting in Weil's offices, waiting to negotiate.	We are sitting in Weil's offices, waiting to negotiate.	121916368	1475258336498	1475258336675	r	82
239914	2567054	We are sitting in Weil's offices, waiting to negotiate.	We are sitting in Weil's offices, waiting to negotiate.	121916371	1475258336578	1475258336715	e	69
239914	2567054	We are sitting in Weil's offices, waiting to negotiate.	We are sitting in Weil's offices, waiting to negotiate.	121916374	1475258336745	1475258336872	 	32
239914	2567054	We are sitting in Weil's offices, waiting to negotiate.	We are sitting in Weil's offices, waiting to negotiate.	121916380	1475258336872	1475258337032	s	83
239914	2567054	We are sitting in Weil's offices, waiting to negotiate.	We are sitting in Weil's offices, waiting to negotiate.	121916384	1475258337005	1475258337128	i	73
239914	2567054	We are sitting in Weil's offices, waiting to negotiate.	We are sitting in Weil's offices, waiting to negotiate.	121916389	1475258337138	1475258337238	t	84
239914	2567054	We are sitting in Weil's offices, waiting to negotiate.	We are sitting in Weil's offices, waiting to negotiate.	121916407	1475258337310	1475258337408	t	84
239914	2567054	We are sitting in Weil's offices, waiting to negotiate.	We are sitting in Weil's offices, waiting to negotiate.	121916411	1475258337398	1475258337545	i	73
239914	2567054	We are sitting in Weil's offices, waiting to negotiate.	We are sitting in Weil's offices, waiting to negotiate.	121916414	1475258337471	1475258337598	n	78
239914	2567054	We are sitting in Weil's offices, waiting to negotiate.	We are sitting in Weil's offices, waiting to negotiate.	121916416	1475258337555	1475258337720	g	71
239914	2567054	We are sitting in Weil's offices, waiting to negotiate.	We are sitting in Weil's offices, waiting to negotiate.	121916482	1475258337668	1475258337813	 	32
239914	2567054	We are sitting in Weil's offices, waiting to negotiate.	We are sitting in Weil's offices, waiting to negotiate.	121916487	1475258337823	1475258337994	i	73
239914	2567054	We are sitting in Weil's offices, waiting to negotiate.	We are sitting in Weil's offices, waiting to negotiate.	121916490	1475258337924	1475258338084	n	78
239914	2567054	We are sitting in Weil's offices, waiting to negotiate.	We are sitting in Weil's offices, waiting to negotiate.	121916493	1475258338024	1475258338164	 	32
239914	2567054	We are sitting in Weil's offices, waiting to negotiate.	We are sitting in Weil's offices, waiting to negotiate.	121916497	1475258338154	1475258338590	SHIFT	16
239914	2567054	We are sitting in Weil's offices, waiting to negotiate.	We are sitting in Weil's offices, waiting to negotiate.	121916502	1475258338524	1475258338700	W	87
239914	2567054	We are sitting in Weil's offices, waiting to negotiate.	We are sitting in Weil's offices, waiting to negotiate.	121916506	1475258338690	1475258338720	SHIFT	16
239914	2567054	We are sitting in Weil's offices, waiting to negotiate.	We are sitting in Weil's offices, waiting to negotiate.	121916510	1475258338840	1475258338991	e	69
239914	2567054	We are sitting in Weil's offices, waiting to negotiate.	We are sitting in Weil's offices, waiting to negotiate.	121916530	1475258339092	1475258339240	i	73
239914	2567054	We are sitting in Weil's offices, waiting to negotiate.	We are sitting in Weil's offices, waiting to negotiate.	121916532	1475258339173	1475258339320	l	76
239914	2567054	We are sitting in Weil's offices, waiting to negotiate.	We are sitting in Weil's offices, waiting to negotiate.	121916536	1475258339440	1475258339590	'	222
239914	2567054	We are sitting in Weil's offices, waiting to negotiate.	We are sitting in Weil's offices, waiting to negotiate.	121916538	1475258339650	1475258339797	s	83
239914	2567054	We are sitting in Weil's offices, waiting to negotiate.	We are sitting in Weil's offices, waiting to negotiate.	121916595	1475258339787	1475258339907	 	32
239914	2567054	We are sitting in Weil's offices, waiting to negotiate.	We are sitting in Weil's offices, waiting to negotiate.	121916599	1475258339967	1475258340095	o	79
239914	2567054	We are sitting in Weil's offices, waiting to negotiate.	We are sitting in Weil's offices, waiting to negotiate.	121916602	1475258340085	1475258340147	f	70
239914	2567054	We are sitting in Weil's offices, waiting to negotiate.	We are sitting in Weil's offices, waiting to negotiate.	121916605	1475258340220	1475258340334	f	70
239914	2567054	We are sitting in Weil's offices, waiting to negotiate.	We are sitting in Weil's offices, waiting to negotiate.	121916607	1475258340334	1475258340480	i	73
239914	2567054	We are sitting in Weil's offices, waiting to negotiate.	We are sitting in Weil's offices, waiting to negotiate.	121916610	1475258340490	1475258340580	c	67
239914	2567054	We are sitting in Weil's offices, waiting to negotiate.	We are sitting in Weil's offices, waiting to negotiate.	121916697	1475258340732	1475258340880	e	69
239914	2567054	We are sitting in Weil's offices, waiting to negotiate.	We are sitting in Weil's offices, waiting to negotiate.	121916701	1475258340820	1475258340970	s	83
239914	2567054	We are sitting in Weil's offices, waiting to negotiate.	We are sitting in Weil's offices, waiting to negotiate.	121916707	1475258341080	1475258341216	,	188
239914	2567054	We are sitting in Weil's offices, waiting to negotiate.	We are sitting in Weil's offices, waiting to negotiate.	121916713	1475258341326	1475258341480	 	32
239914	2567054	We are sitting in Weil's offices, waiting to negotiate.	We are sitting in Weil's offices, waiting to negotiate.	121916720	1475258341943	1475258342150	w	87
239914	2567054	We are sitting in Weil's offices, waiting to negotiate.	We are sitting in Weil's offices, waiting to negotiate.	121916754	1475258342096	1475258342256	a	65
239914	2567054	We are sitting in Weil's offices, waiting to negotiate.	We are sitting in Weil's offices, waiting to negotiate.	121916759	1475258342232	1475258342336	i	73
239914	2567054	We are sitting in Weil's offices, waiting to negotiate.	We are sitting in Weil's offices, waiting to negotiate.	121916765	1475258342366	1475258342496	t	84
239914	2567054	We are sitting in Weil's offices, waiting to negotiate.	We are sitting in Weil's offices, waiting to negotiate.	121916769	1475258342486	1475258342639	i	73
239914	2567054	We are sitting in Weil's offices, waiting to negotiate.	We are sitting in Weil's offices, waiting to negotiate.	121916774	1475258342544	1475258342688	n	78
239914	2567054	We are sitting in Weil's offices, waiting to negotiate.	We are sitting in Weil's offices, waiting to negotiate.	121916853	1475258342649	1475258342773	g	71
239914	2567054	We are sitting in Weil's offices, waiting to negotiate.	We are sitting in Weil's offices, waiting to negotiate.	121916861	1475258342763	1475258342888	 	32
239914	2567054	We are sitting in Weil's offices, waiting to negotiate.	We are sitting in Weil's offices, waiting to negotiate.	121916867	1475258342908	1475258343026	t	84
239914	2567054	We are sitting in Weil's offices, waiting to negotiate.	We are sitting in Weil's offices, waiting to negotiate.	121916875	1475258343456	1475258343624	o	79
239914	2567054	We are sitting in Weil's offices, waiting to negotiate.	We are sitting in Weil's offices, waiting to negotiate.	121916880	1475258343566	1475258343699	 	32
239914	2567054	We are sitting in Weil's offices, waiting to negotiate.	We are sitting in Weil's offices, waiting to negotiate.	121916888	1475258343789	1475258343920	n	78
239914	2567054	We are sitting in Weil's offices, waiting to negotiate.	We are sitting in Weil's offices, waiting to negotiate.	121916928	1475258343896	1475258344005	e	69
239914	2567054	We are sitting in Weil's offices, waiting to negotiate.	We are sitting in Weil's offices, waiting to negotiate.	121916931	1475258344085	1475258344225	g	71
239914	2567054	We are sitting in Weil's offices, waiting to negotiate.	We are sitting in Weil's offices, waiting to negotiate.	121916933	1475258344235	1475258344359	o	79
239914	2567054	We are sitting in Weil's offices, waiting to negotiate.	We are sitting in Weil's offices, waiting to negotiate.	121916935	1475258344389	1475258344536	t	84
239914	2567054	We are sitting in Weil's offices, waiting to negotiate.	We are sitting in Weil's offices, waiting to negotiate.	121916941	1475258344509	1475258344633	i	73
239914	2567054	We are sitting in Weil's offices, waiting to negotiate.	We are sitting in Weil's offices, waiting to negotiate.	121916950	1475258344703	1475258344882	a	65
239914	2567054	We are sitting in Weil's offices, waiting to negotiate.	We are sitting in Weil's offices, waiting to negotiate.	121916977	1475258344826	1475258344999	t	84
239914	2567054	We are sitting in Weil's offices, waiting to negotiate.	We are sitting in Weil's offices, waiting to negotiate.	121916981	1475258344932	1475258345089	e	69
239914	2567054	We are sitting in Weil's offices, waiting to negotiate.	We are sitting in Weil's offices, waiting to negotiate.	121916986	1475258345139	1475258345285	.	190
