PARTICIPANT_ID	TEST_SECTION_ID	SENTENCE	USER_INPUT	KEYSTROKE_ID	PRESS_TIME	RELEASE_TIME	LETTER	KEYCODE
240009	2567905	Go ahead and notify.	GO ahead and notify.	121956704	1475258763723	1475258763984	SHIFT	16
240009	2567905	Go ahead and notify.	GO ahead and notify.	121956714	1475258763892	1475258764042	G	71
240009	2567905	Go ahead and notify.	GO ahead and notify.	121956727	1475258763977	1475258764099	O	79
240009	2567905	Go ahead and notify.	GO ahead and notify.	121956736	1475258764092	1475258764244	 	32
240009	2567905	Go ahead and notify.	GO ahead and notify.	121956744	1475258764370	1475258764516	a	65
240009	2567905	Go ahead and notify.	GO ahead and notify.	121956757	1475258764585	1475258764697	h	72
240009	2567905	Go ahead and notify.	GO ahead and notify.	121956822	1475258764693	1475258764823	e	69
240009	2567905	Go ahead and notify.	GO ahead and notify.	121956831	1475258764794	1475258764938	a	65
240009	2567905	Go ahead and notify.	GO ahead and notify.	121956839	1475258764944	1475258765081	d	68
240009	2567905	Go ahead and notify.	GO ahead and notify.	121956845	1475258765146	1475258765309	 	32
240009	2567905	Go ahead and notify.	GO ahead and notify.	121956854	1475258765293	1475258765438	a	65
240009	2567905	Go ahead and notify.	GO ahead and notify.	121956920	1475258765430	1475258765531	n	78
240009	2567905	Go ahead and notify.	GO ahead and notify.	121956929	1475258765509	1475258765639	d	68
240009	2567905	Go ahead and notify.	GO ahead and notify.	121956935	1475258765604	1475258765744	 	32
240009	2567905	Go ahead and notify.	GO ahead and notify.	121956941	1475258765796	1475258765917	n	78
240009	2567905	Go ahead and notify.	GO ahead and notify.	121956950	1475258765972	1475258766093	o	79
240009	2567905	Go ahead and notify.	GO ahead and notify.	121956965	1475258766106	1475258766191	t	84
240009	2567905	Go ahead and notify.	GO ahead and notify.	121957187	1475258766324	1475258766399	f	70
240009	2567905	Go ahead and notify.	GO ahead and notify.	121957194	1475258766380	1475258766507	i	73
240009	2567905	Go ahead and notify.	GO ahead and notify.	121957206	1475258766791	1475258766895	BKSP	8
240009	2567905	Go ahead and notify.	GO ahead and notify.	121957217	1475258766968	1475258767055	BKSP	8
240009	2567905	Go ahead and notify.	GO ahead and notify.	121957229	1475258767131	1475258767246	i	73
240009	2567905	Go ahead and notify.	GO ahead and notify.	121957243	1475258767242	1475258767349	f	70
240009	2567905	Go ahead and notify.	GO ahead and notify.	121957257	1475258767679	1475258767807	y	89
240009	2567905	Go ahead and notify.	GO ahead and notify.	121957242	1475258767820	1475258767957	.	190
240009	2567927	Please set something up.	Please set something up.	121957819	1475258770317	1475258770864	SHIFT	16
240009	2567927	Please set something up.	Please set something up.	121957811	1475258770707	1475258770822	P	80
240009	2567927	Please set something up.	Please set something up.	121957829	1475258770916	1475258771083	l	76
240009	2567927	Please set something up.	Please set something up.	121957840	1475258771011	1475258771147	e	69
240009	2567927	Please set something up.	Please set something up.	121957851	1475258771099	1475258771246	a	65
240009	2567927	Please set something up.	Please set something up.	121957863	1475258771289	1475258771452	s	83
240009	2567927	Please set something up.	Please set something up.	121957885	1475258771396	1475258771556	e	69
240009	2567927	Please set something up.	Please set something up.	121957888	1475258771498	1475258771649	 	32
240009	2567927	Please set something up.	Please set something up.	121957895	1475258771628	1475258771791	s	83
240009	2567927	Please set something up.	Please set something up.	121957898	1475258771723	1475258771918	e	69
240009	2567927	Please set something up.	Please set something up.	121957903	1475258771925	1475258772101	t	84
240009	2567927	Please set something up.	Please set something up.	121957978	1475258772066	1475258772212	 	32
240009	2567927	Please set something up.	Please set something up.	121957985	1475258772299	1475258772361	s	83
240009	2567927	Please set something up.	Please set something up.	121957992	1475258772345	1475258772472	o	79
240009	2567927	Please set something up.	Please set something up.	121958002	1475258772541	1475258772682	m	77
240009	2567927	Please set something up.	Please set something up.	121958013	1475258772678	1475258772804	e	69
240009	2567927	Please set something up.	Please set something up.	121958023	1475258772854	1475258772972	t	84
240009	2567927	Please set something up.	Please set something up.	121958072	1475258772910	1475258773033	h	72
240009	2567927	Please set something up.	Please set something up.	121958083	1475258773008	1475258773141	i	73
240009	2567927	Please set something up.	Please set something up.	121958097	1475258773147	1475258773285	n	78
240009	2567927	Please set something up.	Please set something up.	121958104	1475258773262	1475258773386	g	71
240009	2567927	Please set something up.	Please set something up.	121958113	1475258773370	1475258773513	 	32
240009	2567927	Please set something up.	Please set something up.	121958171	1475258773494	1475258773588	u	85
240009	2567927	Please set something up.	Please set something up.	121958183	1475258773664	1475258773762	p	80
240009	2567927	Please set something up.	Please set something up.	121958192	1475258773915	1475258774007	.	190
240009	2567945	Juppe arrived in Washington on Wednesday.	Juppe arrived in Washington on Wednesday.	121958653	1475258776535	1475258776868	SHIFT	16
240009	2567945	Juppe arrived in Washington on Wednesday.	Juppe arrived in Washington on Wednesday.	121958662	1475258776780	1475258776900	J	74
240009	2567945	Juppe arrived in Washington on Wednesday.	Juppe arrived in Washington on Wednesday.	121958666	1475258776963	1475258777060	u	85
240009	2567945	Juppe arrived in Washington on Wednesday.	Juppe arrived in Washington on Wednesday.	121958672	1475258777147	1475258777245	p	80
240009	2567945	Juppe arrived in Washington on Wednesday.	Juppe arrived in Washington on Wednesday.	121958678	1475258777291	1475258777415	p	80
240009	2567945	Juppe arrived in Washington on Wednesday.	Juppe arrived in Washington on Wednesday.	121958685	1475258777494	1475258777659	e	69
240009	2567945	Juppe arrived in Washington on Wednesday.	Juppe arrived in Washington on Wednesday.	121958890	1475258777614	1475258777768	 	32
240009	2567945	Juppe arrived in Washington on Wednesday.	Juppe arrived in Washington on Wednesday.	121958899	1475258777843	1475258777960	a	65
240009	2567945	Juppe arrived in Washington on Wednesday.	Juppe arrived in Washington on Wednesday.	121958909	1475258777996	1475258778097	r	82
240009	2567945	Juppe arrived in Washington on Wednesday.	Juppe arrived in Washington on Wednesday.	121958917	1475258779222	1475258779329	r	82
240009	2567945	Juppe arrived in Washington on Wednesday.	Juppe arrived in Washington on Wednesday.	121958931	1475258779365	1475258779506	i	73
240009	2567945	Juppe arrived in Washington on Wednesday.	Juppe arrived in Washington on Wednesday.	121959021	1475258779495	1475258779593	v	86
240009	2567945	Juppe arrived in Washington on Wednesday.	Juppe arrived in Washington on Wednesday.	121959029	1475258779617	1475258779763	e	69
240009	2567945	Juppe arrived in Washington on Wednesday.	Juppe arrived in Washington on Wednesday.	121959035	1475258779865	1475258780010	d	68
240009	2567945	Juppe arrived in Washington on Wednesday.	Juppe arrived in Washington on Wednesday.	121959050	1475258779975	1475258780116	 	32
240009	2567945	Juppe arrived in Washington on Wednesday.	Juppe arrived in Washington on Wednesday.	121959066	1475258780122	1475258780239	i	73
240009	2567945	Juppe arrived in Washington on Wednesday.	Juppe arrived in Washington on Wednesday.	121959288	1475258780220	1475258780372	n	78
240009	2567945	Juppe arrived in Washington on Wednesday.	Juppe arrived in Washington on Wednesday.	121959298	1475258780362	1475258780505	 	32
240009	2567945	Juppe arrived in Washington on Wednesday.	Juppe arrived in Washington on Wednesday.	121959309	1475258780737	1475258781109	SHIFT	16
240009	2567945	Juppe arrived in Washington on Wednesday.	Juppe arrived in Washington on Wednesday.	121959319	1475258781028	1475258781124	W	87
240009	2567945	Juppe arrived in Washington on Wednesday.	Juppe arrived in Washington on Wednesday.	121959330	1475258781247	1475258781374	a	65
240009	2567945	Juppe arrived in Washington on Wednesday.	Juppe arrived in Washington on Wednesday.	121959342	1475258781493	1475258781552	s	83
240009	2567945	Juppe arrived in Washington on Wednesday.	Juppe arrived in Washington on Wednesday.	121959352	1475258781582	1475258781722	h	72
240009	2567945	Juppe arrived in Washington on Wednesday.	Juppe arrived in Washington on Wednesday.	121959437	1475258781703	1475258781819	i	73
240009	2567945	Juppe arrived in Washington on Wednesday.	Juppe arrived in Washington on Wednesday.	121959447	1475258781981	1475258782134	n	78
240009	2567945	Juppe arrived in Washington on Wednesday.	Juppe arrived in Washington on Wednesday.	121959454	1475258782167	1475258782271	g	71
240009	2567945	Juppe arrived in Washington on Wednesday.	Juppe arrived in Washington on Wednesday.	121959466	1475258782374	1475258782482	t	84
240009	2567945	Juppe arrived in Washington on Wednesday.	Juppe arrived in Washington on Wednesday.	121959475	1475258782514	1475258782651	o	79
240009	2567945	Juppe arrived in Washington on Wednesday.	Juppe arrived in Washington on Wednesday.	121959556	1475258782638	1475258782785	n	78
240009	2567945	Juppe arrived in Washington on Wednesday.	Juppe arrived in Washington on Wednesday.	121959563	1475258782779	1475258782923	 	32
240009	2567945	Juppe arrived in Washington on Wednesday.	Juppe arrived in Washington on Wednesday.	121959568	1475258782943	1475258783030	o	79
240009	2567945	Juppe arrived in Washington on Wednesday.	Juppe arrived in Washington on Wednesday.	121959576	1475258782997	1475258783145	n	78
240009	2567945	Juppe arrived in Washington on Wednesday.	Juppe arrived in Washington on Wednesday.	121959582	1475258783145	1475258783282	 	32
240009	2567945	Juppe arrived in Washington on Wednesday.	Juppe arrived in Washington on Wednesday.	121959591	1475258783344	1475258783612	SHIFT	16
240009	2567945	Juppe arrived in Washington on Wednesday.	Juppe arrived in Washington on Wednesday.	121959796	1475258783530	1475258783638	W	87
240009	2567945	Juppe arrived in Washington on Wednesday.	Juppe arrived in Washington on Wednesday.	121959803	1475258783716	1475258783808	e	69
240009	2567945	Juppe arrived in Washington on Wednesday.	Juppe arrived in Washington on Wednesday.	121959813	1475258783910	1475258784011	d	68
240009	2567945	Juppe arrived in Washington on Wednesday.	Juppe arrived in Washington on Wednesday.	121959820	1475258784167	1475258784269	n	78
240009	2567945	Juppe arrived in Washington on Wednesday.	Juppe arrived in Washington on Wednesday.	121959829	1475258784393	1475258784513	e	69
240009	2567945	Juppe arrived in Washington on Wednesday.	Juppe arrived in Washington on Wednesday.	121959835	1475258785077	1475258785188	s	83
240009	2567945	Juppe arrived in Washington on Wednesday.	Juppe arrived in Washington on Wednesday.	121959969	1475258785380	1475258785504	d	68
240009	2567945	Juppe arrived in Washington on Wednesday.	Juppe arrived in Washington on Wednesday.	121959972	1475258785523	1475258785644	a	65
240009	2567945	Juppe arrived in Washington on Wednesday.	Juppe arrived in Washington on Wednesday.	121959980	1475258785745	1475258785868	y	89
240009	2567945	Juppe arrived in Washington on Wednesday.	Juppe arrived in Washington on Wednesday.	121959992	1475258785907	1475258786052	.	190
240009	2567988	Do you need it today?	Do you need it today?	121960334	1475258788763	1475258789014	SHIFT	16
240009	2567988	Do you need it today?	Do you need it today?	121960339	1475258788991	1475258789165	D	68
240009	2567988	Do you need it today?	Do you need it today?	121960348	1475258789191	1475258789333	o	79
240009	2567988	Do you need it today?	Do you need it today?	121960356	1475258789291	1475258789499	 	32
240009	2567988	Do you need it today?	Do you need it today?	121960364	1475258789471	1475258789588	y	89
240009	2567988	Do you need it today?	Do you need it today?	121960374	1475258789667	1475258789775	o	79
240009	2567988	Do you need it today?	Do you need it today?	121960486	1475258790220	1475258790340	u	85
240009	2567988	Do you need it today?	Do you need it today?	121960495	1475258790328	1475258790475	 	32
240009	2567988	Do you need it today?	Do you need it today?	121960505	1475258790537	1475258790691	n	78
240009	2567988	Do you need it today?	Do you need it today?	121960513	1475258790641	1475258790736	e	69
240009	2567988	Do you need it today?	Do you need it today?	121960521	1475258790795	1475258790883	e	69
240009	2567988	Do you need it today?	Do you need it today?	121960549	1475258790982	1475258791085	d	68
240009	2567988	Do you need it today?	Do you need it today?	121960562	1475258791044	1475258791203	 	32
240009	2567988	Do you need it today?	Do you need it today?	121960575	1475258791174	1475258791304	i	73
240009	2567988	Do you need it today?	Do you need it today?	121960592	1475258791282	1475258791370	t	84
240009	2567988	Do you need it today?	Do you need it today?	121960809	1475258791337	1475258791494	 	32
240009	2567988	Do you need it today?	Do you need it today?	121960819	1475258791455	1475258791573	o	79
240009	2567988	Do you need it today?	Do you need it today?	121960829	1475258792352	1475258792472	BKSP	8
240009	2567988	Do you need it today?	Do you need it today?	121960838	1475258792502	1475258792593	t	84
240009	2567988	Do you need it today?	Do you need it today?	121960845	1475258792603	1475258792733	o	79
240009	2567988	Do you need it today?	Do you need it today?	121960854	1475258792840	1475258792942	d	68
240009	2567988	Do you need it today?	Do you need it today?	121960863	1475258792987	1475258793169	a	65
240009	2567988	Do you need it today?	Do you need it today?	121960952	1475258793220	1475258793315	y	89
240009	2567988	Do you need it today?	Do you need it today?	121960958	1475258794065	1475258794181	?	191
240009	2568009	Hence the importannce of the media bidding battle in Britain.	Hence the impartannce of the media bidding battle in Britain	121961767	1475258799088	1475258799201	H	72
240009	2568009	Hence the importannce of the media bidding battle in Britain.	Hence the impartannce of the media bidding battle in Britain	121961771	1475258799317	1475258799435	n	78
240009	2568009	Hence the importannce of the media bidding battle in Britain.	Hence the impartannce of the media bidding battle in Britain	121961775	1475258799635	1475258799753	BKSP	8
240009	2568009	Hence the importannce of the media bidding battle in Britain.	Hence the impartannce of the media bidding battle in Britain	121961783	1475258799778	1475258799886	e	69
240009	2568009	Hence the importannce of the media bidding battle in Britain.	Hence the impartannce of the media bidding battle in Britain	121961796	1475258799880	1475258799994	n	78
240009	2568009	Hence the importannce of the media bidding battle in Britain.	Hence the impartannce of the media bidding battle in Britain	121961809	1475258800034	1475258800222	c	67
240009	2568009	Hence the importannce of the media bidding battle in Britain.	Hence the impartannce of the media bidding battle in Britain	121961844	1475258800203	1475258800363	e	69
240009	2568009	Hence the importannce of the media bidding battle in Britain.	Hence the impartannce of the media bidding battle in Britain	121961852	1475258800330	1475258800477	 	32
240009	2568009	Hence the importannce of the media bidding battle in Britain.	Hence the impartannce of the media bidding battle in Britain	121961860	1475258800457	1475258800575	t	84
240009	2568009	Hence the importannce of the media bidding battle in Britain.	Hence the impartannce of the media bidding battle in Britain	121961868	1475258800562	1475258800660	h	72
240009	2568009	Hence the importannce of the media bidding battle in Britain.	Hence the impartannce of the media bidding battle in Britain	121961873	1475258800690	1475258800837	e	69
240009	2568009	Hence the importannce of the media bidding battle in Britain.	Hence the impartannce of the media bidding battle in Britain	121961955	1475258800772	1475258800908	 	32
240009	2568009	Hence the importannce of the media bidding battle in Britain.	Hence the impartannce of the media bidding battle in Britain	121961963	1475258800948	1475258801052	i	73
240009	2568009	Hence the importannce of the media bidding battle in Britain.	Hence the impartannce of the media bidding battle in Britain	121961970	1475258801105	1475258801252	m	77
240009	2568009	Hence the importannce of the media bidding battle in Britain.	Hence the impartannce of the media bidding battle in Britain	121961979	1475258801255	1475258801390	p	80
240009	2568009	Hence the importannce of the media bidding battle in Britain.	Hence the impartannce of the media bidding battle in Britain	121961983	1475258801412	1475258801556	a	65
240009	2568009	Hence the importannce of the media bidding battle in Britain.	Hence the impartannce of the media bidding battle in Britain	121961998	1475258801605	1475258801706	r	82
240009	2568009	Hence the importannce of the media bidding battle in Britain.	Hence the impartannce of the media bidding battle in Britain	121962134	1475258801806	1475258801893	t	84
240009	2568009	Hence the importannce of the media bidding battle in Britain.	Hence the impartannce of the media bidding battle in Britain	121962139	1475258801992	1475258802111	a	65
240009	2568009	Hence the importannce of the media bidding battle in Britain.	Hence the impartannce of the media bidding battle in Britain	121962144	1475258802288	1475258802393	n	78
240009	2568009	Hence the importannce of the media bidding battle in Britain.	Hence the impartannce of the media bidding battle in Britain	121962147	1475258802475	1475258802559	n	78
240009	2568009	Hence the importannce of the media bidding battle in Britain.	Hence the impartannce of the media bidding battle in Britain	121962154	1475258802641	1475258802827	c	67
240009	2568009	Hence the importannce of the media bidding battle in Britain.	Hence the impartannce of the media bidding battle in Britain	121962206	1475258802778	1475258802954	e	69
240009	2568009	Hence the importannce of the media bidding battle in Britain.	Hence the impartannce of the media bidding battle in Britain	121962217	1475258802915	1475258803075	 	32
240009	2568009	Hence the importannce of the media bidding battle in Britain.	Hence the impartannce of the media bidding battle in Britain	121962226	1475258803016	1475258803151	o	79
240009	2568009	Hence the importannce of the media bidding battle in Britain.	Hence the impartannce of the media bidding battle in Britain	121962235	1475258803134	1475258803284	f	70
240009	2568009	Hence the importannce of the media bidding battle in Britain.	Hence the impartannce of the media bidding battle in Britain	121962240	1475258803252	1475258803376	 	32
240009	2568009	Hence the importannce of the media bidding battle in Britain.	Hence the impartannce of the media bidding battle in Britain	121962247	1475258803415	1475258803512	t	84
240009	2568009	Hence the importannce of the media bidding battle in Britain.	Hence the impartannce of the media bidding battle in Britain	121962314	1475258803503	1475258803607	h	72
240009	2568009	Hence the importannce of the media bidding battle in Britain.	Hence the impartannce of the media bidding battle in Britain	121962324	1475258803640	1475258803780	e	69
240009	2568009	Hence the importannce of the media bidding battle in Britain.	Hence the impartannce of the media bidding battle in Britain	121962332	1475258803706	1475258803833	 	32
240009	2568009	Hence the importannce of the media bidding battle in Britain.	Hence the impartannce of the media bidding battle in Britain	121962343	1475258803853	1475258803986	m	77
240009	2568009	Hence the importannce of the media bidding battle in Britain.	Hence the impartannce of the media bidding battle in Britain	121962354	1475258803944	1475258804062	e	69
240009	2568009	Hence the importannce of the media bidding battle in Britain.	Hence the impartannce of the media bidding battle in Britain	121962362	1475258804171	1475258804308	d	68
240009	2568009	Hence the importannce of the media bidding battle in Britain.	Hence the impartannce of the media bidding battle in Britain	121962443	1475258804281	1475258804396	i	73
240009	2568009	Hence the importannce of the media bidding battle in Britain.	Hence the impartannce of the media bidding battle in Britain	121962450	1475258804422	1475258804536	a	65
240009	2568009	Hence the importannce of the media bidding battle in Britain.	Hence the impartannce of the media bidding battle in Britain	121962462	1475258804572	1475258804726	 	32
240009	2568009	Hence the importannce of the media bidding battle in Britain.	Hence the impartannce of the media bidding battle in Britain	121962474	1475258805033	1475258805159	b	66
240009	2568009	Hence the importannce of the media bidding battle in Britain.	Hence the impartannce of the media bidding battle in Britain	121962483	1475258805176	1475258805330	i	73
240009	2568009	Hence the importannce of the media bidding battle in Britain.	Hence the impartannce of the media bidding battle in Britain	121962538	1475258805320	1475258805411	d	68
240009	2568009	Hence the importannce of the media bidding battle in Britain.	Hence the impartannce of the media bidding battle in Britain	121962542	1475258805476	1475258805582	d	68
240009	2568009	Hence the importannce of the media bidding battle in Britain.	Hence the impartannce of the media bidding battle in Britain	121962550	1475258805565	1475258805659	i	73
240009	2568009	Hence the importannce of the media bidding battle in Britain.	Hence the impartannce of the media bidding battle in Britain	121962555	1475258805630	1475258805793	n	78
240009	2568009	Hence the importannce of the media bidding battle in Britain.	Hence the impartannce of the media bidding battle in Britain	121962563	1475258805796	1475258805946	g	71
240009	2568009	Hence the importannce of the media bidding battle in Britain.	Hence the impartannce of the media bidding battle in Britain	121962727	1475258805927	1475258806051	 	32
240009	2568009	Hence the importannce of the media bidding battle in Britain.	Hence the impartannce of the media bidding battle in Britain	121962732	1475258806097	1475258806243	b	66
240009	2568009	Hence the importannce of the media bidding battle in Britain.	Hence the impartannce of the media bidding battle in Britain	121962739	1475258806472	1475258806588	a	65
240009	2568009	Hence the importannce of the media bidding battle in Britain.	Hence the impartannce of the media bidding battle in Britain	121962745	1475258806712	1475258806784	t	84
240009	2568009	Hence the importannce of the media bidding battle in Britain.	Hence the impartannce of the media bidding battle in Britain	121962753	1475258806886	1475258806977	t	84
240009	2568009	Hence the importannce of the media bidding battle in Britain.	Hence the impartannce of the media bidding battle in Britain	121962762	1475258807411	1475258807548	l	76
240009	2568009	Hence the importannce of the media bidding battle in Britain.	Hence the impartannce of the media bidding battle in Britain	121962849	1475258807526	1475258807692	e	69
240009	2568009	Hence the importannce of the media bidding battle in Britain.	Hence the impartannce of the media bidding battle in Britain	121962859	1475258807667	1475258807803	 	32
240009	2568009	Hence the importannce of the media bidding battle in Britain.	Hence the impartannce of the media bidding battle in Britain	121962869	1475258807797	1475258807872	i	73
240009	2568009	Hence the importannce of the media bidding battle in Britain.	Hence the impartannce of the media bidding battle in Britain	121962881	1475258807941	1475258808052	n	78
240009	2568009	Hence the importannce of the media bidding battle in Britain.	Hence the impartannce of the media bidding battle in Britain	121962889	1475258808062	1475258808191	 	32
240009	2568009	Hence the importannce of the media bidding battle in Britain.	Hence the impartannce of the media bidding battle in Britain	121962896	1475258808205	1475258808411	SHIFT	16
240009	2568009	Hence the importannce of the media bidding battle in Britain.	Hence the impartannce of the media bidding battle in Britain	121963003	1475258808316	1475258808443	B	66
240009	2568009	Hence the importannce of the media bidding battle in Britain.	Hence the impartannce of the media bidding battle in Britain	121963019	1475258808437	1475258808558	r	82
240009	2568009	Hence the importannce of the media bidding battle in Britain.	Hence the impartannce of the media bidding battle in Britain	121963037	1475258808574	1475258808715	i	73
240009	2568009	Hence the importannce of the media bidding battle in Britain.	Hence the impartannce of the media bidding battle in Britain	121963048	1475258809093	1475258809197	t	84
240009	2568009	Hence the importannce of the media bidding battle in Britain.	Hence the impartannce of the media bidding battle in Britain	121963091	1475258809263	1475258809455	a	65
240009	2568009	Hence the importannce of the media bidding battle in Britain.	Hence the impartannce of the media bidding battle in Britain	121963062	1475258809364	1475258809449	i	73
240009	2568009	Hence the importannce of the media bidding battle in Britain.	Hence the impartannce of the media bidding battle in Britain	121963098	1475258809641	1475258809778	n	78
240009	2568059	Don't bother picking him up.	Don't bother picking him up.	121963535	1475258811904	1475258812804	SHIFT	16
240009	2568059	Don't bother picking him up.	Don't bother picking him up.	121963541	1475258812713	1475258812888	D	68
240009	2568059	Don't bother picking him up.	Don't bother picking him up.	121963550	1475258812807	1475258812957	o	79
240009	2568059	Don't bother picking him up.	Don't bother picking him up.	121963559	1475258812899	1475258813052	n	78
240009	2568059	Don't bother picking him up.	Don't bother picking him up.	121963568	1475258813085	1475258813179	t	84
240009	2568059	Don't bother picking him up.	Don't bother picking him up.	121963577	1475258813305	1475258813464	'	222
240009	2568059	Don't bother picking him up.	Don't bother picking him up.	121963736	1475258813612	1475258813713	BKSP	8
240009	2568059	Don't bother picking him up.	Don't bother picking him up.	121963741	1475258813762	1475258813834	BKSP	8
240009	2568059	Don't bother picking him up.	Don't bother picking him up.	121963750	1475258814059	1475258814183	'	222
240009	2568059	Don't bother picking him up.	Don't bother picking him up.	121963756	1475258814222	1475258814365	t	84
240009	2568059	Don't bother picking him up.	Don't bother picking him up.	121963766	1475258814298	1475258814457	 	32
240009	2568059	Don't bother picking him up.	Don't bother picking him up.	121963781	1475258814641	1475258814736	b	66
240009	2568059	Don't bother picking him up.	Don't bother picking him up.	121963793	1475258814875	1475258815021	o	79
240009	2568059	Don't bother picking him up.	Don't bother picking him up.	121963826	1475258815038	1475258815162	t	84
240009	2568059	Don't bother picking him up.	Don't bother picking him up.	121963834	1475258815158	1475258815262	h	72
240009	2568059	Don't bother picking him up.	Don't bother picking him up.	121963841	1475258815292	1475258815514	e	69
240009	2568059	Don't bother picking him up.	Don't bother picking him up.	121963846	1475258815469	1475258815641	r	82
240009	2568059	Don't bother picking him up.	Don't bother picking him up.	121963971	1475258815602	1475258815765	 	32
240009	2568059	Don't bother picking him up.	Don't bother picking him up.	121963978	1475258816000	1475258816144	p	80
240009	2568059	Don't bother picking him up.	Don't bother picking him up.	121963983	1475258816163	1475258816297	i	73
240009	2568059	Don't bother picking him up.	Don't bother picking him up.	121963990	1475258816284	1475258816424	c	67
240009	2568059	Don't bother picking him up.	Don't bother picking him up.	121963995	1475258816427	1475258816561	k	75
240009	2568059	Don't bother picking him up.	Don't bother picking him up.	121964002	1475258816655	1475258816752	i	73
240009	2568059	Don't bother picking him up.	Don't bother picking him up.	121964106	1475258816733	1475258816902	n	78
240009	2568059	Don't bother picking him up.	Don't bother picking him up.	121964113	1475258816854	1475258817010	g	71
240009	2568059	Don't bother picking him up.	Don't bother picking him up.	121964122	1475258816971	1475258817095	 	32
240009	2568059	Don't bother picking him up.	Don't bother picking him up.	121964131	1475258817053	1475258817203	h	72
240009	2568059	Don't bother picking him up.	Don't bother picking him up.	121964140	1475258817324	1475258817415	i	73
240009	2568059	Don't bother picking him up.	Don't bother picking him up.	121964152	1475258817577	1475258817720	m	77
240009	2568059	Don't bother picking him up.	Don't bother picking him up.	121964248	1475258817679	1475258817808	 	32
240009	2568059	Don't bother picking him up.	Don't bother picking him up.	121964256	1475258817831	1475258817916	u	85
240009	2568059	Don't bother picking him up.	Don't bother picking him up.	121964268	1475258818002	1475258818103	p	80
240009	2568059	Don't bother picking him up.	Don't bother picking him up.	121964278	1475258818451	1475258818581	.	190
240009	2568080	Could you try ringing her?	Could you try ringing her?	121964608	1475258820734	1475258820994	SHIFT	16
240009	2568080	Could you try ringing her?	Could you try ringing her?	121964616	1475258820919	1475258821071	C	67
240009	2568080	Could you try ringing her?	Could you try ringing her?	121964622	1475258821030	1475258821134	o	79
240009	2568080	Could you try ringing her?	Could you try ringing her?	121964628	1475258821176	1475258821255	u	85
240009	2568080	Could you try ringing her?	Could you try ringing her?	121964632	1475258821368	1475258821511	l	76
240009	2568080	Could you try ringing her?	Could you try ringing her?	121964749	1475258821466	1475258821590	d	68
240009	2568080	Could you try ringing her?	Could you try ringing her?	121964757	1475258821567	1475258821714	 	32
240009	2568080	Could you try ringing her?	Could you try ringing her?	121964766	1475258821760	1475258821873	y	79
240009	2568080	Could you try ringing her?	Could you try ringing her?	121964774	1475258822322	1475258822384	BKSP	8
240009	2568080	Could you try ringing her?	Could you try ringing her?	121964780	1475258822473	1475258822532	BKSP	8
240009	2568080	Could you try ringing her?	Could you try ringing her?	121964785	1475258822661	1475258822771	y	89
240009	2568080	Could you try ringing her?	Could you try ringing her?	121964864	1475258822739	1475258822891	o	79
240009	2568080	Could you try ringing her?	Could you try ringing her?	121964871	1475258822886	1475258822987	u	85
240009	2568080	Could you try ringing her?	Could you try ringing her?	121964878	1475258822971	1475258823114	 	32
240009	2568080	Could you try ringing her?	Could you try ringing her?	121964886	1475258823159	1475258823378	t	84
240009	2568080	Could you try ringing her?	Could you try ringing her?	121964892	1475258823448	1475258823581	r	82
240009	2568080	Could you try ringing her?	Could you try ringing her?	121964898	1475258823740	1475258823890	y	89
240009	2568080	Could you try ringing her?	Could you try ringing her?	121964981	1475258823939	1475258824089	 	32
240009	2568080	Could you try ringing her?	Could you try ringing her?	121964989	1475258824544	1475258824662	r	82
240009	2568080	Could you try ringing her?	Could you try ringing her?	121964996	1475258824617	1475258824740	i	73
240009	2568080	Could you try ringing her?	Could you try ringing her?	121965002	1475258824704	1475258824857	n	78
240009	2568080	Could you try ringing her?	Could you try ringing her?	121965088	1475258824786	1475258824880	g	71
240009	2568080	Could you try ringing her?	Could you try ringing her?	121965092	1475258824887	1475258825002	i	73
240009	2568080	Could you try ringing her?	Could you try ringing her?	121965098	1475258825113	1475258825237	n	78
240009	2568080	Could you try ringing her?	Could you try ringing her?	121965106	1475258825428	1475258825548	g	71
240009	2568080	Could you try ringing her?	Could you try ringing her?	121965117	1475258825555	1475258825676	 	32
240009	2568080	Could you try ringing her?	Could you try ringing her?	121965123	1475258825722	1475258825840	h	72
240009	2568080	Could you try ringing her?	Could you try ringing her?	121965171	1475258825826	1475258826002	e	69
240009	2568080	Could you try ringing her?	Could you try ringing her?	121965178	1475258825943	1475258826084	r	82
240009	2568080	Could you try ringing her?	Could you try ringing her?	121965188	1475258826395	1475258826544	?	191
240009	2568098	The phones should be on now.	The phones should be on now.	121965511	1475258828803	1475258828930	T	84
240009	2568098	The phones should be on now.	The phones should be on now.	121965516	1475258828868	1475258829018	h	72
240009	2568098	The phones should be on now.	The phones should be on now.	121965526	1475258829317	1475258829451	e	69
240009	2568098	The phones should be on now.	The phones should be on now.	121965536	1475258829415	1475258829583	 	32
240009	2568098	The phones should be on now.	The phones should be on now.	121965634	1475258829572	1475258829683	p	80
240009	2568098	The phones should be on now.	The phones should be on now.	121965637	1475258829790	1475258829832	o	79
240009	2568098	The phones should be on now.	The phones should be on now.	121965642	1475258829869	1475258830000	h	72
240009	2568098	The phones should be on now.	The phones should be on now.	121965647	1475258830190	1475258830321	BKSP	8
240009	2568098	The phones should be on now.	The phones should be on now.	121965655	1475258830376	1475258830484	BKSP	8
240009	2568098	The phones should be on now.	The phones should be on now.	121965663	1475258830496	1475258830611	h	72
240009	2568098	The phones should be on now.	The phones should be on now.	121965672	1475258830630	1475258830783	o	79
240009	2568098	The phones should be on now.	The phones should be on now.	121965688	1475258830755	1475258830885	n	78
240009	2568098	The phones should be on now.	The phones should be on now.	121965697	1475258830830	1475258831009	e	69
240009	2568098	The phones should be on now.	The phones should be on now.	121965707	1475258830950	1475258831077	s	83
240009	2568098	The phones should be on now.	The phones should be on now.	121965718	1475258831029	1475258831185	 	32
240009	2568098	The phones should be on now.	The phones should be on now.	121965727	1475258831169	1475258831277	s	83
240009	2568098	The phones should be on now.	The phones should be on now.	121965815	1475258831222	1475258831346	h	72
240009	2568098	The phones should be on now.	The phones should be on now.	121965824	1475258831462	1475258831563	u	85
240009	2568098	The phones should be on now.	The phones should be on now.	121965832	1475258831834	1475258831944	BKSP	8
240009	2568098	The phones should be on now.	The phones should be on now.	121965838	1475258832142	1475258832262	o	79
240009	2568098	The phones should be on now.	The phones should be on now.	121965845	1475258832301	1475258832396	u	85
240009	2568098	The phones should be on now.	The phones should be on now.	121965851	1475258832485	1475258832650	l	76
240009	2568098	The phones should be on now.	The phones should be on now.	121965897	1475258832632	1475258832756	d	68
240009	2568098	The phones should be on now.	The phones should be on now.	121965904	1475258832720	1475258832854	 	32
240009	2568098	The phones should be on now.	The phones should be on now.	121965912	1475258832864	1475258832968	b	66
240009	2568098	The phones should be on now.	The phones should be on now.	121965923	1475258832932	1475258833091	e	69
240009	2568098	The phones should be on now.	The phones should be on now.	121965930	1475258833066	1475258833180	 	32
240009	2568098	The phones should be on now.	The phones should be on now.	121965937	1475258833350	1475258833533	o	79
240009	2568098	The phones should be on now.	The phones should be on now.	121965991	1475258833546	1475258833644	n	78
240009	2568098	The phones should be on now.	The phones should be on now.	121965994	1475258833634	1475258833771	 	32
240009	2568098	The phones should be on now.	The phones should be on now.	121965999	1475258833840	1475258833973	n	78
240009	2568098	The phones should be on now.	The phones should be on now.	121966006	1475258833944	1475258834081	o	79
240009	2568098	The phones should be on now.	The phones should be on now.	121966012	1475258834101	1475258834214	w	87
240009	2568098	The phones should be on now.	The phones should be on now.	121966032	1475258834316	1475258834456	.	190
240009	2568117	But it takes time.	But it takes time.	121966382	1475258836592	1475258836866	SHIFT	16
240009	2568117	But it takes time.	But it takes time.	121966373	1475258836732	1475258836840	B	66
240009	2568117	But it takes time.	But it takes time.	121966389	1475258836918	1475258837032	u	85
240009	2568117	But it takes time.	But it takes time.	121966396	1475258837088	1475258837203	t	84
240009	2568117	But it takes time.	But it takes time.	121966405	1475258837204	1475258837353	 	32
240009	2568117	But it takes time.	But it takes time.	121966411	1475258837428	1475258837493	i	73
240009	2568117	But it takes time.	But it takes time.	121966468	1475258837516	1475258837653	t	84
240009	2568117	But it takes time.	But it takes time.	121966473	1475258837621	1475258837774	 	32
240009	2568117	But it takes time.	But it takes time.	121966479	1475258837797	1475258837928	t	84
240009	2568117	But it takes time.	But it takes time.	121966489	1475258837961	1475258838113	a	65
240009	2568117	But it takes time.	But it takes time.	121966505	1475258838120	1475258838230	k	75
240009	2568117	But it takes time.	But it takes time.	121966595	1475258838195	1475258838293	e	69
240009	2568117	But it takes time.	But it takes time.	121966604	1475258838387	1475258838514	s	83
240009	2568117	But it takes time.	But it takes time.	121966614	1475258838501	1475258838621	 	32
240009	2568117	But it takes time.	But it takes time.	121966620	1475258838642	1475258838743	t	84
240009	2568117	But it takes time.	But it takes time.	121966626	1475258838765	1475258838876	i	73
240009	2568117	But it takes time.	But it takes time.	121966629	1475258838919	1475258839052	m	77
240009	2568117	But it takes time.	But it takes time.	121966669	1475258839023	1475258839160	e	69
240009	2568117	But it takes time.	But it takes time.	121966674	1475258839441	1475258839593	.	190
240009	2568126	Sorry it took so long.	Sorry it took so long.	121967022	1475258841603	1475258842589	SHIFT	16
240009	2568126	Sorry it took so long.	Sorry it took so long.	121967010	1475258841871	1475258841991	O	79
240009	2568126	Sorry it took so long.	Sorry it took so long.	121967016	1475258842275	1475258842386	BKSP	8
240009	2568126	Sorry it took so long.	Sorry it took so long.	121967028	1475258842510	1475258842600	S	83
240009	2568126	Sorry it took so long.	Sorry it took so long.	121967032	1475258842595	1475258842735	o	79
240009	2568126	Sorry it took so long.	Sorry it took so long.	121967034	1475258842808	1475258842895	r	82
240009	2568126	Sorry it took so long.	Sorry it took so long.	121967036	1475258842951	1475258843046	r	82
240009	2568126	Sorry it took so long.	Sorry it took so long.	121967058	1475258843181	1475258843271	y	89
240009	2568126	Sorry it took so long.	Sorry it took so long.	121967063	1475258843252	1475258843370	 	32
240009	2568126	Sorry it took so long.	Sorry it took so long.	121967067	1475258843392	1475258843510	i	73
240009	2568126	Sorry it took so long.	Sorry it took so long.	121967072	1475258843481	1475258843611	t	84
240009	2568126	Sorry it took so long.	Sorry it took so long.	121967111	1475258843579	1475258843714	 	32
240009	2568126	Sorry it took so long.	Sorry it took so long.	121967116	1475258843709	1475258843833	t	84
240009	2568126	Sorry it took so long.	Sorry it took so long.	121967124	1475258843817	1475258843902	o	79
240009	2568126	Sorry it took so long.	Sorry it took so long.	121967130	1475258843964	1475258844042	o	79
240009	2568126	Sorry it took so long.	Sorry it took so long.	121967139	1475258844098	1475258844234	k	75
240009	2568126	Sorry it took so long.	Sorry it took so long.	121967198	1475258844215	1475258844343	 	32
240009	2568126	Sorry it took so long.	Sorry it took so long.	121967201	1475258844365	1475258844466	s	83
240009	2568126	Sorry it took so long.	Sorry it took so long.	121967204	1475258844496	1475258844590	o	79
240009	2568126	Sorry it took so long.	Sorry it took so long.	121967207	1475258844618	1475258844725	 	32
240009	2568126	Sorry it took so long.	Sorry it took so long.	121967212	1475258844738	1475258844852	l	76
240009	2568126	Sorry it took so long.	Sorry it took so long.	121967217	1475258844921	1475258845038	o	79
240009	2568126	Sorry it took so long.	Sorry it took so long.	121967285	1475258844995	1475258845150	n	78
240009	2568126	Sorry it took so long.	Sorry it took so long.	121967292	1475258845146	1475258845269	g	71
240009	2568126	Sorry it took so long.	Sorry it took so long.	121967300	1475258845640	1475258845751	.	190
240009	2568145	Their initial review indicates that the pricing seems low.	Their initial review indicates that the pricing seems low.	121967595	1475258847954	1475258848169	SHIFT	16
240009	2568145	Their initial review indicates that the pricing seems low.	Their initial review indicates that the pricing seems low.	121967602	1475258848140	1475258848310	T	84
240009	2568145	Their initial review indicates that the pricing seems low.	Their initial review indicates that the pricing seems low.	121967610	1475258848248	1475258848355	h	72
240009	2568145	Their initial review indicates that the pricing seems low.	Their initial review indicates that the pricing seems low.	121967625	1475258848849	1475258849016	e	69
240009	2568145	Their initial review indicates that the pricing seems low.	Their initial review indicates that the pricing seems low.	121967639	1475258848999	1475258849103	i	73
240009	2568145	Their initial review indicates that the pricing seems low.	Their initial review indicates that the pricing seems low.	121967652	1475258849113	1475258849246	r	82
240009	2568145	Their initial review indicates that the pricing seems low.	Their initial review indicates that the pricing seems low.	121967724	1475258849208	1475258849335	 	32
240009	2568145	Their initial review indicates that the pricing seems low.	Their initial review indicates that the pricing seems low.	121967731	1475258849429	1475258849514	i	73
240009	2568145	Their initial review indicates that the pricing seems low.	Their initial review indicates that the pricing seems low.	121967740	1475258849560	1475258849667	n	78
240009	2568145	Their initial review indicates that the pricing seems low.	Their initial review indicates that the pricing seems low.	121967747	1475258849736	1475258849863	i	73
240009	2568145	Their initial review indicates that the pricing seems low.	Their initial review indicates that the pricing seems low.	121967752	1475258850003	1475258850122	t	84
240009	2568145	Their initial review indicates that the pricing seems low.	Their initial review indicates that the pricing seems low.	121967757	1475258850194	1475258850280	i	73
240009	2568145	Their initial review indicates that the pricing seems low.	Their initial review indicates that the pricing seems low.	121967820	1475258850322	1475258850433	a	65
240009	2568145	Their initial review indicates that the pricing seems low.	Their initial review indicates that the pricing seems low.	121967828	1475258850508	1475258850638	l	76
240009	2568145	Their initial review indicates that the pricing seems low.	Their initial review indicates that the pricing seems low.	121967835	1475258850665	1475258850789	 	32
240009	2568145	Their initial review indicates that the pricing seems low.	Their initial review indicates that the pricing seems low.	121967841	1475258850987	1475258851141	r	82
240009	2568145	Their initial review indicates that the pricing seems low.	Their initial review indicates that the pricing seems low.	121967943	1475258851106	1475258851253	e	69
240009	2568145	Their initial review indicates that the pricing seems low.	Their initial review indicates that the pricing seems low.	121967949	1475258851354	1475258851481	v	86
240009	2568145	Their initial review indicates that the pricing seems low.	Their initial review indicates that the pricing seems low.	121967957	1475258851523	1475258851616	i	73
240009	2568145	Their initial review indicates that the pricing seems low.	Their initial review indicates that the pricing seems low.	121967966	1475258851611	1475258851728	e	69
240009	2568145	Their initial review indicates that the pricing seems low.	Their initial review indicates that the pricing seems low.	121967975	1475258851854	1475258851981	w	87
240009	2568145	Their initial review indicates that the pricing seems low.	Their initial review indicates that the pricing seems low.	121967987	1475258852086	1475258852203	 	32
240009	2568145	Their initial review indicates that the pricing seems low.	Their initial review indicates that the pricing seems low.	121968088	1475258852285	1475258852377	i	73
240009	2568145	Their initial review indicates that the pricing seems low.	Their initial review indicates that the pricing seems low.	121968098	1475258852928	1475258853003	n	78
240009	2568145	Their initial review indicates that the pricing seems low.	Their initial review indicates that the pricing seems low.	121968105	1475258853115	1475258853206	d	68
240009	2568145	Their initial review indicates that the pricing seems low.	Their initial review indicates that the pricing seems low.	121968113	1475258853238	1475258853336	i	73
240009	2568145	Their initial review indicates that the pricing seems low.	Their initial review indicates that the pricing seems low.	121968126	1475258853402	1475258853493	c	67
240009	2568145	Their initial review indicates that the pricing seems low.	Their initial review indicates that the pricing seems low.	121968193	1475258853632	1475258853779	a	65
240009	2568145	Their initial review indicates that the pricing seems low.	Their initial review indicates that the pricing seems low.	121968197	1475258853877	1475258853968	t	84
240009	2568145	Their initial review indicates that the pricing seems low.	Their initial review indicates that the pricing seems low.	121968203	1475258854064	1475258854210	e	69
240009	2568145	Their initial review indicates that the pricing seems low.	Their initial review indicates that the pricing seems low.	121968209	1475258854263	1475258854404	s	83
240009	2568145	Their initial review indicates that the pricing seems low.	Their initial review indicates that the pricing seems low.	121968241	1475258854394	1475258854566	 	32
240009	2568145	Their initial review indicates that the pricing seems low.	Their initial review indicates that the pricing seems low.	121968244	1475258854544	1475258854661	t	84
240009	2568145	Their initial review indicates that the pricing seems low.	Their initial review indicates that the pricing seems low.	121968250	1475258854689	1475258854814	h	72
240009	2568145	Their initial review indicates that the pricing seems low.	Their initial review indicates that the pricing seems low.	121968253	1475258854792	1475258854886	a	65
240009	2568145	Their initial review indicates that the pricing seems low.	Their initial review indicates that the pricing seems low.	121968255	1475258854840	1475258854972	t	84
240009	2568145	Their initial review indicates that the pricing seems low.	Their initial review indicates that the pricing seems low.	121968304	1475258854961	1475258855079	 	32
240009	2568145	Their initial review indicates that the pricing seems low.	Their initial review indicates that the pricing seems low.	121968305	1475258855060	1475258855173	t	84
240009	2568145	Their initial review indicates that the pricing seems low.	Their initial review indicates that the pricing seems low.	121968306	1475258855183	1475258855252	h	72
240009	2568145	Their initial review indicates that the pricing seems low.	Their initial review indicates that the pricing seems low.	121968309	1475258855321	1475258855484	e	69
240009	2568145	Their initial review indicates that the pricing seems low.	Their initial review indicates that the pricing seems low.	121968315	1475258855448	1475258855562	 	32
240009	2568145	Their initial review indicates that the pricing seems low.	Their initial review indicates that the pricing seems low.	121968321	1475258855615	1475258855778	p	80
240009	2568145	Their initial review indicates that the pricing seems low.	Their initial review indicates that the pricing seems low.	121968679	1475258855772	1475258855863	r	82
240009	2568145	Their initial review indicates that the pricing seems low.	Their initial review indicates that the pricing seems low.	121968686	1475258856015	1475258856154	c	67
240009	2568145	Their initial review indicates that the pricing seems low.	Their initial review indicates that the pricing seems low.	121968695	1475258856135	1475258856259	i	73
240009	2568145	Their initial review indicates that the pricing seems low.	Their initial review indicates that the pricing seems low.	121968703	1475258856590	1475258856707	BKSP	8
240009	2568145	Their initial review indicates that the pricing seems low.	Their initial review indicates that the pricing seems low.	121968709	1475258856762	1475258856867	BKSP	8
240009	2568145	Their initial review indicates that the pricing seems low.	Their initial review indicates that the pricing seems low.	121968715	1475258856929	1475258857043	i	73
240009	2568145	Their initial review indicates that the pricing seems low.	Their initial review indicates that the pricing seems low.	121968722	1475258857271	1475258857385	i	73
240009	2568145	Their initial review indicates that the pricing seems low.	Their initial review indicates that the pricing seems low.	121968727	1475258857652	1475258857782	BKSP	8
240009	2568145	Their initial review indicates that the pricing seems low.	Their initial review indicates that the pricing seems low.	121968733	1475258858650	1475258858778	c	67
240009	2568145	Their initial review indicates that the pricing seems low.	Their initial review indicates that the pricing seems low.	121968740	1475258858816	1475258858943	i	73
240009	2568145	Their initial review indicates that the pricing seems low.	Their initial review indicates that the pricing seems low.	121968747	1475258858953	1475258859130	n	78
240009	2568145	Their initial review indicates that the pricing seems low.	Their initial review indicates that the pricing seems low.	121968756	1475258859084	1475258859253	g	71
240009	2568145	Their initial review indicates that the pricing seems low.	Their initial review indicates that the pricing seems low.	121968766	1475258859244	1475258859365	 	32
240009	2568145	Their initial review indicates that the pricing seems low.	Their initial review indicates that the pricing seems low.	121968773	1475258859437	1475258859553	s	83
240009	2568145	Their initial review indicates that the pricing seems low.	Their initial review indicates that the pricing seems low.	121968866	1475258859580	1475258859688	e	69
240009	2568145	Their initial review indicates that the pricing seems low.	Their initial review indicates that the pricing seems low.	121968869	1475258859747	1475258859828	e	69
240009	2568145	Their initial review indicates that the pricing seems low.	Their initial review indicates that the pricing seems low.	121968876	1475258859829	1475258859965	m	77
240009	2568145	Their initial review indicates that the pricing seems low.	Their initial review indicates that the pricing seems low.	121968883	1475258860002	1475258860112	s	83
240009	2568145	Their initial review indicates that the pricing seems low.	Their initial review indicates that the pricing seems low.	121968891	1475258860302	1475258860433	 	32
240009	2568145	Their initial review indicates that the pricing seems low.	Their initial review indicates that the pricing seems low.	121968964	1475258860449	1475258860541	l	76
240009	2568145	Their initial review indicates that the pricing seems low.	Their initial review indicates that the pricing seems low.	121968980	1475258860619	1475258860750	o	79
240009	2568145	Their initial review indicates that the pricing seems low.	Their initial review indicates that the pricing seems low.	121968992	1475258860734	1475258860841	w	87
240009	2568145	Their initial review indicates that the pricing seems low.	Their initial review indicates that the pricing seems low.	121969004	1475258860916	1475258860982	.	190
240009	2568182	The move was a further twist in the long-running dispute.	The move was a further twist in the long-running dispute.	121969266	1475258863102	1475258863565	SHIFT	16
240009	2568182	The move was a further twist in the long-running dispute.	The move was a further twist in the long-running dispute.	121969269	1475258863478	1475258863601	T	84
240009	2568182	The move was a further twist in the long-running dispute.	The move was a further twist in the long-running dispute.	121969274	1475258863527	1475258863657	H	72
240009	2568182	The move was a further twist in the long-running dispute.	The move was a further twist in the long-running dispute.	121969280	1475258863712	1475258863803	e	69
240009	2568182	The move was a further twist in the long-running dispute.	The move was a further twist in the long-running dispute.	121969284	1475258863764	1475258863908	 	32
240009	2568182	The move was a further twist in the long-running dispute.	The move was a further twist in the long-running dispute.	121969293	1475258863990	1475258864114	m	77
240009	2568182	The move was a further twist in the long-running dispute.	The move was a further twist in the long-running dispute.	121969496	1475258864108	1475258864219	o	79
240009	2568182	The move was a further twist in the long-running dispute.	The move was a further twist in the long-running dispute.	121969502	1475258864399	1475258864516	BKSP	8
240009	2568182	The move was a further twist in the long-running dispute.	The move was a further twist in the long-running dispute.	121969512	1475258864546	1475258864633	BKSP	8
240009	2568182	The move was a further twist in the long-running dispute.	The move was a further twist in the long-running dispute.	121969519	1475258864789	1475258864870	BKSP	8
240009	2568182	The move was a further twist in the long-running dispute.	The move was a further twist in the long-running dispute.	121969526	1475258864942	1475258865013	BKSP	8
240009	2568182	The move was a further twist in the long-running dispute.	The move was a further twist in the long-running dispute.	121969533	1475258865079	1475258865176	BKSP	8
240009	2568182	The move was a further twist in the long-running dispute.	The move was a further twist in the long-running dispute.	121969545	1475258865270	1475258865377	h	72
240009	2568182	The move was a further twist in the long-running dispute.	The move was a further twist in the long-running dispute.	121969551	1475258865384	1475258865544	e	69
240009	2568182	The move was a further twist in the long-running dispute.	The move was a further twist in the long-running dispute.	121969561	1475258865509	1475258865662	 	32
240009	2568182	The move was a further twist in the long-running dispute.	The move was a further twist in the long-running dispute.	121969572	1475258865698	1475258865836	m	77
240009	2568182	The move was a further twist in the long-running dispute.	The move was a further twist in the long-running dispute.	121969532	1475258865825	1475258865968	o	79
240009	2568182	The move was a further twist in the long-running dispute.	The move was a further twist in the long-running dispute.	121969538	1475258865897	1475258866043	v	86
240009	2568182	The move was a further twist in the long-running dispute.	The move was a further twist in the long-running dispute.	121969542	1475258866008	1475258866190	e	69
240009	2568182	The move was a further twist in the long-running dispute.	The move was a further twist in the long-running dispute.	121969550	1475258866161	1475258866295	 	32
240009	2568182	The move was a further twist in the long-running dispute.	The move was a further twist in the long-running dispute.	121969562	1475258866286	1475258866442	w	87
240009	2568182	The move was a further twist in the long-running dispute.	The move was a further twist in the long-running dispute.	121969636	1475258866416	1475258866562	a	65
240009	2568182	The move was a further twist in the long-running dispute.	The move was a further twist in the long-running dispute.	121969646	1475258866652	1475258866812	s	83
240009	2568182	The move was a further twist in the long-running dispute.	The move was a further twist in the long-running dispute.	121969654	1475258866766	1475258866890	 	32
240009	2568182	The move was a further twist in the long-running dispute.	The move was a further twist in the long-running dispute.	121969663	1475258866916	1475258867046	a	65
240009	2568182	The move was a further twist in the long-running dispute.	The move was a further twist in the long-running dispute.	121969670	1475258867031	1475258867170	 	32
240009	2568182	The move was a further twist in the long-running dispute.	The move was a further twist in the long-running dispute.	121969721	1475258867145	1475258867291	f	70
240009	2568182	The move was a further twist in the long-running dispute.	The move was a further twist in the long-running dispute.	121969725	1475258867311	1475258867390	u	85
240009	2568182	The move was a further twist in the long-running dispute.	The move was a further twist in the long-running dispute.	121969734	1475258867455	1475258867549	r	82
240009	2568182	The move was a further twist in the long-running dispute.	The move was a further twist in the long-running dispute.	121969740	1475258867645	1475258867723	t	84
240009	2568182	The move was a further twist in the long-running dispute.	The move was a further twist in the long-running dispute.	121969747	1475258867697	1475258867831	h	72
240009	2568182	The move was a further twist in the long-running dispute.	The move was a further twist in the long-running dispute.	121969754	1475258867867	1475258868056	e	69
240009	2568182	The move was a further twist in the long-running dispute.	The move was a further twist in the long-running dispute.	121969808	1475258868001	1475258868121	r	82
240009	2568182	The move was a further twist in the long-running dispute.	The move was a further twist in the long-running dispute.	121969815	1475258868063	1475258868213	 	32
240009	2568182	The move was a further twist in the long-running dispute.	The move was a further twist in the long-running dispute.	121969821	1475258868285	1475258868389	t	84
240009	2568182	The move was a further twist in the long-running dispute.	The move was a further twist in the long-running dispute.	121969830	1475258868483	1475258868613	w	87
240009	2568182	The move was a further twist in the long-running dispute.	The move was a further twist in the long-running dispute.	121969838	1475258868607	1475258868702	i	73
240009	2568182	The move was a further twist in the long-running dispute.	The move was a further twist in the long-running dispute.	121969845	1475258868764	1475258868931	s	83
240009	2568182	The move was a further twist in the long-running dispute.	The move was a further twist in the long-running dispute.	121969868	1475258868950	1475258869064	t	84
240009	2568182	The move was a further twist in the long-running dispute.	The move was a further twist in the long-running dispute.	121969872	1475258869070	1475258869181	 	32
240009	2568182	The move was a further twist in the long-running dispute.	The move was a further twist in the long-running dispute.	121969880	1475258869208	1475258869299	i	73
240009	2568182	The move was a further twist in the long-running dispute.	The move was a further twist in the long-running dispute.	121969887	1475258869335	1475258869449	n	78
240009	2568182	The move was a further twist in the long-running dispute.	The move was a further twist in the long-running dispute.	121969893	1475258869522	1475258869655	 	32
240009	2568182	The move was a further twist in the long-running dispute.	The move was a further twist in the long-running dispute.	121969969	1475258869639	1475258869730	t	84
240009	2568182	The move was a further twist in the long-running dispute.	The move was a further twist in the long-running dispute.	121969975	1475258869753	1475258869851	h	72
240009	2568182	The move was a further twist in the long-running dispute.	The move was a further twist in the long-running dispute.	121969984	1475258869858	1475258870001	e	69
240009	2568182	The move was a further twist in the long-running dispute.	The move was a further twist in the long-running dispute.	121969992	1475258869946	1475258870067	 	32
240009	2568182	The move was a further twist in the long-running dispute.	The move was a further twist in the long-running dispute.	121970001	1475258870113	1475258870219	l	76
240009	2568182	The move was a further twist in the long-running dispute.	The move was a further twist in the long-running dispute.	121970009	1475258870310	1475258870411	o	79
240009	2568182	The move was a further twist in the long-running dispute.	The move was a further twist in the long-running dispute.	121970546	1475258870386	1475258870548	n	78
240009	2568182	The move was a further twist in the long-running dispute.	The move was a further twist in the long-running dispute.	121970554	1475258870509	1475258870604	g	71
240009	2568182	The move was a further twist in the long-running dispute.	The move was a further twist in the long-running dispute.	121970562	1475258870703	1475258870808	0	48
240009	2568182	The move was a further twist in the long-running dispute.	The move was a further twist in the long-running dispute.	121970569	1475258871457	1475258871587	BKSP	8
240009	2568182	The move was a further twist in the long-running dispute.	The move was a further twist in the long-running dispute.	121970580	1475258871981	1475258872112	=	187
240009	2568182	The move was a further twist in the long-running dispute.	The move was a further twist in the long-running dispute.	121970589	1475258872496	1475258872623	BKSP	8
240009	2568182	The move was a further twist in the long-running dispute.	The move was a further twist in the long-running dispute.	121970599	1475258872678	1475258872821	-	189
240009	2568182	The move was a further twist in the long-running dispute.	The move was a further twist in the long-running dispute.	121970612	1475258873414	1475258873577	BKSP	8
240009	2568182	The move was a further twist in the long-running dispute.	The move was a further twist in the long-running dispute.	121970621	1475258874866	1475258875020	-	189
240009	2568182	The move was a further twist in the long-running dispute.	The move was a further twist in the long-running dispute.	121970663	1475258875478	1475258875588	r	82
240009	2568182	The move was a further twist in the long-running dispute.	The move was a further twist in the long-running dispute.	121970670	1475258875657	1475258875748	u	85
240009	2568182	The move was a further twist in the long-running dispute.	The move was a further twist in the long-running dispute.	121970679	1475258875807	1475258875902	n	78
240009	2568182	The move was a further twist in the long-running dispute.	The move was a further twist in the long-running dispute.	121970683	1475258875947	1475258876042	n	78
240009	2568182	The move was a further twist in the long-running dispute.	The move was a further twist in the long-running dispute.	121970767	1475258876036	1475258876173	i	73
240009	2568182	The move was a further twist in the long-running dispute.	The move was a further twist in the long-running dispute.	121970776	1475258876137	1475258876270	n	78
240009	2568182	The move was a further twist in the long-running dispute.	The move was a further twist in the long-running dispute.	121970782	1475258876179	1475258876302	g	71
240009	2568182	The move was a further twist in the long-running dispute.	The move was a further twist in the long-running dispute.	121970792	1475258876287	1475258876411	 	32
240009	2568182	The move was a further twist in the long-running dispute.	The move was a further twist in the long-running dispute.	121970799	1475258876605	1475258876690	s	83
240009	2568182	The move was a further twist in the long-running dispute.	The move was a further twist in the long-running dispute.	121970804	1475258876862	1475258876995	BKSP	8
240009	2568182	The move was a further twist in the long-running dispute.	The move was a further twist in the long-running dispute.	121970807	1475258877025	1475258877133	d	68
240009	2568182	The move was a further twist in the long-running dispute.	The move was a further twist in the long-running dispute.	121971009	1475258877123	1475258877261	i	73
240009	2568182	The move was a further twist in the long-running dispute.	The move was a further twist in the long-running dispute.	121971018	1475258877257	1475258877371	s	83
240009	2568182	The move was a further twist in the long-running dispute.	The move was a further twist in the long-running dispute.	121971031	1475258877387	1475258877479	u	85
240009	2568182	The move was a further twist in the long-running dispute.	The move was a further twist in the long-running dispute.	121971040	1475258877820	1475258877972	p	80
240009	2568182	The move was a further twist in the long-running dispute.	The move was a further twist in the long-running dispute.	121971047	1475258878275	1475258878379	BKSP	8
240009	2568182	The move was a further twist in the long-running dispute.	The move was a further twist in the long-running dispute.	121971055	1475258878451	1475258878569	BKSP	8
240009	2568182	The move was a further twist in the long-running dispute.	The move was a further twist in the long-running dispute.	121971063	1475258878755	1475258878895	p	80
240009	2568182	The move was a further twist in the long-running dispute.	The move was a further twist in the long-running dispute.	121971071	1475258879194	1475258879308	u	85
240009	2568182	The move was a further twist in the long-running dispute.	The move was a further twist in the long-running dispute.	121971176	1475258880506	1475258880602	t	84
240009	2568182	The move was a further twist in the long-running dispute.	The move was a further twist in the long-running dispute.	121971179	1475258880694	1475258880860	e	69
240009	2568182	The move was a further twist in the long-running dispute.	The move was a further twist in the long-running dispute.	121971188	1475258880845	1475258881008	.	190
240009	2568227	There are several business issues outstanding.	There are several business issues outstanding.	121971542	1475258884246	1475258884614	SHIFT	16
240009	2568227	There are several business issues outstanding.	There are several business issues outstanding.	121971550	1475258884566	1475258884693	T	84
240009	2568227	There are several business issues outstanding.	There are several business issues outstanding.	121971554	1475258884651	1475258884781	h	72
240009	2568227	There are several business issues outstanding.	There are several business issues outstanding.	121971561	1475258884775	1475258884970	e	69
240009	2568227	There are several business issues outstanding.	There are several business issues outstanding.	121971568	1475258884927	1475258885111	r	82
240009	2568227	There are several business issues outstanding.	There are several business issues outstanding.	121971576	1475258885340	1475258885495	e	69
240009	2568227	There are several business issues outstanding.	There are several business issues outstanding.	121971675	1475258885484	1475258885647	 	32
240009	2568227	There are several business issues outstanding.	There are several business issues outstanding.	121971680	1475258885663	1475258885797	a	65
240009	2568227	There are several business issues outstanding.	There are several business issues outstanding.	121971685	1475258885803	1475258885977	r	82
240009	2568227	There are several business issues outstanding.	There are several business issues outstanding.	121971691	1475258885967	1475258886136	e	69
240009	2568227	There are several business issues outstanding.	There are several business issues outstanding.	121971698	1475258886107	1475258886267	 	32
240009	2568227	There are several business issues outstanding.	There are several business issues outstanding.	121971707	1475258886323	1475258886486	s	83
240009	2568227	There are several business issues outstanding.	There are several business issues outstanding.	121971761	1475258886437	1475258886554	e	69
240009	2568227	There are several business issues outstanding.	There are several business issues outstanding.	121971767	1475258886641	1475258886785	v	86
240009	2568227	There are several business issues outstanding.	There are several business issues outstanding.	121971773	1475258886771	1475258886953	e	69
240009	2568227	There are several business issues outstanding.	There are several business issues outstanding.	121971780	1475258886925	1475258887062	r	82
240009	2568227	There are several business issues outstanding.	There are several business issues outstanding.	121971784	1475258887108	1475258887254	a	65
240009	2568227	There are several business issues outstanding.	There are several business issues outstanding.	121971787	1475258887255	1475258887372	l	76
240009	2568227	There are several business issues outstanding.	There are several business issues outstanding.	121971839	1475258887376	1475258887496	 	32
240009	2568227	There are several business issues outstanding.	There are several business issues outstanding.	121971841	1475258887532	1475258887646	b	66
240009	2568227	There are several business issues outstanding.	There are several business issues outstanding.	121971842	1475258887672	1475258887751	u	85
240009	2568227	There are several business issues outstanding.	There are several business issues outstanding.	121971844	1475258887829	1475258887893	s	83
240009	2568227	There are several business issues outstanding.	There are several business issues outstanding.	121971846	1475258887963	1475258888038	s	83
240009	2568227	There are several business issues outstanding.	There are several business issues outstanding.	121971954	1475258888342	1475258888483	BKSP	8
240009	2568227	There are several business issues outstanding.	There are several business issues outstanding.	121971967	1475258888593	1475258888651	i	73
240009	2568227	There are several business issues outstanding.	There are several business issues outstanding.	121971977	1475258888743	1475258888867	n	78
240009	2568227	There are several business issues outstanding.	There are several business issues outstanding.	121971991	1475258888890	1475258889020	e	69
240009	2568227	There are several business issues outstanding.	There are several business issues outstanding.	121972003	1475258889092	1475258889177	s	83
240009	2568227	There are several business issues outstanding.	There are several business issues outstanding.	121972010	1475258889255	1475258889385	s	83
240009	2568227	There are several business issues outstanding.	There are several business issues outstanding.	121972072	1475258889357	1475258889477	 	32
240009	2568227	There are several business issues outstanding.	There are several business issues outstanding.	121972073	1475258889510	1475258889604	i	73
240009	2568227	There are several business issues outstanding.	There are several business issues outstanding.	121972080	1475258889631	1475258889689	s	83
240009	2568227	There are several business issues outstanding.	There are several business issues outstanding.	121972084	1475258889768	1475258889846	s	83
240009	2568227	There are several business issues outstanding.	There are several business issues outstanding.	121972090	1475258889943	1475258890034	u	85
240009	2568227	There are several business issues outstanding.	There are several business issues outstanding.	121972097	1475258890060	1475258890184	e	69
240009	2568227	There are several business issues outstanding.	There are several business issues outstanding.	121972156	1475258890250	1475258890355	s	83
240009	2568227	There are several business issues outstanding.	There are several business issues outstanding.	121972160	1475258890374	1475258890508	 	32
240009	2568227	There are several business issues outstanding.	There are several business issues outstanding.	121972163	1475258890590	1475258890708	o	79
240009	2568227	There are several business issues outstanding.	There are several business issues outstanding.	121972168	1475258890767	1475258890874	u	85
240009	2568227	There are several business issues outstanding.	There are several business issues outstanding.	121972174	1475258890877	1475258890988	t	84
240009	2568227	There are several business issues outstanding.	There are several business issues outstanding.	121972291	1475258891105	1475258891212	s	83
240009	2568227	There are several business issues outstanding.	There are several business issues outstanding.	121972294	1475258891370	1475258891487	t	84
240009	2568227	There are several business issues outstanding.	There are several business issues outstanding.	121972299	1475258891540	1475258891653	n	78
240009	2568227	There are several business issues outstanding.	There are several business issues outstanding.	121972306	1475258891608	1475258891735	a	65
240009	2568227	There are several business issues outstanding.	There are several business issues outstanding.	121972312	1475258891991	1475258892079	BKSP	8
240009	2568227	There are several business issues outstanding.	There are several business issues outstanding.	121972318	1475258892144	1475258892261	BKSP	8
240009	2568227	There are several business issues outstanding.	There are several business issues outstanding.	121972360	1475258892216	1475258892363	a	65
240009	2568227	There are several business issues outstanding.	There are several business issues outstanding.	121972364	1475258892396	1475258892533	n	78
240009	2568227	There are several business issues outstanding.	There are several business issues outstanding.	121972367	1475258892556	1475258892679	d	68
240009	2568227	There are several business issues outstanding.	There are several business issues outstanding.	121972371	1475258892673	1475258892794	i	73
240009	2568227	There are several business issues outstanding.	There are several business issues outstanding.	121972374	1475258892810	1475258892969	n	78
240009	2568227	There are several business issues outstanding.	There are several business issues outstanding.	121972485	1475258892958	1475258893071	g	71
240009	2568227	There are several business issues outstanding.	There are several business issues outstanding.	121972489	1475258893709	1475258893796	.	190
240009	2568258	Tests Monday showed no structural damage to his shoulder.	Tests Monday showed no structural damage to his shoulder.	121972826	1475258896189	1475258896865	SHIFT	16
240009	2568258	Tests Monday showed no structural damage to his shoulder.	Tests Monday showed no structural damage to his shoulder.	121972832	1475258896794	1475258896930	T	84
240009	2568258	Tests Monday showed no structural damage to his shoulder.	Tests Monday showed no structural damage to his shoulder.	121972841	1475258896973	1475258897126	e	69
240009	2568258	Tests Monday showed no structural damage to his shoulder.	Tests Monday showed no structural damage to his shoulder.	121972848	1475258897133	1475258897306	s	83
240009	2568258	Tests Monday showed no structural damage to his shoulder.	Tests Monday showed no structural damage to his shoulder.	121972852	1475258897591	1475258897699	t	84
240009	2568258	Tests Monday showed no structural damage to his shoulder.	Tests Monday showed no structural damage to his shoulder.	121972858	1475258897819	1475258897937	 	32
240009	2568258	Tests Monday showed no structural damage to his shoulder.	Tests Monday showed no structural damage to his shoulder.	121972922	1475258898166	1475258898254	BKSP	8
240009	2568258	Tests Monday showed no structural damage to his shoulder.	Tests Monday showed no structural damage to his shoulder.	121972930	1475258898290	1475258898429	s	83
240009	2568258	Tests Monday showed no structural damage to his shoulder.	Tests Monday showed no structural damage to his shoulder.	121972939	1475258898367	1475258898536	 	32
240009	2568258	Tests Monday showed no structural damage to his shoulder.	Tests Monday showed no structural damage to his shoulder.	121972948	1475258898527	1475258898642	m	77
240009	2568258	Tests Monday showed no structural damage to his shoulder.	Tests Monday showed no structural damage to his shoulder.	121972958	1475258898681	1475258898841	o	79
240009	2568258	Tests Monday showed no structural damage to his shoulder.	Tests Monday showed no structural damage to his shoulder.	121973232	1475258898782	1475258898893	n	78
240009	2568258	Tests Monday showed no structural damage to his shoulder.	Tests Monday showed no structural damage to his shoulder.	121973239	1475258899051	1475258899149	BKSP	8
240009	2568258	Tests Monday showed no structural damage to his shoulder.	Tests Monday showed no structural damage to his shoulder.	121973248	1475258899191	1475258899309	BKSP	8
240009	2568258	Tests Monday showed no structural damage to his shoulder.	Tests Monday showed no structural damage to his shoulder.	121973293	1475258899322	1475258900674	SHIFT	16
240009	2568258	Tests Monday showed no structural damage to his shoulder.	Tests Monday showed no structural damage to his shoulder.	121973257	1475258899381	1475258899502	M	77
240009	2568258	Tests Monday showed no structural damage to his shoulder.	Tests Monday showed no structural damage to his shoulder.	121973266	1475258899534	1475258899623	O	79
240009	2568258	Tests Monday showed no structural damage to his shoulder.	Tests Monday showed no structural damage to his shoulder.	121973274	1475258899760	1475258899848	BKSP	8
240009	2568258	Tests Monday showed no structural damage to his shoulder.	Tests Monday showed no structural damage to his shoulder.	121973282	1475258899913	1475258900037	BKSP	8
240009	2568258	Tests Monday showed no structural damage to his shoulder.	Tests Monday showed no structural damage to his shoulder.	121973286	1475258900246	1475258900377	BKSP	8
240009	2568258	Tests Monday showed no structural damage to his shoulder.	Tests Monday showed no structural damage to his shoulder.	121973291	1475258900400	1475258900507	M	77
240009	2568258	Tests Monday showed no structural damage to his shoulder.	Tests Monday showed no structural damage to his shoulder.	121973297	1475258900596	1475258900733	O	79
240009	2568258	Tests Monday showed no structural damage to his shoulder.	Tests Monday showed no structural damage to his shoulder.	121973300	1475258900901	1475258901018	n	78
240009	2568258	Tests Monday showed no structural damage to his shoulder.	Tests Monday showed no structural damage to his shoulder.	121973351	1475258901163	1475258901255	BKSP	8
240009	2568258	Tests Monday showed no structural damage to his shoulder.	Tests Monday showed no structural damage to his shoulder.	121973358	1475258901313	1475258901415	BKSP	8
240009	2568258	Tests Monday showed no structural damage to his shoulder.	Tests Monday showed no structural damage to his shoulder.	121973365	1475258901487	1475258901650	o	79
240009	2568258	Tests Monday showed no structural damage to his shoulder.	Tests Monday showed no structural damage to his shoulder.	121973368	1475258901601	1475258901740	n	78
240009	2568258	Tests Monday showed no structural damage to his shoulder.	Tests Monday showed no structural damage to his shoulder.	121973374	1475258901735	1475258901881	d	68
240009	2568258	Tests Monday showed no structural damage to his shoulder.	Tests Monday showed no structural damage to his shoulder.	121973379	1475258901947	1475258902120	a	65
240009	2568258	Tests Monday showed no structural damage to his shoulder.	Tests Monday showed no structural damage to his shoulder.	121973385	1475258902269	1475258902390	 	32
240009	2568258	Tests Monday showed no structural damage to his shoulder.	Tests Monday showed no structural damage to his shoulder.	121973558	1475258902675	1475258902789	BKSP	8
240009	2568258	Tests Monday showed no structural damage to his shoulder.	Tests Monday showed no structural damage to his shoulder.	121973563	1475258902844	1475258902958	u	85
240009	2568258	Tests Monday showed no structural damage to his shoulder.	Tests Monday showed no structural damage to his shoulder.	121973571	1475258903002	1475258903163	 	32
240009	2568258	Tests Monday showed no structural damage to his shoulder.	Tests Monday showed no structural damage to his shoulder.	121973574	1475258903154	1475258903278	s	83
240009	2568258	Tests Monday showed no structural damage to his shoulder.	Tests Monday showed no structural damage to his shoulder.	121973580	1475258903256	1475258903360	h	72
240009	2568258	Tests Monday showed no structural damage to his shoulder.	Tests Monday showed no structural damage to his shoulder.	121973584	1475258903798	1475258903903	BKSP	8
240009	2568258	Tests Monday showed no structural damage to his shoulder.	Tests Monday showed no structural damage to his shoulder.	121973589	1475258903978	1475258904062	BKSP	8
240009	2568258	Tests Monday showed no structural damage to his shoulder.	Tests Monday showed no structural damage to his shoulder.	121973592	1475258904128	1475258904219	BKSP	8
240009	2568258	Tests Monday showed no structural damage to his shoulder.	Tests Monday showed no structural damage to his shoulder.	121973597	1475258904271	1475258904398	BKSP	8
240009	2568258	Tests Monday showed no structural damage to his shoulder.	Tests Monday showed no structural damage to his shoulder.	121973679	1475258904373	1475258904487	y	89
240009	2568258	Tests Monday showed no structural damage to his shoulder.	Tests Monday showed no structural damage to his shoulder.	121973685	1475258904850	1475258904981	 	32
240009	2568258	Tests Monday showed no structural damage to his shoulder.	Tests Monday showed no structural damage to his shoulder.	121973691	1475258905108	1475258905185	s	83
240009	2568258	Tests Monday showed no structural damage to his shoulder.	Tests Monday showed no structural damage to his shoulder.	121973697	1475258905235	1475258905332	h	72
240009	2568258	Tests Monday showed no structural damage to his shoulder.	Tests Monday showed no structural damage to his shoulder.	121973701	1475258905834	1475258905968	o	79
240009	2568258	Tests Monday showed no structural damage to his shoulder.	Tests Monday showed no structural damage to his shoulder.	121973706	1475258905971	1475258906124	w	87
240009	2568258	Tests Monday showed no structural damage to his shoulder.	Tests Monday showed no structural damage to his shoulder.	121973765	1475258906085	1475258906216	e	69
240009	2568258	Tests Monday showed no structural damage to his shoulder.	Tests Monday showed no structural damage to his shoulder.	121973771	1475258906315	1475258906488	d	68
240009	2568258	Tests Monday showed no structural damage to his shoulder.	Tests Monday showed no structural damage to his shoulder.	121973779	1475258906469	1475258906617	 	32
240009	2568258	Tests Monday showed no structural damage to his shoulder.	Tests Monday showed no structural damage to his shoulder.	121973787	1475258906643	1475258906772	n	78
240009	2568258	Tests Monday showed no structural damage to his shoulder.	Tests Monday showed no structural damage to his shoulder.	121973794	1475258906741	1475258906897	o	79
240009	2568258	Tests Monday showed no structural damage to his shoulder.	Tests Monday showed no structural damage to his shoulder.	121973803	1475258906900	1475258907037	 	32
240009	2568258	Tests Monday showed no structural damage to his shoulder.	Tests Monday showed no structural damage to his shoulder.	121973896	1475258907173	1475258907287	s	83
240009	2568258	Tests Monday showed no structural damage to his shoulder.	Tests Monday showed no structural damage to his shoulder.	121973907	1475258907380	1475258907465	t	84
240009	2568258	Tests Monday showed no structural damage to his shoulder.	Tests Monday showed no structural damage to his shoulder.	121973919	1475258907597	1475258907721	r	82
240009	2568258	Tests Monday showed no structural damage to his shoulder.	Tests Monday showed no structural damage to his shoulder.	121973928	1475258907853	1475258907940	u	85
240009	2568258	Tests Monday showed no structural damage to his shoulder.	Tests Monday showed no structural damage to his shoulder.	121973934	1475258908147	1475258908250	c	67
240009	2568258	Tests Monday showed no structural damage to his shoulder.	Tests Monday showed no structural damage to his shoulder.	121974002	1475258908373	1475258908507	t	84
240009	2568258	Tests Monday showed no structural damage to his shoulder.	Tests Monday showed no structural damage to his shoulder.	121974006	1475258908830	1475258908921	u	85
240009	2568258	Tests Monday showed no structural damage to his shoulder.	Tests Monday showed no structural damage to his shoulder.	121974013	1475258909030	1475258909118	r	82
240009	2568258	Tests Monday showed no structural damage to his shoulder.	Tests Monday showed no structural damage to his shoulder.	121974018	1475258909265	1475258909432	a	65
240009	2568258	Tests Monday showed no structural damage to his shoulder.	Tests Monday showed no structural damage to his shoulder.	121974074	1475258909419	1475258909559	l	76
240009	2568258	Tests Monday showed no structural damage to his shoulder.	Tests Monday showed no structural damage to his shoulder.	121974077	1475258909612	1475258909791	 	32
240009	2568258	Tests Monday showed no structural damage to his shoulder.	Tests Monday showed no structural damage to his shoulder.	121974083	1475258909814	1475258909940	d	68
240009	2568258	Tests Monday showed no structural damage to his shoulder.	Tests Monday showed no structural damage to his shoulder.	121974089	1475258909912	1475258910084	a	65
240009	2568258	Tests Monday showed no structural damage to his shoulder.	Tests Monday showed no structural damage to his shoulder.	121974096	1475258910036	1475258910175	m	77
240009	2568258	Tests Monday showed no structural damage to his shoulder.	Tests Monday showed no structural damage to his shoulder.	121974104	1475258910216	1475258910326	g	71
240009	2568258	Tests Monday showed no structural damage to his shoulder.	Tests Monday showed no structural damage to his shoulder.	121974311	1475258910437	1475258910545	e	69
240009	2568258	Tests Monday showed no structural damage to his shoulder.	Tests Monday showed no structural damage to his shoulder.	121974317	1475258911580	1475258911660	BKSP	8
240009	2568258	Tests Monday showed no structural damage to his shoulder.	Tests Monday showed no structural damage to his shoulder.	121974321	1475258911776	1475258911881	BKSP	8
240009	2568258	Tests Monday showed no structural damage to his shoulder.	Tests Monday showed no structural damage to his shoulder.	121974328	1475258911887	1475258912031	a	65
240009	2568258	Tests Monday showed no structural damage to his shoulder.	Tests Monday showed no structural damage to his shoulder.	121974334	1475258912349	1475258912424	g	71
240009	2568258	Tests Monday showed no structural damage to his shoulder.	Tests Monday showed no structural damage to his shoulder.	121974339	1475258912586	1475258912746	e	69
240009	2568258	Tests Monday showed no structural damage to his shoulder.	Tests Monday showed no structural damage to his shoulder.	121974359	1475258912740	1475258912886	 	32
240009	2568258	Tests Monday showed no structural damage to his shoulder.	Tests Monday showed no structural damage to his shoulder.	121974364	1475258912877	1475258912991	t	84
240009	2568258	Tests Monday showed no structural damage to his shoulder.	Tests Monday showed no structural damage to his shoulder.	121974371	1475258913020	1475258913121	o	79
240009	2568258	Tests Monday showed no structural damage to his shoulder.	Tests Monday showed no structural damage to his shoulder.	121974379	1475258913053	1475258913187	 	32
240009	2568258	Tests Monday showed no structural damage to his shoulder.	Tests Monday showed no structural damage to his shoulder.	121974387	1475258913233	1475258913375	h	72
240009	2568258	Tests Monday showed no structural damage to his shoulder.	Tests Monday showed no structural damage to his shoulder.	121974445	1475258913340	1475258913530	i	73
240009	2568258	Tests Monday showed no structural damage to his shoulder.	Tests Monday showed no structural damage to his shoulder.	121974452	1475258913500	1475258913601	s	83
240009	2568258	Tests Monday showed no structural damage to his shoulder.	Tests Monday showed no structural damage to his shoulder.	121974460	1475258913549	1475258913683	 	32
240009	2568258	Tests Monday showed no structural damage to his shoulder.	Tests Monday showed no structural damage to his shoulder.	121974467	1475258913810	1475258913908	s	83
240009	2568258	Tests Monday showed no structural damage to his shoulder.	Tests Monday showed no structural damage to his shoulder.	121974476	1475258913865	1475258914003	h	72
240009	2568258	Tests Monday showed no structural damage to his shoulder.	Tests Monday showed no structural damage to his shoulder.	121974489	1475258914025	1475258914183	o	79
240009	2568258	Tests Monday showed no structural damage to his shoulder.	Tests Monday showed no structural damage to his shoulder.	121974560	1475258914172	1475258914277	u	85
240009	2568258	Tests Monday showed no structural damage to his shoulder.	Tests Monday showed no structural damage to his shoulder.	121974566	1475258914365	1475258914506	l	76
240009	2568258	Tests Monday showed no structural damage to his shoulder.	Tests Monday showed no structural damage to his shoulder.	121974576	1475258914562	1475258914663	d	68
240009	2568258	Tests Monday showed no structural damage to his shoulder.	Tests Monday showed no structural damage to his shoulder.	121974589	1475258914777	1475258914929	e	69
240009	2568258	Tests Monday showed no structural damage to his shoulder.	Tests Monday showed no structural damage to his shoulder.	121974600	1475258914876	1475258914985	r	82
240009	2568258	Tests Monday showed no structural damage to his shoulder.	Tests Monday showed no structural damage to his shoulder.	121974611	1475258915021	1475258915112	.	190
240009	2568297	Is this the only time available?	Is this the only time avilable?	121974848	1475258916971	1475258917253	SHIFT	16
240009	2568297	Is this the only time available?	Is this the only time avilable?	121974852	1475258917148	1475258917292	I	73
240009	2568297	Is this the only time available?	Is this the only time avilable?	121974857	1475258917283	1475258917415	s	83
240009	2568297	Is this the only time available?	Is this the only time avilable?	121974864	1475258917397	1475258917582	 	32
240009	2568297	Is this the only time available?	Is this the only time avilable?	121974871	1475258917557	1475258917707	t	84
240009	2568297	Is this the only time available?	Is this the only time avilable?	121974903	1475258917668	1475258917818	h	72
240009	2568297	Is this the only time available?	Is this the only time avilable?	121974907	1475258917820	1475258917962	i	73
240009	2568297	Is this the only time available?	Is this the only time avilable?	121974909	1475258917946	1475258918049	s	83
240009	2568297	Is this the only time available?	Is this the only time avilable?	121974912	1475258918007	1475258918163	 	32
240009	2568297	Is this the only time available?	Is this the only time avilable?	121974914	1475258918141	1475258918274	t	84
240009	2568297	Is this the only time available?	Is this the only time avilable?	121974964	1475258918255	1475258918373	h	72
240009	2568297	Is this the only time available?	Is this the only time avilable?	121974967	1475258918386	1475258918520	e	69
240009	2568297	Is this the only time available?	Is this the only time avilable?	121974969	1475258918497	1475258918604	 	32
240009	2568297	Is this the only time available?	Is this the only time avilable?	121974973	1475258918555	1475258918689	o	79
240009	2568297	Is this the only time available?	Is this the only time avilable?	121974978	1475258918664	1475258918787	n	78
240009	2568297	Is this the only time available?	Is this the only time avilable?	121974983	1475258918824	1475258918971	l	76
240009	2568297	Is this the only time available?	Is this the only time avilable?	121975044	1475258919252	1475258919374	y	89
240009	2568297	Is this the only time available?	Is this the only time avilable?	121975048	1475258919369	1475258919506	 	32
240009	2568297	Is this the only time available?	Is this the only time avilable?	121975058	1475258919513	1475258919626	t	84
240009	2568297	Is this the only time available?	Is this the only time avilable?	121975069	1475258919607	1475258919689	i	73
240009	2568297	Is this the only time available?	Is this the only time avilable?	121975077	1475258919767	1475258919898	m	77
240009	2568297	Is this the only time available?	Is this the only time avilable?	121975195	1475258919849	1475258919999	e	69
240009	2568297	Is this the only time available?	Is this the only time avilable?	121975202	1475258920018	1475258920110	 	32
240009	2568297	Is this the only time available?	Is this the only time avilable?	121975204	1475258920084	1475258920250	a	65
240009	2568297	Is this the only time available?	Is this the only time avilable?	121975207	1475258920716	1475258920826	v	86
240009	2568297	Is this the only time available?	Is this the only time avilable?	121975209	1475258920882	1475258920993	i	73
240009	2568297	Is this the only time available?	Is this the only time avilable?	121975210	1475258921363	1475258921477	l	76
240009	2568297	Is this the only time available?	Is this the only time avilable?	121975308	1475258921510	1475258921679	a	65
240009	2568297	Is this the only time available?	Is this the only time avilable?	121975315	1475258921663	1475258921745	b	66
240009	2568297	Is this the only time available?	Is this the only time avilable?	121975320	1475258921841	1475258921952	e	69
240009	2568297	Is this the only time available?	Is this the only time avilable?	121975326	1475258922261	1475258922316	BKSP	8
240009	2568297	Is this the only time available?	Is this the only time avilable?	121975334	1475258922664	1475258922807	l	76
240009	2568297	Is this the only time available?	Is this the only time avilable?	121975708	1475258922801	1475258922911	e	69
240009	2568297	Is this the only time available?	Is this the only time avilable?	121975716	1475258923146	1475258923290	/	191
240009	2568297	Is this the only time available?	Is this the only time avilable?	121975721	1475258923195	1475258923460	SHIFT	16
240009	2568297	Is this the only time available?	Is this the only time avilable?	121975726	1475258923864	1475258923994	\	220
240009	2568297	Is this the only time available?	Is this the only time avilable?	121975728	1475258924108	1475258924228	/	191
240009	2568297	Is this the only time available?	Is this the only time avilable?	121975730	1475258924603	1475258924661	\	220
240009	2568297	Is this the only time available?	Is this the only time avilable?	121975732	1475258924999	1475258925067	BKSP	8
240009	2568297	Is this the only time available?	Is this the only time avilable?	121975737	1475258925346	1475258925408	BKSP	8
240009	2568297	Is this the only time available?	Is this the only time avilable?	121975743	1475258925524	1475258925583	BKSP	8
240009	2568297	Is this the only time available?	Is this the only time avilable?	121975750	1475258925928	1475258926016	BKSP	8
240009	2568297	Is this the only time available?	Is this the only time avilable?	121975755	1475258926596	1475258926736	?	191
