PARTICIPANT_ID	TEST_SECTION_ID	SENTENCE	USER_INPUT	KEYSTROKE_ID	PRESS_TIME	RELEASE_TIME	LETTER	KEYCODE
241139	2580662	I'm in a meeting until noon.	I'm in a meeting until noon.	122554575	1475268115907	1475268116219	SHIFT	16
241139	2580662	I'm in a meeting until noon.	I'm in a meeting until noon.	122554577	1475268116147	1475268116260	I	73
241139	2580662	I'm in a meeting until noon.	I'm in a meeting until noon.	122554581	1475268116967	1475268117125	'	222
241139	2580662	I'm in a meeting until noon.	I'm in a meeting until noon.	122554584	1475268117202	1475268117311	m	77
241139	2580662	I'm in a meeting until noon.	I'm in a meeting until noon.	122554587	1475268117420	1475268117558	 	32
241139	2580662	I'm in a meeting until noon.	I'm in a meeting until noon.	122554592	1475268117941	1475268118091	i	73
241139	2580662	I'm in a meeting until noon.	I'm in a meeting until noon.	122554603	1475268118019	1475268118123	n	78
241139	2580662	I'm in a meeting until noon.	I'm in a meeting until noon.	122554608	1475268118195	1475268118283	 	32
241139	2580662	I'm in a meeting until noon.	I'm in a meeting until noon.	122554611	1475268118227	1475268118356	a	65
241139	2580662	I'm in a meeting until noon.	I'm in a meeting until noon.	122554615	1475268118356	1475268118475	 	32
241139	2580662	I'm in a meeting until noon.	I'm in a meeting until noon.	122554645	1475268118403	1475268118523	m	77
241139	2580662	I'm in a meeting until noon.	I'm in a meeting until noon.	122554650	1475268118467	1475268118572	e	69
241139	2580662	I'm in a meeting until noon.	I'm in a meeting until noon.	122554654	1475268118641	1475268118787	e	69
241139	2580662	I'm in a meeting until noon.	I'm in a meeting until noon.	122554659	1475268118889	1475268119003	t	84
241139	2580662	I'm in a meeting until noon.	I'm in a meeting until noon.	122554664	1475268119019	1475268119163	i	73
241139	2580662	I'm in a meeting until noon.	I'm in a meeting until noon.	122554691	1475268119083	1475268119187	n	78
241139	2580662	I'm in a meeting until noon.	I'm in a meeting until noon.	122554693	1475268119147	1475268119268	g	71
241139	2580662	I'm in a meeting until noon.	I'm in a meeting until noon.	122554700	1475268119259	1475268119357	 	32
241139	2580662	I'm in a meeting until noon.	I'm in a meeting until noon.	122554706	1475268119374	1475268119535	u	85
241139	2580662	I'm in a meeting until noon.	I'm in a meeting until noon.	122554711	1475268119471	1475268119563	n	78
241139	2580662	I'm in a meeting until noon.	I'm in a meeting until noon.	122554718	1475268119576	1475268119715	t	84
241139	2580662	I'm in a meeting until noon.	I'm in a meeting until noon.	122554768	1475268119667	1475268119778	i	73
241139	2580662	I'm in a meeting until noon.	I'm in a meeting until noon.	122554771	1475268119856	1475268120009	l	76
241139	2580662	I'm in a meeting until noon.	I'm in a meeting until noon.	122554773	1475268120056	1475268120146	 	32
241139	2580662	I'm in a meeting until noon.	I'm in a meeting until noon.	122554775	1475268120229	1475268120349	n	78
241139	2580662	I'm in a meeting until noon.	I'm in a meeting until noon.	122554777	1475268120298	1475268120396	o	79
241139	2580662	I'm in a meeting until noon.	I'm in a meeting until noon.	122554781	1475268120459	1475268120623	o	79
241139	2580662	I'm in a meeting until noon.	I'm in a meeting until noon.	122554847	1475268120551	1475268120676	n	78
241139	2580662	I'm in a meeting until noon.	I'm in a meeting until noon.	122554854	1475268120788	1475268120960	.	190
241139	2580673	I'm working on your other emails next.	I'm working on your other emails next.	122555057	1475268123645	1475268124059	SHIFT	16
241139	2580673	I'm working on your other emails next.	I'm working on your other emails next.	122555062	1475268123927	1475268124059	I	73
241139	2580673	I'm working on your other emails next.	I'm working on your other emails next.	122555068	1475268124341	1475268124456	'	222
241139	2580673	I'm working on your other emails next.	I'm working on your other emails next.	122555074	1475268124527	1475268124612	m	77
241139	2580673	I'm working on your other emails next.	I'm working on your other emails next.	122555080	1475268124690	1475268124799	 	32
241139	2580673	I'm working on your other emails next.	I'm working on your other emails next.	122555121	1475268124778	1475268124918	w	87
241139	2580673	I'm working on your other emails next.	I'm working on your other emails next.	122555127	1475268124846	1475268124942	o	79
241139	2580673	I'm working on your other emails next.	I'm working on your other emails next.	122555131	1475268125030	1475268125142	r	82
241139	2580673	I'm working on your other emails next.	I'm working on your other emails next.	122555140	1475268125113	1475268125243	k	75
241139	2580673	I'm working on your other emails next.	I'm working on your other emails next.	122555145	1475268125337	1475268125486	i	73
241139	2580673	I'm working on your other emails next.	I'm working on your other emails next.	122555212	1475268125406	1475268125510	n	78
241139	2580673	I'm working on your other emails next.	I'm working on your other emails next.	122555216	1475268125462	1475268125583	g	71
241139	2580673	I'm working on your other emails next.	I'm working on your other emails next.	122555220	1475268125630	1475268125758	 	32
241139	2580673	I'm working on your other emails next.	I'm working on your other emails next.	122555225	1475268125858	1475268126002	o	79
241139	2580673	I'm working on your other emails next.	I'm working on your other emails next.	122555232	1475268125916	1475268126018	n	78
241139	2580673	I'm working on your other emails next.	I'm working on your other emails next.	122555240	1475268126098	1475268126219	 	32
241139	2580673	I'm working on your other emails next.	I'm working on your other emails next.	122555247	1475268126469	1475268126578	o	79
241139	2580673	I'm working on your other emails next.	I'm working on your other emails next.	122555275	1475268126768	1475268126906	BKSP	8
241139	2580673	I'm working on your other emails next.	I'm working on your other emails next.	122555278	1475268126890	1475268127034	y	89
241139	2580673	I'm working on your other emails next.	I'm working on your other emails next.	122555282	1475268127035	1475268127168	o	79
241139	2580673	I'm working on your other emails next.	I'm working on your other emails next.	122555288	1475268127258	1475268127373	u	85
241139	2580673	I'm working on your other emails next.	I'm working on your other emails next.	122555296	1475268127388	1475268127530	r	82
241139	2580673	I'm working on your other emails next.	I'm working on your other emails next.	122555338	1475268127479	1475268127610	 	32
241139	2580673	I'm working on your other emails next.	I'm working on your other emails next.	122555341	1475268127735	1475268127866	o	79
241139	2580673	I'm working on your other emails next.	I'm working on your other emails next.	122555345	1475268127834	1475268127940	t	84
241139	2580673	I'm working on your other emails next.	I'm working on your other emails next.	122555352	1475268127956	1475268128096	h	72
241139	2580673	I'm working on your other emails next.	I'm working on your other emails next.	122555359	1475268128034	1475268128159	e	69
241139	2580673	I'm working on your other emails next.	I'm working on your other emails next.	122555365	1475268128190	1475268128298	r	82
241139	2580673	I'm working on your other emails next.	I'm working on your other emails next.	122555389	1475268128248	1475268128393	 	32
241139	2580673	I'm working on your other emails next.	I'm working on your other emails next.	122555393	1475268128378	1475268128530	e	69
241139	2580673	I'm working on your other emails next.	I'm working on your other emails next.	122555397	1475268128506	1475268128634	m	77
241139	2580673	I'm working on your other emails next.	I'm working on your other emails next.	122555402	1475268128605	1475268128770	a	65
241139	2580673	I'm working on your other emails next.	I'm working on your other emails next.	122555406	1475268128723	1475268128826	i	73
241139	2580673	I'm working on your other emails next.	I'm working on your other emails next.	122555413	1475268128906	1475268129064	l	76
241139	2580673	I'm working on your other emails next.	I'm working on your other emails next.	122555459	1475268129025	1475268129179	s	83
241139	2580673	I'm working on your other emails next.	I'm working on your other emails next.	122555462	1475268129155	1475268129247	 	32
241139	2580673	I'm working on your other emails next.	I'm working on your other emails next.	122555465	1475268129310	1475268129426	n	78
241139	2580673	I'm working on your other emails next.	I'm working on your other emails next.	122555468	1475268129334	1475268129435	e	69
241139	2580673	I'm working on your other emails next.	I'm working on your other emails next.	122555473	1475268129513	1475268129642	x	88
241139	2580673	I'm working on your other emails next.	I'm working on your other emails next.	122555474	1475268129738	1475268129858	t	84
241139	2580673	I'm working on your other emails next.	I'm working on your other emails next.	122555479	1475268129810	1475268129994	.	190
241139	2580685	What does Hunter think?	What does Hunter think?	122555675	1475268131899	1475268132059	SHIFT	16
241139	2580685	What does Hunter think?	What does Hunter think?	122555679	1475268131972	1475268132098	W	87
241139	2580685	What does Hunter think?	What does Hunter think?	122555683	1475268132172	1475268132322	h	72
241139	2580685	What does Hunter think?	What does Hunter think?	122555689	1475268132274	1475268132418	a	65
241139	2580685	What does Hunter think?	What does Hunter think?	122555694	1475268132389	1475268132495	t	84
241139	2580685	What does Hunter think?	What does Hunter think?	122555697	1475268132542	1475268132667	 	32
241139	2580685	What does Hunter think?	What does Hunter think?	122555758	1475268132658	1475268132794	d	68
241139	2580685	What does Hunter think?	What does Hunter think?	122555762	1475268132739	1475268132882	o	79
241139	2580685	What does Hunter think?	What does Hunter think?	122555767	1475268132874	1475268132957	e	69
241139	2580685	What does Hunter think?	What does Hunter think?	122555772	1475268133082	1475268133218	s	83
241139	2580685	What does Hunter think?	What does Hunter think?	122555776	1475268133193	1475268133326	 	32
241139	2580685	What does Hunter think?	What does Hunter think?	122555779	1475268133373	1475268133526	SHIFT	16
241139	2580685	What does Hunter think?	What does Hunter think?	122555823	1475268133435	1475268133554	H	72
241139	2580685	What does Hunter think?	What does Hunter think?	122555827	1475268133638	1475268133754	u	85
241139	2580685	What does Hunter think?	What does Hunter think?	122555833	1475268133696	1475268133781	n	78
241139	2580685	What does Hunter think?	What does Hunter think?	122555839	1475268133733	1475268133828	t	84
241139	2580685	What does Hunter think?	What does Hunter think?	122555845	1475268133906	1475268134050	e	69
241139	2580685	What does Hunter think?	What does Hunter think?	122555853	1475268134137	1475268134299	r	82
241139	2580685	What does Hunter think?	What does Hunter think?	122555879	1475268134389	1475268134526	 	32
241139	2580685	What does Hunter think?	What does Hunter think?	122555880	1475268134465	1475268134598	t	84
241139	2580685	What does Hunter think?	What does Hunter think?	122555882	1475268134570	1475268134666	h	72
241139	2580685	What does Hunter think?	What does Hunter think?	122555885	1475268134735	1475268134878	i	73
241139	2580685	What does Hunter think?	What does Hunter think?	122555934	1475268134780	1475268134974	n	78
241139	2580685	What does Hunter think?	What does Hunter think?	122555941	1475268134938	1475268135061	k	75
241139	2580685	What does Hunter think?	What does Hunter think?	122555947	1475268135186	1475268135374	SHIFT	16
241139	2580685	What does Hunter think?	What does Hunter think?	122555952	1475268135232	1475268135426	?	191
241139	2580695	He also suggested it would send a conflicting message to Geneva.	He also suggested it would send a conflicting message to Geneva.	122556136	1475268137454	1475268137870	SHIFT	16
241139	2580695	He also suggested it would send a conflicting message to Geneva.	He also suggested it would send a conflicting message to Geneva.	122556140	1475268137782	1475268137895	H	72
241139	2580695	He also suggested it would send a conflicting message to Geneva.	He also suggested it would send a conflicting message to Geneva.	122556145	1475268137950	1475268138054	e	69
241139	2580695	He also suggested it would send a conflicting message to Geneva.	He also suggested it would send a conflicting message to Geneva.	122556150	1475268138070	1475268138182	 	32
241139	2580695	He also suggested it would send a conflicting message to Geneva.	He also suggested it would send a conflicting message to Geneva.	122556155	1475268138158	1475268138293	a	65
241139	2580695	He also suggested it would send a conflicting message to Geneva.	He also suggested it would send a conflicting message to Geneva.	122556158	1475268138293	1475268138425	l	76
241139	2580695	He also suggested it would send a conflicting message to Geneva.	He also suggested it would send a conflicting message to Geneva.	122556195	1475268138425	1475268138558	s	83
241139	2580695	He also suggested it would send a conflicting message to Geneva.	He also suggested it would send a conflicting message to Geneva.	122556199	1475268138544	1475268138663	o	79
241139	2580695	He also suggested it would send a conflicting message to Geneva.	He also suggested it would send a conflicting message to Geneva.	122556203	1475268138734	1475268138874	 	32
241139	2580695	He also suggested it would send a conflicting message to Geneva.	He also suggested it would send a conflicting message to Geneva.	122556208	1475268138890	1475268139025	s	83
241139	2580695	He also suggested it would send a conflicting message to Geneva.	He also suggested it would send a conflicting message to Geneva.	122556214	1475268139072	1475268139198	u	85
241139	2580695	He also suggested it would send a conflicting message to Geneva.	He also suggested it would send a conflicting message to Geneva.	122556241	1475268139305	1475268139390	g	71
241139	2580695	He also suggested it would send a conflicting message to Geneva.	He also suggested it would send a conflicting message to Geneva.	122556245	1475268139438	1475268139566	g	71
241139	2580695	He also suggested it would send a conflicting message to Geneva.	He also suggested it would send a conflicting message to Geneva.	122556251	1475268139539	1475268139630	e	69
241139	2580695	He also suggested it would send a conflicting message to Geneva.	He also suggested it would send a conflicting message to Geneva.	122556254	1475268139718	1475268139831	s	83
241139	2580695	He also suggested it would send a conflicting message to Geneva.	He also suggested it would send a conflicting message to Geneva.	122556289	1475268139774	1475268139886	t	84
241139	2580695	He also suggested it would send a conflicting message to Geneva.	He also suggested it would send a conflicting message to Geneva.	122556293	1475268139904	1475268139982	e	69
241139	2580695	He also suggested it would send a conflicting message to Geneva.	He also suggested it would send a conflicting message to Geneva.	122556295	1475268140070	1475268140220	d	68
241139	2580695	He also suggested it would send a conflicting message to Geneva.	He also suggested it would send a conflicting message to Geneva.	122556299	1475268140267	1475268140415	 	32
241139	2580695	He also suggested it would send a conflicting message to Geneva.	He also suggested it would send a conflicting message to Geneva.	122556302	1475268140462	1475268140599	i	73
241139	2580695	He also suggested it would send a conflicting message to Geneva.	He also suggested it would send a conflicting message to Geneva.	122556346	1475268140562	1475268140678	t	84
241139	2580695	He also suggested it would send a conflicting message to Geneva.	He also suggested it would send a conflicting message to Geneva.	122556353	1475268140666	1475268140782	 	32
241139	2580695	He also suggested it would send a conflicting message to Geneva.	He also suggested it would send a conflicting message to Geneva.	122556359	1475268140802	1475268140934	w	87
241139	2580695	He also suggested it would send a conflicting message to Geneva.	He also suggested it would send a conflicting message to Geneva.	122556365	1475268140864	1475268140998	o	79
241139	2580695	He also suggested it would send a conflicting message to Geneva.	He also suggested it would send a conflicting message to Geneva.	122556370	1475268141089	1475268141201	u	85
241139	2580695	He also suggested it would send a conflicting message to Geneva.	He also suggested it would send a conflicting message to Geneva.	122556376	1475268141295	1475268141432	l	76
241139	2580695	He also suggested it would send a conflicting message to Geneva.	He also suggested it would send a conflicting message to Geneva.	122556396	1475268141395	1475268141505	d	68
241139	2580695	He also suggested it would send a conflicting message to Geneva.	He also suggested it would send a conflicting message to Geneva.	122556398	1475268141505	1475268141622	 	32
241139	2580695	He also suggested it would send a conflicting message to Geneva.	He also suggested it would send a conflicting message to Geneva.	122556402	1475268141606	1475268141721	s	83
241139	2580695	He also suggested it would send a conflicting message to Geneva.	He also suggested it would send a conflicting message to Geneva.	122556406	1475268141799	1475268141926	e	69
241139	2580695	He also suggested it would send a conflicting message to Geneva.	He also suggested it would send a conflicting message to Geneva.	122556412	1475268141926	1475268142046	n	78
241139	2580695	He also suggested it would send a conflicting message to Geneva.	He also suggested it would send a conflicting message to Geneva.	122556447	1475268142029	1475268142154	d	68
241139	2580695	He also suggested it would send a conflicting message to Geneva.	He also suggested it would send a conflicting message to Geneva.	122556452	1475268142154	1475268142254	 	32
241139	2580695	He also suggested it would send a conflicting message to Geneva.	He also suggested it would send a conflicting message to Geneva.	122556458	1475268142231	1475268142366	a	65
241139	2580695	He also suggested it would send a conflicting message to Geneva.	He also suggested it would send a conflicting message to Geneva.	122556463	1475268142359	1475268142438	 	32
241139	2580695	He also suggested it would send a conflicting message to Geneva.	He also suggested it would send a conflicting message to Geneva.	122556468	1475268142453	1475268142590	c	67
241139	2580695	He also suggested it would send a conflicting message to Geneva.	He also suggested it would send a conflicting message to Geneva.	122556486	1475268142515	1475268142670	o	79
241139	2580695	He also suggested it would send a conflicting message to Geneva.	He also suggested it would send a conflicting message to Geneva.	122556498	1475268142599	1475268142703	n	78
241139	2580695	He also suggested it would send a conflicting message to Geneva.	He also suggested it would send a conflicting message to Geneva.	122556506	1475268142719	1475268142833	f	70
241139	2580695	He also suggested it would send a conflicting message to Geneva.	He also suggested it would send a conflicting message to Geneva.	122556515	1475268142796	1475268142911	l	76
241139	2580695	He also suggested it would send a conflicting message to Geneva.	He also suggested it would send a conflicting message to Geneva.	122556523	1475268143005	1475268143110	i	73
241139	2580695	He also suggested it would send a conflicting message to Geneva.	He also suggested it would send a conflicting message to Geneva.	122556569	1475268143063	1475268143190	c	67
241139	2580695	He also suggested it would send a conflicting message to Geneva.	He also suggested it would send a conflicting message to Geneva.	122556576	1475268143273	1475268143382	t	84
241139	2580695	He also suggested it would send a conflicting message to Geneva.	He also suggested it would send a conflicting message to Geneva.	122556584	1475268143350	1475268143486	i	73
241139	2580695	He also suggested it would send a conflicting message to Geneva.	He also suggested it would send a conflicting message to Geneva.	122556591	1475268143406	1475268143495	n	78
241139	2580695	He also suggested it would send a conflicting message to Geneva.	He also suggested it would send a conflicting message to Geneva.	122556598	1475268143495	1475268143590	g	71
241139	2580695	He also suggested it would send a conflicting message to Geneva.	He also suggested it would send a conflicting message to Geneva.	122556603	1475268143590	1475268143746	 	32
241139	2580695	He also suggested it would send a conflicting message to Geneva.	He also suggested it would send a conflicting message to Geneva.	122556641	1475268143664	1475268143814	m	77
241139	2580695	He also suggested it would send a conflicting message to Geneva.	He also suggested it would send a conflicting message to Geneva.	122556649	1475268143761	1475268143892	e	69
241139	2580695	He also suggested it would send a conflicting message to Geneva.	He also suggested it would send a conflicting message to Geneva.	122556661	1475268143986	1475268144070	s	83
241139	2580695	He also suggested it would send a conflicting message to Geneva.	He also suggested it would send a conflicting message to Geneva.	122556665	1475268144150	1475268144310	s	83
241139	2580695	He also suggested it would send a conflicting message to Geneva.	He also suggested it would send a conflicting message to Geneva.	122556677	1475268144294	1475268144459	a	65
241139	2580695	He also suggested it would send a conflicting message to Geneva.	He also suggested it would send a conflicting message to Geneva.	122556685	1475268144537	1475268144740	g	71
241139	2580695	He also suggested it would send a conflicting message to Geneva.	He also suggested it would send a conflicting message to Geneva.	122556731	1475268144784	1475268144918	e	69
241139	2580695	He also suggested it would send a conflicting message to Geneva.	He also suggested it would send a conflicting message to Geneva.	122556733	1475268144934	1475268145034	 	32
241139	2580695	He also suggested it would send a conflicting message to Geneva.	He also suggested it would send a conflicting message to Geneva.	122556735	1475268145193	1475268145310	t	84
241139	2580695	He also suggested it would send a conflicting message to Geneva.	He also suggested it would send a conflicting message to Geneva.	122556740	1475268145310	1475268145431	o	79
241139	2580695	He also suggested it would send a conflicting message to Geneva.	He also suggested it would send a conflicting message to Geneva.	122556745	1475268145486	1475268145598	 	32
241139	2580695	He also suggested it would send a conflicting message to Geneva.	He also suggested it would send a conflicting message to Geneva.	122556788	1475268145614	1475268145794	SHIFT	16
241139	2580695	He also suggested it would send a conflicting message to Geneva.	He also suggested it would send a conflicting message to Geneva.	122556782	1475268145688	1475268145778	G	71
241139	2580695	He also suggested it would send a conflicting message to Geneva.	He also suggested it would send a conflicting message to Geneva.	122556794	1475268145857	1475268145974	e	69
241139	2580695	He also suggested it would send a conflicting message to Geneva.	He also suggested it would send a conflicting message to Geneva.	122556803	1475268145961	1475268146062	n	78
241139	2580695	He also suggested it would send a conflicting message to Geneva.	He also suggested it would send a conflicting message to Geneva.	122556809	1475268146029	1475268146112	e	69
241139	2580695	He also suggested it would send a conflicting message to Geneva.	He also suggested it would send a conflicting message to Geneva.	122556813	1475268146221	1475268146375	c	67
241139	2580695	He also suggested it would send a conflicting message to Geneva.	He also suggested it would send a conflicting message to Geneva.	122556877	1475268146375	1475268146454	a	65
241139	2580695	He also suggested it would send a conflicting message to Geneva.	He also suggested it would send a conflicting message to Geneva.	122556882	1475268146620	1475268146742	BKSP	8
241139	2580695	He also suggested it would send a conflicting message to Geneva.	He also suggested it would send a conflicting message to Geneva.	122556886	1475268146790	1475268146918	BKSP	8
241139	2580695	He also suggested it would send a conflicting message to Geneva.	He also suggested it would send a conflicting message to Geneva.	122556888	1475268146902	1475268147034	v	86
241139	2580695	He also suggested it would send a conflicting message to Geneva.	He also suggested it would send a conflicting message to Geneva.	122556892	1475268147065	1475268147178	a	65
241139	2580695	He also suggested it would send a conflicting message to Geneva.	He also suggested it would send a conflicting message to Geneva.	122556898	1475268147193	1475268147385	.	190
241139	2580718	I've never worked with her.	I've never worked with her.	122557140	1475268149671	1475268150206	SHIFT	16
241139	2580718	I've never worked with her.	I've never worked with her.	122557138	1475268150040	1475268150198	I	73
241139	2580718	I've never worked with her.	I've never worked with her.	122557144	1475268150504	1475268150614	'	222
241139	2580718	I've never worked with her.	I've never worked with her.	122557146	1475268150707	1475268150806	v	86
241139	2580718	I've never worked with her.	I've never worked with her.	122557148	1475268150902	1475268151014	e	69
241139	2580718	I've never worked with her.	I've never worked with her.	122557169	1475268150962	1475268151056	 	32
241139	2580718	I've never worked with her.	I've never worked with her.	122557173	1475268151141	1475268151262	n	78
241139	2580718	I've never worked with her.	I've never worked with her.	122557181	1475268151206	1475268151310	e	69
241139	2580718	I've never worked with her.	I've never worked with her.	122557187	1475268151371	1475268151462	v	86
241139	2580718	I've never worked with her.	I've never worked with her.	122557192	1475268151415	1475268151534	e	69
241139	2580718	I've never worked with her.	I've never worked with her.	122557197	1475268151606	1475268151694	r	82
241139	2580718	I've never worked with her.	I've never worked with her.	122557216	1475268151678	1475268151783	 	32
241139	2580718	I've never worked with her.	I've never worked with her.	122557223	1475268151783	1475268151902	w	87
241139	2580718	I've never worked with her.	I've never worked with her.	122557229	1475268151846	1475268151966	o	79
241139	2580718	I've never worked with her.	I've never worked with her.	122557233	1475268151990	1475268152110	r	82
241139	2580718	I've never worked with her.	I've never worked with her.	122557237	1475268152062	1475268152190	k	75
241139	2580718	I've never worked with her.	I've never worked with her.	122557257	1475268152172	1475268152270	e	69
241139	2580718	I've never worked with her.	I've never worked with her.	122557259	1475268152342	1475268152438	d	68
241139	2580718	I've never worked with her.	I've never worked with her.	122557260	1475268152422	1475268152558	 	32
241139	2580718	I've never worked with her.	I've never worked with her.	122557262	1475268152550	1475268152670	w	87
241139	2580718	I've never worked with her.	I've never worked with her.	122557264	1475268152662	1475268152772	i	73
241139	2580718	I've never worked with her.	I've never worked with her.	122557266	1475268152772	1475268152886	t	84
241139	2580718	I've never worked with her.	I've never worked with her.	122557294	1475268152878	1475268153006	h	72
241139	2580718	I've never worked with her.	I've never worked with her.	122557301	1475268153014	1475268153174	 	32
241139	2580718	I've never worked with her.	I've never worked with her.	122557308	1475268153102	1475268153222	h	72
241139	2580718	I've never worked with her.	I've never worked with her.	122557315	1475268153150	1475268153286	e	69
241139	2580718	I've never worked with her.	I've never worked with her.	122557322	1475268153343	1475268153461	r	82
241139	2580718	I've never worked with her.	I've never worked with her.	122557328	1475268153508	1475268153654	.	188
241139	2580718	I've never worked with her.	I've never worked with her.	122557402	1475268154004	1475268154109	BKSP	8
241139	2580718	I've never worked with her.	I've never worked with her.	122557409	1475268154156	1475268154260	BKSP	8
241139	2580734	Brcko had been proposed as another site for a safe area.	Brcko had been proposed as another site for a safe area,	122557716	1475268157051	1475268157358	SHIFT	16
241139	2580734	Brcko had been proposed as another site for a safe area.	Brcko had been proposed as another site for a safe area,	122557722	1475268157278	1475268157383	B	66
241139	2580734	Brcko had been proposed as another site for a safe area.	Brcko had been proposed as another site for a safe area,	122557727	1475268157567	1475268157702	r	82
241139	2580734	Brcko had been proposed as another site for a safe area.	Brcko had been proposed as another site for a safe area,	122557734	1475268158254	1475268158406	c	67
241139	2580734	Brcko had been proposed as another site for a safe area.	Brcko had been proposed as another site for a safe area,	122557741	1475268158506	1475268158670	k	75
241139	2580734	Brcko had been proposed as another site for a safe area.	Brcko had been proposed as another site for a safe area,	122557840	1475268158606	1475268158723	o	79
241139	2580734	Brcko had been proposed as another site for a safe area.	Brcko had been proposed as another site for a safe area,	122557844	1475268159051	1475268159198	 	32
241139	2580734	Brcko had been proposed as another site for a safe area.	Brcko had been proposed as another site for a safe area,	122557845	1475268159626	1475268159742	h	72
241139	2580734	Brcko had been proposed as another site for a safe area.	Brcko had been proposed as another site for a safe area,	122557846	1475268159703	1475268159881	a	65
241139	2580734	Brcko had been proposed as another site for a safe area.	Brcko had been proposed as another site for a safe area,	122557849	1475268159828	1475268159982	d	68
241139	2580734	Brcko had been proposed as another site for a safe area.	Brcko had been proposed as another site for a safe area,	122557907	1475268159944	1475268160072	 	32
241139	2580734	Brcko had been proposed as another site for a safe area.	Brcko had been proposed as another site for a safe area,	122557912	1475268160213	1475268160326	b	66
241139	2580734	Brcko had been proposed as another site for a safe area.	Brcko had been proposed as another site for a safe area,	122557918	1475268160294	1475268160390	e	69
241139	2580734	Brcko had been proposed as another site for a safe area.	Brcko had been proposed as another site for a safe area,	122557923	1475268160443	1475268160558	e	69
241139	2580734	Brcko had been proposed as another site for a safe area.	Brcko had been proposed as another site for a safe area,	122557930	1475268160534	1475268160622	n	78
241139	2580734	Brcko had been proposed as another site for a safe area.	Brcko had been proposed as another site for a safe area,	122557935	1475268160700	1475268160798	 	32
241139	2580734	Brcko had been proposed as another site for a safe area.	Brcko had been proposed as another site for a safe area,	122557974	1475268160838	1475268160974	p	80
241139	2580734	Brcko had been proposed as another site for a safe area.	Brcko had been proposed as another site for a safe area,	122557978	1475268160939	1475268161046	r	82
241139	2580734	Brcko had been proposed as another site for a safe area.	Brcko had been proposed as another site for a safe area,	122557982	1475268161062	1475268161155	o	79
241139	2580734	Brcko had been proposed as another site for a safe area.	Brcko had been proposed as another site for a safe area,	122557988	1475268161233	1475268161350	p	80
241139	2580734	Brcko had been proposed as another site for a safe area.	Brcko had been proposed as another site for a safe area,	122557993	1475268161423	1475268161542	o	79
241139	2580734	Brcko had been proposed as another site for a safe area.	Brcko had been proposed as another site for a safe area,	122558032	1475268161486	1475268161614	s	83
241139	2580734	Brcko had been proposed as another site for a safe area.	Brcko had been proposed as another site for a safe area,	122558039	1475268161671	1475268161774	e	69
241139	2580734	Brcko had been proposed as another site for a safe area.	Brcko had been proposed as another site for a safe area,	122558044	1475268161850	1475268161971	d	68
241139	2580734	Brcko had been proposed as another site for a safe area.	Brcko had been proposed as another site for a safe area,	122558049	1475268161934	1475268162042	 	32
241139	2580734	Brcko had been proposed as another site for a safe area.	Brcko had been proposed as another site for a safe area,	122558054	1475268162082	1475268162198	a	65
241139	2580734	Brcko had been proposed as another site for a safe area.	Brcko had been proposed as another site for a safe area,	122558059	1475268162281	1475268162346	s	83
241139	2580734	Brcko had been proposed as another site for a safe area.	Brcko had been proposed as another site for a safe area,	122558074	1475268162402	1475268162489	 	32
241139	2580734	Brcko had been proposed as another site for a safe area.	Brcko had been proposed as another site for a safe area,	122558079	1475268162692	1475268162870	a	65
241139	2580734	Brcko had been proposed as another site for a safe area.	Brcko had been proposed as another site for a safe area,	122558085	1475268162778	1475268162966	n	78
241139	2580734	Brcko had been proposed as another site for a safe area.	Brcko had been proposed as another site for a safe area,	122558090	1475268162890	1475268163014	o	79
241139	2580734	Brcko had been proposed as another site for a safe area.	Brcko had been proposed as another site for a safe area,	122558140	1475268162966	1475268163074	t	84
241139	2580734	Brcko had been proposed as another site for a safe area.	Brcko had been proposed as another site for a safe area,	122558146	1475268163137	1475268163250	h	72
241139	2580734	Brcko had been proposed as another site for a safe area.	Brcko had been proposed as another site for a safe area,	122558151	1475268163182	1475268163322	e	69
241139	2580734	Brcko had been proposed as another site for a safe area.	Brcko had been proposed as another site for a safe area,	122558158	1475268163371	1475268163462	r	82
241139	2580734	Brcko had been proposed as another site for a safe area.	Brcko had been proposed as another site for a safe area,	122558162	1475268163450	1475268163574	 	32
241139	2580734	Brcko had been proposed as another site for a safe area.	Brcko had been proposed as another site for a safe area,	122558167	1475268163575	1475268163666	s	83
241139	2580734	Brcko had been proposed as another site for a safe area.	Brcko had been proposed as another site for a safe area,	122558186	1475268163642	1475268163754	i	73
241139	2580734	Brcko had been proposed as another site for a safe area.	Brcko had been proposed as another site for a safe area,	122558191	1475268163774	1475268163877	t	84
241139	2580734	Brcko had been proposed as another site for a safe area.	Brcko had been proposed as another site for a safe area,	122558198	1475268163960	1475268164060	e	69
241139	2580734	Brcko had been proposed as another site for a safe area.	Brcko had been proposed as another site for a safe area,	122558202	1475268164060	1475268164198	 	32
241139	2580734	Brcko had been proposed as another site for a safe area.	Brcko had been proposed as another site for a safe area,	122558209	1475268164145	1475268164262	f	70
241139	2580734	Brcko had been proposed as another site for a safe area.	Brcko had been proposed as another site for a safe area,	122558252	1475268164245	1475268164378	o	79
241139	2580734	Brcko had been proposed as another site for a safe area.	Brcko had been proposed as another site for a safe area,	122558255	1475268164330	1475268164441	r	82
241139	2580734	Brcko had been proposed as another site for a safe area.	Brcko had been proposed as another site for a safe area,	122558259	1475268164441	1475268164554	 	32
241139	2580734	Brcko had been proposed as another site for a safe area.	Brcko had been proposed as another site for a safe area,	122558261	1475268165098	1475268165205	a	65
241139	2580734	Brcko had been proposed as another site for a safe area.	Brcko had been proposed as another site for a safe area,	122558262	1475268165236	1475268165378	 	32
241139	2580734	Brcko had been proposed as another site for a safe area.	Brcko had been proposed as another site for a safe area,	122558297	1475268165346	1475268165522	s	83
241139	2580734	Brcko had been proposed as another site for a safe area.	Brcko had been proposed as another site for a safe area,	122558300	1475268165458	1475268165603	a	65
241139	2580734	Brcko had been proposed as another site for a safe area.	Brcko had been proposed as another site for a safe area,	122558306	1475268165676	1475268165818	f	70
241139	2580734	Brcko had been proposed as another site for a safe area.	Brcko had been proposed as another site for a safe area,	122558313	1475268165906	1475268166018	e	69
241139	2580734	Brcko had been proposed as another site for a safe area.	Brcko had been proposed as another site for a safe area,	122558315	1475268166010	1475268166154	 	32
241139	2580734	Brcko had been proposed as another site for a safe area.	Brcko had been proposed as another site for a safe area,	122558370	1475268166090	1475268166290	a	65
241139	2580734	Brcko had been proposed as another site for a safe area.	Brcko had been proposed as another site for a safe area,	122558372	1475268166242	1475268166362	r	82
241139	2580734	Brcko had been proposed as another site for a safe area.	Brcko had been proposed as another site for a safe area,	122558376	1475268166410	1475268166594	e	69
241139	2580734	Brcko had been proposed as another site for a safe area.	Brcko had been proposed as another site for a safe area,	122558381	1475268166546	1475268166682	a	65
241139	2580750	Man I don't want to get sick again.	Man I don't want to get sick again.	122558701	1475268168850	1475268169145	SHIFT	16
241139	2580750	Man I don't want to get sick again.	Man I don't want to get sick again.	122558703	1475268169053	1475268169160	M	77
241139	2580750	Man I don't want to get sick again.	Man I don't want to get sick again.	122558706	1475268169160	1475268169298	a	65
241139	2580750	Man I don't want to get sick again.	Man I don't want to get sick again.	122558709	1475268169276	1475268169378	n	78
241139	2580750	Man I don't want to get sick again.	Man I don't want to get sick again.	122558717	1475268169458	1475268169573	 	32
241139	2580750	Man I don't want to get sick again.	Man I don't want to get sick again.	122558725	1475268169604	1475268169938	SHIFT	16
241139	2580750	Man I don't want to get sick again.	Man I don't want to get sick again.	122558745	1475268169839	1475268169946	I	73
241139	2580750	Man I don't want to get sick again.	Man I don't want to get sick again.	122558748	1475268170042	1475268170146	 	32
241139	2580750	Man I don't want to get sick again.	Man I don't want to get sick again.	122558751	1475268170130	1475268170274	d	68
241139	2580750	Man I don't want to get sick again.	Man I don't want to get sick again.	122558896	1475268170241	1475268170346	p	79
241139	2580750	Man I don't want to get sick again.	Man I don't want to get sick again.	122558895	1475268170250	1475268170290	n	80
241139	2580750	Man I don't want to get sick again.	Man I don't want to get sick again.	122558898	1475268170595	1475268170690	BKSP	8
241139	2580750	Man I don't want to get sick again.	Man I don't want to get sick again.	122558900	1475268170752	1475268170858	BKSP	8
241139	2580750	Man I don't want to get sick again.	Man I don't want to get sick again.	122558903	1475268171306	1475268171410	n	78
241139	2580750	Man I don't want to get sick again.	Man I don't want to get sick again.	122558905	1475268171723	1475268171866	'	222
241139	2580750	Man I don't want to get sick again.	Man I don't want to get sick again.	122558907	1475268171838	1475268171946	t	84
241139	2580750	Man I don't want to get sick again.	Man I don't want to get sick again.	122558911	1475268171962	1475268172090	 	32
241139	2580750	Man I don't want to get sick again.	Man I don't want to get sick again.	122558925	1475268172040	1475268172226	w	87
241139	2580750	Man I don't want to get sick again.	Man I don't want to get sick again.	122558928	1475268172227	1475268172402	a	65
241139	2580750	Man I don't want to get sick again.	Man I don't want to get sick again.	122558931	1475268172338	1475268172458	n	78
241139	2580750	Man I don't want to get sick again.	Man I don't want to get sick again.	122558934	1475268172426	1475268172527	t	84
241139	2580750	Man I don't want to get sick again.	Man I don't want to get sick again.	122558938	1475268172558	1475268172648	 	32
241139	2580750	Man I don't want to get sick again.	Man I don't want to get sick again.	122558973	1475268172602	1475268172714	t	84
241139	2580750	Man I don't want to get sick again.	Man I don't want to get sick again.	122558975	1475268172693	1475268172809	o	79
241139	2580750	Man I don't want to get sick again.	Man I don't want to get sick again.	122558978	1475268172872	1475268172976	 	32
241139	2580750	Man I don't want to get sick again.	Man I don't want to get sick again.	122558981	1475268173035	1475268173162	g	71
241139	2580750	Man I don't want to get sick again.	Man I don't want to get sick again.	122558985	1475268173106	1475268173218	e	69
241139	2580750	Man I don't want to get sick again.	Man I don't want to get sick again.	122558990	1475268173241	1475268173354	t	84
241139	2580750	Man I don't want to get sick again.	Man I don't want to get sick again.	122559058	1475268173402	1475268173519	 	32
241139	2580750	Man I don't want to get sick again.	Man I don't want to get sick again.	122559064	1475268173458	1475268173581	s	83
241139	2580750	Man I don't want to get sick again.	Man I don't want to get sick again.	122559075	1475268173597	1475268173722	i	73
241139	2580750	Man I don't want to get sick again.	Man I don't want to get sick again.	122559070	1475268173642	1475268173698	u	85
241139	2580750	Man I don't want to get sick again.	Man I don't want to get sick again.	122559080	1475268174162	1475268174246	BKSP	8
241139	2580750	Man I don't want to get sick again.	Man I don't want to get sick again.	122559083	1475268174277	1475268174419	c	67
241139	2580750	Man I don't want to get sick again.	Man I don't want to get sick again.	122559135	1475268174410	1475268174546	k	75
241139	2580750	Man I don't want to get sick again.	Man I don't want to get sick again.	122559138	1475268174602	1475268174738	 	32
241139	2580750	Man I don't want to get sick again.	Man I don't want to get sick again.	122559144	1475268174678	1475268174826	a	65
241139	2580750	Man I don't want to get sick again.	Man I don't want to get sick again.	122559148	1475268174905	1475268175026	g	71
241139	2580750	Man I don't want to get sick again.	Man I don't want to get sick again.	122559153	1475268175088	1475268175194	a	65
241139	2580750	Man I don't want to get sick again.	Man I don't want to get sick again.	122559173	1475268175130	1475268175273	i	73
241139	2580750	Man I don't want to get sick again.	Man I don't want to get sick again.	122559176	1475268175202	1475268175288	n	78
241139	2580773	Call me to give me a heads up.	Call me to give me a heads up.	122559372	1475268177509	1475268177690	SHIFT	16
241139	2580773	Call me to give me a heads up.	Call me to give me a heads up.	122559379	1475268177618	1475268177778	C	67
241139	2580773	Call me to give me a heads up.	Call me to give me a heads up.	122559386	1475268177722	1475268177866	a	65
241139	2580773	Call me to give me a heads up.	Call me to give me a heads up.	122559391	1475268177834	1475268177922	l	76
241139	2580773	Call me to give me a heads up.	Call me to give me a heads up.	122559395	1475268177984	1475268178090	l	76
241139	2580773	Call me to give me a heads up.	Call me to give me a heads up.	122559399	1475268178146	1475268178282	 	32
241139	2580773	Call me to give me a heads up.	Call me to give me a heads up.	122559524	1475268178218	1475268178330	e	77
241139	2580773	Call me to give me a heads up.	Call me to give me a heads up.	122559529	1475268178394	1475268178498	 	32
241139	2580773	Call me to give me a heads up.	Call me to give me a heads up.	122559535	1475268178448	1475268178556	t	84
241139	2580773	Call me to give me a heads up.	Call me to give me a heads up.	122559540	1475268178713	1475268178834	 	32
241139	2580773	Call me to give me a heads up.	Call me to give me a heads up.	122559544	1475268178983	1475268179138	BKSP	8
241139	2580773	Call me to give me a heads up.	Call me to give me a heads up.	122559548	1475268179283	1475268179418	o	79
241139	2580773	Call me to give me a heads up.	Call me to give me a heads up.	122559551	1475268179739	1475268179899	 	32
241139	2580773	Call me to give me a heads up.	Call me to give me a heads up.	122559697	1475268179858	1475268179970	g	71
241139	2580773	Call me to give me a heads up.	Call me to give me a heads up.	122559702	1475268180522	1475268180666	o	79
241139	2580773	Call me to give me a heads up.	Call me to give me a heads up.	122559712	1475268180783	1475268180972	v	86
241139	2580773	Call me to give me a heads up.	Call me to give me a heads up.	122559719	1475268181097	1475268181179	BKSP	8
241139	2580773	Call me to give me a heads up.	Call me to give me a heads up.	122559723	1475268181210	1475268181330	BKSP	8
241139	2580773	Call me to give me a heads up.	Call me to give me a heads up.	122559727	1475268181425	1475268181544	i	73
241139	2580773	Call me to give me a heads up.	Call me to give me a heads up.	122559733	1475268181970	1475268182082	v	86
241139	2580773	Call me to give me a heads up.	Call me to give me a heads up.	122559763	1475268182018	1475268182170	e	69
241139	2580773	Call me to give me a heads up.	Call me to give me a heads up.	122559768	1475268182207	1475268182354	 	32
241139	2580773	Call me to give me a heads up.	Call me to give me a heads up.	122559774	1475268182538	1475268182674	m	77
241139	2580773	Call me to give me a heads up.	Call me to give me a heads up.	122559780	1475268182650	1475268182778	e	69
241139	2580773	Call me to give me a heads up.	Call me to give me a heads up.	122559785	1475268182786	1475268182882	 	32
241139	2580773	Call me to give me a heads up.	Call me to give me a heads up.	122559828	1475268182866	1475268182946	a	65
241139	2580773	Call me to give me a heads up.	Call me to give me a heads up.	122559832	1475268182973	1475268183066	 	32
241139	2580773	Call me to give me a heads up.	Call me to give me a heads up.	122559837	1475268183130	1475268183274	h	72
241139	2580773	Call me to give me a heads up.	Call me to give me a heads up.	122559844	1475268183197	1475268183370	e	69
241139	2580773	Call me to give me a heads up.	Call me to give me a heads up.	122559854	1475268183314	1475268183522	a	65
241139	2580773	Call me to give me a heads up.	Call me to give me a heads up.	122559955	1475268183498	1475268183628	d	68
241139	2580773	Call me to give me a heads up.	Call me to give me a heads up.	122559959	1475268183722	1475268183850	s	83
241139	2580773	Call me to give me a heads up.	Call me to give me a heads up.	122559964	1475268183818	1475268183914	 	32
241139	2580773	Call me to give me a heads up.	Call me to give me a heads up.	122559968	1475268184135	1475268184314	u	85
241139	2580773	Call me to give me a heads up.	Call me to give me a heads up.	122559976	1475268184250	1475268184411	p	80
241139	2580773	Call me to give me a heads up.	Call me to give me a heads up.	122559980	1475268184434	1475268184740	.	190
241139	2580793	Megan, I'm a little too quick for myself.	Megan, I'm a little too quick for myself	122560318	1475268186662	1475268187130	SHIFT	16
241139	2580793	Megan, I'm a little too quick for myself.	Megan, I'm a little too quick for myself	122560325	1475268187009	1475268187146	M	77
241139	2580793	Megan, I'm a little too quick for myself.	Megan, I'm a little too quick for myself	122560333	1475268187114	1475268187242	E	69
241139	2580793	Megan, I'm a little too quick for myself.	Megan, I'm a little too quick for myself	122560339	1475268187339	1475268187466	g	71
241139	2580793	Megan, I'm a little too quick for myself.	Megan, I'm a little too quick for myself	122560351	1475268187530	1475268187658	a	65
241139	2580793	Megan, I'm a little too quick for myself.	Megan, I'm a little too quick for myself	122560361	1475268188160	1475268188245	BKSP	8
241139	2580793	Megan, I'm a little too quick for myself.	Megan, I'm a little too quick for myself	122560371	1475268188276	1475268188386	BKSP	8
241139	2580793	Megan, I'm a little too quick for myself.	Megan, I'm a little too quick for myself	122560378	1475268188410	1475268188522	BKSP	8
241139	2580793	Megan, I'm a little too quick for myself.	Megan, I'm a little too quick for myself	122560383	1475268188546	1475268188674	e	69
241139	2580793	Megan, I'm a little too quick for myself.	Megan, I'm a little too quick for myself	122560519	1475268188926	1475268189059	g	71
241139	2580793	Megan, I'm a little too quick for myself.	Megan, I'm a little too quick for myself	122560525	1475268189324	1475268189460	a	65
241139	2580793	Megan, I'm a little too quick for myself.	Megan, I'm a little too quick for myself	122560533	1475268189538	1475268189612	n	78
241139	2580793	Megan, I'm a little too quick for myself.	Megan, I'm a little too quick for myself	122560549	1475268190240	1475268190382	 	32
241139	2580793	Megan, I'm a little too quick for myself.	Megan, I'm a little too quick for myself	122560558	1475268190414	1475268190742	SHIFT	16
241139	2580793	Megan, I'm a little too quick for myself.	Megan, I'm a little too quick for myself	122560635	1475268190644	1475268190746	I	73
241139	2580793	Megan, I'm a little too quick for myself.	Megan, I'm a little too quick for myself	122560639	1475268190996	1475268191114	;	186
241139	2580793	Megan, I'm a little too quick for myself.	Megan, I'm a little too quick for myself	122560644	1475268191186	1475268191286	m	77
241139	2580793	Megan, I'm a little too quick for myself.	Megan, I'm a little too quick for myself	122560648	1475268191370	1475268191490	 	32
241139	2580793	Megan, I'm a little too quick for myself.	Megan, I'm a little too quick for myself	122560651	1475268191834	1475268191962	i	73
241139	2580793	Megan, I'm a little too quick for myself.	Megan, I'm a little too quick for myself	122560944	1475268191896	1475268192001	n	78
241139	2580793	Megan, I'm a little too quick for myself.	Megan, I'm a little too quick for myself	122560947	1475268192141	1475268192214	BKSP	8
241139	2580793	Megan, I'm a little too quick for myself.	Megan, I'm a little too quick for myself	122560958	1475268192254	1475268192322	BKSP	8
241139	2580793	Megan, I'm a little too quick for myself.	Megan, I'm a little too quick for myself	122560963	1475268192358	1475268192430	BKSP	8
241139	2580793	Megan, I'm a little too quick for myself.	Megan, I'm a little too quick for myself	122560971	1475268192453	1475268192518	BKSP	8
241139	2580793	Megan, I'm a little too quick for myself.	Megan, I'm a little too quick for myself	122560978	1475268192534	1475268192630	BKSP	8
241139	2580793	Megan, I'm a little too quick for myself.	Megan, I'm a little too quick for myself	122560996	1475268192937	1475268193425	SHIFT	16
241139	2580793	Megan, I'm a little too quick for myself.	Megan, I'm a little too quick for myself	122560988	1475268193289	1475268193409	"	222
241139	2580793	Megan, I'm a little too quick for myself.	Megan, I'm a little too quick for myself	122561006	1475268193943	1475268194086	BKSP	8
241139	2580793	Megan, I'm a little too quick for myself.	Megan, I'm a little too quick for myself	122561019	1475268194190	1475268194294	'	222
241139	2580793	Megan, I'm a little too quick for myself.	Megan, I'm a little too quick for myself	122561028	1475268194512	1475268194628	m	77
241139	2580793	Megan, I'm a little too quick for myself.	Megan, I'm a little too quick for myself	122561034	1475268195098	1475268195222	 	32
241139	2580793	Megan, I'm a little too quick for myself.	Megan, I'm a little too quick for myself	122561041	1475268195270	1475268195382	a	65
241139	2580793	Megan, I'm a little too quick for myself.	Megan, I'm a little too quick for myself	122561008	1475268195356	1475268195513	 	32
241139	2580793	Megan, I'm a little too quick for myself.	Megan, I'm a little too quick for myself	122561018	1475268195398	1475268195528	l	76
241139	2580793	Megan, I'm a little too quick for myself.	Megan, I'm a little too quick for myself	122561027	1475268195606	1475268195726	i	73
241139	2580793	Megan, I'm a little too quick for myself.	Megan, I'm a little too quick for myself	122561033	1475268195679	1475268195774	t	84
241139	2580793	Megan, I'm a little too quick for myself.	Megan, I'm a little too quick for myself	122561039	1475268195830	1475268195918	t	84
241139	2580793	Megan, I'm a little too quick for myself.	Megan, I'm a little too quick for myself	122561134	1475268195903	1475268196038	l	76
241139	2580793	Megan, I'm a little too quick for myself.	Megan, I'm a little too quick for myself	122561137	1475268196014	1475268196126	e	69
241139	2580793	Megan, I'm a little too quick for myself.	Megan, I'm a little too quick for myself	122561139	1475268196094	1475268196229	 	32
241139	2580793	Megan, I'm a little too quick for myself.	Megan, I'm a little too quick for myself	122561144	1475268196370	1475268196478	t	84
241139	2580793	Megan, I'm a little too quick for myself.	Megan, I'm a little too quick for myself	122561151	1475268196894	1475268196978	o	79
241139	2580793	Megan, I'm a little too quick for myself.	Megan, I'm a little too quick for myself	122561161	1475268197025	1475268197142	o	79
241139	2580793	Megan, I'm a little too quick for myself.	Megan, I'm a little too quick for myself	122561211	1475268197208	1475268197326	 	32
241139	2580793	Megan, I'm a little too quick for myself.	Megan, I'm a little too quick for myself	122561215	1475268197501	1475268197646	q	81
241139	2580793	Megan, I'm a little too quick for myself.	Megan, I'm a little too quick for myself	122561222	1475268197678	1475268197790	u	85
241139	2580793	Megan, I'm a little too quick for myself.	Megan, I'm a little too quick for myself	122561231	1475268197710	1475268197846	i	73
241139	2580793	Megan, I'm a little too quick for myself.	Megan, I'm a little too quick for myself	122561239	1475268197902	1475268198030	c	67
241139	2580793	Megan, I'm a little too quick for myself.	Megan, I'm a little too quick for myself	122561264	1475268197993	1475268198120	k	75
241139	2580793	Megan, I'm a little too quick for myself.	Megan, I'm a little too quick for myself	122561268	1475268198183	1475268198342	 	32
241139	2580793	Megan, I'm a little too quick for myself.	Megan, I'm a little too quick for myself	122561273	1475268198358	1475268198480	f	70
241139	2580793	Megan, I'm a little too quick for myself.	Megan, I'm a little too quick for myself	122561275	1475268198429	1475268198543	o	79
241139	2580793	Megan, I'm a little too quick for myself.	Megan, I'm a little too quick for myself	122561278	1475268198543	1475268198670	r	82
241139	2580793	Megan, I'm a little too quick for myself.	Megan, I'm a little too quick for myself	122561307	1475268198614	1475268198766	 	32
241139	2580793	Megan, I'm a little too quick for myself.	Megan, I'm a little too quick for myself	122561310	1475268198671	1475268198806	m	77
241139	2580793	Megan, I'm a little too quick for myself.	Megan, I'm a little too quick for myself	122561311	1475268198901	1475268198999	y	89
241139	2580793	Megan, I'm a little too quick for myself.	Megan, I'm a little too quick for myself	122561313	1475268198962	1475268199077	s	83
241139	2580793	Megan, I'm a little too quick for myself.	Megan, I'm a little too quick for myself	122561316	1475268199140	1475268199246	e	69
241139	2580793	Megan, I'm a little too quick for myself.	Megan, I'm a little too quick for myself	122561322	1475268199206	1475268199334	l	76
241139	2580819	Louis defensive backs should be able to match his downfield speed.	Louis dfensive backs should be able to match his downfield speed.	122561774	1475268199318	1475268204766	f	70
241139	2580819	Louis defensive backs should be able to match his downfield speed.	Louis dfensive backs should be able to match his downfield speed.	122561684	1475268202029	1475268202302	SHIFT	16
241139	2580819	Louis defensive backs should be able to match his downfield speed.	Louis dfensive backs should be able to match his downfield speed.	122561689	1475268202185	1475268202334	L	76
241139	2580819	Louis defensive backs should be able to match his downfield speed.	Louis dfensive backs should be able to match his downfield speed.	122561692	1475268202734	1475268202894	o	79
241139	2580819	Louis defensive backs should be able to match his downfield speed.	Louis dfensive backs should be able to match his downfield speed.	122561694	1475268203596	1475268203742	u	85
241139	2580819	Louis defensive backs should be able to match his downfield speed.	Louis dfensive backs should be able to match his downfield speed.	122561696	1475268203646	1475268203798	i	73
241139	2580819	Louis defensive backs should be able to match his downfield speed.	Louis dfensive backs should be able to match his downfield speed.	122561699	1475268203806	1475268203965	s	83
241139	2580819	Louis defensive backs should be able to match his downfield speed.	Louis dfensive backs should be able to match his downfield speed.	122561758	1475268203993	1475268204120	 	32
241139	2580819	Louis defensive backs should be able to match his downfield speed.	Louis dfensive backs should be able to match his downfield speed.	122561763	1475268204151	1475268204277	d	68
241139	2580819	Louis defensive backs should be able to match his downfield speed.	Louis dfensive backs should be able to match his downfield speed.	122561767	1475268204417	1475268204550	e	69
241139	2580819	Louis defensive backs should be able to match his downfield speed.	Louis dfensive backs should be able to match his downfield speed.	122561783	1475268204830	1475268204934	e	69
241139	2580819	Louis defensive backs should be able to match his downfield speed.	Louis dfensive backs should be able to match his downfield speed.	122561882	1475268204897	1475268205038	n	78
241139	2580819	Louis defensive backs should be able to match his downfield speed.	Louis dfensive backs should be able to match his downfield speed.	122561885	1475268205038	1475268205134	s	83
241139	2580819	Louis defensive backs should be able to match his downfield speed.	Louis dfensive backs should be able to match his downfield speed.	122561890	1475268205109	1475268205238	i	73
241139	2580819	Louis defensive backs should be able to match his downfield speed.	Louis dfensive backs should be able to match his downfield speed.	122561896	1475268205344	1475268205493	v	86
241139	2580819	Louis defensive backs should be able to match his downfield speed.	Louis dfensive backs should be able to match his downfield speed.	122561904	1475268205540	1475268205678	e	69
241139	2580819	Louis defensive backs should be able to match his downfield speed.	Louis dfensive backs should be able to match his downfield speed.	122561914	1475268206134	1475268206296	 	32
241139	2580819	Louis defensive backs should be able to match his downfield speed.	Louis dfensive backs should be able to match his downfield speed.	122561942	1475268206349	1475268206470	b	66
241139	2580819	Louis defensive backs should be able to match his downfield speed.	Louis dfensive backs should be able to match his downfield speed.	122561947	1475268206413	1475268206566	a	65
241139	2580819	Louis defensive backs should be able to match his downfield speed.	Louis dfensive backs should be able to match his downfield speed.	122561952	1475268206610	1475268206766	c	67
241139	2580819	Louis defensive backs should be able to match his downfield speed.	Louis dfensive backs should be able to match his downfield speed.	122561956	1475268206718	1475268206862	k	75
241139	2580819	Louis defensive backs should be able to match his downfield speed.	Louis dfensive backs should be able to match his downfield speed.	122561961	1475268206902	1475268207024	s	83
241139	2580819	Louis defensive backs should be able to match his downfield speed.	Louis dfensive backs should be able to match his downfield speed.	122562007	1475268207072	1475268207134	 	32
241139	2580819	Louis defensive backs should be able to match his downfield speed.	Louis dfensive backs should be able to match his downfield speed.	122562010	1475268207206	1475268207334	s	83
241139	2580819	Louis defensive backs should be able to match his downfield speed.	Louis dfensive backs should be able to match his downfield speed.	122562017	1475268207294	1475268207478	h	72
241139	2580819	Louis defensive backs should be able to match his downfield speed.	Louis dfensive backs should be able to match his downfield speed.	122562025	1475268207382	1475268207526	o	79
241139	2580819	Louis defensive backs should be able to match his downfield speed.	Louis dfensive backs should be able to match his downfield speed.	122562029	1475268207588	1475268207725	u	85
241139	2580819	Louis defensive backs should be able to match his downfield speed.	Louis dfensive backs should be able to match his downfield speed.	122562056	1475268207823	1475268207950	l	76
241139	2580819	Louis defensive backs should be able to match his downfield speed.	Louis dfensive backs should be able to match his downfield speed.	122562061	1475268207928	1475268208062	d	68
241139	2580819	Louis defensive backs should be able to match his downfield speed.	Louis dfensive backs should be able to match his downfield speed.	122562065	1475268208027	1475268208095	 	32
241139	2580819	Louis defensive backs should be able to match his downfield speed.	Louis dfensive backs should be able to match his downfield speed.	122562069	1475268208182	1475268208294	b	66
241139	2580819	Louis defensive backs should be able to match his downfield speed.	Louis dfensive backs should be able to match his downfield speed.	122562075	1475268208302	1475268208422	e	69
241139	2580819	Louis defensive backs should be able to match his downfield speed.	Louis dfensive backs should be able to match his downfield speed.	122562108	1475268208405	1475268208495	 	32
241139	2580819	Louis defensive backs should be able to match his downfield speed.	Louis dfensive backs should be able to match his downfield speed.	122562110	1475268208557	1475268208730	a	65
241139	2580819	Louis defensive backs should be able to match his downfield speed.	Louis dfensive backs should be able to match his downfield speed.	122562114	1475268208598	1475268208730	b	66
241139	2580819	Louis defensive backs should be able to match his downfield speed.	Louis dfensive backs should be able to match his downfield speed.	122562118	1475268208793	1475268208932	l	76
241139	2580819	Louis defensive backs should be able to match his downfield speed.	Louis dfensive backs should be able to match his downfield speed.	122562121	1475268208894	1475268209030	e	69
241139	2580819	Louis defensive backs should be able to match his downfield speed.	Louis dfensive backs should be able to match his downfield speed.	122562130	1475268209004	1475268209088	 	32
241139	2580819	Louis defensive backs should be able to match his downfield speed.	Louis dfensive backs should be able to match his downfield speed.	122562131	1475268209109	1475268209230	t	84
241139	2580819	Louis defensive backs should be able to match his downfield speed.	Louis dfensive backs should be able to match his downfield speed.	122562133	1475268209142	1475268209262	o	79
241139	2580819	Louis defensive backs should be able to match his downfield speed.	Louis dfensive backs should be able to match his downfield speed.	122562135	1475268209302	1475268209448	 	32
241139	2580819	Louis defensive backs should be able to match his downfield speed.	Louis dfensive backs should be able to match his downfield speed.	122562229	1475268209369	1475268209481	a	77
241139	2580819	Louis defensive backs should be able to match his downfield speed.	Louis dfensive backs should be able to match his downfield speed.	122562234	1475268209598	1475268209689	t	84
241139	2580819	Louis defensive backs should be able to match his downfield speed.	Louis dfensive backs should be able to match his downfield speed.	122562239	1475268209783	1475268209918	c	67
241139	2580819	Louis defensive backs should be able to match his downfield speed.	Louis dfensive backs should be able to match his downfield speed.	122562243	1475268209886	1475268210006	h	72
241139	2580819	Louis defensive backs should be able to match his downfield speed.	Louis dfensive backs should be able to match his downfield speed.	122562247	1475268210062	1475268210161	 	32
241139	2580819	Louis defensive backs should be able to match his downfield speed.	Louis dfensive backs should be able to match his downfield speed.	122562251	1475268210262	1475268210406	h	72
241139	2580819	Louis defensive backs should be able to match his downfield speed.	Louis dfensive backs should be able to match his downfield speed.	122562263	1475268210326	1475268210462	i	73
241139	2580819	Louis defensive backs should be able to match his downfield speed.	Louis dfensive backs should be able to match his downfield speed.	122562268	1475268210399	1475268210502	s	83
241139	2580819	Louis defensive backs should be able to match his downfield speed.	Louis dfensive backs should be able to match his downfield speed.	122562274	1475268210526	1475268210638	 	32
241139	2580819	Louis defensive backs should be able to match his downfield speed.	Louis dfensive backs should be able to match his downfield speed.	122562281	1475268210598	1475268210702	d	68
241139	2580819	Louis defensive backs should be able to match his downfield speed.	Louis dfensive backs should be able to match his downfield speed.	122562285	1475268210686	1475268210814	o	79
241139	2580819	Louis defensive backs should be able to match his downfield speed.	Louis dfensive backs should be able to match his downfield speed.	122562291	1475268210798	1475268210925	w	87
241139	2580819	Louis defensive backs should be able to match his downfield speed.	Louis dfensive backs should be able to match his downfield speed.	122562322	1475268210888	1475268211038	n	78
241139	2580819	Louis defensive backs should be able to match his downfield speed.	Louis dfensive backs should be able to match his downfield speed.	122562329	1475268211015	1475268211157	f	70
241139	2580819	Louis defensive backs should be able to match his downfield speed.	Louis dfensive backs should be able to match his downfield speed.	122562335	1475268211127	1475268211261	i	73
241139	2580819	Louis defensive backs should be able to match his downfield speed.	Louis dfensive backs should be able to match his downfield speed.	122562343	1475268211227	1475268211327	e	69
241139	2580819	Louis defensive backs should be able to match his downfield speed.	Louis dfensive backs should be able to match his downfield speed.	122562352	1475268211343	1475268211486	l	76
241139	2580819	Louis defensive backs should be able to match his downfield speed.	Louis dfensive backs should be able to match his downfield speed.	122562405	1475268211450	1475268211566	d	68
241139	2580819	Louis defensive backs should be able to match his downfield speed.	Louis dfensive backs should be able to match his downfield speed.	122562410	1475268211566	1475268211671	 	32
241139	2580819	Louis defensive backs should be able to match his downfield speed.	Louis dfensive backs should be able to match his downfield speed.	122562413	1475268211671	1475268211798	s	83
241139	2580819	Louis defensive backs should be able to match his downfield speed.	Louis dfensive backs should be able to match his downfield speed.	122562418	1475268211750	1475268211870	p	80
241139	2580819	Louis defensive backs should be able to match his downfield speed.	Louis dfensive backs should be able to match his downfield speed.	122562420	1475268211878	1475268211990	e	69
241139	2580819	Louis defensive backs should be able to match his downfield speed.	Louis dfensive backs should be able to match his downfield speed.	122562426	1475268212038	1475268212150	e	69
241139	2580819	Louis defensive backs should be able to match his downfield speed.	Louis dfensive backs should be able to match his downfield speed.	122562430	1475268212208	1475268212342	d	68
241139	2580844	I will bring John Brindle.	I will bring John Bindle	122562768	1475268215144	1475268215598	SHIFT	16
241139	2580844	I will bring John Brindle.	I will bring John Bindle	122562763	1475268215474	1475268215590	I	73
241139	2580844	I will bring John Brindle.	I will bring John Bindle	122562774	1475268215673	1475268215814	 	32
241139	2580844	I will bring John Brindle.	I will bring John Bindle	122562779	1475268215798	1475268215926	w	87
241139	2580844	I will bring John Brindle.	I will bring John Bindle	122562787	1475268215873	1475268215998	i	73
241139	2580844	I will bring John Brindle.	I will bring John Bindle	122562796	1475268216080	1475268216179	l	76
241139	2580844	I will bring John Brindle.	I will bring John Bindle	122562831	1475268216232	1475268216358	l	76
241139	2580844	I will bring John Brindle.	I will bring John Bindle	122562836	1475268216518	1475268216627	 	32
241139	2580844	I will bring John Brindle.	I will bring John Bindle	122562843	1475268216685	1475268216814	b	66
241139	2580844	I will bring John Brindle.	I will bring John Bindle	122562849	1475268216762	1475268216885	r	82
241139	2580844	I will bring John Brindle.	I will bring John Bindle	122562972	1475268216861	1475268217022	i	73
241139	2580844	I will bring John Brindle.	I will bring John Bindle	122562976	1475268216944	1475268217070	n	78
241139	2580844	I will bring John Brindle.	I will bring John Bindle	122562983	1475268217022	1475268217150	g	71
241139	2580844	I will bring John Brindle.	I will bring John Bindle	122562989	1475268217158	1475268217277	 	32
241139	2580844	I will bring John Brindle.	I will bring John Bindle	122562996	1475268217747	1475268218044	SHIFT	16
241139	2580844	I will bring John Brindle.	I will bring John Bindle	122562999	1475268217965	1475268218076	J	74
241139	2580844	I will bring John Brindle.	I will bring John Bindle	122563006	1475268218154	1475268218282	o	79
241139	2580844	I will bring John Brindle.	I will bring John Bindle	122563099	1475268218262	1475268218385	h	72
241139	2580844	I will bring John Brindle.	I will bring John Bindle	122563110	1475268218510	1475268218638	n	78
241139	2580844	I will bring John Brindle.	I will bring John Bindle	122563120	1475268218736	1475268218841	 	32
241139	2580844	I will bring John Brindle.	I will bring John Bindle	122563128	1475268218915	1475268219266	SHIFT	16
241139	2580844	I will bring John Brindle.	I will bring John Bindle	122563134	1475268219189	1475268219294	B	66
241139	2580844	I will bring John Brindle.	I will bring John Bindle	122563140	1475268219373	1475268219518	i	73
241139	2580844	I will bring John Brindle.	I will bring John Bindle	122563154	1475268219450	1475268219570	n	78
241139	2580844	I will bring John Brindle.	I will bring John Bindle	122563161	1475268219498	1475268219634	d	68
241139	2580844	I will bring John Brindle.	I will bring John Bindle	122563166	1475268219654	1475268219808	l	76
241139	2580844	I will bring John Brindle.	I will bring John Bindle	122563170	1475268219918	1475268220050	e	69
241139	2580857	Wonder what next week will bring.	Wonder what next week will bring,	122563405	1475268222082	1475268222262	SHIFT	16
241139	2580857	Wonder what next week will bring.	Wonder what next week will bring,	122563408	1475268222190	1475268222293	W	87
241139	2580857	Wonder what next week will bring.	Wonder what next week will bring,	122563413	1475268222356	1475268222506	o	79
241139	2580857	Wonder what next week will bring.	Wonder what next week will bring,	122563421	1475268222414	1475268222546	n	78
241139	2580857	Wonder what next week will bring.	Wonder what next week will bring,	122563430	1475268222480	1475268222610	d	68
241139	2580857	Wonder what next week will bring.	Wonder what next week will bring,	122563434	1475268222663	1475268222777	e	69
241139	2580857	Wonder what next week will bring.	Wonder what next week will bring,	122563488	1475268222845	1475268222946	r	82
241139	2580857	Wonder what next week will bring.	Wonder what next week will bring,	122563491	1475268222938	1475268223050	 	32
241139	2580857	Wonder what next week will bring.	Wonder what next week will bring,	122563495	1475268223050	1475268223202	w	87
241139	2580857	Wonder what next week will bring.	Wonder what next week will bring,	122563497	1475268223202	1475268223272	h	72
241139	2580857	Wonder what next week will bring.	Wonder what next week will bring,	122563502	1475268223287	1475268223426	a	65
241139	2580857	Wonder what next week will bring.	Wonder what next week will bring,	122563552	1475268223394	1475268223491	t	84
241139	2580857	Wonder what next week will bring.	Wonder what next week will bring,	122563557	1475268223553	1475268223738	 	32
241139	2580857	Wonder what next week will bring.	Wonder what next week will bring,	122563566	1475268223646	1475268223778	n	78
241139	2580857	Wonder what next week will bring.	Wonder what next week will bring,	122563561	1475268223682	1475268223770	e	69
241139	2580857	Wonder what next week will bring.	Wonder what next week will bring,	122563569	1475268223874	1475268223978	x	88
241139	2580857	Wonder what next week will bring.	Wonder what next week will bring,	122563574	1475268224071	1475268224202	t	84
241139	2580857	Wonder what next week will bring.	Wonder what next week will bring,	122563620	1475268224210	1475268224362	 	32
241139	2580857	Wonder what next week will bring.	Wonder what next week will bring,	122563622	1475268224322	1475268224458	w	87
241139	2580857	Wonder what next week will bring.	Wonder what next week will bring,	122563626	1475268224507	1475268224618	e	69
241139	2580857	Wonder what next week will bring.	Wonder what next week will bring,	122563630	1475268224666	1475268224782	e	69
241139	2580857	Wonder what next week will bring.	Wonder what next week will bring,	122563636	1475268224813	1475268224938	k	75
241139	2580857	Wonder what next week will bring.	Wonder what next week will bring,	122563678	1475268224994	1475268225111	 	32
241139	2580857	Wonder what next week will bring.	Wonder what next week will bring,	122563686	1475268225111	1475268225242	w	87
241139	2580857	Wonder what next week will bring.	Wonder what next week will bring,	122563693	1475268225186	1475268225306	i	73
241139	2580857	Wonder what next week will bring.	Wonder what next week will bring,	122563698	1475268225373	1475268225474	l	76
241139	2580857	Wonder what next week will bring.	Wonder what next week will bring,	122563703	1475268225513	1475268225618	l	76
241139	2580857	Wonder what next week will bring.	Wonder what next week will bring,	122563732	1475268225698	1475268225795	 	32
241139	2580857	Wonder what next week will bring.	Wonder what next week will bring,	122563735	1475268225858	1475268225980	b	66
241139	2580857	Wonder what next week will bring.	Wonder what next week will bring,	122563739	1475268225915	1475268226058	r	82
241139	2580857	Wonder what next week will bring.	Wonder what next week will bring,	122563742	1475268226027	1475268226202	i	73
241139	2580857	Wonder what next week will bring.	Wonder what next week will bring,	122563763	1475268226138	1475268226248	n	78
241139	2580857	Wonder what next week will bring.	Wonder what next week will bring,	122563769	1475268226195	1475268226295	g	71
241139	2580857	Wonder what next week will bring.	Wonder what next week will bring,	122563776	1475268226342	1475268226498	,	188
241139	2580874	Get with Mary for format.	Get with Mary for format.	122564015	1475268228443	1475268228842	SHIFT	16
241139	2580874	Get with Mary for format.	Get with Mary for format.	122564019	1475268228734	1475268228858	G	71
241139	2580874	Get with Mary for format.	Get with Mary for format.	122564027	1475268228956	1475268229092	e	69
241139	2580874	Get with Mary for format.	Get with Mary for format.	122564031	1475268229170	1475268229298	t	84
241139	2580874	Get with Mary for format.	Get with Mary for format.	122564034	1475268229298	1475268229411	 	32
241139	2580874	Get with Mary for format.	Get with Mary for format.	122564037	1475268229426	1475268229586	w	87
241139	2580874	Get with Mary for format.	Get with Mary for format.	122564089	1475268229610	1475268229738	i	73
241139	2580874	Get with Mary for format.	Get with Mary for format.	122564100	1475268229738	1475268229865	t	84
241139	2580874	Get with Mary for format.	Get with Mary for format.	122564110	1475268229825	1475268229958	h	72
241139	2580874	Get with Mary for format.	Get with Mary for format.	122564118	1475268229990	1475268230132	 	32
241139	2580874	Get with Mary for format.	Get with Mary for format.	122564124	1475268230132	1475268230378	SHIFT	16
241139	2580874	Get with Mary for format.	Get with Mary for format.	122564208	1475268230297	1475268230431	M	77
241139	2580874	Get with Mary for format.	Get with Mary for format.	122564213	1475268230389	1475268230540	a	65
241139	2580874	Get with Mary for format.	Get with Mary for format.	122564218	1475268230540	1475268230666	r	82
241139	2580874	Get with Mary for format.	Get with Mary for format.	122564222	1475268230714	1475268230802	y	89
241139	2580874	Get with Mary for format.	Get with Mary for format.	122564229	1475268230882	1475268230994	 	32
241139	2580874	Get with Mary for format.	Get with Mary for format.	122564232	1475268231361	1475268231513	f	70
241139	2580874	Get with Mary for format.	Get with Mary for format.	122564262	1475268231491	1475268231647	o	79
241139	2580874	Get with Mary for format.	Get with Mary for format.	122564266	1475268231595	1475268231754	r	82
241139	2580874	Get with Mary for format.	Get with Mary for format.	122564273	1475268231725	1475268231865	 	32
241139	2580874	Get with Mary for format.	Get with Mary for format.	122564279	1475268231943	1475268232066	f	70
241139	2580874	Get with Mary for format.	Get with Mary for format.	122564285	1475268232034	1475268232146	o	79
241139	2580874	Get with Mary for format.	Get with Mary for format.	122564336	1475268232122	1475268232258	r	82
241139	2580874	Get with Mary for format.	Get with Mary for format.	122564340	1475268232201	1475268232330	m	77
241139	2580874	Get with Mary for format.	Get with Mary for format.	122564349	1475268232290	1475268232458	a	65
241139	2580874	Get with Mary for format.	Get with Mary for format.	122564357	1475268232504	1475268232625	t	84
241139	2580886	Next time ask Jim to call me.	Next time ask Jim to call me.	122564557	1475268235056	1475268235466	SHIFT	16
241139	2580886	Next time ask Jim to call me.	Next time ask Jim to call me.	122564563	1475268235379	1475268235506	N	78
241139	2580886	Next time ask Jim to call me.	Next time ask Jim to call me.	122564568	1475268235529	1475268235618	e	69
241139	2580886	Next time ask Jim to call me.	Next time ask Jim to call me.	122564574	1475268235722	1475268235850	x	88
241139	2580886	Next time ask Jim to call me.	Next time ask Jim to call me.	122564580	1475268235812	1475268235911	t	84
241139	2580886	Next time ask Jim to call me.	Next time ask Jim to call me.	122564586	1475268235958	1475268236061	 	32
241139	2580886	Next time ask Jim to call me.	Next time ask Jim to call me.	122564648	1475268236140	1475268236312	SHIFT	16
241139	2580886	Next time ask Jim to call me.	Next time ask Jim to call me.	122564654	1475268236407	1475268236538	t	84
241139	2580886	Next time ask Jim to call me.	Next time ask Jim to call me.	122564662	1475268236539	1475268236722	i	73
241139	2580886	Next time ask Jim to call me.	Next time ask Jim to call me.	122564670	1475268236636	1475268236778	m	77
241139	2580886	Next time ask Jim to call me.	Next time ask Jim to call me.	122564677	1475268236714	1475268236834	e	69
241139	2580886	Next time ask Jim to call me.	Next time ask Jim to call me.	122564686	1475268236882	1475268236994	 	32
241139	2580886	Next time ask Jim to call me.	Next time ask Jim to call me.	122564889	1475268236937	1475268237146	a	65
241139	2580886	Next time ask Jim to call me.	Next time ask Jim to call me.	122564892	1475268237240	1475268237346	k	75
241139	2580886	Next time ask Jim to call me.	Next time ask Jim to call me.	122564895	1475268237597	1475268237679	BKSP	8
241139	2580886	Next time ask Jim to call me.	Next time ask Jim to call me.	122564897	1475268237898	1475268238009	s	83
241139	2580886	Next time ask Jim to call me.	Next time ask Jim to call me.	122564900	1475268238009	1475268238146	k	75
241139	2580886	Next time ask Jim to call me.	Next time ask Jim to call me.	122564910	1475268238223	1475268238265	k	75
241139	2580886	Next time ask Jim to call me.	Next time ask Jim to call me.	122564917	1475268238907	1475268239018	BKSP	8
241139	2580886	Next time ask Jim to call me.	Next time ask Jim to call me.	122564926	1475268239171	1475268239306	 	32
241139	2580886	Next time ask Jim to call me.	Next time ask Jim to call me.	122564972	1475268239403	1475268239698	SHIFT	16
241139	2580886	Next time ask Jim to call me.	Next time ask Jim to call me.	122564975	1475268239637	1475268239794	J	74
241139	2580886	Next time ask Jim to call me.	Next time ask Jim to call me.	122564979	1475268239839	1475268240002	i	73
241139	2580886	Next time ask Jim to call me.	Next time ask Jim to call me.	122564982	1475268239946	1475268240074	m	77
241139	2580886	Next time ask Jim to call me.	Next time ask Jim to call me.	122564987	1475268240143	1475268240290	 	32
241139	2580886	Next time ask Jim to call me.	Next time ask Jim to call me.	122565029	1475268240274	1475268240394	t	84
241139	2580886	Next time ask Jim to call me.	Next time ask Jim to call me.	122565031	1475268240340	1475268240474	o	79
241139	2580886	Next time ask Jim to call me.	Next time ask Jim to call me.	122565038	1475268240530	1475268240650	 	32
241139	2580886	Next time ask Jim to call me.	Next time ask Jim to call me.	122565044	1475268240562	1475268240746	c	67
241139	2580886	Next time ask Jim to call me.	Next time ask Jim to call me.	122565086	1475268240673	1475268240826	a	65
241139	2580886	Next time ask Jim to call me.	Next time ask Jim to call me.	122565051	1475268240746	1475268240818	l	76
241139	2580886	Next time ask Jim to call me.	Next time ask Jim to call me.	122565090	1475268240882	1475268240978	l	76
241139	2580886	Next time ask Jim to call me.	Next time ask Jim to call me.	122565097	1475268241018	1475268241146	 	32
241139	2580886	Next time ask Jim to call me.	Next time ask Jim to call me.	122565105	1475268241098	1475268241202	m	77
241139	2580886	Next time ask Jim to call me.	Next time ask Jim to call me.	122565111	1475268241130	1475268241267	e	69
241139	2580886	Next time ask Jim to call me.	Next time ask Jim to call me.	122565116	1475268241361	1475268241532	.	190
241139	2580898	She chipped in from 69 feet for a birdie at 17.	She chipped in from 69 feet for a birdie at 17.	122565319	1475268243402	1475268243581	SHIFT	16
241139	2580898	She chipped in from 69 feet for a birdie at 17.	She chipped in from 69 feet for a birdie at 17.	122565326	1475268243526	1475268243675	S	83
241139	2580898	She chipped in from 69 feet for a birdie at 17.	She chipped in from 69 feet for a birdie at 17.	122565333	1475268243737	1475268243850	h	72
241139	2580898	She chipped in from 69 feet for a birdie at 17.	She chipped in from 69 feet for a birdie at 17.	122565342	1475268243796	1475268243906	e	69
241139	2580898	She chipped in from 69 feet for a birdie at 17.	She chipped in from 69 feet for a birdie at 17.	122565349	1475268243922	1475268244018	 	32
241139	2580898	She chipped in from 69 feet for a birdie at 17.	She chipped in from 69 feet for a birdie at 17.	122565358	1475268244018	1475268244130	c	67
241139	2580898	She chipped in from 69 feet for a birdie at 17.	She chipped in from 69 feet for a birdie at 17.	122565441	1475268244201	1475268244422	h	72
241139	2580898	She chipped in from 69 feet for a birdie at 17.	She chipped in from 69 feet for a birdie at 17.	122565447	1475268244984	1475268245095	i	73
241139	2580898	She chipped in from 69 feet for a birdie at 17.	She chipped in from 69 feet for a birdie at 17.	122565451	1475268245220	1475268245295	p	80
241139	2580898	She chipped in from 69 feet for a birdie at 17.	She chipped in from 69 feet for a birdie at 17.	122565456	1475268245342	1475268245458	p	80
241139	2580898	She chipped in from 69 feet for a birdie at 17.	She chipped in from 69 feet for a birdie at 17.	122565505	1475268245418	1475268245514	e	69
241139	2580898	She chipped in from 69 feet for a birdie at 17.	She chipped in from 69 feet for a birdie at 17.	122565515	1475268245590	1475268245718	d	68
241139	2580898	She chipped in from 69 feet for a birdie at 17.	She chipped in from 69 feet for a birdie at 17.	122565524	1475268245654	1475268245746	 	32
241139	2580898	She chipped in from 69 feet for a birdie at 17.	She chipped in from 69 feet for a birdie at 17.	122565535	1475268245794	1475268245934	i	73
241139	2580898	She chipped in from 69 feet for a birdie at 17.	She chipped in from 69 feet for a birdie at 17.	122565542	1475268245849	1475268245946	n	78
241139	2580898	She chipped in from 69 feet for a birdie at 17.	She chipped in from 69 feet for a birdie at 17.	122565549	1475268246022	1475268246158	f	32
241139	2580898	She chipped in from 69 feet for a birdie at 17.	She chipped in from 69 feet for a birdie at 17.	122565674	1475268246207	1475268246338	r	82
241139	2580898	She chipped in from 69 feet for a birdie at 17.	She chipped in from 69 feet for a birdie at 17.	122565678	1475268246298	1475268246421	o	79
241139	2580898	She chipped in from 69 feet for a birdie at 17.	She chipped in from 69 feet for a birdie at 17.	122565683	1475268246334	1475268246452	m	77
241139	2580898	She chipped in from 69 feet for a birdie at 17.	She chipped in from 69 feet for a birdie at 17.	122565693	1475268246515	1475268246661	 	32
241139	2580898	She chipped in from 69 feet for a birdie at 17.	She chipped in from 69 feet for a birdie at 17.	122565701	1475268247912	1475268248042	6	54
241139	2580898	She chipped in from 69 feet for a birdie at 17.	She chipped in from 69 feet for a birdie at 17.	122565760	1475268248049	1475268248174	9	57
241139	2580898	She chipped in from 69 feet for a birdie at 17.	She chipped in from 69 feet for a birdie at 17.	122565767	1475268248270	1475268248414	 	32
241139	2580898	She chipped in from 69 feet for a birdie at 17.	She chipped in from 69 feet for a birdie at 17.	122565773	1475268248377	1475268248502	f	70
241139	2580898	She chipped in from 69 feet for a birdie at 17.	She chipped in from 69 feet for a birdie at 17.	122565780	1475268248580	1475268248718	e	69
241139	2580898	She chipped in from 69 feet for a birdie at 17.	She chipped in from 69 feet for a birdie at 17.	122565785	1475268248766	1475268248892	e	69
241139	2580898	She chipped in from 69 feet for a birdie at 17.	She chipped in from 69 feet for a birdie at 17.	122565817	1475268248960	1475268249060	t	84
241139	2580898	She chipped in from 69 feet for a birdie at 17.	She chipped in from 69 feet for a birdie at 17.	122565822	1475268249092	1475268249230	 	32
241139	2580898	She chipped in from 69 feet for a birdie at 17.	She chipped in from 69 feet for a birdie at 17.	122565830	1475268249177	1475268249326	f	70
241139	2580898	She chipped in from 69 feet for a birdie at 17.	She chipped in from 69 feet for a birdie at 17.	122565836	1475268249326	1475268249481	o	79
241139	2580898	She chipped in from 69 feet for a birdie at 17.	She chipped in from 69 feet for a birdie at 17.	122565898	1475268249420	1475268249568	r	82
241139	2580898	She chipped in from 69 feet for a birdie at 17.	She chipped in from 69 feet for a birdie at 17.	122565902	1475268249583	1475268249698	 	32
241139	2580898	She chipped in from 69 feet for a birdie at 17.	She chipped in from 69 feet for a birdie at 17.	122565906	1475268249662	1475268249809	a	65
241139	2580898	She chipped in from 69 feet for a birdie at 17.	She chipped in from 69 feet for a birdie at 17.	122565910	1475268249809	1475268249910	 	32
241139	2580898	She chipped in from 69 feet for a birdie at 17.	She chipped in from 69 feet for a birdie at 17.	122565913	1475268250585	1475268250745	b	66
241139	2580898	She chipped in from 69 feet for a birdie at 17.	She chipped in from 69 feet for a birdie at 17.	122566071	1475268250659	1475268250821	i	73
241139	2580898	She chipped in from 69 feet for a birdie at 17.	She chipped in from 69 feet for a birdie at 17.	122566074	1475268250776	1475268250934	d	68
241139	2580898	She chipped in from 69 feet for a birdie at 17.	She chipped in from 69 feet for a birdie at 17.	122566080	1475268251300	1475268251441	r	82
241139	2580898	She chipped in from 69 feet for a birdie at 17.	She chipped in from 69 feet for a birdie at 17.	122566082	1475268251722	1475268251811	BKSP	8
241139	2580898	She chipped in from 69 feet for a birdie at 17.	She chipped in from 69 feet for a birdie at 17.	122566086	1475268251874	1475268251982	BKSP	8
241139	2580898	She chipped in from 69 feet for a birdie at 17.	She chipped in from 69 feet for a birdie at 17.	122566089	1475268251966	1475268252070	r	82
241139	2580898	She chipped in from 69 feet for a birdie at 17.	She chipped in from 69 feet for a birdie at 17.	122566092	1475268252133	1475268252243	i	73
241139	2580898	She chipped in from 69 feet for a birdie at 17.	She chipped in from 69 feet for a birdie at 17.	122566098	1475268252698	1475268252806	BKSP	8
241139	2580898	She chipped in from 69 feet for a birdie at 17.	She chipped in from 69 feet for a birdie at 17.	122566102	1475268252878	1475268253006	d	68
241139	2580898	She chipped in from 69 feet for a birdie at 17.	She chipped in from 69 feet for a birdie at 17.	122566121	1475268252966	1475268253135	i	73
241139	2580898	She chipped in from 69 feet for a birdie at 17.	She chipped in from 69 feet for a birdie at 17.	122566123	1475268253151	1475268253292	e	69
241139	2580898	She chipped in from 69 feet for a birdie at 17.	She chipped in from 69 feet for a birdie at 17.	122566125	1475268253292	1475268253406	 	32
241139	2580898	She chipped in from 69 feet for a birdie at 17.	She chipped in from 69 feet for a birdie at 17.	122566127	1475268253378	1475268253550	a	65
241139	2580898	She chipped in from 69 feet for a birdie at 17.	She chipped in from 69 feet for a birdie at 17.	122566129	1475268253566	1475268253645	t	84
241139	2580898	She chipped in from 69 feet for a birdie at 17.	She chipped in from 69 feet for a birdie at 17.	122566131	1475268253692	1475268253762	 	32
241139	2580898	She chipped in from 69 feet for a birdie at 17.	She chipped in from 69 feet for a birdie at 17.	122566188	1475268253944	1475268254077	1	49
241139	2580898	She chipped in from 69 feet for a birdie at 17.	She chipped in from 69 feet for a birdie at 17.	122566190	1475268254548	1475268254691	7	55
