PARTICIPANT_ID	TEST_SECTION_ID	SENTENCE	USER_INPUT	KEYSTROKE_ID	PRESS_TIME	RELEASE_TIME	LETTER	KEYCODE
24441	262901	Much better than carrying a laptop.	Much better than carrying a laptop.	12487156	1472213053083	1472213053501	SHIFT	16
24441	262901	Much better than carrying a laptop.	Much better than carrying a laptop.	12487159	1472213053425	1472213053512	NA	77
24441	262901	Much better than carrying a laptop.	Much better than carrying a laptop.	12487163	1472213053602	1472213053701	NA	85
24441	262901	Much better than carrying a laptop.	Much better than carrying a laptop.	12487166	1472213053718	1472213053842	NA	67
24441	262901	Much better than carrying a laptop.	Much better than carrying a laptop.	12487170	1472213053810	1472213053905	NA	72
24441	262901	Much better than carrying a laptop.	Much better than carrying a laptop.	12487173	1472213053980	1472213054091	NA	32
24441	262901	Much better than carrying a laptop.	Much better than carrying a laptop.	12487189	1472213054154	1472213054269	NA	66
24441	262901	Much better than carrying a laptop.	Much better than carrying a laptop.	12487191	1472213054266	1472213054345	NA	65
24441	262901	Much better than carrying a laptop.	Much better than carrying a laptop.	12487194	1472213054519	1472213054562		8
24441	262901	Much better than carrying a laptop.	Much better than carrying a laptop.	12487198	1472213054624	1472213054679		8
24441	262901	Much better than carrying a laptop.	Much better than carrying a laptop.	12487202	1472213054756	1472213054880	NA	69
24441	262901	Much better than carrying a laptop.	Much better than carrying a laptop.	12487236	1472213055196	1472213055284		8
24441	262901	Much better than carrying a laptop.	Much better than carrying a laptop.	12487238	1472213055409	1472213055470	NA	66
24441	262901	Much better than carrying a laptop.	Much better than carrying a laptop.	12487243	1472213055468	1472213055568	NA	69
24441	262901	Much better than carrying a laptop.	Much better than carrying a laptop.	12487246	1472213055561	1472213055638	NA	84
24441	262901	Much better than carrying a laptop.	Much better than carrying a laptop.	12487250	1472213055682	1472213055788	NA	84
24441	262901	Much better than carrying a laptop.	Much better than carrying a laptop.	12487266	1472213055785	1472213055991	NA	69
24441	262901	Much better than carrying a laptop.	Much better than carrying a laptop.	12487267	1472213055950	1472213056066	NA	82
24441	262901	Much better than carrying a laptop.	Much better than carrying a laptop.	12487271	1472213056136	1472213056214	NA	32
24441	262901	Much better than carrying a laptop.	Much better than carrying a laptop.	12487276	1472213056242	1472213056334	NA	84
24441	262901	Much better than carrying a laptop.	Much better than carrying a laptop.	12487281	1472213056330	1472213056451	NA	72
24441	262901	Much better than carrying a laptop.	Much better than carrying a laptop.	12487300	1472213056443	1472213056545	NA	65
24441	262901	Much better than carrying a laptop.	Much better than carrying a laptop.	12487303	1472213056558	1472213056669	NA	78
24441	262901	Much better than carrying a laptop.	Much better than carrying a laptop.	12487306	1472213056666	1472213056777	NA	32
24441	262901	Much better than carrying a laptop.	Much better than carrying a laptop.	12487310	1472213056758	1472213056889	NA	67
24441	262901	Much better than carrying a laptop.	Much better than carrying a laptop.	12487312	1472213056959	1472213057062	NA	82
24441	262901	Much better than carrying a laptop.	Much better than carrying a laptop.	12487329	1472213057038	1472213057173	NA	65
24441	262901	Much better than carrying a laptop.	Much better than carrying a laptop.	12487331	1472213057316	1472213057341		8
24441	262901	Much better than carrying a laptop.	Much better than carrying a laptop.	12487334	1472213057393	1472213057464		8
24441	262901	Much better than carrying a laptop.	Much better than carrying a laptop.	12487336	1472213057512	1472213057625	NA	65
24441	262901	Much better than carrying a laptop.	Much better than carrying a laptop.	12487339	1472213057587	1472213057675	NA	82
24441	262901	Much better than carrying a laptop.	Much better than carrying a laptop.	12487342	1472213057722	1472213057929	NA	82
24441	262901	Much better than carrying a laptop.	Much better than carrying a laptop.	12487387	1472213058780	1472213058796	NA	72
24441	262901	Much better than carrying a laptop.	Much better than carrying a laptop.	12487389	1472213058797	1472213058807		8
24441	262901	Much better than carrying a laptop.	Much better than carrying a laptop.	12487390	1472213059065	1472213059148	NA	89
24441	262901	Much better than carrying a laptop.	Much better than carrying a laptop.	12487391	1472213059179	1472213059319	NA	73
24441	262901	Much better than carrying a laptop.	Much better than carrying a laptop.	12487412	1472213059263	1472213059382	NA	78
24441	262901	Much better than carrying a laptop.	Much better than carrying a laptop.	12487414	1472213059359	1472213059466	NA	71
24441	262901	Much better than carrying a laptop.	Much better than carrying a laptop.	12487418	1472213059467	1472213059623	NA	32
24441	262901	Much better than carrying a laptop.	Much better than carrying a laptop.	12487423	1472213059599	1472213059726	NA	65
24441	262901	Much better than carrying a laptop.	Much better than carrying a laptop.	12487428	1472213059743	1472213059850	NA	32
24441	262901	Much better than carrying a laptop.	Much better than carrying a laptop.	12487435	1472213059942	1472213060057	NA	76
24441	262901	Much better than carrying a laptop.	Much better than carrying a laptop.	12487451	1472213060089	1472213060180	NA	65
24441	262901	Much better than carrying a laptop.	Much better than carrying a laptop.	12487453	1472213060213	1472213060320	NA	80
24441	262901	Much better than carrying a laptop.	Much better than carrying a laptop.	12487454	1472213060348	1472213060451	NA	84
24441	262901	Much better than carrying a laptop.	Much better than carrying a laptop.	12487455	1472213060481	1472213060604	NA	79
24441	262901	Much better than carrying a laptop.	Much better than carrying a laptop.	12487479	1472213060564	1472213060679	NA	80
24441	262901	Much better than carrying a laptop.	Much better than carrying a laptop.	12487482	1472213060850	1472213060962	NA	190
24441	262909	But he added the list given was still incomplete.	But he added the list given was still incomplete	12487549	1472213063461	1472213063861	SHIFT	16
24441	262909	But he added the list given was still incomplete.	But he added the list given was still incomplete	12487550	1472213063762	1472213063865	NA	66
24441	262909	But he added the list given was still incomplete.	But he added the list given was still incomplete	12487551	1472213063922	1472213064012	NA	85
24441	262909	But he added the list given was still incomplete.	But he added the list given was still incomplete	12487553	1472213064034	1472213064109	NA	84
24441	262909	But he added the list given was still incomplete.	But he added the list given was still incomplete	12487557	1472213064114	1472213064228	NA	32
24441	262909	But he added the list given was still incomplete.	But he added the list given was still incomplete	12487588	1472213064226	1472213064305	NA	72
24441	262909	But he added the list given was still incomplete.	But he added the list given was still incomplete	12487591	1472213064327	1472213064478	NA	69
24441	262909	But he added the list given was still incomplete.	But he added the list given was still incomplete	12487594	1472213064480	1472213064609	NA	32
24441	262909	But he added the list given was still incomplete.	But he added the list given was still incomplete	12487599	1472213064610	1472213064694	NA	65
24441	262909	But he added the list given was still incomplete.	But he added the list given was still incomplete	12487603	1472213064752	1472213064798	NA	68
24441	262909	But he added the list given was still incomplete.	But he added the list given was still incomplete	12487608	1472213064895	1472213065012	NA	68
24441	262909	But he added the list given was still incomplete.	But he added the list given was still incomplete	12487625	1472213064982	1472213065111	NA	69
24441	262909	But he added the list given was still incomplete.	But he added the list given was still incomplete	12487628	1472213065078	1472213065189	NA	68
24441	262909	But he added the list given was still incomplete.	But he added the list given was still incomplete	12487631	1472213065194	1472213065281	NA	32
24441	262909	But he added the list given was still incomplete.	But he added the list given was still incomplete	12487635	1472213065315	1472213065439	NA	84
24441	262909	But he added the list given was still incomplete.	But he added the list given was still incomplete	12487638	1472213065408	1472213065511	NA	72
24441	262909	But he added the list given was still incomplete.	But he added the list given was still incomplete	12487641	1472213065515	1472213065802	NA	69
24441	262909	But he added the list given was still incomplete.	But he added the list given was still incomplete	12487648	1472213065789	1472213065827	NA	32
24441	262909	But he added the list given was still incomplete.	But he added the list given was still incomplete	12487650	1472213065821	1472213065850	NA	76
24441	262909	But he added the list given was still incomplete.	But he added the list given was still incomplete	12487652	1472213065869	1472213065992	NA	73
24441	262909	But he added the list given was still incomplete.	But he added the list given was still incomplete	12487654	1472213065925	1472213066041	NA	83
24441	262909	But he added the list given was still incomplete.	But he added the list given was still incomplete	12487657	1472213066018	1472213066112	NA	84
24441	262909	But he added the list given was still incomplete.	But he added the list given was still incomplete	12487660	1472213066149	1472213066236	NA	32
24441	262909	But he added the list given was still incomplete.	But he added the list given was still incomplete	12487669	1472213066265	1472213066364	NA	71
24441	262909	But he added the list given was still incomplete.	But he added the list given was still incomplete	12487671	1472213066366	1472213066456	NA	73
24441	262909	But he added the list given was still incomplete.	But he added the list given was still incomplete	12487672	1472213066511	1472213066638	NA	86
24441	262909	But he added the list given was still incomplete.	But he added the list given was still incomplete	12487673	1472213066627	1472213066780	NA	69
24441	262909	But he added the list given was still incomplete.	But he added the list given was still incomplete	12487699	1472213066775	1472213066886	NA	78
24441	262909	But he added the list given was still incomplete.	But he added the list given was still incomplete	12487701	1472213066936	1472213067030	NA	32
24441	262909	But he added the list given was still incomplete.	But he added the list given was still incomplete	12487703	1472213067531	1472213067715	NA	87
24441	262909	But he added the list given was still incomplete.	But he added the list given was still incomplete	12487705	1472213067616	1472213067851	NA	65
24441	262909	But he added the list given was still incomplete.	But he added the list given was still incomplete	12487707	1472213067812	1472213067948	NA	83
24441	262909	But he added the list given was still incomplete.	But he added the list given was still incomplete	12487724	1472213067923	1472213068016	NA	32
24441	262909	But he added the list given was still incomplete.	But he added the list given was still incomplete	12487727	1472213068045	1472213068100	NA	83
24441	262909	But he added the list given was still incomplete.	But he added the list given was still incomplete	12487729	1472213068177	1472213068291	NA	84
24441	262909	But he added the list given was still incomplete.	But he added the list given was still incomplete	12487731	1472213068252	1472213068328	NA	73
24441	262909	But he added the list given was still incomplete.	But he added the list given was still incomplete	12487734	1472213068417	1472213068476	NA	76
24441	262909	But he added the list given was still incomplete.	But he added the list given was still incomplete	12487737	1472213068507	1472213068588	NA	76
24441	262909	But he added the list given was still incomplete.	But he added the list given was still incomplete	12487753	1472213068615	1472213068747	NA	32
24441	262909	But he added the list given was still incomplete.	But he added the list given was still incomplete	12487756	1472213068752	1472213068903	NA	73
24441	262909	But he added the list given was still incomplete.	But he added the list given was still incomplete	12487760	1472213069089	1472213069176	NA	78
24441	262909	But he added the list given was still incomplete.	But he added the list given was still incomplete	12487763	1472213069248	1472213069336	NA	67
24441	262909	But he added the list given was still incomplete.	But he added the list given was still incomplete	12487774	1472213069309	1472213069448	NA	79
24441	262909	But he added the list given was still incomplete.	But he added the list given was still incomplete	12487775	1472213069384	1472213069483	NA	77
24441	262909	But he added the list given was still incomplete.	But he added the list given was still incomplete	12487776	1472213069559	1472213069723	NA	80
24441	262909	But he added the list given was still incomplete.	But he added the list given was still incomplete	12487777	1472213069667	1472213069804	NA	76
24441	262909	But he added the list given was still incomplete.	But he added the list given was still incomplete	12487779	1472213069753	1472213069863	NA	69
24441	262909	But he added the list given was still incomplete.	But he added the list given was still incomplete	12487781	1472213069835	1472213069939	NA	84
24441	262920	How long can you guys shop?	How long can you guys shop?	12487899	1472213073061	1472213073417	SHIFT	16
24441	262920	How long can you guys shop?	How long can you guys shop?	12487900	1472213073313	1472213073418	NA	72
24441	262920	How long can you guys shop?	How long can you guys shop?	12487901	1472213073515	1472213073620	NA	79
24441	262920	How long can you guys shop?	How long can you guys shop?	12487902	1472213073621	1472213073731	NA	87
24441	262920	How long can you guys shop?	How long can you guys shop?	12487903	1472213073707	1472213073859	NA	32
24441	262920	How long can you guys shop?	How long can you guys shop?	12487904	1472213073871	1472213073971	NA	76
24441	262920	How long can you guys shop?	How long can you guys shop?	12487914	1472213074054	1472213074169	NA	79
24441	262920	How long can you guys shop?	How long can you guys shop?	12487916	1472213074145	1472213074269	NA	78
24441	262920	How long can you guys shop?	How long can you guys shop?	12487920	1472213074254	1472213074357	NA	71
24441	262920	How long can you guys shop?	How long can you guys shop?	12487923	1472213074430	1472213074538	NA	32
24441	262920	How long can you guys shop?	How long can you guys shop?	12487926	1472213074550	1472213074666	NA	67
24441	262920	How long can you guys shop?	How long can you guys shop?	12487945	1472213074626	1472213074770	NA	65
24441	262920	How long can you guys shop?	How long can you guys shop?	12487947	1472213074759	1472213074842	NA	78
24441	262920	How long can you guys shop?	How long can you guys shop?	12487950	1472213074893	1472213075025	NA	32
24441	262920	How long can you guys shop?	How long can you guys shop?	12487952	1472213075051	1472213075201	NA	89
24441	262920	How long can you guys shop?	How long can you guys shop?	12487954	1472213075163	1472213075311	NA	79
24441	262920	How long can you guys shop?	How long can you guys shop?	12487965	1472213075269	1472213075377	NA	85
24441	262920	How long can you guys shop?	How long can you guys shop?	12487967	1472213075331	1472213075471	NA	32
24441	262920	How long can you guys shop?	How long can you guys shop?	12487970	1472213075451	1472213075571	NA	71
24441	262920	How long can you guys shop?	How long can you guys shop?	12487973	1472213075531	1472213075623	NA	85
24441	262920	How long can you guys shop?	How long can you guys shop?	12487976	1472213075709	1472213075824	NA	89
24441	262920	How long can you guys shop?	How long can you guys shop?	12487999	1472213075812	1472213075936	NA	83
24441	262920	How long can you guys shop?	How long can you guys shop?	12488001	1472213075998	1472213076130	NA	32
24441	262920	How long can you guys shop?	How long can you guys shop?	12488005	1472213076111	1472213076230	NA	83
24441	262920	How long can you guys shop?	How long can you guys shop?	12488009	1472213076159	1472213076310	NA	72
24441	262920	How long can you guys shop?	How long can you guys shop?	12488013	1472213076340	1472213076448	NA	79
24441	262920	How long can you guys shop?	How long can you guys shop?	12488017	1472213076525	1472213076613	NA	80
24441	262920	How long can you guys shop?	How long can you guys shop?	12488026	1472213076654	1472213076902	SHIFT	16
24441	262920	How long can you guys shop?	How long can you guys shop?	12488024	1472213076742	1472213076858	NA	191
24441	262924	David, Cindy and Mary will each report to the Office of the Chairman.	David, Cindy and Mary willeach report to the office of the Chairman.	12488119	1472213079152	1472213079396	SHIFT	16
24441	262924	David, Cindy and Mary will each report to the Office of the Chairman.	David, Cindy and Mary willeach report to the office of the Chairman.	12488122	1472213079353	1472213079476	NA	68
24441	262924	David, Cindy and Mary will each report to the Office of the Chairman.	David, Cindy and Mary willeach report to the office of the Chairman.	12488124	1472213079517	1472213079609	NA	65
24441	262924	David, Cindy and Mary will each report to the Office of the Chairman.	David, Cindy and Mary willeach report to the office of the Chairman.	12488126	1472213079715	1472213079821	NA	86
24441	262924	David, Cindy and Mary will each report to the Office of the Chairman.	David, Cindy and Mary willeach report to the office of the Chairman.	12488128	1472213079839	1472213079931	NA	73
24441	262924	David, Cindy and Mary will each report to the Office of the Chairman.	David, Cindy and Mary willeach report to the office of the Chairman.	12488130	1472213079936	1472213080076	NA	68
24441	262924	David, Cindy and Mary will each report to the Office of the Chairman.	David, Cindy and Mary willeach report to the office of the Chairman.	12488139	1472213080091	1472213080190	NA	188
24441	262924	David, Cindy and Mary will each report to the Office of the Chairman.	David, Cindy and Mary willeach report to the office of the Chairman.	12488144	1472213080143	1472213080311	NA	32
24441	262924	David, Cindy and Mary will each report to the Office of the Chairman.	David, Cindy and Mary willeach report to the office of the Chairman.	12488150	1472213080215	1472213080419	SHIFT	16
24441	262924	David, Cindy and Mary will each report to the Office of the Chairman.	David, Cindy and Mary willeach report to the office of the Chairman.	12488154	1472213080343	1472213080471	NA	67
24441	262924	David, Cindy and Mary will each report to the Office of the Chairman.	David, Cindy and Mary willeach report to the office of the Chairman.	12488159	1472213080455	1472213080587	NA	73
24441	262924	David, Cindy and Mary will each report to the Office of the Chairman.	David, Cindy and Mary willeach report to the office of the Chairman.	12488181	1472213080543	1472213080663	NA	78
24441	262924	David, Cindy and Mary will each report to the Office of the Chairman.	David, Cindy and Mary willeach report to the office of the Chairman.	12488187	1472213080639	1472213080759	NA	68
24441	262924	David, Cindy and Mary will each report to the Office of the Chairman.	David, Cindy and Mary willeach report to the office of the Chairman.	12488189	1472213080794	1472213080922	NA	89
24441	262924	David, Cindy and Mary will each report to the Office of the Chairman.	David, Cindy and Mary willeach report to the office of the Chairman.	12488195	1472213080973	1472213081088	NA	32
24441	262924	David, Cindy and Mary will each report to the Office of the Chairman.	David, Cindy and Mary willeach report to the office of the Chairman.	12488198	1472213081252	1472213081364	NA	65
24441	262924	David, Cindy and Mary will each report to the Office of the Chairman.	David, Cindy and Mary willeach report to the office of the Chairman.	12488235	1472213081348	1472213081468	NA	78
24441	262924	David, Cindy and Mary will each report to the Office of the Chairman.	David, Cindy and Mary willeach report to the office of the Chairman.	12488240	1472213081472	1472213081601	NA	68
24441	262924	David, Cindy and Mary will each report to the Office of the Chairman.	David, Cindy and Mary willeach report to the office of the Chairman.	12488243	1472213081580	1472213081724	NA	32
24441	262924	David, Cindy and Mary will each report to the Office of the Chairman.	David, Cindy and Mary willeach report to the office of the Chairman.	12488245	1472213081684	1472213081868	SHIFT	16
24441	262924	David, Cindy and Mary will each report to the Office of the Chairman.	David, Cindy and Mary willeach report to the office of the Chairman.	12488248	1472213081768	1472213081869	NA	77
24441	262924	David, Cindy and Mary will each report to the Office of the Chairman.	David, Cindy and Mary willeach report to the office of the Chairman.	12488250	1472213081925	1472213082004	NA	65
24441	262924	David, Cindy and Mary will each report to the Office of the Chairman.	David, Cindy and Mary willeach report to the office of the Chairman.	12488252	1472213082064	1472213082156	NA	82
24441	262924	David, Cindy and Mary will each report to the Office of the Chairman.	David, Cindy and Mary willeach report to the office of the Chairman.	12488255	1472213082168	1472213082292	NA	89
24441	262924	David, Cindy and Mary will each report to the Office of the Chairman.	David, Cindy and Mary willeach report to the office of the Chairman.	12488256	1472213082268	1472213082396	NA	32
24441	262924	David, Cindy and Mary will each report to the Office of the Chairman.	David, Cindy and Mary willeach report to the office of the Chairman.	12488257	1472213082344	1472213082472	NA	87
24441	262924	David, Cindy and Mary will each report to the Office of the Chairman.	David, Cindy and Mary willeach report to the office of the Chairman.	12488258	1472213082440	1472213082508	NA	73
24441	262924	David, Cindy and Mary will each report to the Office of the Chairman.	David, Cindy and Mary willeach report to the office of the Chairman.	12488260	1472213082626	1472213082713	NA	76
24441	262924	David, Cindy and Mary will each report to the Office of the Chairman.	David, Cindy and Mary willeach report to the office of the Chairman.	12488278	1472213082768	1472213082838	NA	76
24441	262924	David, Cindy and Mary will each report to the Office of the Chairman.	David, Cindy and Mary willeach report to the office of the Chairman.	12488284	1472213082864	1472213082964	NA	32
24441	262924	David, Cindy and Mary will each report to the Office of the Chairman.	David, Cindy and Mary willeach report to the office of the Chairman.	12488294	1472213083004	1472213083153	NA	65
24441	262924	David, Cindy and Mary will each report to the Office of the Chairman.	David, Cindy and Mary willeach report to the office of the Chairman.	12488298	1472213083108	1472213083246	NA	67
24441	262924	David, Cindy and Mary will each report to the Office of the Chairman.	David, Cindy and Mary willeach report to the office of the Chairman.	12488310	1472213083224	1472213083313	NA	72
24441	262924	David, Cindy and Mary will each report to the Office of the Chairman.	David, Cindy and Mary willeach report to the office of the Chairman.	12488313	1472213083365	1472213083476	NA	32
24441	262924	David, Cindy and Mary will each report to the Office of the Chairman.	David, Cindy and Mary willeach report to the office of the Chairman.	12488317	1472213083469	1472213083597	NA	82
24441	262924	David, Cindy and Mary will each report to the Office of the Chairman.	David, Cindy and Mary willeach report to the office of the Chairman.	12488321	1472213083541	1472213083677	NA	69
24441	262924	David, Cindy and Mary will each report to the Office of the Chairman.	David, Cindy and Mary willeach report to the office of the Chairman.	12488325	1472213083653	1472213083769	NA	80
24441	262924	David, Cindy and Mary will each report to the Office of the Chairman.	David, Cindy and Mary willeach report to the office of the Chairman.	12488364	1472213083750	1472213083860	NA	79
24441	262924	David, Cindy and Mary will each report to the Office of the Chairman.	David, Cindy and Mary willeach report to the office of the Chairman.	12488369	1472213083853	1472213083929	NA	82
24441	262924	David, Cindy and Mary will each report to the Office of the Chairman.	David, Cindy and Mary willeach report to the office of the Chairman.	12488374	1472213083992	1472213084082	NA	84
24441	262924	David, Cindy and Mary will each report to the Office of the Chairman.	David, Cindy and Mary willeach report to the office of the Chairman.	12488377	1472213084136	1472213084232	NA	32
24441	262924	David, Cindy and Mary will each report to the Office of the Chairman.	David, Cindy and Mary willeach report to the office of the Chairman.	12488380	1472213084271	1472213084359	NA	79
24441	262924	David, Cindy and Mary will each report to the Office of the Chairman.	David, Cindy and Mary willeach report to the office of the Chairman.	12488384	1472213084558	1472213084630		8
24441	262924	David, Cindy and Mary will each report to the Office of the Chairman.	David, Cindy and Mary willeach report to the office of the Chairman.	12488391	1472213084646	1472213084750	NA	84
24441	262924	David, Cindy and Mary will each report to the Office of the Chairman.	David, Cindy and Mary willeach report to the office of the Chairman.	12488394	1472213084738	1472213084846	NA	79
24441	262924	David, Cindy and Mary will each report to the Office of the Chairman.	David, Cindy and Mary willeach report to the office of the Chairman.	12488399	1472213084854	1472213084958	NA	32
24441	262924	David, Cindy and Mary will each report to the Office of the Chairman.	David, Cindy and Mary willeach report to the office of the Chairman.	12488406	1472213084922	1472213085030	NA	84
24441	262924	David, Cindy and Mary will each report to the Office of the Chairman.	David, Cindy and Mary willeach report to the office of the Chairman.	12488427	1472213085026	1472213085138	NA	72
24441	262924	David, Cindy and Mary will each report to the Office of the Chairman.	David, Cindy and Mary willeach report to the office of the Chairman.	12488432	1472213085114	1472213085218	NA	69
24441	262924	David, Cindy and Mary will each report to the Office of the Chairman.	David, Cindy and Mary willeach report to the office of the Chairman.	12488436	1472213085236	1472213085344	NA	32
24441	262924	David, Cindy and Mary will each report to the Office of the Chairman.	David, Cindy and Mary willeach report to the office of the Chairman.	12488439	1472213085519	1472213085614	NA	79
24441	262924	David, Cindy and Mary will each report to the Office of the Chairman.	David, Cindy and Mary willeach report to the office of the Chairman.	12488444	1472213085639	1472213085719	NA	70
24441	262924	David, Cindy and Mary will each report to the Office of the Chairman.	David, Cindy and Mary willeach report to the office of the Chairman.	12488447	1472213085777	1472213085876	NA	70
24441	262924	David, Cindy and Mary will each report to the Office of the Chairman.	David, Cindy and Mary willeach report to the office of the Chairman.	12488464	1472213085921	1472213086037	NA	73
24441	262924	David, Cindy and Mary will each report to the Office of the Chairman.	David, Cindy and Mary willeach report to the office of the Chairman.	12488469	1472213086028	1472213086149	NA	67
24441	262924	David, Cindy and Mary will each report to the Office of the Chairman.	David, Cindy and Mary willeach report to the office of the Chairman.	12488473	1472213086113	1472213086234	NA	69
24441	262924	David, Cindy and Mary will each report to the Office of the Chairman.	David, Cindy and Mary willeach report to the office of the Chairman.	12488476	1472213086262	1472213086378	NA	32
24441	262924	David, Cindy and Mary will each report to the Office of the Chairman.	David, Cindy and Mary willeach report to the office of the Chairman.	12488479	1472213086481	1472213086589	NA	79
24441	262924	David, Cindy and Mary will each report to the Office of the Chairman.	David, Cindy and Mary willeach report to the office of the Chairman.	12488485	1472213086598	1472213086677	NA	70
24441	262924	David, Cindy and Mary will each report to the Office of the Chairman.	David, Cindy and Mary willeach report to the office of the Chairman.	12488487	1472213086693	1472213086792	NA	32
24441	262924	David, Cindy and Mary will each report to the Office of the Chairman.	David, Cindy and Mary willeach report to the office of the Chairman.	12488488	1472213086789	1472213086912	NA	84
24441	262924	David, Cindy and Mary will each report to the Office of the Chairman.	David, Cindy and Mary willeach report to the office of the Chairman.	12488489	1472213086909	1472213087019	NA	72
24441	262924	David, Cindy and Mary will each report to the Office of the Chairman.	David, Cindy and Mary willeach report to the office of the Chairman.	12488524	1472213087017	1472213087138	NA	69
24441	262924	David, Cindy and Mary will each report to the Office of the Chairman.	David, Cindy and Mary willeach report to the office of the Chairman.	12488526	1472213087214	1472213087326	NA	32
24441	262924	David, Cindy and Mary will each report to the Office of the Chairman.	David, Cindy and Mary willeach report to the office of the Chairman.	12488529	1472213087366	1472213087658	SHIFT	16
24441	262924	David, Cindy and Mary will each report to the Office of the Chairman.	David, Cindy and Mary willeach report to the office of the Chairman.	12488533	1472213087554	1472213087694	NA	67
24441	262924	David, Cindy and Mary will each report to the Office of the Chairman.	David, Cindy and Mary willeach report to the office of the Chairman.	12488535	1472213087718	1472213087786	NA	72
24441	262924	David, Cindy and Mary will each report to the Office of the Chairman.	David, Cindy and Mary willeach report to the office of the Chairman.	12488538	1472213087905	1472213088053	NA	65
24441	262924	David, Cindy and Mary will each report to the Office of the Chairman.	David, Cindy and Mary willeach report to the office of the Chairman.	12488569	1472213088046	1472213088157	NA	73
24441	262924	David, Cindy and Mary will each report to the Office of the Chairman.	David, Cindy and Mary willeach report to the office of the Chairman.	12488573	1472213088174	1472213088306	NA	82
24441	262924	David, Cindy and Mary will each report to the Office of the Chairman.	David, Cindy and Mary willeach report to the office of the Chairman.	12488577	1472213088326	1472213088418	NA	77
24441	262924	David, Cindy and Mary will each report to the Office of the Chairman.	David, Cindy and Mary willeach report to the office of the Chairman.	12488580	1472213088450	1472213088556	NA	65
24441	262924	David, Cindy and Mary will each report to the Office of the Chairman.	David, Cindy and Mary willeach report to the office of the Chairman.	12488583	1472213088534	1472213088610	NA	78
24441	262924	David, Cindy and Mary will each report to the Office of the Chairman.	David, Cindy and Mary willeach report to the office of the Chairman.	12488586	1472213088773	1472213088849	NA	190
24441	262934	his will be hard.	his will be hard.	12488720	1472213091085	1472213091652	SHIFT	16
24441	262934	his will be hard.	his will be hard.	12488723	1472213091880	1472213091995	NA	72
24441	262934	his will be hard.	his will be hard.	12488726	1472213091939	1472213092059	NA	73
24441	262934	his will be hard.	his will be hard.	12488729	1472213092043	1472213092111	NA	83
24441	262934	his will be hard.	his will be hard.	12488731	1472213092115	1472213092263	NA	32
24441	262934	his will be hard.	his will be hard.	12488732	1472213092243	1472213092353	NA	87
24441	262934	his will be hard.	his will be hard.	12488734	1472213092311	1472213092384	NA	73
24441	262934	his will be hard.	his will be hard.	12488736	1472213092479	1472213092543	NA	76
24441	262934	his will be hard.	his will be hard.	12488739	1472213092594	1472213092658	NA	76
24441	262934	his will be hard.	his will be hard.	12488744	1472213092706	1472213092810	NA	32
24441	262934	his will be hard.	his will be hard.	12488758	1472213092798	1472213092906	NA	66
24441	262934	his will be hard.	his will be hard.	12488762	1472213092894	1472213092982	NA	69
24441	262934	his will be hard.	his will be hard.	12488769	1472213092986	1472213093110	NA	32
24441	262934	his will be hard.	his will be hard.	12488774	1472213093114	1472213093214	NA	72
24441	262934	his will be hard.	his will be hard.	12488780	1472213093195	1472213093322	NA	65
24441	262934	his will be hard.	his will be hard.	12488795	1472213093302	1472213093394	NA	82
24441	262934	his will be hard.	his will be hard.	12488797	1472213093461	1472213093567	NA	68
24441	262934	his will be hard.	his will be hard.	12488798	1472213093545	1472213093633	NA	190
24441	262937	I haven't seen it yet.	I haven't seen it yet.	12488925	1472213095864	1472213096197	SHIFT	16
24441	262937	I haven't seen it yet.	I haven't seen it yet.	12488922	1472213096069	1472213096181	NA	73
24441	262937	I haven't seen it yet.	I haven't seen it yet.	12488928	1472213096229	1472213096392	NA	32
24441	262937	I haven't seen it yet.	I haven't seen it yet.	12488932	1472213096381	1472213096509	NA	72
24441	262937	I haven't seen it yet.	I haven't seen it yet.	12488933	1472213096505	1472213096585	NA	65
24441	262937	I haven't seen it yet.	I haven't seen it yet.	12488935	1472213096757	1472213096860	NA	86
24441	262937	I haven't seen it yet.	I haven't seen it yet.	12488972	1472213097246	1472213097349	NA	69
24441	262937	I haven't seen it yet.	I haven't seen it yet.	12488976	1472213097580	1472213097684	NA	78
24441	262937	I haven't seen it yet.	I haven't seen it yet.	12488980	1472213097820	1472213097948	NA	222
24441	262937	I haven't seen it yet.	I haven't seen it yet.	12488983	1472213097976	1472213098096	NA	84
24441	262937	I haven't seen it yet.	I haven't seen it yet.	12488985	1472213098107	1472213098254	NA	32
24441	262937	I haven't seen it yet.	I haven't seen it yet.	12488997	1472213098227	1472213098403	NA	83
24441	262937	I haven't seen it yet.	I haven't seen it yet.	12489000	1472213098526	1472213098598	NA	69
24441	262937	I haven't seen it yet.	I haven't seen it yet.	12489001	1472213098675	1472213098795	NA	69
24441	262937	I haven't seen it yet.	I haven't seen it yet.	12489003	1472213098763	1472213098879	NA	78
24441	262937	I haven't seen it yet.	I haven't seen it yet.	12489005	1472213098891	1472213099018	NA	32
24441	262937	I haven't seen it yet.	I haven't seen it yet.	12489040	1472213099015	1472213099115	NA	73
24441	262937	I haven't seen it yet.	I haven't seen it yet.	12489042	1472213099124	1472213099251	NA	32
24441	262937	I haven't seen it yet.	I haven't seen it yet.	12489044	1472213099211	1472213099359	NA	84
24441	262937	I haven't seen it yet.	I haven't seen it yet.	12489045	1472213099719	1472213099799		8
24441	262937	I haven't seen it yet.	I haven't seen it yet.	12489046	1472213099878	1472213099963		8
24441	262937	I haven't seen it yet.	I haven't seen it yet.	12489047	1472213099986	1472213100103	NA	84
24441	262937	I haven't seen it yet.	I haven't seen it yet.	12489075	1472213100075	1472213100207	NA	32
24441	262937	I haven't seen it yet.	I haven't seen it yet.	12489077	1472213100450	1472213100590	NA	89
24441	262937	I haven't seen it yet.	I haven't seen it yet.	12489079	1472213100635	1472213100767	NA	69
24441	262937	I haven't seen it yet.	I haven't seen it yet.	12489081	1472213100719	1472213100863	NA	84
24441	262937	I haven't seen it yet.	I haven't seen it yet.	12489082	1472213100912	1472213101000	NA	190
24441	262946	I'll get with him by phone to confirm.	I'll get with him by phone to confirm.	12489227	1472213103405	1472213103816	SHIFT	16
24441	262946	I'll get with him by phone to confirm.	I'll get with him by phone to confirm.	12489225	1472213103641	1472213103749	NA	73
24441	262946	I'll get with him by phone to confirm.	I'll get with him by phone to confirm.	12489230	1472213104792	1472213104884	NA	222
24441	262946	I'll get with him by phone to confirm.	I'll get with him by phone to confirm.	12489233	1472213105010	1472213105062	NA	76
24441	262946	I'll get with him by phone to confirm.	I'll get with him by phone to confirm.	12489235	1472213105118	1472213105214	NA	76
24441	262946	I'll get with him by phone to confirm.	I'll get with him by phone to confirm.	12489237	1472213105215	1472213105366	NA	32
24441	262946	I'll get with him by phone to confirm.	I'll get with him by phone to confirm.	12489242	1472213105793	1472213105885	NA	71
24441	262946	I'll get with him by phone to confirm.	I'll get with him by phone to confirm.	12489246	1472213105905	1472213106030	NA	69
24441	262946	I'll get with him by phone to confirm.	I'll get with him by phone to confirm.	12489250	1472213106010	1472213106117	NA	84
24441	262946	I'll get with him by phone to confirm.	I'll get with him by phone to confirm.	12489255	1472213106118	1472213106213	NA	32
24441	262946	I'll get with him by phone to confirm.	I'll get with him by phone to confirm.	12489259	1472213106240	1472213106369	NA	87
24441	262946	I'll get with him by phone to confirm.	I'll get with him by phone to confirm.	12489276	1472213106356	1472213106443	NA	73
24441	262946	I'll get with him by phone to confirm.	I'll get with him by phone to confirm.	12489279	1472213106480	1472213106584	NA	84
24441	262946	I'll get with him by phone to confirm.	I'll get with him by phone to confirm.	12489285	1472213106588	1472213106688	NA	72
24441	262946	I'll get with him by phone to confirm.	I'll get with him by phone to confirm.	12489292	1472213106672	1472213106824	NA	32
24441	262946	I'll get with him by phone to confirm.	I'll get with him by phone to confirm.	12489299	1472213106836	1472213106944	NA	72
24441	262946	I'll get with him by phone to confirm.	I'll get with him by phone to confirm.	12489332	1472213106900	1472213107020	NA	73
24441	262946	I'll get with him by phone to confirm.	I'll get with him by phone to confirm.	12489335	1472213107042	1472213107158	NA	77
24441	262946	I'll get with him by phone to confirm.	I'll get with him by phone to confirm.	12489339	1472213107166	1472213107294	NA	32
24441	262946	I'll get with him by phone to confirm.	I'll get with him by phone to confirm.	12489342	1472213107324	1472213107400	NA	66
24441	262946	I'll get with him by phone to confirm.	I'll get with him by phone to confirm.	12489344	1472213107446	1472213107558	NA	89
24441	262946	I'll get with him by phone to confirm.	I'll get with him by phone to confirm.	12489345	1472213107785	1472213107892	NA	32
24441	262946	I'll get with him by phone to confirm.	I'll get with him by phone to confirm.	12489349	1472213107942	1472213108038	NA	80
24441	262946	I'll get with him by phone to confirm.	I'll get with him by phone to confirm.	12489352	1472213108069	1472213108177	NA	72
24441	262946	I'll get with him by phone to confirm.	I'll get with him by phone to confirm.	12489359	1472213108185	1472213108310	NA	79
24441	262946	I'll get with him by phone to confirm.	I'll get with him by phone to confirm.	12489363	1472213108289	1472213108393	NA	78
24441	262946	I'll get with him by phone to confirm.	I'll get with him by phone to confirm.	12489389	1472213108377	1472213108494	NA	69
24441	262946	I'll get with him by phone to confirm.	I'll get with him by phone to confirm.	12489391	1472213108485	1472213108597	NA	32
24441	262946	I'll get with him by phone to confirm.	I'll get with him by phone to confirm.	12489392	1472213108561	1472213108681	NA	84
24441	262946	I'll get with him by phone to confirm.	I'll get with him by phone to confirm.	12489393	1472213108614	1472213108733	NA	79
24441	262946	I'll get with him by phone to confirm.	I'll get with him by phone to confirm.	12489394	1472213108759	1472213108879	NA	32
24441	262946	I'll get with him by phone to confirm.	I'll get with him by phone to confirm.	12489395	1472213109066	1472213109230	NA	67
24441	262946	I'll get with him by phone to confirm.	I'll get with him by phone to confirm.	12489405	1472213109222	1472213109366	NA	79
24441	262946	I'll get with him by phone to confirm.	I'll get with him by phone to confirm.	12489408	1472213109310	1472213109429	NA	78
24441	262946	I'll get with him by phone to confirm.	I'll get with him by phone to confirm.	12489412	1472213109422	1472213109513	NA	70
24441	262946	I'll get with him by phone to confirm.	I'll get with him by phone to confirm.	12489415	1472213109624	1472213109763	NA	73
24441	262946	I'll get with him by phone to confirm.	I'll get with him by phone to confirm.	12489418	1472213109752	1472213109835	NA	82
24441	262946	I'll get with him by phone to confirm.	I'll get with him by phone to confirm.	12489435	1472213109808	1472213109908	NA	77
24441	262946	I'll get with him by phone to confirm.	I'll get with him by phone to confirm.	12489438	1472213110035	1472213110134	NA	190
24441	262954	The dollar lost ground against the major currencies.	The dollar lost ground against the major currencies.	12489526	1472213112605	1472213112843	SHIFT	16
24441	262954	The dollar lost ground against the major currencies.	The dollar lost ground against the major currencies.	12489527	1472213112824	1472213112912	NA	84
24441	262954	The dollar lost ground against the major currencies.	The dollar lost ground against the major currencies.	12489529	1472213112916	1472213113003	NA	72
24441	262954	The dollar lost ground against the major currencies.	The dollar lost ground against the major currencies.	12489531	1472213113041	1472213113140	NA	69
24441	262954	The dollar lost ground against the major currencies.	The dollar lost ground against the major currencies.	12489533	1472213113125	1472213113245	NA	32
24441	262954	The dollar lost ground against the major currencies.	The dollar lost ground against the major currencies.	12489535	1472213113253	1472213113388	NA	68
24441	262954	The dollar lost ground against the major currencies.	The dollar lost ground against the major currencies.	12489549	1472213113361	1472213113433	NA	76
24441	262954	The dollar lost ground against the major currencies.	The dollar lost ground against the major currencies.	12489551	1472213113677	1472213113753		8
24441	262954	The dollar lost ground against the major currencies.	The dollar lost ground against the major currencies.	12489553	1472213113826	1472213113897	NA	79
24441	262954	The dollar lost ground against the major currencies.	The dollar lost ground against the major currencies.	12489555	1472213113996	1472213114039	NA	76
24441	262954	The dollar lost ground against the major currencies.	The dollar lost ground against the major currencies.	12489557	1472213114094	1472213114163	NA	76
24441	262954	The dollar lost ground against the major currencies.	The dollar lost ground against the major currencies.	12489574	1472213114161	1472213114261	NA	65
24441	262954	The dollar lost ground against the major currencies.	The dollar lost ground against the major currencies.	12489575	1472213114246	1472213114341	NA	82
24441	262954	The dollar lost ground against the major currencies.	The dollar lost ground against the major currencies.	12489576	1472213114375	1472213114511	NA	32
24441	262954	The dollar lost ground against the major currencies.	The dollar lost ground against the major currencies.	12489577	1472213114539	1472213114626	NA	76
24441	262954	The dollar lost ground against the major currencies.	The dollar lost ground against the major currencies.	12489578	1472213114707	1472213114811	NA	79
24441	262954	The dollar lost ground against the major currencies.	The dollar lost ground against the major currencies.	12489623	1472213114799	1472213114895	NA	83
24441	262954	The dollar lost ground against the major currencies.	The dollar lost ground against the major currencies.	12489624	1472213114950	1472213115040	NA	84
24441	262954	The dollar lost ground against the major currencies.	The dollar lost ground against the major currencies.	12489625	1472213115125	1472213115233	NA	32
24441	262954	The dollar lost ground against the major currencies.	The dollar lost ground against the major currencies.	12489626	1472213115445	1472213115553	NA	71
24441	262954	The dollar lost ground against the major currencies.	The dollar lost ground against the major currencies.	12489628	1472213115648	1472213115795	NA	82
24441	262954	The dollar lost ground against the major currencies.	The dollar lost ground against the major currencies.	12489638	1472213115763	1472213115879	NA	79
24441	262954	The dollar lost ground against the major currencies.	The dollar lost ground against the major currencies.	12489640	1472213115832	1472213115919	NA	85
24441	262954	The dollar lost ground against the major currencies.	The dollar lost ground against the major currencies.	12489644	1472213115986	1472213116106	NA	78
24441	262954	The dollar lost ground against the major currencies.	The dollar lost ground against the major currencies.	12489649	1472213116075	1472213116195	NA	68
24441	262954	The dollar lost ground against the major currencies.	The dollar lost ground against the major currencies.	12489653	1472213116175	1472213116314	NA	32
24441	262954	The dollar lost ground against the major currencies.	The dollar lost ground against the major currencies.	12489668	1472213116254	1472213116354	NA	65
24441	262954	The dollar lost ground against the major currencies.	The dollar lost ground against the major currencies.	12489673	1472213116478	1472213116617	NA	71
24441	262954	The dollar lost ground against the major currencies.	The dollar lost ground against the major currencies.	12489676	1472213116629	1472213116761	NA	65
24441	262954	The dollar lost ground against the major currencies.	The dollar lost ground against the major currencies.	12489680	1472213116780	1472213116942	NA	73
24441	262954	The dollar lost ground against the major currencies.	The dollar lost ground against the major currencies.	12489691	1472213116868	1472213116988	NA	78
24441	262954	The dollar lost ground against the major currencies.	The dollar lost ground against the major currencies.	12489694	1472213116940	1472213117065	NA	83
24441	262954	The dollar lost ground against the major currencies.	The dollar lost ground against the major currencies.	12489698	1472213117118	1472213117189	NA	84
24441	262954	The dollar lost ground against the major currencies.	The dollar lost ground against the major currencies.	12489703	1472213117221	1472213117329	NA	32
24441	262954	The dollar lost ground against the major currencies.	The dollar lost ground against the major currencies.	12489706	1472213117358	1472213117454	NA	84
24441	262954	The dollar lost ground against the major currencies.	The dollar lost ground against the major currencies.	12489709	1472213117418	1472213117575	NA	72
24441	262954	The dollar lost ground against the major currencies.	The dollar lost ground against the major currencies.	12489718	1472213117534	1472213117651	NA	69
24441	262954	The dollar lost ground against the major currencies.	The dollar lost ground against the major currencies.	12489720	1472213117630	1472213117762	NA	32
24441	262954	The dollar lost ground against the major currencies.	The dollar lost ground against the major currencies.	12489722	1472213117774	1472213117889	NA	77
24441	262954	The dollar lost ground against the major currencies.	The dollar lost ground against the major currencies.	12489724	1472213117886	1472213118026	NA	65
24441	262954	The dollar lost ground against the major currencies.	The dollar lost ground against the major currencies.	12489726	1472213118038	1472213118185	NA	74
24441	262954	The dollar lost ground against the major currencies.	The dollar lost ground against the major currencies.	12489753	1472213118146	1472213118262	NA	79
24441	262954	The dollar lost ground against the major currencies.	The dollar lost ground against the major currencies.	12489755	1472213118250	1472213118361	NA	82
24441	262954	The dollar lost ground against the major currencies.	The dollar lost ground against the major currencies.	12489758	1472213118370	1472213118509	NA	32
24441	262954	The dollar lost ground against the major currencies.	The dollar lost ground against the major currencies.	12489763	1472213118666	1472213118777	NA	67
24441	262954	The dollar lost ground against the major currencies.	The dollar lost ground against the major currencies.	12489768	1472213118936	1472213119083	NA	85
24441	262954	The dollar lost ground against the major currencies.	The dollar lost ground against the major currencies.	12489772	1472213119145	1472213119228	NA	82
24441	262954	The dollar lost ground against the major currencies.	The dollar lost ground against the major currencies.	12489805	1472213119287	1472213119391	NA	82
24441	262954	The dollar lost ground against the major currencies.	The dollar lost ground against the major currencies.	12489807	1472213119615	1472213119735	NA	69
24441	262954	The dollar lost ground against the major currencies.	The dollar lost ground against the major currencies.	12489811	1472213119711	1472213119859	NA	78
24441	262954	The dollar lost ground against the major currencies.	The dollar lost ground against the major currencies.	12489814	1472213119807	1472213119902	NA	73
24441	262954	The dollar lost ground against the major currencies.	The dollar lost ground against the major currencies.	12489816	1472213120175	1472213120254	NA	61
24441	262954	The dollar lost ground against the major currencies.	The dollar lost ground against the major currencies.	12489835	1472213120279	1472213120371	NA	67
24441	262954	The dollar lost ground against the major currencies.	The dollar lost ground against the major currencies.	12489838	1472213120477	1472213120545		8
24441	262954	The dollar lost ground against the major currencies.	The dollar lost ground against the major currencies.	12489841	1472213120629	1472213120824		8
24441	262954	The dollar lost ground against the major currencies.	The dollar lost ground against the major currencies.	12489843	1472213121017	1472213121114		8
24441	262954	The dollar lost ground against the major currencies.	The dollar lost ground against the major currencies.	12489865	1472213121102	1472213121179	NA	67
24441	262954	The dollar lost ground against the major currencies.	The dollar lost ground against the major currencies.	12489868	1472213121217	1472213121317	NA	73
24441	262954	The dollar lost ground against the major currencies.	The dollar lost ground against the major currencies.	12489871	1472213121334	1472213121469	NA	69
24441	262954	The dollar lost ground against the major currencies.	The dollar lost ground against the major currencies.	12489873	1472213121422	1472213121553	NA	83
24441	262954	The dollar lost ground against the major currencies.	The dollar lost ground against the major currencies.	12489875	1472213121494	1472213121614	NA	190
24441	262965	Please make sure Bob Kelley is on the list.	Please make sure Bob Kelley is on the list.	12490000	1472213124179	1472213124632	SHIFT	16
24441	262965	Please make sure Bob Kelley is on the list.	Please make sure Bob Kelley is on the list.	12489996	1472213124503	1472213124622	NA	80
24441	262965	Please make sure Bob Kelley is on the list.	Please make sure Bob Kelley is on the list.	12490003	1472213124665	1472213124771	NA	76
24441	262965	Please make sure Bob Kelley is on the list.	Please make sure Bob Kelley is on the list.	12490006	1472213124759	1472213124894	NA	69
24441	262965	Please make sure Bob Kelley is on the list.	Please make sure Bob Kelley is on the list.	12490009	1472213124870	1472213125018	NA	65
24441	262965	Please make sure Bob Kelley is on the list.	Please make sure Bob Kelley is on the list.	12490034	1472213124990	1472213125085	NA	83
24441	262965	Please make sure Bob Kelley is on the list.	Please make sure Bob Kelley is on the list.	12490036	1472213125146	1472213125241	NA	69
24441	262965	Please make sure Bob Kelley is on the list.	Please make sure Bob Kelley is on the list.	12490040	1472213125231	1472213125345	NA	32
24441	262965	Please make sure Bob Kelley is on the list.	Please make sure Bob Kelley is on the list.	12490042	1472213125365	1472213125425	NA	77
24441	262965	Please make sure Bob Kelley is on the list.	Please make sure Bob Kelley is on the list.	12490044	1472213125456	1472213125559	NA	65
24441	262965	Please make sure Bob Kelley is on the list.	Please make sure Bob Kelley is on the list.	12490046	1472213125595	1472213125690	NA	75
24441	262965	Please make sure Bob Kelley is on the list.	Please make sure Bob Kelley is on the list.	12490054	1472213125675	1472213125842	NA	69
24441	262965	Please make sure Bob Kelley is on the list.	Please make sure Bob Kelley is on the list.	12490058	1472213125771	1472213125930	NA	32
24441	262965	Please make sure Bob Kelley is on the list.	Please make sure Bob Kelley is on the list.	12490062	1472213125883	1472213126025	NA	83
24441	262965	Please make sure Bob Kelley is on the list.	Please make sure Bob Kelley is on the list.	12490064	1472213126015	1472213126131	NA	85
24441	262965	Please make sure Bob Kelley is on the list.	Please make sure Bob Kelley is on the list.	12490066	1472213126128	1472213126228	NA	82
24441	262965	Please make sure Bob Kelley is on the list.	Please make sure Bob Kelley is on the list.	12490101	1472213126196	1472213126323	NA	69
24441	262965	Please make sure Bob Kelley is on the list.	Please make sure Bob Kelley is on the list.	12490102	1472213126370	1472213126459	NA	32
24441	262965	Please make sure Bob Kelley is on the list.	Please make sure Bob Kelley is on the list.	12490104	1472213126461	1472213126723	SHIFT	16
24441	262965	Please make sure Bob Kelley is on the list.	Please make sure Bob Kelley is on the list.	12490103	1472213126610	1472213126698	NA	66
24441	262965	Please make sure Bob Kelley is on the list.	Please make sure Bob Kelley is on the list.	12490105	1472213126820	1472213126982	NA	79
24441	262965	Please make sure Bob Kelley is on the list.	Please make sure Bob Kelley is on the list.	12490106	1472213126991	1472213127153	NA	75
24441	262965	Please make sure Bob Kelley is on the list.	Please make sure Bob Kelley is on the list.	12490107	1472213127332	1472213127403		8
24441	262965	Please make sure Bob Kelley is on the list.	Please make sure Bob Kelley is on the list.	12490142	1472213127446	1472213127541	NA	66
24441	262965	Please make sure Bob Kelley is on the list.	Please make sure Bob Kelley is on the list.	12490143	1472213127619	1472213127730	NA	32
24441	262965	Please make sure Bob Kelley is on the list.	Please make sure Bob Kelley is on the list.	12490144	1472213127738	1472213127945	SHIFT	16
24441	262965	Please make sure Bob Kelley is on the list.	Please make sure Bob Kelley is on the list.	12490145	1472213127867	1472213127945	NA	75
24441	262965	Please make sure Bob Kelley is on the list.	Please make sure Bob Kelley is on the list.	12490146	1472213128028	1472213128105	NA	69
24441	262965	Please make sure Bob Kelley is on the list.	Please make sure Bob Kelley is on the list.	12490147	1472213128132	1472213128191	NA	76
24441	262965	Please make sure Bob Kelley is on the list.	Please make sure Bob Kelley is on the list.	12490179	1472213128260	1472213128350	NA	76
24441	262965	Please make sure Bob Kelley is on the list.	Please make sure Bob Kelley is on the list.	12490181	1472213128536	1472213128704	NA	69
24441	262965	Please make sure Bob Kelley is on the list.	Please make sure Bob Kelley is on the list.	12490182	1472213128658	1472213128779	NA	89
24441	262965	Please make sure Bob Kelley is on the list.	Please make sure Bob Kelley is on the list.	12490184	1472213128821	1472213128933	NA	32
24441	262965	Please make sure Bob Kelley is on the list.	Please make sure Bob Kelley is on the list.	12490185	1472213128989	1472213129126	NA	73
24441	262965	Please make sure Bob Kelley is on the list.	Please make sure Bob Kelley is on the list.	12490212	1472213129096	1472213129200	NA	83
24441	262965	Please make sure Bob Kelley is on the list.	Please make sure Bob Kelley is on the list.	12490215	1472213129213	1472213129341	NA	32
24441	262965	Please make sure Bob Kelley is on the list.	Please make sure Bob Kelley is on the list.	12490219	1472213129322	1472213129433	NA	78
24441	262965	Please make sure Bob Kelley is on the list.	Please make sure Bob Kelley is on the list.	12490223	1472213129634	1472213129669		8
24441	262965	Please make sure Bob Kelley is on the list.	Please make sure Bob Kelley is on the list.	12490227	1472213129942	1472213130153	NA	79
24441	262965	Please make sure Bob Kelley is on the list.	Please make sure Bob Kelley is on the list.	12490247	1472213130038	1472213130177	NA	78
24441	262965	Please make sure Bob Kelley is on the list.	Please make sure Bob Kelley is on the list.	12490250	1472213130275	1472213130375	NA	32
24441	262965	Please make sure Bob Kelley is on the list.	Please make sure Bob Kelley is on the list.	12490252	1472213130363	1472213130446	NA	84
24441	262965	Please make sure Bob Kelley is on the list.	Please make sure Bob Kelley is on the list.	12490255	1472213130435	1472213130543	NA	72
24441	262965	Please make sure Bob Kelley is on the list.	Please make sure Bob Kelley is on the list.	12490258	1472213130571	1472213130682	NA	69
24441	262965	Please make sure Bob Kelley is on the list.	Please make sure Bob Kelley is on the list.	12490261	1472213130695	1472213130786	NA	32
24441	262965	Please make sure Bob Kelley is on the list.	Please make sure Bob Kelley is on the list.	12490275	1472213130863	1472213130954	NA	76
24441	262965	Please make sure Bob Kelley is on the list.	Please make sure Bob Kelley is on the list.	12490278	1472213130976	1472213131071	NA	73
24441	262965	Please make sure Bob Kelley is on the list.	Please make sure Bob Kelley is on the list.	12490283	1472213131068	1472213131167	NA	83
24441	262965	Please make sure Bob Kelley is on the list.	Please make sure Bob Kelley is on the list.	12490288	1472213131132	1472213131231	NA	84
24441	262965	Please make sure Bob Kelley is on the list.	Please make sure Bob Kelley is on the list.	12490294	1472213131240	1472213131352	NA	190
24441	262972	Hopefully it cheered you up a bit.	Hopefully it cheered you up a bit.	12490397	1472213133376	1472213133733	SHIFT	16
24441	262972	Hopefully it cheered you up a bit.	Hopefully it cheered you up a bit.	12490395	1472213133577	1472213133696	NA	72
24441	262972	Hopefully it cheered you up a bit.	Hopefully it cheered you up a bit.	12490399	1472213133796	1472213133875	NA	79
24441	262972	Hopefully it cheered you up a bit.	Hopefully it cheered you up a bit.	12490401	1472213134125	1472213134285	NA	80
24441	262972	Hopefully it cheered you up a bit.	Hopefully it cheered you up a bit.	12490405	1472213134269	1472213134369	NA	69
24441	262972	Hopefully it cheered you up a bit.	Hopefully it cheered you up a bit.	12490409	1472213134436	1472213134575	NA	70
24441	262972	Hopefully it cheered you up a bit.	Hopefully it cheered you up a bit.	12490437	1472213134492	1472213134632	NA	85
24441	262972	Hopefully it cheered you up a bit.	Hopefully it cheered you up a bit.	12490440	1472213134737	1472213134812	NA	76
24441	262972	Hopefully it cheered you up a bit.	Hopefully it cheered you up a bit.	12490442	1472213134872	1472213134951	NA	76
24441	262972	Hopefully it cheered you up a bit.	Hopefully it cheered you up a bit.	12490444	1472213134937	1472213135039	NA	89
24441	262972	Hopefully it cheered you up a bit.	Hopefully it cheered you up a bit.	12490446	1472213135040	1472213135179	NA	32
24441	262972	Hopefully it cheered you up a bit.	Hopefully it cheered you up a bit.	12490450	1472213135285	1472213135394	NA	73
24441	262972	Hopefully it cheered you up a bit.	Hopefully it cheered you up a bit.	12490464	1472213135448	1472213135531	NA	84
24441	262972	Hopefully it cheered you up a bit.	Hopefully it cheered you up a bit.	12490466	1472213135585	1472213135669	NA	32
24441	262972	Hopefully it cheered you up a bit.	Hopefully it cheered you up a bit.	12490470	1472213135690	1472213135814	NA	67
24441	262972	Hopefully it cheered you up a bit.	Hopefully it cheered you up a bit.	12490473	1472213135786	1472213135889	NA	72
24441	262972	Hopefully it cheered you up a bit.	Hopefully it cheered you up a bit.	12490476	1472213135922	1472213135958	NA	69
24441	262972	Hopefully it cheered you up a bit.	Hopefully it cheered you up a bit.	12490509	1472213136214	1472213136321	NA	69
24441	262972	Hopefully it cheered you up a bit.	Hopefully it cheered you up a bit.	12490511	1472213136426	1472213136509	NA	82
24441	262972	Hopefully it cheered you up a bit.	Hopefully it cheered you up a bit.	12490512	1472213136494	1472213136605	NA	69
24441	262972	Hopefully it cheered you up a bit.	Hopefully it cheered you up a bit.	12490513	1472213136642	1472213136766	NA	68
24441	262972	Hopefully it cheered you up a bit.	Hopefully it cheered you up a bit.	12490514	1472213136892	1472213136976	NA	32
24441	262972	Hopefully it cheered you up a bit.	Hopefully it cheered you up a bit.	12490557	1472213137155	1472213137239	NA	89
24441	262972	Hopefully it cheered you up a bit.	Hopefully it cheered you up a bit.	12490559	1472213137219	1472213137366	NA	79
24441	262972	Hopefully it cheered you up a bit.	Hopefully it cheered you up a bit.	12490563	1472213137331	1472213137430	NA	85
24441	262972	Hopefully it cheered you up a bit.	Hopefully it cheered you up a bit.	12490567	1472213137811	1472213137935	NA	32
24441	262972	Hopefully it cheered you up a bit.	Hopefully it cheered you up a bit.	12490571	1472213138051	1472213138214	NA	85
24441	262972	Hopefully it cheered you up a bit.	Hopefully it cheered you up a bit.	12490591	1472213138160	1472213138339	NA	80
24441	262972	Hopefully it cheered you up a bit.	Hopefully it cheered you up a bit.	12490593	1472213138283	1472213138391	NA	32
24441	262972	Hopefully it cheered you up a bit.	Hopefully it cheered you up a bit.	12490594	1472213138383	1472213138490	NA	65
24441	262972	Hopefully it cheered you up a bit.	Hopefully it cheered you up a bit.	12490596	1472213138540	1472213138667	NA	32
24441	262972	Hopefully it cheered you up a bit.	Hopefully it cheered you up a bit.	12490597	1472213138805	1472213138943	NA	66
24441	262972	Hopefully it cheered you up a bit.	Hopefully it cheered you up a bit.	12490598	1472213138945	1472213139016	NA	73
24441	262972	Hopefully it cheered you up a bit.	Hopefully it cheered you up a bit.	12490600	1472213139064	1472213139194	NA	84
24441	262972	Hopefully it cheered you up a bit.	Hopefully it cheered you up a bit.	12490602	1472213139175	1472213139262	NA	190
24441	262978	Jane, what about this Thursday for lunch?	Jane, what about this Thursday for lunch?	12490715	1472213141765	1472213142075	SHIFT	16
24441	262978	Jane, what about this Thursday for lunch?	Jane, what about this Thursday for lunch?	12490717	1472213142033	1472213142097	NA	74
24441	262978	Jane, what about this Thursday for lunch?	Jane, what about this Thursday for lunch?	12490719	1472213142147	1472213142214	NA	65
24441	262978	Jane, what about this Thursday for lunch?	Jane, what about this Thursday for lunch?	12490721	1472213142215	1472213142298	NA	78
24441	262978	Jane, what about this Thursday for lunch?	Jane, what about this Thursday for lunch?	12490723	1472213142307	1472213142390	NA	69
24441	262978	Jane, what about this Thursday for lunch?	Jane, what about this Thursday for lunch?	12490724	1472213142430	1472213142545	NA	188
24441	262978	Jane, what about this Thursday for lunch?	Jane, what about this Thursday for lunch?	12490756	1472213142778	1472213142909	NA	32
24441	262978	Jane, what about this Thursday for lunch?	Jane, what about this Thursday for lunch?	12490758	1472213142894	1472213143049	NA	87
24441	262978	Jane, what about this Thursday for lunch?	Jane, what about this Thursday for lunch?	12490760	1472213143002	1472213143109	NA	72
24441	262978	Jane, what about this Thursday for lunch?	Jane, what about this Thursday for lunch?	12490762	1472213143114	1472213143229	NA	65
24441	262978	Jane, what about this Thursday for lunch?	Jane, what about this Thursday for lunch?	12490765	1472213143298	1472213143429	NA	84
24441	262978	Jane, what about this Thursday for lunch?	Jane, what about this Thursday for lunch?	12490799	1472213143708	1472213143806	NA	65
24441	262978	Jane, what about this Thursday for lunch?	Jane, what about this Thursday for lunch?	12490801	1472213143792	1472213143871	NA	32
24441	262978	Jane, what about this Thursday for lunch?	Jane, what about this Thursday for lunch?	12490803	1472213144091	1472213144174		8
24441	262978	Jane, what about this Thursday for lunch?	Jane, what about this Thursday for lunch?	12490808	1472213144240	1472213144298		8
24441	262978	Jane, what about this Thursday for lunch?	Jane, what about this Thursday for lunch?	12490811	1472213144510	1472213144630	NA	32
24441	262978	Jane, what about this Thursday for lunch?	Jane, what about this Thursday for lunch?	12490826	1472213144570	1472213144641	NA	65
24441	262978	Jane, what about this Thursday for lunch?	Jane, what about this Thursday for lunch?	12490827	1472213144759	1472213144876	NA	66
24441	262978	Jane, what about this Thursday for lunch?	Jane, what about this Thursday for lunch?	12490828	1472213144863	1472213145006	NA	79
24441	262978	Jane, what about this Thursday for lunch?	Jane, what about this Thursday for lunch?	12490829	1472213144951	1472213145070	NA	85
24441	262978	Jane, what about this Thursday for lunch?	Jane, what about this Thursday for lunch?	12490830	1472213145146	1472213145253	NA	84
24441	262978	Jane, what about this Thursday for lunch?	Jane, what about this Thursday for lunch?	12490847	1472213145238	1472213145389	NA	32
24441	262978	Jane, what about this Thursday for lunch?	Jane, what about this Thursday for lunch?	12490850	1472213145370	1472213145489	NA	84
24441	262978	Jane, what about this Thursday for lunch?	Jane, what about this Thursday for lunch?	12490856	1472213145542	1472213145651	NA	72
24441	262978	Jane, what about this Thursday for lunch?	Jane, what about this Thursday for lunch?	12490860	1472213145610	1472213145737	NA	73
24441	262978	Jane, what about this Thursday for lunch?	Jane, what about this Thursday for lunch?	12490863	1472213145746	1472213145853	NA	83
24441	262978	Jane, what about this Thursday for lunch?	Jane, what about this Thursday for lunch?	12490866	1472213145878	1472213145981	NA	32
24441	262978	Jane, what about this Thursday for lunch?	Jane, what about this Thursday for lunch?	12490885	1472213146144	1472213146391	SHIFT	16
24441	262978	Jane, what about this Thursday for lunch?	Jane, what about this Thursday for lunch?	12490886	1472213146316	1472213146442	NA	84
24441	262978	Jane, what about this Thursday for lunch?	Jane, what about this Thursday for lunch?	12490887	1472213146440	1472213146555	NA	72
24441	262978	Jane, what about this Thursday for lunch?	Jane, what about this Thursday for lunch?	12490888	1472213146560	1472213146664	NA	85
24441	262978	Jane, what about this Thursday for lunch?	Jane, what about this Thursday for lunch?	12490889	1472213146655	1472213146763	NA	82
24441	262978	Jane, what about this Thursday for lunch?	Jane, what about this Thursday for lunch?	12490890	1472213146867	1472213147006	NA	83
24441	262978	Jane, what about this Thursday for lunch?	Jane, what about this Thursday for lunch?	12490913	1472213146991	1472213147138	NA	65
24441	262978	Jane, what about this Thursday for lunch?	Jane, what about this Thursday for lunch?	12490914	1472213147464	1472213147611	NA	68
24441	262978	Jane, what about this Thursday for lunch?	Jane, what about this Thursday for lunch?	12490915	1472213147675	1472213147759		8
24441	262978	Jane, what about this Thursday for lunch?	Jane, what about this Thursday for lunch?	12490916	1472213147820	1472213147895		8
24441	262978	Jane, what about this Thursday for lunch?	Jane, what about this Thursday for lunch?	12490917	1472213147924	1472213148051	NA	68
24441	262978	Jane, what about this Thursday for lunch?	Jane, what about this Thursday for lunch?	12490937	1472213148016	1472213148135	NA	65
24441	262978	Jane, what about this Thursday for lunch?	Jane, what about this Thursday for lunch?	12490939	1472213148117	1472213148215	NA	89
24441	262978	Jane, what about this Thursday for lunch?	Jane, what about this Thursday for lunch?	12490940	1472213148232	1472213148363	NA	32
24441	262978	Jane, what about this Thursday for lunch?	Jane, what about this Thursday for lunch?	12490941	1472213148344	1472213148455	NA	70
24441	262978	Jane, what about this Thursday for lunch?	Jane, what about this Thursday for lunch?	12490942	1472213148456	1472213148563	NA	79
24441	262978	Jane, what about this Thursday for lunch?	Jane, what about this Thursday for lunch?	12490943	1472213148580	1472213148687	NA	82
24441	262978	Jane, what about this Thursday for lunch?	Jane, what about this Thursday for lunch?	12490965	1472213148696	1472213148779	NA	32
24441	262978	Jane, what about this Thursday for lunch?	Jane, what about this Thursday for lunch?	12490968	1472213148853	1472213148960	NA	76
24441	262978	Jane, what about this Thursday for lunch?	Jane, what about this Thursday for lunch?	12490973	1472213149061	1472213149160	NA	85
24441	262978	Jane, what about this Thursday for lunch?	Jane, what about this Thursday for lunch?	12490977	1472213149231	1472213149330	NA	78
24441	262978	Jane, what about this Thursday for lunch?	Jane, what about this Thursday for lunch?	12490981	1472213149404	1472213149527	NA	72
24441	262978	Jane, what about this Thursday for lunch?	Jane, what about this Thursday for lunch?	12491005	1472213149698	1472213149785		8
24441	262978	Jane, what about this Thursday for lunch?	Jane, what about this Thursday for lunch?	12491006	1472213149819	1472213149934	NA	67
24441	262978	Jane, what about this Thursday for lunch?	Jane, what about this Thursday for lunch?	12491007	1472213149927	1472213150030	NA	72
24441	262978	Jane, what about this Thursday for lunch?	Jane, what about this Thursday for lunch?	12491009	1472213150049	1472213150409	SHIFT	16
24441	262978	Jane, what about this Thursday for lunch?	Jane, what about this Thursday for lunch?	12491008	1472213150222	1472213150329	NA	191
24441	262986	I have an AM doctor's appointment.	I have an AM doctor's appointment.	12491113	1472213152555	1472213152869	SHIFT	16
24441	262986	I have an AM doctor's appointment.	I have an AM doctor's appointment.	12491114	1472213152759	1472213152886	NA	73
24441	262986	I have an AM doctor's appointment.	I have an AM doctor's appointment.	12491116	1472213152942	1472213153074	NA	32
24441	262986	I have an AM doctor's appointment.	I have an AM doctor's appointment.	12491118	1472213153072	1472213153170	NA	72
24441	262986	I have an AM doctor's appointment.	I have an AM doctor's appointment.	12491120	1472213153197	1472213153299	NA	65
24441	262986	I have an AM doctor's appointment.	I have an AM doctor's appointment.	12491122	1472213153366	1472213153465	NA	77
24441	262986	I have an AM doctor's appointment.	I have an AM doctor's appointment.	12491137	1472213153520	1472213153640	NA	32
24441	262986	I have an AM doctor's appointment.	I have an AM doctor's appointment.	12491140	1472213153608	1472213153749	NA	65
24441	262986	I have an AM doctor's appointment.	I have an AM doctor's appointment.	12491142	1472213153696	1472213153823	NA	78
24441	262986	I have an AM doctor's appointment.	I have an AM doctor's appointment.	12491145	1472213153906	1472213154009	NA	32
24441	262986	I have an AM doctor's appointment.	I have an AM doctor's appointment.	12491147	1472213154133	1472213154176		8
24441	262986	I have an AM doctor's appointment.	I have an AM doctor's appointment.	12491165	1472213154239	1472213154301		8
24441	262986	I have an AM doctor's appointment.	I have an AM doctor's appointment.	12491166	1472213154357	1472213154410		8
24441	262986	I have an AM doctor's appointment.	I have an AM doctor's appointment.	12491167	1472213154481	1472213154528		8
24441	262986	I have an AM doctor's appointment.	I have an AM doctor's appointment.	12491168	1472213154600	1472213154680		8
24441	262986	I have an AM doctor's appointment.	I have an AM doctor's appointment.	12491170	1472213154895	1472213154985	NA	86
24441	262986	I have an AM doctor's appointment.	I have an AM doctor's appointment.	12491177	1472213155051	1472213155170	NA	69
24441	262986	I have an AM doctor's appointment.	I have an AM doctor's appointment.	12491180	1472213155150	1472213155242	NA	32
24441	262986	I have an AM doctor's appointment.	I have an AM doctor's appointment.	12491184	1472213155304	1472213155440	NA	65
24441	262986	I have an AM doctor's appointment.	I have an AM doctor's appointment.	12491188	1472213155416	1472213155528	NA	78
24441	262986	I have an AM doctor's appointment.	I have an AM doctor's appointment.	12491192	1472213155563	1472213155690	NA	32
24441	262986	I have an AM doctor's appointment.	I have an AM doctor's appointment.	12491242	1472213155678	1472213156410	SHIFT	16
24441	262986	I have an AM doctor's appointment.	I have an AM doctor's appointment.	12491236	1472213155831	1472213155925	NA	65
24441	262986	I have an AM doctor's appointment.	I have an AM doctor's appointment.	12491239	1472213155946	1472213155994	NA	77
24441	262986	I have an AM doctor's appointment.	I have an AM doctor's appointment.	12491246	1472213156541	1472213156673	NA	32
24441	262986	I have an AM doctor's appointment.	I have an AM doctor's appointment.	12491249	1472213156787	1472213156902	NA	68
24441	262986	I have an AM doctor's appointment.	I have an AM doctor's appointment.	12491266	1472213156871	1472213156997	NA	79
24441	262986	I have an AM doctor's appointment.	I have an AM doctor's appointment.	12491269	1472213156995	1472213157106	NA	67
24441	262986	I have an AM doctor's appointment.	I have an AM doctor's appointment.	12491271	1472213157110	1472213157250	NA	84
24441	262986	I have an AM doctor's appointment.	I have an AM doctor's appointment.	12491273	1472213157199	1472213157282	NA	79
24441	262986	I have an AM doctor's appointment.	I have an AM doctor's appointment.	12491274	1472213157349	1472213157476	NA	82
24441	262986	I have an AM doctor's appointment.	I have an AM doctor's appointment.	12491275	1472213157503	1472213157634	NA	222
24441	262986	I have an AM doctor's appointment.	I have an AM doctor's appointment.	12491283	1472213157650	1472213157766	NA	83
24441	262986	I have an AM doctor's appointment.	I have an AM doctor's appointment.	12491288	1472213157767	1472213157906	NA	32
24441	262986	I have an AM doctor's appointment.	I have an AM doctor's appointment.	12491292	1472213157919	1472213158058	NA	65
24441	262986	I have an AM doctor's appointment.	I have an AM doctor's appointment.	12491296	1472213158089	1472213158169	NA	80
24441	262986	I have an AM doctor's appointment.	I have an AM doctor's appointment.	12491301	1472213158254	1472213158326	NA	80
24441	262986	I have an AM doctor's appointment.	I have an AM doctor's appointment.	12491329	1472213158369	1472213158477	NA	79
24441	262986	I have an AM doctor's appointment.	I have an AM doctor's appointment.	12491331	1472213158567	1472213158690	NA	73
24441	262986	I have an AM doctor's appointment.	I have an AM doctor's appointment.	12491335	1472213158662	1472213158786	NA	78
24441	262986	I have an AM doctor's appointment.	I have an AM doctor's appointment.	12491338	1472213158791	1472213158886	NA	84
24441	262986	I have an AM doctor's appointment.	I have an AM doctor's appointment.	12491340	1472213158920	1472213158992	NA	77
24441	262986	I have an AM doctor's appointment.	I have an AM doctor's appointment.	12491350	1472213159108	1472213159240	NA	69
24441	262986	I have an AM doctor's appointment.	I have an AM doctor's appointment.	12491352	1472213159244	1472213159312	NA	78
24441	262986	I have an AM doctor's appointment.	I have an AM doctor's appointment.	12491354	1472213159386	1472213159485	NA	84
24441	262986	I have an AM doctor's appointment.	I have an AM doctor's appointment.	12491356	1472213159489	1472213159589	NA	190
24441	262993	Mixed signals from APS today.	Mixed signals from APS today.	12491431	1472213161827	1472213162070	SHIFT	16
24441	262993	Mixed signals from APS today.	Mixed signals from APS today.	12491432	1472213161990	1472213162078	NA	77
24441	262993	Mixed signals from APS today.	Mixed signals from APS today.	12491435	1472213162190	1472213162313	NA	73
24441	262993	Mixed signals from APS today.	Mixed signals from APS today.	12491438	1472213162254	1472213162389	NA	88
24441	262993	Mixed signals from APS today.	Mixed signals from APS today.	12491441	1472213162365	1472213162473	NA	69
24441	262993	Mixed signals from APS today.	Mixed signals from APS today.	12491444	1472213162478	1472213162601	NA	68
24441	262993	Mixed signals from APS today.	Mixed signals from APS today.	12491463	1472213162658	1472213162758	NA	32
24441	262993	Mixed signals from APS today.	Mixed signals from APS today.	12491464	1472213162876	1472213162999	NA	83
24441	262993	Mixed signals from APS today.	Mixed signals from APS today.	12491465	1472213163011	1472213163139	NA	73
24441	262993	Mixed signals from APS today.	Mixed signals from APS today.	12491466	1472213163143	1472213163267	NA	71
24441	262993	Mixed signals from APS today.	Mixed signals from APS today.	12491468	1472213163334	1472213163421	NA	78
24441	262993	Mixed signals from APS today.	Mixed signals from APS today.	12491485	1472213163449	1472213163598	NA	65
24441	262993	Mixed signals from APS today.	Mixed signals from APS today.	12491488	1472213163606	1472213163733	NA	76
24441	262993	Mixed signals from APS today.	Mixed signals from APS today.	12491491	1472213163737	1472213163853	NA	83
24441	262993	Mixed signals from APS today.	Mixed signals from APS today.	12491492	1472213163842	1472213163985	NA	32
24441	262993	Mixed signals from APS today.	Mixed signals from APS today.	12491521	1472213163982	1472213164049	NA	70
24441	262993	Mixed signals from APS today.	Mixed signals from APS today.	12491523	1472213164152	1472213164240	NA	82
24441	262993	Mixed signals from APS today.	Mixed signals from APS today.	12491526	1472213164256	1472213164404	NA	79
24441	262993	Mixed signals from APS today.	Mixed signals from APS today.	12491529	1472213164333	1472213164448	NA	77
24441	262993	Mixed signals from APS today.	Mixed signals from APS today.	12491531	1472213164444	1472213164556	NA	32
24441	262993	Mixed signals from APS today.	Mixed signals from APS today.	12491573	1472213164520	1472213165448	SHIFT	16
24441	262993	Mixed signals from APS today.	Mixed signals from APS today.	12491533	1472213164680	1472213164792	NA	65
24441	262993	Mixed signals from APS today.	Mixed signals from APS today.	12491569	1472213164709	1472213164804	NA	80
24441	262993	Mixed signals from APS today.	Mixed signals from APS today.	12491571	1472213165241	1472213165368	NA	83
24441	262993	Mixed signals from APS today.	Mixed signals from APS today.	12491575	1472213165483	1472213165591	NA	32
24441	262993	Mixed signals from APS today.	Mixed signals from APS today.	12491576	1472213165687	1472213165778	NA	83
24441	262993	Mixed signals from APS today.	Mixed signals from APS today.	12491577	1472213165973	1472213166061	NA	84
24441	262993	Mixed signals from APS today.	Mixed signals from APS today.	12491578	1472213166215	1472213166283		8
24441	262993	Mixed signals from APS today.	Mixed signals from APS today.	12491589	1472213166331	1472213166411		8
24441	262993	Mixed signals from APS today.	Mixed signals from APS today.	12491591	1472213166415	1472213166523	NA	84
24441	262993	Mixed signals from APS today.	Mixed signals from APS today.	12491593	1472213166565	1472213166648	NA	79
24441	262993	Mixed signals from APS today.	Mixed signals from APS today.	12491595	1472213166674	1472213166838	NA	68
24441	262993	Mixed signals from APS today.	Mixed signals from APS today.	12491604	1472213166777	1472213166885	NA	65
24441	262993	Mixed signals from APS today.	Mixed signals from APS today.	12491606	1472213166903	1472213166988	NA	89
24441	262993	Mixed signals from APS today.	Mixed signals from APS today.	12491608	1472213167152	1472213167239	NA	190
24441	262999	Washington was not moving toward a unilateral lifting of the embargo.	Washington was not moving toward a unilateral lifting of the embargo.	12491722	1472213169940	1472213170273	SHIFT	16
24441	262999	Washington was not moving toward a unilateral lifting of the embargo.	Washington was not moving toward a unilateral lifting of the embargo.	12491724	1472213170166	1472213170289	NA	87
24441	262999	Washington was not moving toward a unilateral lifting of the embargo.	Washington was not moving toward a unilateral lifting of the embargo.	12491727	1472213170559	1472213170967	SHIFT	16
24441	262999	Washington was not moving toward a unilateral lifting of the embargo.	Washington was not moving toward a unilateral lifting of the embargo.	12491729	1472213171114	1472213171270	NA	65
24441	262999	Washington was not moving toward a unilateral lifting of the embargo.	Washington was not moving toward a unilateral lifting of the embargo.	12491730	1472213171271	1472213171398	NA	83
24441	262999	Washington was not moving toward a unilateral lifting of the embargo.	Washington was not moving toward a unilateral lifting of the embargo.	12491731	1472213171438	1472213171550	NA	72
24441	262999	Washington was not moving toward a unilateral lifting of the embargo.	Washington was not moving toward a unilateral lifting of the embargo.	12491752	1472213171519	1472213171678	NA	73
24441	262999	Washington was not moving toward a unilateral lifting of the embargo.	Washington was not moving toward a unilateral lifting of the embargo.	12491753	1472213171642	1472213171742	NA	78
24441	262999	Washington was not moving toward a unilateral lifting of the embargo.	Washington was not moving toward a unilateral lifting of the embargo.	12491754	1472213171734	1472213171806	NA	71
24441	262999	Washington was not moving toward a unilateral lifting of the embargo.	Washington was not moving toward a unilateral lifting of the embargo.	12491755	1472213171920	1472213172032	NA	84
24441	262999	Washington was not moving toward a unilateral lifting of the embargo.	Washington was not moving toward a unilateral lifting of the embargo.	12491756	1472213172040	1472213172172	NA	79
24441	262999	Washington was not moving toward a unilateral lifting of the embargo.	Washington was not moving toward a unilateral lifting of the embargo.	12491757	1472213172286	1472213172390	NA	78
24441	262999	Washington was not moving toward a unilateral lifting of the embargo.	Washington was not moving toward a unilateral lifting of the embargo.	12491779	1472213172465	1472213172617	NA	32
24441	262999	Washington was not moving toward a unilateral lifting of the embargo.	Washington was not moving toward a unilateral lifting of the embargo.	12491781	1472213172634	1472213172790	NA	87
24441	262999	Washington was not moving toward a unilateral lifting of the embargo.	Washington was not moving toward a unilateral lifting of the embargo.	12491782	1472213172778	1472213172958	NA	65
24441	262999	Washington was not moving toward a unilateral lifting of the embargo.	Washington was not moving toward a unilateral lifting of the embargo.	12491784	1472213172886	1472213173042	NA	83
24441	262999	Washington was not moving toward a unilateral lifting of the embargo.	Washington was not moving toward a unilateral lifting of the embargo.	12491808	1472213173018	1472213173138	NA	32
24441	262999	Washington was not moving toward a unilateral lifting of the embargo.	Washington was not moving toward a unilateral lifting of the embargo.	12491809	1472213173207	1472213173346	NA	78
24441	262999	Washington was not moving toward a unilateral lifting of the embargo.	Washington was not moving toward a unilateral lifting of the embargo.	12491810	1472213173310	1472213173422	NA	79
24441	262999	Washington was not moving toward a unilateral lifting of the embargo.	Washington was not moving toward a unilateral lifting of the embargo.	12491811	1472213173510	1472213173638	NA	84
24441	262999	Washington was not moving toward a unilateral lifting of the embargo.	Washington was not moving toward a unilateral lifting of the embargo.	12491812	1472213173717	1472213173816	NA	32
24441	262999	Washington was not moving toward a unilateral lifting of the embargo.	Washington was not moving toward a unilateral lifting of the embargo.	12491814	1472213173920	1472213174024	NA	77
24441	262999	Washington was not moving toward a unilateral lifting of the embargo.	Washington was not moving toward a unilateral lifting of the embargo.	12491855	1472213174008	1472213174132	NA	79
24441	262999	Washington was not moving toward a unilateral lifting of the embargo.	Washington was not moving toward a unilateral lifting of the embargo.	12491857	1472213174247	1472213174391	NA	86
24441	262999	Washington was not moving toward a unilateral lifting of the embargo.	Washington was not moving toward a unilateral lifting of the embargo.	12491859	1472213174545	1472213174664	NA	73
24441	262999	Washington was not moving toward a unilateral lifting of the embargo.	Washington was not moving toward a unilateral lifting of the embargo.	12491861	1472213174632	1472213174740	NA	78
24441	262999	Washington was not moving toward a unilateral lifting of the embargo.	Washington was not moving toward a unilateral lifting of the embargo.	12491862	1472213174724	1472213174848	NA	71
24441	262999	Washington was not moving toward a unilateral lifting of the embargo.	Washington was not moving toward a unilateral lifting of the embargo.	12491863	1472213174879	1472213175003	NA	32
24441	262999	Washington was not moving toward a unilateral lifting of the embargo.	Washington was not moving toward a unilateral lifting of the embargo.	12491877	1472213174983	1472213175111	NA	84
24441	262999	Washington was not moving toward a unilateral lifting of the embargo.	Washington was not moving toward a unilateral lifting of the embargo.	12491880	1472213175171	1472213175291	NA	79
24441	262999	Washington was not moving toward a unilateral lifting of the embargo.	Washington was not moving toward a unilateral lifting of the embargo.	12491883	1472213175299	1472213175459	NA	87
24441	262999	Washington was not moving toward a unilateral lifting of the embargo.	Washington was not moving toward a unilateral lifting of the embargo.	12491886	1472213175395	1472213175571	NA	65
24441	262999	Washington was not moving toward a unilateral lifting of the embargo.	Washington was not moving toward a unilateral lifting of the embargo.	12491889	1472213175539	1472213175655	NA	82
24441	262999	Washington was not moving toward a unilateral lifting of the embargo.	Washington was not moving toward a unilateral lifting of the embargo.	12491892	1472213175749	1472213175893	NA	68
24441	262999	Washington was not moving toward a unilateral lifting of the embargo.	Washington was not moving toward a unilateral lifting of the embargo.	12491899	1472213175901	1472213175989	NA	32
24441	262999	Washington was not moving toward a unilateral lifting of the embargo.	Washington was not moving toward a unilateral lifting of the embargo.	12491904	1472213175985	1472213176081	NA	65
24441	262999	Washington was not moving toward a unilateral lifting of the embargo.	Washington was not moving toward a unilateral lifting of the embargo.	12491906	1472213176082	1472213176181	NA	32
24441	262999	Washington was not moving toward a unilateral lifting of the embargo.	Washington was not moving toward a unilateral lifting of the embargo.	12491910	1472213176259	1472213176385	NA	85
24441	262999	Washington was not moving toward a unilateral lifting of the embargo.	Washington was not moving toward a unilateral lifting of the embargo.	12491925	1472213176351	1472213176475	NA	78
24441	262999	Washington was not moving toward a unilateral lifting of the embargo.	Washington was not moving toward a unilateral lifting of the embargo.	12491928	1472213176493	1472213176593	NA	73
24441	262999	Washington was not moving toward a unilateral lifting of the embargo.	Washington was not moving toward a unilateral lifting of the embargo.	12491931	1472213176694	1472213176806	NA	76
24441	262999	Washington was not moving toward a unilateral lifting of the embargo.	Washington was not moving toward a unilateral lifting of the embargo.	12491934	1472213176810	1472213176950	NA	65
24441	262999	Washington was not moving toward a unilateral lifting of the embargo.	Washington was not moving toward a unilateral lifting of the embargo.	12491936	1472213176978	1472213177082	NA	84
24441	262999	Washington was not moving toward a unilateral lifting of the embargo.	Washington was not moving toward a unilateral lifting of the embargo.	12491956	1472213177062	1472213177226	NA	69
24441	262999	Washington was not moving toward a unilateral lifting of the embargo.	Washington was not moving toward a unilateral lifting of the embargo.	12491959	1472213177154	1472213177298	NA	82
24441	262999	Washington was not moving toward a unilateral lifting of the embargo.	Washington was not moving toward a unilateral lifting of the embargo.	12491962	1472213177314	1472213177374	NA	76
24441	262999	Washington was not moving toward a unilateral lifting of the embargo.	Washington was not moving toward a unilateral lifting of the embargo.	12491963	1472213177673	1472213177757		8
24441	262999	Washington was not moving toward a unilateral lifting of the embargo.	Washington was not moving toward a unilateral lifting of the embargo.	12491964	1472213177774	1472213177890	NA	65
24441	262999	Washington was not moving toward a unilateral lifting of the embargo.	Washington was not moving toward a unilateral lifting of the embargo.	12491965	1472213177894	1472213177990	NA	76
24441	262999	Washington was not moving toward a unilateral lifting of the embargo.	Washington was not moving toward a unilateral lifting of the embargo.	12491988	1472213178039	1472213178155	NA	32
24441	262999	Washington was not moving toward a unilateral lifting of the embargo.	Washington was not moving toward a unilateral lifting of the embargo.	12491989	1472213178238	1472213178333	NA	76
24441	262999	Washington was not moving toward a unilateral lifting of the embargo.	Washington was not moving toward a unilateral lifting of the embargo.	12491990	1472213178435	1472213178530	NA	73
24441	262999	Washington was not moving toward a unilateral lifting of the embargo.	Washington was not moving toward a unilateral lifting of the embargo.	12491991	1472213178527	1472213178615	NA	70
24441	262999	Washington was not moving toward a unilateral lifting of the embargo.	Washington was not moving toward a unilateral lifting of the embargo.	12491992	1472213178704	1472213178808	NA	84
24441	262999	Washington was not moving toward a unilateral lifting of the embargo.	Washington was not moving toward a unilateral lifting of the embargo.	12492004	1472213178756	1472213178892	NA	73
24441	262999	Washington was not moving toward a unilateral lifting of the embargo.	Washington was not moving toward a unilateral lifting of the embargo.	12492006	1472213178836	1472213178971	NA	78
24441	262999	Washington was not moving toward a unilateral lifting of the embargo.	Washington was not moving toward a unilateral lifting of the embargo.	12492007	1472213178960	1472213179079	NA	71
24441	262999	Washington was not moving toward a unilateral lifting of the embargo.	Washington was not moving toward a unilateral lifting of the embargo.	12492008	1472213179076	1472213179221	NA	32
24441	262999	Washington was not moving toward a unilateral lifting of the embargo.	Washington was not moving toward a unilateral lifting of the embargo.	12492009	1472213179204	1472213179344	NA	79
24441	262999	Washington was not moving toward a unilateral lifting of the embargo.	Washington was not moving toward a unilateral lifting of the embargo.	12492015	1472213179336	1472213179435	NA	70
24441	262999	Washington was not moving toward a unilateral lifting of the embargo.	Washington was not moving toward a unilateral lifting of the embargo.	12492016	1472213179425	1472213179540	NA	32
24441	262999	Washington was not moving toward a unilateral lifting of the embargo.	Washington was not moving toward a unilateral lifting of the embargo.	12492017	1472213179536	1472213179632	NA	84
24441	262999	Washington was not moving toward a unilateral lifting of the embargo.	Washington was not moving toward a unilateral lifting of the embargo.	12492018	1472213179612	1472213179735	NA	72
24441	262999	Washington was not moving toward a unilateral lifting of the embargo.	Washington was not moving toward a unilateral lifting of the embargo.	12492019	1472213179732	1472213179844	NA	69
24441	262999	Washington was not moving toward a unilateral lifting of the embargo.	Washington was not moving toward a unilateral lifting of the embargo.	12492047	1472213179824	1472213179892	NA	32
24441	262999	Washington was not moving toward a unilateral lifting of the embargo.	Washington was not moving toward a unilateral lifting of the embargo.	12492049	1472213180013	1472213180089	NA	32
24441	262999	Washington was not moving toward a unilateral lifting of the embargo.	Washington was not moving toward a unilateral lifting of the embargo.	12492051	1472213180451	1472213180539		8
24441	262999	Washington was not moving toward a unilateral lifting of the embargo.	Washington was not moving toward a unilateral lifting of the embargo.	12492054	1472213180578	1472213180695	NA	69
24441	262999	Washington was not moving toward a unilateral lifting of the embargo.	Washington was not moving toward a unilateral lifting of the embargo.	12492057	1472213180709	1472213180817	NA	77
24441	262999	Washington was not moving toward a unilateral lifting of the embargo.	Washington was not moving toward a unilateral lifting of the embargo.	12492060	1472213180982	1472213181098	NA	66
24441	262999	Washington was not moving toward a unilateral lifting of the embargo.	Washington was not moving toward a unilateral lifting of the embargo.	12492069	1472213181086	1472213181170	NA	65
24441	262999	Washington was not moving toward a unilateral lifting of the embargo.	Washington was not moving toward a unilateral lifting of the embargo.	12492070	1472213181171	1472213181314	NA	82
24441	262999	Washington was not moving toward a unilateral lifting of the embargo.	Washington was not moving toward a unilateral lifting of the embargo.	12492071	1472213181453	1472213181569	NA	71
24441	262999	Washington was not moving toward a unilateral lifting of the embargo.	Washington was not moving toward a unilateral lifting of the embargo.	12492072	1472213181581	1472213181653	NA	79
24441	262999	Washington was not moving toward a unilateral lifting of the embargo.	Washington was not moving toward a unilateral lifting of the embargo.	12492073	1472213181733	1472213181857	NA	190
24441	263011	He will be evaluated on a day to day basis.	He will be evaluated on a day to day basis.	12492182	1472213184557	1472213184845	SHIFT	16
24441	263011	He will be evaluated on a day to day basis.	He will be evaluated on a day to day basis.	12492184	1472213184737	1472213184851	NA	72
24441	263011	He will be evaluated on a day to day basis.	He will be evaluated on a day to day basis.	12492187	1472213184873	1472213184997	NA	69
24441	263011	He will be evaluated on a day to day basis.	He will be evaluated on a day to day basis.	12492191	1472213185009	1472213185113	NA	32
24441	263011	He will be evaluated on a day to day basis.	He will be evaluated on a day to day basis.	12492194	1472213185145	1472213185301	NA	87
24441	263011	He will be evaluated on a day to day basis.	He will be evaluated on a day to day basis.	12492208	1472213185229	1472213185307	NA	73
24441	263011	He will be evaluated on a day to day basis.	He will be evaluated on a day to day basis.	12492210	1472213185434	1472213185498	NA	76
24441	263011	He will be evaluated on a day to day basis.	He will be evaluated on a day to day basis.	12492212	1472213185575	1472213185662	NA	76
24441	263011	He will be evaluated on a day to day basis.	He will be evaluated on a day to day basis.	12492215	1472213185674	1472213185838	NA	32
24441	263011	He will be evaluated on a day to day basis.	He will be evaluated on a day to day basis.	12492220	1472213185967	1472213186094	NA	66
24441	263011	He will be evaluated on a day to day basis.	He will be evaluated on a day to day basis.	12492265	1472213186091	1472213186195	NA	69
24441	263011	He will be evaluated on a day to day basis.	He will be evaluated on a day to day basis.	12492266	1472213186176	1472213186299	NA	32
24441	263011	He will be evaluated on a day to day basis.	He will be evaluated on a day to day basis.	12492267	1472213186370	1472213186566	NA	69
24441	263011	He will be evaluated on a day to day basis.	He will be evaluated on a day to day basis.	12492269	1472213186585	1472213186749	NA	67
24441	263011	He will be evaluated on a day to day basis.	He will be evaluated on a day to day basis.	12492271	1472213186761	1472213186869	NA	65
24441	263011	He will be evaluated on a day to day basis.	He will be evaluated on a day to day basis.	12492274	1472213187200	1472213187255		8
24441	263011	He will be evaluated on a day to day basis.	He will be evaluated on a day to day basis.	12492306	1472213187309	1472213187401		8
24441	263011	He will be evaluated on a day to day basis.	He will be evaluated on a day to day basis.	12492309	1472213187414	1472213187529	NA	86
24441	263011	He will be evaluated on a day to day basis.	He will be evaluated on a day to day basis.	12492312	1472213187505	1472213187609	NA	65
24441	263011	He will be evaluated on a day to day basis.	He will be evaluated on a day to day basis.	12492314	1472213187889	1472213188013	NA	76
24441	263011	He will be evaluated on a day to day basis.	He will be evaluated on a day to day basis.	12492318	1472213188075	1472213188227	NA	85
24441	263011	He will be evaluated on a day to day basis.	He will be evaluated on a day to day basis.	12492328	1472213188187	1472213188331	NA	65
24441	263011	He will be evaluated on a day to day basis.	He will be evaluated on a day to day basis.	12492329	1472213188287	1472213188411	NA	84
24441	263011	He will be evaluated on a day to day basis.	He will be evaluated on a day to day basis.	12492330	1472213188462	1472213188608	NA	69
24441	263011	He will be evaluated on a day to day basis.	He will be evaluated on a day to day basis.	12492331	1472213188588	1472213188742	NA	68
24441	263011	He will be evaluated on a day to day basis.	He will be evaluated on a day to day basis.	12492332	1472213188795	1472213188899	NA	32
24441	263011	He will be evaluated on a day to day basis.	He will be evaluated on a day to day basis.	12492333	1472213188955	1472213189155	NA	79
24441	263011	He will be evaluated on a day to day basis.	He will be evaluated on a day to day basis.	12492344	1472213189087	1472213189235	NA	78
24441	263011	He will be evaluated on a day to day basis.	He will be evaluated on a day to day basis.	12492345	1472213189243	1472213189483	NA	32
24441	263011	He will be evaluated on a day to day basis.	He will be evaluated on a day to day basis.	12492346	1472213189443	1472213189631	NA	65
24441	263011	He will be evaluated on a day to day basis.	He will be evaluated on a day to day basis.	12492347	1472213189747	1472213189911	NA	32
24441	263011	He will be evaluated on a day to day basis.	He will be evaluated on a day to day basis.	12492348	1472213190121	1472213190269	NA	68
24441	263011	He will be evaluated on a day to day basis.	He will be evaluated on a day to day basis.	12492349	1472213190281	1472213190425	NA	65
24441	263011	He will be evaluated on a day to day basis.	He will be evaluated on a day to day basis.	12492364	1472213190405	1472213190529	NA	89
24441	263011	He will be evaluated on a day to day basis.	He will be evaluated on a day to day basis.	12492365	1472213190538	1472213190681	NA	32
24441	263011	He will be evaluated on a day to day basis.	He will be evaluated on a day to day basis.	12492366	1472213190689	1472213190761	NA	84
24441	263011	He will be evaluated on a day to day basis.	He will be evaluated on a day to day basis.	12492368	1472213190895	1472213191003	NA	79
24441	263011	He will be evaluated on a day to day basis.	He will be evaluated on a day to day basis.	12492371	1472213191082	1472213191170	NA	32
24441	263011	He will be evaluated on a day to day basis.	He will be evaluated on a day to day basis.	12492374	1472213191230	1472213191362	NA	68
24441	263011	He will be evaluated on a day to day basis.	He will be evaluated on a day to day basis.	12492400	1472213191350	1472213191502	NA	65
24441	263011	He will be evaluated on a day to day basis.	He will be evaluated on a day to day basis.	12492401	1472213191742	1472213191929	NA	89
24441	263011	He will be evaluated on a day to day basis.	He will be evaluated on a day to day basis.	12492402	1472213192026	1472213192125	NA	32
24441	263011	He will be evaluated on a day to day basis.	He will be evaluated on a day to day basis.	12492403	1472213192193	1472213192317	NA	66
24441	263011	He will be evaluated on a day to day basis.	He will be evaluated on a day to day basis.	12492404	1472213192343	1472213192787	NA	65
24441	263011	He will be evaluated on a day to day basis.	He will be evaluated on a day to day basis.	12492430	1472213192683	1472213192806	NA	83
24441	263011	He will be evaluated on a day to day basis.	He will be evaluated on a day to day basis.	12492432	1472213193458	1472213193522	NA	73
24441	263011	He will be evaluated on a day to day basis.	He will be evaluated on a day to day basis.	12492436	1472213193526	1472213193646	NA	83
24441	263011	He will be evaluated on a day to day basis.	He will be evaluated on a day to day basis.	12492438	1472213193758	1472213193878	NA	190
