PARTICIPANT_ID	TEST_SECTION_ID	SENTENCE	USER_INPUT	KEYSTROKE_ID	PRESS_TIME	RELEASE_TIME	LETTER	KEYCODE
247029	2641463	The exercises will be staged in the West and Mid-Pacific region.	The exercises will be staged in the West and Mid-Pacific region.	125424833	1475376643719	1475376643924	SHIFT	16
247029	2641463	The exercises will be staged in the West and Mid-Pacific region.	The exercises will be staged in the West and Mid-Pacific region.	125424834	1475376643956	1475376644117	h	72
247029	2641463	The exercises will be staged in the West and Mid-Pacific region.	The exercises will be staged in the West and Mid-Pacific region.	125424835	1475376644117	1475376644147	 	69
247029	2641463	The exercises will be staged in the West and Mid-Pacific region.	The exercises will be staged in the West and Mid-Pacific region.	125424836	1475376644204	1475376644355	s	83
247029	2641463	The exercises will be staged in the West and Mid-Pacific region.	The exercises will be staged in the West and Mid-Pacific region.	125424846	1475376644308	1475376644395	e	69
247029	2641463	The exercises will be staged in the West and Mid-Pacific region.	The exercises will be staged in the West and Mid-Pacific region.	125424847	1475376644516	1475376644611	x	88
247029	2641463	The exercises will be staged in the West and Mid-Pacific region.	The exercises will be staged in the West and Mid-Pacific region.	125424848	1475376644700	1475376644835	e	69
247029	2641463	The exercises will be staged in the West and Mid-Pacific region.	The exercises will be staged in the West and Mid-Pacific region.	125424851	1475376644780	1475376644883	r	82
247029	2641463	The exercises will be staged in the West and Mid-Pacific region.	The exercises will be staged in the West and Mid-Pacific region.	125424853	1475376644932	1475376645019	i	73
247029	2641463	The exercises will be staged in the West and Mid-Pacific region.	The exercises will be staged in the West and Mid-Pacific region.	125424856	1475376645099	1475376645163	c	67
247029	2641463	The exercises will be staged in the West and Mid-Pacific region.	The exercises will be staged in the West and Mid-Pacific region.	125424922	1475376645252	1475376645874	BKSP	8
247029	2641463	The exercises will be staged in the West and Mid-Pacific region.	The exercises will be staged in the West and Mid-Pacific region.	125424927	1475376646187	1475376646267	BKSP	8
247029	2641463	The exercises will be staged in the West and Mid-Pacific region.	The exercises will be staged in the West and Mid-Pacific region.	125424932	1475376646339	1475376646451	BKSP	8
247029	2641463	The exercises will be staged in the West and Mid-Pacific region.	The exercises will be staged in the West and Mid-Pacific region.	125424938	1475376646508	1475376646611	e	69
247029	2641463	The exercises will be staged in the West and Mid-Pacific region.	The exercises will be staged in the West and Mid-Pacific region.	125424944	1475376646691	1475376646820	x	88
247029	2641463	The exercises will be staged in the West and Mid-Pacific region.	The exercises will be staged in the West and Mid-Pacific region.	125424948	1475376647046	1475376647235	e	69
247029	2641463	The exercises will be staged in the West and Mid-Pacific region.	The exercises will be staged in the West and Mid-Pacific region.	125424950	1475376647155	1475376647259	r	82
247029	2641463	The exercises will be staged in the West and Mid-Pacific region.	The exercises will be staged in the West and Mid-Pacific region.	125424953	1475376647411	1475376647516	c	67
247029	2641463	The exercises will be staged in the West and Mid-Pacific region.	The exercises will be staged in the West and Mid-Pacific region.	125424960	1475376647519	1475376647595	i	73
247029	2641463	The exercises will be staged in the West and Mid-Pacific region.	The exercises will be staged in the West and Mid-Pacific region.	125424961	1475376647635	1475376647747	s	83
247029	2641463	The exercises will be staged in the West and Mid-Pacific region.	The exercises will be staged in the West and Mid-Pacific region.	125424962	1475376647700	1475376647795	e	69
247029	2641463	The exercises will be staged in the West and Mid-Pacific region.	The exercises will be staged in the West and Mid-Pacific region.	125424963	1475376647964	1475376648051	s	83
247029	2641463	The exercises will be staged in the West and Mid-Pacific region.	The exercises will be staged in the West and Mid-Pacific region.	125424964	1475376648163	1475376648267	 	32
247029	2641463	The exercises will be staged in the West and Mid-Pacific region.	The exercises will be staged in the West and Mid-Pacific region.	125424974	1475376648292	1475376648372	w	87
247029	2641463	The exercises will be staged in the West and Mid-Pacific region.	The exercises will be staged in the West and Mid-Pacific region.	125424978	1475376648372	1475376648443	i	73
247029	2641463	The exercises will be staged in the West and Mid-Pacific region.	The exercises will be staged in the West and Mid-Pacific region.	125424982	1475376648523	1475376648588	l	76
247029	2641463	The exercises will be staged in the West and Mid-Pacific region.	The exercises will be staged in the West and Mid-Pacific region.	125424985	1475376648675	1475376648772	l	76
247029	2641463	The exercises will be staged in the West and Mid-Pacific region.	The exercises will be staged in the West and Mid-Pacific region.	125424989	1475376648772	1475376648875	 	32
247029	2641463	The exercises will be staged in the West and Mid-Pacific region.	The exercises will be staged in the West and Mid-Pacific region.	125425004	1475376648940	1475376649035	b	66
247029	2641463	The exercises will be staged in the West and Mid-Pacific region.	The exercises will be staged in the West and Mid-Pacific region.	125425006	1475376649322	1475376649329	 	69
247029	2641463	The exercises will be staged in the West and Mid-Pacific region.	The exercises will be staged in the West and Mid-Pacific region.	125425046	1475376649326	1475376650955	s	32
247029	2641463	The exercises will be staged in the West and Mid-Pacific region.	The exercises will be staged in the West and Mid-Pacific region.	125425033	1475376649411	1475376649491	g	71
247029	2641463	The exercises will be staged in the West and Mid-Pacific region.	The exercises will be staged in the West and Mid-Pacific region.	125425034	1475376649676	1475376649748	BKSP	8
247029	2641463	The exercises will be staged in the West and Mid-Pacific region.	The exercises will be staged in the West and Mid-Pacific region.	125425035	1475376650043	1475376650123	t	84
247029	2641463	The exercises will be staged in the West and Mid-Pacific region.	The exercises will be staged in the West and Mid-Pacific region.	125425036	1475376650156	1475376650299	a	65
247029	2641463	The exercises will be staged in the West and Mid-Pacific region.	The exercises will be staged in the West and Mid-Pacific region.	125425037	1475376650276	1475376650395	g	71
247029	2641463	The exercises will be staged in the West and Mid-Pacific region.	The exercises will be staged in the West and Mid-Pacific region.	125425039	1475376650444	1475376650538	e	69
247029	2641463	The exercises will be staged in the West and Mid-Pacific region.	The exercises will be staged in the West and Mid-Pacific region.	125425041	1475376650660	1475376650771	d	68
247029	2641463	The exercises will be staged in the West and Mid-Pacific region.	The exercises will be staged in the West and Mid-Pacific region.	125425054	1475376650836	1475376651270	 	32
247029	2641463	The exercises will be staged in the West and Mid-Pacific region.	The exercises will be staged in the West and Mid-Pacific region.	125425048	1475376651011	1475376651146	i	73
247029	2641463	The exercises will be staged in the West and Mid-Pacific region.	The exercises will be staged in the West and Mid-Pacific region.	125425051	1475376651110	1475376651204	n	78
247029	2641463	The exercises will be staged in the West and Mid-Pacific region.	The exercises will be staged in the West and Mid-Pacific region.	125425068	1475376651172	1475376651627	 	32
247029	2641463	The exercises will be staged in the West and Mid-Pacific region.	The exercises will be staged in the West and Mid-Pacific region.	125425059	1475376651252	1475376651331	t	84
247029	2641463	The exercises will be staged in the West and Mid-Pacific region.	The exercises will be staged in the West and Mid-Pacific region.	125425061	1475376651348	1475376651451	h	72
247029	2641463	The exercises will be staged in the West and Mid-Pacific region.	The exercises will be staged in the West and Mid-Pacific region.	125425064	1475376651427	1475376651516	e	69
247029	2641463	The exercises will be staged in the West and Mid-Pacific region.	The exercises will be staged in the West and Mid-Pacific region.	125425099	1475376651517	1475376652381	 	32
247029	2641463	The exercises will be staged in the West and Mid-Pacific region.	The exercises will be staged in the West and Mid-Pacific region.	125425073	1475376651628	1475376651763	SHIFT	16
247029	2641463	The exercises will be staged in the West and Mid-Pacific region.	The exercises will be staged in the West and Mid-Pacific region.	125425076	1475376651723	1475376651869	W	87
247029	2641463	The exercises will be staged in the West and Mid-Pacific region.	The exercises will be staged in the West and Mid-Pacific region.	125425090	1475376651854	1475376651996	e	69
247029	2641463	The exercises will be staged in the West and Mid-Pacific region.	The exercises will be staged in the West and Mid-Pacific region.	125425092	1475376651981	1475376652170	s	83
247029	2641463	The exercises will be staged in the West and Mid-Pacific region.	The exercises will be staged in the West and Mid-Pacific region.	125425096	1475376652100	1475376652202	t	84
247029	2641463	The exercises will be staged in the West and Mid-Pacific region.	The exercises will be staged in the West and Mid-Pacific region.	125425139	1475376652267	1475376652812	 	32
247029	2641463	The exercises will be staged in the West and Mid-Pacific region.	The exercises will be staged in the West and Mid-Pacific region.	125425102	1475376652411	1475376652516	a	65
247029	2641463	The exercises will be staged in the West and Mid-Pacific region.	The exercises will be staged in the West and Mid-Pacific region.	125425134	1475376652499	1475376652579	n	78
247029	2641463	The exercises will be staged in the West and Mid-Pacific region.	The exercises will be staged in the West and Mid-Pacific region.	125425151	1475376652675	1475376653803	 	32
247029	2641463	The exercises will be staged in the West and Mid-Pacific region.	The exercises will be staged in the West and Mid-Pacific region.	125425143	1475376652795	1475376652851	d	68
247029	2641463	The exercises will be staged in the West and Mid-Pacific region.	The exercises will be staged in the West and Mid-Pacific region.	125425146	1475376653092	1475376653146	BKSP	8
247029	2641463	The exercises will be staged in the West and Mid-Pacific region.	The exercises will be staged in the West and Mid-Pacific region.	125425148	1475376653364	1475376653458	BKSP	8
247029	2641463	The exercises will be staged in the West and Mid-Pacific region.	The exercises will be staged in the West and Mid-Pacific region.	125425150	1475376653555	1475376653675	d	68
247029	2641463	The exercises will be staged in the West and Mid-Pacific region.	The exercises will be staged in the West and Mid-Pacific region.	125425267	1475376653724	1475376656804	 	32
247029	2641463	The exercises will be staged in the West and Mid-Pacific region.	The exercises will be staged in the West and Mid-Pacific region.	125425156	1475376653788	1475376653923	SHIFT	16
247029	2641463	The exercises will be staged in the West and Mid-Pacific region.	The exercises will be staged in the West and Mid-Pacific region.	125425184	1475376653877	1475376654019	M	77
247029	2641463	The exercises will be staged in the West and Mid-Pacific region.	The exercises will be staged in the West and Mid-Pacific region.	125425185	1475376654019	1475376654132	i	73
247029	2641463	The exercises will be staged in the West and Mid-Pacific region.	The exercises will be staged in the West and Mid-Pacific region.	125425186	1475376654595	1475376654699	d	68
247029	2641463	The exercises will be staged in the West and Mid-Pacific region.	The exercises will be staged in the West and Mid-Pacific region.	125425187	1475376654891	1475376654979	-	189
247029	2641463	The exercises will be staged in the West and Mid-Pacific region.	The exercises will be staged in the West and Mid-Pacific region.	125425189	1475376655197	1475376655363	SHIFT	16
247029	2641463	The exercises will be staged in the West and Mid-Pacific region.	The exercises will be staged in the West and Mid-Pacific region.	125425191	1475376655316	1475376655411	P	80
247029	2641463	The exercises will be staged in the West and Mid-Pacific region.	The exercises will be staged in the West and Mid-Pacific region.	125425193	1475376655491	1475376655614	a	65
247029	2641463	The exercises will be staged in the West and Mid-Pacific region.	The exercises will be staged in the West and Mid-Pacific region.	125425228	1475376655779	1475376655872	c	67
247029	2641463	The exercises will be staged in the West and Mid-Pacific region.	The exercises will be staged in the West and Mid-Pacific region.	125425233	1475376655907	1475376655979	i	73
247029	2641463	The exercises will be staged in the West and Mid-Pacific region.	The exercises will be staged in the West and Mid-Pacific region.	125425236	1475376656124	1475376656235	f	70
247029	2641463	The exercises will be staged in the West and Mid-Pacific region.	The exercises will be staged in the West and Mid-Pacific region.	125425239	1475376656259	1475376656368	i	73
247029	2641463	The exercises will be staged in the West and Mid-Pacific region.	The exercises will be staged in the West and Mid-Pacific region.	125425241	1475376656459	1475376656595	c	67
247029	2641463	The exercises will be staged in the West and Mid-Pacific region.	The exercises will be staged in the West and Mid-Pacific region.	125425268	1475376656804	1475376656899	r	82
247029	2641463	The exercises will be staged in the West and Mid-Pacific region.	The exercises will be staged in the West and Mid-Pacific region.	125425269	1475376656939	1475376656988	e	69
247029	2641463	The exercises will be staged in the West and Mid-Pacific region.	The exercises will be staged in the West and Mid-Pacific region.	125425272	1475376657196	1475376657355	i	73
247029	2641463	The exercises will be staged in the West and Mid-Pacific region.	The exercises will be staged in the West and Mid-Pacific region.	125425275	1475376657411	1475376657547	o	79
247029	2641463	The exercises will be staged in the West and Mid-Pacific region.	The exercises will be staged in the West and Mid-Pacific region.	125425334	1475376657550	1475376657636	n	78
247029	2641463	The exercises will be staged in the West and Mid-Pacific region.	The exercises will be staged in the West and Mid-Pacific region.	125425336	1475376657955	1475376658003	BKSP	8
247029	2641463	The exercises will be staged in the West and Mid-Pacific region.	The exercises will be staged in the West and Mid-Pacific region.	125425337	1475376658076	1475376658163	BKSP	8
247029	2641463	The exercises will be staged in the West and Mid-Pacific region.	The exercises will be staged in the West and Mid-Pacific region.	125425340	1475376658283	1475376658389	g	71
247029	2641463	The exercises will be staged in the West and Mid-Pacific region.	The exercises will be staged in the West and Mid-Pacific region.	125425344	1475376658492	1475376658531	i	73
247029	2641463	The exercises will be staged in the West and Mid-Pacific region.	The exercises will be staged in the West and Mid-Pacific region.	125425349	1475376658716	1475376658773	BKSP	8
247029	2641463	The exercises will be staged in the West and Mid-Pacific region.	The exercises will be staged in the West and Mid-Pacific region.	125425353	1475376658844	1475376658899	BKSP	8
247029	2641463	The exercises will be staged in the West and Mid-Pacific region.	The exercises will be staged in the West and Mid-Pacific region.	125425356	1475376658979	1475376659084	BKSP	8
247029	2641463	The exercises will be staged in the West and Mid-Pacific region.	The exercises will be staged in the West and Mid-Pacific region.	125425358	1475376659235	1475376659315	g	71
247029	2641463	The exercises will be staged in the West and Mid-Pacific region.	The exercises will be staged in the West and Mid-Pacific region.	125425361	1475376659315	1475376659475	i	73
247029	2641463	The exercises will be staged in the West and Mid-Pacific region.	The exercises will be staged in the West and Mid-Pacific region.	125425365	1475376659435	1475376659563	o	79
247029	2641463	The exercises will be staged in the West and Mid-Pacific region.	The exercises will be staged in the West and Mid-Pacific region.	125425366	1475376659523	1475376659619	n	78
247029	2641463	The exercises will be staged in the West and Mid-Pacific region.	The exercises will be staged in the West and Mid-Pacific region.	125425367	1475376659723	1475376659827	.	190
247029	2641479	We need to talk about this month.	We need to talk about this month.	125425430	1475376661994	1475376662116	SHIFT	16
247029	2641479	We need to talk about this month.	We need to talk about this month.	125425431	1475376662099	1475376662242	W	87
247029	2641479	We need to talk about this month.	We need to talk about this month.	125425432	1475376662194	1475376662299	e	69
247029	2641479	We need to talk about this month.	We need to talk about this month.	125425457	1475376662363	1475376663083	 	32
247029	2641479	We need to talk about this month.	We need to talk about this month.	125425434	1475376662494	1475376662579	n	78
247029	2641479	We need to talk about this month.	We need to talk about this month.	125425435	1475376662596	1475376662635	e	69
247029	2641479	We need to talk about this month.	We need to talk about this month.	125425453	1475376662699	1475376662771	e	69
247029	2641479	We need to talk about this month.	We need to talk about this month.	125425455	1475376662884	1475376662991	d	68
247029	2641479	We need to talk about this month.	We need to talk about this month.	125425482	1475376662992	1475376663380	 	32
247029	2641479	We need to talk about this month.	We need to talk about this month.	125425459	1475376663108	1475376663219	t	84
247029	2641479	We need to talk about this month.	We need to talk about this month.	125425478	1475376663195	1475376663298	o	79
247029	2641479	We need to talk about this month.	We need to talk about this month.	125425496	1475376663275	1475376663931	 	32
247029	2641479	We need to talk about this month.	We need to talk about this month.	125425484	1475376663380	1475376663460	t	84
247029	2641479	We need to talk about this month.	We need to talk about this month.	125425486	1475376663460	1475376663612	a	65
247029	2641479	We need to talk about this month.	We need to talk about this month.	125425488	1475376663539	1475376663667	l	76
247029	2641479	We need to talk about this month.	We need to talk about this month.	125425495	1475376663636	1475376663773	k	75
247029	2641479	We need to talk about this month.	We need to talk about this month.	125425519	1475376663803	1475376664580	 	32
247029	2641479	We need to talk about this month.	We need to talk about this month.	125425497	1475376664051	1475376664195	a	65
247029	2641479	We need to talk about this month.	We need to talk about this month.	125425498	1475376664155	1475376664268	b	66
247029	2641479	We need to talk about this month.	We need to talk about this month.	125425500	1475376664228	1475376664355	o	79
247029	2641479	We need to talk about this month.	We need to talk about this month.	125425515	1475376664291	1475376664388	u	85
247029	2641479	We need to talk about this month.	We need to talk about this month.	125425517	1475376664389	1475376664494	t	84
247029	2641479	We need to talk about this month.	We need to talk about this month.	125425542	1475376664495	1475376665008	 	32
247029	2641479	We need to talk about this month.	We need to talk about this month.	125425521	1475376664581	1475376664684	t	84
247029	2641479	We need to talk about this month.	We need to talk about this month.	125425522	1475376664603	1475376664751	h	72
247029	2641479	We need to talk about this month.	We need to talk about this month.	125425538	1475376664684	1475376664803	i	73
247029	2641479	We need to talk about this month.	We need to talk about this month.	125425540	1475376664803	1475376664899	s	83
247029	2641479	We need to talk about this month.	We need to talk about this month.	125425544	1475376665009	1475376665091	m	77
247029	2641479	We need to talk about this month.	We need to talk about this month.	125425546	1475376665059	1475376665179	o	79
247029	2641479	We need to talk about this month.	We need to talk about this month.	125425548	1475376665220	1475376665275	h	78
247029	2641479	We need to talk about this month.	We need to talk about this month.	125425585	1475376665298	1475376665363	t	84
247029	2641479	We need to talk about this month.	We need to talk about this month.	125425587	1475376665659	1475376665891	BKSP	8
247029	2641479	We need to talk about this month.	We need to talk about this month.	125425589	1475376666051	1475376666131	BKSP	8
247029	2641479	We need to talk about this month.	We need to talk about this month.	125425592	1475376666251	1475376666331	t	84
247029	2641479	We need to talk about this month.	We need to talk about this month.	125425595	1475376666331	1475376666411	h	72
247029	2641479	We need to talk about this month.	We need to talk about this month.	125425598	1475376666587	1475376666700	.	190
247029	2641485	Juppe described Emile Jonassaint as a puppet with no legitimacy.	Juppe described Emile Jonassaint as a puppet with no legitimacy.	125425783	1475376674197	1475376674395	SHIFT	16
247029	2641485	Juppe described Emile Jonassaint as a puppet with no legitimacy.	Juppe described Emile Jonassaint as a puppet with no legitimacy.	125425784	1475376674331	1475376674395	J	74
247029	2641485	Juppe described Emile Jonassaint as a puppet with no legitimacy.	Juppe described Emile Jonassaint as a puppet with no legitimacy.	125425785	1475376674507	1475376674607	u	85
247029	2641485	Juppe described Emile Jonassaint as a puppet with no legitimacy.	Juppe described Emile Jonassaint as a puppet with no legitimacy.	125425786	1475376674627	1475376674706	p	80
247029	2641485	Juppe described Emile Jonassaint as a puppet with no legitimacy.	Juppe described Emile Jonassaint as a puppet with no legitimacy.	125425788	1475376674755	1475376674856	p	80
247029	2641485	Juppe described Emile Jonassaint as a puppet with no legitimacy.	Juppe described Emile Jonassaint as a puppet with no legitimacy.	125425790	1475376674894	1475376674996	e	69
247029	2641485	Juppe described Emile Jonassaint as a puppet with no legitimacy.	Juppe described Emile Jonassaint as a puppet with no legitimacy.	125425991	1475376675002	1475376683681	 	32
247029	2641485	Juppe described Emile Jonassaint as a puppet with no legitimacy.	Juppe described Emile Jonassaint as a puppet with no legitimacy.	125425808	1475376675155	1475376675236	d	68
247029	2641485	Juppe described Emile Jonassaint as a puppet with no legitimacy.	Juppe described Emile Jonassaint as a puppet with no legitimacy.	125425809	1475376675352	1475376675410	e	69
247029	2641485	Juppe described Emile Jonassaint as a puppet with no legitimacy.	Juppe described Emile Jonassaint as a puppet with no legitimacy.	125425811	1475376675779	1475376675883	s	83
247029	2641485	Juppe described Emile Jonassaint as a puppet with no legitimacy.	Juppe described Emile Jonassaint as a puppet with no legitimacy.	125425813	1475376675931	1475376676027	c	67
247029	2641485	Juppe described Emile Jonassaint as a puppet with no legitimacy.	Juppe described Emile Jonassaint as a puppet with no legitimacy.	125425839	1475376676133	1475376676202	i	73
247029	2641485	Juppe described Emile Jonassaint as a puppet with no legitimacy.	Juppe described Emile Jonassaint as a puppet with no legitimacy.	125425840	1475376676683	1475376676788	BKSP	8
247029	2641485	Juppe described Emile Jonassaint as a puppet with no legitimacy.	Juppe described Emile Jonassaint as a puppet with no legitimacy.	125425841	1475376676827	1475376676922	r	82
247029	2641485	Juppe described Emile Jonassaint as a puppet with no legitimacy.	Juppe described Emile Jonassaint as a puppet with no legitimacy.	125425843	1475376677002	1475376677083	i	73
247029	2641485	Juppe described Emile Jonassaint as a puppet with no legitimacy.	Juppe described Emile Jonassaint as a puppet with no legitimacy.	125425845	1475376677483	1475376677547	v	86
247029	2641485	Juppe described Emile Jonassaint as a puppet with no legitimacy.	Juppe described Emile Jonassaint as a puppet with no legitimacy.	125425848	1475376677772	1475376677851	e	69
247029	2641485	Juppe described Emile Jonassaint as a puppet with no legitimacy.	Juppe described Emile Jonassaint as a puppet with no legitimacy.	125425976	1475376681947	1475376682026	BKSP	8
247029	2641485	Juppe described Emile Jonassaint as a puppet with no legitimacy.	Juppe described Emile Jonassaint as a puppet with no legitimacy.	125425978	1475376682108	1475376682163	BKSP	8
247029	2641485	Juppe described Emile Jonassaint as a puppet with no legitimacy.	Juppe described Emile Jonassaint as a puppet with no legitimacy.	125425980	1475376682427	1475376682466	BKSP	8
247029	2641485	Juppe described Emile Jonassaint as a puppet with no legitimacy.	Juppe described Emile Jonassaint as a puppet with no legitimacy.	125425982	1475376682927	1475376683011	i	73
247029	2641485	Juppe described Emile Jonassaint as a puppet with no legitimacy.	Juppe described Emile Jonassaint as a puppet with no legitimacy.	125425984	1475376683083	1475376683175	b	66
247029	2641485	Juppe described Emile Jonassaint as a puppet with no legitimacy.	Juppe described Emile Jonassaint as a puppet with no legitimacy.	125425986	1475376683259	1475376683298	e	69
247029	2641485	Juppe described Emile Jonassaint as a puppet with no legitimacy.	Juppe described Emile Jonassaint as a puppet with no legitimacy.	125425988	1475376683395	1475376683490	d	68
247029	2641485	Juppe described Emile Jonassaint as a puppet with no legitimacy.	Juppe described Emile Jonassaint as a puppet with no legitimacy.	125426006	1475376683571	1475376684771	 	32
247029	2641485	Juppe described Emile Jonassaint as a puppet with no legitimacy.	Juppe described Emile Jonassaint as a puppet with no legitimacy.	125425994	1475376683828	1475376683987	SHIFT	16
247029	2641485	Juppe described Emile Jonassaint as a puppet with no legitimacy.	Juppe described Emile Jonassaint as a puppet with no legitimacy.	125425995	1475376683941	1475376684076	E	69
247029	2641485	Juppe described Emile Jonassaint as a puppet with no legitimacy.	Juppe described Emile Jonassaint as a puppet with no legitimacy.	125425996	1475376684077	1475376684186	m	77
247029	2641485	Juppe described Emile Jonassaint as a puppet with no legitimacy.	Juppe described Emile Jonassaint as a puppet with no legitimacy.	125425997	1475376684156	1475376684306	i	73
247029	2641485	Juppe described Emile Jonassaint as a puppet with no legitimacy.	Juppe described Emile Jonassaint as a puppet with no legitimacy.	125425998	1475376684251	1475376684357	l	76
247029	2641485	Juppe described Emile Jonassaint as a puppet with no legitimacy.	Juppe described Emile Jonassaint as a puppet with no legitimacy.	125425999	1475376684403	1475376684507	e	69
247029	2641485	Juppe described Emile Jonassaint as a puppet with no legitimacy.	Juppe described Emile Jonassaint as a puppet with no legitimacy.	125426067	1475376684643	1475376688160	 	32
247029	2641485	Juppe described Emile Jonassaint as a puppet with no legitimacy.	Juppe described Emile Jonassaint as a puppet with no legitimacy.	125426007	1475376684723	1475376684904	SHIFT	16
247029	2641485	Juppe described Emile Jonassaint as a puppet with no legitimacy.	Juppe described Emile Jonassaint as a puppet with no legitimacy.	125426008	1475376684890	1475376684963	J	74
247029	2641485	Juppe described Emile Jonassaint as a puppet with no legitimacy.	Juppe described Emile Jonassaint as a puppet with no legitimacy.	125426009	1475376685291	1475376685388	o	79
247029	2641485	Juppe described Emile Jonassaint as a puppet with no legitimacy.	Juppe described Emile Jonassaint as a puppet with no legitimacy.	125426010	1475376685460	1475376685499	n	78
247029	2641485	Juppe described Emile Jonassaint as a puppet with no legitimacy.	Juppe described Emile Jonassaint as a puppet with no legitimacy.	125426011	1475376685639	1475376685706	a	65
247029	2641485	Juppe described Emile Jonassaint as a puppet with no legitimacy.	Juppe described Emile Jonassaint as a puppet with no legitimacy.	125426038	1475376685827	1475376685899	s	83
247029	2641485	Juppe described Emile Jonassaint as a puppet with no legitimacy.	Juppe described Emile Jonassaint as a puppet with no legitimacy.	125426039	1475376685979	1475376686083	s	83
247029	2641485	Juppe described Emile Jonassaint as a puppet with no legitimacy.	Juppe described Emile Jonassaint as a puppet with no legitimacy.	125426040	1475376686155	1475376686259	i	73
247029	2641485	Juppe described Emile Jonassaint as a puppet with no legitimacy.	Juppe described Emile Jonassaint as a puppet with no legitimacy.	125426041	1475376686389	1475376686507	a	65
247029	2641485	Juppe described Emile Jonassaint as a puppet with no legitimacy.	Juppe described Emile Jonassaint as a puppet with no legitimacy.	125426043	1475376687115	1475376687172	BKSP	8
247029	2641485	Juppe described Emile Jonassaint as a puppet with no legitimacy.	Juppe described Emile Jonassaint as a puppet with no legitimacy.	125426045	1475376687247	1475376687306	BKSP	8
247029	2641485	Juppe described Emile Jonassaint as a puppet with no legitimacy.	Juppe described Emile Jonassaint as a puppet with no legitimacy.	125426047	1475376687348	1475376687466	a	65
247029	2641485	Juppe described Emile Jonassaint as a puppet with no legitimacy.	Juppe described Emile Jonassaint as a puppet with no legitimacy.	125426064	1475376687483	1475376687595	i	73
247029	2641485	Juppe described Emile Jonassaint as a puppet with no legitimacy.	Juppe described Emile Jonassaint as a puppet with no legitimacy.	125426065	1475376687668	1475376687731	t	84
247029	2641485	Juppe described Emile Jonassaint as a puppet with no legitimacy.	Juppe described Emile Jonassaint as a puppet with no legitimacy.	125426066	1475376687731	1475376687811	n	78
247029	2641485	Juppe described Emile Jonassaint as a puppet with no legitimacy.	Juppe described Emile Jonassaint as a puppet with no legitimacy.	125426102	1475376688004	1475376690627	 	32
247029	2641485	Juppe described Emile Jonassaint as a puppet with no legitimacy.	Juppe described Emile Jonassaint as a puppet with no legitimacy.	125426068	1475376688459	1475376688523	a	65
247029	2641485	Juppe described Emile Jonassaint as a puppet with no legitimacy.	Juppe described Emile Jonassaint as a puppet with no legitimacy.	125426096	1475376689227	1475376689282	BKSP	8
247029	2641485	Juppe described Emile Jonassaint as a puppet with no legitimacy.	Juppe described Emile Jonassaint as a puppet with no legitimacy.	125426097	1475376689339	1475376689411	BKSP	8
247029	2641485	Juppe described Emile Jonassaint as a puppet with no legitimacy.	Juppe described Emile Jonassaint as a puppet with no legitimacy.	125426098	1475376689500	1475376689571	BKSP	8
247029	2641485	Juppe described Emile Jonassaint as a puppet with no legitimacy.	Juppe described Emile Jonassaint as a puppet with no legitimacy.	125426099	1475376689875	1475376689947	BKSP	8
247029	2641485	Juppe described Emile Jonassaint as a puppet with no legitimacy.	Juppe described Emile Jonassaint as a puppet with no legitimacy.	125426100	1475376690228	1475376690332	n	78
247029	2641485	Juppe described Emile Jonassaint as a puppet with no legitimacy.	Juppe described Emile Jonassaint as a puppet with no legitimacy.	125426101	1475376690333	1475376690442	t	84
247029	2641485	Juppe described Emile Jonassaint as a puppet with no legitimacy.	Juppe described Emile Jonassaint as a puppet with no legitimacy.	125426113	1475376690516	1475376691291	 	32
247029	2641485	Juppe described Emile Jonassaint as a puppet with no legitimacy.	Juppe described Emile Jonassaint as a puppet with no legitimacy.	125426103	1475376690867	1475376690986	a	65
247029	2641485	Juppe described Emile Jonassaint as a puppet with no legitimacy.	Juppe described Emile Jonassaint as a puppet with no legitimacy.	125426104	1475376691011	1475376691131	s	83
247029	2641485	Juppe described Emile Jonassaint as a puppet with no legitimacy.	Juppe described Emile Jonassaint as a puppet with no legitimacy.	125426117	1475376691179	1475376691506	 	32
247029	2641485	Juppe described Emile Jonassaint as a puppet with no legitimacy.	Juppe described Emile Jonassaint as a puppet with no legitimacy.	125426116	1475376691291	1475376691418	a	65
247029	2641485	Juppe described Emile Jonassaint as a puppet with no legitimacy.	Juppe described Emile Jonassaint as a puppet with no legitimacy.	125426170	1475376691419	1475376693939	 	32
247029	2641485	Juppe described Emile Jonassaint as a puppet with no legitimacy.	Juppe described Emile Jonassaint as a puppet with no legitimacy.	125426120	1475376691579	1475376691739	p	80
247029	2641485	Juppe described Emile Jonassaint as a puppet with no legitimacy.	Juppe described Emile Jonassaint as a puppet with no legitimacy.	125426122	1475376691739	1475376691835	u	85
247029	2641485	Juppe described Emile Jonassaint as a puppet with no legitimacy.	Juppe described Emile Jonassaint as a puppet with no legitimacy.	125426141	1475376692259	1475376692298	t	84
247029	2641485	Juppe described Emile Jonassaint as a puppet with no legitimacy.	Juppe described Emile Jonassaint as a puppet with no legitimacy.	125426142	1475376692388	1475376692458	t	84
247029	2641485	Juppe described Emile Jonassaint as a puppet with no legitimacy.	Juppe described Emile Jonassaint as a puppet with no legitimacy.	125426143	1475376692603	1475376692662	BKSP	8
247029	2641485	Juppe described Emile Jonassaint as a puppet with no legitimacy.	Juppe described Emile Jonassaint as a puppet with no legitimacy.	125426145	1475376692731	1475376692803	BKSP	8
247029	2641485	Juppe described Emile Jonassaint as a puppet with no legitimacy.	Juppe described Emile Jonassaint as a puppet with no legitimacy.	125426147	1475376692936	1475376692997	p	80
247029	2641485	Juppe described Emile Jonassaint as a puppet with no legitimacy.	Juppe described Emile Jonassaint as a puppet with no legitimacy.	125426151	1475376693035	1475376693152	p	80
247029	2641485	Juppe described Emile Jonassaint as a puppet with no legitimacy.	Juppe described Emile Jonassaint as a puppet with no legitimacy.	125426154	1475376693619	1475376693739	e	69
247029	2641485	Juppe described Emile Jonassaint as a puppet with no legitimacy.	Juppe described Emile Jonassaint as a puppet with no legitimacy.	125426169	1475376693740	1475376693827	t	84
247029	2641485	Juppe described Emile Jonassaint as a puppet with no legitimacy.	Juppe described Emile Jonassaint as a puppet with no legitimacy.	125426208	1475376693859	1475376695595	 	32
247029	2641485	Juppe described Emile Jonassaint as a puppet with no legitimacy.	Juppe described Emile Jonassaint as a puppet with no legitimacy.	125426171	1475376694011	1475376694107	w	87
247029	2641485	Juppe described Emile Jonassaint as a puppet with no legitimacy.	Juppe described Emile Jonassaint as a puppet with no legitimacy.	125426172	1475376694084	1475376694213	i	73
247029	2641485	Juppe described Emile Jonassaint as a puppet with no legitimacy.	Juppe described Emile Jonassaint as a puppet with no legitimacy.	125426173	1475376694747	1475376694827	t	84
247029	2641485	Juppe described Emile Jonassaint as a puppet with no legitimacy.	Juppe described Emile Jonassaint as a puppet with no legitimacy.	125426207	1475376694852	1475376694964	h	72
247029	2641485	Juppe described Emile Jonassaint as a puppet with no legitimacy.	Juppe described Emile Jonassaint as a puppet with no legitimacy.	125426234	1475376695491	1475376696588	 	32
247029	2641485	Juppe described Emile Jonassaint as a puppet with no legitimacy.	Juppe described Emile Jonassaint as a puppet with no legitimacy.	125426209	1475376696291	1475376696406	n	78
247029	2641485	Juppe described Emile Jonassaint as a puppet with no legitimacy.	Juppe described Emile Jonassaint as a puppet with no legitimacy.	125426210	1475376696379	1475376696506	o	79
247029	2641485	Juppe described Emile Jonassaint as a puppet with no legitimacy.	Juppe described Emile Jonassaint as a puppet with no legitimacy.	125426235	1475376696636	1475376696739	l	76
247029	2641485	Juppe described Emile Jonassaint as a puppet with no legitimacy.	Juppe described Emile Jonassaint as a puppet with no legitimacy.	125426236	1475376696739	1475376696811	e	69
247029	2641485	Juppe described Emile Jonassaint as a puppet with no legitimacy.	Juppe described Emile Jonassaint as a puppet with no legitimacy.	125426237	1475376696900	1475376696987	g	71
247029	2641485	Juppe described Emile Jonassaint as a puppet with no legitimacy.	Juppe described Emile Jonassaint as a puppet with no legitimacy.	125426238	1475376697027	1475376697082	i	73
247029	2641485	Juppe described Emile Jonassaint as a puppet with no legitimacy.	Juppe described Emile Jonassaint as a puppet with no legitimacy.	125426240	1475376697291	1475376697379	t	84
247029	2641485	Juppe described Emile Jonassaint as a puppet with no legitimacy.	Juppe described Emile Jonassaint as a puppet with no legitimacy.	125426266	1475376697515	1475376697603	i	73
247029	2641485	Juppe described Emile Jonassaint as a puppet with no legitimacy.	Juppe described Emile Jonassaint as a puppet with no legitimacy.	125426270	1475376697963	1475376698002	m	77
247029	2641485	Juppe described Emile Jonassaint as a puppet with no legitimacy.	Juppe described Emile Jonassaint as a puppet with no legitimacy.	125426273	1475376698267	1475376698371	a	65
247029	2641485	Juppe described Emile Jonassaint as a puppet with no legitimacy.	Juppe described Emile Jonassaint as a puppet with no legitimacy.	125426276	1475376698396	1475376698475	n	78
247029	2641485	Juppe described Emile Jonassaint as a puppet with no legitimacy.	Juppe described Emile Jonassaint as a puppet with no legitimacy.	125426278	1475376698612	1475376698688	y	89
247029	2641485	Juppe described Emile Jonassaint as a puppet with no legitimacy.	Juppe described Emile Jonassaint as a puppet with no legitimacy.	125426293	1475376699002	1475376699067	BKSP	8
247029	2641485	Juppe described Emile Jonassaint as a puppet with no legitimacy.	Juppe described Emile Jonassaint as a puppet with no legitimacy.	125426295	1475376699132	1475376699210	BKSP	8
247029	2641485	Juppe described Emile Jonassaint as a puppet with no legitimacy.	Juppe described Emile Jonassaint as a puppet with no legitimacy.	125426299	1475376699275	1475376699380	c	67
247029	2641485	Juppe described Emile Jonassaint as a puppet with no legitimacy.	Juppe described Emile Jonassaint as a puppet with no legitimacy.	125426304	1475376699380	1475376699458	y	89
247029	2641485	Juppe described Emile Jonassaint as a puppet with no legitimacy.	Juppe described Emile Jonassaint as a puppet with no legitimacy.	125426307	1475376699604	1475376699714	.	190
247029	2641499	You can talk to Becky!	You can talk to Becky!	125426408	1475376702531	1475376703803	SHIFT	16
247029	2641499	You can talk to Becky!	You can talk to Becky!	125426411	1475376703739	1475376703803	Y	89
247029	2641499	You can talk to Becky!	You can talk to Becky!	125426413	1475376703835	1475376704006	o	79
247029	2641499	You can talk to Becky!	You can talk to Becky!	125426416	1475376703907	1475376704006	u	85
247029	2641499	You can talk to Becky!	You can talk to Becky!	125426446	1475376704006	1475376704123	 	67
247029	2641499	You can talk to Becky!	You can talk to Becky!	125426447	1475376704099	1475376704232	a	65
247029	2641499	You can talk to Becky!	You can talk to Becky!	125426448	1475376704179	1475376704298	n	78
247029	2641499	You can talk to Becky!	You can talk to Becky!	125426449	1475376704275	1475376704387	 	32
247029	2641499	You can talk to Becky!	You can talk to Becky!	125426450	1475376704411	1475376704508	t	84
247029	2641499	You can talk to Becky!	You can talk to Becky!	125426451	1475376704700	1475376704756	BKSP	8
247029	2641499	You can talk to Becky!	You can talk to Becky!	125426452	1475376704844	1475376704891	BKSP	8
247029	2641499	You can talk to Becky!	You can talk to Becky!	125426454	1475376704923	1475376705000	BKSP	8
247029	2641499	You can talk to Becky!	You can talk to Becky!	125426456	1475376705075	1475376705147	BKSP	8
247029	2641499	You can talk to Becky!	You can talk to Becky!	125426458	1475376705356	1475376705445	BKSP	8
247029	2641499	You can talk to Becky!	You can talk to Becky!	125426460	1475376705595	1475376705675	BKSP	8
247029	2641499	You can talk to Becky!	You can talk to Becky!	125426462	1475376705939	1475376706058	 	32
247029	2641499	You can talk to Becky!	You can talk to Becky!	125426463	1475376706075	1475376706187	c	67
247029	2641499	You can talk to Becky!	You can talk to Becky!	125426464	1475376706163	1475376706291	a	65
247029	2641499	You can talk to Becky!	You can talk to Becky!	125426465	1475376706236	1475376706355	n	78
247029	2641499	You can talk to Becky!	You can talk to Becky!	125426466	1475376706331	1475376706443	 	32
247029	2641499	You can talk to Becky!	You can talk to Becky!	125426467	1475376706481	1475376706572	t	84
247029	2641499	You can talk to Becky!	You can talk to Becky!	125426473	1475376706578	1475376706691	a	65
247029	2641499	You can talk to Becky!	You can talk to Becky!	125426474	1475376706668	1475376706794	l	76
247029	2641499	You can talk to Becky!	You can talk to Becky!	125426475	1475376706739	1475376706858	k	75
247029	2641499	You can talk to Becky!	You can talk to Becky!	125426477	1475376706827	1475376706984	 	32
247029	2641499	You can talk to Becky!	You can talk to Becky!	125426478	1475376707043	1475376707131	t	84
247029	2641499	You can talk to Becky!	You can talk to Becky!	125426490	1475376707099	1475376707243	o	79
247029	2641499	You can talk to Becky!	You can talk to Becky!	125426492	1475376707179	1475376707314	 	32
247029	2641499	You can talk to Becky!	You can talk to Becky!	125426496	1475376707283	1475376707471	SHIFT	16
247029	2641499	You can talk to Becky!	You can talk to Becky!	125426498	1475376707404	1475376707514	B	66
247029	2641499	You can talk to Becky!	You can talk to Becky!	125426500	1475376707579	1475376707726	e	69
247029	2641499	You can talk to Becky!	You can talk to Becky!	125426501	1475376707667	1475376707779	c	67
247029	2641499	You can talk to Becky!	You can talk to Becky!	125426502	1475376707779	1475376707875	k	75
247029	2641499	You can talk to Becky!	You can talk to Becky!	125426506	1475376707987	1475376708082	y	89
247029	2641499	You can talk to Becky!	You can talk to Becky!	125426508	1475376708243	1475376708451	SHIFT	16
247029	2641499	You can talk to Becky!	You can talk to Becky!	125426510	1475376708355	1475376708487	!	49
247029	2641504	Please coordinate with him.	Please coordinate with him.	125426579	1475376710724	1475376711427	SHIFT	16
247029	2641504	Please coordinate with him.	Please coordinate with him.	125426582	1475376711387	1475376711443	P	80
247029	2641504	Please coordinate with him.	Please coordinate with him.	125426586	1475376711612	1475376711777	a	65
247029	2641504	Please coordinate with him.	Please coordinate with him.	125426589	1475376712256	1475376712331	BKSP	8
247029	2641504	Please coordinate with him.	Please coordinate with him.	125426594	1475376712471	1475376712562	l	76
247029	2641504	Please coordinate with him.	Please coordinate with him.	125426597	1475376712531	1475376712603	e	69
247029	2641504	Please coordinate with him.	Please coordinate with him.	125426601	1475376712635	1475376712778	a	65
247029	2641504	Please coordinate with him.	Please coordinate with him.	125426618	1475376712764	1475376712939	s	83
247029	2641504	Please coordinate with him.	Please coordinate with him.	125426620	1475376713059	1475376713147	e	69
247029	2641504	Please coordinate with him.	Please coordinate with him.	125426621	1475376713251	1475376713378	 	32
247029	2641504	Please coordinate with him.	Please coordinate with him.	125426623	1475376713481	1475376713563	c	67
247029	2641504	Please coordinate with him.	Please coordinate with him.	125426624	1475376713563	1475376713610	o	79
247029	2641504	Please coordinate with him.	Please coordinate with him.	125426625	1475376713734	1475376713763	o	79
247029	2641504	Please coordinate with him.	Please coordinate with him.	125426647	1475376713811	1475376713899	r	82
247029	2641504	Please coordinate with him.	Please coordinate with him.	125426648	1475376714043	1475376714155	d	68
247029	2641504	Please coordinate with him.	Please coordinate with him.	125426650	1475376714811	1475376714979	i	73
247029	2641504	Please coordinate with him.	Please coordinate with him.	125426652	1475376714900	1475376715039	n	78
247029	2641504	Please coordinate with him.	Please coordinate with him.	125426654	1475376715040	1475376715147	a	65
247029	2641504	Please coordinate with him.	Please coordinate with him.	125426674	1475376715131	1475376715237	t	84
247029	2641504	Please coordinate with him.	Please coordinate with him.	125426676	1475376715237	1475376715322	e	69
247029	2641504	Please coordinate with him.	Please coordinate with him.	125426678	1475376715348	1475376715466	 	32
247029	2641504	Please coordinate with him.	Please coordinate with him.	125426680	1475376715502	1475376715603	w	87
247029	2641504	Please coordinate with him.	Please coordinate with him.	125426682	1475376715554	1475376715643	i	73
247029	2641504	Please coordinate with him.	Please coordinate with him.	125426683	1475376715674	1475376715765	t	84
247029	2641504	Please coordinate with him.	Please coordinate with him.	125426692	1475376715766	1475376715834	h	72
247029	2641504	Please coordinate with him.	Please coordinate with him.	125426694	1475376715794	1475376715940	 	32
247029	2641504	Please coordinate with him.	Please coordinate with him.	125426696	1475376715924	1475376716029	h	72
247029	2641504	Please coordinate with him.	Please coordinate with him.	125426697	1475376715987	1475376716115	i	73
247029	2641504	Please coordinate with him.	Please coordinate with him.	125426698	1475376716171	1475376716274	m	77
247029	2641504	Please coordinate with him.	Please coordinate with him.	125426702	1475376716299	1475376716411	.	190
247029	2641505	Count me out for this round.	Count me out for this round.	125426784	1475376719435	1475376719627	SHIFT	16
247029	2641505	Count me out for this round.	Count me out for this round.	125426785	1475376719579	1475376719726	C	67
247029	2641505	Count me out for this round.	Count me out for this round.	125426786	1475376719651	1475376719778	o	79
247029	2641505	Count me out for this round.	Count me out for this round.	125426787	1475376719759	1475376719794	u	85
247029	2641505	Count me out for this round.	Count me out for this round.	125426788	1475376719916	1475376720001	n	78
247029	2641505	Count me out for this round.	Count me out for this round.	125426789	1475376720001	1475376720058	t	84
247029	2641505	Count me out for this round.	Count me out for this round.	125426801	1475376720124	1475376720230	 	32
247029	2641505	Count me out for this round.	Count me out for this round.	125426802	1475376720243	1475376720349	m	77
247029	2641505	Count me out for this round.	Count me out for this round.	125426803	1475376720331	1475376720436	e	69
247029	2641505	Count me out for this round.	Count me out for this round.	125426805	1475376720437	1475376720538	 	32
247029	2641505	Count me out for this round.	Count me out for this round.	125426808	1475376720564	1475376720683	o	79
247029	2641505	Count me out for this round.	Count me out for this round.	125426828	1475376720620	1475376720716	u	85
247029	2641505	Count me out for this round.	Count me out for this round.	125426830	1475376720717	1475376720771	t	84
247029	2641505	Count me out for this round.	Count me out for this round.	125426833	1475376720819	1475376720922	 	32
247029	2641505	Count me out for this round.	Count me out for this round.	125426836	1475376721014	1475376721099	f	70
247029	2641505	Count me out for this round.	Count me out for this round.	125426839	1475376721100	1475376721155	o	79
247029	2641505	Count me out for this round.	Count me out for this round.	125426843	1475376721204	1475376721279	r	82
247029	2641505	Count me out for this round.	Count me out for this round.	125426849	1475376721246	1475376721322	 	32
247029	2641505	Count me out for this round.	Count me out for this round.	125426850	1475376721355	1475376721444	t	84
247029	2641505	Count me out for this round.	Count me out for this round.	125426851	1475376721445	1475376721523	h	72
247029	2641505	Count me out for this round.	Count me out for this round.	125426852	1475376721476	1475376721586	i	73
247029	2641505	Count me out for this round.	Count me out for this round.	125426854	1475376721549	1475376721636	s	83
247029	2641505	Count me out for this round.	Count me out for this round.	125426856	1475376721637	1475376721741	 	32
247029	2641505	Count me out for this round.	Count me out for this round.	125426866	1475376721731	1475376721819	r	82
247029	2641505	Count me out for this round.	Count me out for this round.	125426868	1475376721819	1475376721948	o	79
247029	2641505	Count me out for this round.	Count me out for this round.	125426870	1475376721867	1475376721949	u	85
247029	2641505	Count me out for this round.	Count me out for this round.	125426872	1475376722051	1475376722139	n	78
247029	2641505	Count me out for this round.	Count me out for this round.	125426874	1475376722115	1475376722269	d	68
247029	2641505	Count me out for this round.	Count me out for this round.	125426876	1475376722270	1475376722330	.	190
247029	2641510	His party also has its sights on the posts of justice minister.	his party also has its sights on the posts of justice minister.	125426995	1475376729099	1475376729228	SHIFT	16
247029	2641510	His party also has its sights on the posts of justice minister.	his party also has its sights on the posts of justice minister.	125426997	1475376729229	1475376729314	h	72
247029	2641510	His party also has its sights on the posts of justice minister.	his party also has its sights on the posts of justice minister.	125427000	1475376729288	1475376729372	i	73
247029	2641510	His party also has its sights on the posts of justice minister.	his party also has its sights on the posts of justice minister.	125427003	1475376729373	1475376729444	s	83
247029	2641510	His party also has its sights on the posts of justice minister.	his party also has its sights on the posts of justice minister.	125427005	1475376729445	1475376729525	 	32
247029	2641510	His party also has its sights on the posts of justice minister.	his party also has its sights on the posts of justice minister.	125427007	1475376729550	1475376729635	p	80
247029	2641510	His party also has its sights on the posts of justice minister.	his party also has its sights on the posts of justice minister.	125427022	1475376729603	1475376729731	a	65
247029	2641510	His party also has its sights on the posts of justice minister.	his party also has its sights on the posts of justice minister.	125427023	1475376729700	1475376729794	r	82
247029	2641510	His party also has its sights on the posts of justice minister.	his party also has its sights on the posts of justice minister.	125427024	1475376729875	1475376729939	t	84
247029	2641510	His party also has its sights on the posts of justice minister.	his party also has its sights on the posts of justice minister.	125427025	1475376730043	1475376730298	y	89
247029	2641510	His party also has its sights on the posts of justice minister.	his party also has its sights on the posts of justice minister.	125427026	1475376730123	1475376730300	 	32
247029	2641510	His party also has its sights on the posts of justice minister.	his party also has its sights on the posts of justice minister.	125427027	1475376730300	1475376730412	a	65
247029	2641510	His party also has its sights on the posts of justice minister.	his party also has its sights on the posts of justice minister.	125427042	1475376730415	1475376730499	l	76
247029	2641510	His party also has its sights on the posts of justice minister.	his party also has its sights on the posts of justice minister.	125427044	1475376730547	1475376730652	s	83
247029	2641510	His party also has its sights on the posts of justice minister.	his party also has its sights on the posts of justice minister.	125427046	1475376730653	1475376730756	o	79
247029	2641510	His party also has its sights on the posts of justice minister.	his party also has its sights on the posts of justice minister.	125427048	1475376730795	1475376730907	 	32
247029	2641510	His party also has its sights on the posts of justice minister.	his party also has its sights on the posts of justice minister.	125427050	1475376731227	1475376731331	h	72
247029	2641510	His party also has its sights on the posts of justice minister.	his party also has its sights on the posts of justice minister.	125427053	1475376731332	1475376731427	a	65
247029	2641510	His party also has its sights on the posts of justice minister.	his party also has its sights on the posts of justice minister.	125427054	1475376731388	1475376731543	s	83
247029	2641510	His party also has its sights on the posts of justice minister.	his party also has its sights on the posts of justice minister.	125427055	1475376731540	1475376731602	 	32
247029	2641510	His party also has its sights on the posts of justice minister.	his party also has its sights on the posts of justice minister.	125427056	1475376731691	1475376731801	i	73
247029	2641510	His party also has its sights on the posts of justice minister.	his party also has its sights on the posts of justice minister.	125427057	1475376731801	1475376731858	t	84
247029	2641510	His party also has its sights on the posts of justice minister.	his party also has its sights on the posts of justice minister.	125427065	1475376731899	1475376732007	s	83
247029	2641510	His party also has its sights on the posts of justice minister.	his party also has its sights on the posts of justice minister.	125427068	1475376731988	1475376732090	 	32
247029	2641510	His party also has its sights on the posts of justice minister.	his party also has its sights on the posts of justice minister.	125427070	1475376732115	1475376732212	s	83
247029	2641510	His party also has its sights on the posts of justice minister.	his party also has its sights on the posts of justice minister.	125427072	1475376732213	1475376732322	i	73
247029	2641510	His party also has its sights on the posts of justice minister.	his party also has its sights on the posts of justice minister.	125427075	1475376732323	1475376732429	g	71
247029	2641510	His party also has its sights on the posts of justice minister.	his party also has its sights on the posts of justice minister.	125427082	1475376732411	1475376732507	h	72
247029	2641510	His party also has its sights on the posts of justice minister.	his party also has its sights on the posts of justice minister.	125427084	1475376732546	1475376732610	t	84
247029	2641510	His party also has its sights on the posts of justice minister.	his party also has its sights on the posts of justice minister.	125427086	1475376732692	1475376732812	s	83
247029	2641510	His party also has its sights on the posts of justice minister.	his party also has its sights on the posts of justice minister.	125427089	1475376732875	1475376732995	 	32
247029	2641510	His party also has its sights on the posts of justice minister.	his party also has its sights on the posts of justice minister.	125427092	1475376733059	1475376733219	o	79
247029	2641510	His party also has its sights on the posts of justice minister.	his party also has its sights on the posts of justice minister.	125427105	1475376733164	1475376733259	n	78
247029	2641510	His party also has its sights on the posts of justice minister.	his party also has its sights on the posts of justice minister.	125427108	1475376733259	1475376733331	 	32
247029	2641510	His party also has its sights on the posts of justice minister.	his party also has its sights on the posts of justice minister.	125427109	1475376733331	1475376733428	t	84
247029	2641510	His party also has its sights on the posts of justice minister.	his party also has its sights on the posts of justice minister.	125427110	1475376733429	1475376733508	h	72
247029	2641510	His party also has its sights on the posts of justice minister.	his party also has its sights on the posts of justice minister.	125427111	1475376733509	1475376733600	e	69
247029	2641510	His party also has its sights on the posts of justice minister.	his party also has its sights on the posts of justice minister.	125427112	1475376733601	1475376733675	 	32
247029	2641510	His party also has its sights on the posts of justice minister.	his party also has its sights on the posts of justice minister.	125427130	1475376733691	1475376733787	p	80
247029	2641510	His party also has its sights on the posts of justice minister.	his party also has its sights on the posts of justice minister.	125427132	1475376733915	1475376734020	o	79
247029	2641510	His party also has its sights on the posts of justice minister.	his party also has its sights on the posts of justice minister.	125427134	1475376734020	1475376734147	s	83
247029	2641510	His party also has its sights on the posts of justice minister.	his party also has its sights on the posts of justice minister.	125427137	1475376734099	1475376734203	t	84
247029	2641510	His party also has its sights on the posts of justice minister.	his party also has its sights on the posts of justice minister.	125427139	1475376734331	1475376734378	s	83
247029	2641510	His party also has its sights on the posts of justice minister.	his party also has its sights on the posts of justice minister.	125427174	1475376734849	1475376734939	 	32
247029	2641510	His party also has its sights on the posts of justice minister.	his party also has its sights on the posts of justice minister.	125427175	1475376735036	1475376735149	o	79
247029	2641510	His party also has its sights on the posts of justice minister.	his party also has its sights on the posts of justice minister.	125427176	1475376735145	1475376735195	f	70
247029	2641510	His party also has its sights on the posts of justice minister.	his party also has its sights on the posts of justice minister.	125427178	1475376735211	1475376735322	 	32
247029	2641510	His party also has its sights on the posts of justice minister.	his party also has its sights on the posts of justice minister.	125427180	1475376735387	1475376735475	j	74
247029	2641510	His party also has its sights on the posts of justice minister.	his party also has its sights on the posts of justice minister.	125427199	1475376735540	1475376735650	u	85
247029	2641510	His party also has its sights on the posts of justice minister.	his party also has its sights on the posts of justice minister.	125427202	1475376735691	1475376735780	i	73
247029	2641510	His party also has its sights on the posts of justice minister.	his party also has its sights on the posts of justice minister.	125427205	1475376735781	1475376735874	c	67
247029	2641510	His party also has its sights on the posts of justice minister.	his party also has its sights on the posts of justice minister.	125427208	1475376736251	1475376736290	BKSP	8
247029	2641510	His party also has its sights on the posts of justice minister.	his party also has its sights on the posts of justice minister.	125427210	1475376736362	1475376736418	BKSP	8
247029	2641510	His party also has its sights on the posts of justice minister.	his party also has its sights on the posts of justice minister.	125427214	1475376736564	1475376736658	s	83
247029	2641510	His party also has its sights on the posts of justice minister.	his party also has its sights on the posts of justice minister.	125427215	1475376736732	1475376736787	i	73
247029	2641510	His party also has its sights on the posts of justice minister.	his party also has its sights on the posts of justice minister.	125427252	1475376736963	1475376737011	BKSP	8
247029	2641510	His party also has its sights on the posts of justice minister.	his party also has its sights on the posts of justice minister.	125427253	1475376737427	1475376737483	t	84
247029	2641510	His party also has its sights on the posts of justice minister.	his party also has its sights on the posts of justice minister.	125427254	1475376737508	1475376737616	i	73
247029	2641510	His party also has its sights on the posts of justice minister.	his party also has its sights on the posts of justice minister.	125427255	1475376737652	1475376737771	c	67
247029	2641510	His party also has its sights on the posts of justice minister.	his party also has its sights on the posts of justice minister.	125427256	1475376737779	1475376737875	e	69
247029	2641510	His party also has its sights on the posts of justice minister.	his party also has its sights on the posts of justice minister.	125427257	1475376738123	1475376738235	 	32
247029	2641510	His party also has its sights on the posts of justice minister.	his party also has its sights on the posts of justice minister.	125427316	1475376738564	1475376738603	BKSP	8
247029	2641510	His party also has its sights on the posts of justice minister.	his party also has its sights on the posts of justice minister.	125427317	1475376738667	1475376738755	BKSP	8
247029	2641510	His party also has its sights on the posts of justice minister.	his party also has its sights on the posts of justice minister.	125427318	1475376738923	1475376739036	 	32
247029	2641510	His party also has its sights on the posts of justice minister.	his party also has its sights on the posts of justice minister.	125427319	1475376739475	1475376739547	BKSP	8
247029	2641510	His party also has its sights on the posts of justice minister.	his party also has its sights on the posts of justice minister.	125427320	1475376739643	1475376739731	e	69
247029	2641510	His party also has its sights on the posts of justice minister.	his party also has its sights on the posts of justice minister.	125427323	1475376739900	1475376740035	 	32
247029	2641510	His party also has its sights on the posts of justice minister.	his party also has its sights on the posts of justice minister.	125427325	1475376740171	1475376740218	m	77
247029	2641510	His party also has its sights on the posts of justice minister.	his party also has its sights on the posts of justice minister.	125427328	1475376740275	1475376740426	i	73
247029	2641510	His party also has its sights on the posts of justice minister.	his party also has its sights on the posts of justice minister.	125427345	1475376740396	1475376740491	n	78
247029	2641510	His party also has its sights on the posts of justice minister.	his party also has its sights on the posts of justice minister.	125427348	1475376740524	1475376740616	i	73
247029	2641510	His party also has its sights on the posts of justice minister.	his party also has its sights on the posts of justice minister.	125427352	1475376740780	1475376740946	s	83
247029	2641510	His party also has its sights on the posts of justice minister.	his party also has its sights on the posts of justice minister.	125427356	1475376740894	1475376741004	t	84
247029	2641510	His party also has its sights on the posts of justice minister.	his party also has its sights on the posts of justice minister.	125427359	1475376741027	1475376741179	e	69
247029	2641510	His party also has its sights on the posts of justice minister.	his party also has its sights on the posts of justice minister.	125427361	1475376741151	1475376741234	r	82
247029	2641510	His party also has its sights on the posts of justice minister.	his party also has its sights on the posts of justice minister.	125427362	1475376741332	1475376741436	.	190
247029	2641521	Steve Gilbert is working on this.	Steve Gilbert is working on this.	125427487	1475376746060	1475376746193	SHIFT	16
247029	2641521	Steve Gilbert is working on this.	Steve Gilbert is working on this.	125427488	1475376746178	1475376746340	S	83
247029	2641521	Steve Gilbert is working on this.	Steve Gilbert is working on this.	125427489	1475376746323	1475376746437	t	84
247029	2641521	Steve Gilbert is working on this.	Steve Gilbert is working on this.	125427491	1475376746432	1475376746618	e	69
247029	2641521	Steve Gilbert is working on this.	Steve Gilbert is working on this.	125427493	1475376746682	1475376746755	v	86
247029	2641521	Steve Gilbert is working on this.	Steve Gilbert is working on this.	125427495	1475376746755	1475376746883	e	69
247029	2641521	Steve Gilbert is working on this.	Steve Gilbert is working on this.	125427523	1475376746931	1475376747050	 	32
247029	2641521	Steve Gilbert is working on this.	Steve Gilbert is working on this.	125427525	1475376747091	1475376747298	SHIFT	16
247029	2641521	Steve Gilbert is working on this.	Steve Gilbert is working on this.	125427527	1475376747210	1475376747347	G	71
247029	2641521	Steve Gilbert is working on this.	Steve Gilbert is working on this.	125427529	1475376747395	1475376747514	i	73
247029	2641521	Steve Gilbert is working on this.	Steve Gilbert is working on this.	125427531	1475376747556	1475376747678	l	76
247029	2641521	Steve Gilbert is working on this.	Steve Gilbert is working on this.	125427533	1475376747715	1475376747851	v	86
247029	2641521	Steve Gilbert is working on this.	Steve Gilbert is working on this.	125427566	1475376747956	1475376748067	e	69
247029	2641521	Steve Gilbert is working on this.	Steve Gilbert is working on this.	125427568	1475376748019	1475376748123	r	82
247029	2641521	Steve Gilbert is working on this.	Steve Gilbert is working on this.	125427570	1475376748315	1475376748371	BKSP	8
247029	2641521	Steve Gilbert is working on this.	Steve Gilbert is working on this.	125427573	1475376748450	1475376748506	BKSP	8
247029	2641521	Steve Gilbert is working on this.	Steve Gilbert is working on this.	125427578	1475376748587	1475376748612	BKSP	8
247029	2641521	Steve Gilbert is working on this.	Steve Gilbert is working on this.	125427583	1475376748844	1475376748940	b	66
247029	2641521	Steve Gilbert is working on this.	Steve Gilbert is working on this.	125427587	1475376749003	1475376749123	e	69
247029	2641521	Steve Gilbert is working on this.	Steve Gilbert is working on this.	125427607	1475376749083	1475376749195	r	82
247029	2641521	Steve Gilbert is working on this.	Steve Gilbert is working on this.	125427610	1475376749221	1475376749323	y	89
247029	2641521	Steve Gilbert is working on this.	Steve Gilbert is working on this.	125427612	1475376749430	1475376749539	 	32
247029	2641521	Steve Gilbert is working on this.	Steve Gilbert is working on this.	125427615	1475376749755	1475376749803	BKSP	8
247029	2641521	Steve Gilbert is working on this.	Steve Gilbert is working on this.	125427617	1475376749875	1475376749928	BKSP	8
247029	2641521	Steve Gilbert is working on this.	Steve Gilbert is working on this.	125427620	1475376749987	1475376750084	t	84
247029	2641521	Steve Gilbert is working on this.	Steve Gilbert is working on this.	125427621	1475376750067	1475376750177	 	32
247029	2641521	Steve Gilbert is working on this.	Steve Gilbert is working on this.	125427625	1475376750222	1475376750307	i	73
247029	2641521	Steve Gilbert is working on this.	Steve Gilbert is working on this.	125427636	1475376750323	1475376750396	s	83
247029	2641521	Steve Gilbert is working on this.	Steve Gilbert is working on this.	125427639	1475376750397	1475376750476	 	32
247029	2641521	Steve Gilbert is working on this.	Steve Gilbert is working on this.	125427642	1475376750515	1475376750619	w	87
247029	2641521	Steve Gilbert is working on this.	Steve Gilbert is working on this.	125427645	1475376750587	1475376750680	o	79
247029	2641521	Steve Gilbert is working on this.	Steve Gilbert is working on this.	125427648	1475376750739	1475376750829	k	75
247029	2641521	Steve Gilbert is working on this.	Steve Gilbert is working on this.	125427693	1475376750778	1475376750843	r	82
247029	2641521	Steve Gilbert is working on this.	Steve Gilbert is working on this.	125427695	1475376750973	1475376751147	i	73
247029	2641521	Steve Gilbert is working on this.	Steve Gilbert is working on this.	125427698	1475376751076	1475376751181	n	78
247029	2641521	Steve Gilbert is working on this.	Steve Gilbert is working on this.	125427700	1475376751419	1475376751459	BKSP	8
247029	2641521	Steve Gilbert is working on this.	Steve Gilbert is working on this.	125427702	1475376751539	1475376751586	BKSP	8
247029	2641521	Steve Gilbert is working on this.	Steve Gilbert is working on this.	125427704	1475376751666	1475376751723	BKSP	8
247029	2641521	Steve Gilbert is working on this.	Steve Gilbert is working on this.	125427705	1475376751796	1475376751875	BKSP	8
247029	2641521	Steve Gilbert is working on this.	Steve Gilbert is working on this.	125427707	1475376752084	1475376752163	r	82
247029	2641521	Steve Gilbert is working on this.	Steve Gilbert is working on this.	125427709	1475376752123	1475376752226	k	75
247029	2641521	Steve Gilbert is working on this.	Steve Gilbert is working on this.	125427711	1475376752299	1475376752419	i	73
247029	2641521	Steve Gilbert is working on this.	Steve Gilbert is working on this.	125427728	1475376752380	1475376752470	n	78
247029	2641521	Steve Gilbert is working on this.	Steve Gilbert is working on this.	125427730	1475376752435	1475376752508	g	71
247029	2641521	Steve Gilbert is working on this.	Steve Gilbert is working on this.	125427733	1475376752547	1475376752651	 	32
247029	2641521	Steve Gilbert is working on this.	Steve Gilbert is working on this.	125427736	1475376752667	1475376752852	o	79
247029	2641521	Steve Gilbert is working on this.	Steve Gilbert is working on this.	125427739	1475376752771	1475376752853	n	78
247029	2641521	Steve Gilbert is working on this.	Steve Gilbert is working on this.	125427741	1475376752853	1475376752939	 	32
247029	2641521	Steve Gilbert is working on this.	Steve Gilbert is working on this.	125427744	1475376752976	1475376753043	t	84
247029	2641521	Steve Gilbert is working on this.	Steve Gilbert is working on this.	125427746	1475376753043	1475376753163	h	72
247029	2641521	Steve Gilbert is working on this.	Steve Gilbert is working on this.	125427750	1475376753107	1475376753204	i	73
247029	2641521	Steve Gilbert is working on this.	Steve Gilbert is working on this.	125427753	1475376753204	1475376753266	s	83
247029	2641521	Steve Gilbert is working on this.	Steve Gilbert is working on this.	125427757	1475376753323	1475376753419	.	190
247029	2641528	He was replaced by Kent Graham.	He was replaced by Kent Graham.	125427897	1475376756777	1475376756906	SHIFT	16
247029	2641528	He was replaced by Kent Graham.	He was replaced by Kent Graham.	125427899	1475376756875	1475376756973	H	72
247029	2641528	He was replaced by Kent Graham.	He was replaced by Kent Graham.	125427901	1475376756955	1475376757059	e	69
247029	2641528	He was replaced by Kent Graham.	He was replaced by Kent Graham.	125427903	1475376757059	1475376757147	 	32
247029	2641528	He was replaced by Kent Graham.	He was replaced by Kent Graham.	125427905	1475376757171	1475376757297	w	87
247029	2641528	He was replaced by Kent Graham.	He was replaced by Kent Graham.	125427906	1475376757297	1475376757443	a	65
247029	2641528	He was replaced by Kent Graham.	He was replaced by Kent Graham.	125427912	1475376757395	1475376757510	s	83
247029	2641528	He was replaced by Kent Graham.	He was replaced by Kent Graham.	125427913	1475376757444	1475376757546	 	32
247029	2641528	He was replaced by Kent Graham.	He was replaced by Kent Graham.	125427914	1475376757675	1475376757779	r	82
247029	2641528	He was replaced by Kent Graham.	He was replaced by Kent Graham.	125427915	1475376757755	1475376757868	e	69
247029	2641528	He was replaced by Kent Graham.	He was replaced by Kent Graham.	125427916	1475376757923	1475376757987	p	80
247029	2641528	He was replaced by Kent Graham.	He was replaced by Kent Graham.	125427917	1475376758084	1475376758179	l	76
247029	2641528	He was replaced by Kent Graham.	He was replaced by Kent Graham.	125427935	1475376758203	1475376758285	a	65
247029	2641528	He was replaced by Kent Graham.	He was replaced by Kent Graham.	125427936	1475376758286	1475376758436	c	67
247029	2641528	He was replaced by Kent Graham.	He was replaced by Kent Graham.	125427938	1475376758411	1475376758515	e	69
247029	2641528	He was replaced by Kent Graham.	He was replaced by Kent Graham.	125427942	1475376758850	1475376758963	d	68
247029	2641528	He was replaced by Kent Graham.	He was replaced by Kent Graham.	125427946	1475376759059	1475376759082	 	32
247029	2641528	He was replaced by Kent Graham.	He was replaced by Kent Graham.	125427983	1475376759511	1475376759572	b	66
247029	2641528	He was replaced by Kent Graham.	He was replaced by Kent Graham.	125427986	1475376759579	1475376759715	y	89
247029	2641528	He was replaced by Kent Graham.	He was replaced by Kent Graham.	125427988	1475376759683	1475376759795	 	32
247029	2641528	He was replaced by Kent Graham.	He was replaced by Kent Graham.	125427990	1475376759827	1475376760059	SHIFT	16
247029	2641528	He was replaced by Kent Graham.	He was replaced by Kent Graham.	125427992	1475376759956	1475376760059	K	75
247029	2641528	He was replaced by Kent Graham.	He was replaced by Kent Graham.	125427995	1475376760155	1475376760250	e	69
247029	2641528	He was replaced by Kent Graham.	He was replaced by Kent Graham.	125428029	1475376760204	1475376760299	n	78
247029	2641528	He was replaced by Kent Graham.	He was replaced by Kent Graham.	125428032	1475376760371	1475376760451	t	84
247029	2641528	He was replaced by Kent Graham.	He was replaced by Kent Graham.	125428033	1475376760819	1475376760939	 	32
247029	2641528	He was replaced by Kent Graham.	He was replaced by Kent Graham.	125428036	1475376760956	1475376761098	SHIFT	16
247029	2641528	He was replaced by Kent Graham.	He was replaced by Kent Graham.	125428037	1475376761067	1475376761155	G	71
247029	2641528	He was replaced by Kent Graham.	He was replaced by Kent Graham.	125428040	1475376761261	1475376761371	r	82
247029	2641528	He was replaced by Kent Graham.	He was replaced by Kent Graham.	125428043	1475376761436	1475376761523	a	65
247029	2641528	He was replaced by Kent Graham.	He was replaced by Kent Graham.	125428068	1475376761627	1475376761731	h	72
247029	2641528	He was replaced by Kent Graham.	He was replaced by Kent Graham.	125428069	1475376762115	1475376762235	a	65
247029	2641528	He was replaced by Kent Graham.	He was replaced by Kent Graham.	125428071	1475376762251	1475376762315	m	77
247029	2641528	He was replaced by Kent Graham.	He was replaced by Kent Graham.	125428073	1475376762492	1475376762587	SHIFT	16
247029	2641528	He was replaced by Kent Graham.	He was replaced by Kent Graham.	125428075	1475376762691	1475376762763	.	190
247029	2641536	Theresa, don't worry about it.	Theresa, don't worry about it.	125428211	1475376766660	1475376766931	SHIFT	16
247029	2641536	Theresa, don't worry about it.	Theresa, don't worry about it.	125428213	1475376766899	1475376767004	T	84
247029	2641536	Theresa, don't worry about it.	Theresa, don't worry about it.	125428217	1475376767005	1475376767099	h	72
247029	2641536	Theresa, don't worry about it.	Theresa, don't worry about it.	125428221	1475376767099	1475376767171	e	69
247029	2641536	Theresa, don't worry about it.	Theresa, don't worry about it.	125428225	1475376767156	1475376767251	r	82
247029	2641536	Theresa, don't worry about it.	Theresa, don't worry about it.	125428229	1475376767267	1475376767324	e	69
247029	2641536	Theresa, don't worry about it.	Theresa, don't worry about it.	125428280	1475376767329	1475376767509	s	83
247029	2641536	Theresa, don't worry about it.	Theresa, don't worry about it.	125428281	1475376767868	1475376767979	a	65
247029	2641536	Theresa, don't worry about it.	Theresa, don't worry about it.	125428282	1475376768084	1475376768211	,	188
247029	2641536	Theresa, don't worry about it.	Theresa, don't worry about it.	125428284	1475376768171	1475376768307	 	32
247029	2641536	Theresa, don't worry about it.	Theresa, don't worry about it.	125428288	1475376768563	1475376768682	d	68
247029	2641536	Theresa, don't worry about it.	Theresa, don't worry about it.	125428295	1475376768628	1475376768763	o	79
247029	2641536	Theresa, don't worry about it.	Theresa, don't worry about it.	125428299	1475376768733	1475376768844	n	78
247029	2641536	Theresa, don't worry about it.	Theresa, don't worry about it.	125428301	1475376768811	1475376768900	'	222
247029	2641536	Theresa, don't worry about it.	Theresa, don't worry about it.	125428304	1475376768901	1475376768980	t	84
247029	2641536	Theresa, don't worry about it.	Theresa, don't worry about it.	125428310	1475376768981	1475376769091	 	32
247029	2641536	Theresa, don't worry about it.	Theresa, don't worry about it.	125428315	1475376769115	1475376769195	w	87
247029	2641536	Theresa, don't worry about it.	Theresa, don't worry about it.	125428324	1475376769212	1475376769300	o	79
247029	2641536	Theresa, don't worry about it.	Theresa, don't worry about it.	125428327	1475376769301	1475376769355	r	82
247029	2641536	Theresa, don't worry about it.	Theresa, don't worry about it.	125428329	1475376769443	1475376769524	r	82
247029	2641536	Theresa, don't worry about it.	Theresa, don't worry about it.	125428330	1475376769525	1475376769667	y	89
247029	2641536	Theresa, don't worry about it.	Theresa, don't worry about it.	125428337	1475376769619	1475376769731	 	32
247029	2641536	Theresa, don't worry about it.	Theresa, don't worry about it.	125428339	1475376769699	1475376769827	a	65
247029	2641536	Theresa, don't worry about it.	Theresa, don't worry about it.	125428342	1475376769779	1475376769883	b	66
247029	2641536	Theresa, don't worry about it.	Theresa, don't worry about it.	125428345	1475376769844	1475376770012	o	79
247029	2641536	Theresa, don't worry about it.	Theresa, don't worry about it.	125428347	1475376769931	1475376770012	u	85
247029	2641536	Theresa, don't worry about it.	Theresa, don't worry about it.	125428348	1475376770013	1475376770115	t	84
247029	2641536	Theresa, don't worry about it.	Theresa, don't worry about it.	125428362	1475376770051	1475376770156	 	32
247029	2641536	Theresa, don't worry about it.	Theresa, don't worry about it.	125428365	1475376770172	1475376770267	i	73
247029	2641536	Theresa, don't worry about it.	Theresa, don't worry about it.	125428369	1475376770379	1475376770435	t	84
247029	2641536	Theresa, don't worry about it.	Theresa, don't worry about it.	125428372	1475376770475	1475376770571	.	190
247029	2641543	I don't want to even see it in kilometers.	i don't want to even see it in kilometers.	125428555	1475376776284	1475376776420	SHIFT	16
247029	2641543	I don't want to even see it in kilometers.	i don't want to even see it in kilometers.	125428558	1475376776421	1475376776547	i	73
247029	2641543	I don't want to even see it in kilometers.	i don't want to even see it in kilometers.	125428561	1475376776499	1475376776587	 	32
247029	2641543	I don't want to even see it in kilometers.	i don't want to even see it in kilometers.	125428563	1475376776587	1475376776707	d	68
247029	2641543	I don't want to even see it in kilometers.	i don't want to even see it in kilometers.	125428564	1475376776652	1475376776787	o	79
247029	2641543	I don't want to even see it in kilometers.	i don't want to even see it in kilometers.	125428565	1475376776812	1475376776867	'	78
247029	2641543	I don't want to even see it in kilometers.	i don't want to even see it in kilometers.	125428577	1475376776887	1475376776971	t	84
247029	2641543	I don't want to even see it in kilometers.	i don't want to even see it in kilometers.	125428581	1475376776995	1475376777091	 	32
247029	2641543	I don't want to even see it in kilometers.	i don't want to even see it in kilometers.	125428585	1475376777116	1475376777203	w	87
247029	2641543	I don't want to even see it in kilometers.	i don't want to even see it in kilometers.	125428589	1475376777668	1475376777779	a	65
247029	2641543	I don't want to even see it in kilometers.	i don't want to even see it in kilometers.	125428593	1475376777795	1475376777875	n	78
247029	2641543	I don't want to even see it in kilometers.	i don't want to even see it in kilometers.	125428601	1475376777907	1475376778067	t	84
247029	2641543	I don't want to even see it in kilometers.	i don't want to even see it in kilometers.	125428602	1475376778067	1475376778139	e	69
247029	2641543	I don't want to even see it in kilometers.	i don't want to even see it in kilometers.	125428603	1475376778141	1475376778243	 	32
247029	2641543	I don't want to even see it in kilometers.	i don't want to even see it in kilometers.	125428604	1475376778389	1475376778492	t	84
247029	2641543	I don't want to even see it in kilometers.	i don't want to even see it in kilometers.	125428605	1475376778493	1475376778603	o	79
247029	2641543	I don't want to even see it in kilometers.	i don't want to even see it in kilometers.	125428652	1475376778564	1475376778659	 	32
247029	2641543	I don't want to even see it in kilometers.	i don't want to even see it in kilometers.	125428653	1475376778700	1475376778907	e	69
247029	2641543	I don't want to even see it in kilometers.	i don't want to even see it in kilometers.	125428654	1475376778876	1475376778908	v	86
247029	2641543	I don't want to even see it in kilometers.	i don't want to even see it in kilometers.	125428655	1475376779075	1475376779131	BKSP	8
247029	2641543	I don't want to even see it in kilometers.	i don't want to even see it in kilometers.	125428656	1475376779211	1475376779275	BKSP	8
247029	2641543	I don't want to even see it in kilometers.	i don't want to even see it in kilometers.	125428657	1475376779307	1475376779387	BKSP	8
247029	2641543	I don't want to even see it in kilometers.	i don't want to even see it in kilometers.	125428658	1475376779443	1475376779539	BKSP	8
247029	2641543	I don't want to even see it in kilometers.	i don't want to even see it in kilometers.	125428659	1475376779564	1475376779627	BKSP	8
247029	2641543	I don't want to even see it in kilometers.	i don't want to even see it in kilometers.	125428660	1475376779715	1475376779771	BKSP	8
247029	2641543	I don't want to even see it in kilometers.	i don't want to even see it in kilometers.	125428661	1475376779852	1475376779923	BKSP	8
247029	2641543	I don't want to even see it in kilometers.	i don't want to even see it in kilometers.	125428662	1475376780171	1475376780292	 	32
247029	2641543	I don't want to even see it in kilometers.	i don't want to even see it in kilometers.	125428663	1475376780403	1475376780499	t	84
247029	2641543	I don't want to even see it in kilometers.	i don't want to even see it in kilometers.	125428672	1475376780476	1475376780611	o	79
247029	2641543	I don't want to even see it in kilometers.	i don't want to even see it in kilometers.	125428674	1475376780555	1475376780676	 	32
247029	2641543	I don't want to even see it in kilometers.	i don't want to even see it in kilometers.	125428677	1475376780677	1475376780796	e	69
247029	2641543	I don't want to even see it in kilometers.	i don't want to even see it in kilometers.	125428679	1475376780797	1475376780883	v	86
247029	2641543	I don't want to even see it in kilometers.	i don't want to even see it in kilometers.	125428680	1475376780924	1475376781036	e	69
247029	2641543	I don't want to even see it in kilometers.	i don't want to even see it in kilometers.	125428681	1475376781037	1475376781163	n	78
247029	2641543	I don't want to even see it in kilometers.	i don't want to even see it in kilometers.	125428701	1475376781131	1475376781275	 	32
247029	2641543	I don't want to even see it in kilometers.	i don't want to even see it in kilometers.	125428705	1475376781300	1475376781371	s	83
247029	2641543	I don't want to even see it in kilometers.	i don't want to even see it in kilometers.	125428709	1475376781475	1475376781531	e	69
247029	2641543	I don't want to even see it in kilometers.	i don't want to even see it in kilometers.	125428712	1475376781628	1475376781716	e	69
247029	2641543	I don't want to even see it in kilometers.	i don't want to even see it in kilometers.	125428715	1475376781717	1475376781811	 	32
247029	2641543	I don't want to even see it in kilometers.	i don't want to even see it in kilometers.	125428718	1475376781875	1475376781980	i	73
247029	2641543	I don't want to even see it in kilometers.	i don't want to even see it in kilometers.	125428734	1475376781984	1475376782059	t	84
247029	2641543	I don't want to even see it in kilometers.	i don't want to even see it in kilometers.	125428736	1475376782196	1475376782323	 	32
247029	2641543	I don't want to even see it in kilometers.	i don't want to even see it in kilometers.	125428738	1475376782403	1475376782555	i	73
247029	2641543	I don't want to even see it in kilometers.	i don't want to even see it in kilometers.	125428742	1475376782483	1475376782587	n	78
247029	2641543	I don't want to even see it in kilometers.	i don't want to even see it in kilometers.	125428777	1475376782555	1475376782691	 	32
247029	2641543	I don't want to even see it in kilometers.	i don't want to even see it in kilometers.	125428779	1475376782764	1475376782819	i	73
247029	2641543	I don't want to even see it in kilometers.	i don't want to even see it in kilometers.	125428781	1475376783131	1475376783195	BKSP	8
247029	2641543	I don't want to even see it in kilometers.	i don't want to even see it in kilometers.	125428783	1475376783348	1475376783403	k	75
247029	2641543	I don't want to even see it in kilometers.	i don't want to even see it in kilometers.	125428788	1475376783499	1475376783603	i	73
247029	2641543	I don't want to even see it in kilometers.	i don't want to even see it in kilometers.	125428791	1475376783643	1475376783739	l	76
247029	2641543	I don't want to even see it in kilometers.	i don't want to even see it in kilometers.	125428799	1475376783876	1475376783971	m	77
247029	2641543	I don't want to even see it in kilometers.	i don't want to even see it in kilometers.	125428855	1475376784588	1475376784699	m	77
247029	2641543	I don't want to even see it in kilometers.	i don't want to even see it in kilometers.	125428856	1475376784883	1475376785020	e	69
247029	2641543	I don't want to even see it in kilometers.	i don't want to even see it in kilometers.	125428857	1475376785003	1475376785099	t	84
247029	2641543	I don't want to even see it in kilometers.	i don't want to even see it in kilometers.	125428858	1475376785371	1475376785435	BKSP	8
247029	2641543	I don't want to even see it in kilometers.	i don't want to even see it in kilometers.	125428859	1475376785475	1475376785547	BKSP	8
247029	2641543	I don't want to even see it in kilometers.	i don't want to even see it in kilometers.	125428860	1475376785619	1475376785683	BKSP	8
247029	2641543	I don't want to even see it in kilometers.	i don't want to even see it in kilometers.	125428861	1475376785955	1475376786059	BKSP	8
247029	2641543	I don't want to even see it in kilometers.	i don't want to even see it in kilometers.	125428862	1475376786243	1475376786379	o	79
247029	2641543	I don't want to even see it in kilometers.	i don't want to even see it in kilometers.	125428863	1475376786419	1475376786507	m	77
247029	2641543	I don't want to even see it in kilometers.	i don't want to even see it in kilometers.	125428905	1475376786651	1475376786707	n	78
247029	2641543	I don't want to even see it in kilometers.	i don't want to even see it in kilometers.	125428907	1475376786779	1475376786924	e	69
247029	2641543	I don't want to even see it in kilometers.	i don't want to even see it in kilometers.	125428910	1475376786899	1475376787003	t	84
247029	2641543	I don't want to even see it in kilometers.	i don't want to even see it in kilometers.	125428914	1475376787196	1475376787251	BKSP	8
247029	2641543	I don't want to even see it in kilometers.	i don't want to even see it in kilometers.	125428917	1475376787331	1475376787363	BKSP	8
247029	2641543	I don't want to even see it in kilometers.	i don't want to even see it in kilometers.	125428919	1475376787443	1475376787522	BKSP	8
247029	2641543	I don't want to even see it in kilometers.	i don't want to even see it in kilometers.	125428920	1475376787603	1475376787747	e	69
247029	2641543	I don't want to even see it in kilometers.	i don't want to even see it in kilometers.	125428936	1475376787716	1475376787811	t	84
247029	2641543	I don't want to even see it in kilometers.	i don't want to even see it in kilometers.	125428940	1475376787891	1475376788019	e	69
247029	2641543	I don't want to even see it in kilometers.	i don't want to even see it in kilometers.	125428942	1475376787987	1475376788043	r	82
247029	2641543	I don't want to even see it in kilometers.	i don't want to even see it in kilometers.	125428944	1475376788067	1475376788196	s	83
247029	2641543	I don't want to even see it in kilometers.	i don't want to even see it in kilometers.	125428947	1475376788197	1475376788291	.	190
247029	2641554	Opposition leaders have urged him to call off the visit.	Opposition leaders have urged him to call off the visit.	125429034	1475376790997	1475376791339	SHIFT	16
247029	2641554	Opposition leaders have urged him to call off the visit.	Opposition leaders have urged him to call off the visit.	125429033	1475376791235	1475376791307	O	79
247029	2641554	Opposition leaders have urged him to call off the visit.	Opposition leaders have urged him to call off the visit.	125429035	1475376791444	1475376791483	p	80
247029	2641554	Opposition leaders have urged him to call off the visit.	Opposition leaders have urged him to call off the visit.	125429036	1475376791612	1475376791667	p	80
247029	2641554	Opposition leaders have urged him to call off the visit.	Opposition leaders have urged him to call off the visit.	125429038	1475376791971	1475376792051	o	79
247029	2641554	Opposition leaders have urged him to call off the visit.	Opposition leaders have urged him to call off the visit.	125429040	1475376792099	1475376792187	s	83
247029	2641554	Opposition leaders have urged him to call off the visit.	Opposition leaders have urged him to call off the visit.	125429051	1475376792251	1475376792307	i	73
247029	2641554	Opposition leaders have urged him to call off the visit.	Opposition leaders have urged him to call off the visit.	125429053	1475376792403	1475376792507	t	84
247029	2641554	Opposition leaders have urged him to call off the visit.	Opposition leaders have urged him to call off the visit.	125429055	1475376792540	1475376792698	i	73
247029	2641554	Opposition leaders have urged him to call off the visit.	Opposition leaders have urged him to call off the visit.	125429057	1475376792634	1475376792778	o	79
247029	2641554	Opposition leaders have urged him to call off the visit.	Opposition leaders have urged him to call off the visit.	125429080	1475376792722	1475376792795	n	78
247029	2641554	Opposition leaders have urged him to call off the visit.	Opposition leaders have urged him to call off the visit.	125429082	1475376792907	1475376793028	 	32
247029	2641554	Opposition leaders have urged him to call off the visit.	Opposition leaders have urged him to call off the visit.	125429084	1475376793251	1475376793347	l	76
247029	2641554	Opposition leaders have urged him to call off the visit.	Opposition leaders have urged him to call off the visit.	125429086	1475376793379	1475376793500	e	69
247029	2641554	Opposition leaders have urged him to call off the visit.	Opposition leaders have urged him to call off the visit.	125429087	1475376793501	1475376793628	a	65
247029	2641554	Opposition leaders have urged him to call off the visit.	Opposition leaders have urged him to call off the visit.	125429104	1475376793612	1475376793731	d	68
247029	2641554	Opposition leaders have urged him to call off the visit.	Opposition leaders have urged him to call off the visit.	125429107	1475376793819	1475376793931	e	69
247029	2641554	Opposition leaders have urged him to call off the visit.	Opposition leaders have urged him to call off the visit.	125429110	1475376793891	1475376793996	r	82
247029	2641554	Opposition leaders have urged him to call off the visit.	Opposition leaders have urged him to call off the visit.	125429112	1475376794051	1475376794155	s	83
247029	2641554	Opposition leaders have urged him to call off the visit.	Opposition leaders have urged him to call off the visit.	125429113	1475376794187	1475376794332	 	32
247029	2641554	Opposition leaders have urged him to call off the visit.	Opposition leaders have urged him to call off the visit.	125429115	1475376794333	1475376794379	a	65
247029	2641554	Opposition leaders have urged him to call off the visit.	Opposition leaders have urged him to call off the visit.	125429142	1475376794530	1475376794604	h	72
247029	2641554	Opposition leaders have urged him to call off the visit.	Opposition leaders have urged him to call off the visit.	125429144	1475376794787	1475376794835	BKSP	8
247029	2641554	Opposition leaders have urged him to call off the visit.	Opposition leaders have urged him to call off the visit.	125429147	1475376794907	1475376794987	BKSP	8
247029	2641554	Opposition leaders have urged him to call off the visit.	Opposition leaders have urged him to call off the visit.	125429152	1475376795108	1475376795219	h	72
247029	2641554	Opposition leaders have urged him to call off the visit.	Opposition leaders have urged him to call off the visit.	125429157	1475376795139	1475376795260	a	65
247029	2641554	Opposition leaders have urged him to call off the visit.	Opposition leaders have urged him to call off the visit.	125429164	1475376795261	1475376795372	v	86
247029	2641554	Opposition leaders have urged him to call off the visit.	Opposition leaders have urged him to call off the visit.	125429169	1475376795373	1475376795467	e	69
247029	2641554	Opposition leaders have urged him to call off the visit.	Opposition leaders have urged him to call off the visit.	125429199	1475376795473	1475376795579	 	32
247029	2641554	Opposition leaders have urged him to call off the visit.	Opposition leaders have urged him to call off the visit.	125429203	1475376795627	1475376795731	u	85
247029	2641554	Opposition leaders have urged him to call off the visit.	Opposition leaders have urged him to call off the visit.	125429207	1475376795811	1475376795907	d	68
247029	2641554	Opposition leaders have urged him to call off the visit.	Opposition leaders have urged him to call off the visit.	125429211	1475376796196	1475376796267	BKSP	8
247029	2641554	Opposition leaders have urged him to call off the visit.	Opposition leaders have urged him to call off the visit.	125429214	1475376796339	1475376796396	r	82
247029	2641554	Opposition leaders have urged him to call off the visit.	Opposition leaders have urged him to call off the visit.	125429217	1475376796540	1475376796564	g	71
247029	2641554	Opposition leaders have urged him to call off the visit.	Opposition leaders have urged him to call off the visit.	125429252	1475376796771	1475376796883	d	68
247029	2641554	Opposition leaders have urged him to call off the visit.	Opposition leaders have urged him to call off the visit.	125429255	1475376797051	1475376797099	BKSP	8
247029	2641554	Opposition leaders have urged him to call off the visit.	Opposition leaders have urged him to call off the visit.	125429258	1475376797203	1475376797291	e	69
247029	2641554	Opposition leaders have urged him to call off the visit.	Opposition leaders have urged him to call off the visit.	125429260	1475376797403	1475376797507	d	68
247029	2641554	Opposition leaders have urged him to call off the visit.	Opposition leaders have urged him to call off the visit.	125429262	1475376797475	1475376797611	 	32
247029	2641554	Opposition leaders have urged him to call off the visit.	Opposition leaders have urged him to call off the visit.	125429264	1475376797683	1475376797794	h	72
247029	2641554	Opposition leaders have urged him to call off the visit.	Opposition leaders have urged him to call off the visit.	125429269	1475376797771	1475376797875	i	73
247029	2641554	Opposition leaders have urged him to call off the visit.	Opposition leaders have urged him to call off the visit.	125429272	1475376797932	1475376798052	m	77
247029	2641554	Opposition leaders have urged him to call off the visit.	Opposition leaders have urged him to call off the visit.	125429275	1475376798053	1475376798171	 	32
247029	2641554	Opposition leaders have urged him to call off the visit.	Opposition leaders have urged him to call off the visit.	125429278	1475376798243	1475376798371	t	84
247029	2641554	Opposition leaders have urged him to call off the visit.	Opposition leaders have urged him to call off the visit.	125429282	1475376798348	1475376798467	o	79
247029	2641554	Opposition leaders have urged him to call off the visit.	Opposition leaders have urged him to call off the visit.	125429296	1475376798428	1475376798555	 	32
247029	2641554	Opposition leaders have urged him to call off the visit.	Opposition leaders have urged him to call off the visit.	125429299	1475376798579	1475376798675	a	65
247029	2641554	Opposition leaders have urged him to call off the visit.	Opposition leaders have urged him to call off the visit.	125429301	1475376798651	1475376798715	l	76
247029	2641554	Opposition leaders have urged him to call off the visit.	Opposition leaders have urged him to call off the visit.	125429302	1475376798787	1475376798876	l	76
247029	2641554	Opposition leaders have urged him to call off the visit.	Opposition leaders have urged him to call off the visit.	125429303	1475376798877	1475376798979	 	32
247029	2641554	Opposition leaders have urged him to call off the visit.	Opposition leaders have urged him to call off the visit.	125429304	1475376799003	1475376799099	c	67
247029	2641554	Opposition leaders have urged him to call off the visit.	Opposition leaders have urged him to call off the visit.	125429369	1475376799102	1475376799204	a	65
247029	2641554	Opposition leaders have urged him to call off the visit.	Opposition leaders have urged him to call off the visit.	125429373	1475376799205	1475376799459	l	76
247029	2641554	Opposition leaders have urged him to call off the visit.	Opposition leaders have urged him to call off the visit.	125429372	1475376799332	1475376799443	i	73
247029	2641554	Opposition leaders have urged him to call off the visit.	Opposition leaders have urged him to call off the visit.	125429377	1475376799659	1475376800339	BKSP	8
247029	2641554	Opposition leaders have urged him to call off the visit.	Opposition leaders have urged him to call off the visit.	125429381	1475376800484	1475376800539	BKSP	8
247029	2641554	Opposition leaders have urged him to call off the visit.	Opposition leaders have urged him to call off the visit.	125429384	1475376800811	1475376800916	c	67
247029	2641554	Opposition leaders have urged him to call off the visit.	Opposition leaders have urged him to call off the visit.	125429386	1475376800917	1475376801052	a	65
247029	2641554	Opposition leaders have urged him to call off the visit.	Opposition leaders have urged him to call off the visit.	125429406	1475376800988	1475376801054	l	76
247029	2641554	Opposition leaders have urged him to call off the visit.	Opposition leaders have urged him to call off the visit.	125429408	1475376801141	1475376801268	l	76
247029	2641554	Opposition leaders have urged him to call off the visit.	Opposition leaders have urged him to call off the visit.	125429409	1475376801269	1475376801387	 	32
247029	2641554	Opposition leaders have urged him to call off the visit.	Opposition leaders have urged him to call off the visit.	125429410	1475376801459	1475376801556	o	79
247029	2641554	Opposition leaders have urged him to call off the visit.	Opposition leaders have urged him to call off the visit.	125429413	1475376801557	1475376801627	f	70
247029	2641554	Opposition leaders have urged him to call off the visit.	Opposition leaders have urged him to call off the visit.	125429416	1475376801715	1475376801811	f	70
247029	2641554	Opposition leaders have urged him to call off the visit.	Opposition leaders have urged him to call off the visit.	125429430	1475376801814	1475376801907	 	32
247029	2641554	Opposition leaders have urged him to call off the visit.	Opposition leaders have urged him to call off the visit.	125429433	1475376801931	1475376802028	t	84
247029	2641554	Opposition leaders have urged him to call off the visit.	Opposition leaders have urged him to call off the visit.	125429438	1475376802029	1475376802107	h	72
247029	2641554	Opposition leaders have urged him to call off the visit.	Opposition leaders have urged him to call off the visit.	125429442	1475376802068	1475376802155	e	69
247029	2641554	Opposition leaders have urged him to call off the visit.	Opposition leaders have urged him to call off the visit.	125429445	1475376802564	1475376802675	 	32
247029	2641554	Opposition leaders have urged him to call off the visit.	Opposition leaders have urged him to call off the visit.	125429485	1475376803019	1475376803107	i	73
247029	2641554	Opposition leaders have urged him to call off the visit.	Opposition leaders have urged him to call off the visit.	125429486	1475376803316	1475376803403	BKSP	8
247029	2641554	Opposition leaders have urged him to call off the visit.	Opposition leaders have urged him to call off the visit.	125429487	1475376803428	1475376803555	v	86
247029	2641554	Opposition leaders have urged him to call off the visit.	Opposition leaders have urged him to call off the visit.	125429488	1475376803531	1475376803652	i	73
247029	2641554	Opposition leaders have urged him to call off the visit.	Opposition leaders have urged him to call off the visit.	125429490	1475376803653	1475376803755	s	83
247029	2641554	Opposition leaders have urged him to call off the visit.	Opposition leaders have urged him to call off the visit.	125429492	1475376803828	1475376803899	i	73
247029	2641554	Opposition leaders have urged him to call off the visit.	Opposition leaders have urged him to call off the visit.	125429503	1475376804068	1475376804171	t	84
247029	2641554	Opposition leaders have urged him to call off the visit.	Opposition leaders have urged him to call off the visit.	125429504	1475376804259	1475376804347	.	190
247029	2641567	I was a bit rusty but I didn't want to miss the elections back home.	I was a bit rusty but I didn't want to miss the elections back home.	125429590	1475376806236	1475376806347	SHIFT	16
247029	2641567	I was a bit rusty but I didn't want to miss the elections back home.	I was a bit rusty but I didn't want to miss the elections back home.	125429592	1475376806315	1475376806443	I	73
247029	2641567	I was a bit rusty but I didn't want to miss the elections back home.	I was a bit rusty but I didn't want to miss the elections back home.	125429594	1475376806379	1475376806516	 	32
247029	2641567	I was a bit rusty but I didn't want to miss the elections back home.	I was a bit rusty but I didn't want to miss the elections back home.	125429596	1475376806517	1475376806620	w	87
247029	2641567	I was a bit rusty but I didn't want to miss the elections back home.	I was a bit rusty but I didn't want to miss the elections back home.	125429598	1475376806621	1475376806747	a	65
247029	2641567	I was a bit rusty but I didn't want to miss the elections back home.	I was a bit rusty but I didn't want to miss the elections back home.	125429615	1475376806715	1475376806827	s	83
247029	2641567	I was a bit rusty but I didn't want to miss the elections back home.	I was a bit rusty but I didn't want to miss the elections back home.	125429616	1475376806788	1475376806892	 	32
247029	2641567	I was a bit rusty but I didn't want to miss the elections back home.	I was a bit rusty but I didn't want to miss the elections back home.	125429618	1475376806893	1475376806995	a	65
247029	2641567	I was a bit rusty but I didn't want to miss the elections back home.	I was a bit rusty but I didn't want to miss the elections back home.	125429626	1475376807019	1475376807147	 	32
247029	2641567	I was a bit rusty but I didn't want to miss the elections back home.	I was a bit rusty but I didn't want to miss the elections back home.	125429622	1475376807043	1475376807075	i	73
247029	2641567	I was a bit rusty but I didn't want to miss the elections back home.	I was a bit rusty but I didn't want to miss the elections back home.	125429631	1475376807212	1475376807323	b	66
247029	2641567	I was a bit rusty but I didn't want to miss the elections back home.	I was a bit rusty but I didn't want to miss the elections back home.	125429671	1475376807659	1475376807699	BKSP	8
247029	2641567	I was a bit rusty but I didn't want to miss the elections back home.	I was a bit rusty but I didn't want to miss the elections back home.	125429674	1475376807772	1475376807827	BKSP	8
247029	2641567	I was a bit rusty but I didn't want to miss the elections back home.	I was a bit rusty but I didn't want to miss the elections back home.	125429678	1475376807875	1475376807995	b	66
247029	2641567	I was a bit rusty but I didn't want to miss the elections back home.	I was a bit rusty but I didn't want to miss the elections back home.	125429681	1475376807995	1475376808108	i	73
247029	2641567	I was a bit rusty but I didn't want to miss the elections back home.	I was a bit rusty but I didn't want to miss the elections back home.	125429683	1475376808109	1475376808195	t	84
247029	2641567	I was a bit rusty but I didn't want to miss the elections back home.	I was a bit rusty but I didn't want to miss the elections back home.	125429684	1475376808163	1475376808267	 	32
247029	2641567	I was a bit rusty but I didn't want to miss the elections back home.	I was a bit rusty but I didn't want to miss the elections back home.	125429685	1475376808323	1475376808404	r	82
247029	2641567	I was a bit rusty but I didn't want to miss the elections back home.	I was a bit rusty but I didn't want to miss the elections back home.	125429710	1475376808408	1475376808500	u	85
247029	2641567	I was a bit rusty but I didn't want to miss the elections back home.	I was a bit rusty but I didn't want to miss the elections back home.	125429713	1475376808501	1475376808667	s	83
247029	2641567	I was a bit rusty but I didn't want to miss the elections back home.	I was a bit rusty but I didn't want to miss the elections back home.	125429717	1475376808595	1475376808699	t	84
247029	2641567	I was a bit rusty but I didn't want to miss the elections back home.	I was a bit rusty but I didn't want to miss the elections back home.	125429721	1475376808731	1475376808803	 	32
247029	2641567	I was a bit rusty but I didn't want to miss the elections back home.	I was a bit rusty but I didn't want to miss the elections back home.	125429724	1475376809075	1475376809139	BKSP	8
247029	2641567	I was a bit rusty but I didn't want to miss the elections back home.	I was a bit rusty but I didn't want to miss the elections back home.	125429726	1475376809259	1475376809387	y	89
247029	2641567	I was a bit rusty but I didn't want to miss the elections back home.	I was a bit rusty but I didn't want to miss the elections back home.	125429744	1475376809347	1475376809467	 	32
247029	2641567	I was a bit rusty but I didn't want to miss the elections back home.	I was a bit rusty but I didn't want to miss the elections back home.	125429747	1475376809556	1475376809659	b	66
247029	2641567	I was a bit rusty but I didn't want to miss the elections back home.	I was a bit rusty but I didn't want to miss the elections back home.	125429750	1475376809691	1475376809787	u	85
247029	2641567	I was a bit rusty but I didn't want to miss the elections back home.	I was a bit rusty but I didn't want to miss the elections back home.	125429755	1475376809843	1475376809948	t	84
247029	2641567	I was a bit rusty but I didn't want to miss the elections back home.	I was a bit rusty but I didn't want to miss the elections back home.	125429759	1475376809949	1475376810051	 	32
247029	2641567	I was a bit rusty but I didn't want to miss the elections back home.	I was a bit rusty but I didn't want to miss the elections back home.	125429761	1475376810100	1475376810211	SHIFT	16
247029	2641567	I was a bit rusty but I didn't want to miss the elections back home.	I was a bit rusty but I didn't want to miss the elections back home.	125429768	1475376810163	1475376810291	I	73
247029	2641567	I was a bit rusty but I didn't want to miss the elections back home.	I was a bit rusty but I didn't want to miss the elections back home.	125429770	1475376810243	1475376810355	 	32
247029	2641567	I was a bit rusty but I didn't want to miss the elections back home.	I was a bit rusty but I didn't want to miss the elections back home.	125429772	1475376810379	1475376810515	d	68
247029	2641567	I was a bit rusty but I didn't want to miss the elections back home.	I was a bit rusty but I didn't want to miss the elections back home.	125429775	1475376810483	1475376810595	i	73
247029	2641567	I was a bit rusty but I didn't want to miss the elections back home.	I was a bit rusty but I didn't want to miss the elections back home.	125429779	1475376810547	1475376810667	n	78
247029	2641567	I was a bit rusty but I didn't want to miss the elections back home.	I was a bit rusty but I didn't want to miss the elections back home.	125429791	1475376810643	1475376810740	'	222
247029	2641567	I was a bit rusty but I didn't want to miss the elections back home.	I was a bit rusty but I didn't want to miss the elections back home.	125429793	1475376810741	1475376810828	t	84
247029	2641567	I was a bit rusty but I didn't want to miss the elections back home.	I was a bit rusty but I didn't want to miss the elections back home.	125429797	1475376810829	1475376810924	 	32
247029	2641567	I was a bit rusty but I didn't want to miss the elections back home.	I was a bit rusty but I didn't want to miss the elections back home.	125429801	1475376810925	1475376811036	w	87
247029	2641567	I was a bit rusty but I didn't want to miss the elections back home.	I was a bit rusty but I didn't want to miss the elections back home.	125429805	1475376811020	1475376811163	a	65
247029	2641567	I was a bit rusty but I didn't want to miss the elections back home.	I was a bit rusty but I didn't want to miss the elections back home.	125429809	1475376811165	1475376811251	n	78
247029	2641567	I was a bit rusty but I didn't want to miss the elections back home.	I was a bit rusty but I didn't want to miss the elections back home.	125429833	1475376811283	1475376811388	t	84
247029	2641567	I was a bit rusty but I didn't want to miss the elections back home.	I was a bit rusty but I didn't want to miss the elections back home.	125429834	1475376811389	1475376811539	 	32
247029	2641567	I was a bit rusty but I didn't want to miss the elections back home.	I was a bit rusty but I didn't want to miss the elections back home.	125429836	1475376811643	1475376811787	o	79
247029	2641567	I was a bit rusty but I didn't want to miss the elections back home.	I was a bit rusty but I didn't want to miss the elections back home.	125429838	1475376811788	1475376811883	t	84
247029	2641567	I was a bit rusty but I didn't want to miss the elections back home.	I was a bit rusty but I didn't want to miss the elections back home.	125429840	1475376812019	1475376812067	BKSP	8
247029	2641567	I was a bit rusty but I didn't want to miss the elections back home.	I was a bit rusty but I didn't want to miss the elections back home.	125429842	1475376812131	1475376812187	BKSP	8
247029	2641567	I was a bit rusty but I didn't want to miss the elections back home.	I was a bit rusty but I didn't want to miss the elections back home.	125429847	1475376812244	1475376812348	t	84
247029	2641567	I was a bit rusty but I didn't want to miss the elections back home.	I was a bit rusty but I didn't want to miss the elections back home.	125429855	1475376812351	1475376812459	o	79
247029	2641567	I was a bit rusty but I didn't want to miss the elections back home.	I was a bit rusty but I didn't want to miss the elections back home.	125429857	1475376812403	1475376812540	 	32
247029	2641567	I was a bit rusty but I didn't want to miss the elections back home.	I was a bit rusty but I didn't want to miss the elections back home.	125429858	1475376812541	1475376812683	m	77
247029	2641567	I was a bit rusty but I didn't want to miss the elections back home.	I was a bit rusty but I didn't want to miss the elections back home.	125429859	1475376812651	1475376812780	i	73
247029	2641567	I was a bit rusty but I didn't want to miss the elections back home.	I was a bit rusty but I didn't want to miss the elections back home.	125429860	1475376812781	1475376812827	s	83
247029	2641567	I was a bit rusty but I didn't want to miss the elections back home.	I was a bit rusty but I didn't want to miss the elections back home.	125430043	1475376812907	1475376813003	s	83
247029	2641567	I was a bit rusty but I didn't want to miss the elections back home.	I was a bit rusty but I didn't want to miss the elections back home.	125430045	1475376813076	1475376813210	 	32
247029	2641567	I was a bit rusty but I didn't want to miss the elections back home.	I was a bit rusty but I didn't want to miss the elections back home.	125430051	1475376815891	1475376816899	ARW_LEFT	37
247029	2641567	I was a bit rusty but I didn't want to miss the elections back home.	I was a bit rusty but I didn't want to miss the elections back home.	125430054	1475376817323	1475376817411	d	68
247029	2641567	I was a bit rusty but I didn't want to miss the elections back home.	I was a bit rusty but I didn't want to miss the elections back home.	125430057	1475376817443	1475376818499	ARW_RIGHT	39
247029	2641567	I was a bit rusty but I didn't want to miss the elections back home.	I was a bit rusty but I didn't want to miss the elections back home.	125430060	1475376819075	1475376819180	t	84
247029	2641567	I was a bit rusty but I didn't want to miss the elections back home.	I was a bit rusty but I didn't want to miss the elections back home.	125430094	1475376819163	1475376819260	h	72
247029	2641567	I was a bit rusty but I didn't want to miss the elections back home.	I was a bit rusty but I didn't want to miss the elections back home.	125430097	1475376819261	1475376819364	e	69
247029	2641567	I was a bit rusty but I didn't want to miss the elections back home.	I was a bit rusty but I didn't want to miss the elections back home.	125430102	1475376819365	1475376819443	 	32
247029	2641567	I was a bit rusty but I didn't want to miss the elections back home.	I was a bit rusty but I didn't want to miss the elections back home.	125430104	1475376819467	1475376819588	e	69
247029	2641567	I was a bit rusty but I didn't want to miss the elections back home.	I was a bit rusty but I didn't want to miss the elections back home.	125430105	1475376819589	1475376819675	l	76
247029	2641567	I was a bit rusty but I didn't want to miss the elections back home.	I was a bit rusty but I didn't want to miss the elections back home.	125430106	1475376819780	1475376819891	c	67
247029	2641567	I was a bit rusty but I didn't want to miss the elections back home.	I was a bit rusty but I didn't want to miss the elections back home.	125430134	1475376820363	1475376820435	BKSP	8
247029	2641567	I was a bit rusty but I didn't want to miss the elections back home.	I was a bit rusty but I didn't want to miss the elections back home.	125430136	1475376820459	1475376820603	e	69
247029	2641567	I was a bit rusty but I didn't want to miss the elections back home.	I was a bit rusty but I didn't want to miss the elections back home.	125430139	1475376820539	1475376820635	c	67
247029	2641567	I was a bit rusty but I didn't want to miss the elections back home.	I was a bit rusty but I didn't want to miss the elections back home.	125430143	1475376820739	1475376820843	t	84
247029	2641567	I was a bit rusty but I didn't want to miss the elections back home.	I was a bit rusty but I didn't want to miss the elections back home.	125430146	1475376820804	1475376820956	i	73
247029	2641567	I was a bit rusty but I didn't want to miss the elections back home.	I was a bit rusty but I didn't want to miss the elections back home.	125430150	1475376820957	1475376821051	o	79
247029	2641567	I was a bit rusty but I didn't want to miss the elections back home.	I was a bit rusty but I didn't want to miss the elections back home.	125430173	1475376821011	1475376821099	n	78
247029	2641567	I was a bit rusty but I didn't want to miss the elections back home.	I was a bit rusty but I didn't want to miss the elections back home.	125430177	1475376821405	1475376821507	s	83
247029	2641567	I was a bit rusty but I didn't want to miss the elections back home.	I was a bit rusty but I didn't want to miss the elections back home.	125430179	1475376821539	1475376821643	 	32
247029	2641567	I was a bit rusty but I didn't want to miss the elections back home.	I was a bit rusty but I didn't want to miss the elections back home.	125430183	1475376821675	1475376821772	b	66
247029	2641567	I was a bit rusty but I didn't want to miss the elections back home.	I was a bit rusty but I didn't want to miss the elections back home.	125430187	1475376821773	1475376821916	a	65
247029	2641567	I was a bit rusty but I didn't want to miss the elections back home.	I was a bit rusty but I didn't want to miss the elections back home.	125430190	1475376821917	1475376821987	c	67
247029	2641567	I was a bit rusty but I didn't want to miss the elections back home.	I was a bit rusty but I didn't want to miss the elections back home.	125430203	1475376821963	1475376822068	k	75
247029	2641567	I was a bit rusty but I didn't want to miss the elections back home.	I was a bit rusty but I didn't want to miss the elections back home.	125430205	1475376822036	1475376822163	 	32
247029	2641567	I was a bit rusty but I didn't want to miss the elections back home.	I was a bit rusty but I didn't want to miss the elections back home.	125430207	1475376822164	1475376822251	h	72
247029	2641567	I was a bit rusty but I didn't want to miss the elections back home.	I was a bit rusty but I didn't want to miss the elections back home.	125430209	1475376822211	1475376822388	o	79
247029	2641567	I was a bit rusty but I didn't want to miss the elections back home.	I was a bit rusty but I didn't want to miss the elections back home.	125430211	1475376822389	1475376822459	m	77
247029	2641567	I was a bit rusty but I didn't want to miss the elections back home.	I was a bit rusty but I didn't want to miss the elections back home.	125430216	1475376822475	1475376822596	e	69
247029	2641567	I was a bit rusty but I didn't want to miss the elections back home.	I was a bit rusty but I didn't want to miss the elections back home.	125430213	1475376822599	1475376822683	.	190
247029	2641578	It's all about making the whole story public.	It's all about making the whole story public.	125430316	1475376824436	1475376824555	SHIFT	16
247029	2641578	It's all about making the whole story public.	It's all about making the whole story public.	125430317	1475376824515	1475376824619	I	73
247029	2641578	It's all about making the whole story public.	It's all about making the whole story public.	125430319	1475376824747	1475376824795	'	222
247029	2641578	It's all about making the whole story public.	It's all about making the whole story public.	125430320	1475376824843	1475376824939	t	84
247029	2641578	It's all about making the whole story public.	It's all about making the whole story public.	125430322	1475376825163	1475376825195	BKSP	8
247029	2641578	It's all about making the whole story public.	It's all about making the whole story public.	125430323	1475376825268	1475376825315	BKSP	8
247029	2641578	It's all about making the whole story public.	It's all about making the whole story public.	125430325	1475376825387	1475376825475	t	84
247029	2641578	It's all about making the whole story public.	It's all about making the whole story public.	125430328	1475376825516	1475376825596	'	222
247029	2641578	It's all about making the whole story public.	It's all about making the whole story public.	125430331	1475376825600	1475376825692	s	83
247029	2641578	It's all about making the whole story public.	It's all about making the whole story public.	125430332	1475376825693	1475376825772	 	32
247029	2641578	It's all about making the whole story public.	It's all about making the whole story public.	125430333	1475376825773	1475376825876	a	65
247029	2641578	It's all about making the whole story public.	It's all about making the whole story public.	125430334	1475376825877	1475376825907	l	76
247029	2641578	It's all about making the whole story public.	It's all about making the whole story public.	125430335	1475376826020	1475376826123	l	76
247029	2641578	It's all about making the whole story public.	It's all about making the whole story public.	125430341	1475376826091	1475376826187	 	32
247029	2641578	It's all about making the whole story public.	It's all about making the whole story public.	125430344	1475376826236	1475376826388	a	65
247029	2641578	It's all about making the whole story public.	It's all about making the whole story public.	125430348	1475376826347	1475376826451	b	66
247029	2641578	It's all about making the whole story public.	It's all about making the whole story public.	125430352	1475376826389	1475376826579	o	79
247029	2641578	It's all about making the whole story public.	It's all about making the whole story public.	125430356	1475376826475	1475376826581	u	85
247029	2641578	It's all about making the whole story public.	It's all about making the whole story public.	125430359	1475376826603	1475376826700	t	84
247029	2641578	It's all about making the whole story public.	It's all about making the whole story public.	125430382	1475376826703	1475376826803	 	32
247029	2641578	It's all about making the whole story public.	It's all about making the whole story public.	125430384	1475376826875	1475376826971	m	77
247029	2641578	It's all about making the whole story public.	It's all about making the whole story public.	125430387	1475376827099	1475376827220	a	65
247029	2641578	It's all about making the whole story public.	It's all about making the whole story public.	125430390	1475376827221	1475376827283	k	75
247029	2641578	It's all about making the whole story public.	It's all about making the whole story public.	125430393	1475376827379	1475376827532	i	73
247029	2641578	It's all about making the whole story public.	It's all about making the whole story public.	125430403	1475376827467	1475376827555	n	78
247029	2641578	It's all about making the whole story public.	It's all about making the whole story public.	125430405	1475376827535	1475376827611	g	71
247029	2641578	It's all about making the whole story public.	It's all about making the whole story public.	125430407	1475376827643	1475376827740	 	32
247029	2641578	It's all about making the whole story public.	It's all about making the whole story public.	125430411	1475376827723	1475376827835	t	84
247029	2641578	It's all about making the whole story public.	It's all about making the whole story public.	125430415	1475376827811	1475376827900	h	72
247029	2641578	It's all about making the whole story public.	It's all about making the whole story public.	125430419	1475376827901	1475376827995	e	69
247029	2641578	It's all about making the whole story public.	It's all about making the whole story public.	125430436	1475376827999	1475376828067	 	32
247029	2641578	It's all about making the whole story public.	It's all about making the whole story public.	125430440	1475376828099	1475376828196	w	87
247029	2641578	It's all about making the whole story public.	It's all about making the whole story public.	125430442	1475376828197	1475376828315	h	72
247029	2641578	It's all about making the whole story public.	It's all about making the whole story public.	125430445	1475376828267	1475376828379	o	79
247029	2641578	It's all about making the whole story public.	It's all about making the whole story public.	125430447	1475376828460	1475376828522	l	76
247029	2641578	It's all about making the whole story public.	It's all about making the whole story public.	125430469	1475376828571	1475376828667	e	69
247029	2641578	It's all about making the whole story public.	It's all about making the whole story public.	125430471	1475376828747	1475376828875	 	32
247029	2641578	It's all about making the whole story public.	It's all about making the whole story public.	125430473	1475376828891	1475376828972	s	83
247029	2641578	It's all about making the whole story public.	It's all about making the whole story public.	125430477	1475376829179	1475376829267	t	84
247029	2641578	It's all about making the whole story public.	It's all about making the whole story public.	125430480	1475376829291	1475376829411	o	79
247029	2641578	It's all about making the whole story public.	It's all about making the whole story public.	125430520	1475376829451	1475376829539	r	82
247029	2641578	It's all about making the whole story public.	It's all about making the whole story public.	125430523	1475376829539	1475376829683	y	89
247029	2641578	It's all about making the whole story public.	It's all about making the whole story public.	125430526	1475376829643	1475376829771	 	32
247029	2641578	It's all about making the whole story public.	It's all about making the whole story public.	125430529	1475376829940	1475376830059	p	80
247029	2641578	It's all about making the whole story public.	It's all about making the whole story public.	125430532	1475376830132	1475376830172	u	85
247029	2641578	It's all about making the whole story public.	It's all about making the whole story public.	125430547	1475376830227	1475376830339	b	66
247029	2641578	It's all about making the whole story public.	It's all about making the whole story public.	125430549	1475376830436	1475376830547	l	76
247029	2641578	It's all about making the whole story public.	It's all about making the whole story public.	125430551	1475376830499	1475376830636	i	73
247029	2641578	It's all about making the whole story public.	It's all about making the whole story public.	125430553	1475376830683	1475376830811	c	67
247029	2641578	It's all about making the whole story public.	It's all about making the whole story public.	125430554	1475376830827	1475376830915	.	190
247029	2641587	I spoke with Lara Robinson this morning.	I spoke with Lara Robinson this morning.	125430623	1475376833372	1475376833682	SHIFT	16
247029	2641587	I spoke with Lara Robinson this morning.	I spoke with Lara Robinson this morning.	125430624	1475376833635	1475376833755	I	73
247029	2641587	I spoke with Lara Robinson this morning.	I spoke with Lara Robinson this morning.	125430625	1475376833723	1475376833828	 	32
247029	2641587	I spoke with Lara Robinson this morning.	I spoke with Lara Robinson this morning.	125430627	1475376833812	1475376833900	s	83
247029	2641587	I spoke with Lara Robinson this morning.	I spoke with Lara Robinson this morning.	125430629	1475376833884	1475376833939	p	80
247029	2641587	I spoke with Lara Robinson this morning.	I spoke with Lara Robinson this morning.	125430631	1475376834019	1475376834115	o	79
247029	2641587	I spoke with Lara Robinson this morning.	I spoke with Lara Robinson this morning.	125430650	1475376834235	1475376834299	k	75
247029	2641587	I spoke with Lara Robinson this morning.	I spoke with Lara Robinson this morning.	125430652	1475376834347	1475376834460	e	69
247029	2641587	I spoke with Lara Robinson this morning.	I spoke with Lara Robinson this morning.	125430655	1475376834461	1475376834563	 	32
247029	2641587	I spoke with Lara Robinson this morning.	I spoke with Lara Robinson this morning.	125430659	1475376834579	1475376834676	w	87
247029	2641587	I spoke with Lara Robinson this morning.	I spoke with Lara Robinson this morning.	125430662	1475376834677	1475376834764	i	73
247029	2641587	I spoke with Lara Robinson this morning.	I spoke with Lara Robinson this morning.	125430674	1475376834767	1475376834852	t	84
247029	2641587	I spoke with Lara Robinson this morning.	I spoke with Lara Robinson this morning.	125430676	1475376834853	1475376834971	h	72
247029	2641587	I spoke with Lara Robinson this morning.	I spoke with Lara Robinson this morning.	125430679	1475376834939	1475376835052	 	32
247029	2641587	I spoke with Lara Robinson this morning.	I spoke with Lara Robinson this morning.	125430682	1475376835053	1475376835171	SHIFT	16
247029	2641587	I spoke with Lara Robinson this morning.	I spoke with Lara Robinson this morning.	125430684	1475376835107	1475376835195	L	76
247029	2641587	I spoke with Lara Robinson this morning.	I spoke with Lara Robinson this morning.	125430686	1475376835220	1475376835316	a	65
247029	2641587	I spoke with Lara Robinson this morning.	I spoke with Lara Robinson this morning.	125430706	1475376835319	1475376835403	r	82
247029	2641587	I spoke with Lara Robinson this morning.	I spoke with Lara Robinson this morning.	125430709	1475376835476	1475376835595	a	65
247029	2641587	I spoke with Lara Robinson this morning.	I spoke with Lara Robinson this morning.	125430712	1475376835619	1475376835739	 	32
247029	2641587	I spoke with Lara Robinson this morning.	I spoke with Lara Robinson this morning.	125430716	1475376835787	1475376835939	SHIFT	16
247029	2641587	I spoke with Lara Robinson this morning.	I spoke with Lara Robinson this morning.	125430720	1475376835899	1475376836012	R	82
247029	2641587	I spoke with Lara Robinson this morning.	I spoke with Lara Robinson this morning.	125430722	1475376836013	1475376836091	o	79
247029	2641587	I spoke with Lara Robinson this morning.	I spoke with Lara Robinson this morning.	125430764	1475376836491	1475376836579	b	66
247029	2641587	I spoke with Lara Robinson this morning.	I spoke with Lara Robinson this morning.	125430765	1475376836619	1475376836747	i	73
247029	2641587	I spoke with Lara Robinson this morning.	I spoke with Lara Robinson this morning.	125430766	1475376836699	1475376836795	n	78
247029	2641587	I spoke with Lara Robinson this morning.	I spoke with Lara Robinson this morning.	125430768	1475376836939	1475376836995	i	73
247029	2641587	I spoke with Lara Robinson this morning.	I spoke with Lara Robinson this morning.	125430770	1475376837315	1475376837371	BKSP	8
247029	2641587	I spoke with Lara Robinson this morning.	I spoke with Lara Robinson this morning.	125430772	1475376837428	1475376837547	s	83
247029	2641587	I spoke with Lara Robinson this morning.	I spoke with Lara Robinson this morning.	125430791	1475376837550	1475376837691	o	79
247029	2641587	I spoke with Lara Robinson this morning.	I spoke with Lara Robinson this morning.	125430792	1475376837628	1475376837772	n	78
247029	2641587	I spoke with Lara Robinson this morning.	I spoke with Lara Robinson this morning.	125430793	1475376837773	1475376837891	 	32
247029	2641587	I spoke with Lara Robinson this morning.	I spoke with Lara Robinson this morning.	125430795	1475376838059	1475376838171	t	84
247029	2641587	I spoke with Lara Robinson this morning.	I spoke with Lara Robinson this morning.	125430835	1475376838147	1475376838299	h	72
247029	2641587	I spoke with Lara Robinson this morning.	I spoke with Lara Robinson this morning.	125430838	1475376838235	1475376838332	i	73
247029	2641587	I spoke with Lara Robinson this morning.	I spoke with Lara Robinson this morning.	125430842	1475376838333	1475376838435	s	83
247029	2641587	I spoke with Lara Robinson this morning.	I spoke with Lara Robinson this morning.	125430846	1475376838467	1475376838571	 	32
247029	2641587	I spoke with Lara Robinson this morning.	I spoke with Lara Robinson this morning.	125430848	1475376839187	1475376839268	m	77
247029	2641587	I spoke with Lara Robinson this morning.	I spoke with Lara Robinson this morning.	125430858	1475376839236	1475376839347	o	79
247029	2641587	I spoke with Lara Robinson this morning.	I spoke with Lara Robinson this morning.	125430860	1475376839323	1475376839411	r	82
247029	2641587	I spoke with Lara Robinson this morning.	I spoke with Lara Robinson this morning.	125430862	1475376839452	1475376839571	n	78
247029	2641587	I spoke with Lara Robinson this morning.	I spoke with Lara Robinson this morning.	125430866	1475376839573	1475376839707	i	73
247029	2641587	I spoke with Lara Robinson this morning.	I spoke with Lara Robinson this morning.	125430872	1475376839667	1475376839748	n	78
247029	2641587	I spoke with Lara Robinson this morning.	I spoke with Lara Robinson this morning.	125430879	1475376839732	1475376839819	g	71
247029	2641587	I spoke with Lara Robinson this morning.	I spoke with Lara Robinson this morning.	125430881	1475376839883	1475376839979	.	190
