PARTICIPANT_ID	TEST_SECTION_ID	SENTENCE	USER_INPUT	KEYSTROKE_ID	PRESS_TIME	RELEASE_TIME	LETTER	KEYCODE
247040	2641560	I am unavailable for the 1PM meeting.	i am unavailable for the 1PM meeting.	125429393	1475376781459	1475376781537	i	73
247040	2641560	I am unavailable for the 1PM meeting.	i am unavailable for the 1PM meeting.	125429396	1475376781463	1475376781554	CAPS_LOCK	20
247040	2641560	I am unavailable for the 1PM meeting.	i am unavailable for the 1PM meeting.	125429398	1475376781602	1475376781697	 	32
247040	2641560	I am unavailable for the 1PM meeting.	i am unavailable for the 1PM meeting.	125429400	1475376781737	1475376781849	a	65
247040	2641560	I am unavailable for the 1PM meeting.	i am unavailable for the 1PM meeting.	125429402	1475376781818	1475376781939	m	77
247040	2641560	I am unavailable for the 1PM meeting.	i am unavailable for the 1PM meeting.	125429458	1475376781914	1475376781985	 	32
247040	2641560	I am unavailable for the 1PM meeting.	i am unavailable for the 1PM meeting.	125429459	1475376782505	1475376782569	u	85
247040	2641560	I am unavailable for the 1PM meeting.	i am unavailable for the 1PM meeting.	125429460	1475376782697	1475376782761	n	78
247040	2641560	I am unavailable for the 1PM meeting.	i am unavailable for the 1PM meeting.	125429462	1475376782794	1475376782905	a	65
247040	2641560	I am unavailable for the 1PM meeting.	i am unavailable for the 1PM meeting.	125429466	1475376782937	1475376782977	b	66
247040	2641560	I am unavailable for the 1PM meeting.	i am unavailable for the 1PM meeting.	125429470	1475376783457	1475376783529	BKSP	8
247040	2641560	I am unavailable for the 1PM meeting.	i am unavailable for the 1PM meeting.	125429473	1475376783546	1475376783657	v	86
247040	2641560	I am unavailable for the 1PM meeting.	i am unavailable for the 1PM meeting.	125429489	1475376783642	1475376783737	a	65
247040	2641560	I am unavailable for the 1PM meeting.	i am unavailable for the 1PM meeting.	125429491	1475376783734	1475376783769	i	73
247040	2641560	I am unavailable for the 1PM meeting.	i am unavailable for the 1PM meeting.	125429493	1475376783865	1475376783945	l	76
247040	2641560	I am unavailable for the 1PM meeting.	i am unavailable for the 1PM meeting.	125429494	1475376783970	1475376784081	a	65
247040	2641560	I am unavailable for the 1PM meeting.	i am unavailable for the 1PM meeting.	125429495	1475376784106	1475376784170	b	66
247040	2641560	I am unavailable for the 1PM meeting.	i am unavailable for the 1PM meeting.	125429497	1475376784345	1475376784441	e	69
247040	2641560	I am unavailable for the 1PM meeting.	i am unavailable for the 1PM meeting.	125429523	1475376784746	1475376784808	BKSP	8
247040	2641560	I am unavailable for the 1PM meeting.	i am unavailable for the 1PM meeting.	125429525	1475376784962	1475376785065	l	76
247040	2641560	I am unavailable for the 1PM meeting.	i am unavailable for the 1PM meeting.	125429527	1475376785041	1475376785145	e	69
247040	2641560	I am unavailable for the 1PM meeting.	i am unavailable for the 1PM meeting.	125429529	1475376785162	1475376785249	 	32
247040	2641560	I am unavailable for the 1PM meeting.	i am unavailable for the 1PM meeting.	125429531	1475376785282	1475376785369	o	79
247040	2641560	I am unavailable for the 1PM meeting.	i am unavailable for the 1PM meeting.	125429535	1475376785401	1475376785489	f	70
247040	2641560	I am unavailable for the 1PM meeting.	i am unavailable for the 1PM meeting.	125429589	1475376785506	1475376785578	 	32
247040	2641560	I am unavailable for the 1PM meeting.	i am unavailable for the 1PM meeting.	125429591	1475376785634	1475376785697	t	84
247040	2641560	I am unavailable for the 1PM meeting.	i am unavailable for the 1PM meeting.	125429593	1475376786001	1475376786064	BKSP	8
247040	2641560	I am unavailable for the 1PM meeting.	i am unavailable for the 1PM meeting.	125429595	1475376786153	1475376786233	BKSP	8
247040	2641560	I am unavailable for the 1PM meeting.	i am unavailable for the 1PM meeting.	125429597	1475376786321	1475376786393	BKSP	8
247040	2641560	I am unavailable for the 1PM meeting.	i am unavailable for the 1PM meeting.	125429599	1475376786505	1475376786547	BKSP	8
247040	2641560	I am unavailable for the 1PM meeting.	i am unavailable for the 1PM meeting.	125429602	1475376786617	1475376786713	BKSP	8
247040	2641560	I am unavailable for the 1PM meeting.	i am unavailable for the 1PM meeting.	125429605	1475376786817	1475376786937	f	70
247040	2641560	I am unavailable for the 1PM meeting.	i am unavailable for the 1PM meeting.	125429608	1475376786906	1475376787009	o	79
247040	2641560	I am unavailable for the 1PM meeting.	i am unavailable for the 1PM meeting.	125429611	1475376787050	1475376787121	r	82
247040	2641560	I am unavailable for the 1PM meeting.	i am unavailable for the 1PM meeting.	125429652	1475376787353	1475376787417	BKSP	8
247040	2641560	I am unavailable for the 1PM meeting.	i am unavailable for the 1PM meeting.	125429655	1475376787513	1475376787569	BKSP	8
247040	2641560	I am unavailable for the 1PM meeting.	i am unavailable for the 1PM meeting.	125429658	1475376787657	1475376787745	BKSP	8
247040	2641560	I am unavailable for the 1PM meeting.	i am unavailable for the 1PM meeting.	125429659	1475376787841	1475376787929	 	32
247040	2641560	I am unavailable for the 1PM meeting.	i am unavailable for the 1PM meeting.	125429660	1475376787977	1475376788065	f	70
247040	2641560	I am unavailable for the 1PM meeting.	i am unavailable for the 1PM meeting.	125429661	1475376788049	1475376788153	o	79
247040	2641560	I am unavailable for the 1PM meeting.	i am unavailable for the 1PM meeting.	125429662	1475376788163	1475376788249	r	82
247040	2641560	I am unavailable for the 1PM meeting.	i am unavailable for the 1PM meeting.	125429663	1475376788257	1475376788305	 	32
247040	2641560	I am unavailable for the 1PM meeting.	i am unavailable for the 1PM meeting.	125429692	1475376788361	1475376788441	t	84
247040	2641560	I am unavailable for the 1PM meeting.	i am unavailable for the 1PM meeting.	125429695	1475376788434	1475376788513	h	72
247040	2641560	I am unavailable for the 1PM meeting.	i am unavailable for the 1PM meeting.	125429697	1475376788545	1475376788641	e	69
247040	2641560	I am unavailable for the 1PM meeting.	i am unavailable for the 1PM meeting.	125429699	1475376788650	1475376788721	 	32
247040	2641560	I am unavailable for the 1PM meeting.	i am unavailable for the 1PM meeting.	125429701	1475376789181	1475376789312	1	49
247040	2641560	I am unavailable for the 1PM meeting.	i am unavailable for the 1PM meeting.	125429777	1475376789361	1475376789444	p	80
247040	2641560	I am unavailable for the 1PM meeting.	i am unavailable for the 1PM meeting.	125429787	1475376789555	1475376791002	CAPS_LOCK	20
247040	2641560	I am unavailable for the 1PM meeting.	i am unavailable for the 1PM meeting.	125429781	1475376789833	1475376789905	BKSP	8
247040	2641560	I am unavailable for the 1PM meeting.	i am unavailable for the 1PM meeting.	125429783	1475376790081	1475376790217	P	80
247040	2641560	I am unavailable for the 1PM meeting.	i am unavailable for the 1PM meeting.	125429785	1475376790233	1475376790264	M	77
247040	2641560	I am unavailable for the 1PM meeting.	i am unavailable for the 1PM meeting.	125429786	1475376790841	1475376790920	 	32
247040	2641560	I am unavailable for the 1PM meeting.	i am unavailable for the 1PM meeting.	125429788	1475376791129	1475376791217	m	77
247040	2641560	I am unavailable for the 1PM meeting.	i am unavailable for the 1PM meeting.	125429795	1475376791225	1475376791298	e	69
247040	2641560	I am unavailable for the 1PM meeting.	i am unavailable for the 1PM meeting.	125429798	1475376791393	1475376791545	e	69
247040	2641560	I am unavailable for the 1PM meeting.	i am unavailable for the 1PM meeting.	125429803	1475376791505	1475376791625	t	84
247040	2641560	I am unavailable for the 1PM meeting.	i am unavailable for the 1PM meeting.	125429807	1475376791594	1475376791737	i	73
247040	2641560	I am unavailable for the 1PM meeting.	i am unavailable for the 1PM meeting.	125429819	1475376791681	1475376791761	n	78
247040	2641560	I am unavailable for the 1PM meeting.	i am unavailable for the 1PM meeting.	125429821	1475376791769	1475376791857	g	71
247040	2641560	I am unavailable for the 1PM meeting.	i am unavailable for the 1PM meeting.	125429823	1475376791905	1475376791976	.	190
247040	2641572	I told you silly.	I told you silly.	125429879	1475376794328	1475376794434	I	20
247040	2641572	I told you silly.	I told you silly.	125429882	1475376794537	1475376794617	 	32
247040	2641572	I told you silly.	I told you silly.	125429885	1475376794600	1475376794697	t	84
247040	2641572	I told you silly.	I told you silly.	125429887	1475376794705	1475376794753	o	79
247040	2641572	I told you silly.	I told you silly.	125429891	1475376794873	1475376794953	l	76
247040	2641572	I told you silly.	I told you silly.	125429907	1475376794921	1475376795033	d	68
247040	2641572	I told you silly.	I told you silly.	125429909	1475376795017	1475376795161	 	32
247040	2641572	I told you silly.	I told you silly.	125429911	1475376795129	1475376795193	y	89
247040	2641572	I told you silly.	I told you silly.	125429912	1475376795249	1475376795361	o	79
247040	2641572	I told you silly.	I told you silly.	125429914	1475376795321	1475376795425	u	85
247040	2641572	I told you silly.	I told you silly.	125429926	1475376795409	1475376795466	 	32
247040	2641572	I told you silly.	I told you silly.	125429927	1475376795465	1475376795553	s	83
247040	2641572	I told you silly.	I told you silly.	125429928	1475376795521	1475376795585	i	73
247040	2641572	I told you silly.	I told you silly.	125429929	1475376795672	1475376795712	l	76
247040	2641572	I told you silly.	I told you silly.	125429931	1475376795793	1475376795905	l	76
247040	2641572	I told you silly.	I told you silly.	125429934	1475376795913	1475376795985	y	89
247040	2641572	I told you silly.	I told you silly.	125429943	1475376796105	1475376796185	.	190
247040	2641575	I will be taking the first week in December off, though.	I will be taking the first week in December off, though.	125429999	1475376798007	1475376798106	CAPS_LOCK	20
247040	2641575	I will be taking the first week in December off, though.	I will be taking the first week in December off, though.	125429996	1475376798030	1475376798106	I	73
247040	2641575	I will be taking the first week in December off, though.	I will be taking the first week in December off, though.	125430001	1475376798201	1475376798273	 	32
247040	2641575	I will be taking the first week in December off, though.	I will be taking the first week in December off, though.	125430003	1475376798281	1475376798408	w	87
247040	2641575	I will be taking the first week in December off, though.	I will be taking the first week in December off, though.	125430005	1475376798353	1475376798430	i	73
247040	2641575	I will be taking the first week in December off, though.	I will be taking the first week in December off, though.	125430010	1475376798513	1475376798568	l	76
247040	2641575	I will be taking the first week in December off, though.	I will be taking the first week in December off, though.	125430018	1475376798626	1475376798770	l	76
247040	2641575	I will be taking the first week in December off, though.	I will be taking the first week in December off, though.	125430020	1475376798729	1475376798801	 	32
247040	2641575	I will be taking the first week in December off, though.	I will be taking the first week in December off, though.	125430023	1475376798897	1475376798976	b	66
247040	2641575	I will be taking the first week in December off, though.	I will be taking the first week in December off, though.	125430027	1475376799001	1475376799113	e	69
247040	2641575	I will be taking the first week in December off, though.	I will be taking the first week in December off, though.	125430046	1475376799081	1475376799197	 	32
247040	2641575	I will be taking the first week in December off, though.	I will be taking the first week in December off, though.	125430049	1475376799233	1475376799336	t	84
247040	2641575	I will be taking the first week in December off, though.	I will be taking the first week in December off, though.	125430052	1475376799321	1475376799433	a	65
247040	2641575	I will be taking the first week in December off, though.	I will be taking the first week in December off, though.	125430055	1475376799353	1475376799433	k	75
247040	2641575	I will be taking the first week in December off, though.	I will be taking the first week in December off, though.	125430058	1475376799520	1475376799640	i	73
247040	2641575	I will be taking the first week in December off, though.	I will be taking the first week in December off, though.	125430075	1475376799617	1475376799737	n	78
247040	2641575	I will be taking the first week in December off, though.	I will be taking the first week in December off, though.	125430079	1475376799693	1475376799753	g	71
247040	2641575	I will be taking the first week in December off, though.	I will be taking the first week in December off, though.	125430084	1475376799761	1475376799832	 	32
247040	2641575	I will be taking the first week in December off, though.	I will be taking the first week in December off, though.	125430088	1475376799850	1475376799938	t	84
247040	2641575	I will be taking the first week in December off, though.	I will be taking the first week in December off, though.	125430092	1475376799921	1475376799985	h	72
247040	2641575	I will be taking the first week in December off, though.	I will be taking the first week in December off, though.	125430099	1475376800001	1475376800096	e	69
247040	2641575	I will be taking the first week in December off, though.	I will be taking the first week in December off, though.	125430107	1475376800090	1475376800190	 	32
247040	2641575	I will be taking the first week in December off, though.	I will be taking the first week in December off, though.	125430108	1475376800189	1475376800252	f	70
247040	2641575	I will be taking the first week in December off, though.	I will be taking the first week in December off, though.	125430109	1475376800252	1475376800344	i	73
247040	2641575	I will be taking the first week in December off, though.	I will be taking the first week in December off, though.	125430111	1475376800329	1475376800425	r	82
247040	2641575	I will be taking the first week in December off, though.	I will be taking the first week in December off, though.	125430113	1475376800433	1475376800593	s	83
247040	2641575	I will be taking the first week in December off, though.	I will be taking the first week in December off, though.	125430124	1475376800553	1475376800656	t	84
247040	2641575	I will be taking the first week in December off, though.	I will be taking the first week in December off, though.	125430127	1475376800617	1475376800704	 	32
247040	2641575	I will be taking the first week in December off, though.	I will be taking the first week in December off, though.	125430130	1475376800745	1475376800881	w	87
247040	2641575	I will be taking the first week in December off, though.	I will be taking the first week in December off, though.	125430132	1475376800833	1475376800913	e	69
247040	2641575	I will be taking the first week in December off, though.	I will be taking the first week in December off, though.	125430133	1475376801001	1475376801121	e	69
247040	2641575	I will be taking the first week in December off, though.	I will be taking the first week in December off, though.	125430159	1475376801097	1475376801216	k	75
247040	2641575	I will be taking the first week in December off, though.	I will be taking the first week in December off, though.	125430161	1475376801241	1475376801280	 	32
247040	2641575	I will be taking the first week in December off, though.	I will be taking the first week in December off, though.	125430163	1475376801553	1475376801712	i	73
247040	2641575	I will be taking the first week in December off, though.	I will be taking the first week in December off, though.	125430167	1475376801672	1475376801849	n	78
247040	2641575	I will be taking the first week in December off, though.	I will be taking the first week in December off, though.	125430171	1475376801817	1475376801937	 	32
247040	2641575	I will be taking the first week in December off, though.	I will be taking the first week in December off, though.	125430212	1475376802039	1475376802178	D	20
247040	2641575	I will be taking the first week in December off, though.	I will be taking the first week in December off, though.	125430217	1475376802248	1475376802355	e	69
247040	2641575	I will be taking the first week in December off, though.	I will be taking the first week in December off, though.	125430220	1475376802443	1475376802545	c	67
247040	2641575	I will be taking the first week in December off, though.	I will be taking the first week in December off, though.	125430223	1475376802721	1475376802840	e	69
247040	2641575	I will be taking the first week in December off, though.	I will be taking the first week in December off, though.	125430226	1475376802928	1475376803008	m	77
247040	2641575	I will be taking the first week in December off, though.	I will be taking the first week in December off, though.	125430229	1475376803137	1475376803209	b	66
247040	2641575	I will be taking the first week in December off, though.	I will be taking the first week in December off, though.	125430245	1475376803218	1475376803369	e	69
247040	2641575	I will be taking the first week in December off, though.	I will be taking the first week in December off, though.	125430246	1475376803321	1475376803440	r	82
247040	2641575	I will be taking the first week in December off, though.	I will be taking the first week in December off, though.	125430248	1475376803601	1475376803689	 	32
247040	2641575	I will be taking the first week in December off, though.	I will be taking the first week in December off, though.	125430250	1475376803809	1475376803896	o	79
247040	2641575	I will be taking the first week in December off, though.	I will be taking the first week in December off, though.	125430273	1475376803881	1475376803952	f	70
247040	2641575	I will be taking the first week in December off, though.	I will be taking the first week in December off, though.	125430274	1475376804048	1475376804145	f	70
247040	2641575	I will be taking the first week in December off, though.	I will be taking the first week in December off, though.	125430275	1475376804153	1475376804272	,	188
247040	2641575	I will be taking the first week in December off, though.	I will be taking the first week in December off, though.	125430276	1475376804249	1475376804328	 	32
247040	2641575	I will be taking the first week in December off, though.	I will be taking the first week in December off, though.	125430277	1475376804441	1475376804544	t	84
247040	2641575	I will be taking the first week in December off, though.	I will be taking the first week in December off, though.	125430278	1475376804525	1475376804585	h	72
247040	2641575	I will be taking the first week in December off, though.	I will be taking the first week in December off, though.	125430280	1475376804626	1475376804760	o	79
247040	2641575	I will be taking the first week in December off, though.	I will be taking the first week in December off, though.	125430282	1475376804721	1475376804768	u	85
247040	2641575	I will be taking the first week in December off, though.	I will be taking the first week in December off, though.	125430286	1475376804793	1475376804888	g	71
247040	2641575	I will be taking the first week in December off, though.	I will be taking the first week in December off, though.	125430290	1475376804881	1475376804921	h	72
247040	2641575	I will be taking the first week in December off, though.	I will be taking the first week in December off, though.	125430296	1475376805042	1475376805121	.	190
247040	2641580	It's not working very well.	It's not working very well	125430355	1475376806791	1475376806881	I	20
247040	2641580	It's not working very well.	It's not working very well	125430358	1475376806968	1475376807080	t	84
247040	2641580	It's not working very well.	It's not working very well	125430360	1475376807105	1475376807176	'	222
247040	2641580	It's not working very well.	It's not working very well	125430362	1475376807217	1475376807320	s	83
247040	2641580	It's not working very well.	It's not working very well	125430380	1475376807313	1475376807408	 	32
247040	2641580	It's not working very well.	It's not working very well	125430381	1475376807537	1475376807649	n	78
247040	2641580	It's not working very well.	It's not working very well	125430383	1475376807616	1475376807736	o	79
247040	2641580	It's not working very well.	It's not working very well	125430385	1475376807689	1475376807777	t	84
247040	2641580	It's not working very well.	It's not working very well	125430388	1475376807825	1475376807906	 	32
247040	2641580	It's not working very well.	It's not working very well	125430409	1475376807896	1475376807984	w	87
247040	2641580	It's not working very well.	It's not working very well	125430413	1475376807993	1475376808057	o	79
247040	2641580	It's not working very well.	It's not working very well	125430417	1475376808065	1475376808168	r	82
247040	2641580	It's not working very well.	It's not working very well	125430421	1475376808153	1475376808257	k	75
247040	2641580	It's not working very well.	It's not working very well	125430426	1475376808409	1475376808568	i	73
247040	2641580	It's not working very well.	It's not working very well	125430453	1475376808513	1475376808641	n	78
247040	2641580	It's not working very well.	It's not working very well	125430455	1475376808641	1475376808779	g	71
247040	2641580	It's not working very well.	It's not working very well	125430459	1475376808780	1475376808865	 	32
247040	2641580	It's not working very well.	It's not working very well	125430462	1475376809137	1475376809195	v	86
247040	2641580	It's not working very well.	It's not working very well	125430465	1475376809277	1475376809408	e	69
247040	2641580	It's not working very well.	It's not working very well	125430479	1475376809368	1475376809480	r	82
247040	2641580	It's not working very well.	It's not working very well	125430483	1475376809426	1475376809568	y	89
247040	2641580	It's not working very well.	It's not working very well	125430489	1475376809528	1475376809643	 	32
247040	2641580	It's not working very well.	It's not working very well	125430495	1475376809768	1475376809904	w	87
247040	2641580	It's not working very well.	It's not working very well	125430498	1475376809844	1475376809960	e	69
247040	2641580	It's not working very well.	It's not working very well	125430500	1475376809976	1475376810032	l	76
247040	2641580	It's not working very well.	It's not working very well	125430508	1475376810104	1475376810216	l	76
247040	2641584	Michael was great this AM.	Michael was great this AM.	125430584	1475376812132	1475376812241	M	20
247040	2641584	Michael was great this AM.	Michael was great this AM.	125430586	1475376812320	1475376812400	i	73
247040	2641584	Michael was great this AM.	Michael was great this AM.	125430588	1475376812480	1475376812584	c	67
247040	2641584	Michael was great this AM.	Michael was great this AM.	125430589	1475376812552	1475376812624	h	72
247040	2641584	Michael was great this AM.	Michael was great this AM.	125430590	1475376812697	1475376812848	a	65
247040	2641584	Michael was great this AM.	Michael was great this AM.	125430600	1475376812800	1475376812928	e	69
247040	2641584	Michael was great this AM.	Michael was great this AM.	125430603	1475376812936	1475376813040	l	76
247040	2641584	Michael was great this AM.	Michael was great this AM.	125430606	1475376813104	1475376813208	 	32
247040	2641584	Michael was great this AM.	Michael was great this AM.	125430609	1475376813240	1475376813329	w	87
247040	2641584	Michael was great this AM.	Michael was great this AM.	125430612	1475376813328	1475376813488	a	65
247040	2641584	Michael was great this AM.	Michael was great this AM.	125430618	1475376813440	1475376813576	s	83
247040	2641584	Michael was great this AM.	Michael was great this AM.	125430619	1475376813496	1475376813616	 	32
247040	2641584	Michael was great this AM.	Michael was great this AM.	125430620	1475376813768	1475376813848	g	71
247040	2641584	Michael was great this AM.	Michael was great this AM.	125430621	1475376813968	1475376814113	r	82
247040	2641584	Michael was great this AM.	Michael was great this AM.	125430622	1475376814048	1475376814192	e	69
247040	2641584	Michael was great this AM.	Michael was great this AM.	125430633	1475376814140	1475376814272	a	65
247040	2641584	Michael was great this AM.	Michael was great this AM.	125430635	1475376814256	1475376814336	t	84
247040	2641584	Michael was great this AM.	Michael was great this AM.	125430637	1475376814352	1475376814456	 	32
247040	2641584	Michael was great this AM.	Michael was great this AM.	125430641	1475376814600	1475376814720	t	84
247040	2641584	Michael was great this AM.	Michael was great this AM.	125430643	1475376814688	1475376814832	h	72
247040	2641584	Michael was great this AM.	Michael was great this AM.	125430669	1475376814808	1475376814896	i	73
247040	2641584	Michael was great this AM.	Michael was great this AM.	125430670	1475376814888	1475376814984	s	83
247040	2641584	Michael was great this AM.	Michael was great this AM.	125430672	1475376815000	1475376815088	 	32
247040	2641584	Michael was great this AM.	Michael was great this AM.	125430675	1475376815264	1475376815391	a	65
247040	2641584	Michael was great this AM.	Michael was great this AM.	125430678	1475376815361	1475376815440	m	77
247040	2641584	Michael was great this AM.	Michael was great this AM.	125430681	1475376815552	1475376815624	.	190
247040	2641584	Michael was great this AM.	Michael was great this AM.	125430725	1475376815936	1475376815993	BKSP	8
247040	2641584	Michael was great this AM.	Michael was great this AM.	125430726	1475376816072	1475376816144	BKSP	8
247040	2641584	Michael was great this AM.	Michael was great this AM.	125430728	1475376816200	1475376816288	BKSP	8
247040	2641584	Michael was great this AM.	Michael was great this AM.	125430730	1475376816448	1475376816584	A	65
247040	2641584	Michael was great this AM.	Michael was great this AM.	125430732	1475376816532	1475376816640	M	77
247040	2641584	Michael was great this AM.	Michael was great this AM.	125430734	1475376816808	1475376816896	.	190
247040	2641590	I know several who work there.	I know several who work there.	125430850	1475376819008	1475376819104	I	73
247040	2641590	I know several who work there.	I know several who work there.	125430852	1475376819224	1475376819312	 	32
247040	2641590	I know several who work there.	I know several who work there.	125430853	1475376819288	1475376819516	k	75
247040	2641590	I know several who work there.	I know several who work there.	125430883	1475376819514	1475376819517	o	78
247040	2641590	I know several who work there.	I know several who work there.	125430884	1475376819515	1475376819576	w	79
247040	2641590	I know several who work there.	I know several who work there.	125430885	1475376819640	1475376819752	 	32
247040	2641590	I know several who work there.	I know several who work there.	125430887	1475376820233	1475376820352	s	83
247040	2641590	I know several who work there.	I know several who work there.	125430889	1475376820320	1475376820440	e	69
247040	2641590	I know several who work there.	I know several who work there.	125430891	1475376820520	1475376820608	v	86
247040	2641590	I know several who work there.	I know several who work there.	125430908	1475376820665	1475376820744	e	69
247040	2641590	I know several who work there.	I know several who work there.	125430910	1475376820889	1475376820993	r	82
247040	2641590	I know several who work there.	I know several who work there.	125430915	1475376821128	1475376821264	a	65
247040	2641590	I know several who work there.	I know several who work there.	125430920	1475376821240	1475376821400	l	76
247040	2641590	I know several who work there.	I know several who work there.	125430931	1475376821368	1475376821480	 	32
247040	2641590	I know several who work there.	I know several who work there.	125430933	1475376821545	1475376821665	w	87
247040	2641590	I know several who work there.	I know several who work there.	125430934	1475376821664	1475376821808	h	72
247040	2641590	I know several who work there.	I know several who work there.	125430935	1475376821736	1475376821856	o	79
247040	2641590	I know several who work there.	I know several who work there.	125430936	1475376821848	1475376821968	 	32
247040	2641590	I know several who work there.	I know several who work there.	125430938	1475376822008	1475376822120	w	87
247040	2641590	I know several who work there.	I know several who work there.	125430953	1475376822088	1475376822160	o	79
247040	2641590	I know several who work there.	I know several who work there.	125430956	1475376822192	1475376822321	r	82
247040	2641590	I know several who work there.	I know several who work there.	125430958	1475376822304	1475376822439	k	75
247040	2641590	I know several who work there.	I know several who work there.	125430960	1475376822432	1475376822536	 	32
247040	2641590	I know several who work there.	I know several who work there.	125430962	1475376822624	1475376822728	t	84
247040	2641590	I know several who work there.	I know several who work there.	125430986	1475376822720	1475376822800	h	72
247040	2641590	I know several who work there.	I know several who work there.	125430989	1475376822816	1475376822912	e	69
247040	2641590	I know several who work there.	I know several who work there.	125430992	1475376822872	1475376823072	r	82
247040	2641590	I know several who work there.	I know several who work there.	125430994	1475376823000	1475376823152	e	69
247040	2641590	I know several who work there.	I know several who work there.	125430997	1475376823160	1475376823248	.	190
247040	2641596	He said he would resist all the pressure of time deadlines.	He said he would resist all the pressure of time deadlines.	125431064	1475376825438	1475376825553	CAPS_LOCK	20
247040	2641596	He said he would resist all the pressure of time deadlines.	He said he would resist all the pressure of time deadlines.	125431067	1475376825480	1475376825568	H	72
247040	2641596	He said he would resist all the pressure of time deadlines.	He said he would resist all the pressure of time deadlines.	125431070	1475376825656	1475376825776	e	69
247040	2641596	He said he would resist all the pressure of time deadlines.	He said he would resist all the pressure of time deadlines.	125431073	1475376825761	1475376825920	 	32
247040	2641596	He said he would resist all the pressure of time deadlines.	He said he would resist all the pressure of time deadlines.	125431075	1475376825923	1475376826036	s	83
247040	2641596	He said he would resist all the pressure of time deadlines.	He said he would resist all the pressure of time deadlines.	125431089	1475376825958	1475376826104	a	65
247040	2641596	He said he would resist all the pressure of time deadlines.	He said he would resist all the pressure of time deadlines.	125431092	1475376826072	1475376826160	i	73
247040	2641596	He said he would resist all the pressure of time deadlines.	He said he would resist all the pressure of time deadlines.	125431096	1475376826184	1475376826296	d	68
247040	2641596	He said he would resist all the pressure of time deadlines.	He said he would resist all the pressure of time deadlines.	125431099	1475376826320	1475376826400	 	32
247040	2641596	He said he would resist all the pressure of time deadlines.	He said he would resist all the pressure of time deadlines.	125431102	1475376826552	1475376826624	h	72
247040	2641596	He said he would resist all the pressure of time deadlines.	He said he would resist all the pressure of time deadlines.	125431106	1475376826600	1475376826712	e	69
247040	2641596	He said he would resist all the pressure of time deadlines.	He said he would resist all the pressure of time deadlines.	125431110	1475376826736	1475376826831	 	32
247040	2641596	He said he would resist all the pressure of time deadlines.	He said he would resist all the pressure of time deadlines.	125431113	1475376826816	1475376826912	w	87
247040	2641596	He said he would resist all the pressure of time deadlines.	He said he would resist all the pressure of time deadlines.	125431116	1475376826896	1475376827016	o	79
247040	2641596	He said he would resist all the pressure of time deadlines.	He said he would resist all the pressure of time deadlines.	125431118	1475376826961	1475376827064	u	85
247040	2641596	He said he would resist all the pressure of time deadlines.	He said he would resist all the pressure of time deadlines.	125431120	1475376827136	1475376827248	l	76
247040	2641596	He said he would resist all the pressure of time deadlines.	He said he would resist all the pressure of time deadlines.	125431135	1475376827200	1475376827296	d	68
247040	2641596	He said he would resist all the pressure of time deadlines.	He said he would resist all the pressure of time deadlines.	125431137	1475376827312	1475376827424	 	32
247040	2641596	He said he would resist all the pressure of time deadlines.	He said he would resist all the pressure of time deadlines.	125431138	1475376827440	1475376827528	r	82
247040	2641596	He said he would resist all the pressure of time deadlines.	He said he would resist all the pressure of time deadlines.	125431139	1475376827504	1475376827640	e	69
247040	2641596	He said he would resist all the pressure of time deadlines.	He said he would resist all the pressure of time deadlines.	125431140	1475376827640	1475376827728	s	83
247040	2641596	He said he would resist all the pressure of time deadlines.	He said he would resist all the pressure of time deadlines.	125431141	1475376827744	1475376827823	i	73
247040	2641596	He said he would resist all the pressure of time deadlines.	He said he would resist all the pressure of time deadlines.	125431155	1475376827825	1475376827936	s	83
247040	2641596	He said he would resist all the pressure of time deadlines.	He said he would resist all the pressure of time deadlines.	125431159	1475376828088	1475376828192	t	84
247040	2641596	He said he would resist all the pressure of time deadlines.	He said he would resist all the pressure of time deadlines.	125431161	1475376828320	1475376828432	 	32
247040	2641596	He said he would resist all the pressure of time deadlines.	He said he would resist all the pressure of time deadlines.	125431163	1475376828480	1475376828614	a	65
247040	2641596	He said he would resist all the pressure of time deadlines.	He said he would resist all the pressure of time deadlines.	125431168	1475376828568	1475376828647	l	76
247040	2641596	He said he would resist all the pressure of time deadlines.	He said he would resist all the pressure of time deadlines.	125431170	1475376828712	1475376828847	l	76
247040	2641596	He said he would resist all the pressure of time deadlines.	He said he would resist all the pressure of time deadlines.	125431174	1475376828815	1475376828879	 	32
247040	2641596	He said he would resist all the pressure of time deadlines.	He said he would resist all the pressure of time deadlines.	125431178	1475376828904	1475376829006	t	84
247040	2641596	He said he would resist all the pressure of time deadlines.	He said he would resist all the pressure of time deadlines.	125431183	1475376828974	1475376829047	h	72
247040	2641596	He said he would resist all the pressure of time deadlines.	He said he would resist all the pressure of time deadlines.	125431186	1475376829080	1475376829207	e	69
247040	2641596	He said he would resist all the pressure of time deadlines.	He said he would resist all the pressure of time deadlines.	125431196	1475376829135	1475376829264	 	32
247040	2641596	He said he would resist all the pressure of time deadlines.	He said he would resist all the pressure of time deadlines.	125431198	1475376829255	1475376829359	p	80
247040	2641596	He said he would resist all the pressure of time deadlines.	He said he would resist all the pressure of time deadlines.	125431200	1475376829368	1475376829471	r	82
247040	2641596	He said he would resist all the pressure of time deadlines.	He said he would resist all the pressure of time deadlines.	125431202	1475376829440	1475376829586	e	69
247040	2641596	He said he would resist all the pressure of time deadlines.	He said he would resist all the pressure of time deadlines.	125431205	1475376829546	1475376829631	s	83
247040	2641596	He said he would resist all the pressure of time deadlines.	He said he would resist all the pressure of time deadlines.	125431209	1475376829717	1475376829831	s	83
247040	2641596	He said he would resist all the pressure of time deadlines.	He said he would resist all the pressure of time deadlines.	125431225	1475376829800	1475376829911	u	85
247040	2641596	He said he would resist all the pressure of time deadlines.	He said he would resist all the pressure of time deadlines.	125431227	1475376830079	1475376830199	r	82
247040	2641596	He said he would resist all the pressure of time deadlines.	He said he would resist all the pressure of time deadlines.	125431229	1475376830256	1475376830384	e	69
247040	2641596	He said he would resist all the pressure of time deadlines.	He said he would resist all the pressure of time deadlines.	125431231	1475376830416	1475376830488	 	32
247040	2641596	He said he would resist all the pressure of time deadlines.	He said he would resist all the pressure of time deadlines.	125431233	1475376830567	1475376830671	o	79
247040	2641596	He said he would resist all the pressure of time deadlines.	He said he would resist all the pressure of time deadlines.	125431248	1475376830664	1475376830768	f	70
247040	2641596	He said he would resist all the pressure of time deadlines.	He said he would resist all the pressure of time deadlines.	125431252	1475376830753	1475376830840	 	32
247040	2641596	He said he would resist all the pressure of time deadlines.	He said he would resist all the pressure of time deadlines.	125431254	1475376830872	1475376830976	t	84
247040	2641596	He said he would resist all the pressure of time deadlines.	He said he would resist all the pressure of time deadlines.	125431258	1475376830920	1475376831083	i	73
247040	2641596	He said he would resist all the pressure of time deadlines.	He said he would resist all the pressure of time deadlines.	125431262	1475376831032	1475376831135	m	77
247040	2641596	He said he would resist all the pressure of time deadlines.	He said he would resist all the pressure of time deadlines.	125431283	1475376831096	1475376831223	e	69
247040	2641596	He said he would resist all the pressure of time deadlines.	He said he would resist all the pressure of time deadlines.	125431285	1475376831255	1475376831344	 	32
247040	2641596	He said he would resist all the pressure of time deadlines.	He said he would resist all the pressure of time deadlines.	125431287	1475376831360	1475376831448	d	68
247040	2641596	He said he would resist all the pressure of time deadlines.	He said he would resist all the pressure of time deadlines.	125431290	1475376831520	1475376831615	e	69
247040	2641596	He said he would resist all the pressure of time deadlines.	He said he would resist all the pressure of time deadlines.	125431293	1475376831768	1475376831968	a	65
247040	2641596	He said he would resist all the pressure of time deadlines.	He said he would resist all the pressure of time deadlines.	125431322	1475376831928	1475376832048	d	68
247040	2641596	He said he would resist all the pressure of time deadlines.	He said he would resist all the pressure of time deadlines.	125431325	1475376832280	1475376832448	l	76
247040	2641596	He said he would resist all the pressure of time deadlines.	He said he would resist all the pressure of time deadlines.	125431327	1475376832400	1475376832567	i	73
247040	2641596	He said he would resist all the pressure of time deadlines.	He said he would resist all the pressure of time deadlines.	125431329	1475376832528	1475376832679	n	78
247040	2641596	He said he would resist all the pressure of time deadlines.	He said he would resist all the pressure of time deadlines.	125431331	1475376832624	1475376832770	e	69
247040	2641596	He said he would resist all the pressure of time deadlines.	He said he would resist all the pressure of time deadlines.	125431334	1475376832703	1475376832828	s	83
247040	2641596	He said he would resist all the pressure of time deadlines.	He said he would resist all the pressure of time deadlines.	125431338	1475376832872	1475376832960	.	190
247040	2641601	You have 6 active players at position WR.	You have 6 active players at position WR.	125431474	1475376834702	1475376834833	CAPS_LOCK	20
247040	2641601	You have 6 active players at position WR.	You have 6 active players at position WR.	125431476	1475376834927	1475376835063	o	79
247040	2641601	You have 6 active players at position WR.	You have 6 active players at position WR.	125431479	1475376835048	1475376835127	u	85
247040	2641601	You have 6 active players at position WR.	You have 6 active players at position WR.	125431482	1475376835376	1475376835439	BKSP	8
247040	2641601	You have 6 active players at position WR.	You have 6 active players at position WR.	125431484	1475376835643	1475376835724	BKSP	8
247040	2641601	You have 6 active players at position WR.	You have 6 active players at position WR.	125431486	1475376835733	1475376835859	Y	20
247040	2641601	You have 6 active players at position WR.	You have 6 active players at position WR.	125431488	1475376835975	1475376836131	o	79
247040	2641601	You have 6 active players at position WR.	You have 6 active players at position WR.	125431495	1475376836072	1475376836199	u	85
247040	2641601	You have 6 active players at position WR.	You have 6 active players at position WR.	125431497	1475376836176	1475376836319	 	32
247040	2641601	You have 6 active players at position WR.	You have 6 active players at position WR.	125431500	1475376836328	1475376836423	h	72
247040	2641601	You have 6 active players at position WR.	You have 6 active players at position WR.	125431503	1475376836392	1475376836503	a	65
247040	2641601	You have 6 active players at position WR.	You have 6 active players at position WR.	125431506	1475376836520	1475376836615	v	86
247040	2641601	You have 6 active players at position WR.	You have 6 active players at position WR.	125431550	1475376836607	1475376836783	e	69
247040	2641601	You have 6 active players at position WR.	You have 6 active players at position WR.	125431551	1475376836704	1475376836799	 	32
247040	2641601	You have 6 active players at position WR.	You have 6 active players at position WR.	125431552	1475376837464	1475376837543	6	54
247040	2641601	You have 6 active players at position WR.	You have 6 active players at position WR.	125431553	1475376837592	1475376837671	 	32
247040	2641601	You have 6 active players at position WR.	You have 6 active players at position WR.	125431554	1475376837728	1475376837871	a	65
247040	2641601	You have 6 active players at position WR.	You have 6 active players at position WR.	125431555	1475376837879	1475376837976	c	67
247040	2641601	You have 6 active players at position WR.	You have 6 active players at position WR.	125431562	1475376838064	1475376838143	t	84
247040	2641601	You have 6 active players at position WR.	You have 6 active players at position WR.	125431564	1475376838136	1475376838223	i	73
247040	2641601	You have 6 active players at position WR.	You have 6 active players at position WR.	125431566	1475376838280	1475376838360	v	86
247040	2641601	You have 6 active players at position WR.	You have 6 active players at position WR.	125431567	1475376838393	1475376838519	e	69
247040	2641601	You have 6 active players at position WR.	You have 6 active players at position WR.	125431612	1475376838496	1475376838592	 	32
247040	2641601	You have 6 active players at position WR.	You have 6 active players at position WR.	125431614	1475376838656	1475376838744	p	80
247040	2641601	You have 6 active players at position WR.	You have 6 active players at position WR.	125431616	1475376838873	1475376838960	l	76
247040	2641601	You have 6 active players at position WR.	You have 6 active players at position WR.	125431618	1475376838944	1475376839185	a	65
247040	2641601	You have 6 active players at position WR.	You have 6 active players at position WR.	125431621	1475376839190	1475376839286	t	84
247040	2641601	You have 6 active players at position WR.	You have 6 active players at position WR.	125431623	1475376839823	1475376839887	BKSP	8
247040	2641601	You have 6 active players at position WR.	You have 6 active players at position WR.	125431625	1475376840040	1475376840119	y	89
247040	2641601	You have 6 active players at position WR.	You have 6 active players at position WR.	125431627	1475376840112	1475376840256	e	69
247040	2641601	You have 6 active players at position WR.	You have 6 active players at position WR.	125431628	1475376840208	1475376840352	r	82
247040	2641601	You have 6 active players at position WR.	You have 6 active players at position WR.	125431629	1475376840328	1475376840455	s	83
247040	2641601	You have 6 active players at position WR.	You have 6 active players at position WR.	125431630	1475376840424	1475376840520	 	32
247040	2641601	You have 6 active players at position WR.	You have 6 active players at position WR.	125431631	1475376840624	1475376840783	a	65
247040	2641601	You have 6 active players at position WR.	You have 6 active players at position WR.	125431647	1475376840743	1475376840871	t	84
247040	2641601	You have 6 active players at position WR.	You have 6 active players at position WR.	125431650	1475376840816	1475376840903	 	32
247040	2641601	You have 6 active players at position WR.	You have 6 active players at position WR.	125431654	1475376840984	1475376841048	p	80
247040	2641601	You have 6 active players at position WR.	You have 6 active players at position WR.	125431657	1475376841144	1475376841239	o	79
247040	2641601	You have 6 active players at position WR.	You have 6 active players at position WR.	125431660	1475376841216	1475376841303	s	83
247040	2641601	You have 6 active players at position WR.	You have 6 active players at position WR.	125431663	1475376841372	1475376841416	i	73
247040	2641601	You have 6 active players at position WR.	You have 6 active players at position WR.	125431686	1475376841832	1475376841944	t	84
247040	2641601	You have 6 active players at position WR.	You have 6 active players at position WR.	125431688	1475376841967	1475376842056	i	73
247040	2641601	You have 6 active players at position WR.	You have 6 active players at position WR.	125431691	1475376842048	1475376842215	o	79
247040	2641601	You have 6 active players at position WR.	You have 6 active players at position WR.	125431694	1475376842167	1475376842288	n	78
247040	2641601	You have 6 active players at position WR.	You have 6 active players at position WR.	125431696	1475376842392	1475376842488	 	32
247040	2641601	You have 6 active players at position WR.	You have 6 active players at position WR.	125431716	1475376842688	1475376842815	W	87
247040	2641601	You have 6 active players at position WR.	You have 6 active players at position WR.	125431718	1475376842927	1475376843032	T	84
247040	2641601	You have 6 active players at position WR.	You have 6 active players at position WR.	125431720	1475376843088	1475376843175	.	190
247040	2641601	You have 6 active players at position WR.	You have 6 active players at position WR.	125431721	1475376843647	1475376843695	BKSP	8
247040	2641601	You have 6 active players at position WR.	You have 6 active players at position WR.	125431722	1475376843775	1475376843855	BKSP	8
247040	2641601	You have 6 active players at position WR.	You have 6 active players at position WR.	125431723	1475376843880	1475376843992	R	82
247040	2641601	You have 6 active players at position WR.	You have 6 active players at position WR.	125431724	1475376844040	1475376844144	.	190
247040	2641610	Do you have that information yet?.	Do you have that information yet?	125431813	1475376845952	1475376846066	D	68
247040	2641610	Do you have that information yet?.	Do you have that information yet?	125431816	1475376846360	1475376846455	o	79
247040	2641610	Do you have that information yet?.	Do you have that information yet?	125431817	1475376846424	1475376846639	 	32
247040	2641610	Do you have that information yet?.	Do you have that information yet?	125431818	1475376846613	1475376846696	y	89
247040	2641610	Do you have that information yet?.	Do you have that information yet?	125431820	1475376846756	1475376846855	o	79
247040	2641610	Do you have that information yet?.	Do you have that information yet?	125431828	1475376846816	1475376846919	u	85
247040	2641610	Do you have that information yet?.	Do you have that information yet?	125431829	1475376846888	1475376846999	 	32
247040	2641610	Do you have that information yet?.	Do you have that information yet?	125431830	1475376847024	1475376847119	h	72
247040	2641610	Do you have that information yet?.	Do you have that information yet?	125431831	1475376847063	1475376847191	a	65
247040	2641610	Do you have that information yet?.	Do you have that information yet?	125431832	1475376847175	1475376847257	v	86
247040	2641610	Do you have that information yet?.	Do you have that information yet?	125431845	1475376847256	1475376847367	e	69
247040	2641610	Do you have that information yet?.	Do you have that information yet?	125431847	1475376847335	1475376847383	 	32
247040	2641610	Do you have that information yet?.	Do you have that information yet?	125431849	1475376847448	1475376847543	t	84
247040	2641610	Do you have that information yet?.	Do you have that information yet?	125431851	1475376847504	1475376847591	h	72
247040	2641610	Do you have that information yet?.	Do you have that information yet?	125431853	1475376847567	1475376847727	a	65
247040	2641610	Do you have that information yet?.	Do you have that information yet?	125431855	1475376847647	1475376847759	t	84
247040	2641610	Do you have that information yet?.	Do you have that information yet?	125431856	1475376847706	1475376847799	 	32
247040	2641610	Do you have that information yet?.	Do you have that information yet?	125431857	1475376847775	1475376847903	i	73
247040	2641610	Do you have that information yet?.	Do you have that information yet?	125431858	1475376847864	1475376847967	n	78
247040	2641610	Do you have that information yet?.	Do you have that information yet?	125431859	1475376847936	1475376848015	f	70
247040	2641610	Do you have that information yet?.	Do you have that information yet?	125431860	1475376848041	1475376848111	o	79
247040	2641610	Do you have that information yet?.	Do you have that information yet?	125431861	1475376848122	1475376848212	r	82
247040	2641610	Do you have that information yet?.	Do you have that information yet?	125431864	1475376848220	1475376848307	m	77
247040	2641610	Do you have that information yet?.	Do you have that information yet?	125431866	1475376848295	1475376848415	a	65
247040	2641610	Do you have that information yet?.	Do you have that information yet?	125431869	1475376848336	1475376848478	t	84
247040	2641610	Do you have that information yet?.	Do you have that information yet?	125431891	1475376848407	1475376848506	i	73
247040	2641610	Do you have that information yet?.	Do you have that information yet?	125431892	1475376848463	1475376848639	o	79
247040	2641610	Do you have that information yet?.	Do you have that information yet?	125431894	1475376848583	1475376848743	n	78
247040	2641610	Do you have that information yet?.	Do you have that information yet?	125431896	1475376848711	1475376848799	 	32
247040	2641610	Do you have that information yet?.	Do you have that information yet?	125431898	1475376848903	1475376848999	y	89
247040	2641610	Do you have that information yet?.	Do you have that information yet?	125431901	1475376848951	1475376849103	e	69
247040	2641610	Do you have that information yet?.	Do you have that information yet?	125431909	1475376849057	1475376849175	t	84
247040	2641610	Do you have that information yet?.	Do you have that information yet?	125431911	1475376849151	1475376849327	SHIFT	16
247040	2641610	Do you have that information yet?.	Do you have that information yet?	125431914	1475376849239	1475376849360	?	191
247040	2641615	His return date is unclear.	His return date in unclear.	125431975	1475376851101	1475376851288	CAPS_LOCK	20
247040	2641615	His return date is unclear.	His return date in unclear.	125431973	1475376851192	1475376851271	H	72
247040	2641615	His return date is unclear.	His return date in unclear.	125431977	1475376851383	1475376851487	i	73
247040	2641615	His return date is unclear.	His return date in unclear.	125431979	1475376851527	1475376851640	s	83
247040	2641615	His return date is unclear.	His return date in unclear.	125431981	1475376851640	1475376851743	 	32
247040	2641615	His return date is unclear.	His return date in unclear.	125431983	1475376851815	1475376851935	r	82
247040	2641615	His return date is unclear.	His return date in unclear.	125431993	1475376851903	1475376852032	e	69
247040	2641615	His return date is unclear.	His return date in unclear.	125431998	1475376852071	1475376852183	t	84
247040	2641615	His return date is unclear.	His return date in unclear.	125432002	1475376852192	1475376852263	u	85
247040	2641615	His return date is unclear.	His return date in unclear.	125432008	1475376852288	1475376852391	r	82
247040	2641615	His return date is unclear.	His return date in unclear.	125432014	1475376852416	1475376852550	n	78
247040	2641615	His return date is unclear.	His return date in unclear.	125432027	1475376852527	1475376852623	 	32
247040	2641615	His return date is unclear.	His return date in unclear.	125432029	1475376852768	1475376852880	d	68
247040	2641615	His return date is unclear.	His return date in unclear.	125432034	1475376852912	1475376853106	a	65
247040	2641615	His return date is unclear.	His return date in unclear.	125432038	1475376853007	1475376853156	t	84
247040	2641615	His return date is unclear.	His return date in unclear.	125432042	1475376853127	1475376853279	e	69
247040	2641615	His return date is unclear.	His return date in unclear.	125432064	1475376853246	1475376853343	 	32
247040	2641615	His return date is unclear.	His return date in unclear.	125432066	1475376853367	1475376853479	i	73
247040	2641615	His return date is unclear.	His return date in unclear.	125432069	1475376853447	1475376853624	n	78
247040	2641615	His return date is unclear.	His return date in unclear.	125432073	1475376853591	1475376853695	 	32
247040	2641615	His return date is unclear.	His return date in unclear.	125432077	1475376853888	1475376853959	u	85
247040	2641615	His return date is unclear.	His return date in unclear.	125432080	1475376854079	1475376854151	n	78
247040	2641615	His return date is unclear.	His return date in unclear.	125432094	1475376854168	1475376854287	c	67
247040	2641615	His return date is unclear.	His return date in unclear.	125432099	1475376854296	1475376854391	l	76
247040	2641615	His return date is unclear.	His return date in unclear.	125432104	1475376854360	1475376854543	e	69
247040	2641615	His return date is unclear.	His return date in unclear.	125432110	1475376854448	1475376854607	a	65
247040	2641615	His return date is unclear.	His return date in unclear.	125432111	1475376854511	1475376854639	r	82
247040	2641615	His return date is unclear.	His return date in unclear.	125432112	1475376854663	1475376854735	.	190
247040	2641617	Theresa, I hope he liked it.	Theresa, I hope he liked it.	125432170	1475376856812	1475376856960	CAPS_LOCK	20
247040	2641617	Theresa, I hope he liked it.	Theresa, I hope he liked it.	125432172	1475376856855	1475376856983	T	84
247040	2641617	Theresa, I hope he liked it.	Theresa, I hope he liked it.	125432174	1475376857072	1475376857142	h	72
247040	2641617	Theresa, I hope he liked it.	Theresa, I hope he liked it.	125432176	1475376857159	1475376857366	e	69
247040	2641617	Theresa, I hope he liked it.	Theresa, I hope he liked it.	125432178	1475376857265	1475376857454	r	82
247040	2641617	Theresa, I hope he liked it.	Theresa, I hope he liked it.	125432202	1475376857403	1475376857535	e	69
247040	2641617	Theresa, I hope he liked it.	Theresa, I hope he liked it.	125432207	1475376857631	1475376857791	s	83
247040	2641617	Theresa, I hope he liked it.	Theresa, I hope he liked it.	125432211	1475376857743	1475376857887	a	65
247040	2641617	Theresa, I hope he liked it.	Theresa, I hope he liked it.	125432213	1475376858055	1475376858191	,	188
247040	2641617	Theresa, I hope he liked it.	Theresa, I hope he liked it.	125432215	1475376858183	1475376858255	 	32
247040	2641617	Theresa, I hope he liked it.	Theresa, I hope he liked it.	125432216	1475376858355	1475376858456	CAPS_LOCK	20
247040	2641617	Theresa, I hope he liked it.	Theresa, I hope he liked it.	125432221	1475376858415	1475376858495	I	73
247040	2641617	Theresa, I hope he liked it.	Theresa, I hope he liked it.	125432223	1475376858591	1475376858702	 	32
247040	2641617	Theresa, I hope he liked it.	Theresa, I hope he liked it.	125432225	1475376858695	1475376858799	h	72
247040	2641617	Theresa, I hope he liked it.	Theresa, I hope he liked it.	125432227	1475376858751	1475376858855	o	79
247040	2641617	Theresa, I hope he liked it.	Theresa, I hope he liked it.	125432229	1475376858967	1475376859081	p	80
247040	2641617	Theresa, I hope he liked it.	Theresa, I hope he liked it.	125432237	1475376859055	1475376859174	e	69
247040	2641617	Theresa, I hope he liked it.	Theresa, I hope he liked it.	125432242	1475376859143	1475376859263	 	32
247040	2641617	Theresa, I hope he liked it.	Theresa, I hope he liked it.	125432248	1475376859311	1475376859400	h	72
247040	2641617	Theresa, I hope he liked it.	Theresa, I hope he liked it.	125432253	1475376859415	1475376859550	e	69
247040	2641617	Theresa, I hope he liked it.	Theresa, I hope he liked it.	125432258	1475376859511	1475376859646	 	32
247040	2641617	Theresa, I hope he liked it.	Theresa, I hope he liked it.	125432261	1475376859599	1475376859742	l	76
247040	2641617	Theresa, I hope he liked it.	Theresa, I hope he liked it.	125432264	1475376859687	1475376859759	i	73
247040	2641617	Theresa, I hope he liked it.	Theresa, I hope he liked it.	125432265	1475376859863	1475376859967	k	75
247040	2641617	Theresa, I hope he liked it.	Theresa, I hope he liked it.	125432267	1475376859942	1475376860014	e	69
247040	2641617	Theresa, I hope he liked it.	Theresa, I hope he liked it.	125432269	1475376860119	1475376860247	d	68
247040	2641617	Theresa, I hope he liked it.	Theresa, I hope he liked it.	125432291	1475376860239	1475376860312	 	32
247040	2641617	Theresa, I hope he liked it.	Theresa, I hope he liked it.	125432293	1475376860383	1475376860495	i	73
247040	2641617	Theresa, I hope he liked it.	Theresa, I hope he liked it.	125432295	1475376860487	1475376860609	t	84
247040	2641617	Theresa, I hope he liked it.	Theresa, I hope he liked it.	125432297	1475376860639	1475376860727	.	190
247040	2641624	Many earlier ceasefire accords have been broken.	Many earlier ceasefire accords have been broken.	125432375	1475376862669	1475376862808	CAPS_LOCK	20
247040	2641624	Many earlier ceasefire accords have been broken.	Many earlier ceasefire accords have been broken.	125432376	1475376862727	1475376862822	M	77
247040	2641624	Many earlier ceasefire accords have been broken.	Many earlier ceasefire accords have been broken.	125432378	1475376862983	1475376863120	a	65
247040	2641624	Many earlier ceasefire accords have been broken.	Many earlier ceasefire accords have been broken.	125432377	1475376863023	1475376863094	n	78
247040	2641624	Many earlier ceasefire accords have been broken.	Many earlier ceasefire accords have been broken.	125432379	1475376863207	1475376863318	y	89
247040	2641624	Many earlier ceasefire accords have been broken.	Many earlier ceasefire accords have been broken.	125432396	1475376863287	1475376863391	 	32
247040	2641624	Many earlier ceasefire accords have been broken.	Many earlier ceasefire accords have been broken.	125432399	1475376863455	1475376863681	e	69
247040	2641624	Many earlier ceasefire accords have been broken.	Many earlier ceasefire accords have been broken.	125432401	1475376863559	1475376863718	a	65
247040	2641624	Many earlier ceasefire accords have been broken.	Many earlier ceasefire accords have been broken.	125432404	1475376863653	1475376863775	r	82
247040	2641624	Many earlier ceasefire accords have been broken.	Many earlier ceasefire accords have been broken.	125432408	1475376863759	1475376863902	l	76
247040	2641624	Many earlier ceasefire accords have been broken.	Many earlier ceasefire accords have been broken.	125432442	1475376863847	1475376863975	i	73
247040	2641624	Many earlier ceasefire accords have been broken.	Many earlier ceasefire accords have been broken.	125432443	1475376863943	1475376864111	e	69
247040	2641624	Many earlier ceasefire accords have been broken.	Many earlier ceasefire accords have been broken.	125432445	1475376864031	1475376864175	r	82
247040	2641624	Many earlier ceasefire accords have been broken.	Many earlier ceasefire accords have been broken.	125432447	1475376864174	1475376864263	 	32
247040	2641624	Many earlier ceasefire accords have been broken.	Many earlier ceasefire accords have been broken.	125432449	1475376864415	1475376864495	c	67
247040	2641624	Many earlier ceasefire accords have been broken.	Many earlier ceasefire accords have been broken.	125432451	1475376864535	1475376864678	e	69
247040	2641624	Many earlier ceasefire accords have been broken.	Many earlier ceasefire accords have been broken.	125432470	1475376864671	1475376864839	a	65
247040	2641624	Many earlier ceasefire accords have been broken.	Many earlier ceasefire accords have been broken.	125432473	1475376864815	1475376864990	s	83
247040	2641624	Many earlier ceasefire accords have been broken.	Many earlier ceasefire accords have been broken.	125432476	1475376864943	1475376865143	e	69
247040	2641624	Many earlier ceasefire accords have been broken.	Many earlier ceasefire accords have been broken.	125432479	1475376865222	1475376865382	f	70
247040	2641624	Many earlier ceasefire accords have been broken.	Many earlier ceasefire accords have been broken.	125432481	1475376865375	1475376865487	i	73
247040	2641624	Many earlier ceasefire accords have been broken.	Many earlier ceasefire accords have been broken.	125432484	1475376865535	1475376865663	r	82
247040	2641624	Many earlier ceasefire accords have been broken.	Many earlier ceasefire accords have been broken.	125432525	1475376865623	1475376865779	e	69
247040	2641624	Many earlier ceasefire accords have been broken.	Many earlier ceasefire accords have been broken.	125432528	1475376865839	1475376865935	 	32
247040	2641624	Many earlier ceasefire accords have been broken.	Many earlier ceasefire accords have been broken.	125432531	1475376866031	1475376866167	a	65
247040	2641624	Many earlier ceasefire accords have been broken.	Many earlier ceasefire accords have been broken.	125432534	1475376866327	1475376866415	c	67
247040	2641624	Many earlier ceasefire accords have been broken.	Many earlier ceasefire accords have been broken.	125432538	1475376866503	1475376866599	c	67
247040	2641624	Many earlier ceasefire accords have been broken.	Many earlier ceasefire accords have been broken.	125432543	1475376866607	1475376866687	o	79
247040	2641624	Many earlier ceasefire accords have been broken.	Many earlier ceasefire accords have been broken.	125432564	1475376866711	1475376866804	r	82
247040	2641624	Many earlier ceasefire accords have been broken.	Many earlier ceasefire accords have been broken.	125432568	1475376866871	1475376867031	d	68
247040	2641624	Many earlier ceasefire accords have been broken.	Many earlier ceasefire accords have been broken.	125432572	1475376866967	1475376867134	s	83
247040	2641624	Many earlier ceasefire accords have been broken.	Many earlier ceasefire accords have been broken.	125432575	1475376867127	1475376867231	 	32
247040	2641624	Many earlier ceasefire accords have been broken.	Many earlier ceasefire accords have been broken.	125432578	1475376867407	1475376867479	h	72
247040	2641624	Many earlier ceasefire accords have been broken.	Many earlier ceasefire accords have been broken.	125432580	1475376867463	1475376867622	a	65
247040	2641624	Many earlier ceasefire accords have been broken.	Many earlier ceasefire accords have been broken.	125432581	1475376867591	1475376867688	v	86
247040	2641624	Many earlier ceasefire accords have been broken.	Many earlier ceasefire accords have been broken.	125432582	1475376867687	1475376867838	e	69
247040	2641624	Many earlier ceasefire accords have been broken.	Many earlier ceasefire accords have been broken.	125432583	1475376867759	1475376867846	 	32
247040	2641624	Many earlier ceasefire accords have been broken.	Many earlier ceasefire accords have been broken.	125432584	1475376867950	1475376868022	b	66
247040	2641624	Many earlier ceasefire accords have been broken.	Many earlier ceasefire accords have been broken.	125432585	1475376868031	1475376868086	e	69
247040	2641624	Many earlier ceasefire accords have been broken.	Many earlier ceasefire accords have been broken.	125432612	1475376868182	1475376868294	e	69
247040	2641624	Many earlier ceasefire accords have been broken.	Many earlier ceasefire accords have been broken.	125432614	1475376868247	1475376868383	n	78
247040	2641624	Many earlier ceasefire accords have been broken.	Many earlier ceasefire accords have been broken.	125432616	1475376868350	1475376868439	 	32
247040	2641624	Many earlier ceasefire accords have been broken.	Many earlier ceasefire accords have been broken.	125432618	1475376868535	1475376868622	b	66
247040	2641624	Many earlier ceasefire accords have been broken.	Many earlier ceasefire accords have been broken.	125432620	1475376868647	1475376868767	r	82
247040	2641624	Many earlier ceasefire accords have been broken.	Many earlier ceasefire accords have been broken.	125432635	1475376868759	1475376868886	o	79
247040	2641624	Many earlier ceasefire accords have been broken.	Many earlier ceasefire accords have been broken.	125432638	1475376868858	1475376868998	k	75
247040	2641624	Many earlier ceasefire accords have been broken.	Many earlier ceasefire accords have been broken.	125432640	1475376868983	1475376869102	e	69
247040	2641624	Many earlier ceasefire accords have been broken.	Many earlier ceasefire accords have been broken.	125432643	1475376869159	1475376869278	n	78
247040	2641624	Many earlier ceasefire accords have been broken.	Many earlier ceasefire accords have been broken.	125432645	1475376869567	1475376869655	.	190
247040	2641630	Others voting against represented the defense ministry.	Others voting against represented the defense ministry.	125432670	1475376871635	1475376871775	CAPS_LOCK	20
247040	2641630	Others voting against represented the defense ministry.	Others voting against represented the defense ministry.	125432671	1475376871687	1475376871798	O	79
247040	2641630	Others voting against represented the defense ministry.	Others voting against represented the defense ministry.	125432672	1475376871862	1475376871974	t	84
247040	2641630	Others voting against represented the defense ministry.	Others voting against represented the defense ministry.	125432673	1475376871981	1475376872062	h	72
247040	2641630	Others voting against represented the defense ministry.	Others voting against represented the defense ministry.	125432674	1475376872039	1475376872175	e	69
247040	2641630	Others voting against represented the defense ministry.	Others voting against represented the defense ministry.	125432684	1475376872119	1475376872270	r	82
247040	2641630	Others voting against represented the defense ministry.	Others voting against represented the defense ministry.	125432685	1475376872255	1475376872359	s	83
247040	2641630	Others voting against represented the defense ministry.	Others voting against represented the defense ministry.	125432686	1475376872391	1475376872454	 	32
247040	2641630	Others voting against represented the defense ministry.	Others voting against represented the defense ministry.	125432687	1475376872567	1475376872679	v	86
247040	2641630	Others voting against represented the defense ministry.	Others voting against represented the defense ministry.	125432688	1475376872639	1475376872790	o	79
247040	2641630	Others voting against represented the defense ministry.	Others voting against represented the defense ministry.	125432689	1475376872935	1475376873054	t	84
247040	2641630	Others voting against represented the defense ministry.	Others voting against represented the defense ministry.	125432700	1475376873111	1475376873254	i	73
247040	2641630	Others voting against represented the defense ministry.	Others voting against represented the defense ministry.	125432702	1475376873214	1475376873334	n	78
247040	2641630	Others voting against represented the defense ministry.	Others voting against represented the defense ministry.	125432704	1475376873326	1475376873446	g	71
247040	2641630	Others voting against represented the defense ministry.	Others voting against represented the defense ministry.	125432706	1475376873494	1475376873566	 	32
247040	2641630	Others voting against represented the defense ministry.	Others voting against represented the defense ministry.	125432707	1475376873574	1475376873678	a	65
247040	2641630	Others voting against represented the defense ministry.	Others voting against represented the defense ministry.	125432720	1475376873671	1475376873807	g	71
247040	2641630	Others voting against represented the defense ministry.	Others voting against represented the defense ministry.	125432721	1475376873767	1475376873894	a	65
247040	2641630	Others voting against represented the defense ministry.	Others voting against represented the defense ministry.	125432724	1475376873823	1475376873943	i	73
247040	2641630	Others voting against represented the defense ministry.	Others voting against represented the defense ministry.	125432726	1475376873879	1475376873998	n	78
247040	2641630	Others voting against represented the defense ministry.	Others voting against represented the defense ministry.	125432729	1475376874039	1475376874182	s	83
247040	2641630	Others voting against represented the defense ministry.	Others voting against represented the defense ministry.	125432762	1475376874127	1475376874262	t	84
247040	2641630	Others voting against represented the defense ministry.	Others voting against represented the defense ministry.	125432764	1475376874263	1475376874358	 	32
247040	2641630	Others voting against represented the defense ministry.	Others voting against represented the defense ministry.	125432766	1475376874503	1475376874646	r	82
247040	2641630	Others voting against represented the defense ministry.	Others voting against represented the defense ministry.	125432768	1475376874591	1475376874718	e	69
247040	2641630	Others voting against represented the defense ministry.	Others voting against represented the defense ministry.	125432770	1475376874735	1475376874838	p	80
247040	2641630	Others voting against represented the defense ministry.	Others voting against represented the defense ministry.	125432771	1475376874950	1475376875163	r	82
247040	2641630	Others voting against represented the defense ministry.	Others voting against represented the defense ministry.	125432810	1475376875030	1475376875184	e	69
247040	2641630	Others voting against represented the defense ministry.	Others voting against represented the defense ministry.	125432812	1475376875487	1475376875686	s	83
247040	2641630	Others voting against represented the defense ministry.	Others voting against represented the defense ministry.	125432813	1475376875608	1475376875734	e	69
247040	2641630	Others voting against represented the defense ministry.	Others voting against represented the defense ministry.	125432814	1475376875782	1475376875895	n	78
247040	2641630	Others voting against represented the defense ministry.	Others voting against represented the defense ministry.	125432815	1475376875879	1475376875998	t	84
247040	2641630	Others voting against represented the defense ministry.	Others voting against represented the defense ministry.	125432822	1475376875959	1475376876070	e	69
247040	2641630	Others voting against represented the defense ministry.	Others voting against represented the defense ministry.	125432823	1475376876167	1475376876295	d	68
247040	2641630	Others voting against represented the defense ministry.	Others voting against represented the defense ministry.	125432824	1475376876286	1475376876451	 	32
247040	2641630	Others voting against represented the defense ministry.	Others voting against represented the defense ministry.	125432825	1475376876452	1475376876495	t	84
247040	2641630	Others voting against represented the defense ministry.	Others voting against represented the defense ministry.	125432826	1475376876479	1475376876557	h	72
247040	2641630	Others voting against represented the defense ministry.	Others voting against represented the defense ministry.	125432827	1475376876566	1475376876664	e	69
247040	2641630	Others voting against represented the defense ministry.	Others voting against represented the defense ministry.	125432851	1475376876639	1475376876742	 	32
247040	2641630	Others voting against represented the defense ministry.	Others voting against represented the defense ministry.	125432854	1475376876767	1475376876854	d	68
247040	2641630	Others voting against represented the defense ministry.	Others voting against represented the defense ministry.	125432857	1475376876927	1475376877024	e	69
247040	2641630	Others voting against represented the defense ministry.	Others voting against represented the defense ministry.	125432861	1475376877182	1475376877302	f	70
247040	2641630	Others voting against represented the defense ministry.	Others voting against represented the defense ministry.	125432864	1475376877350	1475376877518	e	69
247040	2641630	Others voting against represented the defense ministry.	Others voting against represented the defense ministry.	125432867	1475376877599	1475376877686	n	78
247040	2641630	Others voting against represented the defense ministry.	Others voting against represented the defense ministry.	125432880	1475376877807	1475376877998	s	83
247040	2641630	Others voting against represented the defense ministry.	Others voting against represented the defense ministry.	125432885	1475376877895	1475376878054	e	69
247040	2641630	Others voting against represented the defense ministry.	Others voting against represented the defense ministry.	125432890	1475376878062	1475376878166	 	32
247040	2641630	Others voting against represented the defense ministry.	Others voting against represented the defense ministry.	125432892	1475376878303	1475376878414	m	77
247040	2641630	Others voting against represented the defense ministry.	Others voting against represented the defense ministry.	125432904	1475376878375	1475376878486	i	73
247040	2641630	Others voting against represented the defense ministry.	Others voting against represented the defense ministry.	125432905	1475376878566	1475376878694	n	78
247040	2641630	Others voting against represented the defense ministry.	Others voting against represented the defense ministry.	125432906	1475376878703	1475376878791	i	73
247040	2641630	Others voting against represented the defense ministry.	Others voting against represented the defense ministry.	125432907	1475376879215	1475376879382	s	83
247040	2641630	Others voting against represented the defense ministry.	Others voting against represented the defense ministry.	125432908	1475376879366	1475376879430	t	84
247040	2641630	Others voting against represented the defense ministry.	Others voting against represented the defense ministry.	125432909	1475376879534	1475376879630	r	82
247040	2641630	Others voting against represented the defense ministry.	Others voting against represented the defense ministry.	125432920	1475376879671	1475376879758	y	89
247040	2641630	Others voting against represented the defense ministry.	Others voting against represented the defense ministry.	125432922	1475376879895	1475376879982	.	190
247040	2641636	The military refuses to leave power and restore democracy by May 21.	The military refuses to leave power and restore democracy by May 21.	125432981	1475376882045	1475376882184	CAPS_LOCK	20
247040	2641636	The military refuses to leave power and restore democracy by May 21.	The military refuses to leave power and restore democracy by May 21.	125432983	1475376882078	1475376882206	T	84
247040	2641636	The military refuses to leave power and restore democracy by May 21.	The military refuses to leave power and restore democracy by May 21.	125432985	1475376882279	1475376882343	h	72
247040	2641636	The military refuses to leave power and restore democracy by May 21.	The military refuses to leave power and restore democracy by May 21.	125432987	1475376882367	1475376882494	e	69
247040	2641636	The military refuses to leave power and restore democracy by May 21.	The military refuses to leave power and restore democracy by May 21.	125432988	1475376882479	1475376882566	 	32
247040	2641636	The military refuses to leave power and restore democracy by May 21.	The military refuses to leave power and restore democracy by May 21.	125432990	1475376882663	1475376882774	m	77
247040	2641636	The military refuses to leave power and restore democracy by May 21.	The military refuses to leave power and restore democracy by May 21.	125433029	1475376882735	1475376882830	i	73
247040	2641636	The military refuses to leave power and restore democracy by May 21.	The military refuses to leave power and restore democracy by May 21.	125433030	1475376882911	1475376883022	l	76
247040	2641636	The military refuses to leave power and restore democracy by May 21.	The military refuses to leave power and restore democracy by May 21.	125433031	1475376882982	1475376883102	i	73
247040	2641636	The military refuses to leave power and restore democracy by May 21.	The military refuses to leave power and restore democracy by May 21.	125433032	1475376883471	1475376883566	r	82
247040	2641636	The military refuses to leave power and restore democracy by May 21.	The military refuses to leave power and restore democracy by May 21.	125433034	1475376883918	1475376884014	BKSP	8
247040	2641636	The military refuses to leave power and restore democracy by May 21.	The military refuses to leave power and restore democracy by May 21.	125433036	1475376883999	1475376884078	t	84
247040	2641636	The military refuses to leave power and restore democracy by May 21.	The military refuses to leave power and restore democracy by May 21.	125433038	1475376884086	1475376884230	a	65
247040	2641636	The military refuses to leave power and restore democracy by May 21.	The military refuses to leave power and restore democracy by May 21.	125433062	1475376884198	1475376884317	r	82
247040	2641636	The military refuses to leave power and restore democracy by May 21.	The military refuses to leave power and restore democracy by May 21.	125433065	1475376884294	1475376884421	y	89
247040	2641636	The military refuses to leave power and restore democracy by May 21.	The military refuses to leave power and restore democracy by May 21.	125433068	1475376884383	1475376884478	 	32
247040	2641636	The military refuses to leave power and restore democracy by May 21.	The military refuses to leave power and restore democracy by May 21.	125433072	1475376884575	1475376884710	r	82
247040	2641636	The military refuses to leave power and restore democracy by May 21.	The military refuses to leave power and restore democracy by May 21.	125433075	1475376884655	1475376884782	e	69
247040	2641636	The military refuses to leave power and restore democracy by May 21.	The military refuses to leave power and restore democracy by May 21.	125433078	1475376885191	1475376885342	f	70
247040	2641636	The military refuses to leave power and restore democracy by May 21.	The military refuses to leave power and restore democracy by May 21.	125433097	1475376885311	1475376885406	u	85
247040	2641636	The military refuses to leave power and restore democracy by May 21.	The military refuses to leave power and restore democracy by May 21.	125433098	1475376885446	1475376885557	s	83
247040	2641636	The military refuses to leave power and restore democracy by May 21.	The military refuses to leave power and restore democracy by May 21.	125433099	1475376885654	1475376885838	e	69
247040	2641636	The military refuses to leave power and restore democracy by May 21.	The military refuses to leave power and restore democracy by May 21.	125433100	1475376885807	1475376885910	s	83
247040	2641636	The military refuses to leave power and restore democracy by May 21.	The military refuses to leave power and restore democracy by May 21.	125433101	1475376885982	1475376886070	 	32
247040	2641636	The military refuses to leave power and restore democracy by May 21.	The military refuses to leave power and restore democracy by May 21.	125433102	1475376886111	1475376886230	t	84
247040	2641636	The military refuses to leave power and restore democracy by May 21.	The military refuses to leave power and restore democracy by May 21.	125433113	1475376886222	1475376886302	o	79
247040	2641636	The military refuses to leave power and restore democracy by May 21.	The military refuses to leave power and restore democracy by May 21.	125433118	1475376886303	1475376886382	 	32
247040	2641636	The military refuses to leave power and restore democracy by May 21.	The military refuses to leave power and restore democracy by May 21.	125433121	1475376886447	1475376886566	l	76
247040	2641636	The military refuses to leave power and restore democracy by May 21.	The military refuses to leave power and restore democracy by May 21.	125433123	1475376886487	1475376886638	e	69
247040	2641636	The military refuses to leave power and restore democracy by May 21.	The military refuses to leave power and restore democracy by May 21.	125433127	1475376886590	1475376886718	a	65
247040	2641636	The military refuses to leave power and restore democracy by May 21.	The military refuses to leave power and restore democracy by May 21.	125433165	1475376886710	1475376886813	v	86
247040	2641636	The military refuses to leave power and restore democracy by May 21.	The military refuses to leave power and restore democracy by May 21.	125433167	1475376886806	1475376886966	e	69
247040	2641636	The military refuses to leave power and restore democracy by May 21.	The military refuses to leave power and restore democracy by May 21.	125433172	1475376886902	1475376886990	 	32
247040	2641636	The military refuses to leave power and restore democracy by May 21.	The military refuses to leave power and restore democracy by May 21.	125433177	1475376887070	1475376887142	p	80
247040	2641636	The military refuses to leave power and restore democracy by May 21.	The military refuses to leave power and restore democracy by May 21.	125433181	1475376887238	1475376887342	o	79
247040	2641636	The military refuses to leave power and restore democracy by May 21.	The military refuses to leave power and restore democracy by May 21.	125433183	1475376887350	1475376887574	w	87
247040	2641636	The military refuses to leave power and restore democracy by May 21.	The military refuses to leave power and restore democracy by May 21.	125433192	1475376887446	1475376887646	e	69
247040	2641636	The military refuses to leave power and restore democracy by May 21.	The military refuses to leave power and restore democracy by May 21.	125433195	1475376887558	1475376887710	r	82
247040	2641636	The military refuses to leave power and restore democracy by May 21.	The military refuses to leave power and restore democracy by May 21.	125433197	1475376887726	1475376887814	 	32
247040	2641636	The military refuses to leave power and restore democracy by May 21.	The military refuses to leave power and restore democracy by May 21.	125433199	1475376887846	1475376887934	a	65
247040	2641636	The military refuses to leave power and restore democracy by May 21.	The military refuses to leave power and restore democracy by May 21.	125433203	1475376887934	1475376888040	n	78
247040	2641636	The military refuses to leave power and restore democracy by May 21.	The military refuses to leave power and restore democracy by May 21.	125433206	1475376888036	1475376888125	d	68
247040	2641636	The military refuses to leave power and restore democracy by May 21.	The military refuses to leave power and restore democracy by May 21.	125433218	1475376888118	1475376888214	 	32
247040	2641636	The military refuses to leave power and restore democracy by May 21.	The military refuses to leave power and restore democracy by May 21.	125433220	1475376888206	1475376888334	r	82
247040	2641636	The military refuses to leave power and restore democracy by May 21.	The military refuses to leave power and restore democracy by May 21.	125433221	1475376888262	1475376888406	e	69
247040	2641636	The military refuses to leave power and restore democracy by May 21.	The military refuses to leave power and restore democracy by May 21.	125433222	1475376888375	1475376888566	s	83
247040	2641636	The military refuses to leave power and restore democracy by May 21.	The military refuses to leave power and restore democracy by May 21.	125433223	1475376888518	1475376888630	t	84
247040	2641636	The military refuses to leave power and restore democracy by May 21.	The military refuses to leave power and restore democracy by May 21.	125433224	1475376888646	1475376888758	o	79
247040	2641636	The military refuses to leave power and restore democracy by May 21.	The military refuses to leave power and restore democracy by May 21.	125433233	1475376888790	1475376888894	r	82
247040	2641636	The military refuses to leave power and restore democracy by May 21.	The military refuses to leave power and restore democracy by May 21.	125433234	1475376888854	1475376889006	e	69
247040	2641636	The military refuses to leave power and restore democracy by May 21.	The military refuses to leave power and restore democracy by May 21.	125433236	1475376889014	1475376889102	 	32
247040	2641636	The military refuses to leave power and restore democracy by May 21.	The military refuses to leave power and restore democracy by May 21.	125433238	1475376889182	1475376889246	d	68
247040	2641636	The military refuses to leave power and restore democracy by May 21.	The military refuses to leave power and restore democracy by May 21.	125433242	1475376889350	1475376889469	e	69
247040	2641636	The military refuses to leave power and restore democracy by May 21.	The military refuses to leave power and restore democracy by May 21.	125433277	1475376889874	1475376890113	m	77
247040	2641636	The military refuses to leave power and restore democracy by May 21.	The military refuses to leave power and restore democracy by May 21.	125433278	1475376889990	1475376890116	o	79
247040	2641636	The military refuses to leave power and restore democracy by May 21.	The military refuses to leave power and restore democracy by May 21.	125433279	1475376890318	1475376890397	c	67
247040	2641636	The military refuses to leave power and restore democracy by May 21.	The military refuses to leave power and restore democracy by May 21.	125433282	1475376890502	1475376890613	r	82
247040	2641636	The military refuses to leave power and restore democracy by May 21.	The military refuses to leave power and restore democracy by May 21.	125433309	1475376890608	1475376890741	a	65
247040	2641636	The military refuses to leave power and restore democracy by May 21.	The military refuses to leave power and restore democracy by May 21.	125433311	1475376890942	1475376891069	c	67
247040	2641636	The military refuses to leave power and restore democracy by May 21.	The military refuses to leave power and restore democracy by May 21.	125433313	1475376891085	1475376891181	y	89
247040	2641636	The military refuses to leave power and restore democracy by May 21.	The military refuses to leave power and restore democracy by May 21.	125433314	1475376891270	1475376891358	 	32
247040	2641636	The military refuses to leave power and restore democracy by May 21.	The military refuses to leave power and restore democracy by May 21.	125433315	1475376891438	1475376891509	b	66
247040	2641636	The military refuses to leave power and restore democracy by May 21.	The military refuses to leave power and restore democracy by May 21.	125433317	1475376891637	1475376891743	y	89
247040	2641636	The military refuses to leave power and restore democracy by May 21.	The military refuses to leave power and restore democracy by May 21.	125433326	1475376891718	1475376891797	 	32
247040	2641636	The military refuses to leave power and restore democracy by May 21.	The military refuses to leave power and restore democracy by May 21.	125433327	1475376891892	1475376892023	CAPS_LOCK	20
247040	2641636	The military refuses to leave power and restore democracy by May 21.	The military refuses to leave power and restore democracy by May 21.	125433328	1475376891982	1475376892046	M	77
247040	2641636	The military refuses to leave power and restore democracy by May 21.	The military refuses to leave power and restore democracy by May 21.	125433329	1475376892214	1475376892301	a	65
247040	2641636	The military refuses to leave power and restore democracy by May 21.	The military refuses to leave power and restore democracy by May 21.	125433330	1475376892278	1475376892390	y	89
247040	2641636	The military refuses to leave power and restore democracy by May 21.	The military refuses to leave power and restore democracy by May 21.	125433331	1475376892534	1475376892621	 	32
247040	2641636	The military refuses to leave power and restore democracy by May 21.	The military refuses to leave power and restore democracy by May 21.	125433332	1475376892759	1475376892838	2	50
247040	2641636	The military refuses to leave power and restore democracy by May 21.	The military refuses to leave power and restore democracy by May 21.	125433339	1475376892942	1475376893030	1	49
247040	2641636	The military refuses to leave power and restore democracy by May 21.	The military refuses to leave power and restore democracy by May 21.	125433340	1475376893046	1475376893117	.	190
247040	2641645	England star Paul Gascoigne was one of the recipients of the loans.	England star Paul Gascoigne was one of the recipients of the loans.	125433375	1475376895164	1475376895319	CAPS_LOCK	20
247040	2641645	England star Paul Gascoigne was one of the recipients of the loans.	England star Paul Gascoigne was one of the recipients of the loans.	125433376	1475376895191	1475376895358	E	69
247040	2641645	England star Paul Gascoigne was one of the recipients of the loans.	England star Paul Gascoigne was one of the recipients of the loans.	125433377	1475376895406	1475376895486	n	78
247040	2641645	England star Paul Gascoigne was one of the recipients of the loans.	England star Paul Gascoigne was one of the recipients of the loans.	125433378	1475376895542	1475376895654	g	71
247040	2641645	England star Paul Gascoigne was one of the recipients of the loans.	England star Paul Gascoigne was one of the recipients of the loans.	125433380	1475376895654	1475376895750	l	76
247040	2641645	England star Paul Gascoigne was one of the recipients of the loans.	England star Paul Gascoigne was one of the recipients of the loans.	125433382	1475376895782	1475376895878	a	65
247040	2641645	England star Paul Gascoigne was one of the recipients of the loans.	England star Paul Gascoigne was one of the recipients of the loans.	125433388	1475376895886	1475376895973	n	78
247040	2641645	England star Paul Gascoigne was one of the recipients of the loans.	England star Paul Gascoigne was one of the recipients of the loans.	125433390	1475376896006	1475376896101	d	68
247040	2641645	England star Paul Gascoigne was one of the recipients of the loans.	England star Paul Gascoigne was one of the recipients of the loans.	125433392	1475376896110	1475376896181	 	32
247040	2641645	England star Paul Gascoigne was one of the recipients of the loans.	England star Paul Gascoigne was one of the recipients of the loans.	125433394	1475376896254	1475376896374	s	83
247040	2641645	England star Paul Gascoigne was one of the recipients of the loans.	England star Paul Gascoigne was one of the recipients of the loans.	125433419	1475376896358	1475376896445	t	84
247040	2641645	England star Paul Gascoigne was one of the recipients of the loans.	England star Paul Gascoigne was one of the recipients of the loans.	125433420	1475376896462	1475376896606	a	65
247040	2641645	England star Paul Gascoigne was one of the recipients of the loans.	England star Paul Gascoigne was one of the recipients of the loans.	125433422	1475376896566	1475376896670	r	82
247040	2641645	England star Paul Gascoigne was one of the recipients of the loans.	England star Paul Gascoigne was one of the recipients of the loans.	125433424	1475376896687	1475376896790	 	32
247040	2641645	England star Paul Gascoigne was one of the recipients of the loans.	England star Paul Gascoigne was one of the recipients of the loans.	125433426	1475376897083	1475376897222	CAPS_LOCK	20
247040	2641645	England star Paul Gascoigne was one of the recipients of the loans.	England star Paul Gascoigne was one of the recipients of the loans.	125433429	1475376897134	1475376897238	P	80
247040	2641645	England star Paul Gascoigne was one of the recipients of the loans.	England star Paul Gascoigne was one of the recipients of the loans.	125433432	1475376897414	1475376897526	a	65
247040	2641645	England star Paul Gascoigne was one of the recipients of the loans.	England star Paul Gascoigne was one of the recipients of the loans.	125433449	1475376897477	1475376897549	u	85
247040	2641645	England star Paul Gascoigne was one of the recipients of the loans.	England star Paul Gascoigne was one of the recipients of the loans.	125433452	1475376897654	1475376897774	l	76
247040	2641645	England star Paul Gascoigne was one of the recipients of the loans.	England star Paul Gascoigne was one of the recipients of the loans.	125433454	1475376897758	1475376897854	 	32
247040	2641645	England star Paul Gascoigne was one of the recipients of the loans.	England star Paul Gascoigne was one of the recipients of the loans.	125433456	1475376897964	1475376898112	CAPS_LOCK	20
247040	2641645	England star Paul Gascoigne was one of the recipients of the loans.	England star Paul Gascoigne was one of the recipients of the loans.	125433457	1475376898005	1475376898165	G	71
247040	2641645	England star Paul Gascoigne was one of the recipients of the loans.	England star Paul Gascoigne was one of the recipients of the loans.	125433458	1475376898310	1475376898438	a	65
247040	2641645	England star Paul Gascoigne was one of the recipients of the loans.	England star Paul Gascoigne was one of the recipients of the loans.	125433501	1475376898430	1475376898534	s	83
247040	2641645	England star Paul Gascoigne was one of the recipients of the loans.	England star Paul Gascoigne was one of the recipients of the loans.	125433502	1475376898886	1475376899013	c	67
247040	2641645	England star Paul Gascoigne was one of the recipients of the loans.	England star Paul Gascoigne was one of the recipients of the loans.	125433503	1475376898989	1475376899149	i	73
247040	2641645	England star Paul Gascoigne was one of the recipients of the loans.	England star Paul Gascoigne was one of the recipients of the loans.	125433504	1475376899566	1475376899648	BKSP	8
247040	2641645	England star Paul Gascoigne was one of the recipients of the loans.	England star Paul Gascoigne was one of the recipients of the loans.	125433505	1475376899774	1475376899925	o	79
247040	2641645	England star Paul Gascoigne was one of the recipients of the loans.	England star Paul Gascoigne was one of the recipients of the loans.	125433506	1475376899870	1475376899989	i	73
247040	2641645	England star Paul Gascoigne was one of the recipients of the loans.	England star Paul Gascoigne was one of the recipients of the loans.	125433507	1475376900094	1475376900198	g	71
247040	2641645	England star Paul Gascoigne was one of the recipients of the loans.	England star Paul Gascoigne was one of the recipients of the loans.	125433516	1475376900302	1475376900382	n	78
247040	2641645	England star Paul Gascoigne was one of the recipients of the loans.	England star Paul Gascoigne was one of the recipients of the loans.	125433517	1475376900614	1475376900718	e	69
247040	2641645	England star Paul Gascoigne was one of the recipients of the loans.	England star Paul Gascoigne was one of the recipients of the loans.	125433518	1475376900766	1475376900869	 	32
247040	2641645	England star Paul Gascoigne was one of the recipients of the loans.	England star Paul Gascoigne was one of the recipients of the loans.	125433521	1475376900974	1475376901150	w	87
247040	2641645	England star Paul Gascoigne was one of the recipients of the loans.	England star Paul Gascoigne was one of the recipients of the loans.	125433550	1475376901118	1475376901278	a	65
247040	2641645	England star Paul Gascoigne was one of the recipients of the loans.	England star Paul Gascoigne was one of the recipients of the loans.	125433553	1475376901246	1475376901365	s	83
247040	2641645	England star Paul Gascoigne was one of the recipients of the loans.	England star Paul Gascoigne was one of the recipients of the loans.	125433555	1475376901286	1475376901390	 	32
247040	2641645	England star Paul Gascoigne was one of the recipients of the loans.	England star Paul Gascoigne was one of the recipients of the loans.	125433557	1475376901446	1475376901574	o	79
247040	2641645	England star Paul Gascoigne was one of the recipients of the loans.	England star Paul Gascoigne was one of the recipients of the loans.	125433558	1475376901526	1475376901637	n	78
247040	2641645	England star Paul Gascoigne was one of the recipients of the loans.	England star Paul Gascoigne was one of the recipients of the loans.	125433559	1475376901598	1475376901709	e	69
247040	2641645	England star Paul Gascoigne was one of the recipients of the loans.	England star Paul Gascoigne was one of the recipients of the loans.	125433561	1475376901702	1475376901781	 	32
247040	2641645	England star Paul Gascoigne was one of the recipients of the loans.	England star Paul Gascoigne was one of the recipients of the loans.	125433563	1475376901750	1475376901853	o	79
247040	2641645	England star Paul Gascoigne was one of the recipients of the loans.	England star Paul Gascoigne was one of the recipients of the loans.	125433565	1475376901814	1475376901901	f	70
247040	2641645	England star Paul Gascoigne was one of the recipients of the loans.	England star Paul Gascoigne was one of the recipients of the loans.	125433568	1475376901910	1475376901975	 	32
247040	2641645	England star Paul Gascoigne was one of the recipients of the loans.	England star Paul Gascoigne was one of the recipients of the loans.	125433579	1475376901974	1475376902069	t	84
247040	2641645	England star Paul Gascoigne was one of the recipients of the loans.	England star Paul Gascoigne was one of the recipients of the loans.	125433581	1475376902046	1475376902118	h	72
247040	2641645	England star Paul Gascoigne was one of the recipients of the loans.	England star Paul Gascoigne was one of the recipients of the loans.	125433583	1475376902126	1475376902221	e	69
247040	2641645	England star Paul Gascoigne was one of the recipients of the loans.	England star Paul Gascoigne was one of the recipients of the loans.	125433585	1475376902206	1475376902307	 	32
247040	2641645	England star Paul Gascoigne was one of the recipients of the loans.	England star Paul Gascoigne was one of the recipients of the loans.	125433587	1475376902709	1475376902813	r	82
247040	2641645	England star Paul Gascoigne was one of the recipients of the loans.	England star Paul Gascoigne was one of the recipients of the loans.	125433634	1475376902782	1475376902894	e	69
247040	2641645	England star Paul Gascoigne was one of the recipients of the loans.	England star Paul Gascoigne was one of the recipients of the loans.	125433635	1475376903030	1475376903133	c	67
247040	2641645	England star Paul Gascoigne was one of the recipients of the loans.	England star Paul Gascoigne was one of the recipients of the loans.	125433636	1475376903142	1475376903222	e	69
247040	2641645	England star Paul Gascoigne was one of the recipients of the loans.	England star Paul Gascoigne was one of the recipients of the loans.	125433637	1475376903558	1475376903622	BKSP	8
247040	2641645	England star Paul Gascoigne was one of the recipients of the loans.	England star Paul Gascoigne was one of the recipients of the loans.	125433639	1475376903765	1475376903829	i	73
247040	2641645	England star Paul Gascoigne was one of the recipients of the loans.	England star Paul Gascoigne was one of the recipients of the loans.	125433641	1475376903934	1475376904029	p	80
247040	2641645	England star Paul Gascoigne was one of the recipients of the loans.	England star Paul Gascoigne was one of the recipients of the loans.	125433643	1475376904126	1475376904206	i	73
247040	2641645	England star Paul Gascoigne was one of the recipients of the loans.	England star Paul Gascoigne was one of the recipients of the loans.	125433671	1475376904558	1475376904654	e	69
247040	2641645	England star Paul Gascoigne was one of the recipients of the loans.	England star Paul Gascoigne was one of the recipients of the loans.	125433673	1475376904670	1475376904750	n	78
247040	2641645	England star Paul Gascoigne was one of the recipients of the loans.	England star Paul Gascoigne was one of the recipients of the loans.	125433676	1475376904885	1475376905029	t	84
247040	2641645	England star Paul Gascoigne was one of the recipients of the loans.	England star Paul Gascoigne was one of the recipients of the loans.	125433678	1475376904990	1475376905151	s	83
247040	2641645	England star Paul Gascoigne was one of the recipients of the loans.	England star Paul Gascoigne was one of the recipients of the loans.	125433692	1475376905126	1475376905205	 	32
247040	2641645	England star Paul Gascoigne was one of the recipients of the loans.	England star Paul Gascoigne was one of the recipients of the loans.	125433694	1475376905278	1475376905365	o	79
247040	2641645	England star Paul Gascoigne was one of the recipients of the loans.	England star Paul Gascoigne was one of the recipients of the loans.	125433697	1475376905333	1475376905446	f	70
247040	2641645	England star Paul Gascoigne was one of the recipients of the loans.	England star Paul Gascoigne was one of the recipients of the loans.	125433700	1475376905446	1475376905525	 	32
247040	2641645	England star Paul Gascoigne was one of the recipients of the loans.	England star Paul Gascoigne was one of the recipients of the loans.	125433704	1475376905565	1475376905653	t	84
247040	2641645	England star Paul Gascoigne was one of the recipients of the loans.	England star Paul Gascoigne was one of the recipients of the loans.	125433718	1475376905646	1475376905717	h	72
247040	2641645	England star Paul Gascoigne was one of the recipients of the loans.	England star Paul Gascoigne was one of the recipients of the loans.	125433720	1475376905734	1475376905829	e	69
247040	2641645	England star Paul Gascoigne was one of the recipients of the loans.	England star Paul Gascoigne was one of the recipients of the loans.	125433726	1475376905781	1475376905893	 	32
247040	2641645	England star Paul Gascoigne was one of the recipients of the loans.	England star Paul Gascoigne was one of the recipients of the loans.	125433728	1475376905862	1475376905958	l	76
247040	2641645	England star Paul Gascoigne was one of the recipients of the loans.	England star Paul Gascoigne was one of the recipients of the loans.	125433731	1475376906046	1475376906150	o	79
247040	2641645	England star Paul Gascoigne was one of the recipients of the loans.	England star Paul Gascoigne was one of the recipients of the loans.	125433734	1475376906165	1475376906285	a	65
247040	2641645	England star Paul Gascoigne was one of the recipients of the loans.	England star Paul Gascoigne was one of the recipients of the loans.	125433745	1475376906254	1475376906333	n	78
247040	2641645	England star Paul Gascoigne was one of the recipients of the loans.	England star Paul Gascoigne was one of the recipients of the loans.	125433749	1475376906382	1475376906536	s	83
247040	2641645	England star Paul Gascoigne was one of the recipients of the loans.	England star Paul Gascoigne was one of the recipients of the loans.	125433753	1475376906537	1475376906582	.	190
