PARTICIPANT_ID	TEST_SECTION_ID	SENTENCE	USER_INPUT	KEYSTROKE_ID	PRESS_TIME	RELEASE_TIME	LETTER	KEYCODE
250179	2677063	FYI on the demand letter I signed earlier.	FYI on the demand letter I signed earlier.	127117198	1475450644574	1475450645531	SHIFT	16
250179	2677063	FYI on the demand letter I signed earlier.	FYI on the demand letter I signed earlier.	127117195	1475450644828	1475450645008	F	70
250179	2677063	FYI on the demand letter I signed earlier.	FYI on the demand letter I signed earlier.	127117196	1475450644954	1475450645088	Y	89
250179	2677063	FYI on the demand letter I signed earlier.	FYI on the demand letter I signed earlier.	127117197	1475450645268	1475450645351	I	73
250179	2677063	FYI on the demand letter I signed earlier.	FYI on the demand letter I signed earlier.	127117199	1475450645731	1475450645811	 	32
250179	2677063	FYI on the demand letter I signed earlier.	FYI on the demand letter I signed earlier.	127117201	1475450646102	1475450646231	o	79
250179	2677063	FYI on the demand letter I signed earlier.	FYI on the demand letter I signed earlier.	127117206	1475450646174	1475450646273	n	78
250179	2677063	FYI on the demand letter I signed earlier.	FYI on the demand letter I signed earlier.	127117207	1475450646344	1475450646434	 	32
250179	2677063	FYI on the demand letter I signed earlier.	FYI on the demand letter I signed earlier.	127117208	1475450646444	1475450646528	t	84
250179	2677063	FYI on the demand letter I signed earlier.	FYI on the demand letter I signed earlier.	127117209	1475450646548	1475450646658	h	72
250179	2677063	FYI on the demand letter I signed earlier.	FYI on the demand letter I signed earlier.	127117210	1475450646668	1475450646764	e	69
250179	2677063	FYI on the demand letter I signed earlier.	FYI on the demand letter I signed earlier.	127117211	1475450646794	1475450646888	 	32
250179	2677063	FYI on the demand letter I signed earlier.	FYI on the demand letter I signed earlier.	127117216	1475450647182	1475450647238	d	68
250179	2677063	FYI on the demand letter I signed earlier.	FYI on the demand letter I signed earlier.	127117217	1475450647328	1475450647391	e	69
250179	2677063	FYI on the demand letter I signed earlier.	FYI on the demand letter I signed earlier.	127117218	1475450647431	1475450647521	m	77
250179	2677063	FYI on the demand letter I signed earlier.	FYI on the demand letter I signed earlier.	127117219	1475450647561	1475450647631	a	65
250179	2677063	FYI on the demand letter I signed earlier.	FYI on the demand letter I signed earlier.	127117220	1475450647681	1475450647763	n	78
250179	2677063	FYI on the demand letter I signed earlier.	FYI on the demand letter I signed earlier.	127117237	1475450647785	1475450647858	d	68
250179	2677063	FYI on the demand letter I signed earlier.	FYI on the demand letter I signed earlier.	127117240	1475450647878	1475450647941	 	32
250179	2677063	FYI on the demand letter I signed earlier.	FYI on the demand letter I signed earlier.	127117244	1475450648081	1475450648188	l	76
250179	2677063	FYI on the demand letter I signed earlier.	FYI on the demand letter I signed earlier.	127117247	1475450648351	1475450648428	e	69
250179	2677063	FYI on the demand letter I signed earlier.	FYI on the demand letter I signed earlier.	127117249	1475450648488	1475450648558	t	84
250179	2677063	FYI on the demand letter I signed earlier.	FYI on the demand letter I signed earlier.	127117264	1475450648620	1475450648691	t	82
250179	2677063	FYI on the demand letter I signed earlier.	FYI on the demand letter I signed earlier.	127117265	1475450648731	1475450648798	e	69
250179	2677063	FYI on the demand letter I signed earlier.	FYI on the demand letter I signed earlier.	127117266	1475450649138	1475450649198	BKSP	8
250179	2677063	FYI on the demand letter I signed earlier.	FYI on the demand letter I signed earlier.	127117267	1475450649268	1475450649364	BKSP	8
250179	2677063	FYI on the demand letter I signed earlier.	FYI on the demand letter I signed earlier.	127117268	1475450649404	1475450649518	BKSP	8
250179	2677063	FYI on the demand letter I signed earlier.	FYI on the demand letter I signed earlier.	127117269	1475450649678	1475450649788	t	84
250179	2677063	FYI on the demand letter I signed earlier.	FYI on the demand letter I signed earlier.	127117315	1475450649748	1475450649892	e	69
250179	2677063	FYI on the demand letter I signed earlier.	FYI on the demand letter I signed earlier.	127117316	1475450649864	1475450649974	r	82
250179	2677063	FYI on the demand letter I signed earlier.	FYI on the demand letter I signed earlier.	127117317	1475450650124	1475450650211	 	32
250179	2677063	FYI on the demand letter I signed earlier.	FYI on the demand letter I signed earlier.	127117319	1475450650483	1475450650888	SHIFT	16
250179	2677063	FYI on the demand letter I signed earlier.	FYI on the demand letter I signed earlier.	127117318	1475450650700	1475450650788	I	73
250179	2677063	FYI on the demand letter I signed earlier.	FYI on the demand letter I signed earlier.	127117320	1475450651018	1475450651104	 	32
250179	2677063	FYI on the demand letter I signed earlier.	FYI on the demand letter I signed earlier.	127117321	1475450651524	1475450651564	d	68
250179	2677063	FYI on the demand letter I signed earlier.	FYI on the demand letter I signed earlier.	127117328	1475450651788	1475450651904	BKSP	8
250179	2677063	FYI on the demand letter I signed earlier.	FYI on the demand letter I signed earlier.	127117329	1475450651894	1475450651988	s	83
250179	2677063	FYI on the demand letter I signed earlier.	FYI on the demand letter I signed earlier.	127117330	1475450652108	1475450652241	i	73
250179	2677063	FYI on the demand letter I signed earlier.	FYI on the demand letter I signed earlier.	127117331	1475450652271	1475450652364	g	71
250179	2677063	FYI on the demand letter I signed earlier.	FYI on the demand letter I signed earlier.	127117332	1475450652414	1475450652494	n	78
250179	2677063	FYI on the demand letter I signed earlier.	FYI on the demand letter I signed earlier.	127117333	1475450652554	1475450652624	e	69
250179	2677063	FYI on the demand letter I signed earlier.	FYI on the demand letter I signed earlier.	127117349	1475450652736	1475450652819	d	68
250179	2677063	FYI on the demand letter I signed earlier.	FYI on the demand letter I signed earlier.	127117352	1475450652849	1475450652918	 	32
250179	2677063	FYI on the demand letter I signed earlier.	FYI on the demand letter I signed earlier.	127117355	1475450653089	1475450653151	e	69
250179	2677063	FYI on the demand letter I signed earlier.	FYI on the demand letter I signed earlier.	127117357	1475450653312	1475450653391	a	65
250179	2677063	FYI on the demand letter I signed earlier.	FYI on the demand letter I signed earlier.	127117360	1475450653451	1475450653508	r	82
250179	2677063	FYI on the demand letter I signed earlier.	FYI on the demand letter I signed earlier.	127117370	1475450653670	1475450653848	l	76
250179	2677063	FYI on the demand letter I signed earlier.	FYI on the demand letter I signed earlier.	127117372	1475450653801	1475450653883	i	73
250179	2677063	FYI on the demand letter I signed earlier.	FYI on the demand letter I signed earlier.	127117374	1475450653858	1475450653954	e	69
250179	2677063	FYI on the demand letter I signed earlier.	FYI on the demand letter I signed earlier.	127117376	1475450654024	1475450654091	r	82
250179	2677063	FYI on the demand letter I signed earlier.	FYI on the demand letter I signed earlier.	127117379	1475450654161	1475450654224	.	190
250179	2677068	He also suggested it would send a conflicting message to Geneva.	He also suggested it would send a conflicting message to Geneva.	127117449	1475450656921	1475450657141	SHIFT	16
250179	2677068	He also suggested it would send a conflicting message to Geneva.	He also suggested it would send a conflicting message to Geneva.	127117448	1475450657021	1475450657101	H	72
250179	2677068	He also suggested it would send a conflicting message to Geneva.	He also suggested it would send a conflicting message to Geneva.	127117450	1475450657191	1475450657278	e	69
250179	2677068	He also suggested it would send a conflicting message to Geneva.	He also suggested it would send a conflicting message to Geneva.	127117451	1475450657298	1475450657378	 	32
250179	2677068	He also suggested it would send a conflicting message to Geneva.	He also suggested it would send a conflicting message to Geneva.	127117452	1475450657458	1475450657534	a	65
250179	2677068	He also suggested it would send a conflicting message to Geneva.	He also suggested it would send a conflicting message to Geneva.	127117453	1475450657544	1475450657628	l	76
250179	2677068	He also suggested it would send a conflicting message to Geneva.	He also suggested it would send a conflicting message to Geneva.	127117454	1475450657660	1475450657724	s	83
250179	2677068	He also suggested it would send a conflicting message to Geneva.	He also suggested it would send a conflicting message to Geneva.	127117455	1475450657744	1475450657818	o	79
250179	2677068	He also suggested it would send a conflicting message to Geneva.	He also suggested it would send a conflicting message to Geneva.	127117456	1475450657928	1475450657998	 	32
250179	2677068	He also suggested it would send a conflicting message to Geneva.	He also suggested it would send a conflicting message to Geneva.	127117457	1475450658268	1475450658351	s	83
250179	2677068	He also suggested it would send a conflicting message to Geneva.	He also suggested it would send a conflicting message to Geneva.	127117458	1475450658461	1475450658544	u	85
250179	2677068	He also suggested it would send a conflicting message to Geneva.	He also suggested it would send a conflicting message to Geneva.	127117471	1475450658696	1475450658764	g	71
250179	2677068	He also suggested it would send a conflicting message to Geneva.	He also suggested it would send a conflicting message to Geneva.	127117473	1475450658824	1475450658894	g	71
250179	2677068	He also suggested it would send a conflicting message to Geneva.	He also suggested it would send a conflicting message to Geneva.	127117474	1475450658884	1475450658938	e	69
250179	2677068	He also suggested it would send a conflicting message to Geneva.	He also suggested it would send a conflicting message to Geneva.	127117475	1475450659038	1475450659121	s	83
250179	2677068	He also suggested it would send a conflicting message to Geneva.	He also suggested it would send a conflicting message to Geneva.	127117476	1475450659131	1475450659201	t	84
250179	2677068	He also suggested it would send a conflicting message to Geneva.	He also suggested it would send a conflicting message to Geneva.	127117487	1475450659233	1475450659308	e	69
250179	2677068	He also suggested it would send a conflicting message to Geneva.	He also suggested it would send a conflicting message to Geneva.	127117489	1475450659418	1475450659504	d	68
250179	2677068	He also suggested it would send a conflicting message to Geneva.	He also suggested it would send a conflicting message to Geneva.	127117490	1475450659584	1475450659671	 	32
250179	2677068	He also suggested it would send a conflicting message to Geneva.	He also suggested it would send a conflicting message to Geneva.	127117491	1475450659931	1475450660028	i	73
250179	2677068	He also suggested it would send a conflicting message to Geneva.	He also suggested it would send a conflicting message to Geneva.	127117492	1475450660068	1475450660134	t	84
250179	2677068	He also suggested it would send a conflicting message to Geneva.	He also suggested it would send a conflicting message to Geneva.	127117505	1475450660176	1475450660251	 	32
250179	2677068	He also suggested it would send a conflicting message to Geneva.	He also suggested it would send a conflicting message to Geneva.	127117507	1475450660351	1475450660424	w	87
250179	2677068	He also suggested it would send a conflicting message to Geneva.	He also suggested it would send a conflicting message to Geneva.	127117509	1475450660434	1475450660561	o	79
250179	2677068	He also suggested it would send a conflicting message to Geneva.	He also suggested it would send a conflicting message to Geneva.	127117511	1475450660551	1475450660659	u	85
250179	2677068	He also suggested it would send a conflicting message to Geneva.	He also suggested it would send a conflicting message to Geneva.	127117513	1475450660699	1475450660794	l	76
250179	2677068	He also suggested it would send a conflicting message to Geneva.	He also suggested it would send a conflicting message to Geneva.	127117538	1475450660804	1475450660868	d	68
250179	2677068	He also suggested it would send a conflicting message to Geneva.	He also suggested it would send a conflicting message to Geneva.	127117540	1475450660898	1475450660964	 	32
250179	2677068	He also suggested it would send a conflicting message to Geneva.	He also suggested it would send a conflicting message to Geneva.	127117543	1475450661124	1475450661196	b	66
250179	2677068	He also suggested it would send a conflicting message to Geneva.	He also suggested it would send a conflicting message to Geneva.	127117546	1475450661164	1475450661251	e	69
250179	2677068	He also suggested it would send a conflicting message to Geneva.	He also suggested it would send a conflicting message to Geneva.	127117549	1475450661521	1475450661594	BKSP	8
250179	2677068	He also suggested it would send a conflicting message to Geneva.	He also suggested it would send a conflicting message to Geneva.	127117551	1475450661634	1475450661738	BKSP	8
250179	2677068	He also suggested it would send a conflicting message to Geneva.	He also suggested it would send a conflicting message to Geneva.	127117553	1475450662038	1475450662128	s	83
250179	2677068	He also suggested it would send a conflicting message to Geneva.	He also suggested it would send a conflicting message to Geneva.	127117566	1475450662220	1475450662294	e	69
250179	2677068	He also suggested it would send a conflicting message to Geneva.	He also suggested it would send a conflicting message to Geneva.	127117567	1475450662314	1475450662404	n	78
250179	2677068	He also suggested it would send a conflicting message to Geneva.	He also suggested it would send a conflicting message to Geneva.	127117568	1475450662434	1475450662508	d	68
250179	2677068	He also suggested it would send a conflicting message to Geneva.	He also suggested it would send a conflicting message to Geneva.	127117569	1475450662548	1475450662628	 	32
250179	2677068	He also suggested it would send a conflicting message to Geneva.	He also suggested it would send a conflicting message to Geneva.	127117570	1475450662638	1475450662731	a	65
250179	2677068	He also suggested it would send a conflicting message to Geneva.	He also suggested it would send a conflicting message to Geneva.	127117602	1475450662764	1475450662844	 	32
250179	2677068	He also suggested it would send a conflicting message to Geneva.	He also suggested it would send a conflicting message to Geneva.	127117604	1475450663304	1475450663364	c	67
250179	2677068	He also suggested it would send a conflicting message to Geneva.	He also suggested it would send a conflicting message to Geneva.	127117606	1475450663384	1475450663481	o	79
250179	2677068	He also suggested it would send a conflicting message to Geneva.	He also suggested it would send a conflicting message to Geneva.	127117608	1475450663591	1475450663658	n	78
250179	2677068	He also suggested it would send a conflicting message to Geneva.	He also suggested it would send a conflicting message to Geneva.	127117610	1475450663990	1475450664108	l	76
250179	2677068	He also suggested it would send a conflicting message to Geneva.	He also suggested it would send a conflicting message to Geneva.	127117646	1475450664340	1475450664441	BKSP	8
250179	2677068	He also suggested it would send a conflicting message to Geneva.	He also suggested it would send a conflicting message to Geneva.	127117647	1475450664441	1475450664548	f	70
250179	2677068	He also suggested it would send a conflicting message to Geneva.	He also suggested it would send a conflicting message to Geneva.	127117648	1475450664658	1475450664734	l	76
250179	2677068	He also suggested it would send a conflicting message to Geneva.	He also suggested it would send a conflicting message to Geneva.	127117649	1475450664874	1475450664951	i	73
250179	2677068	He also suggested it would send a conflicting message to Geneva.	He also suggested it would send a conflicting message to Geneva.	127117650	1475450665471	1475450665524	c	67
250179	2677068	He also suggested it would send a conflicting message to Geneva.	He also suggested it would send a conflicting message to Geneva.	127117651	1475450665714	1475450665794	t	84
250179	2677068	He also suggested it would send a conflicting message to Geneva.	He also suggested it would send a conflicting message to Geneva.	127117684	1475450665816	1475450665940	i	73
250179	2677068	He also suggested it would send a conflicting message to Geneva.	He also suggested it would send a conflicting message to Geneva.	127117686	1475450665901	1475450665984	n	78
250179	2677068	He also suggested it would send a conflicting message to Geneva.	He also suggested it would send a conflicting message to Geneva.	127117688	1475450665974	1475450666081	g	71
250179	2677068	He also suggested it would send a conflicting message to Geneva.	He also suggested it would send a conflicting message to Geneva.	127117690	1475450666131	1475450666197	 	32
250179	2677068	He also suggested it would send a conflicting message to Geneva.	He also suggested it would send a conflicting message to Geneva.	127117691	1475450666603	1475450666674	m	77
250179	2677068	He also suggested it would send a conflicting message to Geneva.	He also suggested it would send a conflicting message to Geneva.	127117716	1475450666716	1475450666791	e	69
250179	2677068	He also suggested it would send a conflicting message to Geneva.	He also suggested it would send a conflicting message to Geneva.	127117718	1475450667051	1475450667154	s	83
250179	2677068	He also suggested it would send a conflicting message to Geneva.	He also suggested it would send a conflicting message to Geneva.	127117720	1475450667204	1475450667268	s	83
250179	2677068	He also suggested it would send a conflicting message to Geneva.	He also suggested it would send a conflicting message to Geneva.	127117722	1475450667378	1475450667458	a	65
250179	2677068	He also suggested it would send a conflicting message to Geneva.	He also suggested it would send a conflicting message to Geneva.	127117723	1475450667518	1475450667591	g	71
250179	2677068	He also suggested it would send a conflicting message to Geneva.	He also suggested it would send a conflicting message to Geneva.	127117724	1475450667626	1475450667684	e	69
250179	2677068	He also suggested it would send a conflicting message to Geneva.	He also suggested it would send a conflicting message to Geneva.	127117727	1475450667714	1475450667781	 	32
250179	2677068	He also suggested it would send a conflicting message to Geneva.	He also suggested it would send a conflicting message to Geneva.	127117730	1475450667891	1475450667961	t	84
250179	2677068	He also suggested it would send a conflicting message to Geneva.	He also suggested it would send a conflicting message to Geneva.	127117735	1475450667961	1475450668081	o	79
250179	2677068	He also suggested it would send a conflicting message to Geneva.	He also suggested it would send a conflicting message to Geneva.	127117739	1475450668091	1475450668181	 	32
250179	2677068	He also suggested it would send a conflicting message to Geneva.	He also suggested it would send a conflicting message to Geneva.	127117746	1475450668313	1475450668478	SHIFT	16
250179	2677068	He also suggested it would send a conflicting message to Geneva.	He also suggested it would send a conflicting message to Geneva.	127117745	1475450668393	1475450668468	G	71
250179	2677068	He also suggested it would send a conflicting message to Geneva.	He also suggested it would send a conflicting message to Geneva.	127117748	1475450668598	1475450668674	e	69
250179	2677068	He also suggested it would send a conflicting message to Geneva.	He also suggested it would send a conflicting message to Geneva.	127117750	1475450668704	1475450668774	n	78
250179	2677068	He also suggested it would send a conflicting message to Geneva.	He also suggested it would send a conflicting message to Geneva.	127117752	1475450668814	1475450668894	e	69
250179	2677068	He also suggested it would send a conflicting message to Geneva.	He also suggested it would send a conflicting message to Geneva.	127117754	1475450668964	1475450669034	v	86
250179	2677068	He also suggested it would send a conflicting message to Geneva.	He also suggested it would send a conflicting message to Geneva.	127117760	1475450669136	1475450669218	a	65
250179	2677068	He also suggested it would send a conflicting message to Geneva.	He also suggested it would send a conflicting message to Geneva.	127117761	1475450669538	1475450669624	.	190
250179	2677077	The film will be shown for the first time.	The film will be shown for the first time.	127117880	1475450672131	1475450672464	SHIFT	16
250179	2677077	The film will be shown for the first time.	The film will be shown for the first time.	127117879	1475450672351	1475450672434	T	84
250179	2677077	The film will be shown for the first time.	The film will be shown for the first time.	127117881	1475450672684	1475450672761	e	69
250179	2677077	The film will be shown for the first time.	The film will be shown for the first time.	127117882	1475450673004	1475450673128	BKSP	8
250179	2677077	The film will be shown for the first time.	The film will be shown for the first time.	127117883	1475450673538	1475450673618	h	72
250179	2677077	The film will be shown for the first time.	The film will be shown for the first time.	127117884	1475450673628	1475450673691	e	69
250179	2677077	The film will be shown for the first time.	The film will be shown for the first time.	127117885	1475450673721	1475450673794	 	32
250179	2677077	The film will be shown for the first time.	The film will be shown for the first time.	127117894	1475450673876	1475450673951	f	70
250179	2677077	The film will be shown for the first time.	The film will be shown for the first time.	127117897	1475450674001	1475450674115	i	73
250179	2677077	The film will be shown for the first time.	The film will be shown for the first time.	127117900	1475450674084	1475450674231	l	76
250179	2677077	The film will be shown for the first time.	The film will be shown for the first time.	127117903	1475450674261	1475450674354	m	77
250179	2677077	The film will be shown for the first time.	The film will be shown for the first time.	127117905	1475450674434	1475450674499	 	32
250179	2677077	The film will be shown for the first time.	The film will be shown for the first time.	127117921	1475450675074	1475450675154	w	87
250179	2677077	The film will be shown for the first time.	The film will be shown for the first time.	127117922	1475450675194	1475450675255	i	73
250179	2677077	The film will be shown for the first time.	The film will be shown for the first time.	127117923	1475450675365	1475450675432	l	76
250179	2677077	The film will be shown for the first time.	The film will be shown for the first time.	127117924	1475450675482	1475450675559	l	76
250179	2677077	The film will be shown for the first time.	The film will be shown for the first time.	127117925	1475450675649	1475450675712	 	32
250179	2677077	The film will be shown for the first time.	The film will be shown for the first time.	127117934	1475450675793	1475450675862	b	66
250179	2677077	The film will be shown for the first time.	The film will be shown for the first time.	127117935	1475450675912	1475450675962	e	69
250179	2677077	The film will be shown for the first time.	The film will be shown for the first time.	127117936	1475450675972	1475450676049	 	32
250179	2677077	The film will be shown for the first time.	The film will be shown for the first time.	127117937	1475450676129	1475450676195	s	83
250179	2677077	The film will be shown for the first time.	The film will be shown for the first time.	127117938	1475450676225	1475450676335	h	72
250179	2677077	The film will be shown for the first time.	The film will be shown for the first time.	127117976	1475450676291	1475450676407	o	79
250179	2677077	The film will be shown for the first time.	The film will be shown for the first time.	127117977	1475450676397	1475450676465	w	87
250179	2677077	The film will be shown for the first time.	The film will be shown for the first time.	127117978	1475450676505	1475450676575	n	78
250179	2677077	The film will be shown for the first time.	The film will be shown for the first time.	127117979	1475450676635	1475450676729	 	32
250179	2677077	The film will be shown for the first time.	The film will be shown for the first time.	127117980	1475450677405	1475450677462	f	70
250179	2677077	The film will be shown for the first time.	The film will be shown for the first time.	127117981	1475450677502	1475450677585	o	79
250179	2677077	The film will be shown for the first time.	The film will be shown for the first time.	127117993	1475450677575	1475450677649	r	82
250179	2677077	The film will be shown for the first time.	The film will be shown for the first time.	127117994	1475450677679	1475450677765	 	32
250179	2677077	The film will be shown for the first time.	The film will be shown for the first time.	127117995	1475450677825	1475450677889	t	84
250179	2677077	The film will be shown for the first time.	The film will be shown for the first time.	127117996	1475450677919	1475450677992	h	72
250179	2677077	The film will be shown for the first time.	The film will be shown for the first time.	127117997	1475450678022	1475450678109	e	69
250179	2677077	The film will be shown for the first time.	The film will be shown for the first time.	127117998	1475450678119	1475450678182	 	32
250179	2677077	The film will be shown for the first time.	The film will be shown for the first time.	127118008	1475450678285	1475450678359	f	70
250179	2677077	The film will be shown for the first time.	The film will be shown for the first time.	127118010	1475450678409	1475450678475	i	73
250179	2677077	The film will be shown for the first time.	The film will be shown for the first time.	127118013	1475450678505	1475450678545	r	82
250179	2677077	The film will be shown for the first time.	The film will be shown for the first time.	127118017	1475450678685	1475450678766	s	83
250179	2677077	The film will be shown for the first time.	The film will be shown for the first time.	127118035	1475450678756	1475450678829	t	84
250179	2677077	The film will be shown for the first time.	The film will be shown for the first time.	127118036	1475450678939	1475450679015	 	32
250179	2677077	The film will be shown for the first time.	The film will be shown for the first time.	127118037	1475450679145	1475450679202	t	84
250179	2677077	The film will be shown for the first time.	The film will be shown for the first time.	127118038	1475450679252	1475450679380	i	73
250179	2677077	The film will be shown for the first time.	The film will be shown for the first time.	127118039	1475450679325	1475450679420	m	77
250179	2677077	The film will be shown for the first time.	The film will be shown for the first time.	127118040	1475450679420	1475450679505	e	69
250179	2677077	The film will be shown for the first time.	The film will be shown for the first time.	127118049	1475450679649	1475450679715	.	190
250179	2677080	England star Paul Gascoigne was one of the recipients of the loans.	England star Paul Gascoigne was one of the recipients of the loans	127118137	1475450682345	1475450682759	SHIFT	16
250179	2677080	England star Paul Gascoigne was one of the recipients of the loans.	England star Paul Gascoigne was one of the recipients of the loans	127118136	1475450682635	1475450682709	E	69
250179	2677080	England star Paul Gascoigne was one of the recipients of the loans.	England star Paul Gascoigne was one of the recipients of the loans	127118139	1475450682999	1475450683095	n	78
250179	2677080	England star Paul Gascoigne was one of the recipients of the loans.	England star Paul Gascoigne was one of the recipients of the loans	127118142	1475450683145	1475450683222	g	71
250179	2677080	England star Paul Gascoigne was one of the recipients of the loans.	England star Paul Gascoigne was one of the recipients of the loans	127118146	1475450683332	1475450683441	l	76
250179	2677080	England star Paul Gascoigne was one of the recipients of the loans.	England star Paul Gascoigne was one of the recipients of the loans	127118175	1475450683419	1475450683489	a	65
250179	2677080	England star Paul Gascoigne was one of the recipients of the loans.	England star Paul Gascoigne was one of the recipients of the loans	127118177	1475450683539	1475450683616	n	78
250179	2677080	England star Paul Gascoigne was one of the recipients of the loans.	England star Paul Gascoigne was one of the recipients of the loans	127118179	1475450683685	1475450683759	d	68
250179	2677080	England star Paul Gascoigne was one of the recipients of the loans.	England star Paul Gascoigne was one of the recipients of the loans	127118181	1475450683799	1475450683872	 	32
250179	2677080	England star Paul Gascoigne was one of the recipients of the loans.	England star Paul Gascoigne was one of the recipients of the loans	127118183	1475450684549	1475450684602	s	83
250179	2677080	England star Paul Gascoigne was one of the recipients of the loans.	England star Paul Gascoigne was one of the recipients of the loans	127118186	1475450684652	1475450684735	t	84
250179	2677080	England star Paul Gascoigne was one of the recipients of the loans.	England star Paul Gascoigne was one of the recipients of the loans	127118202	1475450684745	1475450684805	a	65
250179	2677080	England star Paul Gascoigne was one of the recipients of the loans.	England star Paul Gascoigne was one of the recipients of the loans	127118203	1475450684825	1475450684905	r	82
250179	2677080	England star Paul Gascoigne was one of the recipients of the loans.	England star Paul Gascoigne was one of the recipients of the loans	127118204	1475450685025	1475450685092	 	32
250179	2677080	England star Paul Gascoigne was one of the recipients of the loans.	England star Paul Gascoigne was one of the recipients of the loans	127118205	1475450685162	1475450685429	SHIFT	16
250179	2677080	England star Paul Gascoigne was one of the recipients of the loans.	England star Paul Gascoigne was one of the recipients of the loans	127118206	1475450685352	1475450685429	P	80
250179	2677080	England star Paul Gascoigne was one of the recipients of the loans.	England star Paul Gascoigne was one of the recipients of the loans	127118207	1475450685509	1475450685589	a	65
250179	2677080	England star Paul Gascoigne was one of the recipients of the loans.	England star Paul Gascoigne was one of the recipients of the loans	127118229	1475450685681	1475450685785	u	85
250179	2677080	England star Paul Gascoigne was one of the recipients of the loans.	England star Paul Gascoigne was one of the recipients of the loans	127118230	1475450685785	1475450685899	l	76
250179	2677080	England star Paul Gascoigne was one of the recipients of the loans.	England star Paul Gascoigne was one of the recipients of the loans	127118231	1475450686009	1475450686082	 	32
250179	2677080	England star Paul Gascoigne was one of the recipients of the loans.	England star Paul Gascoigne was one of the recipients of the loans	127118233	1475450686222	1475450686775	SHIFT	16
250179	2677080	England star Paul Gascoigne was one of the recipients of the loans.	England star Paul Gascoigne was one of the recipients of the loans	127118232	1475450686675	1475450686755	G	71
250179	2677080	England star Paul Gascoigne was one of the recipients of the loans.	England star Paul Gascoigne was one of the recipients of the loans	127118234	1475450686875	1475450686939	a	65
250179	2677080	England star Paul Gascoigne was one of the recipients of the loans.	England star Paul Gascoigne was one of the recipients of the loans	127118246	1475450687041	1475450687099	s	83
250179	2677080	England star Paul Gascoigne was one of the recipients of the loans.	England star Paul Gascoigne was one of the recipients of the loans	127118250	1475450687369	1475450687469	c	67
250179	2677080	England star Paul Gascoigne was one of the recipients of the loans.	England star Paul Gascoigne was one of the recipients of the loans	127118253	1475450687549	1475450687682	i	73
250179	2677080	England star Paul Gascoigne was one of the recipients of the loans.	England star Paul Gascoigne was one of the recipients of the loans	127118255	1475450687601	1475450687722	o	79
250179	2677080	England star Paul Gascoigne was one of the recipients of the loans.	England star Paul Gascoigne was one of the recipients of the loans	127118259	1475450687822	1475450687882	g	71
250179	2677080	England star Paul Gascoigne was one of the recipients of the loans.	England star Paul Gascoigne was one of the recipients of the loans	127118348	1475450687991	1475450688075	n	78
250179	2677080	England star Paul Gascoigne was one of the recipients of the loans.	England star Paul Gascoigne was one of the recipients of the loans	127118351	1475450688085	1475450688129	e	69
250179	2677080	England star Paul Gascoigne was one of the recipients of the loans.	England star Paul Gascoigne was one of the recipients of the loans	127118357	1475450688187	1475450688265	 	32
250179	2677080	England star Paul Gascoigne was one of the recipients of the loans.	England star Paul Gascoigne was one of the recipients of the loans	127118361	1475450688902	1475450688945	BKSP	8
250179	2677080	England star Paul Gascoigne was one of the recipients of the loans.	England star Paul Gascoigne was one of the recipients of the loans	127118365	1475450689612	1475450689688	 	32
250179	2677080	England star Paul Gascoigne was one of the recipients of the loans.	England star Paul Gascoigne was one of the recipients of the loans	127118368	1475450690048	1475450690121	BKSP	8
250179	2677080	England star Paul Gascoigne was one of the recipients of the loans.	England star Paul Gascoigne was one of the recipients of the loans	127118371	1475450690181	1475450690259	BKSP	8
250179	2677080	England star Paul Gascoigne was one of the recipients of the loans.	England star Paul Gascoigne was one of the recipients of the loans	127118374	1475450690339	1475450690425	BKSP	8
250179	2677080	England star Paul Gascoigne was one of the recipients of the loans.	England star Paul Gascoigne was one of the recipients of the loans	127118376	1475450690535	1475450690617	BKSP	8
250179	2677080	England star Paul Gascoigne was one of the recipients of the loans.	England star Paul Gascoigne was one of the recipients of the loans	127118377	1475450690681	1475450690775	BKSP	8
250179	2677080	England star Paul Gascoigne was one of the recipients of the loans.	England star Paul Gascoigne was one of the recipients of the loans	127118378	1475450690885	1475450690979	BKSP	8
250179	2677080	England star Paul Gascoigne was one of the recipients of the loans.	England star Paul Gascoigne was one of the recipients of the loans	127118379	1475450691589	1475450691672	o	79
250179	2677080	England star Paul Gascoigne was one of the recipients of the loans.	England star Paul Gascoigne was one of the recipients of the loans	127118381	1475450691752	1475450691832	i	73
250179	2677080	England star Paul Gascoigne was one of the recipients of the loans.	England star Paul Gascoigne was one of the recipients of the loans	127118383	1475450692072	1475450692135	g	71
250179	2677080	England star Paul Gascoigne was one of the recipients of the loans.	England star Paul Gascoigne was one of the recipients of the loans	127118385	1475450692145	1475450692225	n	78
250179	2677080	England star Paul Gascoigne was one of the recipients of the loans.	England star Paul Gascoigne was one of the recipients of the loans	127118387	1475450692245	1475450692322	e	69
250179	2677080	England star Paul Gascoigne was one of the recipients of the loans.	England star Paul Gascoigne was one of the recipients of the loans	127118389	1475450692352	1475450692432	 	32
250179	2677080	England star Paul Gascoigne was one of the recipients of the loans.	England star Paul Gascoigne was one of the recipients of the loans	127118443	1475450693762	1475450694149	SHIFT	16
250179	2677080	England star Paul Gascoigne was one of the recipients of the loans.	England star Paul Gascoigne was one of the recipients of the loans	127118441	1475450694032	1475450694109	W	87
250179	2677080	England star Paul Gascoigne was one of the recipients of the loans.	England star Paul Gascoigne was one of the recipients of the loans	127118444	1475450694399	1475450694492	BKSP	8
250179	2677080	England star Paul Gascoigne was one of the recipients of the loans.	England star Paul Gascoigne was one of the recipients of the loans	127118445	1475450694502	1475450694572	w	87
250179	2677080	England star Paul Gascoigne was one of the recipients of the loans.	England star Paul Gascoigne was one of the recipients of the loans	127118446	1475450694672	1475450694752	a	65
250179	2677080	England star Paul Gascoigne was one of the recipients of the loans.	England star Paul Gascoigne was one of the recipients of the loans	127118447	1475450694822	1475450694892	s	83
250179	2677080	England star Paul Gascoigne was one of the recipients of the loans.	England star Paul Gascoigne was one of the recipients of the loans	127118448	1475450694892	1475450694965	 	32
250179	2677080	England star Paul Gascoigne was one of the recipients of the loans.	England star Paul Gascoigne was one of the recipients of the loans	127118469	1475450695057	1475450695185	o	79
250179	2677080	England star Paul Gascoigne was one of the recipients of the loans.	England star Paul Gascoigne was one of the recipients of the loans	127118470	1475450695132	1475450695235	n	78
250179	2677080	England star Paul Gascoigne was one of the recipients of the loans.	England star Paul Gascoigne was one of the recipients of the loans	127118471	1475450695245	1475450695315	e	69
250179	2677080	England star Paul Gascoigne was one of the recipients of the loans.	England star Paul Gascoigne was one of the recipients of the loans	127118472	1475450695325	1475450695405	 	32
250179	2677080	England star Paul Gascoigne was one of the recipients of the loans.	England star Paul Gascoigne was one of the recipients of the loans	127118473	1475450695585	1475450695617	p	80
250179	2677080	England star Paul Gascoigne was one of the recipients of the loans.	England star Paul Gascoigne was one of the recipients of the loans	127118523	1475450696092	1475450696195	BKSP	8
250179	2677080	England star Paul Gascoigne was one of the recipients of the loans.	England star Paul Gascoigne was one of the recipients of the loans	127118524	1475450696405	1475450696492	o	79
250179	2677080	England star Paul Gascoigne was one of the recipients of the loans.	England star Paul Gascoigne was one of the recipients of the loans	127118525	1475450696572	1475450696679	f	70
250179	2677080	England star Paul Gascoigne was one of the recipients of the loans.	England star Paul Gascoigne was one of the recipients of the loans	127118527	1475450697682	1475450697752	 	32
250179	2677080	England star Paul Gascoigne was one of the recipients of the loans.	England star Paul Gascoigne was one of the recipients of the loans	127118529	1475450697812	1475450697902	t	84
250179	2677080	England star Paul Gascoigne was one of the recipients of the loans.	England star Paul Gascoigne was one of the recipients of the loans	127118531	1475450697912	1475450697979	h	72
250179	2677080	England star Paul Gascoigne was one of the recipients of the loans.	England star Paul Gascoigne was one of the recipients of the loans	127118564	1475450698111	1475450698169	 	32
250179	2677080	England star Paul Gascoigne was one of the recipients of the loans.	England star Paul Gascoigne was one of the recipients of the loans	127118566	1475450698339	1475450698415	r	82
250179	2677080	England star Paul Gascoigne was one of the recipients of the loans.	England star Paul Gascoigne was one of the recipients of the loans	127118567	1475450698510	1475450698589	e	69
250179	2677080	England star Paul Gascoigne was one of the recipients of the loans.	England star Paul Gascoigne was one of the recipients of the loans	127118568	1475450698889	1475450698962	i	73
250179	2677080	England star Paul Gascoigne was one of the recipients of the loans.	England star Paul Gascoigne was one of the recipients of the loans	127118570	1475450699242	1475450699355	BKSP	8
250179	2677080	England star Paul Gascoigne was one of the recipients of the loans.	England star Paul Gascoigne was one of the recipients of the loans	127118573	1475450699495	1475450699555	v	86
250179	2677080	England star Paul Gascoigne was one of the recipients of the loans.	England star Paul Gascoigne was one of the recipients of the loans	127118632	1475450699867	1475450699952	BKSP	8
250179	2677080	England star Paul Gascoigne was one of the recipients of the loans.	England star Paul Gascoigne was one of the recipients of the loans	127118633	1475450700002	1475450700095	BKSP	8
250179	2677080	England star Paul Gascoigne was one of the recipients of the loans.	England star Paul Gascoigne was one of the recipients of the loans	127118634	1475450700145	1475450700232	BKSP	8
250179	2677080	England star Paul Gascoigne was one of the recipients of the loans.	England star Paul Gascoigne was one of the recipients of the loans	127118635	1475450700282	1475450700385	BKSP	8
250179	2677080	England star Paul Gascoigne was one of the recipients of the loans.	England star Paul Gascoigne was one of the recipients of the loans	127118636	1475450700992	1475450701065	e	69
250179	2677080	England star Paul Gascoigne was one of the recipients of the loans.	England star Paul Gascoigne was one of the recipients of the loans	127118637	1475450701065	1475450701159	 	32
250179	2677080	England star Paul Gascoigne was one of the recipients of the loans.	England star Paul Gascoigne was one of the recipients of the loans	127118638	1475450702113	1475450702162	r	82
250179	2677080	England star Paul Gascoigne was one of the recipients of the loans.	England star Paul Gascoigne was one of the recipients of the loans	127118639	1475450702252	1475450702315	e	69
250179	2677080	England star Paul Gascoigne was one of the recipients of the loans.	England star Paul Gascoigne was one of the recipients of the loans	127118640	1475450702465	1475450702539	c	67
250179	2677080	England star Paul Gascoigne was one of the recipients of the loans.	England star Paul Gascoigne was one of the recipients of the loans	127118647	1475450702591	1475450702665	i	73
250179	2677080	England star Paul Gascoigne was one of the recipients of the loans.	England star Paul Gascoigne was one of the recipients of the loans	127118648	1475450702785	1475450702869	p	80
250179	2677080	England star Paul Gascoigne was one of the recipients of the loans.	England star Paul Gascoigne was one of the recipients of the loans	127118649	1475450702979	1475450703065	i	73
250179	2677080	England star Paul Gascoigne was one of the recipients of the loans.	England star Paul Gascoigne was one of the recipients of the loans	127118650	1475450703105	1475450703185	e	69
250179	2677080	England star Paul Gascoigne was one of the recipients of the loans.	England star Paul Gascoigne was one of the recipients of the loans	127118651	1475450703265	1475450703352	n	78
250179	2677080	England star Paul Gascoigne was one of the recipients of the loans.	England star Paul Gascoigne was one of the recipients of the loans	127118675	1475450703404	1475450703452	t	84
250179	2677080	England star Paul Gascoigne was one of the recipients of the loans.	England star Paul Gascoigne was one of the recipients of the loans	127118678	1475450703648	1475450703745	s	83
250179	2677080	England star Paul Gascoigne was one of the recipients of the loans.	England star Paul Gascoigne was one of the recipients of the loans	127118682	1475450703785	1475450703863	 	32
250179	2677080	England star Paul Gascoigne was one of the recipients of the loans.	England star Paul Gascoigne was one of the recipients of the loans	127118684	1475450704395	1475450704485	o	79
250179	2677080	England star Paul Gascoigne was one of the recipients of the loans.	England star Paul Gascoigne was one of the recipients of the loans	127118685	1475450704515	1475450704592	f	70
250179	2677080	England star Paul Gascoigne was one of the recipients of the loans.	England star Paul Gascoigne was one of the recipients of the loans	127118686	1475450704633	1475450704705	 	32
250179	2677080	England star Paul Gascoigne was one of the recipients of the loans.	England star Paul Gascoigne was one of the recipients of the loans	127118687	1475450704735	1475450704795	t	84
250179	2677080	England star Paul Gascoigne was one of the recipients of the loans.	England star Paul Gascoigne was one of the recipients of the loans	127118689	1475450704825	1475450704905	h	72
250179	2677080	England star Paul Gascoigne was one of the recipients of the loans.	England star Paul Gascoigne was one of the recipients of the loans	127118691	1475450704935	1475450705009	e	69
250179	2677080	England star Paul Gascoigne was one of the recipients of the loans.	England star Paul Gascoigne was one of the recipients of the loans	127118695	1475450705029	1475450705081	 	32
250179	2677080	England star Paul Gascoigne was one of the recipients of the loans.	England star Paul Gascoigne was one of the recipients of the loans	127118708	1475450705154	1475450705248	l	76
250179	2677080	England star Paul Gascoigne was one of the recipients of the loans.	England star Paul Gascoigne was one of the recipients of the loans	127118709	1475450705319	1475450705401	o	79
250179	2677080	England star Paul Gascoigne was one of the recipients of the loans.	England star Paul Gascoigne was one of the recipients of the loans	127118710	1475450705435	1475450705509	a	65
250179	2677080	England star Paul Gascoigne was one of the recipients of the loans.	England star Paul Gascoigne was one of the recipients of the loans	127118711	1475450705569	1475450705645	n	78
250179	2677080	England star Paul Gascoigne was one of the recipients of the loans.	England star Paul Gascoigne was one of the recipients of the loans	127118712	1475450705655	1475450705732	s	83
250179	2677094	But I hope to see you at Kari's house.	But I hope to see you at Kari's house.	127118783	1475450709098	1475450709365	SHIFT	16
250179	2677094	But I hope to see you at Kari's house.	But I hope to see you at Kari's house.	127118782	1475450709248	1475450709325	B	66
250179	2677094	But I hope to see you at Kari's house.	But I hope to see you at Kari's house.	127118784	1475450709485	1475450709585	u	85
250179	2677094	But I hope to see you at Kari's house.	But I hope to see you at Kari's house.	127118785	1475450709615	1475450709679	t	84
250179	2677094	But I hope to see you at Kari's house.	But I hope to see you at Kari's house.	127118786	1475450709799	1475450709872	 	32
250179	2677094	But I hope to see you at Kari's house.	But I hope to see you at Kari's house.	127118797	1475450710292	1475450710554	SHIFT	16
250179	2677094	But I hope to see you at Kari's house.	But I hope to see you at Kari's house.	127118787	1475450710409	1475450710482	I	73
250179	2677094	But I hope to see you at Kari's house.	But I hope to see you at Kari's house.	127118798	1475450710654	1475450710732	 	32
250179	2677094	But I hope to see you at Kari's house.	But I hope to see you at Kari's house.	127118800	1475450711062	1475450711179	h	72
250179	2677094	But I hope to see you at Kari's house.	But I hope to see you at Kari's house.	127118802	1475450711122	1475450711273	o	79
250179	2677094	But I hope to see you at Kari's house.	But I hope to see you at Kari's house.	127118804	1475450711249	1475450711393	p	80
250179	2677094	But I hope to see you at Kari's house.	But I hope to see you at Kari's house.	127118820	1475450711355	1475450711439	e	69
250179	2677094	But I hope to see you at Kari's house.	But I hope to see you at Kari's house.	127118822	1475450711509	1475450711568	 	32
250179	2677094	But I hope to see you at Kari's house.	But I hope to see you at Kari's house.	127118823	1475450711648	1475450711745	t	84
250179	2677094	But I hope to see you at Kari's house.	But I hope to see you at Kari's house.	127118824	1475450711745	1475450711885	o	79
250179	2677094	But I hope to see you at Kari's house.	But I hope to see you at Kari's house.	127118825	1475450711935	1475450712025	 	32
250179	2677094	But I hope to see you at Kari's house.	But I hope to see you at Kari's house.	127118826	1475450712512	1475450712592	s	83
250179	2677094	But I hope to see you at Kari's house.	But I hope to see you at Kari's house.	127118841	1475450712703	1475450712785	e	69
250179	2677094	But I hope to see you at Kari's house.	But I hope to see you at Kari's house.	127118842	1475450712845	1475450712922	e	69
250179	2677094	But I hope to see you at Kari's house.	But I hope to see you at Kari's house.	127118843	1475450713012	1475450713094	 	32
250179	2677094	But I hope to see you at Kari's house.	But I hope to see you at Kari's house.	127118844	1475450713753	1475450713922	y	89
250179	2677094	But I hope to see you at Kari's house.	But I hope to see you at Kari's house.	127118868	1475450713912	1475450714058	o	79
250179	2677094	But I hope to see you at Kari's house.	But I hope to see you at Kari's house.	127118869	1475450714088	1475450714189	u	85
250179	2677094	But I hope to see you at Kari's house.	But I hope to see you at Kari's house.	127118870	1475450714514	1475450714598	 	32
250179	2677094	But I hope to see you at Kari's house.	But I hope to see you at Kari's house.	127118871	1475450714728	1475450714818	a	65
250179	2677094	But I hope to see you at Kari's house.	But I hope to see you at Kari's house.	127118872	1475450714848	1475450714915	t	84
250179	2677094	But I hope to see you at Kari's house.	But I hope to see you at Kari's house.	127118890	1475450715045	1475450715102	v	32
250179	2677094	But I hope to see you at Kari's house.	But I hope to see you at Kari's house.	127118891	1475450715132	1475450715679	SHIFT	16
250179	2677094	But I hope to see you at Kari's house.	But I hope to see you at Kari's house.	127118892	1475450715779	1475450715865	BKSP	8
250179	2677094	But I hope to see you at Kari's house.	But I hope to see you at Kari's house.	127118894	1475450716125	1475450716438	SHIFT	16
250179	2677094	But I hope to see you at Kari's house.	But I hope to see you at Kari's house.	127118893	1475450716345	1475450716408	K	75
250179	2677094	But I hope to see you at Kari's house.	But I hope to see you at Kari's house.	127118895	1475450716548	1475450716635	a	65
250179	2677094	But I hope to see you at Kari's house.	But I hope to see you at Kari's house.	127118896	1475450716715	1475450716769	r	82
250179	2677094	But I hope to see you at Kari's house.	But I hope to see you at Kari's house.	127118897	1475450716989	1475450717062	i	73
250179	2677094	But I hope to see you at Kari's house.	But I hope to see you at Kari's house.	127118943	1475450717462	1475450717520	;	222
250179	2677094	But I hope to see you at Kari's house.	But I hope to see you at Kari's house.	127118944	1475450717576	1475450717639	s	83
250179	2677094	But I hope to see you at Kari's house.	But I hope to see you at Kari's house.	127118945	1475450717959	1475450718029	BKSP	8
250179	2677094	But I hope to see you at Kari's house.	But I hope to see you at Kari's house.	127118948	1475450718079	1475450718165	BKSP	8
250179	2677094	But I hope to see you at Kari's house.	But I hope to see you at Kari's house.	127118951	1475450718255	1475450718295	BKSP	8
250179	2677094	But I hope to see you at Kari's house.	But I hope to see you at Kari's house.	127118955	1475450718952	1475450719032	'	222
250179	2677094	But I hope to see you at Kari's house.	But I hope to see you at Kari's house.	127118958	1475450719042	1475450719125	s	83
250179	2677094	But I hope to see you at Kari's house.	But I hope to see you at Kari's house.	127118961	1475450719225	1475450719298	 	32
250179	2677094	But I hope to see you at Kari's house.	But I hope to see you at Kari's house.	127118963	1475450719608	1475450719713	h	72
250179	2677094	But I hope to see you at Kari's house.	But I hope to see you at Kari's house.	127118973	1475450719665	1475450719835	o	79
250179	2677094	But I hope to see you at Kari's house.	But I hope to see you at Kari's house.	127118975	1475450719807	1475450719895	u	85
250179	2677094	But I hope to see you at Kari's house.	But I hope to see you at Kari's house.	127118977	1475450719935	1475450720032	s	83
250179	2677094	But I hope to see you at Kari's house.	But I hope to see you at Kari's house.	127118979	1475450720122	1475450720199	e	69
250179	2677100	I'm still in Dallas!	I'm still in Dallas!	127119057	1475450723377	1475450723738	SHIFT	16
250179	2677100	I'm still in Dallas!	I'm still in Dallas!	127119056	1475450723655	1475450723728	I	73
250179	2677100	I'm still in Dallas!	I'm still in Dallas!	127119059	1475450724068	1475450724148	'	222
250179	2677100	I'm still in Dallas!	I'm still in Dallas!	127119060	1475450724875	1475450724968	m	77
250179	2677100	I'm still in Dallas!	I'm still in Dallas!	127119061	1475450725108	1475450725188	 	32
250179	2677100	I'm still in Dallas!	I'm still in Dallas!	127119062	1475450725508	1475450725592	s	83
250179	2677100	I'm still in Dallas!	I'm still in Dallas!	127119080	1475450725855	1475450725945	t	84
250179	2677100	I'm still in Dallas!	I'm still in Dallas!	127119082	1475450725985	1475450726055	i	73
250179	2677100	I'm still in Dallas!	I'm still in Dallas!	127119084	1475450726175	1475450726229	l	76
250179	2677100	I'm still in Dallas!	I'm still in Dallas!	127119086	1475450726289	1475450726375	l	76
250179	2677100	I'm still in Dallas!	I'm still in Dallas!	127119087	1475450726495	1475450726575	 	32
250179	2677100	I'm still in Dallas!	I'm still in Dallas!	127119094	1475450726937	1475450727028	i	73
250179	2677100	I'm still in Dallas!	I'm still in Dallas!	127119095	1475450726977	1475450727088	n	78
250179	2677100	I'm still in Dallas!	I'm still in Dallas!	127119096	1475450727148	1475450727235	 	32
250179	2677100	I'm still in Dallas!	I'm still in Dallas!	127119098	1475450727305	1475450727629	SHIFT	16
250179	2677100	I'm still in Dallas!	I'm still in Dallas!	127119097	1475450727525	1475450727609	D	68
250179	2677100	I'm still in Dallas!	I'm still in Dallas!	127119099	1475450727769	1475450727865	a	65
250179	2677100	I'm still in Dallas!	I'm still in Dallas!	127119117	1475450727855	1475450727902	l	76
250179	2677100	I'm still in Dallas!	I'm still in Dallas!	127119118	1475450727952	1475450728032	l	76
250179	2677100	I'm still in Dallas!	I'm still in Dallas!	127119119	1475450728042	1475450728125	a	65
250179	2677100	I'm still in Dallas!	I'm still in Dallas!	127119121	1475450728215	1475450728288	s	83
250179	2677100	I'm still in Dallas!	I'm still in Dallas!	127119126	1475450728438	1475450728932	SHIFT	16
250179	2677100	I'm still in Dallas!	I'm still in Dallas!	127119123	1475450728805	1475450728882	!	49
250179	2677103	Sports fans here are excited.	Sports fans here are excited.	127119170	1475450731628	1475450732112	SHIFT	16
250179	2677103	Sports fans here are excited.	Sports fans here are excited.	127119171	1475450732048	1475450732112	S	83
250179	2677103	Sports fans here are excited.	Sports fans here are excited.	127119172	1475450732282	1475450732328	p	80
250179	2677103	Sports fans here are excited.	Sports fans here are excited.	127119173	1475450732408	1475450732472	o	79
250179	2677103	Sports fans here are excited.	Sports fans here are excited.	127119174	1475450732512	1475450732568	r	82
250179	2677103	Sports fans here are excited.	Sports fans here are excited.	127119175	1475450732678	1475450732758	t	84
250179	2677103	Sports fans here are excited.	Sports fans here are excited.	127119206	1475450732780	1475450732855	s	83
250179	2677103	Sports fans here are excited.	Sports fans here are excited.	127119207	1475450732965	1475450733038	 	32
250179	2677103	Sports fans here are excited.	Sports fans here are excited.	127119208	1475450733682	1475450733768	f	70
250179	2677103	Sports fans here are excited.	Sports fans here are excited.	127119209	1475450733788	1475450733865	a	65
250179	2677103	Sports fans here are excited.	Sports fans here are excited.	127119210	1475450734035	1475450734118	n	78
250179	2677103	Sports fans here are excited.	Sports fans here are excited.	127119216	1475450734160	1475450734232	s	83
250179	2677103	Sports fans here are excited.	Sports fans here are excited.	127119217	1475450734252	1475450734322	 	32
250179	2677103	Sports fans here are excited.	Sports fans here are excited.	127119218	1475450734412	1475450734502	h	72
250179	2677103	Sports fans here are excited.	Sports fans here are excited.	127119219	1475450734512	1475450734582	e	69
250179	2677103	Sports fans here are excited.	Sports fans here are excited.	127119220	1475450734652	1475450734725	r	82
250179	2677103	Sports fans here are excited.	Sports fans here are excited.	127119235	1475450734767	1475450734822	e	69
250179	2677103	Sports fans here are excited.	Sports fans here are excited.	127119237	1475450734912	1475450735002	 	32
250179	2677103	Sports fans here are excited.	Sports fans here are excited.	127119239	1475450735002	1475450735078	a	65
250179	2677103	Sports fans here are excited.	Sports fans here are excited.	127119241	1475450735168	1475450735232	r	82
250179	2677103	Sports fans here are excited.	Sports fans here are excited.	127119243	1475450735232	1475450735347	e	69
250179	2677103	Sports fans here are excited.	Sports fans here are excited.	127119253	1475450735399	1475450735482	 	32
250179	2677103	Sports fans here are excited.	Sports fans here are excited.	127119255	1475450735903	1475450735985	e	69
250179	2677103	Sports fans here are excited.	Sports fans here are excited.	127119257	1475450736155	1475450736232	x	88
250179	2677103	Sports fans here are excited.	Sports fans here are excited.	127119259	1475450736352	1475450736415	c	67
250179	2677103	Sports fans here are excited.	Sports fans here are excited.	127119261	1475450736475	1475450736548	i	73
250179	2677103	Sports fans here are excited.	Sports fans here are excited.	127119270	1475450736590	1475450736655	t	84
250179	2677103	Sports fans here are excited.	Sports fans here are excited.	127119271	1475450736765	1475450736832	e	69
250179	2677103	Sports fans here are excited.	Sports fans here are excited.	127119272	1475450736915	1475450736988	d	68
250179	2677106	A detailed organizational chart is attached.	A detailed organizational chart is attached.	127119308	1475450739800	1475450740088	SHIFT	16
250179	2677106	A detailed organizational chart is attached.	A detailed organizational chart is attached.	127119305	1475450740015	1475450740078	A	65
250179	2677106	A detailed organizational chart is attached.	A detailed organizational chart is attached.	127119311	1475450740208	1475450740265	 	32
250179	2677106	A detailed organizational chart is attached.	A detailed organizational chart is attached.	127119314	1475450740295	1475450740385	d	68
250179	2677106	A detailed organizational chart is attached.	A detailed organizational chart is attached.	127119318	1475450740455	1475450740525	e	69
250179	2677106	A detailed organizational chart is attached.	A detailed organizational chart is attached.	127119320	1475450740575	1475450740655	t	84
250179	2677106	A detailed organizational chart is attached.	A detailed organizational chart is attached.	127119329	1475450740687	1475450740752	a	65
250179	2677106	A detailed organizational chart is attached.	A detailed organizational chart is attached.	127119330	1475450740852	1475450740905	i	73
250179	2677106	A detailed organizational chart is attached.	A detailed organizational chart is attached.	127119331	1475450741015	1475450741088	l	76
250179	2677106	A detailed organizational chart is attached.	A detailed organizational chart is attached.	127119332	1475450741098	1475450741165	e	69
250179	2677106	A detailed organizational chart is attached.	A detailed organizational chart is attached.	127119333	1475450741257	1475450741322	d	68
250179	2677106	A detailed organizational chart is attached.	A detailed organizational chart is attached.	127119345	1475450741364	1475450741439	 	32
250179	2677106	A detailed organizational chart is attached.	A detailed organizational chart is attached.	127119346	1475450742012	1475450742092	o	79
250179	2677106	A detailed organizational chart is attached.	A detailed organizational chart is attached.	127119347	1475450742172	1475450742268	r	82
250179	2677106	A detailed organizational chart is attached.	A detailed organizational chart is attached.	127119348	1475450742408	1475450742478	g	71
250179	2677106	A detailed organizational chart is attached.	A detailed organizational chart is attached.	127119349	1475450742528	1475450742595	a	65
250179	2677106	A detailed organizational chart is attached.	A detailed organizational chart is attached.	127119373	1475450742637	1475450742748	n	78
250179	2677106	A detailed organizational chart is attached.	A detailed organizational chart is attached.	127119374	1475450742808	1475450742882	i	73
250179	2677106	A detailed organizational chart is attached.	A detailed organizational chart is attached.	127119375	1475450743254	1475450743351	z	90
250179	2677106	A detailed organizational chart is attached.	A detailed organizational chart is attached.	127119376	1475450743479	1475450743568	a	65
250179	2677106	A detailed organizational chart is attached.	A detailed organizational chart is attached.	127119377	1475450743798	1475450743895	t	84
250179	2677106	A detailed organizational chart is attached.	A detailed organizational chart is attached.	127119392	1475450743917	1475450744028	i	73
250179	2677106	A detailed organizational chart is attached.	A detailed organizational chart is attached.	127119393	1475450743968	1475450744088	o	79
250179	2677106	A detailed organizational chart is attached.	A detailed organizational chart is attached.	127119394	1475450744168	1475450744245	n	78
250179	2677106	A detailed organizational chart is attached.	A detailed organizational chart is attached.	127119395	1475450744235	1475450744328	a	65
250179	2677106	A detailed organizational chart is attached.	A detailed organizational chart is attached.	127119396	1475450744338	1475450744445	l	76
250179	2677106	A detailed organizational chart is attached.	A detailed organizational chart is attached.	127119408	1475450744904	1475450744972	 	32
250179	2677106	A detailed organizational chart is attached.	A detailed organizational chart is attached.	127119409	1475450745172	1475450745258	c	67
250179	2677106	A detailed organizational chart is attached.	A detailed organizational chart is attached.	127119410	1475450745328	1475450745405	h	72
250179	2677106	A detailed organizational chart is attached.	A detailed organizational chart is attached.	127119411	1475450745415	1475450745498	a	65
250179	2677106	A detailed organizational chart is attached.	A detailed organizational chart is attached.	127119412	1475450745568	1475450745622	r	82
250179	2677106	A detailed organizational chart is attached.	A detailed organizational chart is attached.	127119434	1475450745684	1475450745765	t	84
250179	2677106	A detailed organizational chart is attached.	A detailed organizational chart is attached.	127119437	1475450745895	1475450745955	 	32
250179	2677106	A detailed organizational chart is attached.	A detailed organizational chart is attached.	127119439	1475450746406	1475450746482	i	73
250179	2677106	A detailed organizational chart is attached.	A detailed organizational chart is attached.	127119442	1475450746532	1475450746605	s	83
250179	2677106	A detailed organizational chart is attached.	A detailed organizational chart is attached.	127119445	1475450746615	1475450746692	 	32
250179	2677106	A detailed organizational chart is attached.	A detailed organizational chart is attached.	127119454	1475450746774	1475450746855	a	65
250179	2677106	A detailed organizational chart is attached.	A detailed organizational chart is attached.	127119455	1475450746895	1475450746975	t	84
250179	2677106	A detailed organizational chart is attached.	A detailed organizational chart is attached.	127119456	1475450747005	1475450747082	t	84
250179	2677106	A detailed organizational chart is attached.	A detailed organizational chart is attached.	127119457	1475450747092	1475450747175	a	65
250179	2677106	A detailed organizational chart is attached.	A detailed organizational chart is attached.	127119459	1475450747325	1475450747368	c	67
250179	2677106	A detailed organizational chart is attached.	A detailed organizational chart is attached.	127119465	1475450747448	1475450747532	h	72
250179	2677106	A detailed organizational chart is attached.	A detailed organizational chart is attached.	127119467	1475450747612	1475450747678	e	69
250179	2677106	A detailed organizational chart is attached.	A detailed organizational chart is attached.	127119470	1475450747788	1475450747848	d	68
250179	2677106	A detailed organizational chart is attached.	A detailed organizational chart is attached.	127119473	1475450748048	1475450748105	.	190
250179	2677113	How soon do you need it?	How soon do you need it?	127119487	1475450750775	1475450750968	SHIFT	16
250179	2677113	How soon do you need it?	How soon do you need it?	127119486	1475450750885	1475450750948	H	72
250179	2677113	How soon do you need it?	How soon do you need it?	127119489	1475450751088	1475450751185	o	79
250179	2677113	How soon do you need it?	How soon do you need it?	127119492	1475450751205	1475450751295	w	87
250179	2677113	How soon do you need it?	How soon do you need it?	127119496	1475450751315	1475450751398	 	32
250179	2677113	How soon do you need it?	How soon do you need it?	127119499	1475450751538	1475450751615	s	83
250179	2677113	How soon do you need it?	How soon do you need it?	127119508	1475450751648	1475450751722	o	79
250179	2677113	How soon do you need it?	How soon do you need it?	127119509	1475450751792	1475450751888	o	79
250179	2677113	How soon do you need it?	How soon do you need it?	127119510	1475450751928	1475450752025	n	78
250179	2677113	How soon do you need it?	How soon do you need it?	127119511	1475450752095	1475450752172	 	32
250179	2677113	How soon do you need it?	How soon do you need it?	127119512	1475450752494	1475450752561	d	68
250179	2677113	How soon do you need it?	How soon do you need it?	127119536	1475450752583	1475450752688	o	79
250179	2677113	How soon do you need it?	How soon do you need it?	127119538	1475450752738	1475450752842	 	32
250179	2677113	How soon do you need it?	How soon do you need it?	127119540	1475450753415	1475450753545	y	89
250179	2677113	How soon do you need it?	How soon do you need it?	127119542	1475450753472	1475450753672	o	79
250179	2677113	How soon do you need it?	How soon do you need it?	127119556	1475450753605	1475450753714	u	85
250179	2677113	How soon do you need it?	How soon do you need it?	127119560	1475450753854	1475450753935	 	32
250179	2677113	How soon do you need it?	How soon do you need it?	127119564	1475450754005	1475450754075	n	78
250179	2677113	How soon do you need it?	How soon do you need it?	127119567	1475450754135	1475450754215	e	69
250179	2677113	How soon do you need it?	How soon do you need it?	127119569	1475450754265	1475450754338	e	69
250179	2677113	How soon do you need it?	How soon do you need it?	127119572	1475450754438	1475450754518	d	68
250179	2677113	How soon do you need it?	How soon do you need it?	127119585	1475450754540	1475450754625	 	32
250179	2677113	How soon do you need it?	How soon do you need it?	127119586	1475450754695	1475450754761	i	73
250179	2677113	How soon do you need it?	How soon do you need it?	127119587	1475450754851	1475450754925	t	84
250179	2677113	How soon do you need it?	How soon do you need it?	127119589	1475450755095	1475450755348	SHIFT	16
250179	2677113	How soon do you need it?	How soon do you need it?	127119588	1475450755265	1475450755338	?	191
250179	2677119	Please respond if anyone has a different view.	Please respond if anyone has a different view.	127119691	1475450757862	1475450758208	SHIFT	16
250179	2677119	Please respond if anyone has a different view.	Please respond if anyone has a different view.	127119689	1475450758112	1475450758198	P	80
250179	2677119	Please respond if anyone has a different view.	Please respond if anyone has a different view.	127119694	1475450758318	1475450758391	l	76
250179	2677119	Please respond if anyone has a different view.	Please respond if anyone has a different view.	127119698	1475450758391	1475450758468	e	69
250179	2677119	Please respond if anyone has a different view.	Please respond if anyone has a different view.	127119703	1475450758568	1475450758658	a	65
250179	2677119	Please respond if anyone has a different view.	Please respond if anyone has a different view.	127119707	1475450758748	1475450758832	s	83
250179	2677119	Please respond if anyone has a different view.	Please respond if anyone has a different view.	127119716	1475450758924	1475450758988	e	69
250179	2677119	Please respond if anyone has a different view.	Please respond if anyone has a different view.	127119718	1475450759008	1475450759101	 	32
250179	2677119	Please respond if anyone has a different view.	Please respond if anyone has a different view.	127119721	1475450759231	1475450759296	r	82
250179	2677119	Please respond if anyone has a different view.	Please respond if anyone has a different view.	127119725	1475450759296	1475450759375	e	69
250179	2677119	Please respond if anyone has a different view.	Please respond if anyone has a different view.	127119730	1475450759475	1475450759558	s	83
250179	2677119	Please respond if anyone has a different view.	Please respond if anyone has a different view.	127119771	1475450759600	1475450759671	p	80
250179	2677119	Please respond if anyone has a different view.	Please respond if anyone has a different view.	127119774	1475450760618	1475450760745	o	79
250179	2677119	Please respond if anyone has a different view.	Please respond if anyone has a different view.	127119779	1475450760702	1475450760815	n	78
250179	2677119	Please respond if anyone has a different view.	Please respond if anyone has a different view.	127119783	1475450760885	1475450760975	d	68
250179	2677119	Please respond if anyone has a different view.	Please respond if anyone has a different view.	127119787	1475450760975	1475450761058	 	32
250179	2677119	Please respond if anyone has a different view.	Please respond if anyone has a different view.	127119812	1475450761390	1475450761475	i	73
250179	2677119	Please respond if anyone has a different view.	Please respond if anyone has a different view.	127119815	1475450761793	1475450761871	f	70
250179	2677119	Please respond if anyone has a different view.	Please respond if anyone has a different view.	127119817	1475450761861	1475450761931	 	32
250179	2677119	Please respond if anyone has a different view.	Please respond if anyone has a different view.	127119819	1475450762021	1475450762108	a	65
250179	2677119	Please respond if anyone has a different view.	Please respond if anyone has a different view.	127119833	1475450762098	1475450762175	n	78
250179	2677119	Please respond if anyone has a different view.	Please respond if anyone has a different view.	127119835	1475450762375	1475450762424	y	89
250179	2677119	Please respond if anyone has a different view.	Please respond if anyone has a different view.	127119837	1475450762555	1475450762681	o	79
250179	2677119	Please respond if anyone has a different view.	Please respond if anyone has a different view.	127119838	1475450762618	1475450762711	n	78
250179	2677119	Please respond if anyone has a different view.	Please respond if anyone has a different view.	127119840	1475450762771	1475450762848	e	69
250179	2677119	Please respond if anyone has a different view.	Please respond if anyone has a different view.	127119842	1475450762918	1475450763008	 	32
250179	2677119	Please respond if anyone has a different view.	Please respond if anyone has a different view.	127119866	1475450763579	1475450763659	h	72
250179	2677119	Please respond if anyone has a different view.	Please respond if anyone has a different view.	127119869	1475450763669	1475450763753	a	65
250179	2677119	Please respond if anyone has a different view.	Please respond if anyone has a different view.	127119871	1475450763833	1475450763896	s	83
250179	2677119	Please respond if anyone has a different view.	Please respond if anyone has a different view.	127119874	1475450763936	1475450763999	 	32
250179	2677119	Please respond if anyone has a different view.	Please respond if anyone has a different view.	127119878	1475450764019	1475450764099	a	65
250179	2677119	Please respond if anyone has a different view.	Please respond if anyone has a different view.	127119902	1475450764141	1475450764216	 	32
250179	2677119	Please respond if anyone has a different view.	Please respond if anyone has a different view.	127119906	1475450764286	1475450764369	d	68
250179	2677119	Please respond if anyone has a different view.	Please respond if anyone has a different view.	127119910	1475450764469	1475450764538	i	73
250179	2677119	Please respond if anyone has a different view.	Please respond if anyone has a different view.	127119913	1475450764578	1475450764646	f	70
250179	2677119	Please respond if anyone has a different view.	Please respond if anyone has a different view.	127119915	1475450764696	1475450764752	f	70
250179	2677119	Please respond if anyone has a different view.	Please respond if anyone has a different view.	127119925	1475450764833	1475450764929	e	69
250179	2677119	Please respond if anyone has a different view.	Please respond if anyone has a different view.	127119928	1475450764999	1475450765066	r	82
250179	2677119	Please respond if anyone has a different view.	Please respond if anyone has a different view.	127119931	1475450765126	1475450765226	e	69
250179	2677119	Please respond if anyone has a different view.	Please respond if anyone has a different view.	127119934	1475450765256	1475450765339	n	78
250179	2677119	Please respond if anyone has a different view.	Please respond if anyone has a different view.	127119937	1475450765349	1475450765426	t	84
250179	2677119	Please respond if anyone has a different view.	Please respond if anyone has a different view.	127119949	1475450765448	1475450765536	 	32
250179	2677119	Please respond if anyone has a different view.	Please respond if anyone has a different view.	127119952	1475450765726	1475450765786	v	86
250179	2677119	Please respond if anyone has a different view.	Please respond if anyone has a different view.	127119956	1475450765857	1475450765952	i	73
250179	2677119	Please respond if anyone has a different view.	Please respond if anyone has a different view.	127119960	1475450765952	1475450766025	e	69
250179	2677119	Please respond if anyone has a different view.	Please respond if anyone has a different view.	127119963	1475450766118	1475450766163	w	87
250179	2677119	Please respond if anyone has a different view.	Please respond if anyone has a different view.	127119970	1475450766305	1475450766376	.	190
250179	2677125	Ben could tell him about Pompano.	Ben could tell him about Pompano.	127120076	1475450768753	1475450769099	SHIFT	16
250179	2677125	Ben could tell him about Pompano.	Ben could tell him about Pompano.	127120074	1475450769012	1475450769089	B	66
250179	2677125	Ben could tell him about Pompano.	Ben could tell him about Pompano.	127120080	1475450769199	1475450769262	e	69
250179	2677125	Ben could tell him about Pompano.	Ben could tell him about Pompano.	127120086	1475450769272	1475450769352	n	78
250179	2677125	Ben could tell him about Pompano.	Ben could tell him about Pompano.	127120090	1475450769422	1475450769503	 	32
250179	2677125	Ben could tell him about Pompano.	Ben could tell him about Pompano.	127120093	1475450769613	1475450769679	c	67
250179	2677125	Ben could tell him about Pompano.	Ben could tell him about Pompano.	127120107	1475450769761	1475450769856	o	79
250179	2677125	Ben could tell him about Pompano.	Ben could tell him about Pompano.	127120108	1475450769809	1475450769906	u	85
250179	2677125	Ben could tell him about Pompano.	Ben could tell him about Pompano.	127120110	1475450769956	1475450770069	l	76
250179	2677125	Ben could tell him about Pompano.	Ben could tell him about Pompano.	127120112	1475450770089	1475450770169	d	68
250179	2677125	Ben could tell him about Pompano.	Ben could tell him about Pompano.	127120114	1475450770199	1475450770286	 	32
250179	2677125	Ben could tell him about Pompano.	Ben could tell him about Pompano.	127120185	1475450771106	1475450771182	t	84
250179	2677125	Ben could tell him about Pompano.	Ben could tell him about Pompano.	127120186	1475450771422	1475450771472	l	76
250179	2677125	Ben could tell him about Pompano.	Ben could tell him about Pompano.	127120187	1475450771532	1475450771606	l	76
250179	2677125	Ben could tell him about Pompano.	Ben could tell him about Pompano.	127120188	1475450771806	1475450771896	BKSP	8
250179	2677125	Ben could tell him about Pompano.	Ben could tell him about Pompano.	127120189	1475450771946	1475450772032	BKSP	8
250179	2677125	Ben could tell him about Pompano.	Ben could tell him about Pompano.	127120190	1475450772442	1475450772518	e	69
250179	2677125	Ben could tell him about Pompano.	Ben could tell him about Pompano.	127120192	1475450772828	1475450772896	l	76
250179	2677125	Ben could tell him about Pompano.	Ben could tell him about Pompano.	127120207	1475450772937	1475450773026	l	76
250179	2677125	Ben could tell him about Pompano.	Ben could tell him about Pompano.	127120209	1475450773146	1475450773216	 	32
250179	2677125	Ben could tell him about Pompano.	Ben could tell him about Pompano.	127120212	1475450773326	1475450773449	h	72
250179	2677125	Ben could tell him about Pompano.	Ben could tell him about Pompano.	127120214	1475450773500	1475450773617	i	73
250179	2677125	Ben could tell him about Pompano.	Ben could tell him about Pompano.	127120268	1475450773576	1475450773696	m	77
250179	2677125	Ben could tell him about Pompano.	Ben could tell him about Pompano.	127120269	1475450774439	1475450774509	 	32
250179	2677125	Ben could tell him about Pompano.	Ben could tell him about Pompano.	127120270	1475450774729	1475450774809	a	65
250179	2677125	Ben could tell him about Pompano.	Ben could tell him about Pompano.	127120271	1475450774919	1475450775036	b	66
250179	2677125	Ben could tell him about Pompano.	Ben could tell him about Pompano.	127120273	1475450775009	1475450775185	o	79
250179	2677125	Ben could tell him about Pompano.	Ben could tell him about Pompano.	127120318	1475450775146	1475450775237	u	85
250179	2677125	Ben could tell him about Pompano.	Ben could tell him about Pompano.	127120320	1475450775387	1475450775476	t	84
250179	2677125	Ben could tell him about Pompano.	Ben could tell him about Pompano.	127120321	1475450775476	1475450775569	 	32
250179	2677125	Ben could tell him about Pompano.	Ben could tell him about Pompano.	127120322	1475450775761	1475450775842	p	80
250179	2677125	Ben could tell him about Pompano.	Ben could tell him about Pompano.	127120323	1475450776202	1475450776332	BKSP	8
250179	2677125	Ben could tell him about Pompano.	Ben could tell him about Pompano.	127120325	1475450776302	1475450776579	SHIFT	16
250179	2677125	Ben could tell him about Pompano.	Ben could tell him about Pompano.	127120324	1475450776472	1475450776569	P	80
250179	2677125	Ben could tell him about Pompano.	Ben could tell him about Pompano.	127120327	1475450776719	1475450776805	o	79
250179	2677125	Ben could tell him about Pompano.	Ben could tell him about Pompano.	127120346	1475450776907	1475450776989	m	77
250179	2677125	Ben could tell him about Pompano.	Ben could tell him about Pompano.	127120348	1475450777049	1475450777136	p	80
250179	2677125	Ben could tell him about Pompano.	Ben could tell him about Pompano.	127120351	1475450777156	1475450777239	a	65
250179	2677125	Ben could tell him about Pompano.	Ben could tell him about Pompano.	127120353	1475450777279	1475450777359	n	78
250179	2677125	Ben could tell him about Pompano.	Ben could tell him about Pompano.	127120355	1475450777449	1475450777536	o	79
250179	2677125	Ben could tell him about Pompano.	Ben could tell him about Pompano.	127120369	1475450778322	1475450778409	.	190
250179	2677133	Do you have that information yet?.	Do you have that information yet?	127120599	1475450780777	1475450787046	SHIFT	16
250179	2677133	Do you have that information yet?.	Do you have that information yet?	127120597	1475450781200	1475450787026	D	68
250179	2677133	Do you have that information yet?.	Do you have that information yet?	127120602	1475450787176	1475450787266	o	79
250179	2677133	Do you have that information yet?.	Do you have that information yet?	127120605	1475450787366	1475450787442	 	32
250179	2677133	Do you have that information yet?.	Do you have that information yet?	127120608	1475450787532	1475450787586	y	89
250179	2677133	Do you have that information yet?.	Do you have that information yet?	127120611	1475450787646	1475450787789	o	79
250179	2677133	Do you have that information yet?.	Do you have that information yet?	127120622	1475450787706	1475450787811	u	85
250179	2677133	Do you have that information yet?.	Do you have that information yet?	127120624	1475450787951	1475450788026	 	32
250179	2677133	Do you have that information yet?.	Do you have that information yet?	127120628	1475450788196	1475450788272	h	72
250179	2677133	Do you have that information yet?.	Do you have that information yet?	127120630	1475450788292	1475450788366	a	65
250179	2677133	Do you have that information yet?.	Do you have that information yet?	127120632	1475450788396	1475450788472	v	86
250179	2677133	Do you have that information yet?.	Do you have that information yet?	127120634	1475450788502	1475450788576	e	69
250179	2677133	Do you have that information yet?.	Do you have that information yet?	127120656	1475450788608	1475450788689	 	32
250179	2677133	Do you have that information yet?.	Do you have that information yet?	127120658	1475450789236	1475450789316	t	84
250179	2677133	Do you have that information yet?.	Do you have that information yet?	127120659	1475450789353	1475450789432	h	72
250179	2677133	Do you have that information yet?.	Do you have that information yet?	127120661	1475450789482	1475450789569	a	65
250179	2677133	Do you have that information yet?.	Do you have that information yet?	127120662	1475450789569	1475450789649	t	84
250179	2677133	Do you have that information yet?.	Do you have that information yet?	127120723	1475450789761	1475450789849	 	32
250179	2677133	Do you have that information yet?.	Do you have that information yet?	127120726	1475450789959	1475450790236	SHIFT	16
250179	2677133	Do you have that information yet?.	Do you have that information yet?	127120725	1475450790089	1475450790156	I	73
250179	2677133	Do you have that information yet?.	Do you have that information yet?	127120728	1475450790536	1475450790636	BKSP	8
250179	2677133	Do you have that information yet?.	Do you have that information yet?	127120730	1475450791162	1475450791273	i	73
250179	2677133	Do you have that information yet?.	Do you have that information yet?	127120732	1475450791232	1475450791346	n	78
250179	2677133	Do you have that information yet?.	Do you have that information yet?	127120734	1475450791736	1475450791825	f	70
250179	2677133	Do you have that information yet?.	Do you have that information yet?	127120746	1475450791897	1475450791976	o	79
250179	2677133	Do you have that information yet?.	Do you have that information yet?	127120747	1475450792156	1475450792262	r	82
250179	2677133	Do you have that information yet?.	Do you have that information yet?	127120749	1475450792322	1475450792406	m	77
250179	2677133	Do you have that information yet?.	Do you have that information yet?	127120751	1475450792467	1475450792529	a	65
250179	2677133	Do you have that information yet?.	Do you have that information yet?	127120752	1475450792579	1475450792649	t	84
250179	2677133	Do you have that information yet?.	Do you have that information yet?	127120802	1475450792711	1475450792936	i	73
250179	2677133	Do you have that information yet?.	Do you have that information yet?	127120804	1475450792812	1475450792956	o	79
250179	2677133	Do you have that information yet?.	Do you have that information yet?	127120806	1475450792889	1475450793016	n	78
250179	2677133	Do you have that information yet?.	Do you have that information yet?	127120808	1475450793126	1475450793206	 	32
250179	2677133	Do you have that information yet?.	Do you have that information yet?	127120810	1475450794209	1475450794262	y	89
250179	2677133	Do you have that information yet?.	Do you have that information yet?	127120870	1475450794304	1475450794409	e	69
250179	2677133	Do you have that information yet?.	Do you have that information yet?	127120871	1475450794519	1475450794582	t	84
250179	2677133	Do you have that information yet?.	Do you have that information yet?	127120873	1475450794774	1475450795016	SHIFT	16
250179	2677133	Do you have that information yet?.	Do you have that information yet?	127120872	1475450794925	1475450795006	>	190
250179	2677133	Do you have that information yet?.	Do you have that information yet?	127120876	1475450795306	1475450796015	SHIFT	16
250179	2677133	Do you have that information yet?.	Do you have that information yet?	127120874	1475450795336	1475450795408	BKSP	8
250179	2677133	Do you have that information yet?.	Do you have that information yet?	127120875	1475450795904	1475450795965	?	191
250179	2677145	This is all so unreal.	This is all so unreal.	127120986	1475450798578	1475450799055	SHIFT	16
250179	2677145	This is all so unreal.	This is all so unreal.	127120985	1475450798978	1475450799045	T	84
250179	2677145	This is all so unreal.	This is all so unreal.	127120987	1475450799235	1475450799388	h	72
250179	2677145	This is all so unreal.	This is all so unreal.	127120988	1475450799328	1475450799408	i	73
250179	2677145	This is all so unreal.	This is all so unreal.	127120989	1475450799438	1475450799525	s	83
250179	2677145	This is all so unreal.	This is all so unreal.	127120991	1475450799555	1475450799631	 	32
250179	2677145	This is all so unreal.	This is all so unreal.	127121030	1475450799812	1475450799881	i	73
250179	2677145	This is all so unreal.	This is all so unreal.	127121035	1475450799931	1475450799995	s	83
250179	2677145	This is all so unreal.	This is all so unreal.	127121038	1475450800055	1475450800135	 	32
250179	2677145	This is all so unreal.	This is all so unreal.	127121041	1475450800255	1475450800318	a	65
250179	2677145	This is all so unreal.	This is all so unreal.	127121044	1475450800648	1475450800735	l	76
250179	2677145	This is all so unreal.	This is all so unreal.	127121059	1475450800757	1475450800841	l	76
250179	2677145	This is all so unreal.	This is all so unreal.	127121060	1475450800951	1475450801028	 	32
250179	2677145	This is all so unreal.	This is all so unreal.	127121061	1475450801098	1475450801144	s	83
250179	2677145	This is all so unreal.	This is all so unreal.	127121062	1475450801174	1475450801248	o	79
250179	2677145	This is all so unreal.	This is all so unreal.	127121063	1475450801304	1475450801391	 	32
250179	2677145	This is all so unreal.	This is all so unreal.	127121088	1475450801512	1475450801624	u	85
250179	2677145	This is all so unreal.	This is all so unreal.	127121090	1475450801578	1475450801686	n	78
250179	2677145	This is all so unreal.	This is all so unreal.	127121093	1475450801746	1475450801815	r	82
250179	2677145	This is all so unreal.	This is all so unreal.	127121095	1475450801905	1475450801978	e	69
250179	2677145	This is all so unreal.	This is all so unreal.	127121098	1475450802098	1475450802185	a	65
250179	2677145	This is all so unreal.	This is all so unreal.	127121120	1475450802217	1475450802301	l	76
250179	2677145	This is all so unreal.	This is all so unreal.	127121122	1475450802505	1475450802575	SHIFT	16
250179	2677145	This is all so unreal.	This is all so unreal.	127121124	1475450802888	1475450802951	.	190
250179	2677149	Did he get a signing bonus?	Did he get a signing bonus?	127121218	1475450805338	1475450805805	SHIFT	16
250179	2677149	Did he get a signing bonus?	Did he get a signing bonus?	127121217	1475450805721	1475450805785	D	68
250179	2677149	Did he get a signing bonus?	Did he get a signing bonus?	127121219	1475450805925	1475450806004	i	73
250179	2677149	Did he get a signing bonus?	Did he get a signing bonus?	127121220	1475450806034	1475450806098	d	68
250179	2677149	Did he get a signing bonus?	Did he get a signing bonus?	127121221	1475450806128	1475450806198	 	32
250179	2677149	Did he get a signing bonus?	Did he get a signing bonus?	127121222	1475450806288	1475450806361	h	72
250179	2677149	Did he get a signing bonus?	Did he get a signing bonus?	127121268	1475450806383	1475450806434	e	69
250179	2677149	Did he get a signing bonus?	Did he get a signing bonus?	127121270	1475450806494	1475450806564	 	32
250179	2677149	Did he get a signing bonus?	Did he get a signing bonus?	127121272	1475450806764	1475450806838	e	69
250179	2677149	Did he get a signing bonus?	Did he get a signing bonus?	127121274	1475450806878	1475450806949	t	84
250179	2677149	Did he get a signing bonus?	Did he get a signing bonus?	127121277	1475450807179	1475450807278	BKSP	8
250179	2677149	Did he get a signing bonus?	Did he get a signing bonus?	127121280	1475450807338	1475450807431	BKSP	8
250179	2677149	Did he get a signing bonus?	Did he get a signing bonus?	127121283	1475450807841	1475450807914	g	71
250179	2677149	Did he get a signing bonus?	Did he get a signing bonus?	127121304	1475450807976	1475450808034	e	69
250179	2677149	Did he get a signing bonus?	Did he get a signing bonus?	127121307	1475450807999	1475450808064	t	84
250179	2677149	Did he get a signing bonus?	Did he get a signing bonus?	127121309	1475450808214	1475450808278	 	32
250179	2677149	Did he get a signing bonus?	Did he get a signing bonus?	127121311	1475450808298	1475450808374	a	65
250179	2677149	Did he get a signing bonus?	Did he get a signing bonus?	127121313	1475450808394	1475450808484	 	32
250179	2677149	Did he get a signing bonus?	Did he get a signing bonus?	127121327	1475450808618	1475450808688	s	83
250179	2677149	Did he get a signing bonus?	Did he get a signing bonus?	127121329	1475450808748	1475450808834	i	73
250179	2677149	Did he get a signing bonus?	Did he get a signing bonus?	127121331	1475450808934	1475450809004	g	71
250179	2677149	Did he get a signing bonus?	Did he get a signing bonus?	127121334	1475450809034	1475450809143	n	78
250179	2677149	Did he get a signing bonus?	Did he get a signing bonus?	127121399	1475450809118	1475450809268	i	73
250179	2677149	Did he get a signing bonus?	Did he get a signing bonus?	127121400	1475450810498	1475450810561	n	78
250179	2677149	Did he get a signing bonus?	Did he get a signing bonus?	127121401	1475450810631	1475450810698	g	71
250179	2677149	Did he get a signing bonus?	Did he get a signing bonus?	127121402	1475450810818	1475450810881	 	32
250179	2677149	Did he get a signing bonus?	Did he get a signing bonus?	127121406	1475450810951	1475450811158	SHIFT	16
250179	2677149	Did he get a signing bonus?	Did he get a signing bonus?	127121404	1475450811071	1475450811118	B	66
250179	2677149	Did he get a signing bonus?	Did he get a signing bonus?	127121409	1475450811538	1475450811614	b	66
250179	2677149	Did he get a signing bonus?	Did he get a signing bonus?	127121518	1475450812016	1475450812081	BKSP	8
250179	2677149	Did he get a signing bonus?	Did he get a signing bonus?	127121520	1475450812141	1475450812231	BKSP	8
250179	2677149	Did he get a signing bonus?	Did he get a signing bonus?	127121523	1475450812848	1475450812941	o	79
250179	2677149	Did he get a signing bonus?	Did he get a signing bonus?	127121525	1475450813191	1475450813294	BKSP	8
250179	2677149	Did he get a signing bonus?	Did he get a signing bonus?	127121526	1475450813464	1475450813575	b	66
250179	2677149	Did he get a signing bonus?	Did he get a signing bonus?	127121527	1475450813551	1475450813724	o	79
250179	2677149	Did he get a signing bonus?	Did he get a signing bonus?	127121529	1475450813802	1475450813884	u	85
250179	2677149	Did he get a signing bonus?	Did he get a signing bonus?	127121531	1475450814411	1475450814491	BKSP	8
250179	2677149	Did he get a signing bonus?	Did he get a signing bonus?	127121534	1475450814911	1475450815047	n	78
250179	2677149	Did he get a signing bonus?	Did he get a signing bonus?	127121543	1475450815007	1475450815081	u	85
250179	2677149	Did he get a signing bonus?	Did he get a signing bonus?	127121544	1475450815111	1475450815188	s	83
250179	2677149	Did he get a signing bonus?	Did he get a signing bonus?	127121546	1475450815408	1475450815483	?	191
250179	2677158	There was no such accord.	There was no such accord.	127121668	1475450818724	1475450818788	T	84
250179	2677158	There was no such accord.	There was no such accord.	127121673	1475450818928	1475450819034	h	72
250179	2677158	There was no such accord.	There was no such accord.	127121677	1475450819024	1475450819118	e	69
250179	2677158	There was no such accord.	There was no such accord.	127121680	1475450819118	1475450819198	r	82
250179	2677158	There was no such accord.	There was no such accord.	127121683	1475450819228	1475450819298	e	69
250179	2677158	There was no such accord.	There was no such accord.	127121692	1475450819380	1475450819458	 	32
250179	2677158	There was no such accord.	There was no such accord.	127121694	1475450819478	1475450819558	w	87
250179	2677158	There was no such accord.	There was no such accord.	127121696	1475450819683	1475450819759	a	65
250179	2677158	There was no such accord.	There was no such accord.	127121698	1475450819835	1475450819894	s	83
250179	2677158	There was no such accord.	There was no such accord.	127121699	1475450819934	1475450819988	 	32
250179	2677158	There was no such accord.	There was no such accord.	127121710	1475450820091	1475450820231	n	78
250179	2677158	There was no such accord.	There was no such accord.	127121712	1475450820174	1475450820294	o	79
250179	2677158	There was no such accord.	There was no such accord.	127121716	1475450820414	1475450820511	 	32
250179	2677158	There was no such accord.	There was no such accord.	127121721	1475450820561	1475450820618	s	83
250179	2677158	There was no such accord.	There was no such accord.	127121725	1475450820678	1475450820758	u	85
250179	2677158	There was no such accord.	There was no such accord.	127121738	1475450820840	1475450820934	c	67
250179	2677158	There was no such accord.	There was no such accord.	127121742	1475450820964	1475450821031	h	72
250179	2677158	There was no such accord.	There was no such accord.	127121747	1475450821121	1475450821194	 	32
250179	2677158	There was no such accord.	There was no such accord.	127121751	1475450821254	1475450821324	a	65
250179	2677158	There was no such accord.	There was no such accord.	127121755	1475450821485	1475450821544	c	67
250179	2677158	There was no such accord.	There was no such accord.	127121771	1475450821586	1475450821668	c	67
250179	2677158	There was no such accord.	There was no such accord.	127121774	1475450821816	1475450821908	o	79
250179	2677158	There was no such accord.	There was no such accord.	127121778	1475450821918	1475450821981	r	82
250179	2677158	There was no such accord.	There was no such accord.	127121781	1475450822271	1475450822318	d	83
250179	2677158	There was no such accord.	There was no such accord.	127121822	1475450822831	1475450822934	BKSP	8
250179	2677158	There was no such accord.	There was no such accord.	127121823	1475450823375	1475450823467	BKSP	8
250179	2677158	There was no such accord.	There was no such accord.	127121825	1475450823567	1475450823638	d	68
250179	2677158	There was no such accord.	There was no such accord.	127121828	1475450823688	1475450823761	.	190
