PARTICIPANT_ID	TEST_SECTION_ID	SENTENCE	USER_INPUT	KEYSTROKE_ID	PRESS_TIME	RELEASE_TIME	LETTER	KEYCODE
252255	2701300	Much better than carrying a laptop.	Much better than carrying a laptop.	128283516	1475483750889	1475483751144	SHIFT	16
252255	2701300	Much better than carrying a laptop.	Much better than carrying a laptop.	128283515	1475483751047	1475483751144	M	77
252255	2701300	Much better than carrying a laptop.	Much better than carrying a laptop.	128283517	1475483751223	1475483751326	u	85
252255	2701300	Much better than carrying a laptop.	Much better than carrying a laptop.	128283519	1475483751357	1475483751470	c	67
252255	2701300	Much better than carrying a laptop.	Much better than carrying a laptop.	128283521	1475483751444	1475483751545	h	72
252255	2701300	Much better than carrying a laptop.	Much better than carrying a laptop.	128283523	1475483751580	1475483752071	 	32
252255	2701300	Much better than carrying a laptop.	Much better than carrying a laptop.	128283539	1475483752080	1475483752080	b	66
252255	2701300	Much better than carrying a laptop.	Much better than carrying a laptop.	128283541	1475483752081	1475483752094	e	69
252255	2701300	Much better than carrying a laptop.	Much better than carrying a laptop.	128283544	1475483752336	1475483752430	t	84
252255	2701300	Much better than carrying a laptop.	Much better than carrying a laptop.	128283546	1475483752508	1475483752629	t	84
252255	2701300	Much better than carrying a laptop.	Much better than carrying a laptop.	128283547	1475483752629	1475483752784	e	69
252255	2701300	Much better than carrying a laptop.	Much better than carrying a laptop.	128283553	1475483752731	1475483753214	r	82
252255	2701300	Much better than carrying a laptop.	Much better than carrying a laptop.	128283554	1475483752841	1475483753214	 	32
252255	2701300	Much better than carrying a laptop.	Much better than carrying a laptop.	128283555	1475483753214	1475483753229	h	84
252255	2701300	Much better than carrying a laptop.	Much better than carrying a laptop.	128283591	1475483753469	1475483753472	n	78
252255	2701300	Much better than carrying a laptop.	Much better than carrying a laptop.	128283593	1475483753472	1475483753538	t	84
252255	2701300	Much better than carrying a laptop.	Much better than carrying a laptop.	128283595	1475483753882	1475483753984	BKSP	8
252255	2701300	Much better than carrying a laptop.	Much better than carrying a laptop.	128283598	1475483754047	1475483754151	 	32
252255	2701300	Much better than carrying a laptop.	Much better than carrying a laptop.	128283600	1475483754167	1475483754285	c	67
252255	2701300	Much better than carrying a laptop.	Much better than carrying a laptop.	128283603	1475483754502	1475483754676	a	65
252255	2701300	Much better than carrying a laptop.	Much better than carrying a laptop.	128283628	1475483754634	1475483754738	r	82
252255	2701300	Much better than carrying a laptop.	Much better than carrying a laptop.	128283629	1475483754800	1475483754920	r	82
252255	2701300	Much better than carrying a laptop.	Much better than carrying a laptop.	128283630	1475483755029	1475483755170	y	89
252255	2701300	Much better than carrying a laptop.	Much better than carrying a laptop.	128283632	1475483755233	1475483755293	i	73
252255	2701300	Much better than carrying a laptop.	Much better than carrying a laptop.	128283634	1475483755418	1475483755518	n	78
252255	2701300	Much better than carrying a laptop.	Much better than carrying a laptop.	128283648	1475483755492	1475483755609	g	71
252255	2701300	Much better than carrying a laptop.	Much better than carrying a laptop.	128283650	1475483755625	1475483755742	 	32
252255	2701300	Much better than carrying a laptop.	Much better than carrying a laptop.	128283655	1475483755742	1475483755863	a	65
252255	2701300	Much better than carrying a laptop.	Much better than carrying a laptop.	128283660	1475483755826	1475483755990	 	32
252255	2701300	Much better than carrying a laptop.	Much better than carrying a laptop.	128283665	1475483755972	1475483756060	l	76
252255	2701300	Much better than carrying a laptop.	Much better than carrying a laptop.	128283668	1475483756154	1475483756310	a	65
252255	2701300	Much better than carrying a laptop.	Much better than carrying a laptop.	128283687	1475483756276	1475483756368	p	80
252255	2701300	Much better than carrying a laptop.	Much better than carrying a laptop.	128283689	1475483756446	1475483756528	t	84
252255	2701300	Much better than carrying a laptop.	Much better than carrying a laptop.	128283691	1475483756544	1475483756671	o	79
252255	2701300	Much better than carrying a laptop.	Much better than carrying a laptop.	128283693	1475483756645	1475483756745	p	80
252255	2701300	Much better than carrying a laptop.	Much better than carrying a laptop.	128283695	1475483756880	1475483756979	.	190
252255	2701306	Please call me if you see any problems.	Please call me if you see any problems.	128283765	1475483759538	1475483760137	SHIFT	16
252255	2701306	Please call me if you see any problems.	Please call me if you see any problems.	128283762	1475483760007	1475483760091	P	80
252255	2701306	Please call me if you see any problems.	Please call me if you see any problems.	128283768	1475483760216	1475483760323	l	76
252255	2701306	Please call me if you see any problems.	Please call me if you see any problems.	128283770	1475483760323	1475483760409	e	69
252255	2701306	Please call me if you see any problems.	Please call me if you see any problems.	128283772	1475483760455	1475483760612	a	65
252255	2701306	Please call me if you see any problems.	Please call me if you see any problems.	128283781	1475483760558	1475483760665	s	83
252255	2701306	Please call me if you see any problems.	Please call me if you see any problems.	128283782	1475483760758	1475483760827	e	69
252255	2701306	Please call me if you see any problems.	Please call me if you see any problems.	128283783	1475483760890	1475483761009	 	32
252255	2701306	Please call me if you see any problems.	Please call me if you see any problems.	128283786	1475483761009	1475483761148	c	67
252255	2701306	Please call me if you see any problems.	Please call me if you see any problems.	128283789	1475483761109	1475483761231	a	65
252255	2701306	Please call me if you see any problems.	Please call me if you see any problems.	128283803	1475483761179	1475483761265	l	76
252255	2701306	Please call me if you see any problems.	Please call me if you see any problems.	128283806	1475483761312	1475483761427	l	76
252255	2701306	Please call me if you see any problems.	Please call me if you see any problems.	128283807	1475483761443	1475483761574	 	32
252255	2701306	Please call me if you see any problems.	Please call me if you see any problems.	128283809	1475483761545	1475483761646	m	77
252255	2701306	Please call me if you see any problems.	Please call me if you see any problems.	128283811	1475483761661	1475483761777	e	69
252255	2701306	Please call me if you see any problems.	Please call me if you see any problems.	128283813	1475483761777	1475483761880	 	32
252255	2701306	Please call me if you see any problems.	Please call me if you see any problems.	128283824	1475483761899	1475483761999	i	73
252255	2701306	Please call me if you see any problems.	Please call me if you see any problems.	128283826	1475483762007	1475483762126	f	70
252255	2701306	Please call me if you see any problems.	Please call me if you see any problems.	128283828	1475483762112	1475483762229	 	32
252255	2701306	Please call me if you see any problems.	Please call me if you see any problems.	128283829	1475483762401	1475483762526	y	89
252255	2701306	Please call me if you see any problems.	Please call me if you see any problems.	128283836	1475483762499	1475483762601	o	79
252255	2701306	Please call me if you see any problems.	Please call me if you see any problems.	128283838	1475483762601	1475483762734	u	85
252255	2701306	Please call me if you see any problems.	Please call me if you see any problems.	128283840	1475483762715	1475483762854	 	32
252255	2701306	Please call me if you see any problems.	Please call me if you see any problems.	128283842	1475483762831	1475483762933	s	83
252255	2701306	Please call me if you see any problems.	Please call me if you see any problems.	128283844	1475483763030	1475483763102	e	69
252255	2701306	Please call me if you see any problems.	Please call me if you see any problems.	128283848	1475483763169	1475483763283	e	69
252255	2701306	Please call me if you see any problems.	Please call me if you see any problems.	128283869	1475483763353	1475483763451	 	32
252255	2701306	Please call me if you see any problems.	Please call me if you see any problems.	128283870	1475483763514	1475483763639	a	65
252255	2701306	Please call me if you see any problems.	Please call me if you see any problems.	128283871	1475483763587	1475483763701	n	78
252255	2701306	Please call me if you see any problems.	Please call me if you see any problems.	128283872	1475483763811	1475483763904	y	89
252255	2701306	Please call me if you see any problems.	Please call me if you see any problems.	128283874	1475483763920	1475483764036	 	32
252255	2701306	Please call me if you see any problems.	Please call me if you see any problems.	128283887	1475483764083	1475483764187	p	80
252255	2701306	Please call me if you see any problems.	Please call me if you see any problems.	128283888	1475483764202	1475483764308	r	82
252255	2701306	Please call me if you see any problems.	Please call me if you see any problems.	128283889	1475483764308	1475483764404	o	79
252255	2701306	Please call me if you see any problems.	Please call me if you see any problems.	128283890	1475483764420	1475483764524	b	66
252255	2701306	Please call me if you see any problems.	Please call me if you see any problems.	128283891	1475483764556	1475483764657	l	76
252255	2701306	Please call me if you see any problems.	Please call me if you see any problems.	128283915	1475483764627	1475483764727	e	69
252255	2701306	Please call me if you see any problems.	Please call me if you see any problems.	128283918	1475483764758	1475483764844	m	77
252255	2701306	Please call me if you see any problems.	Please call me if you see any problems.	128283922	1475483764860	1475483764976	s	83
252255	2701306	Please call me if you see any problems.	Please call me if you see any problems.	128283926	1475483765070	1475483765145	.	190
252255	2701313	I'll call you when I get to the office.	I'll call you when I get to the office.	128284041	1475483767938	1475483768789	SHIFT	16
252255	2701313	I'll call you when I get to the office.	I'll call you when I get to the office.	128284038	1475483768678	1475483768773	I	73
252255	2701313	I'll call you when I get to the office.	I'll call you when I get to the office.	128284044	1475483768929	1475483769040	;	186
252255	2701313	I'll call you when I get to the office.	I'll call you when I get to the office.	128284047	1475483769258	1475483769357	BKSP	8
252255	2701313	I'll call you when I get to the office.	I'll call you when I get to the office.	128284049	1475483769357	1475483769459	'	222
252255	2701313	I'll call you when I get to the office.	I'll call you when I get to the office.	128284051	1475483769756	1475483769890	c	67
252255	2701313	I'll call you when I get to the office.	I'll call you when I get to the office.	128284052	1475483770062	1475483770129	BKSP	8
252255	2701313	I'll call you when I get to the office.	I'll call you when I get to the office.	128284053	1475483770207	1475483770311	l	76
252255	2701313	I'll call you when I get to the office.	I'll call you when I get to the office.	128284056	1475483770358	1475483770431	l	76
252255	2701313	I'll call you when I get to the office.	I'll call you when I get to the office.	128284059	1475483770447	1475483770601	 	32
252255	2701313	I'll call you when I get to the office.	I'll call you when I get to the office.	128284062	1475483770562	1475483770667	c	67
252255	2701313	I'll call you when I get to the office.	I'll call you when I get to the office.	128284065	1475483770632	1475483770761	a	65
252255	2701313	I'll call you when I get to the office.	I'll call you when I get to the office.	128284069	1475483771013	1475483771098	l	76
252255	2701313	I'll call you when I get to the office.	I'll call you when I get to the office.	128284082	1475483771147	1475483771234	l	76
252255	2701313	I'll call you when I get to the office.	I'll call you when I get to the office.	128284083	1475483771250	1475483771381	 	32
252255	2701313	I'll call you when I get to the office.	I'll call you when I get to the office.	128284084	1475483771396	1475483771529	y	89
252255	2701313	I'll call you when I get to the office.	I'll call you when I get to the office.	128284085	1475483771515	1475483771585	o	79
252255	2701313	I'll call you when I get to the office.	I'll call you when I get to the office.	128284086	1475483771600	1475483771721	u	85
252255	2701313	I'll call you when I get to the office.	I'll call you when I get to the office.	128284104	1475483771700	1475483771832	 	32
252255	2701313	I'll call you when I get to the office.	I'll call you when I get to the office.	128284105	1475483771894	1475483772005	w	87
252255	2701313	I'll call you when I get to the office.	I'll call you when I get to the office.	128284188	1475483771969	1475483774576	h	72
252255	2701313	I'll call you when I get to the office.	I'll call you when I get to the office.	128284107	1475483772115	1475483772264	e	69
252255	2701313	I'll call you when I get to the office.	I'll call you when I get to the office.	128284108	1475483772280	1475483772369	n	78
252255	2701313	I'll call you when I get to the office.	I'll call you when I get to the office.	128284110	1475483772416	1475483772519	 	32
252255	2701313	I'll call you when I get to the office.	I'll call you when I get to the office.	128284149	1475483772650	1475483772737	i	73
252255	2701313	I'll call you when I get to the office.	I'll call you when I get to the office.	128284150	1475483772737	1475483772893	SHIFT	16
252255	2701313	I'll call you when I get to the office.	I'll call you when I get to the office.	128284151	1475483772940	1475483773021	BKSP	8
252255	2701313	I'll call you when I get to the office.	I'll call you when I get to the office.	128284152	1475483773005	1475483773198	SHIFT	16
252255	2701313	I'll call you when I get to the office.	I'll call you when I get to the office.	128284153	1475483773099	1475483773229	I	73
252255	2701313	I'll call you when I get to the office.	I'll call you when I get to the office.	128284154	1475483773245	1475483773385	 	32
252255	2701313	I'll call you when I get to the office.	I'll call you when I get to the office.	128284155	1475483773432	1475483773523	g	71
252255	2701313	I'll call you when I get to the office.	I'll call you when I get to the office.	128284156	1475483773555	1475483773744	e	69
252255	2701313	I'll call you when I get to the office.	I'll call you when I get to the office.	128284167	1475483773704	1475483773833	t	84
252255	2701313	I'll call you when I get to the office.	I'll call you when I get to the office.	128284170	1475483773803	1475483773923	 	32
252255	2701313	I'll call you when I get to the office.	I'll call you when I get to the office.	128284173	1475483773923	1475483774041	t	84
252255	2701313	I'll call you when I get to the office.	I'll call you when I get to the office.	128284177	1475483774025	1475483774110	o	79
252255	2701313	I'll call you when I get to the office.	I'll call you when I get to the office.	128284179	1475483774126	1475483774266	 	32
252255	2701313	I'll call you when I get to the office.	I'll call you when I get to the office.	128284182	1475483774329	1475483774410	t	84
252255	2701313	I'll call you when I get to the office.	I'll call you when I get to the office.	128284189	1475483774576	1475483774689	e	69
252255	2701313	I'll call you when I get to the office.	I'll call you when I get to the office.	128284190	1475483774677	1475483774825	 	32
252255	2701313	I'll call you when I get to the office.	I'll call you when I get to the office.	128284192	1475483774934	1475483774997	o	79
252255	2701313	I'll call you when I get to the office.	I'll call you when I get to the office.	128284195	1475483775026	1475483775117	f	70
252255	2701313	I'll call you when I get to the office.	I'll call you when I get to the office.	128284213	1475483775182	1475483775280	f	70
252255	2701313	I'll call you when I get to the office.	I'll call you when I get to the office.	128284215	1475483775311	1475483775401	i	73
252255	2701313	I'll call you when I get to the office.	I'll call you when I get to the office.	128284216	1475483775366	1475483775535	c	67
252255	2701313	I'll call you when I get to the office.	I'll call you when I get to the office.	128284217	1475483775495	1475483775613	e	69
252255	2701313	I'll call you when I get to the office.	I'll call you when I get to the office.	128284218	1475483775629	1475483775730	.	190
252255	2701319	Let me know which day is good for you.	Let me know which day is good for you.	128284294	1475483778067	1475483778337	SHIFT	16
252255	2701319	Let me know which day is good for you.	Let me know which day is good for you.	128284292	1475483778223	1475483778306	L	76
252255	2701319	Let me know which day is good for you.	Let me know which day is good for you.	128284296	1475483778431	1475483778585	e	69
252255	2701319	Let me know which day is good for you.	Let me know which day is good for you.	128284297	1475483778555	1475483778659	t	84
252255	2701319	Let me know which day is good for you.	Let me know which day is good for you.	128284298	1475483778690	1475483778793	 	32
252255	2701319	Let me know which day is good for you.	Let me know which day is good for you.	128284299	1475483778809	1475483778909	m	77
252255	2701319	Let me know which day is good for you.	Let me know which day is good for you.	128284306	1475483778909	1475483779009	e	69
252255	2701319	Let me know which day is good for you.	Let me know which day is good for you.	128284307	1475483779009	1475483779141	 	32
252255	2701319	Let me know which day is good for you.	Let me know which day is good for you.	128284308	1475483779235	1475483779328	k	75
252255	2701319	Let me know which day is good for you.	Let me know which day is good for you.	128284309	1475483779391	1475483779469	n	78
252255	2701319	Let me know which day is good for you.	Let me know which day is good for you.	128284310	1475483779548	1475483779628	o	79
252255	2701319	Let me know which day is good for you.	Let me know which day is good for you.	128284311	1475483779644	1475483779729	w	87
252255	2701319	Let me know which day is good for you.	Let me know which day is good for you.	128284312	1475483779744	1475483779844	 	32
252255	2701319	Let me know which day is good for you.	Let me know which day is good for you.	128284313	1475483779907	1475483780001	w	87
252255	2701319	Let me know which day is good for you.	Let me know which day is good for you.	128284339	1475483779980	1475483780416	h	72
252255	2701319	Let me know which day is good for you.	Let me know which day is good for you.	128284337	1475483780080	1475483780165	i	73
252255	2701319	Let me know which day is good for you.	Let me know which day is good for you.	128284338	1475483780212	1475483780328	c	67
252255	2701319	Let me know which day is good for you.	Let me know which day is good for you.	128284340	1475483780495	1475483780602	 	32
252255	2701319	Let me know which day is good for you.	Let me know which day is good for you.	128284341	1475483780743	1475483780897	d	68
252255	2701319	Let me know which day is good for you.	Let me know which day is good for you.	128284353	1475483780863	1475483780988	a	65
252255	2701319	Let me know which day is good for you.	Let me know which day is good for you.	128284354	1475483781066	1475483781150	y	89
252255	2701319	Let me know which day is good for you.	Let me know which day is good for you.	128284355	1475483781181	1475483781299	 	32
252255	2701319	Let me know which day is good for you.	Let me know which day is good for you.	128284356	1475483781330	1475483781401	i	73
252255	2701319	Let me know which day is good for you.	Let me know which day is good for you.	128284357	1475483781418	1475483781503	s	83
252255	2701319	Let me know which day is good for you.	Let me know which day is good for you.	128284358	1475483781518	1475483781628	 	32
252255	2701319	Let me know which day is good for you.	Let me know which day is good for you.	128284374	1475483781652	1475483781761	g	71
252255	2701319	Let me know which day is good for you.	Let me know which day is good for you.	128284376	1475483781753	1475483781805	o	79
252255	2701319	Let me know which day is good for you.	Let me know which day is good for you.	128284377	1475483781883	1475483781954	o	79
252255	2701319	Let me know which day is good for you.	Let me know which day is good for you.	128284378	1475483781985	1475483782071	d	68
252255	2701319	Let me know which day is good for you.	Let me know which day is good for you.	128284379	1475483782086	1475483782218	 	32
252255	2701319	Let me know which day is good for you.	Let me know which day is good for you.	128284390	1475483782220	1475483782321	f	70
252255	2701319	Let me know which day is good for you.	Let me know which day is good for you.	128284391	1475483782321	1475483782405	o	79
252255	2701319	Let me know which day is good for you.	Let me know which day is good for you.	128284394	1475483782483	1475483782572	t	84
252255	2701319	Let me know which day is good for you.	Let me know which day is good for you.	128284395	1475483782666	1475483782815	 	32
252255	2701319	Let me know which day is good for you.	Let me know which day is good for you.	128284396	1475483782914	1475483783007	BKSP	8
252255	2701319	Let me know which day is good for you.	Let me know which day is good for you.	128284397	1475483783054	1475483783144	BKSP	8
252255	2701319	Let me know which day is good for you.	Let me know which day is good for you.	128284412	1475483783109	1475483783217	r	82
252255	2701319	Let me know which day is good for you.	Let me know which day is good for you.	128284414	1475483783196	1475483783322	 	32
252255	2701319	Let me know which day is good for you.	Let me know which day is good for you.	128284416	1475483783338	1475483783442	y	89
252255	2701319	Let me know which day is good for you.	Let me know which day is good for you.	128284419	1475483783409	1475483783491	o	79
252255	2701319	Let me know which day is good for you.	Let me know which day is good for you.	128284421	1475483783491	1475483783609	u	85
252255	2701319	Let me know which day is good for you.	Let me know which day is good for you.	128284422	1475483783687	1475483783808	.	190
252255	2701325	The artist assures me it is a turkey.	The artist assures me it is a turkey.	128284489	1475483785986	1475483786252	SHIFT	16
252255	2701325	The artist assures me it is a turkey.	The artist assures me it is a turkey.	128284491	1475483786163	1475483786283	T	84
252255	2701325	The artist assures me it is a turkey.	The artist assures me it is a turkey.	128284495	1475483786418	1475483786551	e	69
252255	2701325	The artist assures me it is a turkey.	The artist assures me it is a turkey.	128284497	1475483786567	1475483786668	 	32
252255	2701325	The artist assures me it is a turkey.	The artist assures me it is a turkey.	128284499	1475483786700	1475483786858	a	65
252255	2701325	The artist assures me it is a turkey.	The artist assures me it is a turkey.	128284513	1475483786818	1475483786918	r	82
252255	2701325	The artist assures me it is a turkey.	The artist assures me it is a turkey.	128284514	1475483787027	1475483787121	t	84
252255	2701325	The artist assures me it is a turkey.	The artist assures me it is a turkey.	128284515	1475483787152	1475483787239	i	73
252255	2701325	The artist assures me it is a turkey.	The artist assures me it is a turkey.	128284516	1475483787239	1475483787385	s	83
252255	2701325	The artist assures me it is a turkey.	The artist assures me it is a turkey.	128284518	1475483787432	1475483787521	t	84
252255	2701325	The artist assures me it is a turkey.	The artist assures me it is a turkey.	128284520	1475483787630	1475483787752	 	32
252255	2701325	The artist assures me it is a turkey.	The artist assures me it is a turkey.	128284540	1475483787819	1475483787970	a	65
252255	2701325	The artist assures me it is a turkey.	The artist assures me it is a turkey.	128284543	1475483787985	1475483788058	s	83
252255	2701325	The artist assures me it is a turkey.	The artist assures me it is a turkey.	128284547	1475483788151	1475483788241	s	83
252255	2701325	The artist assures me it is a turkey.	The artist assures me it is a turkey.	128284550	1475483788272	1475483788378	u	85
252255	2701325	The artist assures me it is a turkey.	The artist assures me it is a turkey.	128284552	1475483788397	1475483788563	r	82
252255	2701325	The artist assures me it is a turkey.	The artist assures me it is a turkey.	128284557	1475483788524	1475483788643	e	69
252255	2701325	The artist assures me it is a turkey.	The artist assures me it is a turkey.	128284559	1475483788736	1475483788842	s	83
252255	2701325	The artist assures me it is a turkey.	The artist assures me it is a turkey.	128284563	1475483788873	1475483788992	 	32
252255	2701325	The artist assures me it is a turkey.	The artist assures me it is a turkey.	128284568	1475483789008	1475483789105	m	77
252255	2701325	The artist assures me it is a turkey.	The artist assures me it is a turkey.	128284573	1475483789094	1475483789194	e	69
252255	2701325	The artist assures me it is a turkey.	The artist assures me it is a turkey.	128284577	1475483789256	1475483789360	 	32
252255	2701325	The artist assures me it is a turkey.	The artist assures me it is a turkey.	128284589	1475483789372	1475483789463	i	73
252255	2701325	The artist assures me it is a turkey.	The artist assures me it is a turkey.	128284591	1475483789588	1475483789711	t	84
252255	2701325	The artist assures me it is a turkey.	The artist assures me it is a turkey.	128284595	1475483789742	1475483789862	 	32
252255	2701325	The artist assures me it is a turkey.	The artist assures me it is a turkey.	128284598	1475483789909	1475483789997	i	73
252255	2701325	The artist assures me it is a turkey.	The artist assures me it is a turkey.	128284599	1475483790044	1475483790176	s	83
252255	2701325	The artist assures me it is a turkey.	The artist assures me it is a turkey.	128284629	1475483790188	1475483790329	 	32
252255	2701325	The artist assures me it is a turkey.	The artist assures me it is a turkey.	128284631	1475483790376	1475483790496	a	65
252255	2701325	The artist assures me it is a turkey.	The artist assures me it is a turkey.	128284632	1475483790527	1475483790663	 	32
252255	2701325	The artist assures me it is a turkey.	The artist assures me it is a turkey.	128284633	1475483790780	1475483790851	t	84
252255	2701325	The artist assures me it is a turkey.	The artist assures me it is a turkey.	128284634	1475483790929	1475483791003	u	85
252255	2701325	The artist assures me it is a turkey.	The artist assures me it is a turkey.	128284650	1475483791083	1475483791199	r	82
252255	2701325	The artist assures me it is a turkey.	The artist assures me it is a turkey.	128284652	1475483791230	1475483791334	k	75
252255	2701325	The artist assures me it is a turkey.	The artist assures me it is a turkey.	128284657	1475483791428	1475483791585	e	69
252255	2701325	The artist assures me it is a turkey.	The artist assures me it is a turkey.	128284660	1475483791550	1475483791662	y	89
252255	2701325	The artist assures me it is a turkey.	The artist assures me it is a turkey.	128284664	1475483791693	1475483791802	.	190
252255	2701328	I am not aware of any.	I am not aware of any.	128284712	1475483794087	1475483794310	SHIFT	16
252255	2701328	I am not aware of any.	I am not aware of any.	128284711	1475483794196	1475483794310	I	73
252255	2701328	I am not aware of any.	I am not aware of any.	128284713	1475483794342	1475483794461	 	32
252255	2701328	I am not aware of any.	I am not aware of any.	128284714	1475483794477	1475483794593	a	65
252255	2701328	I am not aware of any.	I am not aware of any.	128284716	1475483794579	1475483794679	m	77
252255	2701328	I am not aware of any.	I am not aware of any.	128284717	1475483794711	1475483794813	 	32
252255	2701328	I am not aware of any.	I am not aware of any.	128284760	1475483794899	1475483794968	n	78
252255	2701328	I am not aware of any.	I am not aware of any.	128284763	1475483795124	1475483795231	o	79
252255	2701328	I am not aware of any.	I am not aware of any.	128284764	1475483795293	1475483795414	t	84
252255	2701328	I am not aware of any.	I am not aware of any.	128284766	1475483795430	1475483795561	 	32
252255	2701328	I am not aware of any.	I am not aware of any.	128284767	1475483795608	1475483795748	a	65
252255	2701328	I am not aware of any.	I am not aware of any.	128284768	1475483795842	1475483796005	w	87
252255	2701328	I am not aware of any.	I am not aware of any.	128284769	1475483795966	1475483796099	a	65
252255	2701328	I am not aware of any.	I am not aware of any.	128284770	1475483796161	1475483796313	r	82
252255	2701328	I am not aware of any.	I am not aware of any.	128284771	1475483796285	1475483796418	e	69
252255	2701328	I am not aware of any.	I am not aware of any.	128284773	1475483796434	1475483796537	 	32
252255	2701328	I am not aware of any.	I am not aware of any.	128284777	1475483796557	1475483796654	o	79
252255	2701328	I am not aware of any.	I am not aware of any.	128284778	1475483796669	1475483796755	f	70
252255	2701328	I am not aware of any.	I am not aware of any.	128284780	1475483796770	1475483796857	 	32
252255	2701328	I am not aware of any.	I am not aware of any.	128284782	1475483796839	1475483796975	a	65
252255	2701328	I am not aware of any.	I am not aware of any.	128284789	1475483796937	1475483797019	n	78
252255	2701328	I am not aware of any.	I am not aware of any.	128284790	1475483797082	1475483797189	y	89
252255	2701328	I am not aware of any.	I am not aware of any.	128284792	1475483797220	1475483797337	.	190
252255	2701333	I think we should put a number on the table.	I think we should put a number on the table.	128284853	1475483799551	1475483799846	SHIFT	16
252255	2701333	I think we should put a number on the table.	I think we should put a number on the table.	128284851	1475483799728	1475483799830	I	73
252255	2701333	I think we should put a number on the table.	I think we should put a number on the table.	128284855	1475483799908	1475483800031	 	32
252255	2701333	I think we should put a number on the table.	I think we should put a number on the table.	128284857	1475483800047	1475483800153	t	84
252255	2701333	I think we should put a number on the table.	I think we should put a number on the table.	128284914	1475483800134	1475483802106	h	72
252255	2701333	I think we should put a number on the table.	I think we should put a number on the table.	128284879	1475483800233	1475483800317	i	73
252255	2701333	I think we should put a number on the table.	I think we should put a number on the table.	128284880	1475483800364	1475483800466	n	78
252255	2701333	I think we should put a number on the table.	I think we should put a number on the table.	128284881	1475483800497	1475483800600	k	75
252255	2701333	I think we should put a number on the table.	I think we should put a number on the table.	128284882	1475483800631	1475483800785	 	32
252255	2701333	I think we should put a number on the table.	I think we should put a number on the table.	128284883	1475483800765	1475483800867	w	87
252255	2701333	I think we should put a number on the table.	I think we should put a number on the table.	128284904	1475483801070	1475483801229	r	69
252255	2701333	I think we should put a number on the table.	I think we should put a number on the table.	128284905	1475483801245	1475483801354	 	32
252255	2701333	I think we should put a number on the table.	I think we should put a number on the table.	128284906	1475483801557	1475483801623	BKSP	8
252255	2701333	I think we should put a number on the table.	I think we should put a number on the table.	128284907	1475483801685	1475483801772	BKSP	8
252255	2701333	I think we should put a number on the table.	I think we should put a number on the table.	128284908	1475483801834	1475483801924	 	32
252255	2701333	I think we should put a number on the table.	I think we should put a number on the table.	128284910	1475483801924	1475483802057	s	83
252255	2701333	I think we should put a number on the table.	I think we should put a number on the table.	128285028	1475483802022	1475483805751	h	72
252255	2701333	I think we should put a number on the table.	I think we should put a number on the table.	128284917	1475483802184	1475483802257	o	79
252255	2701333	I think we should put a number on the table.	I think we should put a number on the table.	128284933	1475483802284	1475483802376	u	85
252255	2701333	I think we should put a number on the table.	I think we should put a number on the table.	128284934	1475483802486	1475483802575	l	76
252255	2701333	I think we should put a number on the table.	I think we should put a number on the table.	128284935	1475483802638	1475483802761	d	68
252255	2701333	I think we should put a number on the table.	I think we should put a number on the table.	128284936	1475483802741	1475483802841	 	32
252255	2701333	I think we should put a number on the table.	I think we should put a number on the table.	128284937	1475483802857	1475483802943	p	80
252255	2701333	I think we should put a number on the table.	I think we should put a number on the table.	128284943	1475483803066	1475483803128	u	85
252255	2701333	I think we should put a number on the table.	I think we should put a number on the table.	128284944	1475483803190	1475483803277	t	84
252255	2701333	I think we should put a number on the table.	I think we should put a number on the table.	128284945	1475483803292	1475483803395	 	32
252255	2701333	I think we should put a number on the table.	I think we should put a number on the table.	128284947	1475483803426	1475483803545	a	65
252255	2701333	I think we should put a number on the table.	I think we should put a number on the table.	128284974	1475483803528	1475483803612	 	32
252255	2701333	I think we should put a number on the table.	I think we should put a number on the table.	128284976	1475483803800	1475483803863	 	32
252255	2701333	I think we should put a number on the table.	I think we should put a number on the table.	128284978	1475483804097	1475483804164	BKSP	8
252255	2701333	I think we should put a number on the table.	I think we should put a number on the table.	128284980	1475483804274	1475483804366	n	78
252255	2701333	I think we should put a number on the table.	I think we should put a number on the table.	128284983	1475483804428	1475483804500	u	85
252255	2701333	I think we should put a number on the table.	I think we should put a number on the table.	128284987	1475483804609	1475483804713	m	77
252255	2701333	I think we should put a number on the table.	I think we should put a number on the table.	128285002	1475483804667	1475483804817	b	66
252255	2701333	I think we should put a number on the table.	I think we should put a number on the table.	128285004	1475483804740	1475483804900	e	69
252255	2701333	I think we should put a number on the table.	I think we should put a number on the table.	128285006	1475483804833	1475483804969	r	82
252255	2701333	I think we should put a number on the table.	I think we should put a number on the table.	128285007	1475483804973	1475483805082	 	32
252255	2701333	I think we should put a number on the table.	I think we should put a number on the table.	128285008	1475483805098	1475483805168	o	79
252255	2701333	I think we should put a number on the table.	I think we should put a number on the table.	128285009	1475483805246	1475483805335	n	78
252255	2701333	I think we should put a number on the table.	I think we should put a number on the table.	128285021	1475483805373	1475483805490	 	32
252255	2701333	I think we should put a number on the table.	I think we should put a number on the table.	128285025	1475483805553	1475483805651	t	84
252255	2701333	I think we should put a number on the table.	I think we should put a number on the table.	128285032	1475483805798	1475483805938	 	32
252255	2701333	I think we should put a number on the table.	I think we should put a number on the table.	128285034	1475483805938	1475483806037	e	69
252255	2701333	I think we should put a number on the table.	I think we should put a number on the table.	128285046	1475483806161	1475483806225	BKSP	8
252255	2701333	I think we should put a number on the table.	I think we should put a number on the table.	128285047	1475483806303	1475483806369	BKSP	8
252255	2701333	I think we should put a number on the table.	I think we should put a number on the table.	128285050	1475483806353	1475483806442	e	69
252255	2701333	I think we should put a number on the table.	I think we should put a number on the table.	128285054	1475483806408	1475483806520	 	32
252255	2701333	I think we should put a number on the table.	I think we should put a number on the table.	128285058	1475483806692	1475483806809	t	84
252255	2701333	I think we should put a number on the table.	I think we should put a number on the table.	128285060	1475483806787	1475483806920	a	65
252255	2701333	I think we should put a number on the table.	I think we should put a number on the table.	128285062	1475483806951	1475483807041	b	66
252255	2701333	I think we should put a number on the table.	I think we should put a number on the table.	128285064	1475483807058	1475483807126	l	76
252255	2701333	I think we should put a number on the table.	I think we should put a number on the table.	128285067	1475483807142	1475483807225	e	69
252255	2701333	I think we should put a number on the table.	I think we should put a number on the table.	128285069	1475483807241	1475483807357	.	190
252255	2701338	There is in fact few differences between the candidates.	There is in fact few differences between the candidates.	128285114	1475483809636	1475483809870	SHIFT	16
252255	2701338	There is in fact few differences between the candidates.	There is in fact few differences between the candidates.	128285117	1475483809811	1475483809901	T	84
252255	2701338	There is in fact few differences between the candidates.	There is in fact few differences between the candidates.	128285339	1475483809964	1475483817076	h	72
252255	2701338	There is in fact few differences between the candidates.	There is in fact few differences between the candidates.	128285123	1475483810036	1475483810205	e	69
252255	2701338	There is in fact few differences between the candidates.	There is in fact few differences between the candidates.	128285126	1475483810165	1475483810313	r	82
252255	2701338	There is in fact few differences between the candidates.	There is in fact few differences between the candidates.	128285141	1475483810283	1475483810434	e	69
252255	2701338	There is in fact few differences between the candidates.	There is in fact few differences between the candidates.	128285143	1475483810449	1475483810567	 	32
252255	2701338	There is in fact few differences between the candidates.	There is in fact few differences between the candidates.	128285145	1475483810598	1475483810671	i	73
252255	2701338	There is in fact few differences between the candidates.	There is in fact few differences between the candidates.	128285147	1475483810671	1475483810769	s	83
252255	2701338	There is in fact few differences between the candidates.	There is in fact few differences between the candidates.	128285149	1475483810769	1475483810886	 	32
252255	2701338	There is in fact few differences between the candidates.	There is in fact few differences between the candidates.	128285153	1475483810901	1475483810990	i	73
252255	2701338	There is in fact few differences between the candidates.	There is in fact few differences between the candidates.	128285161	1475483811059	1475483811123	n	78
252255	2701338	There is in fact few differences between the candidates.	There is in fact few differences between the candidates.	128285162	1475483811401	1475483811504	 	32
252255	2701338	There is in fact few differences between the candidates.	There is in fact few differences between the candidates.	128285163	1475483811645	1475483811785	f	70
252255	2701338	There is in fact few differences between the candidates.	There is in fact few differences between the candidates.	128285165	1475483811740	1475483811898	a	65
252255	2701338	There is in fact few differences between the candidates.	There is in fact few differences between the candidates.	128285201	1475483811888	1475483812005	c	67
252255	2701338	There is in fact few differences between the candidates.	There is in fact few differences between the candidates.	128285202	1475483812115	1475483812192	t	84
252255	2701338	There is in fact few differences between the candidates.	There is in fact few differences between the candidates.	128285203	1475483812223	1475483812352	 	32
252255	2701338	There is in fact few differences between the candidates.	There is in fact few differences between the candidates.	128285205	1475483812324	1475483812481	f	70
252255	2701338	There is in fact few differences between the candidates.	There is in fact few differences between the candidates.	128285209	1475483812455	1475483812605	e	69
252255	2701338	There is in fact few differences between the candidates.	There is in fact few differences between the candidates.	128285213	1475483812683	1475483812792	w	87
252255	2701338	There is in fact few differences between the candidates.	There is in fact few differences between the candidates.	128285228	1475483812860	1475483812956	 	32
252255	2701338	There is in fact few differences between the candidates.	There is in fact few differences between the candidates.	128285230	1475483812972	1475483813077	d	68
252255	2701338	There is in fact few differences between the candidates.	There is in fact few differences between the candidates.	128285234	1475483813077	1475483813179	i	73
252255	2701338	There is in fact few differences between the candidates.	There is in fact few differences between the candidates.	128285237	1475483813382	1475483813481	f	70
252255	2701338	There is in fact few differences between the candidates.	There is in fact few differences between the candidates.	128285240	1475483813541	1475483813661	f	70
252255	2701338	There is in fact few differences between the candidates.	There is in fact few differences between the candidates.	128285258	1475483813692	1475483813844	e	69
252255	2701338	There is in fact few differences between the candidates.	There is in fact few differences between the candidates.	128285259	1475483813844	1475483813978	r	82
252255	2701338	There is in fact few differences between the candidates.	There is in fact few differences between the candidates.	128285260	1475483814009	1475483814145	e	69
252255	2701338	There is in fact few differences between the candidates.	There is in fact few differences between the candidates.	128285262	1475483814176	1475483814274	n	78
252255	2701338	There is in fact few differences between the candidates.	There is in fact few differences between the candidates.	128285264	1475483814352	1475483814497	c	67
252255	2701338	There is in fact few differences between the candidates.	There is in fact few differences between the candidates.	128285274	1475483814479	1475483814571	e	69
252255	2701338	There is in fact few differences between the candidates.	There is in fact few differences between the candidates.	128285275	1475483814680	1475483814798	s	83
252255	2701338	There is in fact few differences between the candidates.	There is in fact few differences between the candidates.	128285277	1475483814798	1475483814931	 	32
252255	2701338	There is in fact few differences between the candidates.	There is in fact few differences between the candidates.	128285279	1475483815049	1475483815167	b	66
252255	2701338	There is in fact few differences between the candidates.	There is in fact few differences between the candidates.	128285282	1475483815198	1475483815368	e	69
252255	2701338	There is in fact few differences between the candidates.	There is in fact few differences between the candidates.	128285313	1475483815352	1475483815515	t	84
252255	2701338	There is in fact few differences between the candidates.	There is in fact few differences between the candidates.	128285316	1475483815577	1475483815622	e	69
252255	2701338	There is in fact few differences between the candidates.	There is in fact few differences between the candidates.	128285319	1475483815935	1475483816026	BKSP	8
252255	2701338	There is in fact few differences between the candidates.	There is in fact few differences between the candidates.	128285322	1475483816019	1475483816126	w	87
252255	2701338	There is in fact few differences between the candidates.	There is in fact few differences between the candidates.	128285325	1475483816075	1475483816196	e	69
252255	2701338	There is in fact few differences between the candidates.	There is in fact few differences between the candidates.	128285327	1475483816352	1475483816454	e	69
252255	2701338	There is in fact few differences between the candidates.	There is in fact few differences between the candidates.	128285328	1475483816564	1475483816656	n	78
252255	2701338	There is in fact few differences between the candidates.	There is in fact few differences between the candidates.	128285333	1475483816692	1475483816822	 	32
252255	2701338	There is in fact few differences between the candidates.	There is in fact few differences between the candidates.	128285336	1475483816916	1475483817009	t	84
252255	2701338	There is in fact few differences between the candidates.	There is in fact few differences between the candidates.	128285342	1475483817108	1475483817208	e	69
252255	2701338	There is in fact few differences between the candidates.	There is in fact few differences between the candidates.	128285345	1475483817223	1475483817325	 	32
252255	2701338	There is in fact few differences between the candidates.	There is in fact few differences between the candidates.	128285355	1475483817341	1475483817481	c	67
252255	2701338	There is in fact few differences between the candidates.	There is in fact few differences between the candidates.	128285356	1475483817473	1475483817617	a	65
252255	2701338	There is in fact few differences between the candidates.	There is in fact few differences between the candidates.	128285358	1475483817592	1475483817677	n	78
252255	2701338	There is in fact few differences between the candidates.	There is in fact few differences between the candidates.	128285360	1475483817693	1475483817793	d	68
252255	2701338	There is in fact few differences between the candidates.	There is in fact few differences between the candidates.	128285362	1475483817840	1475483817922	i	73
252255	2701338	There is in fact few differences between the candidates.	There is in fact few differences between the candidates.	128285365	1475483817924	1475483818029	d	68
252255	2701338	There is in fact few differences between the candidates.	There is in fact few differences between the candidates.	128285366	1475483818091	1475483818242	a	65
252255	2701338	There is in fact few differences between the candidates.	There is in fact few differences between the candidates.	128285367	1475483818351	1475483818497	t	84
252255	2701338	There is in fact few differences between the candidates.	There is in fact few differences between the candidates.	128285368	1475483818478	1475483818596	e	69
252255	2701338	There is in fact few differences between the candidates.	There is in fact few differences between the candidates.	128285369	1475483818690	1475483818811	s	83
252255	2701338	There is in fact few differences between the candidates.	There is in fact few differences between the candidates.	128285370	1475483818833	1475483818914	.	190
252255	2701343	The two leading candidates signed a Civility Pact on Tuesday.	The two leading candidates signed a Civility Pact on Tuesday.	128285425	1475483821431	1475483821675	SHIFT	16
252255	2701343	The two leading candidates signed a Civility Pact on Tuesday.	The two leading candidates signed a Civility Pact on Tuesday.	128285426	1475483821606	1475483821722	T	84
252255	2701343	The two leading candidates signed a Civility Pact on Tuesday.	The two leading candidates signed a Civility Pact on Tuesday.	128285428	1475483821842	1475483821926	e	69
252255	2701343	The two leading candidates signed a Civility Pact on Tuesday.	The two leading candidates signed a Civility Pact on Tuesday.	128285429	1475483821957	1475483822074	 	32
252255	2701343	The two leading candidates signed a Civility Pact on Tuesday.	The two leading candidates signed a Civility Pact on Tuesday.	128285430	1475483822199	1475483822294	w	87
252255	2701343	The two leading candidates signed a Civility Pact on Tuesday.	The two leading candidates signed a Civility Pact on Tuesday.	128285444	1475483822505	1475483822585	BKSP	8
252255	2701343	The two leading candidates signed a Civility Pact on Tuesday.	The two leading candidates signed a Civility Pact on Tuesday.	128285447	1475483822563	1475483822677	t	84
252255	2701343	The two leading candidates signed a Civility Pact on Tuesday.	The two leading candidates signed a Civility Pact on Tuesday.	128285449	1475483822693	1475483822833	w	87
252255	2701343	The two leading candidates signed a Civility Pact on Tuesday.	The two leading candidates signed a Civility Pact on Tuesday.	128285451	1475483822794	1475483822912	o	79
252255	2701343	The two leading candidates signed a Civility Pact on Tuesday.	The two leading candidates signed a Civility Pact on Tuesday.	128285453	1475483822944	1475483823077	 	32
252255	2701343	The two leading candidates signed a Civility Pact on Tuesday.	The two leading candidates signed a Civility Pact on Tuesday.	128285455	1475483823124	1475483823241	l	76
252255	2701343	The two leading candidates signed a Civility Pact on Tuesday.	The two leading candidates signed a Civility Pact on Tuesday.	128285473	1475483823225	1475483823299	e	69
252255	2701343	The two leading candidates signed a Civility Pact on Tuesday.	The two leading candidates signed a Civility Pact on Tuesday.	128285475	1475483823315	1475483823481	a	65
252255	2701343	The two leading candidates signed a Civility Pact on Tuesday.	The two leading candidates signed a Civility Pact on Tuesday.	128285477	1475483823461	1475483823593	d	68
252255	2701343	The two leading candidates signed a Civility Pact on Tuesday.	The two leading candidates signed a Civility Pact on Tuesday.	128285478	1475483823564	1475483823664	i	73
252255	2701343	The two leading candidates signed a Civility Pact on Tuesday.	The two leading candidates signed a Civility Pact on Tuesday.	128285479	1475483823758	1475483823849	n	78
252255	2701343	The two leading candidates signed a Civility Pact on Tuesday.	The two leading candidates signed a Civility Pact on Tuesday.	128285480	1475483823864	1475483823964	g	71
252255	2701343	The two leading candidates signed a Civility Pact on Tuesday.	The two leading candidates signed a Civility Pact on Tuesday.	128285488	1475483823980	1475483824113	 	32
252255	2701343	The two leading candidates signed a Civility Pact on Tuesday.	The two leading candidates signed a Civility Pact on Tuesday.	128285490	1475483824144	1475483824281	c	67
252255	2701343	The two leading candidates signed a Civility Pact on Tuesday.	The two leading candidates signed a Civility Pact on Tuesday.	128285494	1475483824250	1475483824367	a	65
252255	2701343	The two leading candidates signed a Civility Pact on Tuesday.	The two leading candidates signed a Civility Pact on Tuesday.	128285496	1475483824382	1475483824470	n	78
252255	2701343	The two leading candidates signed a Civility Pact on Tuesday.	The two leading candidates signed a Civility Pact on Tuesday.	128285498	1475483824540	1475483824652	d	68
252255	2701343	The two leading candidates signed a Civility Pact on Tuesday.	The two leading candidates signed a Civility Pact on Tuesday.	128285505	1475483824779	1475483824854	i	73
252255	2701343	The two leading candidates signed a Civility Pact on Tuesday.	The two leading candidates signed a Civility Pact on Tuesday.	128285506	1475483825010	1475483825103	d	68
252255	2701343	The two leading candidates signed a Civility Pact on Tuesday.	The two leading candidates signed a Civility Pact on Tuesday.	128285507	1475483825228	1475483825385	a	65
252255	2701343	The two leading candidates signed a Civility Pact on Tuesday.	The two leading candidates signed a Civility Pact on Tuesday.	128285508	1475483825416	1475483825546	t	84
252255	2701343	The two leading candidates signed a Civility Pact on Tuesday.	The two leading candidates signed a Civility Pact on Tuesday.	128285516	1475483825538	1475483825655	e	69
252255	2701343	The two leading candidates signed a Civility Pact on Tuesday.	The two leading candidates signed a Civility Pact on Tuesday.	128285519	1475483825717	1475483825839	s	83
252255	2701343	The two leading candidates signed a Civility Pact on Tuesday.	The two leading candidates signed a Civility Pact on Tuesday.	128285522	1475483825870	1475483825974	 	32
252255	2701343	The two leading candidates signed a Civility Pact on Tuesday.	The two leading candidates signed a Civility Pact on Tuesday.	128285524	1475483826005	1475483826123	s	83
252255	2701343	The two leading candidates signed a Civility Pact on Tuesday.	The two leading candidates signed a Civility Pact on Tuesday.	128285526	1475483826186	1475483826275	i	73
252255	2701343	The two leading candidates signed a Civility Pact on Tuesday.	The two leading candidates signed a Civility Pact on Tuesday.	128285528	1475483826322	1475483826427	g	71
252255	2701343	The two leading candidates signed a Civility Pact on Tuesday.	The two leading candidates signed a Civility Pact on Tuesday.	128285537	1475483826456	1475483826527	n	78
252255	2701343	The two leading candidates signed a Civility Pact on Tuesday.	The two leading candidates signed a Civility Pact on Tuesday.	128285538	1475483826543	1475483826674	e	69
252255	2701343	The two leading candidates signed a Civility Pact on Tuesday.	The two leading candidates signed a Civility Pact on Tuesday.	128285539	1475483826737	1475483826842	d	68
252255	2701343	The two leading candidates signed a Civility Pact on Tuesday.	The two leading candidates signed a Civility Pact on Tuesday.	128285540	1475483826842	1475483826959	 	32
252255	2701343	The two leading candidates signed a Civility Pact on Tuesday.	The two leading candidates signed a Civility Pact on Tuesday.	128285542	1475483826959	1475483827061	a	65
252255	2701343	The two leading candidates signed a Civility Pact on Tuesday.	The two leading candidates signed a Civility Pact on Tuesday.	128285553	1475483827117	1475483827227	 	32
252255	2701343	The two leading candidates signed a Civility Pact on Tuesday.	The two leading candidates signed a Civility Pact on Tuesday.	128285554	1475483827196	1475483827478	SHIFT	16
252255	2701343	The two leading candidates signed a Civility Pact on Tuesday.	The two leading candidates signed a Civility Pact on Tuesday.	128285555	1475483827352	1475483827493	A	65
252255	2701343	The two leading candidates signed a Civility Pact on Tuesday.	The two leading candidates signed a Civility Pact on Tuesday.	128285556	1475483827696	1475483827765	BKSP	8
252255	2701343	The two leading candidates signed a Civility Pact on Tuesday.	The two leading candidates signed a Civility Pact on Tuesday.	128285557	1475483827733	1475483827916	SHIFT	16
252255	2701343	The two leading candidates signed a Civility Pact on Tuesday.	The two leading candidates signed a Civility Pact on Tuesday.	128285558	1475483827827	1475483827979	C	67
252255	2701343	The two leading candidates signed a Civility Pact on Tuesday.	The two leading candidates signed a Civility Pact on Tuesday.	128285559	1475483828041	1475483828136	i	73
252255	2701343	The two leading candidates signed a Civility Pact on Tuesday.	The two leading candidates signed a Civility Pact on Tuesday.	128285581	1475483828101	1475483828205	v	86
252255	2701343	The two leading candidates signed a Civility Pact on Tuesday.	The two leading candidates signed a Civility Pact on Tuesday.	128285583	1475483828330	1475483828400	i	73
252255	2701343	The two leading candidates signed a Civility Pact on Tuesday.	The two leading candidates signed a Civility Pact on Tuesday.	128285585	1475483828794	1475483828900	l	76
252255	2701343	The two leading candidates signed a Civility Pact on Tuesday.	The two leading candidates signed a Civility Pact on Tuesday.	128285586	1475483828915	1475483829003	i	73
252255	2701343	The two leading candidates signed a Civility Pact on Tuesday.	The two leading candidates signed a Civility Pact on Tuesday.	128285587	1475483829065	1475483829215	t	84
252255	2701343	The two leading candidates signed a Civility Pact on Tuesday.	The two leading candidates signed a Civility Pact on Tuesday.	128285588	1475483829246	1475483829353	y	89
252255	2701343	The two leading candidates signed a Civility Pact on Tuesday.	The two leading candidates signed a Civility Pact on Tuesday.	128285621	1475483829476	1475483829586	 	32
252255	2701343	The two leading candidates signed a Civility Pact on Tuesday.	The two leading candidates signed a Civility Pact on Tuesday.	128285623	1475483829571	1475483829836	SHIFT	16
252255	2701343	The two leading candidates signed a Civility Pact on Tuesday.	The two leading candidates signed a Civility Pact on Tuesday.	128285622	1475483829727	1475483829804	P	80
252255	2701343	The two leading candidates signed a Civility Pact on Tuesday.	The two leading candidates signed a Civility Pact on Tuesday.	128285624	1475483830054	1475483830140	BKSP	8
252255	2701343	The two leading candidates signed a Civility Pact on Tuesday.	The two leading candidates signed a Civility Pact on Tuesday.	128285630	1475483830561	1475483830839	SHIFT	16
252255	2701343	The two leading candidates signed a Civility Pact on Tuesday.	The two leading candidates signed a Civility Pact on Tuesday.	128285627	1475483830706	1475483830808	P	80
252255	2701343	The two leading candidates signed a Civility Pact on Tuesday.	The two leading candidates signed a Civility Pact on Tuesday.	128285634	1475483830933	1475483831057	a	65
252255	2701343	The two leading candidates signed a Civility Pact on Tuesday.	The two leading candidates signed a Civility Pact on Tuesday.	128285637	1475483831120	1475483831240	c	67
252255	2701343	The two leading candidates signed a Civility Pact on Tuesday.	The two leading candidates signed a Civility Pact on Tuesday.	128285655	1475483831365	1475483831445	t	84
252255	2701343	The two leading candidates signed a Civility Pact on Tuesday.	The two leading candidates signed a Civility Pact on Tuesday.	128285656	1475483831460	1475483831577	 	32
252255	2701343	The two leading candidates signed a Civility Pact on Tuesday.	The two leading candidates signed a Civility Pact on Tuesday.	128285657	1475483831592	1475483831678	o	79
252255	2701343	The two leading candidates signed a Civility Pact on Tuesday.	The two leading candidates signed a Civility Pact on Tuesday.	128285658	1475483831787	1475483831926	n	78
252255	2701343	The two leading candidates signed a Civility Pact on Tuesday.	The two leading candidates signed a Civility Pact on Tuesday.	128285659	1475483832004	1475483832127	 	32
252255	2701343	The two leading candidates signed a Civility Pact on Tuesday.	The two leading candidates signed a Civility Pact on Tuesday.	128285676	1475483832146	1475483832214	t	84
252255	2701343	The two leading candidates signed a Civility Pact on Tuesday.	The two leading candidates signed a Civility Pact on Tuesday.	128285678	1475483832245	1475483832480	SHIFT	16
252255	2701343	The two leading candidates signed a Civility Pact on Tuesday.	The two leading candidates signed a Civility Pact on Tuesday.	128285680	1475483832558	1475483832632	BKSP	8
252255	2701343	The two leading candidates signed a Civility Pact on Tuesday.	The two leading candidates signed a Civility Pact on Tuesday.	128285682	1475483832616	1475483832800	SHIFT	16
252255	2701343	The two leading candidates signed a Civility Pact on Tuesday.	The two leading candidates signed a Civility Pact on Tuesday.	128285685	1475483832725	1475483832851	T	84
252255	2701343	The two leading candidates signed a Civility Pact on Tuesday.	The two leading candidates signed a Civility Pact on Tuesday.	128285688	1475483832816	1475483832946	u	85
252255	2701343	The two leading candidates signed a Civility Pact on Tuesday.	The two leading candidates signed a Civility Pact on Tuesday.	128285691	1475483832977	1475483833066	s	83
252255	2701343	The two leading candidates signed a Civility Pact on Tuesday.	The two leading candidates signed a Civility Pact on Tuesday.	128285694	1475483833285	1475483833387	BKSP	8
252255	2701343	The two leading candidates signed a Civility Pact on Tuesday.	The two leading candidates signed a Civility Pact on Tuesday.	128285719	1475483833353	1475483833435	e	69
252255	2701343	The two leading candidates signed a Civility Pact on Tuesday.	The two leading candidates signed a Civility Pact on Tuesday.	128285720	1475483833513	1475483833617	s	83
252255	2701343	The two leading candidates signed a Civility Pact on Tuesday.	The two leading candidates signed a Civility Pact on Tuesday.	128285721	1475483833789	1475483833939	d	68
252255	2701343	The two leading candidates signed a Civility Pact on Tuesday.	The two leading candidates signed a Civility Pact on Tuesday.	128285722	1475483833908	1475483834018	a	65
252255	2701343	The two leading candidates signed a Civility Pact on Tuesday.	The two leading candidates signed a Civility Pact on Tuesday.	128285723	1475483834064	1475483834168	y	89
252255	2701351	At 17, he enlisted in the US Navy.	At 17, he enlisted in the US Navy.	128286013	1475483834184	1475483845293	.	190
252255	2701351	At 17, he enlisted in the US Navy.	At 17, he enlisted in the US Navy.	128285827	1475483837866	1475483838133	SHIFT	16
252255	2701351	At 17, he enlisted in the US Navy.	At 17, he enlisted in the US Navy.	128285828	1475483838054	1475483838180	A	65
252255	2701351	At 17, he enlisted in the US Navy.	At 17, he enlisted in the US Navy.	128285830	1475483838289	1475483838383	t	84
252255	2701351	At 17, he enlisted in the US Navy.	At 17, he enlisted in the US Navy.	128285832	1475483838508	1475483838648	1	49
252255	2701351	At 17, he enlisted in the US Navy.	At 17, he enlisted in the US Navy.	128285834	1475483838742	1475483838820	 	32
252255	2701351	At 17, he enlisted in the US Navy.	At 17, he enlisted in the US Navy.	128285837	1475483838882	1475483838986	BKSP	8
252255	2701351	At 17, he enlisted in the US Navy.	At 17, he enlisted in the US Navy.	128285840	1475483839048	1475483839137	BKSP	8
252255	2701351	At 17, he enlisted in the US Navy.	At 17, he enlisted in the US Navy.	128285842	1475483839152	1475483839270	 	32
252255	2701351	At 17, he enlisted in the US Navy.	At 17, he enlisted in the US Navy.	128285881	1475483839302	1475483839419	1	49
252255	2701351	At 17, he enlisted in the US Navy.	At 17, he enlisted in the US Navy.	128285882	1475483839466	1475483839570	7	55
252255	2701351	At 17, he enlisted in the US Navy.	At 17, he enlisted in the US Navy.	128285884	1475483839789	1475483839920	,	188
252255	2701351	At 17, he enlisted in the US Navy.	At 17, he enlisted in the US Navy.	128285886	1475483840061	1475483840141	 	32
252255	2701351	At 17, he enlisted in the US Navy.	At 17, he enlisted in the US Navy.	128285951	1475483840360	1475483842805	h	72
252255	2701351	At 17, he enlisted in the US Navy.	At 17, he enlisted in the US Navy.	128285896	1475483840494	1475483840603	e	69
252255	2701351	At 17, he enlisted in the US Navy.	At 17, he enlisted in the US Navy.	128285897	1475483840591	1475483840693	 	32
252255	2701351	At 17, he enlisted in the US Navy.	At 17, he enlisted in the US Navy.	128285898	1475483840818	1475483840913	e	69
252255	2701351	At 17, he enlisted in the US Navy.	At 17, he enlisted in the US Navy.	128285899	1475483840878	1475483840976	n	78
252255	2701351	At 17, he enlisted in the US Navy.	At 17, he enlisted in the US Navy.	128285900	1475483841054	1475483841129	l	76
252255	2701351	At 17, he enlisted in the US Navy.	At 17, he enlisted in the US Navy.	128285912	1475483841182	1475483841283	i	73
252255	2701351	At 17, he enlisted in the US Navy.	At 17, he enlisted in the US Navy.	128285913	1475483841262	1475483841395	s	83
252255	2701351	At 17, he enlisted in the US Navy.	At 17, he enlisted in the US Navy.	128285914	1475483841427	1475483841527	t	84
252255	2701351	At 17, he enlisted in the US Navy.	At 17, he enlisted in the US Navy.	128285915	1475483841574	1475483841711	e	69
252255	2701351	At 17, he enlisted in the US Navy.	At 17, he enlisted in the US Navy.	128285916	1475483841742	1475483841883	d	68
252255	2701351	At 17, he enlisted in the US Navy.	At 17, he enlisted in the US Navy.	128285936	1475483841891	1475483842001	 	32
252255	2701351	At 17, he enlisted in the US Navy.	At 17, he enlisted in the US Navy.	128285938	1475483842001	1475483842114	i	73
252255	2701351	At 17, he enlisted in the US Navy.	At 17, he enlisted in the US Navy.	128285940	1475483842271	1475483842380	n	78
252255	2701351	At 17, he enlisted in the US Navy.	At 17, he enlisted in the US Navy.	128285942	1475483842412	1475483842531	 	32
252255	2701351	At 17, he enlisted in the US Navy.	At 17, he enlisted in the US Navy.	128285944	1475483842578	1475483842666	t	84
252255	2701351	At 17, he enlisted in the US Navy.	At 17, he enlisted in the US Navy.	128285953	1475483842784	1475483842899	e	69
252255	2701351	At 17, he enlisted in the US Navy.	At 17, he enlisted in the US Navy.	128285955	1475483842915	1475483843049	 	32
252255	2701351	At 17, he enlisted in the US Navy.	At 17, he enlisted in the US Navy.	128285997	1475483843064	1475483843582	SHIFT	16
252255	2701351	At 17, he enlisted in the US Navy.	At 17, he enlisted in the US Navy.	128285958	1475483843189	1475483843299	U	85
252255	2701351	At 17, he enlisted in the US Navy.	At 17, he enlisted in the US Navy.	128285962	1475483843395	1475483843531	S	83
252255	2701351	At 17, he enlisted in the US Navy.	At 17, he enlisted in the US Navy.	128285998	1475483843629	1475483843751	 	32
252255	2701351	At 17, he enlisted in the US Navy.	At 17, he enlisted in the US Navy.	128285999	1475483843798	1475483843905	n	78
252255	2701351	At 17, he enlisted in the US Navy.	At 17, he enlisted in the US Navy.	128286000	1475483843840	1475483843967	a	65
252255	2701351	At 17, he enlisted in the US Navy.	At 17, he enlisted in the US Navy.	128286001	1475483843921	1475483844077	SHIFT	16
252255	2701351	At 17, he enlisted in the US Navy.	At 17, he enlisted in the US Navy.	128286002	1475483844139	1475483844221	BKSP	8
252255	2701351	At 17, he enlisted in the US Navy.	At 17, he enlisted in the US Navy.	128286003	1475483844268	1475483844355	BKSP	8
252255	2701351	At 17, he enlisted in the US Navy.	At 17, he enlisted in the US Navy.	128286005	1475483844291	1475483844556	SHIFT	16
252255	2701351	At 17, he enlisted in the US Navy.	At 17, he enlisted in the US Navy.	128286004	1475483844468	1475483844556	N	78
252255	2701351	At 17, he enlisted in the US Navy.	At 17, he enlisted in the US Navy.	128286006	1475483844634	1475483844744	a	65
252255	2701351	At 17, he enlisted in the US Navy.	At 17, he enlisted in the US Navy.	128286009	1475483844784	1475483844905	v	86
252255	2701351	At 17, he enlisted in the US Navy.	At 17, he enlisted in the US Navy.	128286011	1475483845045	1475483845141	y	89
252255	2701355	Ben could tell him about Pompano.	Ben could tell him about Pompano.	128286075	1475483847651	1475483848102	SHIFT	16
252255	2701355	Ben could tell him about Pompano.	Ben could tell him about Pompano.	128286076	1475483848026	1475483848133	B	66
252255	2701355	Ben could tell him about Pompano.	Ben could tell him about Pompano.	128286078	1475483848180	1475483848286	e	69
252255	2701355	Ben could tell him about Pompano.	Ben could tell him about Pompano.	128286080	1475483848286	1475483848387	n	78
252255	2701355	Ben could tell him about Pompano.	Ben could tell him about Pompano.	128286082	1475483848402	1475483848503	 	32
252255	2701355	Ben could tell him about Pompano.	Ben could tell him about Pompano.	128286085	1475483848519	1475483848634	c	67
252255	2701355	Ben could tell him about Pompano.	Ben could tell him about Pompano.	128286093	1475483848654	1475483848754	o	79
252255	2701355	Ben could tell him about Pompano.	Ben could tell him about Pompano.	128286095	1475483848785	1475483848856	u	85
252255	2701355	Ben could tell him about Pompano.	Ben could tell him about Pompano.	128286096	1475483848903	1475483849004	l	76
252255	2701355	Ben could tell him about Pompano.	Ben could tell him about Pompano.	128286097	1475483849035	1475483849155	d	68
252255	2701355	Ben could tell him about Pompano.	Ben could tell him about Pompano.	128286128	1475483849138	1475483849224	 	32
252255	2701355	Ben could tell him about Pompano.	Ben could tell him about Pompano.	128286130	1475483849302	1475483849427	t	84
252255	2701355	Ben could tell him about Pompano.	Ben could tell him about Pompano.	128286132	1475483849391	1475483849532	e	69
252255	2701355	Ben could tell him about Pompano.	Ben could tell him about Pompano.	128286134	1475483849505	1475483849594	l	76
252255	2701355	Ben could tell him about Pompano.	Ben could tell him about Pompano.	128286137	1475483849641	1475483849739	l	76
252255	2701355	Ben could tell him about Pompano.	Ben could tell him about Pompano.	128286139	1475483849755	1475483849858	 	32
252255	2701355	Ben could tell him about Pompano.	Ben could tell him about Pompano.	128286153	1475483849992	1475483850045	i	73
252255	2701355	Ben could tell him about Pompano.	Ben could tell him about Pompano.	128286154	1475483850139	1475483850226	m	77
252255	2701355	Ben could tell him about Pompano.	Ben could tell him about Pompano.	128286155	1475483850257	1475483850342	 	32
252255	2701355	Ben could tell him about Pompano.	Ben could tell him about Pompano.	128286156	1475483850358	1475483850491	a	65
252255	2701355	Ben could tell him about Pompano.	Ben could tell him about Pompano.	128286165	1475483850546	1475483850658	b	66
252255	2701355	Ben could tell him about Pompano.	Ben could tell him about Pompano.	128286167	1475483850658	1475483850745	o	79
252255	2701355	Ben could tell him about Pompano.	Ben could tell him about Pompano.	128286168	1475483850776	1475483850861	u	85
252255	2701355	Ben could tell him about Pompano.	Ben could tell him about Pompano.	128286169	1475483850893	1475483850994	t	84
252255	2701355	Ben could tell him about Pompano.	Ben could tell him about Pompano.	128286170	1475483851026	1475483851144	 	32
252255	2701355	Ben could tell him about Pompano.	Ben could tell him about Pompano.	128286178	1475483851166	1475483851378	SHIFT	16
252255	2701355	Ben could tell him about Pompano.	Ben could tell him about Pompano.	128286176	1475483851245	1475483851362	P	80
252255	2701355	Ben could tell him about Pompano.	Ben could tell him about Pompano.	128286181	1475483851456	1475483851547	o	79
252255	2701355	Ben could tell him about Pompano.	Ben could tell him about Pompano.	128286184	1475483851626	1475483851730	m	77
252255	2701355	Ben could tell him about Pompano.	Ben could tell him about Pompano.	128286187	1475483851824	1475483851914	p	80
252255	2701355	Ben could tell him about Pompano.	Ben could tell him about Pompano.	128286190	1475483851930	1475483852049	a	65
252255	2701355	Ben could tell him about Pompano.	Ben could tell him about Pompano.	128286200	1475483852067	1475483852149	n	78
252255	2701355	Ben could tell him about Pompano.	Ben could tell him about Pompano.	128286201	1475483852227	1475483852301	o	79
252255	2701355	Ben could tell him about Pompano.	Ben could tell him about Pompano.	128286202	1475483852426	1475483852534	.	190
252255	2701361	I have been in contact with him, and he is familiar with the issues.	I have been in contact with him, and he is familiar with the issues.	128286293	1475483855100	1475483855392	SHIFT	16
252255	2701361	I have been in contact with him, and he is familiar with the issues.	I have been in contact with him, and he is familiar with the issues.	128286291	1475483855276	1475483855361	I	73
252255	2701361	I have been in contact with him, and he is familiar with the issues.	I have been in contact with him, and he is familiar with the issues.	128286296	1475483855454	1475483855544	 	32
252255	2701361	I have been in contact with him, and he is familiar with the issues.	I have been in contact with him, and he is familiar with the issues.	128286422	1475483855622	1475483858922	h	72
252255	2701361	I have been in contact with him, and he is familiar with the issues.	I have been in contact with him, and he is familiar with the issues.	128286300	1475483855712	1475483855826	a	65
252255	2701361	I have been in contact with him, and he is familiar with the issues.	I have been in contact with him, and he is familiar with the issues.	128286301	1475483855889	1475483856027	v	86
252255	2701361	I have been in contact with him, and he is familiar with the issues.	I have been in contact with him, and he is familiar with the issues.	128286327	1475483855996	1475483856117	e	69
252255	2701361	I have been in contact with him, and he is familiar with the issues.	I have been in contact with him, and he is familiar with the issues.	128286329	1475483856133	1475483856216	 	32
252255	2701361	I have been in contact with him, and he is familiar with the issues.	I have been in contact with him, and he is familiar with the issues.	128286333	1475483856294	1475483856381	b	66
252255	2701361	I have been in contact with him, and he is familiar with the issues.	I have been in contact with him, and he is familiar with the issues.	128286335	1475483856459	1475483856563	e	69
252255	2701361	I have been in contact with him, and he is familiar with the issues.	I have been in contact with him, and he is familiar with the issues.	128286337	1475483856610	1475483856729	e	69
252255	2701361	I have been in contact with him, and he is familiar with the issues.	I have been in contact with him, and he is familiar with the issues.	128286338	1475483856745	1475483856848	n	78
252255	2701361	I have been in contact with him, and he is familiar with the issues.	I have been in contact with him, and he is familiar with the issues.	128286348	1475483856859	1475483856995	 	32
252255	2701361	I have been in contact with him, and he is familiar with the issues.	I have been in contact with him, and he is familiar with the issues.	128286350	1475483856995	1475483857082	i	73
252255	2701361	I have been in contact with him, and he is familiar with the issues.	I have been in contact with him, and he is familiar with the issues.	128286352	1475483857129	1475483857248	n	78
252255	2701361	I have been in contact with him, and he is familiar with the issues.	I have been in contact with him, and he is familiar with the issues.	128286353	1475483857248	1475483857379	 	32
252255	2701361	I have been in contact with him, and he is familiar with the issues.	I have been in contact with him, and he is familiar with the issues.	128286369	1475483857365	1475483857483	c	67
252255	2701361	I have been in contact with him, and he is familiar with the issues.	I have been in contact with him, and he is familiar with the issues.	128286372	1475483857499	1475483857555	o	79
252255	2701361	I have been in contact with him, and he is familiar with the issues.	I have been in contact with him, and he is familiar with the issues.	128286375	1475483857630	1475483857719	n	78
252255	2701361	I have been in contact with him, and he is familiar with the issues.	I have been in contact with him, and he is familiar with the issues.	128286378	1475483857766	1475483857891	t	84
252255	2701361	I have been in contact with him, and he is familiar with the issues.	I have been in contact with him, and he is familiar with the issues.	128286381	1475483857853	1475483857985	a	65
252255	2701361	I have been in contact with him, and he is familiar with the issues.	I have been in contact with him, and he is familiar with the issues.	128286384	1475483858032	1475483858136	c	67
252255	2701361	I have been in contact with him, and he is familiar with the issues.	I have been in contact with him, and he is familiar with the issues.	128286402	1475483858246	1475483858337	t	84
252255	2701361	I have been in contact with him, and he is familiar with the issues.	I have been in contact with him, and he is familiar with the issues.	128286403	1475483858352	1475483858453	 	32
252255	2701361	I have been in contact with him, and he is familiar with the issues.	I have been in contact with him, and he is familiar with the issues.	128286405	1475483858469	1475483858611	w	87
252255	2701361	I have been in contact with him, and he is familiar with the issues.	I have been in contact with him, and he is familiar with the issues.	128286407	1475483858587	1475483858657	i	73
252255	2701361	I have been in contact with him, and he is familiar with the issues.	I have been in contact with him, and he is familiar with the issues.	128286411	1475483858735	1475483858836	t	84
252255	2701361	I have been in contact with him, and he is familiar with the issues.	I have been in contact with him, and he is familiar with the issues.	128286424	1475483858814	1475483859276	h	72
252255	2701361	I have been in contact with him, and he is familiar with the issues.	I have been in contact with him, and he is familiar with the issues.	128286423	1475483858953	1475483859043	 	32
252255	2701361	I have been in contact with him, and he is familiar with the issues.	I have been in contact with him, and he is familiar with the issues.	128286449	1475483859156	1475483860539	h	72
252255	2701361	I have been in contact with him, and he is familiar with the issues.	I have been in contact with him, and he is familiar with the issues.	128286425	1475483859258	1475483859341	i	73
252255	2701361	I have been in contact with him, and he is familiar with the issues.	I have been in contact with him, and he is familiar with the issues.	128286426	1475483859419	1475483859539	m	77
252255	2701361	I have been in contact with him, and he is familiar with the issues.	I have been in contact with him, and he is familiar with the issues.	128286427	1475483859601	1475483859708	,	188
252255	2701361	I have been in contact with him, and he is familiar with the issues.	I have been in contact with him, and he is familiar with the issues.	128286428	1475483859819	1475483859908	 	32
252255	2701361	I have been in contact with him, and he is familiar with the issues.	I have been in contact with him, and he is familiar with the issues.	128286429	1475483860002	1475483860097	a	65
252255	2701361	I have been in contact with him, and he is familiar with the issues.	I have been in contact with him, and he is familiar with the issues.	128286430	1475483860061	1475483860144	n	78
252255	2701361	I have been in contact with him, and he is familiar with the issues.	I have been in contact with him, and he is familiar with the issues.	128286433	1475483860206	1475483860310	d	68
252255	2701361	I have been in contact with him, and he is familiar with the issues.	I have been in contact with him, and he is familiar with the issues.	128286436	1475483860326	1475483860411	 	32
252255	2701361	I have been in contact with him, and he is familiar with the issues.	I have been in contact with him, and he is familiar with the issues.	128286545	1475483860430	1475483863662	h	72
252255	2701361	I have been in contact with him, and he is familiar with the issues.	I have been in contact with him, and he is familiar with the issues.	128286450	1475483860512	1475483860596	e	69
252255	2701361	I have been in contact with him, and he is familiar with the issues.	I have been in contact with him, and he is familiar with the issues.	128286451	1475483860737	1475483860841	 	32
252255	2701361	I have been in contact with him, and he is familiar with the issues.	I have been in contact with him, and he is familiar with the issues.	128286452	1475483860857	1475483860931	i	73
252255	2701361	I have been in contact with him, and he is familiar with the issues.	I have been in contact with him, and he is familiar with the issues.	128286453	1475483860946	1475483861052	s	83
252255	2701361	I have been in contact with him, and he is familiar with the issues.	I have been in contact with him, and he is familiar with the issues.	128286471	1475483861071	1475483861211	 	32
252255	2701361	I have been in contact with him, and he is familiar with the issues.	I have been in contact with him, and he is familiar with the issues.	128286474	1475483861320	1475483861413	f	70
252255	2701361	I have been in contact with him, and he is familiar with the issues.	I have been in contact with him, and he is familiar with the issues.	128286480	1475483861429	1475483861569	a	65
252255	2701361	I have been in contact with him, and he is familiar with the issues.	I have been in contact with him, and he is familiar with the issues.	128286485	1475483861532	1475483861600	m	77
252255	2701361	I have been in contact with him, and he is familiar with the issues.	I have been in contact with him, and he is familiar with the issues.	128286487	1475483861678	1475483861750	i	73
252255	2701361	I have been in contact with him, and he is familiar with the issues.	I have been in contact with him, and he is familiar with the issues.	128286492	1475483861790	1475483861884	l	76
252255	2701361	I have been in contact with him, and he is familiar with the issues.	I have been in contact with him, and he is familiar with the issues.	128286493	1475483861915	1475483862001	i	73
252255	2701361	I have been in contact with him, and he is familiar with the issues.	I have been in contact with him, and he is familiar with the issues.	128286494	1475483862017	1475483862109	r	82
252255	2701361	I have been in contact with him, and he is familiar with the issues.	I have been in contact with him, and he is familiar with the issues.	128286495	1475483862140	1475483862282	a	65
252255	2701361	I have been in contact with him, and he is familiar with the issues.	I have been in contact with him, and he is familiar with the issues.	128286498	1475483862611	1475483862686	BKSP	8
252255	2701361	I have been in contact with him, and he is familiar with the issues.	I have been in contact with him, and he is familiar with the issues.	128286501	1475483862748	1475483862810	BKSP	8
252255	2701361	I have been in contact with him, and he is familiar with the issues.	I have been in contact with him, and he is familiar with the issues.	128286505	1475483862791	1475483862922	a	65
252255	2701361	I have been in contact with him, and he is familiar with the issues.	I have been in contact with him, and he is familiar with the issues.	128286507	1475483862870	1475483863003	r	82
252255	2701361	I have been in contact with him, and he is familiar with the issues.	I have been in contact with him, and he is familiar with the issues.	128286509	1475483862985	1475483863086	 	32
252255	2701361	I have been in contact with him, and he is familiar with the issues.	I have been in contact with him, and he is familiar with the issues.	128286511	1475483863273	1475483863403	w	87
252255	2701361	I have been in contact with him, and he is familiar with the issues.	I have been in contact with him, and he is familiar with the issues.	128286512	1475483863374	1475483863456	i	73
252255	2701361	I have been in contact with him, and he is familiar with the issues.	I have been in contact with him, and he is familiar with the issues.	128286513	1475483863487	1475483863603	t	84
252255	2701361	I have been in contact with him, and he is familiar with the issues.	I have been in contact with him, and he is familiar with the issues.	128286561	1475483863573	1475483865161	h	72
252255	2701361	I have been in contact with him, and he is familiar with the issues.	I have been in contact with him, and he is familiar with the issues.	128286547	1475483863709	1475483863806	 	32
252255	2701361	I have been in contact with him, and he is familiar with the issues.	I have been in contact with him, and he is familiar with the issues.	128286550	1475483863931	1475483864024	e	69
252255	2701361	I have been in contact with him, and he is familiar with the issues.	I have been in contact with him, and he is familiar with the issues.	128286553	1475483864542	1475483864627	t	84
252255	2701361	I have been in contact with him, and he is familiar with the issues.	I have been in contact with him, and he is familiar with the issues.	128286556	1475483864706	1475483864793	BKSP	8
252255	2701361	I have been in contact with him, and he is familiar with the issues.	I have been in contact with him, and he is familiar with the issues.	128286559	1475483864871	1475483864945	BKSP	8
252255	2701361	I have been in contact with him, and he is familiar with the issues.	I have been in contact with him, and he is familiar with the issues.	128286560	1475483864960	1475483865045	t	84
252255	2701361	I have been in contact with him, and he is familiar with the issues.	I have been in contact with him, and he is familiar with the issues.	128286562	1475483865172	1475483865275	e	69
252255	2701361	I have been in contact with him, and he is familiar with the issues.	I have been in contact with him, and he is familiar with the issues.	128286563	1475483865262	1475483865392	 	32
252255	2701361	I have been in contact with him, and he is familiar with the issues.	I have been in contact with him, and he is familiar with the issues.	128286564	1475483865424	1475483865514	i	73
252255	2701361	I have been in contact with him, and he is familiar with the issues.	I have been in contact with him, and he is familiar with the issues.	128286566	1475483865529	1475483865612	s	83
252255	2701361	I have been in contact with him, and he is familiar with the issues.	I have been in contact with him, and he is familiar with the issues.	128286568	1475483865706	1475483865811	s	83
252255	2701361	I have been in contact with him, and he is familiar with the issues.	I have been in contact with him, and he is familiar with the issues.	128286630	1475483865823	1475483865923	u	85
252255	2701361	I have been in contact with him, and he is familiar with the issues.	I have been in contact with him, and he is familiar with the issues.	128286634	1475483865939	1475483866000	s	83
252255	2701361	I have been in contact with him, and he is familiar with the issues.	I have been in contact with him, and he is familiar with the issues.	128286638	1475483866187	1475483866265	BKSP	8
252255	2701361	I have been in contact with him, and he is familiar with the issues.	I have been in contact with him, and he is familiar with the issues.	128286641	1475483866327	1475483866409	e	69
252255	2701361	I have been in contact with him, and he is familiar with the issues.	I have been in contact with him, and he is familiar with the issues.	128286645	1475483866487	1475483866613	s	83
252255	2701361	I have been in contact with him, and he is familiar with the issues.	I have been in contact with him, and he is familiar with the issues.	128286647	1475483866801	1475483866884	,	188
252255	2701361	I have been in contact with him, and he is familiar with the issues.	I have been in contact with him, and he is familiar with the issues.	128286636	1475483867082	1475483867168	BKSP	8
252255	2701361	I have been in contact with him, and he is familiar with the issues.	I have been in contact with him, and he is familiar with the issues.	128286640	1475483867184	1475483867315	.	190
252255	2701368	I don't want to even see it in kilometers.	I don't want to even see it in kilometers.	128286744	1475483869258	1475483869557	SHIFT	16
252255	2701368	I don't want to even see it in kilometers.	I don't want to even see it in kilometers.	128286742	1475483869445	1475483869526	I	73
252255	2701368	I don't want to even see it in kilometers.	I don't want to even see it in kilometers.	128286746	1475483869604	1475483869725	 	32
252255	2701368	I don't want to even see it in kilometers.	I don't want to even see it in kilometers.	128286748	1475483869741	1475483869843	d	68
252255	2701368	I don't want to even see it in kilometers.	I don't want to even see it in kilometers.	128286750	1475483869827	1475483869895	o	79
252255	2701368	I don't want to even see it in kilometers.	I don't want to even see it in kilometers.	128286752	1475483869979	1475483870062	n	78
252255	2701368	I don't want to even see it in kilometers.	I don't want to even see it in kilometers.	128286777	1475483870447	1475483870560	'	222
252255	2701368	I don't want to even see it in kilometers.	I don't want to even see it in kilometers.	128286778	1475483870592	1475483870680	t	84
252255	2701368	I don't want to even see it in kilometers.	I don't want to even see it in kilometers.	128286779	1475483870774	1475483870880	 	32
252255	2701368	I don't want to even see it in kilometers.	I don't want to even see it in kilometers.	128286780	1475483871021	1475483871153	w	87
252255	2701368	I don't want to even see it in kilometers.	I don't want to even see it in kilometers.	128286795	1475483871115	1475483871284	a	65
252255	2701368	I don't want to even see it in kilometers.	I don't want to even see it in kilometers.	128286798	1475483871230	1475483871331	n	78
252255	2701368	I don't want to even see it in kilometers.	I don't want to even see it in kilometers.	128286801	1475483871362	1475483871466	t	84
252255	2701368	I don't want to even see it in kilometers.	I don't want to even see it in kilometers.	128286804	1475483871591	1475483871714	 	32
252255	2701368	I don't want to even see it in kilometers.	I don't want to even see it in kilometers.	128286807	1475483871819	1475483871901	t	84
252255	2701368	I don't want to even see it in kilometers.	I don't want to even see it in kilometers.	128286809	1475483871901	1475483871986	o	79
252255	2701368	I don't want to even see it in kilometers.	I don't want to even see it in kilometers.	128286823	1475483872004	1475483872101	 	32
252255	2701368	I don't want to even see it in kilometers.	I don't want to even see it in kilometers.	128286826	1475483872132	1475483872250	e	69
252255	2701368	I don't want to even see it in kilometers.	I don't want to even see it in kilometers.	128286829	1475483872312	1475483872456	v	86
252255	2701368	I don't want to even see it in kilometers.	I don't want to even see it in kilometers.	128286833	1475483872418	1475483872534	e	69
252255	2701368	I don't want to even see it in kilometers.	I don't want to even see it in kilometers.	128286836	1475483872550	1475483872653	n	78
252255	2701368	I don't want to even see it in kilometers.	I don't want to even see it in kilometers.	128286856	1475483872667	1475483872779	 	32
252255	2701368	I don't want to even see it in kilometers.	I don't want to even see it in kilometers.	128286858	1475483872755	1475483872854	s	83
252255	2701368	I don't want to even see it in kilometers.	I don't want to even see it in kilometers.	128286861	1475483872947	1475483873023	e	69
252255	2701368	I don't want to even see it in kilometers.	I don't want to even see it in kilometers.	128286864	1475483873101	1475483873189	e	69
252255	2701368	I don't want to even see it in kilometers.	I don't want to even see it in kilometers.	128286868	1475483873204	1475483873321	 	32
252255	2701368	I don't want to even see it in kilometers.	I don't want to even see it in kilometers.	128286884	1475483873339	1475483873423	i	73
252255	2701368	I don't want to even see it in kilometers.	I don't want to even see it in kilometers.	128286885	1475483873438	1475483873539	t	84
252255	2701368	I don't want to even see it in kilometers.	I don't want to even see it in kilometers.	128286886	1475483873571	1475483873673	 	32
252255	2701368	I don't want to even see it in kilometers.	I don't want to even see it in kilometers.	128286887	1475483873720	1475483873808	i	73
252255	2701368	I don't want to even see it in kilometers.	I don't want to even see it in kilometers.	128286888	1475483873870	1475483873958	n	78
252255	2701368	I don't want to even see it in kilometers.	I don't want to even see it in kilometers.	128286911	1475483873989	1475483874107	 	32
252255	2701368	I don't want to even see it in kilometers.	I don't want to even see it in kilometers.	128286916	1475483874154	1475483874242	k	75
252255	2701368	I don't want to even see it in kilometers.	I don't want to even see it in kilometers.	128286922	1475483874320	1475483874394	i	73
252255	2701368	I don't want to even see it in kilometers.	I don't want to even see it in kilometers.	128286928	1475483874488	1475483874562	l	76
252255	2701368	I don't want to even see it in kilometers.	I don't want to even see it in kilometers.	128286931	1475483874656	1475483874744	o	79
252255	2701368	I don't want to even see it in kilometers.	I don't want to even see it in kilometers.	128286941	1475483874859	1475483874960	m	77
252255	2701368	I don't want to even see it in kilometers.	I don't want to even see it in kilometers.	128286944	1475483875116	1475483875263	e	69
252255	2701368	I don't want to even see it in kilometers.	I don't want to even see it in kilometers.	128286947	1475483875279	1475483875387	t	84
252255	2701368	I don't want to even see it in kilometers.	I don't want to even see it in kilometers.	128286950	1475483875360	1475483875534	e	69
252255	2701368	I don't want to even see it in kilometers.	I don't want to even see it in kilometers.	128286975	1475483875494	1475483875612	r	82
252255	2701368	I don't want to even see it in kilometers.	I don't want to even see it in kilometers.	128286978	1475483875737	1475483875845	s	83
252255	2701368	I don't want to even see it in kilometers.	I don't want to even see it in kilometers.	128286980	1475483875877	1475483875996	.	190
252255	2701372	They also agreed on using dialogue to settle the issue.	They also agreed on using dialogue to settle the issue.	128287053	1475483878161	1475483878392	SHIFT	16
252255	2701372	They also agreed on using dialogue to settle the issue.	They also agreed on using dialogue to settle the issue.	128287055	1475483878322	1475483878439	T	84
252255	2701372	They also agreed on using dialogue to settle the issue.	They also agreed on using dialogue to settle the issue.	128287312	1475483878455	1475483886138	h	72
252255	2701372	They also agreed on using dialogue to settle the issue.	They also agreed on using dialogue to settle the issue.	128287059	1475483878541	1475483878642	e	69
252255	2701372	They also agreed on using dialogue to settle the issue.	They also agreed on using dialogue to settle the issue.	128287061	1475483878658	1475483878757	 	32
252255	2701372	They also agreed on using dialogue to settle the issue.	They also agreed on using dialogue to settle the issue.	128287063	1475483878960	1475483879059	BKSP	8
252255	2701372	They also agreed on using dialogue to settle the issue.	They also agreed on using dialogue to settle the issue.	128287069	1475483879042	1475483879142	y	89
252255	2701372	They also agreed on using dialogue to settle the issue.	They also agreed on using dialogue to settle the issue.	128287070	1475483879173	1475483879293	 	32
252255	2701372	They also agreed on using dialogue to settle the issue.	They also agreed on using dialogue to settle the issue.	128287071	1475483879355	1475483879459	a	65
252255	2701372	They also agreed on using dialogue to settle the issue.	They also agreed on using dialogue to settle the issue.	128287072	1475483879474	1475483879561	l	76
252255	2701372	They also agreed on using dialogue to settle the issue.	They also agreed on using dialogue to settle the issue.	128287073	1475483879639	1475483879734	s	83
252255	2701372	They also agreed on using dialogue to settle the issue.	They also agreed on using dialogue to settle the issue.	128287074	1475483879781	1475483879879	o	79
252255	2701372	They also agreed on using dialogue to settle the issue.	They also agreed on using dialogue to settle the issue.	128287089	1475483879973	1475483880078	 	32
252255	2701372	They also agreed on using dialogue to settle the issue.	They also agreed on using dialogue to settle the issue.	128287093	1475483880141	1475483880292	a	65
252255	2701372	They also agreed on using dialogue to settle the issue.	They also agreed on using dialogue to settle the issue.	128287097	1475483880386	1475483880496	g	71
252255	2701372	They also agreed on using dialogue to settle the issue.	They also agreed on using dialogue to settle the issue.	128287100	1475483880606	1475483880715	r	82
252255	2701372	They also agreed on using dialogue to settle the issue.	They also agreed on using dialogue to settle the issue.	128287104	1475483880731	1475483880832	e	69
252255	2701372	They also agreed on using dialogue to settle the issue.	They also agreed on using dialogue to settle the issue.	128287128	1475483880895	1475483880984	e	69
252255	2701372	They also agreed on using dialogue to settle the issue.	They also agreed on using dialogue to settle the issue.	128287130	1475483881046	1475483881195	d	68
252255	2701372	They also agreed on using dialogue to settle the issue.	They also agreed on using dialogue to settle the issue.	128287133	1475483881211	1475483881315	 	32
252255	2701372	They also agreed on using dialogue to settle the issue.	They also agreed on using dialogue to settle the issue.	128287135	1475483881346	1475483881434	o	79
252255	2701372	They also agreed on using dialogue to settle the issue.	They also agreed on using dialogue to settle the issue.	128287137	1475483881489	1475483881601	n	78
252255	2701372	They also agreed on using dialogue to settle the issue.	They also agreed on using dialogue to settle the issue.	128287141	1475483881624	1475483881734	 	32
252255	2701372	They also agreed on using dialogue to settle the issue.	They also agreed on using dialogue to settle the issue.	128287144	1475483881765	1475483881868	u	85
252255	2701372	They also agreed on using dialogue to settle the issue.	They also agreed on using dialogue to settle the issue.	128287147	1475483881868	1475483881986	s	83
252255	2701372	They also agreed on using dialogue to settle the issue.	They also agreed on using dialogue to settle the issue.	128287150	1475483882002	1475483882076	i	73
252255	2701372	They also agreed on using dialogue to settle the issue.	They also agreed on using dialogue to settle the issue.	128287154	1475483882154	1475483882238	n	78
252255	2701372	They also agreed on using dialogue to settle the issue.	They also agreed on using dialogue to settle the issue.	128287176	1475483882251	1475483882355	g	71
252255	2701372	They also agreed on using dialogue to settle the issue.	They also agreed on using dialogue to settle the issue.	128287177	1475483882338	1475483882429	 	32
252255	2701372	They also agreed on using dialogue to settle the issue.	They also agreed on using dialogue to settle the issue.	128287178	1475483882476	1475483882557	d	68
252255	2701372	They also agreed on using dialogue to settle the issue.	They also agreed on using dialogue to settle the issue.	128287179	1475483882572	1475483882640	i	73
252255	2701372	They also agreed on using dialogue to settle the issue.	They also agreed on using dialogue to settle the issue.	128287180	1475483882655	1475483882770	a	65
252255	2701372	They also agreed on using dialogue to settle the issue.	They also agreed on using dialogue to settle the issue.	128287189	1475483882786	1475483882858	l	76
252255	2701372	They also agreed on using dialogue to settle the issue.	They also agreed on using dialogue to settle the issue.	128287191	1475483882936	1475483883024	o	79
252255	2701372	They also agreed on using dialogue to settle the issue.	They also agreed on using dialogue to settle the issue.	128287196	1475483883055	1475483883140	g	71
252255	2701372	They also agreed on using dialogue to settle the issue.	They also agreed on using dialogue to settle the issue.	128287200	1475483883281	1475483883374	u	85
252255	2701372	They also agreed on using dialogue to settle the issue.	They also agreed on using dialogue to settle the issue.	128287203	1475483883484	1475483883591	e	69
252255	2701372	They also agreed on using dialogue to settle the issue.	They also agreed on using dialogue to settle the issue.	128287225	1475483883664	1475483883774	 	32
252255	2701372	They also agreed on using dialogue to settle the issue.	They also agreed on using dialogue to settle the issue.	128287226	1475483883977	1475483884044	t	84
252255	2701372	They also agreed on using dialogue to settle the issue.	They also agreed on using dialogue to settle the issue.	128287227	1475483884075	1475483884161	o	79
252255	2701372	They also agreed on using dialogue to settle the issue.	They also agreed on using dialogue to settle the issue.	128287228	1475483884192	1475483884298	 	32
252255	2701372	They also agreed on using dialogue to settle the issue.	They also agreed on using dialogue to settle the issue.	128287269	1475483884263	1475483884359	s	83
252255	2701372	They also agreed on using dialogue to settle the issue.	They also agreed on using dialogue to settle the issue.	128287271	1475483884424	1475483884542	t	84
252255	2701372	They also agreed on using dialogue to settle the issue.	They also agreed on using dialogue to settle the issue.	128287273	1475483884515	1475483884661	e	69
252255	2701372	They also agreed on using dialogue to settle the issue.	They also agreed on using dialogue to settle the issue.	128287274	1475483884770	1475483884822	BKSP	8
252255	2701372	They also agreed on using dialogue to settle the issue.	They also agreed on using dialogue to settle the issue.	128287275	1475483884884	1475483884972	BKSP	8
252255	2701372	They also agreed on using dialogue to settle the issue.	They also agreed on using dialogue to settle the issue.	128287276	1475483884935	1475483885078	e	69
252255	2701372	They also agreed on using dialogue to settle the issue.	They also agreed on using dialogue to settle the issue.	128287277	1475483885035	1475483885149	t	84
252255	2701372	They also agreed on using dialogue to settle the issue.	They also agreed on using dialogue to settle the issue.	128287279	1475483885274	1475483885368	t	84
252255	2701372	They also agreed on using dialogue to settle the issue.	They also agreed on using dialogue to settle the issue.	128287282	1475483885456	1475483885550	l	76
252255	2701372	They also agreed on using dialogue to settle the issue.	They also agreed on using dialogue to settle the issue.	128287285	1475483885534	1475483885650	e	69
252255	2701372	They also agreed on using dialogue to settle the issue.	They also agreed on using dialogue to settle the issue.	128287289	1475483885713	1475483885819	 	32
252255	2701372	They also agreed on using dialogue to settle the issue.	They also agreed on using dialogue to settle the issue.	128287291	1475483885991	1475483886077	t	84
252255	2701372	They also agreed on using dialogue to settle the issue.	They also agreed on using dialogue to settle the issue.	128287313	1475483886216	1475483886320	e	69
252255	2701372	They also agreed on using dialogue to settle the issue.	They also agreed on using dialogue to settle the issue.	128287315	1475483886336	1475483886453	 	32
252255	2701372	They also agreed on using dialogue to settle the issue.	They also agreed on using dialogue to settle the issue.	128287317	1475483886469	1475483886539	s	83
252255	2701372	They also agreed on using dialogue to settle the issue.	They also agreed on using dialogue to settle the issue.	128287319	1475483886602	1475483886643	i	73
252255	2701372	They also agreed on using dialogue to settle the issue.	They also agreed on using dialogue to settle the issue.	128287320	1475483886768	1475483886856	BKSP	8
252255	2701372	They also agreed on using dialogue to settle the issue.	They also agreed on using dialogue to settle the issue.	128287321	1475483886921	1475483886992	BKSP	8
252255	2701372	They also agreed on using dialogue to settle the issue.	They also agreed on using dialogue to settle the issue.	128287322	1475483887054	1475483887190	i	73
252255	2701372	They also agreed on using dialogue to settle the issue.	They also agreed on using dialogue to settle the issue.	128287339	1475483887156	1475483887264	s	83
252255	2701372	They also agreed on using dialogue to settle the issue.	They also agreed on using dialogue to settle the issue.	128287341	1475483887326	1475483887454	s	83
252255	2701372	They also agreed on using dialogue to settle the issue.	They also agreed on using dialogue to settle the issue.	128287343	1475483887439	1475483887528	u	85
252255	2701372	They also agreed on using dialogue to settle the issue.	They also agreed on using dialogue to settle the issue.	128287346	1475483887575	1475483887707	e	69
252255	2701372	They also agreed on using dialogue to settle the issue.	They also agreed on using dialogue to settle the issue.	128287349	1475483887723	1475483887825	.	190
252255	2701380	Presumably so do you.	Presumably so do you.	128287443	1475483891054	1475483891305	SHIFT	16
252255	2701380	Presumably so do you.	Presumably so do you.	128287441	1475483891213	1475483891289	P	80
252255	2701380	Presumably so do you.	Presumably so do you.	128287444	1475483891383	1475483891543	r	82
252255	2701380	Presumably so do you.	Presumably so do you.	128287445	1475483891504	1475483891621	e	69
252255	2701380	Presumably so do you.	Presumably so do you.	128287447	1475483891700	1475483891830	s	83
252255	2701380	Presumably so do you.	Presumably so do you.	128287473	1475483891792	1475483891860	u	85
252255	2701380	Presumably so do you.	Presumably so do you.	128287474	1475483891969	1475483892078	m	77
252255	2701380	Presumably so do you.	Presumably so do you.	128287475	1475483892057	1475483892157	a	65
252255	2701380	Presumably so do you.	Presumably so do you.	128287476	1475483892235	1475483892340	b	66
252255	2701380	Presumably so do you.	Presumably so do you.	128287478	1475483892418	1475483892524	l	76
252255	2701380	Presumably so do you.	Presumably so do you.	128287480	1475483892899	1475483892992	y	89
252255	2701380	Presumably so do you.	Presumably so do you.	128287490	1475483893049	1475483893175	 	32
252255	2701380	Presumably so do you.	Presumably so do you.	128287491	1475483893347	1475483893477	s	83
252255	2701380	Presumably so do you.	Presumably so do you.	128287492	1475483893508	1475483893612	o	79
252255	2701380	Presumably so do you.	Presumably so do you.	128287495	1475483893643	1475483893790	 	32
252255	2701380	Presumably so do you.	Presumably so do you.	128287510	1475483893761	1475483893880	d	68
252255	2701380	Presumably so do you.	Presumably so do you.	128287512	1475483893901	1475483893967	o	79
252255	2701380	Presumably so do you.	Presumably so do you.	128287516	1475483894060	1475483894149	 	32
252255	2701380	Presumably so do you.	Presumably so do you.	128287519	1475483894196	1475483894302	y	89
252255	2701380	Presumably so do you.	Presumably so do you.	128287522	1475483894282	1475483894382	o	79
252255	2701380	Presumably so do you.	Presumably so do you.	128287533	1475483894367	1475483894451	u	85
252255	2701380	Presumably so do you.	Presumably so do you.	128287535	1475483894716	1475483894815	.	190
