PARTICIPANT_ID	TEST_SECTION_ID	SENTENCE	USER_INPUT	KEYSTROKE_ID	PRESS_TIME	RELEASE_TIME	LETTER	KEYCODE
252545	2704602	I thought you left to go get breakfast.	I thought you left to go get brakfast.	128440300	1475488952877	1475488953268	SHIFT	16
252545	2704602	I thought you left to go get breakfast.	I thought you left to go get brakfast.	128440297	1475488953161	1475488953245	I	73
252545	2704602	I thought you left to go get breakfast.	I thought you left to go get brakfast.	128440303	1475488953416	1475488953508	 	32
252545	2704602	I thought you left to go get breakfast.	I thought you left to go get brakfast.	128440305	1475488953688	1475488953824	SHIFT	16
252545	2704602	I thought you left to go get breakfast.	I thought you left to go get brakfast.	128440309	1475488954343	1475488954414	t	84
252545	2704602	I thought you left to go get breakfast.	I thought you left to go get brakfast.	128440313	1475488954513	1475488954580	h	72
252545	2704602	I thought you left to go get breakfast.	I thought you left to go get brakfast.	128440316	1475488955178	1475488955245	o	79
252545	2704602	I thought you left to go get breakfast.	I thought you left to go get brakfast.	128440485	1475488960829	1475488960892	u	85
252545	2704602	I thought you left to go get breakfast.	I thought you left to go get brakfast.	128440487	1475488961548	1475488961643	g	71
252545	2704602	I thought you left to go get breakfast.	I thought you left to go get brakfast.	128440488	1475488961975	1475488962086	h	72
252545	2704602	I thought you left to go get breakfast.	I thought you left to go get brakfast.	128440489	1475488962151	1475488962303	t	84
252545	2704602	I thought you left to go get breakfast.	I thought you left to go get brakfast.	128440522	1475488962295	1475488962394	 	32
252545	2704602	I thought you left to go get breakfast.	I thought you left to go get brakfast.	128440524	1475488963040	1475488963106	y	89
252545	2704602	I thought you left to go get breakfast.	I thought you left to go get brakfast.	128440527	1475488963177	1475488963264	o	79
252545	2704602	I thought you left to go get breakfast.	I thought you left to go get brakfast.	128440530	1475488963401	1475488963469	u	85
252545	2704602	I thought you left to go get breakfast.	I thought you left to go get brakfast.	128440533	1475488963502	1475488963589	 	32
252545	2704602	I thought you left to go get breakfast.	I thought you left to go get brakfast.	128440536	1475488964219	1475488964302	l	76
252545	2704602	I thought you left to go get breakfast.	I thought you left to go get brakfast.	128440568	1475488964364	1475488964463	e	69
252545	2704602	I thought you left to go get breakfast.	I thought you left to go get brakfast.	128440569	1475488964709	1475488964789	f	70
252545	2704602	I thought you left to go get breakfast.	I thought you left to go get brakfast.	128440570	1475488964844	1475488964915	t	84
252545	2704602	I thought you left to go get breakfast.	I thought you left to go get brakfast.	128440571	1475488964932	1475488965027	 	32
252545	2704602	I thought you left to go get breakfast.	I thought you left to go get brakfast.	128440572	1475488965805	1475488965912	y	89
252545	2704602	I thought you left to go get breakfast.	I thought you left to go get brakfast.	128440605	1475488965996	1475488966067	o	79
252545	2704602	I thought you left to go get breakfast.	I thought you left to go get brakfast.	128440607	1475488966105	1475488966212	 	32
252545	2704602	I thought you left to go get breakfast.	I thought you left to go get brakfast.	128440609	1475488966742	1475488966834	g	71
252545	2704602	I thought you left to go get breakfast.	I thought you left to go get brakfast.	128440612	1475488967031	1475488967102	e	69
252545	2704602	I thought you left to go get breakfast.	I thought you left to go get brakfast.	128440614	1475488967164	1475488967239	t	84
252545	2704602	I thought you left to go get breakfast.	I thought you left to go get brakfast.	128440813	1475488967275	1475488967370	 	32
252545	2704602	I thought you left to go get breakfast.	I thought you left to go get brakfast.	128440814	1475488971287	1475488971374	ARW_LEFT	37
252545	2704602	I thought you left to go get breakfast.	I thought you left to go get brakfast.	128440815	1475488971663	1475488971739	BKSP	8
252545	2704602	I thought you left to go get breakfast.	I thought you left to go get brakfast.	128440817	1475488971790	1475488971861	t	84
252545	2704602	I thought you left to go get breakfast.	I thought you left to go get brakfast.	128440819	1475488972816	1475488972899	ARW_RIGHT	39
252545	2704602	I thought you left to go get breakfast.	I thought you left to go get brakfast.	128440821	1475488972991	1475488973090	 	32
252545	2704602	I thought you left to go get breakfast.	I thought you left to go get brakfast.	128440823	1475488973228	1475488973303	g	71
252545	2704602	I thought you left to go get breakfast.	I thought you left to go get brakfast.	128440825	1475488973395	1475488973446	i	73
252545	2704602	I thought you left to go get breakfast.	I thought you left to go get brakfast.	128440942	1475488973840	1475488973944	BKSP	8
252545	2704602	I thought you left to go get breakfast.	I thought you left to go get brakfast.	128440946	1475488974149	1475488974212	o	79
252545	2704602	I thought you left to go get breakfast.	I thought you left to go get brakfast.	128440953	1475488974399	1475488974442	 	32
252545	2704602	I thought you left to go get breakfast.	I thought you left to go get brakfast.	128440958	1475488975446	1475488975526	BKSP	8
252545	2704602	I thought you left to go get breakfast.	I thought you left to go get brakfast.	128440965	1475488977135	1475488977206	b	66
252545	2704602	I thought you left to go get breakfast.	I thought you left to go get brakfast.	128440971	1475488977311	1475488977394	r	82
252545	2704602	I thought you left to go get breakfast.	I thought you left to go get brakfast.	128440976	1475488977537	1475488977633	a	65
252545	2704602	I thought you left to go get breakfast.	I thought you left to go get brakfast.	128441049	1475488977815	1475488977883	k	75
252545	2704602	I thought you left to go get breakfast.	I thought you left to go get brakfast.	128441050	1475488978132	1475488978192	f	70
252545	2704602	I thought you left to go get breakfast.	I thought you left to go get brakfast.	128441053	1475488978884	1475488979011	a	65
252545	2704602	I thought you left to go get breakfast.	I thought you left to go get brakfast.	128441055	1475488979205	1475488979284	s	83
252545	2704602	I thought you left to go get breakfast.	I thought you left to go get brakfast.	128441058	1475488979454	1475488979526	t	84
252545	2704602	I thought you left to go get breakfast.	I thought you left to go get brakfast.	128441094	1475488980332	1475488980404	.	190
252545	2704631	New switches can also be added to the Paging System.	New switches can also be added to the paging system.	128441170	1475488981917	1475488982241	SHIFT	16
252545	2704631	New switches can also be added to the Paging System.	New switches can also be added to the paging system.	128441165	1475488982113	1475488982197	N	78
252545	2704631	New switches can also be added to the Paging System.	New switches can also be added to the paging system.	128441173	1475488982418	1475488982518	e	69
252545	2704631	New switches can also be added to the Paging System.	New switches can also be added to the paging system.	128441177	1475488982612	1475488982776	w	87
252545	2704631	New switches can also be added to the Paging System.	New switches can also be added to the paging system.	128441180	1475488982700	1475488982796	 	32
252545	2704631	New switches can also be added to the Paging System.	New switches can also be added to the paging system.	128441183	1475488983170	1475488983262	s	83
252545	2704631	New switches can also be added to the Paging System.	New switches can also be added to the paging system.	128441272	1475488983355	1475488983458	w	87
252545	2704631	New switches can also be added to the Paging System.	New switches can also be added to the paging system.	128441274	1475488983890	1475488983970	i	73
252545	2704631	New switches can also be added to the Paging System.	New switches can also be added to the paging system.	128441277	1475488985056	1475488985120	t	84
252545	2704631	New switches can also be added to the Paging System.	New switches can also be added to the paging system.	128441281	1475488985268	1475488985356	c	67
252545	2704631	New switches can also be added to the Paging System.	New switches can also be added to the paging system.	128441285	1475488985440	1475488985504	h	72
252545	2704631	New switches can also be added to the Paging System.	New switches can also be added to the paging system.	128441313	1475488985696	1475488985780	e	69
252545	2704631	New switches can also be added to the Paging System.	New switches can also be added to the paging system.	128441320	1475488985898	1475488986058	s	83
252545	2704631	New switches can also be added to the Paging System.	New switches can also be added to the paging system.	128441325	1475488985998	1475488986106	 	32
252545	2704631	New switches can also be added to the Paging System.	New switches can also be added to the paging system.	128441331	1475488986439	1475488986543	c	67
252545	2704631	New switches can also be added to the Paging System.	New switches can also be added to the paging system.	128441333	1475488986624	1475488986724	a	65
252545	2704631	New switches can also be added to the Paging System.	New switches can also be added to the paging system.	128441352	1475488986765	1475488986841	n	78
252545	2704631	New switches can also be added to the Paging System.	New switches can also be added to the paging system.	128441356	1475488986863	1475488986963	 	32
252545	2704631	New switches can also be added to the Paging System.	New switches can also be added to the paging system.	128441360	1475488987129	1475488987233	a	65
252545	2704631	New switches can also be added to the Paging System.	New switches can also be added to the paging system.	128441366	1475488987352	1475488987424	l	76
252545	2704631	New switches can also be added to the Paging System.	New switches can also be added to the paging system.	128441372	1475488987476	1475488987556	s	83
252545	2704631	New switches can also be added to the Paging System.	New switches can also be added to the paging system.	128441433	1475488987672	1475488987708	o	79
252545	2704631	New switches can also be added to the Paging System.	New switches can also be added to the paging system.	128441435	1475488987933	1475488988021	 	32
252545	2704631	New switches can also be added to the Paging System.	New switches can also be added to the paging system.	128441438	1475488988950	1475488989010	b	66
252545	2704631	New switches can also be added to the Paging System.	New switches can also be added to the paging system.	128441440	1475488989059	1475488989179	e	69
252545	2704631	New switches can also be added to the Paging System.	New switches can also be added to the paging system.	128441480	1475488989119	1475488989235	 	32
252545	2704631	New switches can also be added to the Paging System.	New switches can also be added to the paging system.	128441482	1475488989370	1475488989466	a	65
252545	2704631	New switches can also be added to the Paging System.	New switches can also be added to the paging system.	128441485	1475488989588	1475488989664	d	68
252545	2704631	New switches can also be added to the Paging System.	New switches can also be added to the paging system.	128441486	1475488989738	1475488989806	d	68
252545	2704631	New switches can also be added to the Paging System.	New switches can also be added to the paging system.	128441488	1475488989896	1475488989976	e	69
252545	2704631	New switches can also be added to the Paging System.	New switches can also be added to the paging system.	128441489	1475488990227	1475488990359	d	68
252545	2704631	New switches can also be added to the Paging System.	New switches can also be added to the paging system.	128441623	1475488990327	1475488990411	 	32
252545	2704631	New switches can also be added to the Paging System.	New switches can also be added to the paging system.	128441625	1475488990924	1475488991004	t	84
252545	2704631	New switches can also be added to the Paging System.	New switches can also be added to the paging system.	128441628	1475488991051	1475488991119	o	79
252545	2704631	New switches can also be added to the Paging System.	New switches can also be added to the paging system.	128441630	1475488991168	1475488991256	 	32
252545	2704631	New switches can also be added to the Paging System.	New switches can also be added to the paging system.	128441632	1475488992798	1475488992870	t	84
252545	2704631	New switches can also be added to the Paging System.	New switches can also be added to the paging system.	128441633	1475488992977	1475488993057	h	72
252545	2704631	New switches can also be added to the Paging System.	New switches can also be added to the paging system.	128441685	1475488993049	1475488993169	e	69
252545	2704631	New switches can also be added to the Paging System.	New switches can also be added to the paging system.	128441688	1475488993113	1475488993201	 	32
252545	2704631	New switches can also be added to the Paging System.	New switches can also be added to the paging system.	128441691	1475488994153	1475488994220	p	80
252545	2704631	New switches can also be added to the Paging System.	New switches can also be added to the paging system.	128441692	1475488994256	1475488994340	a	65
252545	2704631	New switches can also be added to the Paging System.	New switches can also be added to the paging system.	128441693	1475488994449	1475488994505	g	71
252545	2704631	New switches can also be added to the Paging System.	New switches can also be added to the paging system.	128441694	1475488994694	1475488994766	i	73
252545	2704631	New switches can also be added to the Paging System.	New switches can also be added to the paging system.	128441782	1475488994899	1475488994971	n	78
252545	2704631	New switches can also be added to the Paging System.	New switches can also be added to the paging system.	128441785	1475488995088	1475488995148	g	71
252545	2704631	New switches can also be added to the Paging System.	New switches can also be added to the paging system.	128441788	1475488995181	1475488995269	 	32
252545	2704631	New switches can also be added to the Paging System.	New switches can also be added to the paging system.	128441791	1475488996342	1475488996418	s	83
252545	2704631	New switches can also be added to the Paging System.	New switches can also be added to the paging system.	128441794	1475488997112	1475488997189	y	89
252545	2704631	New switches can also be added to the Paging System.	New switches can also be added to the paging system.	128441848	1475488997352	1475488997436	s	83
252545	2704631	New switches can also be added to the Paging System.	New switches can also be added to the paging system.	128441851	1475488997675	1475488997735	t	84
252545	2704631	New switches can also be added to the Paging System.	New switches can also be added to the paging system.	128441854	1475488997786	1475488997850	e	69
252545	2704631	New switches can also be added to the Paging System.	New switches can also be added to the paging system.	128441857	1475488997937	1475488998033	n	78
252545	2704631	New switches can also be added to the Paging System.	New switches can also be added to the paging system.	128441858	1475488998927	1475488999043	BKSP	8
252545	2704631	New switches can also be added to the Paging System.	New switches can also be added to the paging system.	128441859	1475488999176	1475488999240	m	77
252545	2704631	New switches can also be added to the Paging System.	New switches can also be added to the paging system.	128441870	1475488999499	1475488999555	.	190
252545	2704647	Your voice cheered me up.	Your voice cheered me up.	128441989	1475489001335	1475489001643	SHIFT	16
252545	2704647	Your voice cheered me up.	Your voice cheered me up.	128441988	1475489001528	1475489001595	Y	89
252545	2704647	Your voice cheered me up.	Your voice cheered me up.	128441990	1475489002445	1475489002528	o	79
252545	2704647	Your voice cheered me up.	Your voice cheered me up.	128441991	1475489002840	1475489002911	u	85
252545	2704647	Your voice cheered me up.	Your voice cheered me up.	128441992	1475489002991	1475489003106	r	82
252545	2704647	Your voice cheered me up.	Your voice cheered me up.	128442082	1475489003039	1475489003159	 	32
252545	2704647	Your voice cheered me up.	Your voice cheered me up.	128442084	1475489003722	1475489003809	v	86
252545	2704647	Your voice cheered me up.	Your voice cheered me up.	128442088	1475489003970	1475489004041	i	73
252545	2704647	Your voice cheered me up.	Your voice cheered me up.	128442091	1475489004500	1475489004613	BKSP	8
252545	2704647	Your voice cheered me up.	Your voice cheered me up.	128442093	1475489004780	1475489004851	o	79
252545	2704647	Your voice cheered me up.	Your voice cheered me up.	128442096	1475489005249	1475489005320	i	73
252545	2704647	Your voice cheered me up.	Your voice cheered me up.	128442098	1475489005353	1475489005433	c	67
252545	2704647	Your voice cheered me up.	Your voice cheered me up.	128442153	1475489005538	1475489005673	e	69
252545	2704647	Your voice cheered me up.	Your voice cheered me up.	128442155	1475489005630	1475489005729	 	32
252545	2704647	Your voice cheered me up.	Your voice cheered me up.	128442158	1475489006418	1475489006501	c	67
252545	2704647	Your voice cheered me up.	Your voice cheered me up.	128442161	1475489006647	1475489006718	h	72
252545	2704647	Your voice cheered me up.	Your voice cheered me up.	128442164	1475489007367	1475489007422	e	69
252545	2704647	Your voice cheered me up.	Your voice cheered me up.	128442191	1475489007663	1475489007774	e	69
252545	2704647	Your voice cheered me up.	Your voice cheered me up.	128442192	1475489007923	1475489007986	r	82
252545	2704647	Your voice cheered me up.	Your voice cheered me up.	128442193	1475489008130	1475489008201	e	69
252545	2704647	Your voice cheered me up.	Your voice cheered me up.	128442194	1475489008310	1475489008457	d	68
252545	2704647	Your voice cheered me up.	Your voice cheered me up.	128442240	1475489008406	1475489008509	 	32
252545	2704647	Your voice cheered me up.	Your voice cheered me up.	128442241	1475489008895	1475489008974	m	77
252545	2704647	Your voice cheered me up.	Your voice cheered me up.	128442243	1475489008991	1475489009138	e	69
252545	2704647	Your voice cheered me up.	Your voice cheered me up.	128442245	1475489009091	1475489009178	 	32
252545	2704647	Your voice cheered me up.	Your voice cheered me up.	128442247	1475489009552	1475489009619	u	85
252545	2704647	Your voice cheered me up.	Your voice cheered me up.	128442250	1475489009753	1475489009829	p	80
252545	2704647	Your voice cheered me up.	Your voice cheered me up.	128442255	1475489009994	1475489010065	.	190
252545	2704661	They are still burning.	They are still burning.	128442363	1475489012127	1475489012343	SHIFT	16
252545	2704661	They are still burning.	They are still burning.	128442361	1475489012280	1475489012339	T	84
252545	2704661	They are still burning.	They are still burning.	128442365	1475489012453	1475489012524	h	72
252545	2704661	They are still burning.	They are still burning.	128442368	1475489012652	1475489012743	e	69
252545	2704661	They are still burning.	They are still burning.	128442369	1475489012953	1475489013016	y	89
252545	2704661	They are still burning.	They are still burning.	128442370	1475489013060	1475489013147	 	32
252545	2704661	They are still burning.	They are still burning.	128442422	1475489013238	1475489013321	a	65
252545	2704661	They are still burning.	They are still burning.	128442424	1475489013557	1475489013628	t	84
252545	2704661	They are still burning.	They are still burning.	128442426	1475489013915	1475489014055	BKSP	8
252545	2704661	They are still burning.	They are still burning.	128442429	1475489014334	1475489014401	r	82
252545	2704661	They are still burning.	They are still burning.	128442432	1475489014503	1475489014607	e	69
252545	2704661	They are still burning.	They are still burning.	128442523	1475489014551	1475489014646	 	32
252545	2704661	They are still burning.	They are still burning.	128442524	1475489015399	1475489015482	s	83
252545	2704661	They are still burning.	They are still burning.	128442525	1475489016223	1475489016306	t	84
252545	2704661	They are still burning.	They are still burning.	128442526	1475489016538	1475489016589	i	73
252545	2704661	They are still burning.	They are still burning.	128442528	1475489016731	1475489016803	l	76
252545	2704661	They are still burning.	They are still burning.	128442533	1475489016833	1475489016900	l	76
252545	2704661	They are still burning.	They are still burning.	128442569	1475489017071	1475489017191	 	32
252545	2704661	They are still burning.	They are still burning.	128442572	1475489017378	1475489017449	b	66
252545	2704661	They are still burning.	They are still burning.	128442573	1475489017712	1475489017771	u	85
252545	2704661	They are still burning.	They are still burning.	128442574	1475489017862	1475489017957	r	82
252545	2704661	They are still burning.	They are still burning.	128442575	1475489018082	1475489018161	n	78
252545	2704661	They are still burning.	They are still burning.	128442629	1475489018227	1475489018314	i	73
252545	2704661	They are still burning.	They are still burning.	128442634	1475489018422	1475489018502	n	78
252545	2704661	They are still burning.	They are still burning.	128442637	1475489018612	1475489018663	g	71
252545	2704661	They are still burning.	They are still burning.	128442639	1475489019009	1475489019073	.	190
252545	2704668	Have you done any deals yet?	Have you done any deals yet?	128442727	1475489020333	1475489020553	SHIFT	16
252545	2704668	Have you done any deals yet?	Have you done any deals yet?	128442721	1475489020461	1475489020533	H	72
252545	2704668	Have you done any deals yet?	Have you done any deals yet?	128442737	1475489020900	1475489021000	a	65
252545	2704668	Have you done any deals yet?	Have you done any deals yet?	128442745	1475489021052	1475489021123	v	86
252545	2704668	Have you done any deals yet?	Have you done any deals yet?	128442751	1475489021314	1475489021478	e	69
252545	2704668	Have you done any deals yet?	Have you done any deals yet?	128442814	1475489021411	1475489021502	 	32
252545	2704668	Have you done any deals yet?	Have you done any deals yet?	128442817	1475489022086	1475489022158	y	89
252545	2704668	Have you done any deals yet?	Have you done any deals yet?	128442819	1475489022249	1475489022341	o	79
252545	2704668	Have you done any deals yet?	Have you done any deals yet?	128442822	1475489022562	1475489022654	 	32
252545	2704668	Have you done any deals yet?	Have you done any deals yet?	128442826	1475489022952	1475489023064	BKSP	8
252545	2704668	Have you done any deals yet?	Have you done any deals yet?	128442828	1475489023365	1475489023436	u	85
252545	2704668	Have you done any deals yet?	Have you done any deals yet?	128442831	1475489023479	1475489023563	 	32
252545	2704668	Have you done any deals yet?	Have you done any deals yet?	128442854	1475489023912	1475489023992	d	68
252545	2704668	Have you done any deals yet?	Have you done any deals yet?	128442855	1475489024041	1475489024105	o	79
252545	2704668	Have you done any deals yet?	Have you done any deals yet?	128442856	1475489024247	1475489024311	n	78
252545	2704668	Have you done any deals yet?	Have you done any deals yet?	128442857	1475489024330	1475489024430	e	69
252545	2704668	Have you done any deals yet?	Have you done any deals yet?	128442941	1475489024386	1475489024486	 	32
252545	2704668	Have you done any deals yet?	Have you done any deals yet?	128442944	1475489025498	1475489025601	a	65
252545	2704668	Have you done any deals yet?	Have you done any deals yet?	128442948	1475489025678	1475489025758	n	78
252545	2704668	Have you done any deals yet?	Have you done any deals yet?	128442950	1475489025912	1475489026036	y	89
252545	2704668	Have you done any deals yet?	Have you done any deals yet?	128442952	1475489025986	1475489026112	 	32
252545	2704668	Have you done any deals yet?	Have you done any deals yet?	128442954	1475489026596	1475489026696	s	83
252545	2704668	Have you done any deals yet?	Have you done any deals yet?	128442995	1475489026843	1475489026907	e	69
252545	2704668	Have you done any deals yet?	Have you done any deals yet?	128443000	1475489027527	1475489027623	BKSP	8
252545	2704668	Have you done any deals yet?	Have you done any deals yet?	128443003	1475489027673	1475489027753	BKSP	8
252545	2704668	Have you done any deals yet?	Have you done any deals yet?	128443006	1475489027812	1475489027884	d	68
252545	2704668	Have you done any deals yet?	Have you done any deals yet?	128443007	1475489027974	1475489028062	e	69
252545	2704668	Have you done any deals yet?	Have you done any deals yet?	128443008	1475489028125	1475489028225	a	65
252545	2704668	Have you done any deals yet?	Have you done any deals yet?	128443009	1475489028607	1475489028683	l	76
252545	2704668	Have you done any deals yet?	Have you done any deals yet?	128443037	1475489028718	1475489028838	s	83
252545	2704668	Have you done any deals yet?	Have you done any deals yet?	128443040	1475489028822	1475489028922	 	32
252545	2704668	Have you done any deals yet?	Have you done any deals yet?	128443044	1475489029783	1475489029859	y	89
252545	2704668	Have you done any deals yet?	Have you done any deals yet?	128443049	1475489029907	1475489030027	e	69
252545	2704668	Have you done any deals yet?	Have you done any deals yet?	128443052	1475489030369	1475489030473	t	84
252545	2704668	Have you done any deals yet?	Have you done any deals yet?	128443069	1475489030840	1475489031432	SHIFT	16
252545	2704677	Ruth, I'll send this spreadsheet as I update it.	Ruth, I'll send this spreedsheet as I update it.	128443195	1475489032981	1475489033825	SHIFT	16
252545	2704677	Ruth, I'll send this spreadsheet as I update it.	Ruth, I'll send this spreedsheet as I update it.	128443192	1475489033625	1475489033773	R	82
252545	2704677	Ruth, I'll send this spreadsheet as I update it.	Ruth, I'll send this spreedsheet as I update it.	128443197	1475489035682	1475489035773	u	85
252545	2704677	Ruth, I'll send this spreadsheet as I update it.	Ruth, I'll send this spreedsheet as I update it.	128443200	1475489035899	1475489035951	t	84
252545	2704677	Ruth, I'll send this spreadsheet as I update it.	Ruth, I'll send this spreedsheet as I update it.	128443202	1475489036040	1475489036100	h	72
252545	2704677	Ruth, I'll send this spreadsheet as I update it.	Ruth, I'll send this spreedsheet as I update it.	128443204	1475489036758	1475489036830	,	188
252545	2704677	Ruth, I'll send this spreadsheet as I update it.	Ruth, I'll send this spreedsheet as I update it.	128443249	1475489036893	1475489036973	 	32
252545	2704677	Ruth, I'll send this spreadsheet as I update it.	Ruth, I'll send this spreedsheet as I update it.	128443253	1475489037119	1475489037299	SHIFT	16
252545	2704677	Ruth, I'll send this spreadsheet as I update it.	Ruth, I'll send this spreedsheet as I update it.	128443251	1475489037183	1475489037231	I	73
252545	2704677	Ruth, I'll send this spreadsheet as I update it.	Ruth, I'll send this spreedsheet as I update it.	128443255	1475489037644	1475489037708	'	222
252545	2704677	Ruth, I'll send this spreadsheet as I update it.	Ruth, I'll send this spreedsheet as I update it.	128443257	1475489038489	1475489038553	l	76
252545	2704677	Ruth, I'll send this spreadsheet as I update it.	Ruth, I'll send this spreedsheet as I update it.	128443259	1475489038630	1475489038702	l	76
252545	2704677	Ruth, I'll send this spreadsheet as I update it.	Ruth, I'll send this spreedsheet as I update it.	128443282	1475489039122	1475489039214	 	32
252545	2704677	Ruth, I'll send this spreadsheet as I update it.	Ruth, I'll send this spreedsheet as I update it.	128443283	1475489039378	1475489039414	s	83
252545	2704677	Ruth, I'll send this spreadsheet as I update it.	Ruth, I'll send this spreedsheet as I update it.	128443284	1475489039675	1475489039751	e	69
252545	2704677	Ruth, I'll send this spreadsheet as I update it.	Ruth, I'll send this spreedsheet as I update it.	128443286	1475489039844	1475489039920	n	78
252545	2704677	Ruth, I'll send this spreadsheet as I update it.	Ruth, I'll send this spreedsheet as I update it.	128443288	1475489039976	1475489040100	d	68
252545	2704677	Ruth, I'll send this spreadsheet as I update it.	Ruth, I'll send this spreedsheet as I update it.	128443339	1475489040060	1475489040144	 	32
252545	2704677	Ruth, I'll send this spreadsheet as I update it.	Ruth, I'll send this spreedsheet as I update it.	128443346	1475489040550	1475489040630	t	84
252545	2704677	Ruth, I'll send this spreadsheet as I update it.	Ruth, I'll send this spreedsheet as I update it.	128443351	1475489040708	1475489040776	h	72
252545	2704677	Ruth, I'll send this spreadsheet as I update it.	Ruth, I'll send this spreedsheet as I update it.	128443355	1475489040911	1475489040999	i	73
252545	2704677	Ruth, I'll send this spreadsheet as I update it.	Ruth, I'll send this spreedsheet as I update it.	128443360	1475489041029	1475489041165	s	83
252545	2704677	Ruth, I'll send this spreadsheet as I update it.	Ruth, I'll send this spreedsheet as I update it.	128443402	1475489041109	1475489041205	 	32
252545	2704677	Ruth, I'll send this spreadsheet as I update it.	Ruth, I'll send this spreedsheet as I update it.	128443407	1475489041956	1475489042032	s	83
252545	2704677	Ruth, I'll send this spreadsheet as I update it.	Ruth, I'll send this spreedsheet as I update it.	128443410	1475489042104	1475489042172	p	80
252545	2704677	Ruth, I'll send this spreadsheet as I update it.	Ruth, I'll send this spreedsheet as I update it.	128443412	1475489042255	1475489042319	r	82
252545	2704677	Ruth, I'll send this spreadsheet as I update it.	Ruth, I'll send this spreedsheet as I update it.	128443416	1475489042492	1475489042568	e	69
252545	2704677	Ruth, I'll send this spreadsheet as I update it.	Ruth, I'll send this spreedsheet as I update it.	128443424	1475489042647	1475489042715	e	69
252545	2704677	Ruth, I'll send this spreadsheet as I update it.	Ruth, I'll send this spreedsheet as I update it.	128443467	1475489042830	1475489042910	d	68
252545	2704677	Ruth, I'll send this spreadsheet as I update it.	Ruth, I'll send this spreedsheet as I update it.	128443470	1475489043381	1475489043449	s	83
252545	2704677	Ruth, I'll send this spreadsheet as I update it.	Ruth, I'll send this spreedsheet as I update it.	128443474	1475489043945	1475489044013	h	72
252545	2704677	Ruth, I'll send this spreadsheet as I update it.	Ruth, I'll send this spreedsheet as I update it.	128443478	1475489044202	1475489044270	e	69
252545	2704677	Ruth, I'll send this spreadsheet as I update it.	Ruth, I'll send this spreedsheet as I update it.	128443483	1475489044360	1475489044444	e	69
252545	2704677	Ruth, I'll send this spreadsheet as I update it.	Ruth, I'll send this spreedsheet as I update it.	128443513	1475489044553	1475489044658	t	84
252545	2704677	Ruth, I'll send this spreadsheet as I update it.	Ruth, I'll send this spreedsheet as I update it.	128443516	1475489044621	1475489044705	 	32
252545	2704677	Ruth, I'll send this spreadsheet as I update it.	Ruth, I'll send this spreedsheet as I update it.	128443517	1475489045207	1475489045287	a	65
252545	2704677	Ruth, I'll send this spreadsheet as I update it.	Ruth, I'll send this spreedsheet as I update it.	128443518	1475489045392	1475489045520	s	83
252545	2704677	Ruth, I'll send this spreadsheet as I update it.	Ruth, I'll send this spreedsheet as I update it.	128443520	1475489045759	1475489045849	 	32
252545	2704677	Ruth, I'll send this spreadsheet as I update it.	Ruth, I'll send this spreedsheet as I update it.	128443581	1475489046275	1475489046432	SHIFT	16
252545	2704677	Ruth, I'll send this spreadsheet as I update it.	Ruth, I'll send this spreedsheet as I update it.	128443582	1475489046364	1475489046432	I	73
252545	2704677	Ruth, I'll send this spreadsheet as I update it.	Ruth, I'll send this spreedsheet as I update it.	128443583	1475489046581	1475489046676	 	32
252545	2704677	Ruth, I'll send this spreadsheet as I update it.	Ruth, I'll send this spreedsheet as I update it.	128443584	1475489047053	1475489047116	u	85
252545	2704677	Ruth, I'll send this spreadsheet as I update it.	Ruth, I'll send this spreedsheet as I update it.	128443585	1475489047391	1475489047482	p	80
252545	2704677	Ruth, I'll send this spreadsheet as I update it.	Ruth, I'll send this spreedsheet as I update it.	128443586	1475489048063	1475489048142	d	68
252545	2704677	Ruth, I'll send this spreadsheet as I update it.	Ruth, I'll send this spreedsheet as I update it.	128443629	1475489048262	1475489048337	a	65
252545	2704677	Ruth, I'll send this spreadsheet as I update it.	Ruth, I'll send this spreedsheet as I update it.	128443631	1475489048416	1475489048487	t	84
252545	2704677	Ruth, I'll send this spreadsheet as I update it.	Ruth, I'll send this spreedsheet as I update it.	128443633	1475489048605	1475489048712	e	69
252545	2704677	Ruth, I'll send this spreadsheet as I update it.	Ruth, I'll send this spreedsheet as I update it.	128443636	1475489048911	1475489048986	 	32
252545	2704677	Ruth, I'll send this spreadsheet as I update it.	Ruth, I'll send this spreedsheet as I update it.	128443640	1475489049689	1475489049752	i	73
252545	2704677	Ruth, I'll send this spreadsheet as I update it.	Ruth, I'll send this spreedsheet as I update it.	128443658	1475489049826	1475489049909	t	84
252545	2704677	Ruth, I'll send this spreadsheet as I update it.	Ruth, I'll send this spreedsheet as I update it.	128443661	1475489050166	1475489050253	.	190
252545	2704689	I am fine with this.	I am fine with this.	128443735	1475489051431	1475489051871	SHIFT	16
252545	2704689	I am fine with this.	I am fine with this.	128443733	1475489051752	1475489051819	I	73
252545	2704689	I am fine with this.	I am fine with this.	128443738	1475489052176	1475489052271	 	32
252545	2704689	I am fine with this.	I am fine with this.	128443742	1475489052549	1475489052636	a	65
252545	2704689	I am fine with this.	I am fine with this.	128443745	1475489052665	1475489052732	m	77
252545	2704689	I am fine with this.	I am fine with this.	128443748	1475489052788	1475489052903	 	32
252545	2704689	I am fine with this.	I am fine with this.	128443767	1475489053274	1475489053325	f	70
252545	2704689	I am fine with this.	I am fine with this.	128443768	1475489053438	1475489053501	i	73
252545	2704689	I am fine with this.	I am fine with this.	128443769	1475489053848	1475489053923	n	78
252545	2704689	I am fine with this.	I am fine with this.	128443770	1475489053990	1475489054113	e	69
252545	2704689	I am fine with this.	I am fine with this.	128443798	1475489054050	1475489054150	 	32
252545	2704689	I am fine with this.	I am fine with this.	128443799	1475489054556	1475489054627	w	87
252545	2704689	I am fine with this.	I am fine with this.	128443800	1475489054688	1475489054767	i	73
252545	2704689	I am fine with this.	I am fine with this.	128443801	1475489054916	1475489054979	t	84
252545	2704689	I am fine with this.	I am fine with this.	128443802	1475489055077	1475489055152	h	72
252545	2704689	I am fine with this.	I am fine with this.	128443804	1475489055194	1475489055273	 	32
252545	2704689	I am fine with this.	I am fine with this.	128443855	1475489055772	1475489055878	t	84
252545	2704689	I am fine with this.	I am fine with this.	128443856	1475489056003	1475489056090	h	72
252545	2704689	I am fine with this.	I am fine with this.	128443857	1475489056178	1475489056249	i	73
252545	2704689	I am fine with this.	I am fine with this.	128443858	1475489056258	1475489056357	s	83
252545	2704689	I am fine with this.	I am fine with this.	128443859	1475489056829	1475489056888	.	190
252545	2704693	What number should he call you on?	What number should he call you on?	128443971	1475489059859	1475489060463	SHIFT	16
252545	2704693	What number should he call you on?	What number should he call you on?	128443968	1475489060372	1475489060439	W	87
252545	2704693	What number should he call you on?	What number should he call you on?	128443973	1475489060718	1475489060801	h	72
252545	2704693	What number should he call you on?	What number should he call you on?	128443975	1475489060847	1475489060930	a	65
252545	2704693	What number should he call you on?	What number should he call you on?	128443976	1475489060999	1475489061058	t	84
252545	2704693	What number should he call you on?	What number should he call you on?	128443977	1475489061087	1475489061183	 	32
252545	2704693	What number should he call you on?	What number should he call you on?	128444018	1475489061535	1475489061590	n	78
252545	2704693	What number should he call you on?	What number should he call you on?	128444021	1475489061836	1475489061899	u	85
252545	2704693	What number should he call you on?	What number should he call you on?	128444026	1475489062077	1475489062160	m	77
252545	2704693	What number should he call you on?	What number should he call you on?	128444032	1475489062827	1475489062895	b	66
252545	2704693	What number should he call you on?	What number should he call you on?	128444038	1475489062951	1475489063039	e	69
252545	2704693	What number should he call you on?	What number should he call you on?	128444087	1475489063113	1475489063225	r	82
252545	2704693	What number should he call you on?	What number should he call you on?	128444089	1475489063169	1475489063273	 	32
252545	2704693	What number should he call you on?	What number should he call you on?	128444093	1475489064261	1475489064348	s	83
252545	2704693	What number should he call you on?	What number should he call you on?	128444099	1475489064479	1475489064539	h	72
252545	2704693	What number should he call you on?	What number should he call you on?	128444102	1475489064862	1475489064945	o	79
252545	2704693	What number should he call you on?	What number should he call you on?	128444135	1475489065071	1475489065134	u	85
252545	2704693	What number should he call you on?	What number should he call you on?	128444136	1475489065499	1475489065563	l	76
252545	2704693	What number should he call you on?	What number should he call you on?	128444137	1475489065622	1475489065746	d	68
252545	2704693	What number should he call you on?	What number should he call you on?	128444138	1475489065702	1475489065802	 	32
252545	2704693	What number should he call you on?	What number should he call you on?	128444139	1475489066282	1475489066353	h	72
252545	2704693	What number should he call you on?	What number should he call you on?	128444176	1475489066389	1475489066489	e	69
252545	2704693	What number should he call you on?	What number should he call you on?	128444178	1475489066434	1475489066529	 	32
252545	2704693	What number should he call you on?	What number should he call you on?	128444180	1475489067069	1475489067157	c	67
252545	2704693	What number should he call you on?	What number should he call you on?	128444182	1475489067246	1475489067358	a	65
252545	2704693	What number should he call you on?	What number should he call you on?	128444184	1475489067608	1475489067628	l	76
252545	2704693	What number should he call you on?	What number should he call you on?	128444222	1475489067739	1475489067803	l	76
252545	2704693	What number should he call you on?	What number should he call you on?	128444225	1475489067904	1475489067980	 	32
252545	2704693	What number should he call you on?	What number should he call you on?	128444228	1475489068291	1475489068371	y	89
252545	2704693	What number should he call you on?	What number should he call you on?	128444230	1475489068446	1475489068522	o	79
252545	2704693	What number should he call you on?	What number should he call you on?	128444232	1475489068648	1475489068721	u	85
252545	2704693	What number should he call you on?	What number should he call you on?	128444280	1475489068759	1475489068851	 	32
252545	2704693	What number should he call you on?	What number should he call you on?	128444281	1475489069243	1475489069307	o	79
252545	2704693	What number should he call you on?	What number should he call you on?	128444283	1475489069547	1475489069587	n	78
252545	2704693	What number should he call you on?	What number should he call you on?	128444285	1475489069677	1475489069957	SHIFT	16
252545	2704693	What number should he call you on?	What number should he call you on?	128444294	1475489070243	1475489070631	SHIFT	16
252545	2704705	John this message concerns me.	John this message concerns me.	128444388	1475489071919	1475489072463	SHIFT	16
252545	2704705	John this message concerns me.	John this message concerns me.	128444387	1475489072323	1475489072407	J	74
252545	2704705	John this message concerns me.	John this message concerns me.	128444390	1475489072951	1475489073019	o	79
252545	2704705	John this message concerns me.	John this message concerns me.	128444392	1475489073101	1475489073137	h	72
252545	2704705	John this message concerns me.	John this message concerns me.	128444394	1475489073878	1475489073970	n	78
252545	2704705	John this message concerns me.	John this message concerns me.	128444396	1475489074469	1475489074545	 	32
252545	2704705	John this message concerns me.	John this message concerns me.	128444418	1475489074843	1475489074911	t	84
252545	2704705	John this message concerns me.	John this message concerns me.	128444420	1475489074976	1475489075032	h	72
252545	2704705	John this message concerns me.	John this message concerns me.	128444423	1475489075213	1475489075329	i	73
252545	2704705	John this message concerns me.	John this message concerns me.	128444426	1475489075366	1475489075490	s	83
252545	2704705	John this message concerns me.	John this message concerns me.	128444446	1475489075450	1475489075546	 	32
252545	2704705	John this message concerns me.	John this message concerns me.	128444448	1475489075806	1475489075886	m	77
252545	2704705	John this message concerns me.	John this message concerns me.	128444450	1475489076000	1475489076096	e	69
252545	2704705	John this message concerns me.	John this message concerns me.	128444452	1475489076297	1475489076388	s	83
252545	2704705	John this message concerns me.	John this message concerns me.	128444455	1475489076455	1475489076559	s	83
252545	2704705	John this message concerns me.	John this message concerns me.	128444463	1475489076611	1475489076723	a	65
252545	2704705	John this message concerns me.	John this message concerns me.	128444515	1475489076947	1475489077027	g	71
252545	2704705	John this message concerns me.	John this message concerns me.	128444516	1475489077075	1475489077203	e	69
252545	2704705	John this message concerns me.	John this message concerns me.	128444517	1475489077131	1475489077235	 	32
252545	2704705	John this message concerns me.	John this message concerns me.	128444518	1475489077937	1475489078013	c	67
252545	2704705	John this message concerns me.	John this message concerns me.	128444519	1475489078089	1475489078153	o	79
252545	2704705	John this message concerns me.	John this message concerns me.	128444581	1475489078297	1475489078361	n	78
252545	2704705	John this message concerns me.	John this message concerns me.	128444584	1475489078515	1475489078599	c	67
252545	2704705	John this message concerns me.	John this message concerns me.	128444587	1475489078714	1475489078786	e	69
252545	2704705	John this message concerns me.	John this message concerns me.	128444590	1475489079177	1475489079252	r	82
252545	2704705	John this message concerns me.	John this message concerns me.	128444593	1475489079555	1475489079644	n	78
252545	2704705	John this message concerns me.	John this message concerns me.	128444616	1475489079750	1475489079858	s	83
252545	2704705	John this message concerns me.	John this message concerns me.	128444618	1475489079932	1475489080024	 	32
252545	2704705	John this message concerns me.	John this message concerns me.	128444619	1475489080540	1475489080630	m	77
252545	2704705	John this message concerns me.	John this message concerns me.	128444621	1475489080628	1475489080700	e	69
252545	2704705	John this message concerns me.	John this message concerns me.	128444623	1475489081094	1475489081142	.	190
252545	2704709	Kim, here's the PSCO website address.	Kim, here's the PSCO website adress.	128444698	1475489082480	1475489082776	SHIFT	16
252545	2704709	Kim, here's the PSCO website address.	Kim, here's the PSCO website adress.	128444697	1475489082688	1475489082744	K	75
252545	2704709	Kim, here's the PSCO website address.	Kim, here's the PSCO website adress.	128444699	1475489083011	1475489083079	i	73
252545	2704709	Kim, here's the PSCO website address.	Kim, here's the PSCO website adress.	128444700	1475489083392	1475489083456	m	77
252545	2704709	Kim, here's the PSCO website address.	Kim, here's the PSCO website adress.	128444701	1475489084182	1475489084250	,	188
252545	2704709	Kim, here's the PSCO website address.	Kim, here's the PSCO website adress.	128444702	1475489084310	1475489084414	 	32
252545	2704709	Kim, here's the PSCO website address.	Kim, here's the PSCO website adress.	128444740	1475489084718	1475489084794	h	72
252545	2704709	Kim, here's the PSCO website address.	Kim, here's the PSCO website adress.	128444743	1475489084851	1475489084918	e	69
252545	2704709	Kim, here's the PSCO website address.	Kim, here's the PSCO website adress.	128444746	1475489085151	1475489085235	r	82
252545	2704709	Kim, here's the PSCO website address.	Kim, here's the PSCO website adress.	128444748	1475489085485	1475489085569	e	69
252545	2704709	Kim, here's the PSCO website address.	Kim, here's the PSCO website adress.	128444751	1475489086384	1475489086447	'	222
252545	2704709	Kim, here's the PSCO website address.	Kim, here's the PSCO website adress.	128444760	1475489086528	1475489086608	s	83
252545	2704709	Kim, here's the PSCO website address.	Kim, here's the PSCO website adress.	128444762	1475489086783	1475489086882	 	32
252545	2704709	Kim, here's the PSCO website address.	Kim, here's the PSCO website adress.	128444764	1475489087266	1475489087345	t	84
252545	2704709	Kim, here's the PSCO website address.	Kim, here's the PSCO website adress.	128444766	1475489087462	1475489087534	h	72
252545	2704709	Kim, here's the PSCO website address.	Kim, here's the PSCO website adress.	128444768	1475489087570	1475489087693	e	69
252545	2704709	Kim, here's the PSCO website address.	Kim, here's the PSCO website adress.	128444818	1475489087618	1475489087709	 	32
252545	2704709	Kim, here's the PSCO website address.	Kim, here's the PSCO website adress.	128444833	1475489087992	1475489089415	SHIFT	16
252545	2704709	Kim, here's the PSCO website address.	Kim, here's the PSCO website adress.	128444822	1475489088225	1475489088300	P	80
252545	2704709	Kim, here's the PSCO website address.	Kim, here's the PSCO website adress.	128444824	1475489088373	1475489088484	S	83
252545	2704709	Kim, here's the PSCO website address.	Kim, here's the PSCO website adress.	128444829	1475489088893	1475489089048	C	67
252545	2704709	Kim, here's the PSCO website address.	Kim, here's the PSCO website adress.	128444837	1475489089381	1475489089445	O	79
252545	2704709	Kim, here's the PSCO website address.	Kim, here's the PSCO website adress.	128444841	1475489089836	1475489089943	 	32
252545	2704709	Kim, here's the PSCO website address.	Kim, here's the PSCO website adress.	128444886	1475489090618	1475489090713	w	87
252545	2704709	Kim, here's the PSCO website address.	Kim, here's the PSCO website adress.	128444887	1475489090826	1475489090905	e	69
252545	2704709	Kim, here's the PSCO website address.	Kim, here's the PSCO website adress.	128444889	1475489091148	1475489091223	b	66
252545	2704709	Kim, here's the PSCO website address.	Kim, here's the PSCO website adress.	128444891	1475489091304	1475489091395	s	83
252545	2704709	Kim, here's the PSCO website address.	Kim, here's the PSCO website adress.	128444893	1475489091509	1475489091596	i	73
252545	2704709	Kim, here's the PSCO website address.	Kim, here's the PSCO website adress.	128444941	1475489091750	1475489091809	t	84
252545	2704709	Kim, here's the PSCO website address.	Kim, here's the PSCO website adress.	128444944	1475489091833	1475489091980	e	69
252545	2704709	Kim, here's the PSCO website address.	Kim, here's the PSCO website adress.	128444946	1475489091905	1475489092012	 	32
252545	2704709	Kim, here's the PSCO website address.	Kim, here's the PSCO website adress.	128444949	1475489092395	1475489092502	a	65
252545	2704709	Kim, here's the PSCO website address.	Kim, here's the PSCO website adress.	128444952	1475489092619	1475489092710	d	68
252545	2704709	Kim, here's the PSCO website address.	Kim, here's the PSCO website adress.	128444977	1475489092949	1475489093040	r	82
252545	2704709	Kim, here's the PSCO website address.	Kim, here's the PSCO website adress.	128444978	1475489093146	1475489093217	e	69
252545	2704709	Kim, here's the PSCO website address.	Kim, here's the PSCO website adress.	128444980	1475489093348	1475489093419	s	83
252545	2704709	Kim, here's the PSCO website address.	Kim, here's the PSCO website adress.	128444983	1475489093512	1475489093579	s	83
252545	2704709	Kim, here's the PSCO website address.	Kim, here's the PSCO website adress.	128444986	1475489093686	1475489093745	.	190
252545	2704716	But he couldn't keep it up, coming home in 38.	Bet he could't keep it up, coming home in 38.	128445087	1475489095081	1475489096009	SHIFT	16
252545	2704716	But he couldn't keep it up, coming home in 38.	Bet he could't keep it up, coming home in 38.	128445089	1475489095930	1475489096013	B	66
252545	2704716	But he couldn't keep it up, coming home in 38.	Bet he could't keep it up, coming home in 38.	128445090	1475489096150	1475489096209	e	69
252545	2704716	But he couldn't keep it up, coming home in 38.	Bet he could't keep it up, coming home in 38.	128445091	1475489096310	1475489096377	t	84
252545	2704716	But he couldn't keep it up, coming home in 38.	Bet he could't keep it up, coming home in 38.	128445092	1475489096403	1475489096494	 	32
252545	2704716	But he couldn't keep it up, coming home in 38.	Bet he could't keep it up, coming home in 38.	128445094	1475489096962	1475489097033	h	72
252545	2704716	But he couldn't keep it up, coming home in 38.	Bet he could't keep it up, coming home in 38.	128445123	1475489097099	1475489097210	e	69
252545	2704716	But he couldn't keep it up, coming home in 38.	Bet he could't keep it up, coming home in 38.	128445125	1475489097139	1475489097238	 	32
252545	2704716	But he couldn't keep it up, coming home in 38.	Bet he could't keep it up, coming home in 38.	128445127	1475489097651	1475489097734	c	67
252545	2704716	But he couldn't keep it up, coming home in 38.	Bet he could't keep it up, coming home in 38.	128445128	1475489097859	1475489097966	o	79
252545	2704716	But he couldn't keep it up, coming home in 38.	Bet he could't keep it up, coming home in 38.	128445129	1475489098104	1475489098147	u	85
252545	2704716	But he couldn't keep it up, coming home in 38.	Bet he could't keep it up, coming home in 38.	128445143	1475489098327	1475489098406	l	76
252545	2704716	But he couldn't keep it up, coming home in 38.	Bet he could't keep it up, coming home in 38.	128445147	1475489098447	1475489098534	d	68
252545	2704716	But he couldn't keep it up, coming home in 38.	Bet he could't keep it up, coming home in 38.	128445150	1475489099208	1475489099279	'	222
252545	2704716	But he couldn't keep it up, coming home in 38.	Bet he could't keep it up, coming home in 38.	128445153	1475489099553	1475489099660	t	84
252545	2704716	But he couldn't keep it up, coming home in 38.	Bet he could't keep it up, coming home in 38.	128445197	1475489099609	1475489099700	 	32
252545	2704716	But he couldn't keep it up, coming home in 38.	Bet he could't keep it up, coming home in 38.	128445198	1475489100477	1475489100560	k	75
252545	2704716	But he couldn't keep it up, coming home in 38.	Bet he could't keep it up, coming home in 38.	128445199	1475489100587	1475489100667	e	69
252545	2704716	But he couldn't keep it up, coming home in 38.	Bet he could't keep it up, coming home in 38.	128445200	1475489101107	1475489101182	e	69
252545	2704716	But he couldn't keep it up, coming home in 38.	Bet he could't keep it up, coming home in 38.	128445202	1475489101282	1475489101373	p	80
252545	2704716	But he couldn't keep it up, coming home in 38.	Bet he could't keep it up, coming home in 38.	128445203	1475489101429	1475489101516	 	32
252545	2704716	But he couldn't keep it up, coming home in 38.	Bet he could't keep it up, coming home in 38.	128445223	1475489102017	1475489102084	i	73
252545	2704716	But he couldn't keep it up, coming home in 38.	Bet he could't keep it up, coming home in 38.	128445225	1475489102164	1475489102283	t	84
252545	2704716	But he couldn't keep it up, coming home in 38.	Bet he could't keep it up, coming home in 38.	128445228	1475489102224	1475489102327	 	32
252545	2704716	But he couldn't keep it up, coming home in 38.	Bet he could't keep it up, coming home in 38.	128445230	1475489102535	1475489102582	u	85
252545	2704716	But he couldn't keep it up, coming home in 38.	Bet he could't keep it up, coming home in 38.	128445231	1475489102824	1475489102895	p	80
252545	2704716	But he couldn't keep it up, coming home in 38.	Bet he could't keep it up, coming home in 38.	128445291	1475489103663	1475489103726	,	188
252545	2704716	But he couldn't keep it up, coming home in 38.	Bet he could't keep it up, coming home in 38.	128445294	1475489103743	1475489103854	 	32
252545	2704716	But he couldn't keep it up, coming home in 38.	Bet he could't keep it up, coming home in 38.	128445297	1475489104110	1475489104182	c	67
252545	2704716	But he couldn't keep it up, coming home in 38.	Bet he could't keep it up, coming home in 38.	128445300	1475489104285	1475489104356	o	79
252545	2704716	But he couldn't keep it up, coming home in 38.	Bet he could't keep it up, coming home in 38.	128445303	1475489105156	1475489105232	m	77
252545	2704716	But he couldn't keep it up, coming home in 38.	Bet he could't keep it up, coming home in 38.	128445335	1475489105344	1475489105404	i	73
252545	2704716	But he couldn't keep it up, coming home in 38.	Bet he could't keep it up, coming home in 38.	128445337	1475489105513	1475489105585	n	78
252545	2704716	But he couldn't keep it up, coming home in 38.	Bet he could't keep it up, coming home in 38.	128445339	1475489105718	1475489105777	g	71
252545	2704716	But he couldn't keep it up, coming home in 38.	Bet he could't keep it up, coming home in 38.	128445341	1475489105963	1475489106067	 	32
252545	2704716	But he couldn't keep it up, coming home in 38.	Bet he could't keep it up, coming home in 38.	128445343	1475489106711	1475489106790	h	72
252545	2704716	But he couldn't keep it up, coming home in 38.	Bet he could't keep it up, coming home in 38.	128445362	1475489106877	1475489106948	o	79
252545	2704716	But he couldn't keep it up, coming home in 38.	Bet he could't keep it up, coming home in 38.	128445365	1475489107055	1475489107131	m	77
252545	2704716	But he couldn't keep it up, coming home in 38.	Bet he could't keep it up, coming home in 38.	128445368	1475489107147	1475489107247	e	69
252545	2704716	But he couldn't keep it up, coming home in 38.	Bet he could't keep it up, coming home in 38.	128445369	1475489107200	1475489107295	 	32
252545	2704716	But he couldn't keep it up, coming home in 38.	Bet he could't keep it up, coming home in 38.	128445371	1475489107686	1475489107758	i	73
252545	2704716	But he couldn't keep it up, coming home in 38.	Bet he could't keep it up, coming home in 38.	128445406	1475489107872	1475489107940	n	78
252545	2704716	But he couldn't keep it up, coming home in 38.	Bet he could't keep it up, coming home in 38.	128445409	1475489107990	1475489108078	 	32
252545	2704716	But he couldn't keep it up, coming home in 38.	Bet he could't keep it up, coming home in 38.	128445412	1475489109166	1475489109234	3	51
252545	2704716	But he couldn't keep it up, coming home in 38.	Bet he could't keep it up, coming home in 38.	128445415	1475489109298	1475489109358	8	56
252545	2704716	But he couldn't keep it up, coming home in 38.	Bet he could't keep it up, coming home in 38.	128445417	1475489109604	1475489109672	.	190
252545	2704730	It's going to be a tough weekend.	It's going to be a tough weekend.	128445505	1475489110799	1475489111231	SHIFT	16
252545	2704730	It's going to be a tough weekend.	It's going to be a tough weekend.	128445503	1475489111155	1475489111215	I	73
252545	2704730	It's going to be a tough weekend.	It's going to be a tough weekend.	128445506	1475489111540	1475489111648	t	84
252545	2704730	It's going to be a tough weekend.	It's going to be a tough weekend.	128445507	1475489111729	1475489111825		222
252545	2704730	It's going to be a tough weekend.	It's going to be a tough weekend.	128445508	1475489112143	1475489112239	BKSP	8
252545	2704730	It's going to be a tough weekend.	It's going to be a tough weekend.	128445509	1475489112356	1475489112420	'	222
252545	2704730	It's going to be a tough weekend.	It's going to be a tough weekend.	128445510	1475489113345	1475489113501	s	83
252545	2704730	It's going to be a tough weekend.	It's going to be a tough weekend.	128445536	1475489113449	1475489113565	 	32
252545	2704730	It's going to be a tough weekend.	It's going to be a tough weekend.	128445538	1475489113970	1475489114054	g	71
252545	2704730	It's going to be a tough weekend.	It's going to be a tough weekend.	128445540	1475489114141	1475489114221	o	79
252545	2704730	It's going to be a tough weekend.	It's going to be a tough weekend.	128445542	1475489114327	1475489114391	i	73
252545	2704730	It's going to be a tough weekend.	It's going to be a tough weekend.	128445545	1475489114552	1475489114628	n	78
252545	2704730	It's going to be a tough weekend.	It's going to be a tough weekend.	128445548	1475489114736	1475489114808	g	71
252545	2704730	It's going to be a tough weekend.	It's going to be a tough weekend.	128445586	1475489114862	1475489114962	 	32
252545	2704730	It's going to be a tough weekend.	It's going to be a tough weekend.	128445590	1475489115402	1475489115490	t	84
252545	2704730	It's going to be a tough weekend.	It's going to be a tough weekend.	128445593	1475489115572	1475489115640	o	79
252545	2704730	It's going to be a tough weekend.	It's going to be a tough weekend.	128445594	1475489115656	1475489115736	 	32
252545	2704730	It's going to be a tough weekend.	It's going to be a tough weekend.	128445596	1475489116316	1475489116384	b	66
252545	2704730	It's going to be a tough weekend.	It's going to be a tough weekend.	128445625	1475489116418	1475489116542	e	69
252545	2704730	It's going to be a tough weekend.	It's going to be a tough weekend.	128445628	1475489116478	1475489116578	 	32
252545	2704730	It's going to be a tough weekend.	It's going to be a tough weekend.	128445631	1475489117388	1475489117551	a	65
252545	2704730	It's going to be a tough weekend.	It's going to be a tough weekend.	128445635	1475489117508	1475489117603	 	32
252545	2704730	It's going to be a tough weekend.	It's going to be a tough weekend.	128445637	1475489118099	1475489118163	t	84
252545	2704730	It's going to be a tough weekend.	It's going to be a tough weekend.	128445712	1475489118315	1475489118395	o	79
252545	2704730	It's going to be a tough weekend.	It's going to be a tough weekend.	128445713	1475489119424	1475489119508	u	85
252545	2704730	It's going to be a tough weekend.	It's going to be a tough weekend.	128445714	1475489120478	1475489120534	g	71
252545	2704730	It's going to be a tough weekend.	It's going to be a tough weekend.	128445715	1475489120579	1475489120647	h	72
252545	2704730	It's going to be a tough weekend.	It's going to be a tough weekend.	128445716	1475489120670	1475489120778	 	32
252545	2704730	It's going to be a tough weekend.	It's going to be a tough weekend.	128445760	1475489121453	1475489121541	w	87
252545	2704730	It's going to be a tough weekend.	It's going to be a tough weekend.	128445762	1475489121640	1475489121704	e	69
252545	2704730	It's going to be a tough weekend.	It's going to be a tough weekend.	128445764	1475489121795	1475489121855	e	69
252545	2704730	It's going to be a tough weekend.	It's going to be a tough weekend.	128445766	1475489122311	1475489122391	k	75
252545	2704730	It's going to be a tough weekend.	It's going to be a tough weekend.	128445769	1475489122418	1475489122494	e	69
252545	2704730	It's going to be a tough weekend.	It's going to be a tough weekend.	128445790	1475489122538	1475489122606	n	78
252545	2704730	It's going to be a tough weekend.	It's going to be a tough weekend.	128445791	1475489122887	1475489122967	d	68
252545	2704730	It's going to be a tough weekend.	It's going to be a tough weekend.	128445792	1475489123210	1475489123258	.	190
252545	2704737	We're not a lock for the pole.	We're not a lock for the pole	128445854	1475489124474	1475489124829	SHIFT	16
252545	2704737	We're not a lock for the pole.	We're not a lock for the pole	128445857	1475489124730	1475489124850	W	87
252545	2704737	We're not a lock for the pole.	We're not a lock for the pole	128445860	1475489124941	1475489125029	e	69
252545	2704737	We're not a lock for the pole.	We're not a lock for the pole	128445862	1475489125700	1475489125772	'	222
252545	2704737	We're not a lock for the pole.	We're not a lock for the pole	128445863	1475489126017	1475489126085	r	82
252545	2704737	We're not a lock for the pole.	We're not a lock for the pole	128445864	1475489126179	1475489126307	e	69
252545	2704737	We're not a lock for the pole.	We're not a lock for the pole	128445925	1475489126251	1475489126355	 	32
252545	2704737	We're not a lock for the pole.	We're not a lock for the pole	128445926	1475489127358	1475489127418	o	79
252545	2704737	We're not a lock for the pole.	We're not a lock for the pole	128445927	1475489127501	1475489127607	t	84
252545	2704737	We're not a lock for the pole.	We're not a lock for the pole	128445928	1475489127548	1475489127644	 	32
252545	2704737	We're not a lock for the pole.	We're not a lock for the pole	128445929	1475489128024	1475489128135	BKSP	8
252545	2704737	We're not a lock for the pole.	We're not a lock for the pole	128445930	1475489128201	1475489128253	BKSP	8
252545	2704737	We're not a lock for the pole.	We're not a lock for the pole	128445931	1475489128430	1475489128486	BKSP	8
252545	2704737	We're not a lock for the pole.	We're not a lock for the pole	128445932	1475489128750	1475489128822	n	78
252545	2704737	We're not a lock for the pole.	We're not a lock for the pole	128445933	1475489128929	1475489129004	o	79
252545	2704737	We're not a lock for the pole.	We're not a lock for the pole	128445959	1475489129013	1475489129112	t	84
252545	2704737	We're not a lock for the pole.	We're not a lock for the pole	128445961	1475489129073	1475489129173	 	32
252545	2704737	We're not a lock for the pole.	We're not a lock for the pole	128445963	1475489129722	1475489129869	a	65
252545	2704737	We're not a lock for the pole.	We're not a lock for the pole	128445967	1475489129878	1475489129969	 	32
252545	2704737	We're not a lock for the pole.	We're not a lock for the pole	128445970	1475489130150	1475489130206	l	76
252545	2704737	We're not a lock for the pole.	We're not a lock for the pole	128445988	1475489130308	1475489130367	o	79
252545	2704737	We're not a lock for the pole.	We're not a lock for the pole	128445990	1475489130414	1475489130490	c	67
252545	2704737	We're not a lock for the pole.	We're not a lock for the pole	128445993	1475489130532	1475489130588	k	75
252545	2704737	We're not a lock for the pole.	We're not a lock for the pole	128445994	1475489130676	1475489130768	 	32
252545	2704737	We're not a lock for the pole.	We're not a lock for the pole	128445995	1475489131709	1475489131784	f	70
252545	2704737	We're not a lock for the pole.	We're not a lock for the pole	128446020	1475489131881	1475489131956	o	79
252545	2704737	We're not a lock for the pole.	We're not a lock for the pole	128446023	1475489131979	1475489132086	r	82
252545	2704737	We're not a lock for the pole.	We're not a lock for the pole	128446025	1475489132031	1475489132131	 	32
252545	2704737	We're not a lock for the pole.	We're not a lock for the pole	128446027	1475489132689	1475489132756	t	84
252545	2704737	We're not a lock for the pole.	We're not a lock for the pole	128446029	1475489132872	1475489132935	h	72
252545	2704737	We're not a lock for the pole.	We're not a lock for the pole	128446049	1475489132973	1475489133084	e	69
252545	2704737	We're not a lock for the pole.	We're not a lock for the pole	128446052	1475489133033	1475489133136	 	32
252545	2704737	We're not a lock for the pole.	We're not a lock for the pole	128446055	1475489133489	1475489133565	p	80
252545	2704737	We're not a lock for the pole.	We're not a lock for the pole	128446060	1475489133622	1475489133705	e	69
252545	2704737	We're not a lock for the pole.	We're not a lock for the pole	128446064	1475489134109	1475489134220	BKSP	8
252545	2704737	We're not a lock for the pole.	We're not a lock for the pole	128446068	1475489134426	1475489134497	o	79
252545	2704737	We're not a lock for the pole.	We're not a lock for the pole	128446075	1475489134587	1475489134678	l	76
252545	2704737	We're not a lock for the pole.	We're not a lock for the pole	128446077	1475489134702	1475489134769	e	69
252545	2704745	Are you getting all the information you need?	Are you getting all the information tou nees?	128446140	1475489136095	1475489136679	SHIFT	16
252545	2704745	Are you getting all the information you need?	Are you getting all the information tou nees?	128446138	1475489136552	1475489136667	A	65
252545	2704745	Are you getting all the information you need?	Are you getting all the information tou nees?	128446144	1475489136771	1475489136834	r	82
252545	2704745	Are you getting all the information you need?	Are you getting all the information tou nees?	128446148	1475489136903	1475489136990	e	69
252545	2704745	Are you getting all the information you need?	Are you getting all the information tou nees?	128446151	1475489137119	1475489137218	 	32
252545	2704745	Are you getting all the information you need?	Are you getting all the information tou nees?	128446155	1475489137696	1475489137771	y	89
252545	2704745	Are you getting all the information you need?	Are you getting all the information tou nees?	128446169	1475489137874	1475489137957	o	79
252545	2704745	Are you getting all the information you need?	Are you getting all the information tou nees?	128446171	1475489138131	1475489138206	u	85
252545	2704745	Are you getting all the information you need?	Are you getting all the information tou nees?	128446173	1475489138300	1475489138395	 	32
252545	2704745	Are you getting all the information you need?	Are you getting all the information tou nees?	128446175	1475489138669	1475489138744	g	71
252545	2704745	Are you getting all the information you need?	Are you getting all the information tou nees?	128446177	1475489138778	1475489138857	e	69
252545	2704745	Are you getting all the information you need?	Are you getting all the information tou nees?	128446193	1475489138931	1475489138994	t	84
252545	2704745	Are you getting all the information you need?	Are you getting all the information tou nees?	128446194	1475489139053	1475489139116	t	84
252545	2704745	Are you getting all the information you need?	Are you getting all the information tou nees?	128446195	1475489139483	1475489139558	i	73
252545	2704745	Are you getting all the information you need?	Are you getting all the information tou nees?	128446196	1475489139677	1475489139748	n	78
252545	2704745	Are you getting all the information you need?	Are you getting all the information tou nees?	128446197	1475489139862	1475489139925	g	71
252545	2704745	Are you getting all the information you need?	Are you getting all the information tou nees?	128446250	1475489139964	1475489140035	 	32
252545	2704745	Are you getting all the information you need?	Are you getting all the information tou nees?	128446251	1475489140563	1475489140658	a	65
252545	2704745	Are you getting all the information you need?	Are you getting all the information tou nees?	128446252	1475489140747	1475489140806	l	76
252545	2704745	Are you getting all the information you need?	Are you getting all the information tou nees?	128446255	1475489140882	1475489140949	l	76
252545	2704745	Are you getting all the information you need?	Are you getting all the information tou nees?	128446258	1475489140970	1475489141074	 	32
252545	2704745	Are you getting all the information you need?	Are you getting all the information tou nees?	128446276	1475489141675	1475489141750	t	84
252545	2704745	Are you getting all the information you need?	Are you getting all the information tou nees?	128446277	1475489141857	1475489141936	h	72
252545	2704745	Are you getting all the information you need?	Are you getting all the information tou nees?	128446278	1475489141960	1475489142075	e	69
252545	2704745	Are you getting all the information you need?	Are you getting all the information tou nees?	128446279	1475489141988	1475489142103	 	32
252545	2704745	Are you getting all the information you need?	Are you getting all the information tou nees?	128446280	1475489142425	1475489142504	i	73
252545	2704745	Are you getting all the information you need?	Are you getting all the information tou nees?	128446296	1475489142641	1475489142708	n	78
252545	2704745	Are you getting all the information you need?	Are you getting all the information tou nees?	128446299	1475489142942	1475489143013	f	70
252545	2704745	Are you getting all the information you need?	Are you getting all the information tou nees?	128446302	1475489143088	1475489143155	o	79
252545	2704745	Are you getting all the information you need?	Are you getting all the information tou nees?	128446306	1475489143206	1475489143289	r	82
252545	2704745	Are you getting all the information you need?	Are you getting all the information tou nees?	128446310	1475489143515	1475489143598	m	77
252545	2704745	Are you getting all the information you need?	Are you getting all the information tou nees?	128446330	1475489143666	1475489143741	a	65
252545	2704745	Are you getting all the information you need?	Are you getting all the information tou nees?	128446331	1475489143878	1475489143950	t	84
252545	2704745	Are you getting all the information you need?	Are you getting all the information tou nees?	128446332	1475489144033	1475489144108	i	73
252545	2704745	Are you getting all the information you need?	Are you getting all the information tou nees?	128446333	1475489144197	1475489144256	o	79
252545	2704745	Are you getting all the information you need?	Are you getting all the information tou nees?	128446334	1475489144390	1475489144453	n	78
252545	2704745	Are you getting all the information you need?	Are you getting all the information tou nees?	128446372	1475489144504	1475489144591	 	32
252545	2704745	Are you getting all the information you need?	Are you getting all the information tou nees?	128446374	1475489145090	1475489145181	t	84
252545	2704745	Are you getting all the information you need?	Are you getting all the information tou nees?	128446376	1475489145507	1475489145582	o	79
252545	2704745	Are you getting all the information you need?	Are you getting all the information tou nees?	128446377	1475489145706	1475489145769	u	85
252545	2704745	Are you getting all the information you need?	Are you getting all the information tou nees?	128446378	1475489145793	1475489145876	 	32
252545	2704745	Are you getting all the information you need?	Are you getting all the information tou nees?	128446429	1475489146175	1475489146262	n	78
252545	2704745	Are you getting all the information you need?	Are you getting all the information tou nees?	128446430	1475489146344	1475489146419	e	69
252545	2704745	Are you getting all the information you need?	Are you getting all the information tou nees?	128446432	1475489146508	1475489146567	e	69
252545	2704745	Are you getting all the information you need?	Are you getting all the information tou nees?	128446434	1475489146806	1475489146889	s	83
252545	2704745	Are you getting all the information you need?	Are you getting all the information tou nees?	128446438	1475489147273	1475489147617	SHIFT	16
252545	2704745	Are you getting all the information you need?	Are you getting all the information tou nees?	128446436	1475489147529	1475489147593	?	191
252545	2704753	He is suffering from a strained left shoulder.	He is suffering from a straind left shoulder	128446495	1475489148935	1475489149347	SHIFT	16
252545	2704753	He is suffering from a strained left shoulder.	He is suffering from a straind left shoulder	128446493	1475489149283	1475489149339	H	72
252545	2704753	He is suffering from a strained left shoulder.	He is suffering from a straind left shoulder	128446498	1475489149560	1475489149720	e	69
252545	2704753	He is suffering from a strained left shoulder.	He is suffering from a straind left shoulder	128446500	1475489149652	1475489149760	 	32
252545	2704753	He is suffering from a strained left shoulder.	He is suffering from a straind left shoulder	128446502	1475489150260	1475489150327	i	73
252545	2704753	He is suffering from a strained left shoulder.	He is suffering from a straind left shoulder	128446504	1475489150363	1475489150534	s	83
252545	2704753	He is suffering from a strained left shoulder.	He is suffering from a straind left shoulder	128446535	1475489150454	1475489150574	 	32
252545	2704753	He is suffering from a strained left shoulder.	He is suffering from a straind left shoulder	128446537	1475489150798	1475489150850	s	83
252545	2704753	He is suffering from a strained left shoulder.	He is suffering from a straind left shoulder	128446539	1475489151142	1475489151214	u	85
252545	2704753	He is suffering from a strained left shoulder.	He is suffering from a straind left shoulder	128446541	1475489151515	1475489151559	f	70
252545	2704753	He is suffering from a strained left shoulder.	He is suffering from a straind left shoulder	128446543	1475489151631	1475489151691	f	70
252545	2704753	He is suffering from a strained left shoulder.	He is suffering from a straind left shoulder	128446545	1475489151752	1475489151832	e	69
252545	2704753	He is suffering from a strained left shoulder.	He is suffering from a straind left shoulder	128446574	1475489151926	1475489151998	r	82
252545	2704753	He is suffering from a strained left shoulder.	He is suffering from a straind left shoulder	128446576	1475489152112	1475489152184	i	73
252545	2704753	He is suffering from a strained left shoulder.	He is suffering from a straind left shoulder	128446578	1475489152307	1475489152387	n	78
252545	2704753	He is suffering from a strained left shoulder.	He is suffering from a straind left shoulder	128446580	1475489152486	1475489152546	g	71
252545	2704753	He is suffering from a strained left shoulder.	He is suffering from a straind left shoulder	128446582	1475489152616	1475489152708	 	32
252545	2704753	He is suffering from a strained left shoulder.	He is suffering from a straind left shoulder	128446612	1475489153243	1475489153303	f	70
252545	2704753	He is suffering from a strained left shoulder.	He is suffering from a straind left shoulder	128446614	1475489153410	1475489153482	r	82
252545	2704753	He is suffering from a strained left shoulder.	He is suffering from a straind left shoulder	128446617	1475489153551	1475489153623	o	79
252545	2704753	He is suffering from a strained left shoulder.	He is suffering from a straind left shoulder	128446619	1475489153730	1475489153806	m	77
252545	2704753	He is suffering from a strained left shoulder.	He is suffering from a straind left shoulder	128446621	1475489153822	1475489153922	 	32
252545	2704753	He is suffering from a strained left shoulder.	He is suffering from a straind left shoulder	128446658	1475489154309	1475489154459	a	65
252545	2704753	He is suffering from a strained left shoulder.	He is suffering from a straind left shoulder	128446659	1475489154433	1475489154545	 	32
252545	2704753	He is suffering from a strained left shoulder.	He is suffering from a straind left shoulder	128446660	1475489154932	1475489155016	s	83
252545	2704753	He is suffering from a strained left shoulder.	He is suffering from a straind left shoulder	128446661	1475489155101	1475489155177	t	84
252545	2704753	He is suffering from a strained left shoulder.	He is suffering from a straind left shoulder	128446662	1475489155296	1475489155376	r	82
252545	2704753	He is suffering from a strained left shoulder.	He is suffering from a straind left shoulder	128446682	1475489155808	1475489155884	a	65
252545	2704753	He is suffering from a strained left shoulder.	He is suffering from a straind left shoulder	128446684	1475489156023	1475489156103	i	73
252545	2704753	He is suffering from a strained left shoulder.	He is suffering from a straind left shoulder	128446686	1475489156242	1475489156294	n	78
252545	2704753	He is suffering from a strained left shoulder.	He is suffering from a straind left shoulder	128446689	1475489156374	1475489156522	d	68
252545	2704753	He is suffering from a strained left shoulder.	He is suffering from a straind left shoulder	128446731	1475489156462	1475489156594	 	32
252545	2704753	He is suffering from a strained left shoulder.	He is suffering from a straind left shoulder	128446732	1475489157781	1475489157856	l	76
252545	2704753	He is suffering from a strained left shoulder.	He is suffering from a straind left shoulder	128446733	1475489157955	1475489158035	e	69
252545	2704753	He is suffering from a strained left shoulder.	He is suffering from a straind left shoulder	128446734	1475489158157	1475489158225	f	70
252545	2704753	He is suffering from a strained left shoulder.	He is suffering from a straind left shoulder	128446735	1475489158330	1475489158394	t	84
252545	2704753	He is suffering from a strained left shoulder.	He is suffering from a straind left shoulder	128446736	1475489158406	1475489158486	 	32
252545	2704753	He is suffering from a strained left shoulder.	He is suffering from a straind left shoulder	128446793	1475489158918	1475489159005	s	83
252545	2704753	He is suffering from a strained left shoulder.	He is suffering from a straind left shoulder	128446795	1475489159234	1475489159326	h	72
252545	2704753	He is suffering from a strained left shoulder.	He is suffering from a straind left shoulder	128446797	1475489160491	1475489160575	o	79
252545	2704753	He is suffering from a strained left shoulder.	He is suffering from a straind left shoulder	128446798	1475489160991	1475489161055	u	85
252545	2704753	He is suffering from a strained left shoulder.	He is suffering from a straind left shoulder	128446799	1475489161278	1475489161342	l	76
252545	2704753	He is suffering from a strained left shoulder.	He is suffering from a straind left shoulder	128446823	1475489161518	1475489161598	d	68
252545	2704753	He is suffering from a strained left shoulder.	He is suffering from a straind left shoulder	128446827	1475489161677	1475489161753	e	69
252545	2704753	He is suffering from a strained left shoulder.	He is suffering from a straind left shoulder	128446829	1475489161826	1475489161906	r	82
