PARTICIPANT_ID	TEST_SECTION_ID	SENTENCE	USER_INPUT	KEYSTROKE_ID	PRESS_TIME	RELEASE_TIME	LETTER	KEYCODE
262885	2815081	We're working with the speedway.	We're working with the speedway.	133700528	1475604926247	1475604926535	SHIFT	16
262885	2815081	We're working with the speedway.	We're working with the speedway.	133700524	1475604926357	1475604926532	W	87
262885	2815081	We're working with the speedway.	We're working with the speedway.	133700531	1475604926508	1475604926693	E	69
262885	2815081	We're working with the speedway.	We're working with the speedway.	133700534	1475604926652	1475604926721	r	82
262885	2815081	We're working with the speedway.	We're working with the speedway.	133700541	1475604927094	1475604927181	BKSP	8
262885	2815081	We're working with the speedway.	We're working with the speedway.	133700544	1475604927245	1475604927371	BKSP	8
262885	2815081	We're working with the speedway.	We're working with the speedway.	133700550	1475604927587	1475604927740	e	69
262885	2815081	We're working with the speedway.	We're working with the speedway.	133700556	1475604927831	1475604928017	'	222
262885	2815081	We're working with the speedway.	We're working with the speedway.	133700590	1475604928127	1475604928279	r	82
262885	2815081	We're working with the speedway.	We're working with the speedway.	133700596	1475604928247	1475604928389	e	69
262885	2815081	We're working with the speedway.	We're working with the speedway.	133700601	1475604928353	1475604928485	 	32
262885	2815081	We're working with the speedway.	We're working with the speedway.	133700610	1475604928551	1475604928713	w	87
262885	2815081	We're working with the speedway.	We're working with the speedway.	133700709	1475604928650	1475604928801	o	79
262885	2815081	We're working with the speedway.	We're working with the speedway.	133700714	1475604928814	1475604928937	r	82
262885	2815081	We're working with the speedway.	We're working with the speedway.	133700722	1475604928925	1475604929058	k	75
262885	2815081	We're working with the speedway.	We're working with the speedway.	133700728	1475604929188	1475604929377	i	73
262885	2815081	We're working with the speedway.	We're working with the speedway.	133700733	1475604929324	1475604929480	n	78
262885	2815081	We're working with the speedway.	We're working with the speedway.	133700788	1475604929422	1475604929566	g	71
262885	2815081	We're working with the speedway.	We're working with the speedway.	133700793	1475604929517	1475604929658	 	32
262885	2815081	We're working with the speedway.	We're working with the speedway.	133700795	1475604929712	1475604929877	w	87
262885	2815081	We're working with the speedway.	We're working with the speedway.	133700797	1475604929845	1475604929967	i	73
262885	2815081	We're working with the speedway.	We're working with the speedway.	133700800	1475604930012	1475604930141	t	84
262885	2815081	We're working with the speedway.	We're working with the speedway.	133700802	1475604930149	1475604930255	h	72
262885	2815081	We're working with the speedway.	We're working with the speedway.	133700857	1475604930579	1475604930704	 	32
262885	2815081	We're working with the speedway.	We're working with the speedway.	133700865	1475604930759	1475604930899	t	84
262885	2815081	We're working with the speedway.	We're working with the speedway.	133700872	1475604930814	1475604930945	h	72
262885	2815081	We're working with the speedway.	We're working with the speedway.	133700882	1475604930923	1475604931052	e	69
262885	2815081	We're working with the speedway.	We're working with the speedway.	133700955	1475604930969	1475604931088	 	32
262885	2815081	We're working with the speedway.	We're working with the speedway.	133700958	1475604931173	1475604931338	s	83
262885	2815081	We're working with the speedway.	We're working with the speedway.	133700963	1475604931363	1475604931506	p	80
262885	2815081	We're working with the speedway.	We're working with the speedway.	133700966	1475604931527	1475604931648	e	69
262885	2815081	We're working with the speedway.	We're working with the speedway.	133700968	1475604931696	1475604931769	e	69
262885	2815081	We're working with the speedway.	We're working with the speedway.	133700974	1475604931858	1475604932045	d	68
262885	2815081	We're working with the speedway.	We're working with the speedway.	133701051	1475604932286	1475604932389	a	65
262885	2815081	We're working with the speedway.	We're working with the speedway.	133701056	1475604932580	1475604932704	BKSP	8
262885	2815081	We're working with the speedway.	We're working with the speedway.	133701061	1475604932677	1475604932842	w	87
262885	2815081	We're working with the speedway.	We're working with the speedway.	133701066	1475604932848	1475604933026	a	65
262885	2815081	We're working with the speedway.	We're working with the speedway.	133701073	1475604933016	1475604933095	y	89
262885	2815081	We're working with the speedway.	We're working with the speedway.	133701075	1475604933361	1475604933400	l	76
262885	2815081	We're working with the speedway.	We're working with the speedway.	133701296	1475604933452	1475604933636	.	190
262885	2815081	We're working with the speedway.	We're working with the speedway.	133701303	1475604933932	1475604934020	BKSP	8
262885	2815081	We're working with the speedway.	We're working with the speedway.	133701310	1475604934084	1475604934189	BKSP	8
262885	2815081	We're working with the speedway.	We're working with the speedway.	133701317	1475604934288	1475604934420	.	190
262885	2815109	Let me know if this is possible or where else I might find these.	Let me know if this is possible or where else I might find these.	133701975	1475604940694	1475604940859	SHIFT	16
262885	2815109	Let me know if this is possible or where else I might find these.	Let me know if this is possible or where else I might find these.	133701980	1475604940752	1475604940901	L	76
262885	2815109	Let me know if this is possible or where else I might find these.	Let me know if this is possible or where else I might find these.	133701986	1475604940922	1475604941091	e	69
262885	2815109	Let me know if this is possible or where else I might find these.	Let me know if this is possible or where else I might find these.	133701994	1475604941173	1475604941307	t	84
262885	2815109	Let me know if this is possible or where else I might find these.	Let me know if this is possible or where else I might find these.	133702002	1475604941287	1475604941396	 	32
262885	2815109	Let me know if this is possible or where else I might find these.	Let me know if this is possible or where else I might find these.	133702011	1475604941480	1475604941666	m	77
262885	2815109	Let me know if this is possible or where else I might find these.	Let me know if this is possible or where else I might find these.	133702075	1475604941572	1475604941741	e	69
262885	2815109	Let me know if this is possible or where else I might find these.	Let me know if this is possible or where else I might find these.	133702077	1475604941733	1475604941901	 	32
262885	2815109	Let me know if this is possible or where else I might find these.	Let me know if this is possible or where else I might find these.	133702082	1475604941984	1475604942131	k	75
262885	2815109	Let me know if this is possible or where else I might find these.	Let me know if this is possible or where else I might find these.	133702088	1475604942064	1475604942214	n	78
262885	2815109	Let me know if this is possible or where else I might find these.	Let me know if this is possible or where else I might find these.	133702093	1475604942204	1475604942357	o	79
262885	2815109	Let me know if this is possible or where else I might find these.	Let me know if this is possible or where else I might find these.	133702152	1475604942337	1475604942442	w	87
262885	2815109	Let me know if this is possible or where else I might find these.	Let me know if this is possible or where else I might find these.	133702156	1475604942556	1475604942675	 	32
262885	2815109	Let me know if this is possible or where else I might find these.	Let me know if this is possible or where else I might find these.	133702160	1475604942678	1475604942806	i	73
262885	2815109	Let me know if this is possible or where else I might find these.	Let me know if this is possible or where else I might find these.	133702162	1475604942773	1475604942897	f	70
262885	2815109	Let me know if this is possible or where else I might find these.	Let me know if this is possible or where else I might find these.	133702165	1475604942864	1475604942979	 	32
262885	2815109	Let me know if this is possible or where else I might find these.	Let me know if this is possible or where else I might find these.	133702169	1475604943010	1475604943139	t	84
262885	2815109	Let me know if this is possible or where else I might find these.	Let me know if this is possible or where else I might find these.	133702306	1475604943047	1475604943148	h	72
262885	2815109	Let me know if this is possible or where else I might find these.	Let me know if this is possible or where else I might find these.	133702309	1475604943182	1475604943218	e	69
262885	2815109	Let me know if this is possible or where else I might find these.	Let me know if this is possible or where else I might find these.	133702314	1475604943233	1475604943362	i	73
262885	2815109	Let me know if this is possible or where else I might find these.	Let me know if this is possible or where else I might find these.	133702321	1475604943497	1475604943557	s	83
262885	2815109	Let me know if this is possible or where else I might find these.	Let me know if this is possible or where else I might find these.	133702327	1475604943785	1475604943867	BKSP	8
262885	2815109	Let me know if this is possible or where else I might find these.	Let me know if this is possible or where else I might find these.	133702335	1475604943934	1475604944045	BKSP	8
262885	2815109	Let me know if this is possible or where else I might find these.	Let me know if this is possible or where else I might find these.	133702342	1475604944059	1475604944243	BKSP	8
262885	2815109	Let me know if this is possible or where else I might find these.	Let me know if this is possible or where else I might find these.	133702350	1475604944228	1475604944340	i	73
262885	2815109	Let me know if this is possible or where else I might find these.	Let me know if this is possible or where else I might find these.	133702357	1475604944344	1475604944444	s	83
262885	2815109	Let me know if this is possible or where else I might find these.	Let me know if this is possible or where else I might find these.	133702403	1475604944414	1475604944529	 	32
262885	2815109	Let me know if this is possible or where else I might find these.	Let me know if this is possible or where else I might find these.	133702407	1475604944554	1475604944713	i	73
262885	2815109	Let me know if this is possible or where else I might find these.	Let me know if this is possible or where else I might find these.	133702413	1475604944677	1475604944804	s	83
262885	2815109	Let me know if this is possible or where else I might find these.	Let me know if this is possible or where else I might find these.	133702420	1475604944746	1475604944853	 	32
262885	2815109	Let me know if this is possible or where else I might find these.	Let me know if this is possible or where else I might find these.	133702430	1475604944966	1475604945096	p	80
262885	2815109	Let me know if this is possible or where else I might find these.	Let me know if this is possible or where else I might find these.	133702436	1475604945136	1475604945322	o	79
262885	2815109	Let me know if this is possible or where else I might find these.	Let me know if this is possible or where else I might find these.	133702506	1475604945286	1475604945423	s	83
262885	2815109	Let me know if this is possible or where else I might find these.	Let me know if this is possible or where else I might find these.	133702509	1475604945522	1475604945658	s	83
262885	2815109	Let me know if this is possible or where else I might find these.	Let me know if this is possible or where else I might find these.	133702515	1475604945645	1475604945788	i	73
262885	2815109	Let me know if this is possible or where else I might find these.	Let me know if this is possible or where else I might find these.	133702519	1475604946119	1475604946235	b	66
262885	2815109	Let me know if this is possible or where else I might find these.	Let me know if this is possible or where else I might find these.	133702525	1475604946240	1475604946420	l	76
262885	2815109	Let me know if this is possible or where else I might find these.	Let me know if this is possible or where else I might find these.	133702551	1475604946339	1475604946457	e	69
262885	2815109	Let me know if this is possible or where else I might find these.	Let me know if this is possible or where else I might find these.	133702555	1475604946427	1475604946536	 	32
262885	2815109	Let me know if this is possible or where else I might find these.	Let me know if this is possible or where else I might find these.	133702559	1475604946604	1475604946724	o	79
262885	2815109	Let me know if this is possible or where else I might find these.	Let me know if this is possible or where else I might find these.	133702562	1475604946715	1475604946851	r	82
262885	2815109	Let me know if this is possible or where else I might find these.	Let me know if this is possible or where else I might find these.	133702567	1475604946793	1475604946921	 	32
262885	2815109	Let me know if this is possible or where else I might find these.	Let me know if this is possible or where else I might find these.	133702570	1475604946976	1475604947090	w	87
262885	2815109	Let me know if this is possible or where else I might find these.	Let me know if this is possible or where else I might find these.	133702642	1475604947294	1475604947416	h	72
262885	2815109	Let me know if this is possible or where else I might find these.	Let me know if this is possible or where else I might find these.	133702654	1475604947434	1475604947584	e	69
262885	2815109	Let me know if this is possible or where else I might find these.	Let me know if this is possible or where else I might find these.	133702660	1475604947554	1475604947685	r	82
262885	2815109	Let me know if this is possible or where else I might find these.	Let me know if this is possible or where else I might find these.	133702666	1475604947730	1475604947866	 	32
262885	2815109	Let me know if this is possible or where else I might find these.	Let me know if this is possible or where else I might find these.	133702671	1475604948149	1475604948286	BKSP	8
262885	2815109	Let me know if this is possible or where else I might find these.	Let me know if this is possible or where else I might find these.	133702807	1475604948248	1475604948379	e	69
262885	2815109	Let me know if this is possible or where else I might find these.	Let me know if this is possible or where else I might find these.	133702815	1475604948358	1475604948468	 	32
262885	2815109	Let me know if this is possible or where else I might find these.	Let me know if this is possible or where else I might find these.	133702823	1475604948541	1475604948645	e	69
262885	2815109	Let me know if this is possible or where else I might find these.	Let me know if this is possible or where else I might find these.	133702832	1475604948614	1475604948708	l	76
262885	2815109	Let me know if this is possible or where else I might find these.	Let me know if this is possible or where else I might find these.	133702836	1475604949329	1475604949459	s	83
262885	2815109	Let me know if this is possible or where else I might find these.	Let me know if this is possible or where else I might find these.	133702844	1475604949563	1475604949620	e	69
262885	2815109	Let me know if this is possible or where else I might find these.	Let me know if this is possible or where else I might find these.	133703006	1475604949611	1475604949757	 	32
262885	2815109	Let me know if this is possible or where else I might find these.	Let me know if this is possible or where else I might find these.	133703016	1475604949753	1475604949854	i	73
262885	2815109	Let me know if this is possible or where else I might find these.	Let me know if this is possible or where else I might find these.	133703022	1475604950126	1475604950282	 	32
262885	2815109	Let me know if this is possible or where else I might find these.	Let me know if this is possible or where else I might find these.	133703028	1475604950333	1475604950532	m	77
262885	2815109	Let me know if this is possible or where else I might find these.	Let me know if this is possible or where else I might find these.	133703034	1475604950682	1475604950780	BKSP	8
262885	2815109	Let me know if this is possible or where else I might find these.	Let me know if this is possible or where else I might find these.	133703039	1475604950838	1475604950933	BKSP	8
262885	2815109	Let me know if this is possible or where else I might find these.	Let me know if this is possible or where else I might find these.	133703041	1475604950984	1475604951125	BKSP	8
262885	2815109	Let me know if this is possible or where else I might find these.	Let me know if this is possible or where else I might find these.	133703046	1475604951122	1475604951274	SHIFT	16
262885	2815109	Let me know if this is possible or where else I might find these.	Let me know if this is possible or where else I might find these.	133703051	1475604951182	1475604951292	I	73
262885	2815109	Let me know if this is possible or where else I might find these.	Let me know if this is possible or where else I might find these.	133703058	1475604951320	1475604951463	 	32
262885	2815109	Let me know if this is possible or where else I might find these.	Let me know if this is possible or where else I might find these.	133703089	1475604951525	1475604951650	m	77
262885	2815109	Let me know if this is possible or where else I might find these.	Let me know if this is possible or where else I might find these.	133703098	1475604951677	1475604951837	i	73
262885	2815109	Let me know if this is possible or where else I might find these.	Let me know if this is possible or where else I might find these.	133703103	1475604951882	1475604952008	g	71
262885	2815109	Let me know if this is possible or where else I might find these.	Let me know if this is possible or where else I might find these.	133703111	1475604952020	1475604952121	h	72
262885	2815109	Let me know if this is possible or where else I might find these.	Let me know if this is possible or where else I might find these.	133703116	1475604952237	1475604952364	t	84
262885	2815109	Let me know if this is possible or where else I might find these.	Let me know if this is possible or where else I might find these.	133703191	1475604952315	1475604952446	 	32
262885	2815109	Let me know if this is possible or where else I might find these.	Let me know if this is possible or where else I might find these.	133703194	1475604952522	1475604952562	g	71
262885	2815109	Let me know if this is possible or where else I might find these.	Let me know if this is possible or where else I might find these.	133703195	1475604952864	1475604953010	BKSP	8
262885	2815109	Let me know if this is possible or where else I might find these.	Let me know if this is possible or where else I might find these.	133703196	1475604952952	1475604953082	f	70
262885	2815109	Let me know if this is possible or where else I might find these.	Let me know if this is possible or where else I might find these.	133703200	1475604953074	1475604953280	i	73
262885	2815109	Let me know if this is possible or where else I might find these.	Let me know if this is possible or where else I might find these.	133703204	1475604953182	1475604953331	n	78
262885	2815109	Let me know if this is possible or where else I might find these.	Let me know if this is possible or where else I might find these.	133703285	1475604953283	1475604953425	d	68
262885	2815109	Let me know if this is possible or where else I might find these.	Let me know if this is possible or where else I might find these.	133703288	1475604953392	1475604953539	 	32
262885	2815109	Let me know if this is possible or where else I might find these.	Let me know if this is possible or where else I might find these.	133703295	1475604953554	1475604953679	t	84
262885	2815109	Let me know if this is possible or where else I might find these.	Let me know if this is possible or where else I might find these.	133703303	1475604953609	1475604953746	h	72
262885	2815109	Let me know if this is possible or where else I might find these.	Let me know if this is possible or where else I might find these.	133703308	1475604953709	1475604953825	e	69
262885	2815109	Let me know if this is possible or where else I might find these.	Let me know if this is possible or where else I might find these.	133703311	1475604954305	1475604954403	s	83
262885	2815109	Let me know if this is possible or where else I might find these.	Let me know if this is possible or where else I might find these.	133703454	1475604954464	1475604954578	e	69
262885	2815109	Let me know if this is possible or where else I might find these.	Let me know if this is possible or where else I might find these.	133703460	1475604954604	1475604954706	s	83
262885	2815109	Let me know if this is possible or where else I might find these.	Let me know if this is possible or where else I might find these.	133703465	1475604954720	1475604954920	.	190
262885	2815109	Let me know if this is possible or where else I might find these.	Let me know if this is possible or where else I might find these.	133703473	1475604954934	1475604955045	 	32
262885	2815109	Let me know if this is possible or where else I might find these.	Let me know if this is possible or where else I might find these.	133703483	1475604955417	1475604955477	BKSP	8
262885	2815109	Let me know if this is possible or where else I might find these.	Let me know if this is possible or where else I might find these.	133703492	1475604955547	1475604955649	BKSP	8
262885	2815109	Let me know if this is possible or where else I might find these.	Let me know if this is possible or where else I might find these.	133703497	1475604955687	1475604955789	BKSP	8
262885	2815109	Let me know if this is possible or where else I might find these.	Let me know if this is possible or where else I might find these.	133703505	1475604955846	1475604955951	BKSP	8
262885	2815109	Let me know if this is possible or where else I might find these.	Let me know if this is possible or where else I might find these.	133703518	1475604955969	1475604956051	s	83
262885	2815109	Let me know if this is possible or where else I might find these.	Let me know if this is possible or where else I might find these.	133703703	1475604956339	1475604956456	BKSP	8
262885	2815109	Let me know if this is possible or where else I might find these.	Let me know if this is possible or where else I might find these.	133703707	1475604956435	1475604956538	e	69
262885	2815109	Let me know if this is possible or where else I might find these.	Let me know if this is possible or where else I might find these.	133703712	1475604956591	1475604956698	s	83
262885	2815109	Let me know if this is possible or where else I might find these.	Let me know if this is possible or where else I might find these.	133703717	1475604956746	1475604956875	.	190
262885	2815109	Let me know if this is possible or where else I might find these.	Let me know if this is possible or where else I might find these.	133703722	1475604957408	1475604957504	BKSP	8
262885	2815109	Let me know if this is possible or where else I might find these.	Let me know if this is possible or where else I might find these.	133703729	1475604957560	1475604957661	BKSP	8
262885	2815109	Let me know if this is possible or where else I might find these.	Let me know if this is possible or where else I might find these.	133703736	1475604957914	1475604958011	.	190
262885	2815159	I wonder if RBS is another institution which could move quickly.	I wonder if RBS is another institution which could move quickly.	133704463	1475604965943	1475604966104	SHIFT	16
262885	2815159	I wonder if RBS is another institution which could move quickly.	I wonder if RBS is another institution which could move quickly.	133704466	1475604966027	1475604966158	I	73
262885	2815159	I wonder if RBS is another institution which could move quickly.	I wonder if RBS is another institution which could move quickly.	133704469	1475604966301	1475604966448	 	32
262885	2815159	I wonder if RBS is another institution which could move quickly.	I wonder if RBS is another institution which could move quickly.	133704473	1475604966659	1475604966857	w	87
262885	2815159	I wonder if RBS is another institution which could move quickly.	I wonder if RBS is another institution which could move quickly.	133704477	1475604966818	1475604967021	o	79
262885	2815159	I wonder if RBS is another institution which could move quickly.	I wonder if RBS is another institution which could move quickly.	133704523	1475604966912	1475604967071	n	78
262885	2815159	I wonder if RBS is another institution which could move quickly.	I wonder if RBS is another institution which could move quickly.	133704524	1475604967017	1475604967163	d	68
262885	2815159	I wonder if RBS is another institution which could move quickly.	I wonder if RBS is another institution which could move quickly.	133704528	1475604967154	1475604967294	 	32
262885	2815159	I wonder if RBS is another institution which could move quickly.	I wonder if RBS is another institution which could move quickly.	133704530	1475604967487	1475604967569	BKSP	8
262885	2815159	I wonder if RBS is another institution which could move quickly.	I wonder if RBS is another institution which could move quickly.	133704532	1475604967563	1475604967736	e	69
262885	2815159	I wonder if RBS is another institution which could move quickly.	I wonder if RBS is another institution which could move quickly.	133704535	1475604967685	1475604967831	r	82
262885	2815159	I wonder if RBS is another institution which could move quickly.	I wonder if RBS is another institution which could move quickly.	133704542	1475604967764	1475604967907	 	32
262885	2815159	I wonder if RBS is another institution which could move quickly.	I wonder if RBS is another institution which could move quickly.	133704688	1475604967892	1475604968048	i	73
262885	2815159	I wonder if RBS is another institution which could move quickly.	I wonder if RBS is another institution which could move quickly.	133704694	1475604968040	1475604968188	f	70
262885	2815159	I wonder if RBS is another institution which could move quickly.	I wonder if RBS is another institution which could move quickly.	133704700	1475604968131	1475604968271	 	32
262885	2815159	I wonder if RBS is another institution which could move quickly.	I wonder if RBS is another institution which could move quickly.	133704764	1475604968524	1475604969875	SHIFT	16
262885	2815159	I wonder if RBS is another institution which could move quickly.	I wonder if RBS is another institution which could move quickly.	133704705	1475604968662	1475604968799	R	82
262885	2815159	I wonder if RBS is another institution which could move quickly.	I wonder if RBS is another institution which could move quickly.	133704709	1475604969330	1475604969455	B	66
262885	2815159	I wonder if RBS is another institution which could move quickly.	I wonder if RBS is another institution which could move quickly.	133704711	1475604969596	1475604969712	S	83
262885	2815159	I wonder if RBS is another institution which could move quickly.	I wonder if RBS is another institution which could move quickly.	133704771	1475604969855	1475604969995	 	32
262885	2815159	I wonder if RBS is another institution which could move quickly.	I wonder if RBS is another institution which could move quickly.	133704787	1475604970025	1475604970245	i	73
262885	2815159	I wonder if RBS is another institution which could move quickly.	I wonder if RBS is another institution which could move quickly.	133704780	1475604970115	1475604970236	s	83
262885	2815159	I wonder if RBS is another institution which could move quickly.	I wonder if RBS is another institution which could move quickly.	133704795	1475604970193	1475604970318	 	32
262885	2815159	I wonder if RBS is another institution which could move quickly.	I wonder if RBS is another institution which could move quickly.	133704802	1475604970398	1475604970551	a	65
262885	2815159	I wonder if RBS is another institution which could move quickly.	I wonder if RBS is another institution which could move quickly.	133704865	1475604970456	1475604970608	n	78
262885	2815159	I wonder if RBS is another institution which could move quickly.	I wonder if RBS is another institution which could move quickly.	133704870	1475604971068	1475604971217	o	79
262885	2815159	I wonder if RBS is another institution which could move quickly.	I wonder if RBS is another institution which could move quickly.	133704874	1475604971182	1475604971324	t	84
262885	2815159	I wonder if RBS is another institution which could move quickly.	I wonder if RBS is another institution which could move quickly.	133704879	1475604971247	1475604971369	h	72
262885	2815159	I wonder if RBS is another institution which could move quickly.	I wonder if RBS is another institution which could move quickly.	133704887	1475604971382	1475604971519	e	69
262885	2815159	I wonder if RBS is another institution which could move quickly.	I wonder if RBS is another institution which could move quickly.	133704952	1475604971458	1475604971617	r	82
262885	2815159	I wonder if RBS is another institution which could move quickly.	I wonder if RBS is another institution which could move quickly.	133704956	1475604971556	1475604971667	 	32
262885	2815159	I wonder if RBS is another institution which could move quickly.	I wonder if RBS is another institution which could move quickly.	133704960	1475604971650	1475604971827	i	73
262885	2815159	I wonder if RBS is another institution which could move quickly.	I wonder if RBS is another institution which could move quickly.	133704966	1475604971786	1475604971944	n	78
262885	2815159	I wonder if RBS is another institution which could move quickly.	I wonder if RBS is another institution which could move quickly.	133704972	1475604971993	1475604972155	s	83
262885	2815159	I wonder if RBS is another institution which could move quickly.	I wonder if RBS is another institution which could move quickly.	133704977	1475604972176	1475604972342	i	73
262885	2815159	I wonder if RBS is another institution which could move quickly.	I wonder if RBS is another institution which could move quickly.	133705241	1475604972330	1475604972445	t	84
262885	2815159	I wonder if RBS is another institution which could move quickly.	I wonder if RBS is another institution which could move quickly.	133705249	1475604972515	1475604972687	i	73
262885	2815159	I wonder if RBS is another institution which could move quickly.	I wonder if RBS is another institution which could move quickly.	133705255	1475604973130	1475604973294	BKSP	8
262885	2815159	I wonder if RBS is another institution which could move quickly.	I wonder if RBS is another institution which could move quickly.	133705264	1475604973773	1475604973866	u	85
262885	2815159	I wonder if RBS is another institution which could move quickly.	I wonder if RBS is another institution which could move quickly.	133705271	1475604974630	1475604974715	t	84
262885	2815159	I wonder if RBS is another institution which could move quickly.	I wonder if RBS is another institution which could move quickly.	133705277	1475604974681	1475604974803	i	73
262885	2815159	I wonder if RBS is another institution which could move quickly.	I wonder if RBS is another institution which could move quickly.	133705281	1475604975418	1475604975549	BKSP	8
262885	2815159	I wonder if RBS is another institution which could move quickly.	I wonder if RBS is another institution which could move quickly.	133705287	1475604975603	1475604975817	i	73
262885	2815159	I wonder if RBS is another institution which could move quickly.	I wonder if RBS is another institution which could move quickly.	133705609	1475604975724	1475604975918	o	79
262885	2815159	I wonder if RBS is another institution which could move quickly.	I wonder if RBS is another institution which could move quickly.	133705617	1475604975854	1475604976028	n	78
262885	2815159	I wonder if RBS is another institution which could move quickly.	I wonder if RBS is another institution which could move quickly.	133705622	1475604976008	1475604976126	 	32
262885	2815159	I wonder if RBS is another institution which could move quickly.	I wonder if RBS is another institution which could move quickly.	133705627	1475604976162	1475604976318	w	87
262885	2815159	I wonder if RBS is another institution which could move quickly.	I wonder if RBS is another institution which could move quickly.	133705633	1475604976251	1475604976382	h	72
262885	2815159	I wonder if RBS is another institution which could move quickly.	I wonder if RBS is another institution which could move quickly.	133705637	1475604976636	1475604976753	BKSP	8
262885	2815159	I wonder if RBS is another institution which could move quickly.	I wonder if RBS is another institution which could move quickly.	133705641	1475604976780	1475604976884	BKSP	8
262885	2815159	I wonder if RBS is another institution which could move quickly.	I wonder if RBS is another institution which could move quickly.	133705647	1475604976948	1475604977056	BKSP	8
262885	2815159	I wonder if RBS is another institution which could move quickly.	I wonder if RBS is another institution which could move quickly.	133705652	1475604977082	1475604977187	BKSP	8
262885	2815159	I wonder if RBS is another institution which could move quickly.	I wonder if RBS is another institution which could move quickly.	133705657	1475604977270	1475604977334	BKSP	8
262885	2815159	I wonder if RBS is another institution which could move quickly.	I wonder if RBS is another institution which could move quickly.	133705661	1475604977442	1475604977517	BKSP	8
262885	2815159	I wonder if RBS is another institution which could move quickly.	I wonder if RBS is another institution which could move quickly.	133705666	1475604977647	1475604977763	BKSP	8
262885	2815159	I wonder if RBS is another institution which could move quickly.	I wonder if RBS is another institution which could move quickly.	133705670	1475604977918	1475604978031	BKSP	8
262885	2815159	I wonder if RBS is another institution which could move quickly.	I wonder if RBS is another institution which could move quickly.	133705676	1475604978225	1475604978340	BKSP	8
262885	2815159	I wonder if RBS is another institution which could move quickly.	I wonder if RBS is another institution which could move quickly.	133705683	1475604979155	1475604979286	BKSP	8
262885	2815159	I wonder if RBS is another institution which could move quickly.	I wonder if RBS is another institution which could move quickly.	133705692	1475604979338	1475604979480	t	84
262885	2815159	I wonder if RBS is another institution which could move quickly.	I wonder if RBS is another institution which could move quickly.	133705784	1475604979464	1475604979599	i	73
262885	2815159	I wonder if RBS is another institution which could move quickly.	I wonder if RBS is another institution which could move quickly.	133705788	1475604980204	1475604980320	t	84
262885	2815159	I wonder if RBS is another institution which could move quickly.	I wonder if RBS is another institution which could move quickly.	133705793	1475604980860	1475604981019	u	85
262885	2815159	I wonder if RBS is another institution which could move quickly.	I wonder if RBS is another institution which could move quickly.	133705796	1475604981098	1475604981274	t	84
262885	2815159	I wonder if RBS is another institution which could move quickly.	I wonder if RBS is another institution which could move quickly.	133705800	1475604981200	1475604981422	i	73
262885	2815159	I wonder if RBS is another institution which could move quickly.	I wonder if RBS is another institution which could move quickly.	133705849	1475604981308	1475604981488	o	79
262885	2815159	I wonder if RBS is another institution which could move quickly.	I wonder if RBS is another institution which could move quickly.	133705851	1475604981628	1475604981755	n	78
262885	2815159	I wonder if RBS is another institution which could move quickly.	I wonder if RBS is another institution which could move quickly.	133705856	1475604981748	1475604981894	 	32
262885	2815159	I wonder if RBS is another institution which could move quickly.	I wonder if RBS is another institution which could move quickly.	133705862	1475604981918	1475604982076	w	87
262885	2815159	I wonder if RBS is another institution which could move quickly.	I wonder if RBS is another institution which could move quickly.	133705868	1475604981994	1475604982116	h	72
262885	2815159	I wonder if RBS is another institution which could move quickly.	I wonder if RBS is another institution which could move quickly.	133705874	1475604982171	1475604982348	i	73
262885	2815159	I wonder if RBS is another institution which could move quickly.	I wonder if RBS is another institution which could move quickly.	133705897	1475604982298	1475604982453	c	67
262885	2815159	I wonder if RBS is another institution which could move quickly.	I wonder if RBS is another institution which could move quickly.	133705906	1475604982459	1475604982616	h	72
262885	2815159	I wonder if RBS is another institution which could move quickly.	I wonder if RBS is another institution which could move quickly.	133705914	1475604982588	1475604982721	 	32
262885	2815159	I wonder if RBS is another institution which could move quickly.	I wonder if RBS is another institution which could move quickly.	133705926	1475604982755	1475604982947	c	67
262885	2815159	I wonder if RBS is another institution which could move quickly.	I wonder if RBS is another institution which could move quickly.	133706003	1475604982840	1475604982996	o	79
262885	2815159	I wonder if RBS is another institution which could move quickly.	I wonder if RBS is another institution which could move quickly.	133706008	1475604982936	1475604983078	u	85
262885	2815159	I wonder if RBS is another institution which could move quickly.	I wonder if RBS is another institution which could move quickly.	133706012	1475604983133	1475604983197	l	76
262885	2815159	I wonder if RBS is another institution which could move quickly.	I wonder if RBS is another institution which could move quickly.	133706017	1475604983658	1475604983829	d	68
262885	2815159	I wonder if RBS is another institution which could move quickly.	I wonder if RBS is another institution which could move quickly.	133706022	1475604983756	1475604983896	 	32
262885	2815159	I wonder if RBS is another institution which could move quickly.	I wonder if RBS is another institution which could move quickly.	133706025	1475604983932	1475604984138	m	77
262885	2815159	I wonder if RBS is another institution which could move quickly.	I wonder if RBS is another institution which could move quickly.	133706119	1475604984086	1475604984235	o	79
262885	2815159	I wonder if RBS is another institution which could move quickly.	I wonder if RBS is another institution which could move quickly.	133706124	1475604984190	1475604984342	b	66
262885	2815159	I wonder if RBS is another institution which could move quickly.	I wonder if RBS is another institution which could move quickly.	133706127	1475604984584	1475604984738	BKSP	8
262885	2815159	I wonder if RBS is another institution which could move quickly.	I wonder if RBS is another institution which could move quickly.	133706130	1475604984680	1475604984814	v	86
262885	2815159	I wonder if RBS is another institution which could move quickly.	I wonder if RBS is another institution which could move quickly.	133706132	1475604984820	1475604984976	e	69
262885	2815159	I wonder if RBS is another institution which could move quickly.	I wonder if RBS is another institution which could move quickly.	133706134	1475604984915	1475604985049	 	32
262885	2815159	I wonder if RBS is another institution which could move quickly.	I wonder if RBS is another institution which could move quickly.	133706136	1475604985202	1475604985364	q	81
262885	2815159	I wonder if RBS is another institution which could move quickly.	I wonder if RBS is another institution which could move quickly.	133706219	1475604985335	1475604985509	u	85
262885	2815159	I wonder if RBS is another institution which could move quickly.	I wonder if RBS is another institution which could move quickly.	133706223	1475604985514	1475604985698	i	73
262885	2815159	I wonder if RBS is another institution which could move quickly.	I wonder if RBS is another institution which could move quickly.	133706228	1475604985811	1475604985914	c	67
262885	2815159	I wonder if RBS is another institution which could move quickly.	I wonder if RBS is another institution which could move quickly.	133706235	1475604985835	1475604986002	k	75
262885	2815159	I wonder if RBS is another institution which could move quickly.	I wonder if RBS is another institution which could move quickly.	133706241	1475604986051	1475604986257	e	69
262885	2815159	I wonder if RBS is another institution which could move quickly.	I wonder if RBS is another institution which could move quickly.	133706248	1475604986651	1475604986777	BKSP	8
262885	2815159	I wonder if RBS is another institution which could move quickly.	I wonder if RBS is another institution which could move quickly.	133706254	1475604986843	1475604986947	e	76
262885	2815159	I wonder if RBS is another institution which could move quickly.	I wonder if RBS is another institution which could move quickly.	133706340	1475604987301	1475604987472	BKSP	8
262885	2815159	I wonder if RBS is another institution which could move quickly.	I wonder if RBS is another institution which could move quickly.	133706343	1475604987565	1475604987670	y	89
262885	2815159	I wonder if RBS is another institution which could move quickly.	I wonder if RBS is another institution which could move quickly.	133706346	1475604987838	1475604988084	.	190
262885	2815213	Let's have this meeting today or tonight.	Let's have this meeting today or tonight.	133706751	1475604991440	1475604991607	SHIFT	16
262885	2815213	Let's have this meeting today or tonight.	Let's have this meeting today or tonight.	133706755	1475604991502	1475604991657	L	76
262885	2815213	Let's have this meeting today or tonight.	Let's have this meeting today or tonight.	133706761	1475604991774	1475604991909	e	69
262885	2815213	Let's have this meeting today or tonight.	Let's have this meeting today or tonight.	133706769	1475604992299	1475604992418	t	84
262885	2815213	Let's have this meeting today or tonight.	Let's have this meeting today or tonight.	133706775	1475604992901	1475604993087	'	222
262885	2815213	Let's have this meeting today or tonight.	Let's have this meeting today or tonight.	133706831	1475604993072	1475604993182	s	83
262885	2815213	Let's have this meeting today or tonight.	Let's have this meeting today or tonight.	133706836	1475604993172	1475604993298	 	32
262885	2815213	Let's have this meeting today or tonight.	Let's have this meeting today or tonight.	133706843	1475604993309	1475604993468	h	72
262885	2815213	Let's have this meeting today or tonight.	Let's have this meeting today or tonight.	133706849	1475604993429	1475604993630	a	65
262885	2815213	Let's have this meeting today or tonight.	Let's have this meeting today or tonight.	133706858	1475604993545	1475604993729	v	86
262885	2815213	Let's have this meeting today or tonight.	Let's have this meeting today or tonight.	133706868	1475604993743	1475604993871	e	69
262885	2815213	Let's have this meeting today or tonight.	Let's have this meeting today or tonight.	133706882	1475604993798	1475604993926	 	32
262885	2815213	Let's have this meeting today or tonight.	Let's have this meeting today or tonight.	133706883	1475604993966	1475604994113	t	84
262885	2815213	Let's have this meeting today or tonight.	Let's have this meeting today or tonight.	133706886	1475604994003	1475604994146	h	72
262885	2815213	Let's have this meeting today or tonight.	Let's have this meeting today or tonight.	133706888	1475604994195	1475604994348	i	73
262885	2815213	Let's have this meeting today or tonight.	Let's have this meeting today or tonight.	133706892	1475604994315	1475604994506	s	83
262885	2815213	Let's have this meeting today or tonight.	Let's have this meeting today or tonight.	133706933	1475604994418	1475604994552	 	32
262885	2815213	Let's have this meeting today or tonight.	Let's have this meeting today or tonight.	133706941	1475604994577	1475604994803	m	77
262885	2815213	Let's have this meeting today or tonight.	Let's have this meeting today or tonight.	133706946	1475604994725	1475604994864	e	69
262885	2815213	Let's have this meeting today or tonight.	Let's have this meeting today or tonight.	133706954	1475604994913	1475604995030	e	69
262885	2815213	Let's have this meeting today or tonight.	Let's have this meeting today or tonight.	133706960	1475604995014	1475604995181	t	84
262885	2815213	Let's have this meeting today or tonight.	Let's have this meeting today or tonight.	133707117	1475604995131	1475604995191	i	74
262885	2815213	Let's have this meeting today or tonight.	Let's have this meeting today or tonight.	133707121	1475604995264	1475604995432	n	78
262885	2815213	Let's have this meeting today or tonight.	Let's have this meeting today or tonight.	133707127	1475604995388	1475604995530	g	71
262885	2815213	Let's have this meeting today or tonight.	Let's have this meeting today or tonight.	133707136	1475604995664	1475604995789	BKSP	8
262885	2815213	Let's have this meeting today or tonight.	Let's have this meeting today or tonight.	133707142	1475604995853	1475604995957	BKSP	8
262885	2815213	Let's have this meeting today or tonight.	Let's have this meeting today or tonight.	133707147	1475604996011	1475604996135	BKSP	8
262885	2815213	Let's have this meeting today or tonight.	Let's have this meeting today or tonight.	133707158	1475604996183	1475604996317	BKSP	8
262885	2815213	Let's have this meeting today or tonight.	Let's have this meeting today or tonight.	133707164	1475604997058	1475604997234	i	73
262885	2815213	Let's have this meeting today or tonight.	Let's have this meeting today or tonight.	133707171	1475604997140	1475604997323	n	78
262885	2815213	Let's have this meeting today or tonight.	Let's have this meeting today or tonight.	133707182	1475604997410	1475604997508	 	32
262885	2815213	Let's have this meeting today or tonight.	Let's have this meeting today or tonight.	133707235	1475604997705	1475604997857	BKSP	8
262885	2815213	Let's have this meeting today or tonight.	Let's have this meeting today or tonight.	133707238	1475604997813	1475604997980	g	71
262885	2815213	Let's have this meeting today or tonight.	Let's have this meeting today or tonight.	133707243	1475604997929	1475604998072	 	32
262885	2815213	Let's have this meeting today or tonight.	Let's have this meeting today or tonight.	133707248	1475604998185	1475604998328	t	84
262885	2815213	Let's have this meeting today or tonight.	Let's have this meeting today or tonight.	133707255	1475604998239	1475604998386	o	79
262885	2815213	Let's have this meeting today or tonight.	Let's have this meeting today or tonight.	133707266	1475604998414	1475604998573	d	68
262885	2815213	Let's have this meeting today or tonight.	Let's have this meeting today or tonight.	133707424	1475604999021	1475604999126	a	65
262885	2815213	Let's have this meeting today or tonight.	Let's have this meeting today or tonight.	133707434	1475604999238	1475604999322	 	32
262885	2815213	Let's have this meeting today or tonight.	Let's have this meeting today or tonight.	133707444	1475604999581	1475604999748	BKSP	8
262885	2815213	Let's have this meeting today or tonight.	Let's have this meeting today or tonight.	133707454	1475604999719	1475604999898	y	89
262885	2815213	Let's have this meeting today or tonight.	Let's have this meeting today or tonight.	133707460	1475604999850	1475604999971	 	32
262885	2815213	Let's have this meeting today or tonight.	Let's have this meeting today or tonight.	133707465	1475605000008	1475605000197	o	79
262885	2815213	Let's have this meeting today or tonight.	Let's have this meeting today or tonight.	133707507	1475605000167	1475605000323	r	82
262885	2815213	Let's have this meeting today or tonight.	Let's have this meeting today or tonight.	133707513	1475605000225	1475605000380	 	32
262885	2815213	Let's have this meeting today or tonight.	Let's have this meeting today or tonight.	133707519	1475605000475	1475605000666	t	84
262885	2815213	Let's have this meeting today or tonight.	Let's have this meeting today or tonight.	133707526	1475605000651	1475605000887	o	79
262885	2815213	Let's have this meeting today or tonight.	Let's have this meeting today or tonight.	133707532	1475605000783	1475605000984	n	78
262885	2815213	Let's have this meeting today or tonight.	Let's have this meeting today or tonight.	133707633	1475605000963	1475605001116	i	73
262885	2815213	Let's have this meeting today or tonight.	Let's have this meeting today or tonight.	133707639	1475605001101	1475605001283	g	71
262885	2815213	Let's have this meeting today or tonight.	Let's have this meeting today or tonight.	133707653	1475605001268	1475605001414	h	72
262885	2815213	Let's have this meeting today or tonight.	Let's have this meeting today or tonight.	133707647	1475605001293	1475605001363	g	71
262885	2815213	Let's have this meeting today or tonight.	Let's have this meeting today or tonight.	133707659	1475605001740	1475605001882	BKSP	8
262885	2815213	Let's have this meeting today or tonight.	Let's have this meeting today or tonight.	133707662	1475605001865	1475605002033	t	84
262885	2815213	Let's have this meeting today or tonight.	Let's have this meeting today or tonight.	133707664	1475605002062	1475605002111	 	32
262885	2815213	Let's have this meeting today or tonight.	Let's have this meeting today or tonight.	133707705	1475605002475	1475605002616	BKSP	8
262885	2815213	Let's have this meeting today or tonight.	Let's have this meeting today or tonight.	133707710	1475605002716	1475605002984	.	190
262885	2815240	When I do, we will eat.	When I do, we will eat. 	133708154	1475605007468	1475605007764	SHIFT	16
262885	2815240	When I do, we will eat.	When I do, we will eat. 	133708152	1475605007572	1475605007738	W	87
262885	2815240	When I do, we will eat.	When I do, we will eat. 	133708156	1475605007971	1475605008062	e	69
262885	2815240	When I do, we will eat.	When I do, we will eat. 	133708161	1475605008312	1475605008458	BKSP	8
262885	2815240	When I do, we will eat.	When I do, we will eat. 	133708165	1475605008472	1475605008567	h	72
262885	2815240	When I do, we will eat.	When I do, we will eat. 	133708173	1475605008503	1475605008628	e	69
262885	2815240	When I do, we will eat.	When I do, we will eat. 	133708295	1475605008686	1475605008845	 	78
262885	2815240	When I do, we will eat.	When I do, we will eat. 	133708302	1475605009255	1475605009439	SHIFT	16
262885	2815240	When I do, we will eat.	When I do, we will eat. 	133708309	1475605009303	1475605009477	I	73
262885	2815240	When I do, we will eat.	When I do, we will eat. 	133708315	1475605009484	1475605009595	 	32
262885	2815240	When I do, we will eat.	When I do, we will eat. 	133708320	1475605009652	1475605009792	d	68
262885	2815240	When I do, we will eat.	When I do, we will eat. 	133708325	1475605009754	1475605009919	o	79
262885	2815240	When I do, we will eat.	When I do, we will eat. 	133708329	1475605010156	1475605010312	,	188
262885	2815240	When I do, we will eat.	When I do, we will eat. 	133708374	1475605010378	1475605010461	 	32
262885	2815240	When I do, we will eat.	When I do, we will eat. 	133708378	1475605010540	1475605010708	w	87
262885	2815240	When I do, we will eat.	When I do, we will eat. 	133708380	1475605010684	1475605010839	e	69
262885	2815240	When I do, we will eat.	When I do, we will eat. 	133708384	1475605010819	1475605010953	 	32
262885	2815240	When I do, we will eat.	When I do, we will eat. 	133708387	1475605011062	1475605011195	w	87
262885	2815240	When I do, we will eat.	When I do, we will eat. 	133708456	1475605011181	1475605011334	i	73
262885	2815240	When I do, we will eat.	When I do, we will eat. 	133708460	1475605011358	1475605011452	l	76
262885	2815240	When I do, we will eat.	When I do, we will eat. 	133708466	1475605011510	1475605011699	l	76
262885	2815240	When I do, we will eat.	When I do, we will eat. 	133708471	1475605011642	1475605011766	 	32
262885	2815240	When I do, we will eat.	When I do, we will eat. 	133708479	1475605011861	1475605011942	w	87
262885	2815240	When I do, we will eat.	When I do, we will eat. 	133708489	1475605012176	1475605012349	a	65
262885	2815240	When I do, we will eat.	When I do, we will eat. 	133708581	1475605012506	1475605012606	BKSP	8
262885	2815240	When I do, we will eat.	When I do, we will eat. 	133708586	1475605012670	1475605012796	e	8
262885	2815240	When I do, we will eat.	When I do, we will eat. 	133708591	1475605012866	1475605012930	s	83
262885	2815240	When I do, we will eat.	When I do, we will eat. 	133708595	1475605012905	1475605013107	a	65
262885	2815240	When I do, we will eat.	When I do, we will eat. 	133708599	1475605013068	1475605013224	t	84
262885	2815240	When I do, we will eat.	When I do, we will eat. 	133708603	1475605013342	1475605013441	BKSP	8
262885	2815240	When I do, we will eat.	When I do, we will eat. 	133708610	1475605013499	1475605013585	BKSP	8
262885	2815240	When I do, we will eat.	When I do, we will eat. 	133708616	1475605013603	1475605013762	BKSP	8
262885	2815240	When I do, we will eat.	When I do, we will eat. 	133708658	1475605013708	1475605013873	a	65
262885	2815240	When I do, we will eat.	When I do, we will eat. 	133708661	1475605013767	1475605013912	t	84
262885	2815240	When I do, we will eat.	When I do, we will eat. 	133708665	1475605014049	1475605014198	.	190
262885	2815240	When I do, we will eat.	When I do, we will eat. 	133708670	1475605014306	1475605014422	 	32
262885	2815254	Please make sure Bob Kelley is on the list.	Please make sure Bob Kelley is on the list. 	133709130	1475605018788	1475605018952	SHIFT	16
262885	2815254	Please make sure Bob Kelley is on the list.	Please make sure Bob Kelley is on the list. 	133709137	1475605018855	1475605019010	P	80
262885	2815254	Please make sure Bob Kelley is on the list.	Please make sure Bob Kelley is on the list. 	133709143	1475605019089	1475605019309	l	76
262885	2815254	Please make sure Bob Kelley is on the list.	Please make sure Bob Kelley is on the list. 	133709147	1475605019222	1475605019327	e	69
262885	2815254	Please make sure Bob Kelley is on the list.	Please make sure Bob Kelley is on the list. 	133709149	1475605019451	1475605019601	s	83
262885	2815254	Please make sure Bob Kelley is on the list.	Please make sure Bob Kelley is on the list. 	133709153	1475605019802	1475605019939	BKSP	8
262885	2815254	Please make sure Bob Kelley is on the list.	Please make sure Bob Kelley is on the list. 	133709182	1475605019909	1475605020064	a	65
262885	2815254	Please make sure Bob Kelley is on the list.	Please make sure Bob Kelley is on the list. 	133709186	1475605020024	1475605020202	s	83
262885	2815254	Please make sure Bob Kelley is on the list.	Please make sure Bob Kelley is on the list. 	133709192	1475605020210	1475605020387	e	69
262885	2815254	Please make sure Bob Kelley is on the list.	Please make sure Bob Kelley is on the list. 	133709195	1475605020361	1475605020476	 	32
262885	2815254	Please make sure Bob Kelley is on the list.	Please make sure Bob Kelley is on the list. 	133709200	1475605020509	1475605020693	m	77
262885	2815254	Please make sure Bob Kelley is on the list.	Please make sure Bob Kelley is on the list. 	133709273	1475605020639	1475605020809	a	65
262885	2815254	Please make sure Bob Kelley is on the list.	Please make sure Bob Kelley is on the list. 	133709277	1475605020726	1475605020873	k	75
262885	2815254	Please make sure Bob Kelley is on the list.	Please make sure Bob Kelley is on the list. 	133709280	1475605021094	1475605021227	e	69
262885	2815254	Please make sure Bob Kelley is on the list.	Please make sure Bob Kelley is on the list. 	133709284	1475605021207	1475605021333	 	32
262885	2815254	Please make sure Bob Kelley is on the list.	Please make sure Bob Kelley is on the list. 	133709287	1475605021319	1475605021543	s	83
262885	2815254	Please make sure Bob Kelley is on the list.	Please make sure Bob Kelley is on the list. 	133709289	1475605021623	1475605021715	u	85
262885	2815254	Please make sure Bob Kelley is on the list.	Please make sure Bob Kelley is on the list. 	133709383	1475605021770	1475605021916	r	82
262885	2815254	Please make sure Bob Kelley is on the list.	Please make sure Bob Kelley is on the list. 	133709389	1475605022335	1475605022481	e	69
262885	2815254	Please make sure Bob Kelley is on the list.	Please make sure Bob Kelley is on the list. 	133709392	1475605022423	1475605022517	 	32
262885	2815254	Please make sure Bob Kelley is on the list.	Please make sure Bob Kelley is on the list. 	133709408	1475605022629	1475605022896	SHIFT	16
262885	2815254	Please make sure Bob Kelley is on the list.	Please make sure Bob Kelley is on the list. 	133709401	1475605022751	1475605022893	B	66
262885	2815254	Please make sure Bob Kelley is on the list.	Please make sure Bob Kelley is on the list. 	133709415	1475605023014	1475605023146	o	79
262885	2815254	Please make sure Bob Kelley is on the list.	Please make sure Bob Kelley is on the list. 	133709477	1475605023221	1475605023373	b	66
262885	2815254	Please make sure Bob Kelley is on the list.	Please make sure Bob Kelley is on the list. 	133709486	1475605023377	1475605023494	 	32
262885	2815254	Please make sure Bob Kelley is on the list.	Please make sure Bob Kelley is on the list. 	133709495	1475605023698	1475605023894	SHIFT	16
262885	2815254	Please make sure Bob Kelley is on the list.	Please make sure Bob Kelley is on the list. 	133709503	1475605023756	1475605023945	K	75
262885	2815254	Please make sure Bob Kelley is on the list.	Please make sure Bob Kelley is on the list. 	133709512	1475605023927	1475605024068	e	69
262885	2815254	Please make sure Bob Kelley is on the list.	Please make sure Bob Kelley is on the list. 	133709520	1475605024083	1475605024168	l	76
262885	2815254	Please make sure Bob Kelley is on the list.	Please make sure Bob Kelley is on the list. 	133709617	1475605024223	1475605024419	l	76
262885	2815254	Please make sure Bob Kelley is on the list.	Please make sure Bob Kelley is on the list. 	133709622	1475605024409	1475605024610	e	69
262885	2815254	Please make sure Bob Kelley is on the list.	Please make sure Bob Kelley is on the list. 	133709626	1475605024620	1475605024672	t	84
262885	2815254	Please make sure Bob Kelley is on the list.	Please make sure Bob Kelley is on the list. 	133709631	1475605024768	1475605024878	y	89
262885	2815254	Please make sure Bob Kelley is on the list.	Please make sure Bob Kelley is on the list. 	133709636	1475605025060	1475605025174	BKSP	8
262885	2815254	Please make sure Bob Kelley is on the list.	Please make sure Bob Kelley is on the list. 	133709642	1475605025228	1475605025390	BKSP	8
262885	2815254	Please make sure Bob Kelley is on the list.	Please make sure Bob Kelley is on the list. 	133709648	1475605025515	1475605025587	 	32
262885	2815254	Please make sure Bob Kelley is on the list.	Please make sure Bob Kelley is on the list. 	133709701	1475605025838	1475605026005	BKSP	8
262885	2815254	Please make sure Bob Kelley is on the list.	Please make sure Bob Kelley is on the list. 	133709709	1475605025970	1475605026116	y	89
262885	2815254	Please make sure Bob Kelley is on the list.	Please make sure Bob Kelley is on the list. 	133709714	1475605026122	1475605026230	 	32
262885	2815254	Please make sure Bob Kelley is on the list.	Please make sure Bob Kelley is on the list. 	133709771	1475605026233	1475605026482	i	73
262885	2815254	Please make sure Bob Kelley is on the list.	Please make sure Bob Kelley is on the list. 	133709724	1475605026346	1475605026479	s	83
262885	2815254	Please make sure Bob Kelley is on the list.	Please make sure Bob Kelley is on the list. 	133709778	1475605026427	1475605026555	 	32
262885	2815254	Please make sure Bob Kelley is on the list.	Please make sure Bob Kelley is on the list. 	133709787	1475605026598	1475605026801	o	79
262885	2815254	Please make sure Bob Kelley is on the list.	Please make sure Bob Kelley is on the list. 	133709795	1475605026690	1475605026888	n	78
262885	2815254	Please make sure Bob Kelley is on the list.	Please make sure Bob Kelley is on the list. 	133709803	1475605026877	1475605027021	 	32
262885	2815254	Please make sure Bob Kelley is on the list.	Please make sure Bob Kelley is on the list. 	133709814	1475605027032	1475605027182	t	84
262885	2815254	Please make sure Bob Kelley is on the list.	Please make sure Bob Kelley is on the list. 	133709859	1475605027137	1475605027267	h	72
262885	2815254	Please make sure Bob Kelley is on the list.	Please make sure Bob Kelley is on the list. 	133709862	1475605027246	1475605027371	e	69
262885	2815254	Please make sure Bob Kelley is on the list.	Please make sure Bob Kelley is on the list. 	133709866	1475605027331	1475605027438	 	32
262885	2815254	Please make sure Bob Kelley is on the list.	Please make sure Bob Kelley is on the list. 	133709870	1475605027466	1475605027673	l	76
262885	2815254	Please make sure Bob Kelley is on the list.	Please make sure Bob Kelley is on the list. 	133709875	1475605027622	1475605027780	i	73
262885	2815254	Please make sure Bob Kelley is on the list.	Please make sure Bob Kelley is on the list. 	133709928	1475605027725	1475605027888	s	83
262885	2815254	Please make sure Bob Kelley is on the list.	Please make sure Bob Kelley is on the list. 	133709931	1475605027921	1475605028046	t	84
262885	2815254	Please make sure Bob Kelley is on the list.	Please make sure Bob Kelley is on the list. 	133709935	1475605028064	1475605028266	.	190
262885	2815254	Please make sure Bob Kelley is on the list.	Please make sure Bob Kelley is on the list. 	133709937	1475605028296	1475605028375	 	32
262885	2815279	Don't know how that happened.	Don't know how that happened.	133710328	1475605033096	1475605033363	SHIFT	16
262885	2815279	Don't know how that happened.	Don't know how that happened.	133710331	1475605033260	1475605033424	D	68
262885	2815279	Don't know how that happened.	Don't know how that happened.	133710334	1475605033415	1475605033604	o	79
262885	2815279	Don't know how that happened.	Don't know how that happened.	133710338	1475605033581	1475605033773	n	78
262885	2815279	Don't know how that happened.	Don't know how that happened.	133710341	1475605034012	1475605034226	'	222
262885	2815279	Don't know how that happened.	Don't know how that happened.	133710401	1475605034150	1475605034286	t	84
262885	2815279	Don't know how that happened.	Don't know how that happened.	133710407	1475605034453	1475605034603	 	32
262885	2815279	Don't know how that happened.	Don't know how that happened.	133710414	1475605034762	1475605034996	k	75
262885	2815279	Don't know how that happened.	Don't know how that happened.	133710417	1475605034918	1475605035133	n	78
262885	2815279	Don't know how that happened.	Don't know how that happened.	133710573	1475605035072	1475605035295	o	79
262885	2815279	Don't know how that happened.	Don't know how that happened.	133710425	1475605035170	1475605035259	w	87
262885	2815279	Don't know how that happened.	Don't know how that happened.	133710577	1475605035249	1475605035406	 	32
262885	2815279	Don't know how that happened.	Don't know how that happened.	133710581	1475605035562	1475605035663	t	84
262885	2815279	Don't know how that happened.	Don't know how that happened.	133710585	1475605035917	1475605035980	BKSP	8
262885	2815279	Don't know how that happened.	Don't know how that happened.	133710587	1475605036080	1475605036183	BKSP	8
262885	2815279	Don't know how that happened.	Don't know how that happened.	133710589	1475605036510	1475605036613	 	32
262885	2815279	Don't know how that happened.	Don't know how that happened.	133710590	1475605036669	1475605036828	h	72
262885	2815279	Don't know how that happened.	Don't know how that happened.	133710591	1475605036840	1475605037027	o	79
262885	2815279	Don't know how that happened.	Don't know how that happened.	133710592	1475605037087	1475605037276	w	87
262885	2815279	Don't know how that happened.	Don't know how that happened.	133710607	1475605037195	1475605037359	 	32
262885	2815279	Don't know how that happened.	Don't know how that happened.	133710612	1475605037380	1475605037528	t	84
262885	2815279	Don't know how that happened.	Don't know how that happened.	133710620	1475605037420	1475605037555	h	72
262885	2815279	Don't know how that happened.	Don't know how that happened.	133710629	1475605037542	1475605037704	a	65
262885	2815279	Don't know how that happened.	Don't know how that happened.	133710635	1475605037656	1475605037790	 	32
262885	2815279	Don't know how that happened.	Don't know how that happened.	133710642	1475605037879	1475605037996	h	72
262885	2815279	Don't know how that happened.	Don't know how that happened.	133710710	1475605038159	1475605038246	BKSP	8
262885	2815279	Don't know how that happened.	Don't know how that happened.	133710714	1475605038326	1475605038478	BKSP	8
262885	2815279	Don't know how that happened.	Don't know how that happened.	133710721	1475605038448	1475605038588	t	84
262885	2815279	Don't know how that happened.	Don't know how that happened.	133710724	1475605038524	1475605038637	 	32
262885	2815279	Don't know how that happened.	Don't know how that happened.	133710730	1475605038668	1475605038821	h	72
262885	2815279	Don't know how that happened.	Don't know how that happened.	133710736	1475605038885	1475605039026	a	65
262885	2815279	Don't know how that happened.	Don't know how that happened.	133710743	1475605039059	1475605039141	p	80
262885	2815279	Don't know how that happened.	Don't know how that happened.	133710855	1475605039254	1475605039347	p	80
262885	2815279	Don't know how that happened.	Don't know how that happened.	133710859	1475605039435	1475605039551	e	69
262885	2815279	Don't know how that happened.	Don't know how that happened.	133710870	1475605039502	1475605039662	n	78
262885	2815279	Don't know how that happened.	Don't know how that happened.	133710878	1475605039800	1475605039897	e	69
262885	2815279	Don't know how that happened.	Don't know how that happened.	133710885	1475605040871	1475605040947	e	69
262885	2815279	Don't know how that happened.	Don't know how that happened.	133711017	1475605041027	1475605041153	d	68
262885	2815279	Don't know how that happened.	Don't know how that happened.	133711027	1475605041156	1475605041269	 	32
262885	2815279	Don't know how that happened.	Don't know how that happened.	133711036	1475605041465	1475605041578	BKSP	8
262885	2815279	Don't know how that happened.	Don't know how that happened.	133711044	1475605041624	1475605041706	BKSP	8
262885	2815279	Don't know how that happened.	Don't know how that happened.	133711048	1475605041770	1475605041895	BKSP	8
262885	2815279	Don't know how that happened.	Don't know how that happened.	133711053	1475605041859	1475605041962	d	68
262885	2815279	Don't know how that happened.	Don't know how that happened.	133711055	1475605041975	1475605042082	 	32
262885	2815279	Don't know how that happened.	Don't know how that happened.	133711057	1475605042362	1475605042453	BKSP	8
262885	2815279	Don't know how that happened.	Don't know how that happened.	133711059	1475605042616	1475605042793	.	190
262885	2815309	Chase back office and their restart plan updates individually.	Chase back office and their restart plan updates individually.	133711529	1475605047434	1475605047681	SHIFT	16
262885	2815309	Chase back office and their restart plan updates individually.	Chase back office and their restart plan updates individually.	133711538	1475605047566	1475605047724	C	67
262885	2815309	Chase back office and their restart plan updates individually.	Chase back office and their restart plan updates individually.	133711546	1475605047707	1475605047828	h	72
262885	2815309	Chase back office and their restart plan updates individually.	Chase back office and their restart plan updates individually.	133711554	1475605047846	1475605048020	a	65
262885	2815309	Chase back office and their restart plan updates individually.	Chase back office and their restart plan updates individually.	133711563	1475605048206	1475605048364	s	83
262885	2815309	Chase back office and their restart plan updates individually.	Chase back office and their restart plan updates individually.	133711571	1475605048373	1475605048507	e	69
262885	2815309	Chase back office and their restart plan updates individually.	Chase back office and their restart plan updates individually.	133711723	1475605048462	1475605048581	 	32
262885	2815309	Chase back office and their restart plan updates individually.	Chase back office and their restart plan updates individually.	133711730	1475605048657	1475605048768	v	86
262885	2815309	Chase back office and their restart plan updates individually.	Chase back office and their restart plan updates individually.	133711745	1475605048807	1475605048987	a	65
262885	2815309	Chase back office and their restart plan updates individually.	Chase back office and their restart plan updates individually.	133711758	1475605049219	1475605049332	BKSP	8
262885	2815309	Chase back office and their restart plan updates individually.	Chase back office and their restart plan updates individually.	133711767	1475605049380	1475605049531	BKSP	8
262885	2815309	Chase back office and their restart plan updates individually.	Chase back office and their restart plan updates individually.	133711777	1475605049429	1475605049597	b	66
262885	2815309	Chase back office and their restart plan updates individually.	Chase back office and their restart plan updates individually.	133711788	1475605049561	1475605049771	a	65
262885	2815309	Chase back office and their restart plan updates individually.	Chase back office and their restart plan updates individually.	133711798	1475605049976	1475605050142	c	67
262885	2815309	Chase back office and their restart plan updates individually.	Chase back office and their restart plan updates individually.	133711841	1475605050250	1475605050457	k	75
262885	2815309	Chase back office and their restart plan updates individually.	Chase back office and their restart plan updates individually.	133711849	1475605050418	1475605050564	 	32
262885	2815309	Chase back office and their restart plan updates individually.	Chase back office and their restart plan updates individually.	133711855	1475605050647	1475605050788	o	79
262885	2815309	Chase back office and their restart plan updates individually.	Chase back office and their restart plan updates individually.	133711860	1475605050779	1475605050863	f	70
262885	2815309	Chase back office and their restart plan updates individually.	Chase back office and their restart plan updates individually.	133711862	1475605050921	1475605051048	f	70
262885	2815309	Chase back office and their restart plan updates individually.	Chase back office and their restart plan updates individually.	133711933	1475605051038	1475605051170	i	73
262885	2815309	Chase back office and their restart plan updates individually.	Chase back office and their restart plan updates individually.	133711936	1475605051319	1475605051423	c	67
262885	2815309	Chase back office and their restart plan updates individually.	Chase back office and their restart plan updates individually.	133711938	1475605051505	1475605051616	e	69
262885	2815309	Chase back office and their restart plan updates individually.	Chase back office and their restart plan updates individually.	133711940	1475605051617	1475605051747	 	32
262885	2815309	Chase back office and their restart plan updates individually.	Chase back office and their restart plan updates individually.	133711941	1475605051742	1475605051900	a	65
262885	2815309	Chase back office and their restart plan updates individually.	Chase back office and their restart plan updates individually.	133711978	1475605051795	1475605051982	n	78
262885	2815309	Chase back office and their restart plan updates individually.	Chase back office and their restart plan updates individually.	133711983	1475605051904	1475605052098	d	68
262885	2815309	Chase back office and their restart plan updates individually.	Chase back office and their restart plan updates individually.	133711990	1475605051985	1475605052122	 	32
262885	2815309	Chase back office and their restart plan updates individually.	Chase back office and their restart plan updates individually.	133711995	1475605052174	1475605052305	t	84
262885	2815309	Chase back office and their restart plan updates individually.	Chase back office and their restart plan updates individually.	133712004	1475605052214	1475605052339	h	72
262885	2815309	Chase back office and their restart plan updates individually.	Chase back office and their restart plan updates individually.	133712017	1475605052513	1475605052713	e	69
262885	2815309	Chase back office and their restart plan updates individually.	Chase back office and their restart plan updates individually.	133712069	1475605052629	1475605052781	i	73
262885	2815309	Chase back office and their restart plan updates individually.	Chase back office and their restart plan updates individually.	133712071	1475605052762	1475605052920	r	82
262885	2815309	Chase back office and their restart plan updates individually.	Chase back office and their restart plan updates individually.	133712075	1475605052872	1475605052994	 	32
262885	2815309	Chase back office and their restart plan updates individually.	Chase back office and their restart plan updates individually.	133712086	1475605053139	1475605053309	r	82
262885	2815309	Chase back office and their restart plan updates individually.	Chase back office and their restart plan updates individually.	133712094	1475605053259	1475605053411	e	69
262885	2815309	Chase back office and their restart plan updates individually.	Chase back office and their restart plan updates individually.	133712104	1475605053447	1475605053597	a	65
262885	2815309	Chase back office and their restart plan updates individually.	Chase back office and their restart plan updates individually.	133712209	1475605053603	1475605053691	s	83
262885	2815309	Chase back office and their restart plan updates individually.	Chase back office and their restart plan updates individually.	133712212	1475605053832	1475605053931	BKSP	8
262885	2815309	Chase back office and their restart plan updates individually.	Chase back office and their restart plan updates individually.	133712215	1475605053989	1475605054143	BKSP	8
262885	2815309	Chase back office and their restart plan updates individually.	Chase back office and their restart plan updates individually.	133712223	1475605054023	1475605054196	s	83
262885	2815309	Chase back office and their restart plan updates individually.	Chase back office and their restart plan updates individually.	133712233	1475605054185	1475605054307	t	84
262885	2815309	Chase back office and their restart plan updates individually.	Chase back office and their restart plan updates individually.	133712245	1475605054475	1475605054572	r	82
262885	2815309	Chase back office and their restart plan updates individually.	Chase back office and their restart plan updates individually.	133712260	1475605054847	1475605054987	BKSP	8
262885	2815309	Chase back office and their restart plan updates individually.	Chase back office and their restart plan updates individually.	133712300	1475605054929	1475605055165	a	65
262885	2815309	Chase back office and their restart plan updates individually.	Chase back office and their restart plan updates individually.	133712304	1475605055029	1475605055191	r	82
262885	2815309	Chase back office and their restart plan updates individually.	Chase back office and their restart plan updates individually.	133712308	1475605055280	1475605055419	t	84
262885	2815309	Chase back office and their restart plan updates individually.	Chase back office and their restart plan updates individually.	133712312	1475605055406	1475605055556	 	32
262885	2815309	Chase back office and their restart plan updates individually.	Chase back office and their restart plan updates individually.	133712315	1475605055644	1475605055828	p	80
262885	2815309	Chase back office and their restart plan updates individually.	Chase back office and their restart plan updates individually.	133712391	1475605055819	1475605056060	l	76
262885	2815309	Chase back office and their restart plan updates individually.	Chase back office and their restart plan updates individually.	133712395	1475605055975	1475605056183	a	65
262885	2815309	Chase back office and their restart plan updates individually.	Chase back office and their restart plan updates individually.	133712401	1475605056057	1475605056224	n	78
262885	2815309	Chase back office and their restart plan updates individually.	Chase back office and their restart plan updates individually.	133712405	1475605056253	1475605056427	 	32
262885	2815309	Chase back office and their restart plan updates individually.	Chase back office and their restart plan updates individually.	133712407	1475605056445	1475605056568	u	85
262885	2815309	Chase back office and their restart plan updates individually.	Chase back office and their restart plan updates individually.	133712414	1475605056721	1475605056909	p	80
262885	2815309	Chase back office and their restart plan updates individually.	Chase back office and their restart plan updates individually.	133712534	1475605056888	1475605057032	s	83
262885	2815309	Chase back office and their restart plan updates individually.	Chase back office and their restart plan updates individually.	133712540	1475605057329	1475605057488	BKSP	8
262885	2815309	Chase back office and their restart plan updates individually.	Chase back office and their restart plan updates individually.	133712547	1475605057446	1475605057601	d	68
262885	2815309	Chase back office and their restart plan updates individually.	Chase back office and their restart plan updates individually.	133712555	1475605057587	1475605057846	a	65
262885	2815309	Chase back office and their restart plan updates individually.	Chase back office and their restart plan updates individually.	133712559	1475605057966	1475605058128	t	84
262885	2815309	Chase back office and their restart plan updates individually.	Chase back office and their restart plan updates individually.	133712562	1475605058131	1475605058244	u	85
262885	2815309	Chase back office and their restart plan updates individually.	Chase back office and their restart plan updates individually.	133712567	1475605058439	1475605058582	BKSP	8
262885	2815309	Chase back office and their restart plan updates individually.	Chase back office and their restart plan updates individually.	133712587	1475605058543	1475605058690	e	69
262885	2815309	Chase back office and their restart plan updates individually.	Chase back office and their restart plan updates individually.	133712591	1475605058726	1475605058881	s	83
262885	2815309	Chase back office and their restart plan updates individually.	Chase back office and their restart plan updates individually.	133712598	1475605058843	1475605058933	 	32
262885	2815309	Chase back office and their restart plan updates individually.	Chase back office and their restart plan updates individually.	133712606	1475605058952	1475605059150	i	73
262885	2815309	Chase back office and their restart plan updates individually.	Chase back office and their restart plan updates individually.	133712614	1475605059072	1475605059232	n	78
262885	2815309	Chase back office and their restart plan updates individually.	Chase back office and their restart plan updates individually.	133712695	1475605059208	1475605059364	d	68
262885	2815309	Chase back office and their restart plan updates individually.	Chase back office and their restart plan updates individually.	133712699	1475605059428	1475605059501	u	85
262885	2815309	Chase back office and their restart plan updates individually.	Chase back office and their restart plan updates individually.	133712702	1475605059882	1475605060082	BKSP	8
262885	2815309	Chase back office and their restart plan updates individually.	Chase back office and their restart plan updates individually.	133712705	1475605060031	1475605060271	i	73
262885	2815309	Chase back office and their restart plan updates individually.	Chase back office and their restart plan updates individually.	133712709	1475605060217	1475605060390	v	86
262885	2815309	Chase back office and their restart plan updates individually.	Chase back office and their restart plan updates individually.	133712712	1475605060350	1475605060517	i	73
262885	2815309	Chase back office and their restart plan updates individually.	Chase back office and their restart plan updates individually.	133712812	1475605060503	1475605060699	d	68
262885	2815309	Chase back office and their restart plan updates individually.	Chase back office and their restart plan updates individually.	133712817	1475605060741	1475605060858	u	85
262885	2815309	Chase back office and their restart plan updates individually.	Chase back office and their restart plan updates individually.	133712822	1475605060912	1475605060979	l	76
262885	2815309	Chase back office and their restart plan updates individually.	Chase back office and their restart plan updates individually.	133712826	1475605061315	1475605061463	BKSP	8
262885	2815309	Chase back office and their restart plan updates individually.	Chase back office and their restart plan updates individually.	133712831	1475605061471	1475605061605	a	65
262885	2815309	Chase back office and their restart plan updates individually.	Chase back office and their restart plan updates individually.	133712839	1475605061575	1475605061651	l	76
262885	2815309	Chase back office and their restart plan updates individually.	Chase back office and their restart plan updates individually.	133712845	1475605061736	1475605061847	l	76
262885	2815309	Chase back office and their restart plan updates individually.	Chase back office and their restart plan updates individually.	133712910	1475605062158	1475605062254	y	89
262885	2815309	Chase back office and their restart plan updates individually.	Chase back office and their restart plan updates individually.	133712915	1475605062361	1475605062574	.	190
262885	2815346	Met with partners in San Francisco.	Met with partners in San Francisco.	133713385	1475605067755	1475605067935	SHIFT	16
262885	2815346	Met with partners in San Francisco.	Met with partners in San Francisco.	133713391	1475605067811	1475605067994	M	77
262885	2815346	Met with partners in San Francisco.	Met with partners in San Francisco.	133713398	1475605067959	1475605068115	e	69
262885	2815346	Met with partners in San Francisco.	Met with partners in San Francisco.	133713405	1475605068184	1475605068325	t	84
262885	2815346	Met with partners in San Francisco.	Met with partners in San Francisco.	133713413	1475605068314	1475605068447	 	32
262885	2815346	Met with partners in San Francisco.	Met with partners in San Francisco.	133713416	1475605068579	1475605068742	w	87
262885	2815346	Met with partners in San Francisco.	Met with partners in San Francisco.	133713455	1475605068815	1475605068976	i	73
262885	2815346	Met with partners in San Francisco.	Met with partners in San Francisco.	133713463	1475605068961	1475605069086	t	84
262885	2815346	Met with partners in San Francisco.	Met with partners in San Francisco.	133713472	1475605069028	1475605069147	h	72
262885	2815346	Met with partners in San Francisco.	Met with partners in San Francisco.	133713478	1475605069141	1475605069272	 	32
262885	2815346	Met with partners in San Francisco.	Met with partners in San Francisco.	133713484	1475605069380	1475605069488	p	76
262885	2815346	Met with partners in San Francisco.	Met with partners in San Francisco.	133713595	1475605069495	1475605069736	a	65
262885	2815346	Met with partners in San Francisco.	Met with partners in San Francisco.	133713597	1475605069635	1475605069809	r	82
262885	2815346	Met with partners in San Francisco.	Met with partners in San Francisco.	133713600	1475605069921	1475605069999	BKSP	8
262885	2815346	Met with partners in San Francisco.	Met with partners in San Francisco.	133713603	1475605070118	1475605070162	BKSP	8
262885	2815346	Met with partners in San Francisco.	Met with partners in San Francisco.	133713606	1475605070217	1475605070319	BKSP	8
262885	2815346	Met with partners in San Francisco.	Met with partners in San Francisco.	133713611	1475605070583	1475605070711	BKSP	8
262885	2815346	Met with partners in San Francisco.	Met with partners in San Francisco.	133713615	1475605070857	1475605071013	p	80
262885	2815346	Met with partners in San Francisco.	Met with partners in San Francisco.	133713620	1475605071024	1475605071250	a	65
262885	2815346	Met with partners in San Francisco.	Met with partners in San Francisco.	133713742	1475605071178	1475605071339	r	82
262885	2815346	Met with partners in San Francisco.	Met with partners in San Francisco.	133713746	1475605071795	1475605071963	t	84
262885	2815346	Met with partners in San Francisco.	Met with partners in San Francisco.	133713751	1475605072392	1475605072545	n	78
262885	2815346	Met with partners in San Francisco.	Met with partners in San Francisco.	133713754	1475605072533	1475605072707	e	69
262885	2815346	Met with partners in San Francisco.	Met with partners in San Francisco.	133713759	1475605072712	1475605072868	r	82
262885	2815346	Met with partners in San Francisco.	Met with partners in San Francisco.	133713766	1475605072877	1475605073020	s	83
262885	2815346	Met with partners in San Francisco.	Met with partners in San Francisco.	133713831	1475605072966	1475605073085	 	32
262885	2815346	Met with partners in San Francisco.	Met with partners in San Francisco.	133713837	1475605073066	1475605073265	i	73
262885	2815346	Met with partners in San Francisco.	Met with partners in San Francisco.	133713841	1475605073184	1475605073338	n	78
262885	2815346	Met with partners in San Francisco.	Met with partners in San Francisco.	133713849	1475605073305	1475605073434	 	32
262885	2815346	Met with partners in San Francisco.	Met with partners in San Francisco.	133713864	1475605073638	1475605073988	SHIFT	16
262885	2815346	Met with partners in San Francisco.	Met with partners in San Francisco.	133713858	1475605073788	1475605073956	S	83
262885	2815346	Met with partners in San Francisco.	Met with partners in San Francisco.	133713871	1475605073992	1475605074145	a	65
262885	2815346	Met with partners in San Francisco.	Met with partners in San Francisco.	133713957	1475605074100	1475605074264	n	78
262885	2815346	Met with partners in San Francisco.	Met with partners in San Francisco.	133713963	1475605074267	1475605074387	 	32
262885	2815346	Met with partners in San Francisco.	Met with partners in San Francisco.	133713974	1475605074515	1475605074979	SHIFT	16
262885	2815346	Met with partners in San Francisco.	Met with partners in San Francisco.	133713968	1475605074695	1475605074792	F	70
262885	2815346	Met with partners in San Francisco.	Met with partners in San Francisco.	133713978	1475605075230	1475605075385	r	82
262885	2815346	Met with partners in San Francisco.	Met with partners in San Francisco.	133713983	1475605075373	1475605075547	a	65
262885	2815346	Met with partners in San Francisco.	Met with partners in San Francisco.	133714112	1475605075455	1475605075636	n	78
262885	2815346	Met with partners in San Francisco.	Met with partners in San Francisco.	133714116	1475605075753	1475605075923	i	73
262885	2815346	Met with partners in San Francisco.	Met with partners in San Francisco.	133714120	1475605076239	1475605076396	BKSP	8
262885	2815346	Met with partners in San Francisco.	Met with partners in San Francisco.	133714127	1475605076355	1475605076479	c	67
262885	2815346	Met with partners in San Francisco.	Met with partners in San Francisco.	133714136	1475605076445	1475605076596	i	73
262885	2815346	Met with partners in San Francisco.	Met with partners in San Francisco.	133714146	1475605076599	1475605076770	s	83
262885	2815346	Met with partners in San Francisco.	Met with partners in San Francisco.	133714157	1475605077225	1475605077362	c	67
262885	2815346	Met with partners in San Francisco.	Met with partners in San Francisco.	133714203	1475605077323	1475605077464	o	79
262885	2815346	Met with partners in San Francisco.	Met with partners in San Francisco.	133714207	1475605078046	1475605078185	.	190
262885	2815373	Bob,I'll take Denver to Win.	Bob, I'll take Denver to Win.	133714557	1475605082700	1475605082975	SHIFT	16
262885	2815373	Bob,I'll take Denver to Win.	Bob, I'll take Denver to Win.	133714560	1475605082864	1475605083074	B	66
262885	2815373	Bob,I'll take Denver to Win.	Bob, I'll take Denver to Win.	133714566	1475605083056	1475605083198	o	79
262885	2815373	Bob,I'll take Denver to Win.	Bob, I'll take Denver to Win.	133714571	1475605083253	1475605083399	b	66
262885	2815373	Bob,I'll take Denver to Win.	Bob, I'll take Denver to Win.	133714577	1475605083555	1475605083716	,	188
262885	2815373	Bob,I'll take Denver to Win.	Bob, I'll take Denver to Win.	133714585	1475605083798	1475605083898	 	32
262885	2815373	Bob,I'll take Denver to Win.	Bob, I'll take Denver to Win.	133714631	1475605083923	1475605084131	SHIFT	16
262885	2815373	Bob,I'll take Denver to Win.	Bob, I'll take Denver to Win.	133714630	1475605083984	1475605084110	I	73
262885	2815373	Bob,I'll take Denver to Win.	Bob, I'll take Denver to Win.	133714635	1475605084422	1475605084638	'	222
262885	2815373	Bob,I'll take Denver to Win.	Bob, I'll take Denver to Win.	133714644	1475605084695	1475605084782	l	76
262885	2815373	Bob,I'll take Denver to Win.	Bob, I'll take Denver to Win.	133714652	1475605084839	1475605085010	l	76
262885	2815373	Bob,I'll take Denver to Win.	Bob, I'll take Denver to Win.	133714684	1475605084961	1475605085089	 	32
262885	2815373	Bob,I'll take Denver to Win.	Bob, I'll take Denver to Win.	133714689	1475605085136	1475605085287	t	84
262885	2815373	Bob,I'll take Denver to Win.	Bob, I'll take Denver to Win.	133714695	1475605085279	1475605085502	a	65
262885	2815373	Bob,I'll take Denver to Win.	Bob, I'll take Denver to Win.	133714701	1475605085373	1475605085541	k	75
262885	2815373	Bob,I'll take Denver to Win.	Bob, I'll take Denver to Win.	133714706	1475605085520	1475605085681	e	69
262885	2815373	Bob,I'll take Denver to Win.	Bob, I'll take Denver to Win.	133714832	1475605085667	1475605085776	 	32
262885	2815373	Bob,I'll take Denver to Win.	Bob, I'll take Denver to Win.	133714843	1475605086118	1475605086594	SHIFT	16
262885	2815373	Bob,I'll take Denver to Win.	Bob, I'll take Denver to Win.	133714838	1475605086279	1475605086364	C	67
262885	2815373	Bob,I'll take Denver to Win.	Bob, I'll take Denver to Win.	133714848	1475605086805	1475605086912	BKSP	8
262885	2815373	Bob,I'll take Denver to Win.	Bob, I'll take Denver to Win.	133714858	1475605087079	1475605087395	SHIFT	16
262885	2815373	Bob,I'll take Denver to Win.	Bob, I'll take Denver to Win.	133714851	1475605087201	1475605087326	D	68
262885	2815373	Bob,I'll take Denver to Win.	Bob, I'll take Denver to Win.	133714866	1475605087476	1475605087615	e	69
262885	2815373	Bob,I'll take Denver to Win.	Bob, I'll take Denver to Win.	133714871	1475605087608	1475605087792	n	78
262885	2815373	Bob,I'll take Denver to Win.	Bob, I'll take Denver to Win.	133714887	1475605087783	1475605087972	v	86
262885	2815373	Bob,I'll take Denver to Win.	Bob, I'll take Denver to Win.	133714891	1475605087989	1475605088148	e	69
262885	2815373	Bob,I'll take Denver to Win.	Bob, I'll take Denver to Win.	133714895	1475605088110	1475605088273	r	82
262885	2815373	Bob,I'll take Denver to Win.	Bob, I'll take Denver to Win.	133714900	1475605088247	1475605088378	 	32
262885	2815373	Bob,I'll take Denver to Win.	Bob, I'll take Denver to Win.	133714904	1475605088420	1475605088578	t	84
262885	2815373	Bob,I'll take Denver to Win.	Bob, I'll take Denver to Win.	133714948	1475605088508	1475605088685	o	79
262885	2815373	Bob,I'll take Denver to Win.	Bob, I'll take Denver to Win.	133714953	1475605088630	1475605088765	 	32
262885	2815373	Bob,I'll take Denver to Win.	Bob, I'll take Denver to Win.	133714959	1475605088804	1475605088954	w	87
262885	2815373	Bob,I'll take Denver to Win.	Bob, I'll take Denver to Win.	133714973	1475605088906	1475605089098	i	73
262885	2815373	Bob,I'll take Denver to Win.	Bob, I'll take Denver to Win.	133714977	1475605088981	1475605089218	n	78
262885	2815373	Bob,I'll take Denver to Win.	Bob, I'll take Denver to Win.	133714986	1475605089247	1475605089302	l	76
262885	2815373	Bob,I'll take Denver to Win.	Bob, I'll take Denver to Win.	133715145	1475605089670	1475605089770	BKSP	8
262885	2815373	Bob,I'll take Denver to Win.	Bob, I'll take Denver to Win.	133715147	1475605089831	1475605089930	BKSP	8
262885	2815373	Bob,I'll take Denver to Win.	Bob, I'll take Denver to Win.	133715151	1475605089990	1475605090113	BKSP	8
262885	2815373	Bob,I'll take Denver to Win.	Bob, I'll take Denver to Win.	133715155	1475605090406	1475605090529	BKSP	8
262885	2815373	Bob,I'll take Denver to Win.	Bob, I'll take Denver to Win.	133715158	1475605090702	1475605090932	SHIFT	16
262885	2815373	Bob,I'll take Denver to Win.	Bob, I'll take Denver to Win.	133715161	1475605090822	1475605090952	W	87
262885	2815373	Bob,I'll take Denver to Win.	Bob, I'll take Denver to Win.	133715165	1475605090965	1475605091181	i	73
262885	2815373	Bob,I'll take Denver to Win.	Bob, I'll take Denver to Win.	133715170	1475605091128	1475605091302	n	78
262885	2815373	Bob,I'll take Denver to Win.	Bob, I'll take Denver to Win.	133715175	1475605091473	1475605091678	.	190
262885	2815396	South Korea will send two escort destroyers and men for the maneuvers.	South Korea will send two escort destroyers and men for the maneuvers. 	133715637	1475605097992	1475605098169	SHIFT	16
262885	2815396	South Korea will send two escort destroyers and men for the maneuvers.	South Korea will send two escort destroyers and men for the maneuvers. 	133715641	1475605098080	1475605098260	S	83
262885	2815396	South Korea will send two escort destroyers and men for the maneuvers.	South Korea will send two escort destroyers and men for the maneuvers. 	133715645	1475605098215	1475605098434	o	79
262885	2815396	South Korea will send two escort destroyers and men for the maneuvers.	South Korea will send two escort destroyers and men for the maneuvers. 	133715649	1475605098377	1475605098480	u	85
262885	2815396	South Korea will send two escort destroyers and men for the maneuvers.	South Korea will send two escort destroyers and men for the maneuvers. 	133715653	1475605098589	1475605098753	t	84
262885	2815396	South Korea will send two escort destroyers and men for the maneuvers.	South Korea will send two escort destroyers and men for the maneuvers. 	133715693	1475605098689	1475605098844	h	72
262885	2815396	South Korea will send two escort destroyers and men for the maneuvers.	South Korea will send two escort destroyers and men for the maneuvers. 	133715694	1475605098848	1475605098968	 	32
262885	2815396	South Korea will send two escort destroyers and men for the maneuvers.	South Korea will send two escort destroyers and men for the maneuvers. 	133715695	1475605099055	1475605099215	SHIFT	16
262885	2815396	South Korea will send two escort destroyers and men for the maneuvers.	South Korea will send two escort destroyers and men for the maneuvers. 	133715696	1475605099086	1475605099345	K	75
262885	2815396	South Korea will send two escort destroyers and men for the maneuvers.	South Korea will send two escort destroyers and men for the maneuvers. 	133715697	1475605099278	1475605099415	o	79
262885	2815396	South Korea will send two escort destroyers and men for the maneuvers.	South Korea will send two escort destroyers and men for the maneuvers. 	133715698	1475605099400	1475605099586	r	82
262885	2815396	South Korea will send two escort destroyers and men for the maneuvers.	South Korea will send two escort destroyers and men for the maneuvers. 	133715807	1475605099544	1475605099694	e	69
262885	2815396	South Korea will send two escort destroyers and men for the maneuvers.	South Korea will send two escort destroyers and men for the maneuvers. 	133715810	1475605099733	1475605099905	s	83
262885	2815396	South Korea will send two escort destroyers and men for the maneuvers.	South Korea will send two escort destroyers and men for the maneuvers. 	133715812	1475605099932	1475605100070	 	32
262885	2815396	South Korea will send two escort destroyers and men for the maneuvers.	South Korea will send two escort destroyers and men for the maneuvers. 	133715822	1475605100486	1475605100570	BKSP	8
262885	2815396	South Korea will send two escort destroyers and men for the maneuvers.	South Korea will send two escort destroyers and men for the maneuvers. 	133715829	1475605100637	1475605100786	BKSP	8
262885	2815396	South Korea will send two escort destroyers and men for the maneuvers.	South Korea will send two escort destroyers and men for the maneuvers. 	133715836	1475605100729	1475605100884	a	65
262885	2815396	South Korea will send two escort destroyers and men for the maneuvers.	South Korea will send two escort destroyers and men for the maneuvers. 	133715844	1475605100817	1475605100945	 	32
262885	2815396	South Korea will send two escort destroyers and men for the maneuvers.	South Korea will send two escort destroyers and men for the maneuvers. 	133715852	1475605100954	1475605101165	w	87
262885	2815396	South Korea will send two escort destroyers and men for the maneuvers.	South Korea will send two escort destroyers and men for the maneuvers. 	133715905	1475605101133	1475605101255	i	73
262885	2815396	South Korea will send two escort destroyers and men for the maneuvers.	South Korea will send two escort destroyers and men for the maneuvers. 	133715909	1475605101377	1475605101437	l	76
262885	2815396	South Korea will send two escort destroyers and men for the maneuvers.	South Korea will send two escort destroyers and men for the maneuvers. 	133715914	1475605101514	1475605101700	l	76
262885	2815396	South Korea will send two escort destroyers and men for the maneuvers.	South Korea will send two escort destroyers and men for the maneuvers. 	133715919	1475605101651	1475605101797	 	32
262885	2815396	South Korea will send two escort destroyers and men for the maneuvers.	South Korea will send two escort destroyers and men for the maneuvers. 	133715924	1475605101749	1475605101917	s	83
262885	2815396	South Korea will send two escort destroyers and men for the maneuvers.	South Korea will send two escort destroyers and men for the maneuvers. 	133715928	1475605101944	1475605102063	n	69
262885	2815396	South Korea will send two escort destroyers and men for the maneuvers.	South Korea will send two escort destroyers and men for the maneuvers. 	133715987	1475605102179	1475605102330	d	68
262885	2815396	South Korea will send two escort destroyers and men for the maneuvers.	South Korea will send two escort destroyers and men for the maneuvers. 	133715994	1475605102333	1475605102454	 	32
262885	2815396	South Korea will send two escort destroyers and men for the maneuvers.	South Korea will send two escort destroyers and men for the maneuvers. 	133715997	1475605102549	1475605102708	t	84
262885	2815396	South Korea will send two escort destroyers and men for the maneuvers.	South Korea will send two escort destroyers and men for the maneuvers. 	133716002	1475605102583	1475605102784	o	79
262885	2815396	South Korea will send two escort destroyers and men for the maneuvers.	South Korea will send two escort destroyers and men for the maneuvers. 	133716008	1475605103136	1475605103249	BKSP	8
262885	2815396	South Korea will send two escort destroyers and men for the maneuvers.	South Korea will send two escort destroyers and men for the maneuvers. 	133716012	1475605103255	1475605103386	w	87
262885	2815396	South Korea will send two escort destroyers and men for the maneuvers.	South Korea will send two escort destroyers and men for the maneuvers. 	133716049	1475605103331	1475605103517	o	79
262885	2815396	South Korea will send two escort destroyers and men for the maneuvers.	South Korea will send two escort destroyers and men for the maneuvers. 	133716056	1475605103469	1475605103599	 	32
262885	2815396	South Korea will send two escort destroyers and men for the maneuvers.	South Korea will send two escort destroyers and men for the maneuvers. 	133716063	1475605103633	1475605103780	e	69
262885	2815396	South Korea will send two escort destroyers and men for the maneuvers.	South Korea will send two escort destroyers and men for the maneuvers. 	133716069	1475605103838	1475605103969	s	83
262885	2815396	South Korea will send two escort destroyers and men for the maneuvers.	South Korea will send two escort destroyers and men for the maneuvers. 	133716075	1475605104051	1475605104109	d	68
262885	2815396	South Korea will send two escort destroyers and men for the maneuvers.	South Korea will send two escort destroyers and men for the maneuvers. 	133716080	1475605104113	1475605104237	c	67
262885	2815396	South Korea will send two escort destroyers and men for the maneuvers.	South Korea will send two escort destroyers and men for the maneuvers. 	133716171	1475605104261	1475605104401	o	79
262885	2815396	South Korea will send two escort destroyers and men for the maneuvers.	South Korea will send two escort destroyers and men for the maneuvers. 	133716176	1475605104397	1475605104556	r	82
262885	2815396	South Korea will send two escort destroyers and men for the maneuvers.	South Korea will send two escort destroyers and men for the maneuvers. 	133716182	1475605104687	1475605104771	BKSP	8
262885	2815396	South Korea will send two escort destroyers and men for the maneuvers.	South Korea will send two escort destroyers and men for the maneuvers. 	133716188	1475605104844	1475605104938	BKSP	8
262885	2815396	South Korea will send two escort destroyers and men for the maneuvers.	South Korea will send two escort destroyers and men for the maneuvers. 	133716192	1475605104996	1475605105132	BKSP	8
262885	2815396	South Korea will send two escort destroyers and men for the maneuvers.	South Korea will send two escort destroyers and men for the maneuvers. 	133716197	1475605105183	1475605105293	BKSP	8
262885	2815396	South Korea will send two escort destroyers and men for the maneuvers.	South Korea will send two escort destroyers and men for the maneuvers. 	133716199	1475605105276	1475605105436	c	67
262885	2815396	South Korea will send two escort destroyers and men for the maneuvers.	South Korea will send two escort destroyers and men for the maneuvers. 	133716205	1475605105646	1475605105818	o	79
262885	2815396	South Korea will send two escort destroyers and men for the maneuvers.	South Korea will send two escort destroyers and men for the maneuvers. 	133716288	1475605105780	1475605105948	r	82
262885	2815396	South Korea will send two escort destroyers and men for the maneuvers.	South Korea will send two escort destroyers and men for the maneuvers. 	133716296	1475605106047	1475605106189	t	84
262885	2815396	South Korea will send two escort destroyers and men for the maneuvers.	South Korea will send two escort destroyers and men for the maneuvers. 	133716303	1475605106147	1475605106247	 	32
262885	2815396	South Korea will send two escort destroyers and men for the maneuvers.	South Korea will send two escort destroyers and men for the maneuvers. 	133716310	1475605106333	1475605106514	d	68
262885	2815396	South Korea will send two escort destroyers and men for the maneuvers.	South Korea will send two escort destroyers and men for the maneuvers. 	133716317	1475605106643	1475605106843	e	69
262885	2815396	South Korea will send two escort destroyers and men for the maneuvers.	South Korea will send two escort destroyers and men for the maneuvers. 	133716324	1475605106873	1475605107018	s	83
262885	2815396	South Korea will send two escort destroyers and men for the maneuvers.	South Korea will send two escort destroyers and men for the maneuvers. 	133716435	1475605107047	1475605107215	t	84
262885	2815396	South Korea will send two escort destroyers and men for the maneuvers.	South Korea will send two escort destroyers and men for the maneuvers. 	133716440	1475605107489	1475605107653	r	82
262885	2815396	South Korea will send two escort destroyers and men for the maneuvers.	South Korea will send two escort destroyers and men for the maneuvers. 	133716447	1475605107608	1475605107773	o	79
262885	2815396	South Korea will send two escort destroyers and men for the maneuvers.	South Korea will send two escort destroyers and men for the maneuvers. 	133716453	1475605108272	1475605108399	y	89
262885	2815396	South Korea will send two escort destroyers and men for the maneuvers.	South Korea will send two escort destroyers and men for the maneuvers. 	133716460	1475605108576	1475605108728	e	69
262885	2815396	South Korea will send two escort destroyers and men for the maneuvers.	South Korea will send two escort destroyers and men for the maneuvers. 	133716544	1475605108956	1475605109108	r	82
262885	2815396	South Korea will send two escort destroyers and men for the maneuvers.	South Korea will send two escort destroyers and men for the maneuvers. 	133716552	1475605109414	1475605109501	e	69
262885	2815396	South Korea will send two escort destroyers and men for the maneuvers.	South Korea will send two escort destroyers and men for the maneuvers. 	133716558	1475605109838	1475605110005	BKSP	8
262885	2815396	South Korea will send two escort destroyers and men for the maneuvers.	South Korea will send two escort destroyers and men for the maneuvers. 	133716565	1475605109932	1475605110063	s	83
262885	2815396	South Korea will send two escort destroyers and men for the maneuvers.	South Korea will send two escort destroyers and men for the maneuvers. 	133716572	1475605110048	1475605110164	 	32
262885	2815396	South Korea will send two escort destroyers and men for the maneuvers.	South Korea will send two escort destroyers and men for the maneuvers. 	133716576	1475605110176	1475605110344	a	65
262885	2815396	South Korea will send two escort destroyers and men for the maneuvers.	South Korea will send two escort destroyers and men for the maneuvers. 	133716590	1475605110222	1475605110421	n	78
262885	2815396	South Korea will send two escort destroyers and men for the maneuvers.	South Korea will send two escort destroyers and men for the maneuvers. 	133716604	1475605110326	1475605110500	d	68
262885	2815396	South Korea will send two escort destroyers and men for the maneuvers.	South Korea will send two escort destroyers and men for the maneuvers. 	133716595	1475605110423	1475605110497	 	32
262885	2815396	South Korea will send two escort destroyers and men for the maneuvers.	South Korea will send two escort destroyers and men for the maneuvers. 	133716610	1475605110552	1475605110690	m	77
262885	2815396	South Korea will send two escort destroyers and men for the maneuvers.	South Korea will send two escort destroyers and men for the maneuvers. 	133716614	1475605110675	1475605110824	e	69
262885	2815396	South Korea will send two escort destroyers and men for the maneuvers.	South Korea will send two escort destroyers and men for the maneuvers. 	133716617	1475605110754	1475605110909	n	78
262885	2815396	South Korea will send two escort destroyers and men for the maneuvers.	South Korea will send two escort destroyers and men for the maneuvers. 	133716621	1475605110924	1475605111066	 	32
262885	2815396	South Korea will send two escort destroyers and men for the maneuvers.	South Korea will send two escort destroyers and men for the maneuvers. 	133716644	1475605111265	1475605111365	f	70
262885	2815396	South Korea will send two escort destroyers and men for the maneuvers.	South Korea will send two escort destroyers and men for the maneuvers. 	133716646	1475605111332	1475605111545	o	79
262885	2815396	South Korea will send two escort destroyers and men for the maneuvers.	South Korea will send two escort destroyers and men for the maneuvers. 	133716650	1475605111457	1475605111560	r	82
262885	2815396	South Korea will send two escort destroyers and men for the maneuvers.	South Korea will send two escort destroyers and men for the maneuvers. 	133716653	1475605111512	1475605111643	 	32
262885	2815396	South Korea will send two escort destroyers and men for the maneuvers.	South Korea will send two escort destroyers and men for the maneuvers. 	133716659	1475605111676	1475605111829	t	84
262885	2815396	South Korea will send two escort destroyers and men for the maneuvers.	South Korea will send two escort destroyers and men for the maneuvers. 	133716700	1475605111771	1475605111896	h	72
262885	2815396	South Korea will send two escort destroyers and men for the maneuvers.	South Korea will send two escort destroyers and men for the maneuvers. 	133716702	1475605111860	1475605111982	e	69
262885	2815396	South Korea will send two escort destroyers and men for the maneuvers.	South Korea will send two escort destroyers and men for the maneuvers. 	133716704	1475605111933	1475605112067	 	32
262885	2815396	South Korea will send two escort destroyers and men for the maneuvers.	South Korea will send two escort destroyers and men for the maneuvers. 	133716707	1475605112110	1475605112275	m	77
262885	2815396	South Korea will send two escort destroyers and men for the maneuvers.	South Korea will send two escort destroyers and men for the maneuvers. 	133716711	1475605112214	1475605112437	a	65
262885	2815396	South Korea will send two escort destroyers and men for the maneuvers.	South Korea will send two escort destroyers and men for the maneuvers. 	133716791	1475605112351	1475605112507	n	78
262885	2815396	South Korea will send two escort destroyers and men for the maneuvers.	South Korea will send two escort destroyers and men for the maneuvers. 	133716795	1475605112832	1475605112978	e	69
262885	2815396	South Korea will send two escort destroyers and men for the maneuvers.	South Korea will send two escort destroyers and men for the maneuvers. 	133716802	1475605113064	1475605113223	v	86
262885	2815396	South Korea will send two escort destroyers and men for the maneuvers.	South Korea will send two escort destroyers and men for the maneuvers. 	133716810	1475605113445	1475605113610	BKSP	8
262885	2815396	South Korea will send two escort destroyers and men for the maneuvers.	South Korea will send two escort destroyers and men for the maneuvers. 	133716817	1475605113615	1475605113817	u	85
262885	2815396	South Korea will send two escort destroyers and men for the maneuvers.	South Korea will send two escort destroyers and men for the maneuvers. 	133716824	1475605113748	1475605113878	v	86
262885	2815396	South Korea will send two escort destroyers and men for the maneuvers.	South Korea will send two escort destroyers and men for the maneuvers. 	133716830	1475605113939	1475605114074	e	69
262885	2815396	South Korea will send two escort destroyers and men for the maneuvers.	South Korea will send two escort destroyers and men for the maneuvers. 	133716874	1475605114059	1475605114233	r	82
262885	2815396	South Korea will send two escort destroyers and men for the maneuvers.	South Korea will send two escort destroyers and men for the maneuvers. 	133716876	1475605114287	1475605114444	s	83
262885	2815396	South Korea will send two escort destroyers and men for the maneuvers.	South Korea will send two escort destroyers and men for the maneuvers. 	133716879	1475605114544	1475605114742	.	190
262885	2815396	South Korea will send two escort destroyers and men for the maneuvers.	South Korea will send two escort destroyers and men for the maneuvers. 	133716884	1475605114715	1475605114840	 	32
262885	2815421	I'm in Stan's office.	I'm in Stan's office.	133717149	1475605118162	1475605118321	SHIFT	16
262885	2815421	I'm in Stan's office.	I'm in Stan's office.	133717151	1475605118204	1475605118363	I	73
262885	2815421	I'm in Stan's office.	I'm in Stan's office.	133717156	1475605118613	1475605118834	'	222
262885	2815421	I'm in Stan's office.	I'm in Stan's office.	133717161	1475605119002	1475605119183	m	77
262885	2815421	I'm in Stan's office.	I'm in Stan's office.	133717165	1475605119188	1475605119261	 	32
262885	2815421	I'm in Stan's office.	I'm in Stan's office.	133717167	1475605119322	1475605119494	i	73
262885	2815421	I'm in Stan's office.	I'm in Stan's office.	133717200	1475605119365	1475605119576	n	78
262885	2815421	I'm in Stan's office.	I'm in Stan's office.	133717203	1475605119566	1475605119692	 	32
262885	2815421	I'm in Stan's office.	I'm in Stan's office.	133717209	1475605119938	1475605120163	SHIFT	16
262885	2815421	I'm in Stan's office.	I'm in Stan's office.	133717206	1475605120022	1475605120157	S	83
262885	2815421	I'm in Stan's office.	I'm in Stan's office.	133717212	1475605120236	1475605120426	t	84
262885	2815421	I'm in Stan's office.	I'm in Stan's office.	133717214	1475605120408	1475605120597	a	65
262885	2815421	I'm in Stan's office.	I'm in Stan's office.	133717342	1475605120465	1475605120666	n	78
262885	2815421	I'm in Stan's office.	I'm in Stan's office.	133717348	1475605120722	1475605120933	.	190
262885	2815421	I'm in Stan's office.	I'm in Stan's office.	133717359	1475605121098	1475605121189	BKSP	8
262885	2815421	I'm in Stan's office.	I'm in Stan's office.	133717370	1475605121395	1475605121544	'	222
262885	2815421	I'm in Stan's office.	I'm in Stan's office.	133717380	1475605121504	1475605121626	s	83
262885	2815421	I'm in Stan's office.	I'm in Stan's office.	133717387	1475605121654	1475605121783	 	32
262885	2815421	I'm in Stan's office.	I'm in Stan's office.	133717393	1475605121945	1475605122080	o	79
262885	2815421	I'm in Stan's office.	I'm in Stan's office.	133717425	1475605122088	1475605122189	f	70
262885	2815421	I'm in Stan's office.	I'm in Stan's office.	133717431	1475605122268	1475605122375	f	70
262885	2815421	I'm in Stan's office.	I'm in Stan's office.	133717437	1475605122345	1475605122486	i	73
262885	2815421	I'm in Stan's office.	I'm in Stan's office.	133717438	1475605122552	1475605122651	c	67
262885	2815421	I'm in Stan's office.	I'm in Stan's office.	133717442	1475605123021	1475605123149	e	69
262885	2815421	I'm in Stan's office.	I'm in Stan's office.	133717594	1475605123241	1475605123422	.	190
262885	2815421	I'm in Stan's office.	I'm in Stan's office.	133717598	1475605123439	1475605123534	 	32
262885	2815421	I'm in Stan's office.	I'm in Stan's office.	133717603	1475605125309	1475605125379	BKSP	8
262885	2815439	The new radio minister was head of the propaganda department.	The new radio minister was head of the propaganda department.	133717902	1475605130128	1475605130379	SHIFT	16
262885	2815439	The new radio minister was head of the propaganda department.	The new radio minister was head of the propaganda department.	133717899	1475605130184	1475605130349	T	84
262885	2815439	The new radio minister was head of the propaganda department.	The new radio minister was head of the propaganda department.	133717905	1475605130295	1475605130447	H	72
262885	2815439	The new radio minister was head of the propaganda department.	The new radio minister was head of the propaganda department.	133717910	1475605130386	1475605130529	e	69
262885	2815439	The new radio minister was head of the propaganda department.	The new radio minister was head of the propaganda department.	133717914	1475605130511	1475605130625	 	32
262885	2815439	The new radio minister was head of the propaganda department.	The new radio minister was head of the propaganda department.	133717917	1475605130667	1475605130833	n	78
262885	2815439	The new radio minister was head of the propaganda department.	The new radio minister was head of the propaganda department.	133718043	1475605131016	1475605131091	k	75
262885	2815439	The new radio minister was head of the propaganda department.	The new radio minister was head of the propaganda department.	133718046	1475605131210	1475605131291	BKSP	8
262885	2815439	The new radio minister was head of the propaganda department.	The new radio minister was head of the propaganda department.	133718049	1475605131503	1475605131600	BKSP	8
262885	2815439	The new radio minister was head of the propaganda department.	The new radio minister was head of the propaganda department.	133718054	1475605131686	1475605131744	BKSP	8
262885	2815439	The new radio minister was head of the propaganda department.	The new radio minister was head of the propaganda department.	133718059	1475605131838	1475605131930	BKSP	8
262885	2815439	The new radio minister was head of the propaganda department.	The new radio minister was head of the propaganda department.	133718063	1475605132010	1475605132136	BKSP	8
262885	2815439	The new radio minister was head of the propaganda department.	The new radio minister was head of the propaganda department.	133718066	1475605132156	1475605132284	h	72
262885	2815439	The new radio minister was head of the propaganda department.	The new radio minister was head of the propaganda department.	133718071	1475605132274	1475605132398	e	69
262885	2815439	The new radio minister was head of the propaganda department.	The new radio minister was head of the propaganda department.	133718073	1475605132367	1475605132474	 	32
262885	2815439	The new radio minister was head of the propaganda department.	The new radio minister was head of the propaganda department.	133718076	1475605132532	1475605132707	n	78
262885	2815439	The new radio minister was head of the propaganda department.	The new radio minister was head of the propaganda department.	133718120	1475605132695	1475605132912	e	69
262885	2815439	The new radio minister was head of the propaganda department.	The new radio minister was head of the propaganda department.	133718121	1475605132923	1475605133067	w	87
262885	2815439	The new radio minister was head of the propaganda department.	The new radio minister was head of the propaganda department.	133718123	1475605133100	1475605133229	 	32
262885	2815439	The new radio minister was head of the propaganda department.	The new radio minister was head of the propaganda department.	133718125	1475605133533	1475605133689	r	82
262885	2815439	The new radio minister was head of the propaganda department.	The new radio minister was head of the propaganda department.	133718126	1475605133924	1475605134056	a	65
262885	2815439	The new radio minister was head of the propaganda department.	The new radio minister was head of the propaganda department.	133718178	1475605134044	1475605134217	d	68
262885	2815439	The new radio minister was head of the propaganda department.	The new radio minister was head of the propaganda department.	133718181	1475605134181	1475605134437	i	73
262885	2815439	The new radio minister was head of the propaganda department.	The new radio minister was head of the propaganda department.	133718186	1475605134340	1475605134510	o	79
262885	2815439	The new radio minister was head of the propaganda department.	The new radio minister was head of the propaganda department.	133718190	1475605134477	1475605134621	 	32
262885	2815439	The new radio minister was head of the propaganda department.	The new radio minister was head of the propaganda department.	133718192	1475605134787	1475605134997	m	77
262885	2815439	The new radio minister was head of the propaganda department.	The new radio minister was head of the propaganda department.	133718289	1475605134945	1475605135180	i	73
262885	2815439	The new radio minister was head of the propaganda department.	The new radio minister was head of the propaganda department.	133718296	1475605135132	1475605135266	n	78
262885	2815439	The new radio minister was head of the propaganda department.	The new radio minister was head of the propaganda department.	133718301	1475605135281	1475605135462	i	73
262885	2815439	The new radio minister was head of the propaganda department.	The new radio minister was head of the propaganda department.	133718307	1475605135498	1475605135666	s	83
262885	2815439	The new radio minister was head of the propaganda department.	The new radio minister was head of the propaganda department.	133718310	1475605135645	1475605135822	t	84
262885	2815439	The new radio minister was head of the propaganda department.	The new radio minister was head of the propaganda department.	133718315	1475605136690	1475605136878	e	69
262885	2815439	The new radio minister was head of the propaganda department.	The new radio minister was head of the propaganda department.	133718344	1475605136836	1475605136997	r	82
262885	2815439	The new radio minister was head of the propaganda department.	The new radio minister was head of the propaganda department.	133718347	1475605136948	1475605137095	 	32
262885	2815439	The new radio minister was head of the propaganda department.	The new radio minister was head of the propaganda department.	133718350	1475605137122	1475605137272	w	87
262885	2815439	The new radio minister was head of the propaganda department.	The new radio minister was head of the propaganda department.	133718353	1475605137348	1475605137547	a	65
262885	2815439	The new radio minister was head of the propaganda department.	The new radio minister was head of the propaganda department.	133718459	1475605137498	1475605137645	s	83
262885	2815439	The new radio minister was head of the propaganda department.	The new radio minister was head of the propaganda department.	133718462	1475605137534	1475605137694	 	32
262885	2815439	The new radio minister was head of the propaganda department.	The new radio minister was head of the propaganda department.	133718467	1475605137727	1475605137871	h	72
262885	2815439	The new radio minister was head of the propaganda department.	The new radio minister was head of the propaganda department.	133718471	1475605137907	1475605138005	e	69
262885	2815439	The new radio minister was head of the propaganda department.	The new radio minister was head of the propaganda department.	133718478	1475605138409	1475605138576	a	65
262885	2815439	The new radio minister was head of the propaganda department.	The new radio minister was head of the propaganda department.	133718482	1475605138564	1475605138693	d	68
262885	2815439	The new radio minister was head of the propaganda department.	The new radio minister was head of the propaganda department.	133718488	1475605139064	1475605139201	 	32
262885	2815439	The new radio minister was head of the propaganda department.	The new radio minister was head of the propaganda department.	133718502	1475605139231	1475605139357	o	79
262885	2815439	The new radio minister was head of the propaganda department.	The new radio minister was head of the propaganda department.	133718505	1475605139345	1475605139460	f	70
262885	2815439	The new radio minister was head of the propaganda department.	The new radio minister was head of the propaganda department.	133718511	1475605139390	1475605139561	 	32
262885	2815439	The new radio minister was head of the propaganda department.	The new radio minister was head of the propaganda department.	133718516	1475605139545	1475605139686	t	84
262885	2815439	The new radio minister was head of the propaganda department.	The new radio minister was head of the propaganda department.	133718534	1475605139619	1475605139737	h	72
262885	2815439	The new radio minister was head of the propaganda department.	The new radio minister was head of the propaganda department.	133718541	1475605139726	1475605139860	e	69
262885	2815439	The new radio minister was head of the propaganda department.	The new radio minister was head of the propaganda department.	133718545	1475605139765	1475605139909	 	32
262885	2815439	The new radio minister was head of the propaganda department.	The new radio minister was head of the propaganda department.	133718550	1475605140014	1475605140111	p	80
262885	2815439	The new radio minister was head of the propaganda department.	The new radio minister was head of the propaganda department.	133718557	1475605140095	1475605140236	r	82
262885	2815439	The new radio minister was head of the propaganda department.	The new radio minister was head of the propaganda department.	133718639	1475605140191	1475605140340	o	79
262885	2815439	The new radio minister was head of the propaganda department.	The new radio minister was head of the propaganda department.	133718641	1475605140500	1475605140634	p	80
262885	2815439	The new radio minister was head of the propaganda department.	The new radio minister was head of the propaganda department.	133718647	1475605140835	1475605141059	a	65
262885	2815439	The new radio minister was head of the propaganda department.	The new radio minister was head of the propaganda department.	133718649	1475605141265	1475605141423	g	71
262885	2815439	The new radio minister was head of the propaganda department.	The new radio minister was head of the propaganda department.	133718655	1475605141451	1475605141653	a	65
262885	2815439	The new radio minister was head of the propaganda department.	The new radio minister was head of the propaganda department.	133718776	1475605141527	1475605141725	n	78
262885	2815439	The new radio minister was head of the propaganda department.	The new radio minister was head of the propaganda department.	133718778	1475605141644	1475605141808	d	68
262885	2815439	The new radio minister was head of the propaganda department.	The new radio minister was head of the propaganda department.	133718790	1475605141847	1475605141982	 	32
262885	2815439	The new radio minister was head of the propaganda department.	The new radio minister was head of the propaganda department.	133718794	1475605142259	1475605142400	BKSP	8
262885	2815439	The new radio minister was head of the propaganda department.	The new radio minister was head of the propaganda department.	133718800	1475605142469	1475605142564	BKSP	8
262885	2815439	The new radio minister was head of the propaganda department.	The new radio minister was head of the propaganda department.	133718804	1475605142934	1475605143089	d	68
262885	2815439	The new radio minister was head of the propaganda department.	The new radio minister was head of the propaganda department.	133718808	1475605143101	1475605143278	a	65
262885	2815439	The new radio minister was head of the propaganda department.	The new radio minister was head of the propaganda department.	133718813	1475605143200	1475605143336	 	32
262885	2815439	The new radio minister was head of the propaganda department.	The new radio minister was head of the propaganda department.	133718817	1475605143394	1475605143539	d	68
262885	2815439	The new radio minister was head of the propaganda department.	The new radio minister was head of the propaganda department.	133718850	1475605143611	1475605143755	e	69
262885	2815439	The new radio minister was head of the propaganda department.	The new radio minister was head of the propaganda department.	133718852	1475605143917	1475605144076	p	80
262885	2815439	The new radio minister was head of the propaganda department.	The new radio minister was head of the propaganda department.	133718855	1475605144205	1475605144422	a	65
262885	2815439	The new radio minister was head of the propaganda department.	The new radio minister was head of the propaganda department.	133718858	1475605144280	1475605144457	r	82
262885	2815439	The new radio minister was head of the propaganda department.	The new radio minister was head of the propaganda department.	133718862	1475605144551	1475605144680	t	84
262885	2815439	The new radio minister was head of the propaganda department.	The new radio minister was head of the propaganda department.	133718934	1475605144813	1475605144989	m	77
262885	2815439	The new radio minister was head of the propaganda department.	The new radio minister was head of the propaganda department.	133718936	1475605144950	1475605145161	e	69
262885	2815439	The new radio minister was head of the propaganda department.	The new radio minister was head of the propaganda department.	133718940	1475605145062	1475605145230	n	78
262885	2815439	The new radio minister was head of the propaganda department.	The new radio minister was head of the propaganda department.	133718945	1475605145432	1475605145553	t	84
262885	2815474	Go ahead and notify.	Go ahead and notify,	133719386	1475605150592	1475605150761	SHIFT	16
262885	2815474	Go ahead and notify.	Go ahead and notify,	133719390	1475605150676	1475605150816	G	71
262885	2815474	Go ahead and notify.	Go ahead and notify,	133719399	1475605150817	1475605150976	o	79
262885	2815474	Go ahead and notify.	Go ahead and notify,	133719410	1475605151012	1475605151141	 	32
262885	2815474	Go ahead and notify.	Go ahead and notify,	133719420	1475605151294	1475605151474	a	65
262885	2815474	Go ahead and notify.	Go ahead and notify,	133719540	1475605151414	1475605151489	n	78
262885	2815474	Go ahead and notify.	Go ahead and notify,	133719544	1475605151758	1475605151920	BKSP	8
262885	2815474	Go ahead and notify.	Go ahead and notify,	133719548	1475605151914	1475605152067	h	72
262885	2815474	Go ahead and notify.	Go ahead and notify,	133719553	1475605152046	1475605152199	e	69
262885	2815474	Go ahead and notify.	Go ahead and notify,	133719559	1475605152220	1475605152443	a	65
262885	2815474	Go ahead and notify.	Go ahead and notify,	133719568	1475605152525	1475605152695	d	68
262885	2815474	Go ahead and notify.	Go ahead and notify,	133719599	1475605152682	1475605152803	 	32
262885	2815474	Go ahead and notify.	Go ahead and notify,	133719604	1475605152791	1475605152965	a	65
262885	2815474	Go ahead and notify.	Go ahead and notify,	133719612	1475605152870	1475605153032	n	78
262885	2815474	Go ahead and notify.	Go ahead and notify,	133719618	1475605152916	1475605153080	d	68
262885	2815474	Go ahead and notify.	Go ahead and notify,	133719628	1475605153002	1475605153108	 	32
262885	2815474	Go ahead and notify.	Go ahead and notify,	133719635	1475605153136	1475605153310	n	78
262885	2815474	Go ahead and notify.	Go ahead and notify,	133719712	1475605153280	1475605153432	o	79
262885	2815474	Go ahead and notify.	Go ahead and notify,	133719715	1475605153383	1475605153542	t	84
262885	2815474	Go ahead and notify.	Go ahead and notify,	133719719	1475605153493	1475605153661	i	73
262885	2815474	Go ahead and notify.	Go ahead and notify,	133719722	1475605153667	1475605153826	f	70
262885	2815474	Go ahead and notify.	Go ahead and notify,	133719725	1475605154019	1475605154132	y	89
262885	2815474	Go ahead and notify.	Go ahead and notify,	133719727	1475605154387	1475605154545	,	188
262885	2815485	We will keep you posted.	We will keep you posted.	133720198	1475605159170	1475605159811	SHIFT	16
262885	2815485	We will keep you posted.	We will keep you posted.	133720193	1475605159574	1475605159725	W	87
262885	2815485	We will keep you posted.	We will keep you posted.	133720202	1475605159686	1475605159881	E	69
262885	2815485	We will keep you posted.	We will keep you posted.	133720205	1475605159994	1475605160128	 	32
262885	2815485	We will keep you posted.	We will keep you posted.	133720208	1475605160310	1475605160401	BKSP	8
262885	2815485	We will keep you posted.	We will keep you posted.	133720211	1475605160474	1475605160597	BKSP	8
262885	2815485	We will keep you posted.	We will keep you posted.	133720216	1475605160569	1475605160743	e	69
262885	2815485	We will keep you posted.	We will keep you posted.	133720238	1475605160676	1475605160776	 	32
262885	2815485	We will keep you posted.	We will keep you posted.	133720241	1475605160867	1475605161005	w	87
262885	2815485	We will keep you posted.	We will keep you posted.	133720244	1475605160938	1475605161054	i	73
262885	2815485	We will keep you posted.	We will keep you posted.	133720248	1475605161115	1475605161200	l	76
262885	2815485	We will keep you posted.	We will keep you posted.	133720252	1475605161261	1475605161426	l	76
262885	2815485	We will keep you posted.	We will keep you posted.	133720292	1475605161405	1475605161499	 	32
262885	2815485	We will keep you posted.	We will keep you posted.	133720298	1475605161524	1475605161685	k	75
262885	2815485	We will keep you posted.	We will keep you posted.	133720305	1475605161719	1475605161862	e	69
262885	2815485	We will keep you posted.	We will keep you posted.	133720314	1475605161929	1475605162064	e	69
262885	2815485	We will keep you posted.	We will keep you posted.	133720322	1475605162094	1475605162241	p	80
262885	2815485	We will keep you posted.	We will keep you posted.	133720421	1475605162220	1475605162352	 	32
262885	2815485	We will keep you posted.	We will keep you posted.	133720425	1475605162348	1475605162451	u	85
262885	2815485	We will keep you posted.	We will keep you posted.	133720429	1475605162476	1475605162619	o	79
262885	2815485	We will keep you posted.	We will keep you posted.	133720438	1475605162564	1475605162690	u	85
262885	2815485	We will keep you posted.	We will keep you posted.	133720447	1475605162773	1475605162836	 	32
262885	2815485	We will keep you posted.	We will keep you posted.	133720458	1475605162959	1475605163060	BKSP	8
262885	2815485	We will keep you posted.	We will keep you posted.	133720467	1475605163144	1475605163217	BKSP	8
262885	2815485	We will keep you posted.	We will keep you posted.	133720477	1475605163275	1475605163401	BKSP	8
262885	2815485	We will keep you posted.	We will keep you posted.	133720484	1475605163458	1475605163600	BKSP	8
262885	2815485	We will keep you posted.	We will keep you posted.	133720492	1475605163779	1475605163897	o	79
262885	2815485	We will keep you posted.	We will keep you posted.	133720547	1475605164211	1475605164404	BKSP	8
262885	2815485	We will keep you posted.	We will keep you posted.	133720552	1475605164395	1475605164526	y	89
262885	2815485	We will keep you posted.	We will keep you posted.	133720559	1475605164537	1475605164672	o	79
262885	2815485	We will keep you posted.	We will keep you posted.	133720567	1475605164611	1475605164760	u	85
262885	2815485	We will keep you posted.	We will keep you posted.	133720580	1475605164775	1475605164946	 	32
262885	2815485	We will keep you posted.	We will keep you posted.	133720591	1475605165013	1475605165187	p	80
262885	2815485	We will keep you posted.	We will keep you posted.	133720702	1475605165176	1475605165312	s	83
262885	2815485	We will keep you posted.	We will keep you posted.	133720709	1475605165264	1475605165410	o	79
262885	2815485	We will keep you posted.	We will keep you posted.	133720718	1475605165810	1475605165911	BKSP	8
262885	2815485	We will keep you posted.	We will keep you posted.	133720724	1475605165965	1475605166108	BKSP	8
262885	2815485	We will keep you posted.	We will keep you posted.	133720730	1475605166124	1475605166337	o	79
262885	2815485	We will keep you posted.	We will keep you posted.	133720736	1475605166203	1475605166410	s	83
262885	2815485	We will keep you posted.	We will keep you posted.	133720740	1475605166686	1475605166842	t	84
262885	2815485	We will keep you posted.	We will keep you posted.	133720743	1475605166887	1475605166992	e	69
262885	2815485	We will keep you posted.	We will keep you posted.	133720770	1475605167052	1475605167199	d	68
