PARTICIPANT_ID	TEST_SECTION_ID	SENTENCE	USER_INPUT	KEYSTROKE_ID	PRESS_TIME	RELEASE_TIME	LETTER	KEYCODE
264569	2834367	Name just one person for each color.	Name jus ton eperson foreach color.	134611629	1475621362204	1475621362370	SHIFT	16
264569	2834367	Name just one person for each color.	Name jus ton eperson foreach color.	134611632	1475621362307	1475621362402	N	78
264569	2834367	Name just one person for each color.	Name jus ton eperson foreach color.	134611635	1475621362435	1475621362530	a	65
264569	2834367	Name just one person for each color.	Name jus ton eperson foreach color.	134611638	1475621362506	1475621362618	m	77
264569	2834367	Name just one person for each color.	Name jus ton eperson foreach color.	134611640	1475621362610	1475621362746	e	69
264569	2834367	Name just one person for each color.	Name jus ton eperson foreach color.	134611651	1475621362674	1475621362810	 	32
264569	2834367	Name just one person for each color.	Name jus ton eperson foreach color.	134611653	1475621362954	1475621363090	j	74
264569	2834367	Name just one person for each color.	Name jus ton eperson foreach color.	134611655	1475621363098	1475621363202	u	85
264569	2834367	Name just one person for each color.	Name jus ton eperson foreach color.	134611657	1475621363163	1475621363234	s	83
264569	2834367	Name just one person for each color.	Name jus ton eperson foreach color.	134611668	1475621363274	1475621363394	t	32
264569	2834367	Name just one person for each color.	Name jus ton eperson foreach color.	134611670	1475621363362	1475621363442	o	79
264569	2834367	Name just one person for each color.	Name jus ton eperson foreach color.	134611672	1475621363490	1475621363586	n	78
264569	2834367	Name just one person for each color.	Name jus ton eperson foreach color.	134611673	1475621363546	1475621363650	 	32
264569	2834367	Name just one person for each color.	Name jus ton eperson foreach color.	134611674	1475621363571	1475621363690	e	69
264569	2834367	Name just one person for each color.	Name jus ton eperson foreach color.	134611675	1475621363698	1475621363842	p	80
264569	2834367	Name just one person for each color.	Name jus ton eperson foreach color.	134611676	1475621363795	1475621363890	e	69
264569	2834367	Name just one person for each color.	Name jus ton eperson foreach color.	134611677	1475621363850	1475621363938	r	82
264569	2834367	Name just one person for each color.	Name jus ton eperson foreach color.	134611678	1475621363979	1475621364098	s	83
264569	2834367	Name just one person for each color.	Name jus ton eperson foreach color.	134611679	1475621364027	1475621364106	o	79
264569	2834367	Name just one person for each color.	Name jus ton eperson foreach color.	134611681	1475621364154	1475621364250	n	78
264569	2834367	Name just one person for each color.	Name jus ton eperson foreach color.	134611713	1475621364242	1475621364402	 	32
264569	2834367	Name just one person for each color.	Name jus ton eperson foreach color.	134611715	1475621364450	1475621364554	f	70
264569	2834367	Name just one person for each color.	Name jus ton eperson foreach color.	134611717	1475621364546	1475621364650	o	79
264569	2834367	Name just one person for each color.	Name jus ton eperson foreach color.	134611720	1475621364634	1475621364746	r	82
264569	2834367	Name just one person for each color.	Name jus ton eperson foreach color.	134611723	1475621365898	1475621365994	e	69
264569	2834367	Name just one person for each color.	Name jus ton eperson foreach color.	134611726	1475621366018	1475621366106	a	65
264569	2834367	Name just one person for each color.	Name jus ton eperson foreach color.	134611746	1475621366163	1475621366282	c	67
264569	2834367	Name just one person for each color.	Name jus ton eperson foreach color.	134611747	1475621366211	1475621366306	h	72
264569	2834367	Name just one person for each color.	Name jus ton eperson foreach color.	134611748	1475621366298	1475621366418	 	32
264569	2834367	Name just one person for each color.	Name jus ton eperson foreach color.	134611750	1475621366610	1475621366738	c	67
264569	2834367	Name just one person for each color.	Name jus ton eperson foreach color.	134611752	1475621366746	1475621366850	o	79
264569	2834367	Name just one person for each color.	Name jus ton eperson foreach color.	134611768	1475621366964	1475621367026	l	76
264569	2834367	Name just one person for each color.	Name jus ton eperson foreach color.	134611770	1475621367107	1475621367162	o	79
264569	2834367	Name just one person for each color.	Name jus ton eperson foreach color.	134611772	1475621367170	1475621367282	r	82
264569	2834367	Name just one person for each color.	Name jus ton eperson foreach color.	134611775	1475621367275	1475621367330	.	190
264569	2834374	I am sorry you had to come in.	I am sorry you had to come in/	134611857	1475621370026	1475621370162	SHIFT	16
264569	2834374	I am sorry you had to come in.	I am sorry you had to come in/	134611859	1475621370114	1475621370234	I	73
264569	2834374	I am sorry you had to come in.	I am sorry you had to come in/	134611862	1475621370194	1475621370330	 	32
264569	2834374	I am sorry you had to come in.	I am sorry you had to come in/	134611865	1475621370290	1475621370410	a	65
264569	2834374	I am sorry you had to come in.	I am sorry you had to come in/	134611868	1475621370370	1475621370466	m	77
264569	2834374	I am sorry you had to come in.	I am sorry you had to come in/	134611878	1475621370450	1475621370562	 	32
264569	2834374	I am sorry you had to come in.	I am sorry you had to come in/	134611880	1475621370490	1475621370578	s	83
264569	2834374	I am sorry you had to come in.	I am sorry you had to come in/	134611883	1475621370594	1475621370690	o	79
264569	2834374	I am sorry you had to come in.	I am sorry you had to come in/	134611887	1475621370658	1475621370714	r	82
264569	2834374	I am sorry you had to come in.	I am sorry you had to come in/	134611889	1475621370779	1475621370874	r	82
264569	2834374	I am sorry you had to come in.	I am sorry you had to come in/	134611890	1475621370858	1475621370930	y	89
264569	2834374	I am sorry you had to come in.	I am sorry you had to come in/	134611893	1475621370938	1475621371098	 	32
264569	2834374	I am sorry you had to come in.	I am sorry you had to come in/	134611895	1475621371050	1475621371138	y	89
264569	2834374	I am sorry you had to come in.	I am sorry you had to come in/	134611897	1475621371194	1475621371330	o	79
264569	2834374	I am sorry you had to come in.	I am sorry you had to come in/	134611905	1475621371258	1475621371338	u	85
264569	2834374	I am sorry you had to come in.	I am sorry you had to come in/	134611908	1475621371298	1475621371466	 	32
264569	2834374	I am sorry you had to come in.	I am sorry you had to come in/	134611911	1475621371426	1475621371530	h	72
264569	2834374	I am sorry you had to come in.	I am sorry you had to come in/	134611913	1475621371490	1475621371578	a	65
264569	2834374	I am sorry you had to come in.	I am sorry you had to come in/	134611915	1475621371602	1475621371682	d	68
264569	2834374	I am sorry you had to come in.	I am sorry you had to come in/	134611916	1475621371707	1475621371802	 	32
264569	2834374	I am sorry you had to come in.	I am sorry you had to come in/	134611917	1475621371786	1475621371865	t	84
264569	2834374	I am sorry you had to come in.	I am sorry you had to come in/	134611918	1475621371858	1475621371938	o	79
264569	2834374	I am sorry you had to come in.	I am sorry you had to come in/	134611919	1475621371922	1475621372042	 	32
264569	2834374	I am sorry you had to come in.	I am sorry you had to come in/	134611920	1475621371970	1475621372082	c	67
264569	2834374	I am sorry you had to come in.	I am sorry you had to come in/	134611922	1475621372027	1475621372121	o	79
264569	2834374	I am sorry you had to come in.	I am sorry you had to come in/	134611948	1475621372114	1475621372218	m	77
264569	2834374	I am sorry you had to come in.	I am sorry you had to come in/	134611949	1475621372250	1475621372290	i	73
264569	2834374	I am sorry you had to come in.	I am sorry you had to come in/	134611951	1475621372314	1475621372418	 	32
264569	2834374	I am sorry you had to come in.	I am sorry you had to come in/	134611954	1475621372698	1475621372754	BKSP	8
264569	2834374	I am sorry you had to come in.	I am sorry you had to come in/	134611958	1475621372794	1475621372857	BKSP	8
264569	2834374	I am sorry you had to come in.	I am sorry you had to come in/	134611961	1475621372850	1475621372986	e	69
264569	2834374	I am sorry you had to come in.	I am sorry you had to come in/	134611964	1475621372914	1475621373050	 	32
264569	2834374	I am sorry you had to come in.	I am sorry you had to come in/	134611966	1475621372986	1475621373090	i	73
264569	2834374	I am sorry you had to come in.	I am sorry you had to come in/	134611967	1475621373066	1475621373146	n	78
264569	2834374	I am sorry you had to come in.	I am sorry you had to come in/	134611968	1475621373251	1475621373298	/	191
264569	2834378	French actress Juliette Binoche declared the festival open.	French actress Juliette Binoche declared the festival open	134612097	1475621377291	1475621377378	SHIFT	16
264569	2834378	French actress Juliette Binoche declared the festival open.	French actress Juliette Binoche declared the festival open	134612099	1475621377330	1475621377426	F	70
264569	2834378	French actress Juliette Binoche declared the festival open.	French actress Juliette Binoche declared the festival open	134612100	1475621377490	1475621377617	r	82
264569	2834378	French actress Juliette Binoche declared the festival open.	French actress Juliette Binoche declared the festival open	134612102	1475621377554	1475621377697	e	69
264569	2834378	French actress Juliette Binoche declared the festival open.	French actress Juliette Binoche declared the festival open	134612106	1475621377802	1475621377914	n	78
264569	2834378	French actress Juliette Binoche declared the festival open.	French actress Juliette Binoche declared the festival open	134612110	1475621377922	1475621378049	c	67
264569	2834378	French actress Juliette Binoche declared the festival open.	French actress Juliette Binoche declared the festival open	134612153	1475621378010	1475621378090	h	72
264569	2834378	French actress Juliette Binoche declared the festival open.	French actress Juliette Binoche declared the festival open	134612157	1475621378122	1475621378290	 	32
264569	2834378	French actress Juliette Binoche declared the festival open.	French actress Juliette Binoche declared the festival open	134612155	1475621378178	1475621378258	a	65
264569	2834378	French actress Juliette Binoche declared the festival open.	French actress Juliette Binoche declared the festival open	134612161	1475621378322	1475621378401	c	67
264569	2834378	French actress Juliette Binoche declared the festival open.	French actress Juliette Binoche declared the festival open	134612163	1475621378738	1475621378834	t	84
264569	2834378	French actress Juliette Binoche declared the festival open.	French actress Juliette Binoche declared the festival open	134612165	1475621379178	1475621379289	r	82
264569	2834378	French actress Juliette Binoche declared the festival open.	French actress Juliette Binoche declared the festival open	134612173	1475621379274	1475621379386	e	69
264569	2834378	French actress Juliette Binoche declared the festival open.	French actress Juliette Binoche declared the festival open	134612176	1475621379474	1475621379521	s	83
264569	2834378	French actress Juliette Binoche declared the festival open.	French actress Juliette Binoche declared the festival open	134612179	1475621379586	1475621379657	s	83
264569	2834378	French actress Juliette Binoche declared the festival open.	French actress Juliette Binoche declared the festival open	134612182	1475621379642	1475621379778	 	32
264569	2834378	French actress Juliette Binoche declared the festival open.	French actress Juliette Binoche declared the festival open	134612190	1475621379697	1475621379825	SHIFT	16
264569	2834378	French actress Juliette Binoche declared the festival open.	French actress Juliette Binoche declared the festival open	134612186	1475621379738	1475621379810	J	74
264569	2834378	French actress Juliette Binoche declared the festival open.	French actress Juliette Binoche declared the festival open	134612192	1475621379850	1475621379945	u	85
264569	2834378	French actress Juliette Binoche declared the festival open.	French actress Juliette Binoche declared the festival open	134612197	1475621380066	1475621380146	l	76
264569	2834378	French actress Juliette Binoche declared the festival open.	French actress Juliette Binoche declared the festival open	134612199	1475621380226	1475621380362	i	73
264569	2834378	French actress Juliette Binoche declared the festival open.	French actress Juliette Binoche declared the festival open	134612201	1475621380306	1475621380401	e	69
264569	2834378	French actress Juliette Binoche declared the festival open.	French actress Juliette Binoche declared the festival open	134612203	1475621380458	1475621380529	t	84
264569	2834378	French actress Juliette Binoche declared the festival open.	French actress Juliette Binoche declared the festival open	134612206	1475621380594	1475621380666	t	84
264569	2834378	French actress Juliette Binoche declared the festival open.	French actress Juliette Binoche declared the festival open	134612217	1475621380674	1475621380794	e	69
264569	2834378	French actress Juliette Binoche declared the festival open.	French actress Juliette Binoche declared the festival open	134612220	1475621380754	1475621380890	 	32
264569	2834378	French actress Juliette Binoche declared the festival open.	French actress Juliette Binoche declared the festival open	134612223	1475621380890	1475621381041	SHIFT	16
264569	2834378	French actress Juliette Binoche declared the festival open.	French actress Juliette Binoche declared the festival open	134612226	1475621380970	1475621381066	B	66
264569	2834378	French actress Juliette Binoche declared the festival open.	French actress Juliette Binoche declared the festival open	134612231	1475621381122	1475621381250	i	73
264569	2834378	French actress Juliette Binoche declared the festival open.	French actress Juliette Binoche declared the festival open	134612255	1475621381242	1475621381321	n	78
264569	2834378	French actress Juliette Binoche declared the festival open.	French actress Juliette Binoche declared the festival open	134612258	1475621381394	1475621381499	o	79
264569	2834378	French actress Juliette Binoche declared the festival open.	French actress Juliette Binoche declared the festival open	134612261	1475621381498	1475621381610	c	67
264569	2834378	French actress Juliette Binoche declared the festival open.	French actress Juliette Binoche declared the festival open	134612264	1475621381578	1475621381699	h	72
264569	2834378	French actress Juliette Binoche declared the festival open.	French actress Juliette Binoche declared the festival open	134612266	1475621381682	1475621381769	e	69
264569	2834378	French actress Juliette Binoche declared the festival open.	French actress Juliette Binoche declared the festival open	134612267	1475621381786	1475621381930	 	32
264569	2834378	French actress Juliette Binoche declared the festival open.	French actress Juliette Binoche declared the festival open	134612277	1475621381850	1475621381964	d	68
264569	2834378	French actress Juliette Binoche declared the festival open.	French actress Juliette Binoche declared the festival open	134612280	1475621381946	1475621382049	e	69
264569	2834378	French actress Juliette Binoche declared the festival open.	French actress Juliette Binoche declared the festival open	134612283	1475621382114	1475621382218	c	67
264569	2834378	French actress Juliette Binoche declared the festival open.	French actress Juliette Binoche declared the festival open	134612286	1475621382250	1475621382362	l	76
264569	2834378	French actress Juliette Binoche declared the festival open.	French actress Juliette Binoche declared the festival open	134612288	1475621382314	1475621382426	a	65
264569	2834378	French actress Juliette Binoche declared the festival open.	French actress Juliette Binoche declared the festival open	134612291	1475621382517	1475621382585	i	73
264569	2834378	French actress Juliette Binoche declared the festival open.	French actress Juliette Binoche declared the festival open	134612319	1475621382578	1475621382681	r	82
264569	2834378	French actress Juliette Binoche declared the festival open.	French actress Juliette Binoche declared the festival open	134612320	1475621382658	1475621382794	e	69
264569	2834378	French actress Juliette Binoche declared the festival open.	French actress Juliette Binoche declared the festival open	134612321	1475621382906	1475621382969	BKSP	8
264569	2834378	French actress Juliette Binoche declared the festival open.	French actress Juliette Binoche declared the festival open	134612322	1475621383050	1475621383106	BKSP	8
264569	2834378	French actress Juliette Binoche declared the festival open.	French actress Juliette Binoche declared the festival open	134612323	1475621383190	1475621383260	BKSP	8
264569	2834378	French actress Juliette Binoche declared the festival open.	French actress Juliette Binoche declared the festival open	134612324	1475621383258	1475621383337	r	82
264569	2834378	French actress Juliette Binoche declared the festival open.	French actress Juliette Binoche declared the festival open	134612325	1475621383314	1475621383474	e	69
264569	2834378	French actress Juliette Binoche declared the festival open.	French actress Juliette Binoche declared the festival open	134612328	1475621383426	1475621383530	d	68
264569	2834378	French actress Juliette Binoche declared the festival open.	French actress Juliette Binoche declared the festival open	134612333	1475621383498	1475621383602	 	32
264569	2834378	French actress Juliette Binoche declared the festival open.	French actress Juliette Binoche declared the festival open	134612334	1475621383618	1475621383706	t	84
264569	2834378	French actress Juliette Binoche declared the festival open.	French actress Juliette Binoche declared the festival open	134612335	1475621383658	1475621383745	h	72
264569	2834378	French actress Juliette Binoche declared the festival open.	French actress Juliette Binoche declared the festival open	134612336	1475621383730	1475621383827	e	69
264569	2834378	French actress Juliette Binoche declared the festival open.	French actress Juliette Binoche declared the festival open	134612338	1475621383802	1475621383969	 	32
264569	2834378	French actress Juliette Binoche declared the festival open.	French actress Juliette Binoche declared the festival open	134612348	1475621383874	1475621383993	f	70
264569	2834378	French actress Juliette Binoche declared the festival open.	French actress Juliette Binoche declared the festival open	134612349	1475621383978	1475621384049	e	69
264569	2834378	French actress Juliette Binoche declared the festival open.	French actress Juliette Binoche declared the festival open	134612350	1475621384114	1475621384186	s	83
264569	2834378	French actress Juliette Binoche declared the festival open.	French actress Juliette Binoche declared the festival open	134612352	1475621384234	1475621384305	t	84
264569	2834378	French actress Juliette Binoche declared the festival open.	French actress Juliette Binoche declared the festival open	134612354	1475621384298	1475621384433	i	73
264569	2834378	French actress Juliette Binoche declared the festival open.	French actress Juliette Binoche declared the festival open	134612369	1475621384410	1475621384473	v	86
264569	2834378	French actress Juliette Binoche declared the festival open.	French actress Juliette Binoche declared the festival open	134612370	1475621384538	1475621384673	a	65
264569	2834378	French actress Juliette Binoche declared the festival open.	French actress Juliette Binoche declared the festival open	134612371	1475621384594	1475621384681	l	76
264569	2834378	French actress Juliette Binoche declared the festival open.	French actress Juliette Binoche declared the festival open	134612372	1475621384714	1475621384834	 	32
264569	2834378	French actress Juliette Binoche declared the festival open.	French actress Juliette Binoche declared the festival open	134612373	1475621384794	1475621384882	o	79
264569	2834378	French actress Juliette Binoche declared the festival open.	French actress Juliette Binoche declared the festival open	134612374	1475621384946	1475621385033	p	80
264569	2834378	French actress Juliette Binoche declared the festival open.	French actress Juliette Binoche declared the festival open	134612382	1475621385026	1475621385162	e	69
264569	2834378	French actress Juliette Binoche declared the festival open.	French actress Juliette Binoche declared the festival open	134612385	1475621385106	1475621385209	n	78
264569	2834388	Are you going to apply?	Are you going to apply?	134612409	1475621386865	1475621387009	SHIFT	16
264569	2834388	Are you going to apply?	Are you going to apply?	134612411	1475621386946	1475621387041	A	65
264569	2834388	Are you going to apply?	Are you going to apply?	134612413	1475621387066	1475621387194	r	82
264569	2834388	Are you going to apply?	Are you going to apply?	134612415	1475621387122	1475621387257	e	69
264569	2834388	Are you going to apply?	Are you going to apply?	134612416	1475621387178	1475621387297	 	32
264569	2834388	Are you going to apply?	Are you going to apply?	134612422	1475621387258	1475621387337	y	89
264569	2834388	Are you going to apply?	Are you going to apply?	134612424	1475621387387	1475621387489	o	79
264569	2834388	Are you going to apply?	Are you going to apply?	134612425	1475621387442	1475621387538	u	85
264569	2834388	Are you going to apply?	Are you going to apply?	134612426	1475621387468	1475621387585	 	32
264569	2834388	Are you going to apply?	Are you going to apply?	134612442	1475621387674	1475621387801	g	71
264569	2834388	Are you going to apply?	Are you going to apply?	134612428	1475621387714	1475621387785	o	79
264569	2834388	Are you going to apply?	Are you going to apply?	134612443	1475621387858	1475621387953	i	73
264569	2834388	Are you going to apply?	Are you going to apply?	134612444	1475621387922	1475621388026	n	78
264569	2834388	Are you going to apply?	Are you going to apply?	134612445	1475621387994	1475621388082	 	71
264569	2834388	Are you going to apply?	Are you going to apply?	134612446	1475621388153	1475621388258	t	84
264569	2834388	Are you going to apply?	Are you going to apply?	134612452	1475621388194	1475621388306	o	79
264569	2834388	Are you going to apply?	Are you going to apply?	134612453	1475621388274	1475621388393	 	32
264569	2834388	Are you going to apply?	Are you going to apply?	134612454	1475621388354	1475621388481	a	65
264569	2834388	Are you going to apply?	Are you going to apply?	134612456	1475621388442	1475621388489	p	80
264569	2834388	Are you going to apply?	Are you going to apply?	134612460	1475621388554	1475621388610	p	80
264569	2834388	Are you going to apply?	Are you going to apply?	134612465	1475621388698	1475621388801	l	76
264569	2834388	Are you going to apply?	Are you going to apply?	134612477	1475621388794	1475621388849	y	89
264569	2834388	Are you going to apply?	Are you going to apply?	134612483	1475621388921	1475621389073	SHIFT	16
264569	2834388	Are you going to apply?	Are you going to apply?	134612480	1475621388970	1475621389057	?	191
264569	2834391	I'm glad you are involved!	I'm glad you are involved!	134612565	1475621390665	1475621390889	SHIFT	16
264569	2834391	I'm glad you are involved!	I'm glad you are involved!	134612563	1475621390754	1475621390841	I	73
264569	2834391	I'm glad you are involved!	I'm glad you are involved!	134612568	1475621390994	1475621391066	'	222
264569	2834391	I'm glad you are involved!	I'm glad you are involved!	134612570	1475621391170	1475621391257	m	77
264569	2834391	I'm glad you are involved!	I'm glad you are involved!	134612572	1475621391266	1475621391393	 	32
264569	2834391	I'm glad you are involved!	I'm glad you are involved!	134612574	1475621391402	1475621391508	g	71
264569	2834391	I'm glad you are involved!	I'm glad you are involved!	134612583	1475621391482	1475621391625	l	76
264569	2834391	I'm glad you are involved!	I'm glad you are involved!	134612585	1475621391586	1475621391713	a	65
264569	2834391	I'm glad you are involved!	I'm glad you are involved!	134612587	1475621391697	1475621391833	d	68
264569	2834391	I'm glad you are involved!	I'm glad you are involved!	134612590	1475621391754	1475621391889	 	32
264569	2834391	I'm glad you are involved!	I'm glad you are involved!	134612595	1475621391826	1475621391929	y	89
264569	2834391	I'm glad you are involved!	I'm glad you are involved!	134612599	1475621391994	1475621392121	o	79
264569	2834391	I'm glad you are involved!	I'm glad you are involved!	134612604	1475621392066	1475621392137	u	85
264569	2834391	I'm glad you are involved!	I'm glad you are involved!	134612605	1475621392090	1475621392241	 	32
264569	2834391	I'm glad you are involved!	I'm glad you are involved!	134612606	1475621392186	1475621392289	a	65
264569	2834391	I'm glad you are involved!	I'm glad you are involved!	134612607	1475621392297	1475621392433	r	82
264569	2834391	I'm glad you are involved!	I'm glad you are involved!	134612608	1475621392345	1475621392481	e	69
264569	2834391	I'm glad you are involved!	I'm glad you are involved!	134612609	1475621392394	1475621392521	 	32
264569	2834391	I'm glad you are involved!	I'm glad you are involved!	134612615	1475621392482	1475621392609	i	73
264569	2834391	I'm glad you are involved!	I'm glad you are involved!	134612617	1475621392578	1475621392689	n	78
264569	2834391	I'm glad you are involved!	I'm glad you are involved!	134612620	1475621392666	1475621392753	v	86
264569	2834391	I'm glad you are involved!	I'm glad you are involved!	134612626	1475621392762	1475621392826	o	79
264569	2834391	I'm glad you are involved!	I'm glad you are involved!	134612631	1475621392898	1475621393009	l	76
264569	2834391	I'm glad you are involved!	I'm glad you are involved!	134612640	1475621392954	1475621393033	v	86
264569	2834391	I'm glad you are involved!	I'm glad you are involved!	134612641	1475621393074	1475621393185	e	69
264569	2834391	I'm glad you are involved!	I'm glad you are involved!	134612642	1475621393154	1475621393265	d	68
264569	2834391	I'm glad you are involved!	I'm glad you are involved!	134612643	1475621393313	1475621393537	SHIFT	16
264569	2834391	I'm glad you are involved!	I'm glad you are involved!	134612644	1475621393449	1475621393538	!	49
264569	2834393	Monitor his progress over the next few weeks.	Monitor his progress over the next few weeks.	134612692	1475621395073	1475621395209	SHIFT	16
264569	2834393	Monitor his progress over the next few weeks.	Monitor his progress over the next few weeks.	134612693	1475621395130	1475621395217	M	77
264569	2834393	Monitor his progress over the next few weeks.	Monitor his progress over the next few weeks.	134612694	1475621395282	1475621395377	o	79
264569	2834393	Monitor his progress over the next few weeks.	Monitor his progress over the next few weeks.	134612695	1475621395449	1475621395538	n	78
264569	2834393	Monitor his progress over the next few weeks.	Monitor his progress over the next few weeks.	134612696	1475621395577	1475621395729	i	73
264569	2834393	Monitor his progress over the next few weeks.	Monitor his progress over the next few weeks.	134612697	1475621395769	1475621395897	t	84
264569	2834393	Monitor his progress over the next few weeks.	Monitor his progress over the next few weeks.	134612722	1475621395954	1475621396065	o	79
264569	2834393	Monitor his progress over the next few weeks.	Monitor his progress over the next few weeks.	134612725	1475621396073	1475621396185	r	82
264569	2834393	Monitor his progress over the next few weeks.	Monitor his progress over the next few weeks.	134612726	1475621396162	1475621396321	 	32
264569	2834393	Monitor his progress over the next few weeks.	Monitor his progress over the next few weeks.	134612727	1475621396329	1475621396433	a	65
264569	2834393	Monitor his progress over the next few weeks.	Monitor his progress over the next few weeks.	134612728	1475621396609	1475621396681	BKSP	8
264569	2834393	Monitor his progress over the next few weeks.	Monitor his progress over the next few weeks.	134612729	1475621396761	1475621396865	h	72
264569	2834393	Monitor his progress over the next few weeks.	Monitor his progress over the next few weeks.	134612732	1475621396867	1475621396969	i	73
264569	2834393	Monitor his progress over the next few weeks.	Monitor his progress over the next few weeks.	134612735	1475621396938	1475621397065	s	83
264569	2834393	Monitor his progress over the next few weeks.	Monitor his progress over the next few weeks.	134612739	1475621397034	1475621397131	 	32
264569	2834393	Monitor his progress over the next few weeks.	Monitor his progress over the next few weeks.	134612742	1475621397129	1475621397217	p	80
264569	2834393	Monitor his progress over the next few weeks.	Monitor his progress over the next few weeks.	134612748	1475621397225	1475621397321	r	82
264569	2834393	Monitor his progress over the next few weeks.	Monitor his progress over the next few weeks.	134612765	1475621397305	1475621397457	o	79
264569	2834393	Monitor his progress over the next few weeks.	Monitor his progress over the next few weeks.	134612766	1475621397443	1475621397537	g	71
264569	2834393	Monitor his progress over the next few weeks.	Monitor his progress over the next few weeks.	134612767	1475621397594	1475621397705	e	69
264569	2834393	Monitor his progress over the next few weeks.	Monitor his progress over the next few weeks.	134612768	1475621397826	1475621397857	r	82
264569	2834393	Monitor his progress over the next few weeks.	Monitor his progress over the next few weeks.	134612769	1475621397921	1475621398001	BKSP	8
264569	2834393	Monitor his progress over the next few weeks.	Monitor his progress over the next few weeks.	134612771	1475621398129	1475621398209	BKSP	8
264569	2834393	Monitor his progress over the next few weeks.	Monitor his progress over the next few weeks.	134612773	1475621398217	1475621398353	r	82
264569	2834393	Monitor his progress over the next few weeks.	Monitor his progress over the next few weeks.	134612789	1475621398274	1475621398377	e	69
264569	2834393	Monitor his progress over the next few weeks.	Monitor his progress over the next few weeks.	134612791	1475621398474	1475621398521	s	83
264569	2834393	Monitor his progress over the next few weeks.	Monitor his progress over the next few weeks.	134612792	1475621398585	1475621398691	s	83
264569	2834393	Monitor his progress over the next few weeks.	Monitor his progress over the next few weeks.	134612793	1475621398673	1475621398825	 	32
264569	2834393	Monitor his progress over the next few weeks.	Monitor his progress over the next few weeks.	134612794	1475621398801	1475621398953	o	79
264569	2834393	Monitor his progress over the next few weeks.	Monitor his progress over the next few weeks.	134612796	1475621398906	1475621398985	v	86
264569	2834393	Monitor his progress over the next few weeks.	Monitor his progress over the next few weeks.	134612797	1475621399049	1475621399161	e	69
264569	2834393	Monitor his progress over the next few weeks.	Monitor his progress over the next few weeks.	134612798	1475621399130	1475621399209	r	82
264569	2834393	Monitor his progress over the next few weeks.	Monitor his progress over the next few weeks.	134612799	1475621399193	1475621399299	 	32
264569	2834393	Monitor his progress over the next few weeks.	Monitor his progress over the next few weeks.	134612801	1475621399297	1475621399385	t	84
264569	2834393	Monitor his progress over the next few weeks.	Monitor his progress over the next few weeks.	134612813	1475621399337	1475621399433	h	72
264569	2834393	Monitor his progress over the next few weeks.	Monitor his progress over the next few weeks.	134612814	1475621399457	1475621399569	e	69
264569	2834393	Monitor his progress over the next few weeks.	Monitor his progress over the next few weeks.	134612815	1475621399497	1475621399609	 	32
264569	2834393	Monitor his progress over the next few weeks.	Monitor his progress over the next few weeks.	134612816	1475621399545	1475621399681	n	78
264569	2834393	Monitor his progress over the next few weeks.	Monitor his progress over the next few weeks.	134612817	1475621399634	1475621399705	e	69
264569	2834393	Monitor his progress over the next few weeks.	Monitor his progress over the next few weeks.	134612818	1475621399810	1475621399881	x	88
264569	2834393	Monitor his progress over the next few weeks.	Monitor his progress over the next few weeks.	134612833	1475621399913	1475621400033	t	84
264569	2834393	Monitor his progress over the next few weeks.	Monitor his progress over the next few weeks.	134612836	1475621400034	1475621400177	 	32
264569	2834393	Monitor his progress over the next few weeks.	Monitor his progress over the next few weeks.	134612840	1475621400193	1475621400273	f	70
264569	2834393	Monitor his progress over the next few weeks.	Monitor his progress over the next few weeks.	134612844	1475621400386	1475621400513	e	69
264569	2834393	Monitor his progress over the next few weeks.	Monitor his progress over the next few weeks.	134612855	1475621400449	1475621400561	w	87
264569	2834393	Monitor his progress over the next few weeks.	Monitor his progress over the next few weeks.	134612858	1475621400546	1475621400689	 	32
264569	2834393	Monitor his progress over the next few weeks.	Monitor his progress over the next few weeks.	134612861	1475621400666	1475621400737	w	87
264569	2834393	Monitor his progress over the next few weeks.	Monitor his progress over the next few weeks.	134612864	1475621400866	1475621400929	e	69
264569	2834393	Monitor his progress over the next few weeks.	Monitor his progress over the next few weeks.	134612867	1475621401002	1475621401081	e	69
264569	2834393	Monitor his progress over the next few weeks.	Monitor his progress over the next few weeks.	134612880	1475621401049	1475621401129	k	75
264569	2834393	Monitor his progress over the next few weeks.	Monitor his progress over the next few weeks.	134612884	1475621401178	1475621401289	s	83
264569	2834393	Monitor his progress over the next few weeks.	Monitor his progress over the next few weeks.	134612888	1475621401266	1475621401361	.	190
264569	2834398	Will follow up today.	Will follow up today.	134612947	1475621403353	1475621403529	SHIFT	16
264569	2834398	Will follow up today.	Will follow up today.	134612948	1475621403490	1475621403617	W	87
264569	2834398	Will follow up today.	Will follow up today.	134612949	1475621403594	1475621403673	i	73
264569	2834398	Will follow up today.	Will follow up today.	134612951	1475621403769	1475621403809	l	76
264569	2834398	Will follow up today.	Will follow up today.	134612953	1475621403865	1475621403945	l	76
264569	2834398	Will follow up today.	Will follow up today.	134612955	1475621403993	1475621404121	 	32
264569	2834398	Will follow up today.	Will follow up today.	134612978	1475621404082	1475621404201	f	70
264569	2834398	Will follow up today.	Will follow up today.	134612982	1475621404161	1475621404225	o	79
264569	2834398	Will follow up today.	Will follow up today.	134612983	1475621404297	1475621404369	l	76
264569	2834398	Will follow up today.	Will follow up today.	134612985	1475621404457	1475621404521	l	76
264569	2834398	Will follow up today.	Will follow up today.	134612986	1475621404633	1475621404721	o	79
264569	2834398	Will follow up today.	Will follow up today.	134612987	1475621404729	1475621404859	r	82
264569	2834398	Will follow up today.	Will follow up today.	134613002	1475621404834	1475621404953	 	32
264569	2834398	Will follow up today.	Will follow up today.	134613003	1475621405025	1475621405089	u	89
264569	2834398	Will follow up today.	Will follow up today.	134613005	1475621405265	1475621405329	BKSP	8
264569	2834398	Will follow up today.	Will follow up today.	134613007	1475621405394	1475621405465	BKSP	8
264569	2834398	Will follow up today.	Will follow up today.	134613008	1475621405521	1475621405593	BKSP	8
264569	2834398	Will follow up today.	Will follow up today.	134613010	1475621405649	1475621405721	BKSP	8
264569	2834398	Will follow up today.	Will follow up today.	134613012	1475621405737	1475621405873	w	87
264569	2834398	Will follow up today.	Will follow up today.	134613017	1475621405801	1475621405897	 	32
264569	2834398	Will follow up today.	Will follow up today.	134613018	1475621405841	1475621405945	u	85
264569	2834398	Will follow up today.	Will follow up today.	134613019	1475621406009	1475621406113	p	80
264569	2834398	Will follow up today.	Will follow up today.	134613021	1475621406113	1475621406225	 	32
264569	2834398	Will follow up today.	Will follow up today.	134613023	1475621406169	1475621406257	t	84
264569	2834398	Will follow up today.	Will follow up today.	134613025	1475621406273	1475621406354	o	79
264569	2834398	Will follow up today.	Will follow up today.	134613034	1475621406353	1475621406449	d	68
264569	2834398	Will follow up today.	Will follow up today.	134613037	1475621406417	1475621406569	a	65
264569	2834398	Will follow up today.	Will follow up today.	134613035	1475621406474	1475621406561	y	89
264569	2834398	Will follow up today.	Will follow up today.	134613039	1475621406697	1475621406769	.	190
264569	2834401	I'm on a conference call.	I'm on a conference call/	134613079	1475621408507	1475621408665	SHIFT	16
264569	2834401	I'm on a conference call.	I'm on a conference call/	134613083	1475621408594	1475621408721	I	73
264569	2834401	I'm on a conference call.	I'm on a conference call/	134613086	1475621408849	1475621408929	'	222
264569	2834401	I'm on a conference call.	I'm on a conference call/	134613089	1475621409017	1475621409097	m	77
264569	2834401	I'm on a conference call.	I'm on a conference call/	134613091	1475621409121	1475621409240	 	32
264569	2834401	I'm on a conference call.	I'm on a conference call/	134613098	1475621409226	1475621409313	o	79
264569	2834401	I'm on a conference call.	I'm on a conference call/	134613099	1475621409377	1475621409441	n	78
264569	2834401	I'm on a conference call.	I'm on a conference call/	134613100	1475621409465	1475621409569	 	32
264569	2834401	I'm on a conference call.	I'm on a conference call/	134613101	1475621409577	1475621409681	a	65
264569	2834401	I'm on a conference call.	I'm on a conference call/	134613102	1475621409633	1475621409761	 	32
264569	2834401	I'm on a conference call.	I'm on a conference call/	134613104	1475621409769	1475621409873	c	67
264569	2834401	I'm on a conference call.	I'm on a conference call/	134613126	1475621409833	1475621409896	o	79
264569	2834401	I'm on a conference call.	I'm on a conference call/	134613129	1475621409961	1475621410105	n	78
264569	2834401	I'm on a conference call.	I'm on a conference call/	134613132	1475621410121	1475621410225	f	70
264569	2834401	I'm on a conference call.	I'm on a conference call/	134613134	1475621410265	1475621410363	e	69
264569	2834401	I'm on a conference call.	I'm on a conference call/	134613137	1475621410345	1475621410457	r	82
264569	2834401	I'm on a conference call.	I'm on a conference call/	134613158	1475621410441	1475621410561	e	69
264569	2834401	I'm on a conference call.	I'm on a conference call/	134613161	1475621410657	1475621410785	n	78
264569	2834401	I'm on a conference call.	I'm on a conference call/	134613166	1475621410762	1475621410857	c	67
264569	2834401	I'm on a conference call.	I'm on a conference call/	134613171	1475621410865	1475621410984	e	69
264569	2834401	I'm on a conference call.	I'm on a conference call/	134613175	1475621410969	1475621411089	 	32
264569	2834401	I'm on a conference call.	I'm on a conference call/	134613177	1475621411129	1475621411193	c	67
264569	2834401	I'm on a conference call.	I'm on a conference call/	134613180	1475621411265	1475621411385	a	65
264569	2834401	I'm on a conference call.	I'm on a conference call/	134613179	1475621411321	1475621411377	l	76
264569	2834401	I'm on a conference call.	I'm on a conference call/	134613183	1475621411425	1475621411497	l	76
264569	2834401	I'm on a conference call.	I'm on a conference call/	134613186	1475621411609	1475621411721	/	191
264569	2834405	He remains a good Fantasy backup when healthy.	He remains a good Fantasy backup when healthy.	134613251	1475621413489	1475621413649	SHIFT	16
264569	2834405	He remains a good Fantasy backup when healthy.	He remains a good Fantasy backup when healthy.	134613253	1475621413569	1475621413696	H	72
264569	2834405	He remains a good Fantasy backup when healthy.	He remains a good Fantasy backup when healthy.	134613256	1475621413689	1475621413824	e	69
264569	2834405	He remains a good Fantasy backup when healthy.	He remains a good Fantasy backup when healthy.	134613258	1475621413801	1475621413961	 	32
264569	2834405	He remains a good Fantasy backup when healthy.	He remains a good Fantasy backup when healthy.	134613260	1475621413873	1475621413976	r	82
264569	2834405	He remains a good Fantasy backup when healthy.	He remains a good Fantasy backup when healthy.	134613261	1475621414025	1475621414177	a	65
264569	2834405	He remains a good Fantasy backup when healthy.	He remains a good Fantasy backup when healthy.	134613268	1475621414497	1475621414592	BKSP	8
264569	2834405	He remains a good Fantasy backup when healthy.	He remains a good Fantasy backup when healthy.	134613271	1475621414585	1475621414696	e	69
264569	2834405	He remains a good Fantasy backup when healthy.	He remains a good Fantasy backup when healthy.	134613273	1475621414681	1475621414800	m	77
264569	2834405	He remains a good Fantasy backup when healthy.	He remains a good Fantasy backup when healthy.	134613275	1475621414753	1475621414896	a	65
264569	2834405	He remains a good Fantasy backup when healthy.	He remains a good Fantasy backup when healthy.	134613276	1475621414857	1475621414984	i	73
264569	2834405	He remains a good Fantasy backup when healthy.	He remains a good Fantasy backup when healthy.	134613285	1475621414945	1475621415065	n	78
264569	2834405	He remains a good Fantasy backup when healthy.	He remains a good Fantasy backup when healthy.	134613289	1475621415017	1475621415129	s	83
264569	2834405	He remains a good Fantasy backup when healthy.	He remains a good Fantasy backup when healthy.	134613292	1475621415145	1475621415225	 	32
264569	2834405	He remains a good Fantasy backup when healthy.	He remains a good Fantasy backup when healthy.	134613294	1475621415177	1475621415273	a	65
264569	2834405	He remains a good Fantasy backup when healthy.	He remains a good Fantasy backup when healthy.	134613295	1475621415297	1475621415408	 	32
264569	2834405	He remains a good Fantasy backup when healthy.	He remains a good Fantasy backup when healthy.	134613296	1475621415377	1475621415481	g	71
264569	2834405	He remains a good Fantasy backup when healthy.	He remains a good Fantasy backup when healthy.	134613297	1475621415489	1475621415553	o	79
264569	2834405	He remains a good Fantasy backup when healthy.	He remains a good Fantasy backup when healthy.	134613298	1475621415617	1475621415720	o	79
264569	2834405	He remains a good Fantasy backup when healthy.	He remains a good Fantasy backup when healthy.	134613299	1475621415697	1475621415768	d	68
264569	2834405	He remains a good Fantasy backup when healthy.	He remains a good Fantasy backup when healthy.	134613301	1475621415801	1475621415944	 	32
264569	2834405	He remains a good Fantasy backup when healthy.	He remains a good Fantasy backup when healthy.	134613304	1475621415824	1475621415992	SHIFT	16
264569	2834405	He remains a good Fantasy backup when healthy.	He remains a good Fantasy backup when healthy.	134613321	1475621415953	1475621416057	F	70
264569	2834405	He remains a good Fantasy backup when healthy.	He remains a good Fantasy backup when healthy.	134613322	1475621416017	1475621416112	SHIFT	16
264569	2834405	He remains a good Fantasy backup when healthy.	He remains a good Fantasy backup when healthy.	134613323	1475621416329	1475621416449	a	65
264569	2834405	He remains a good Fantasy backup when healthy.	He remains a good Fantasy backup when healthy.	134613324	1475621416425	1475621416568	n	78
264569	2834405	He remains a good Fantasy backup when healthy.	He remains a good Fantasy backup when healthy.	134613325	1475621416553	1475621416648	t	84
264569	2834405	He remains a good Fantasy backup when healthy.	He remains a good Fantasy backup when healthy.	134613327	1475621416705	1475621416848	a	65
264569	2834405	He remains a good Fantasy backup when healthy.	He remains a good Fantasy backup when healthy.	134613341	1475621416777	1475621416896	s	83
264569	2834405	He remains a good Fantasy backup when healthy.	He remains a good Fantasy backup when healthy.	134613342	1475621417033	1475621417129	y	89
264569	2834405	He remains a good Fantasy backup when healthy.	He remains a good Fantasy backup when healthy.	134613343	1475621417169	1475621417344	 	32
264569	2834405	He remains a good Fantasy backup when healthy.	He remains a good Fantasy backup when healthy.	134613344	1475621417305	1475621417448	b	66
264569	2834405	He remains a good Fantasy backup when healthy.	He remains a good Fantasy backup when healthy.	134613345	1475621417417	1475621417528	a	65
264569	2834405	He remains a good Fantasy backup when healthy.	He remains a good Fantasy backup when healthy.	134613346	1475621417633	1475621417729	c	67
264569	2834405	He remains a good Fantasy backup when healthy.	He remains a good Fantasy backup when healthy.	134613369	1475621417713	1475621417800	k	75
264569	2834405	He remains a good Fantasy backup when healthy.	He remains a good Fantasy backup when healthy.	134613370	1475621417897	1475621417985	u	85
264569	2834405	He remains a good Fantasy backup when healthy.	He remains a good Fantasy backup when healthy.	134613371	1475621418081	1475621418168	p	80
264569	2834405	He remains a good Fantasy backup when healthy.	He remains a good Fantasy backup when healthy.	134613372	1475621418209	1475621418313	 	32
264569	2834405	He remains a good Fantasy backup when healthy.	He remains a good Fantasy backup when healthy.	134613373	1475621418257	1475621418377	w	87
264569	2834405	He remains a good Fantasy backup when healthy.	He remains a good Fantasy backup when healthy.	134613376	1475621418409	1475621418512	h	72
264569	2834405	He remains a good Fantasy backup when healthy.	He remains a good Fantasy backup when healthy.	134613386	1475621418505	1475621418627	e	69
264569	2834405	He remains a good Fantasy backup when healthy.	He remains a good Fantasy backup when healthy.	134613388	1475621418602	1475621418704	n	78
264569	2834405	He remains a good Fantasy backup when healthy.	He remains a good Fantasy backup when healthy.	134613392	1475621418697	1475621418816	 	32
264569	2834405	He remains a good Fantasy backup when healthy.	He remains a good Fantasy backup when healthy.	134613394	1475621418849	1475621418968	h	72
264569	2834405	He remains a good Fantasy backup when healthy.	He remains a good Fantasy backup when healthy.	134613396	1475621418889	1475621418992	e	69
264569	2834405	He remains a good Fantasy backup when healthy.	He remains a good Fantasy backup when healthy.	134613399	1475621419017	1475621419129	a	65
264569	2834405	He remains a good Fantasy backup when healthy.	He remains a good Fantasy backup when healthy.	134613406	1475621419081	1475621419200	l	76
264569	2834405	He remains a good Fantasy backup when healthy.	He remains a good Fantasy backup when healthy.	134613410	1475621419193	1475621419296	t	84
264569	2834405	He remains a good Fantasy backup when healthy.	He remains a good Fantasy backup when healthy.	134613414	1475621419265	1475621419385	h	72
264569	2834405	He remains a good Fantasy backup when healthy.	He remains a good Fantasy backup when healthy.	134613418	1475621419417	1475621419520	y	89
264569	2834405	He remains a good Fantasy backup when healthy.	He remains a good Fantasy backup when healthy.	134613422	1475621419553	1475621419665	.	190
264569	2834411	on Friday, October 26th.	on Friday, October 26th/	134613505	1475621421688	1475621421792	SHIFT	16
264569	2834411	on Friday, October 26th.	on Friday, October 26th/	134613508	1475621422048	1475621422185	SHIFT	16
264569	2834411	on Friday, October 26th.	on Friday, October 26th/	134613510	1475621422353	1475621422433	o	79
264569	2834411	on Friday, October 26th.	on Friday, October 26th/	134613512	1475621422489	1475621422584	n	78
264569	2834411	on Friday, October 26th.	on Friday, October 26th/	134613514	1475621422569	1475621422736	 	32
264569	2834411	on Friday, October 26th.	on Friday, October 26th/	134613513	1475621422608	1475621422704	SHIFT	16
264569	2834411	on Friday, October 26th.	on Friday, October 26th/	134613515	1475621422673	1475621422768	F	70
264569	2834411	on Friday, October 26th.	on Friday, October 26th/	134613517	1475621422841	1475621422920	r	82
264569	2834411	on Friday, October 26th.	on Friday, October 26th/	134613522	1475621422905	1475621423001	i	73
264569	2834411	on Friday, October 26th.	on Friday, October 26th/	134613523	1475621423009	1475621423113	d	68
264569	2834411	on Friday, October 26th.	on Friday, October 26th/	134613525	1475621423065	1475621423200	a	65
264569	2834411	on Friday, October 26th.	on Friday, October 26th/	134613528	1475621423121	1475621423208	y	89
264569	2834411	on Friday, October 26th.	on Friday, October 26th/	134613531	1475621423329	1475621423432	,	188
264569	2834411	on Friday, October 26th.	on Friday, October 26th/	134613550	1475621423425	1475621423576	 	32
264569	2834411	on Friday, October 26th.	on Friday, October 26th/	134613551	1475621423481	1475621423624	SHIFT	16
264569	2834411	on Friday, October 26th.	on Friday, October 26th/	134613552	1475621423585	1475621423728	O	79
264569	2834411	on Friday, October 26th.	on Friday, October 26th/	134613553	1475621423689	1475621423784	c	67
264569	2834411	on Friday, October 26th.	on Friday, October 26th/	134613554	1475621423881	1475621423993	t	84
264569	2834411	on Friday, October 26th.	on Friday, October 26th/	134613555	1475621423945	1475621424041	o	79
264569	2834411	on Friday, October 26th.	on Friday, October 26th/	134613556	1475621424169	1475621424304	b	66
264569	2834411	on Friday, October 26th.	on Friday, October 26th/	134613568	1475621424265	1475621424392	e	69
264569	2834411	on Friday, October 26th.	on Friday, October 26th/	134613570	1475621424321	1475621424448	r	82
264569	2834411	on Friday, October 26th.	on Friday, October 26th/	134613573	1475621424529	1475621424664	 	32
264569	2834411	on Friday, October 26th.	on Friday, October 26th/	134613576	1475621424737	1475621424793	3	51
264569	2834411	on Friday, October 26th.	on Friday, October 26th/	134613579	1475621425089	1475621425184	2	50
264569	2834411	on Friday, October 26th.	on Friday, October 26th/	134613583	1475621425153	1475621425304	BKSP	8
264569	2834411	on Friday, October 26th.	on Friday, October 26th/	134613586	1475621425321	1475621425416	6	54
264569	2834411	on Friday, October 26th.	on Friday, October 26th/	134613623	1475621425552	1475621425641	BKSP	8
264569	2834411	on Friday, October 26th.	on Friday, October 26th/	134613625	1475621425713	1475621425848	BKSP	8
264569	2834411	on Friday, October 26th.	on Friday, October 26th/	134613627	1475621425817	1475621425953	2	50
264569	2834411	on Friday, October 26th.	on Friday, October 26th/	134613629	1475621426049	1475621426168	6	54
264569	2834411	on Friday, October 26th.	on Friday, October 26th/	134613631	1475621426289	1475621426424	t	84
264569	2834411	on Friday, October 26th.	on Friday, October 26th/	134613632	1475621426369	1475621426473	h	72
264569	2834411	on Friday, October 26th.	on Friday, October 26th/	134613633	1475621427033	1475621427144	/	191
264569	2834415	Both leading candidates have promised to create jobs.	Both leading candidated have promised to create jobs.	134613697	1475621429026	1475621429160	SHIFT	16
264569	2834415	Both leading candidates have promised to create jobs.	Both leading candidated have promised to create jobs.	134613699	1475621429081	1475621429176	B	66
264569	2834415	Both leading candidates have promised to create jobs.	Both leading candidated have promised to create jobs.	134613701	1475621429248	1475621429360	o	79
264569	2834415	Both leading candidates have promised to create jobs.	Both leading candidated have promised to create jobs.	134613703	1475621429313	1475621429448	t	84
264569	2834415	Both leading candidates have promised to create jobs.	Both leading candidated have promised to create jobs.	134613705	1475621429393	1475621429504	h	72
264569	2834415	Both leading candidates have promised to create jobs.	Both leading candidated have promised to create jobs.	134613710	1475621429489	1475621429624	 	32
264569	2834415	Both leading candidates have promised to create jobs.	Both leading candidated have promised to create jobs.	134613712	1475621429601	1475621429752	l	76
264569	2834415	Both leading candidates have promised to create jobs.	Both leading candidated have promised to create jobs.	134613711	1475621429648	1475621429744	e	69
264569	2834415	Both leading candidates have promised to create jobs.	Both leading candidated have promised to create jobs.	134613713	1475621429721	1475621429857	a	65
264569	2834415	Both leading candidates have promised to create jobs.	Both leading candidated have promised to create jobs.	134613714	1475621429825	1475621429960	d	68
264569	2834415	Both leading candidates have promised to create jobs.	Both leading candidated have promised to create jobs.	134613722	1475621429945	1475621430072	i	73
264569	2834415	Both leading candidates have promised to create jobs.	Both leading candidated have promised to create jobs.	134613724	1475621430032	1475621430160	n	78
264569	2834415	Both leading candidates have promised to create jobs.	Both leading candidated have promised to create jobs.	134613726	1475621430120	1475621430208	g	71
264569	2834415	Both leading candidates have promised to create jobs.	Both leading candidated have promised to create jobs.	134613727	1475621430224	1475621430384	 	32
264569	2834415	Both leading candidates have promised to create jobs.	Both leading candidated have promised to create jobs.	134613728	1475621430329	1475621430400	c	67
264569	2834415	Both leading candidates have promised to create jobs.	Both leading candidated have promised to create jobs.	134613729	1475621430449	1475621430584	a	65
264569	2834415	Both leading candidates have promised to create jobs.	Both leading candidated have promised to create jobs.	134613752	1475621430545	1475621430672	n	78
264569	2834415	Both leading candidates have promised to create jobs.	Both leading candidated have promised to create jobs.	134613753	1475621430641	1475621430761	d	68
264569	2834415	Both leading candidates have promised to create jobs.	Both leading candidated have promised to create jobs.	134613754	1475621430785	1475621430928	i	73
264569	2834415	Both leading candidates have promised to create jobs.	Both leading candidated have promised to create jobs.	134613757	1475621431073	1475621431168	d	68
264569	2834415	Both leading candidates have promised to create jobs.	Both leading candidated have promised to create jobs.	134613760	1475621431232	1475621431344	a	65
264569	2834415	Both leading candidates have promised to create jobs.	Both leading candidated have promised to create jobs.	134613762	1475621431400	1475621431480	t	84
264569	2834415	Both leading candidates have promised to create jobs.	Both leading candidated have promised to create jobs.	134613770	1475621431472	1475621431624	e	69
264569	2834415	Both leading candidates have promised to create jobs.	Both leading candidated have promised to create jobs.	134613771	1475621431609	1475621431744	d	68
264569	2834415	Both leading candidates have promised to create jobs.	Both leading candidated have promised to create jobs.	134613772	1475621431672	1475621431784	 	32
264569	2834415	Both leading candidates have promised to create jobs.	Both leading candidated have promised to create jobs.	134613773	1475621431745	1475621431816	h	72
264569	2834415	Both leading candidates have promised to create jobs.	Both leading candidated have promised to create jobs.	134613774	1475621431792	1475621431929	a	65
264569	2834415	Both leading candidates have promised to create jobs.	Both leading candidated have promised to create jobs.	134613792	1475621431921	1475621432024	v	86
264569	2834415	Both leading candidates have promised to create jobs.	Both leading candidated have promised to create jobs.	134613793	1475621432033	1475621432176	e	69
264569	2834415	Both leading candidates have promised to create jobs.	Both leading candidated have promised to create jobs.	134613794	1475621432137	1475621432232	 	32
264569	2834415	Both leading candidates have promised to create jobs.	Both leading candidated have promised to create jobs.	134613796	1475621432305	1475621432432	p	80
264569	2834415	Both leading candidates have promised to create jobs.	Both leading candidated have promised to create jobs.	134613801	1475621432409	1475621432528	r	82
264569	2834415	Both leading candidates have promised to create jobs.	Both leading candidated have promised to create jobs.	134613805	1475621432536	1475621432672	o	79
264569	2834415	Both leading candidates have promised to create jobs.	Both leading candidated have promised to create jobs.	134613824	1475621432689	1475621432824	c	67
264569	2834415	Both leading candidates have promised to create jobs.	Both leading candidated have promised to create jobs.	134613826	1475621433096	1475621433176	BKSP	8
264569	2834415	Both leading candidates have promised to create jobs.	Both leading candidated have promised to create jobs.	134613828	1475621433264	1475621433376	m	77
264569	2834415	Both leading candidates have promised to create jobs.	Both leading candidated have promised to create jobs.	134613831	1475621433426	1475621433584	i	73
264569	2834415	Both leading candidates have promised to create jobs.	Both leading candidated have promised to create jobs.	134613830	1475621433496	1475621433576	s	83
264569	2834415	Both leading candidates have promised to create jobs.	Both leading candidated have promised to create jobs.	134613832	1475621433657	1475621433752	e	69
264569	2834415	Both leading candidates have promised to create jobs.	Both leading candidated have promised to create jobs.	134613833	1475621433706	1475621433808	d	68
264569	2834415	Both leading candidates have promised to create jobs.	Both leading candidated have promised to create jobs.	134613834	1475621433800	1475621433920	 	32
264569	2834415	Both leading candidates have promised to create jobs.	Both leading candidated have promised to create jobs.	134613835	1475621433905	1475621433992	t	84
264569	2834415	Both leading candidates have promised to create jobs.	Both leading candidated have promised to create jobs.	134613836	1475621433944	1475621434072	o	79
264569	2834415	Both leading candidates have promised to create jobs.	Both leading candidated have promised to create jobs.	134613850	1475621434033	1475621434208	 	32
264569	2834415	Both leading candidates have promised to create jobs.	Both leading candidated have promised to create jobs.	134613837	1475621434120	1475621434192	c	67
264569	2834415	Both leading candidates have promised to create jobs.	Both leading candidated have promised to create jobs.	134613853	1475621434289	1475621434400	r	82
264569	2834415	Both leading candidates have promised to create jobs.	Both leading candidated have promised to create jobs.	134613854	1475621434337	1475621434456	e	69
264569	2834415	Both leading candidates have promised to create jobs.	Both leading candidated have promised to create jobs.	134613855	1475621434448	1475621434544	a	65
264569	2834415	Both leading candidates have promised to create jobs.	Both leading candidated have promised to create jobs.	134613856	1475621434528	1475621434664	t	84
264569	2834415	Both leading candidates have promised to create jobs.	Both leading candidated have promised to create jobs.	134613870	1475621434600	1475621434744	e	69
264569	2834415	Both leading candidates have promised to create jobs.	Both leading candidated have promised to create jobs.	134613872	1475621434665	1475621434792	 	32
264569	2834415	Both leading candidates have promised to create jobs.	Both leading candidated have promised to create jobs.	134613874	1475621434745	1475621434832	j	74
264569	2834415	Both leading candidates have promised to create jobs.	Both leading candidated have promised to create jobs.	134613876	1475621434873	1475621434960	o	79
264569	2834415	Both leading candidates have promised to create jobs.	Both leading candidated have promised to create jobs.	134613878	1475621435009	1475621435088	b	66
264569	2834415	Both leading candidates have promised to create jobs.	Both leading candidated have promised to create jobs.	134613879	1475621435104	1475621435248	s	83
264569	2834415	Both leading candidates have promised to create jobs.	Both leading candidated have promised to create jobs.	134613877	1475621435224	1475621435304	.	190
264569	2834421	Coal switching to NG and power guys stimulating demand.	Coal switching to NG and power guys stimulating demand.	134613922	1475621436928	1475621437088	SHIFT	16
264569	2834421	Coal switching to NG and power guys stimulating demand.	Coal switching to NG and power guys stimulating demand.	134613923	1475621437048	1475621437184	C	67
264569	2834421	Coal switching to NG and power guys stimulating demand.	Coal switching to NG and power guys stimulating demand.	134613924	1475621437248	1475621437368	o	79
264569	2834421	Coal switching to NG and power guys stimulating demand.	Coal switching to NG and power guys stimulating demand.	134613925	1475621437916	1475621437919	l	65
264569	2834421	Coal switching to NG and power guys stimulating demand.	Coal switching to NG and power guys stimulating demand.	134614114	1475621437917	1475621444192	 	76
264569	2834421	Coal switching to NG and power guys stimulating demand.	Coal switching to NG and power guys stimulating demand.	134613945	1475621438008	1475621438096	s	83
264569	2834421	Coal switching to NG and power guys stimulating demand.	Coal switching to NG and power guys stimulating demand.	134613947	1475621438200	1475621438312	w	87
264569	2834421	Coal switching to NG and power guys stimulating demand.	Coal switching to NG and power guys stimulating demand.	134613949	1475621438392	1475621438520	t	84
264569	2834421	Coal switching to NG and power guys stimulating demand.	Coal switching to NG and power guys stimulating demand.	134613951	1475621438881	1475621438952	BKSP	8
264569	2834421	Coal switching to NG and power guys stimulating demand.	Coal switching to NG and power guys stimulating demand.	134613956	1475621439042	1475621439184	i	73
264569	2834421	Coal switching to NG and power guys stimulating demand.	Coal switching to NG and power guys stimulating demand.	134613955	1475621439096	1475621439160	t	84
264569	2834421	Coal switching to NG and power guys stimulating demand.	Coal switching to NG and power guys stimulating demand.	134613958	1475621439264	1475621439376	c	67
264569	2834421	Coal switching to NG and power guys stimulating demand.	Coal switching to NG and power guys stimulating demand.	134613963	1475621439313	1475621439424	h	72
264569	2834421	Coal switching to NG and power guys stimulating demand.	Coal switching to NG and power guys stimulating demand.	134613966	1475621439448	1475621439568	i	73
264569	2834421	Coal switching to NG and power guys stimulating demand.	Coal switching to NG and power guys stimulating demand.	134613969	1475621439537	1475621439640	n	78
264569	2834421	Coal switching to NG and power guys stimulating demand.	Coal switching to NG and power guys stimulating demand.	134613972	1475621439608	1475621439696	g	71
264569	2834421	Coal switching to NG and power guys stimulating demand.	Coal switching to NG and power guys stimulating demand.	134613975	1475621439704	1475621439816	 	32
264569	2834421	Coal switching to NG and power guys stimulating demand.	Coal switching to NG and power guys stimulating demand.	134613978	1475621439785	1475621439864	t	84
264569	2834421	Coal switching to NG and power guys stimulating demand.	Coal switching to NG and power guys stimulating demand.	134613981	1475621439841	1475621439936	o	79
264569	2834421	Coal switching to NG and power guys stimulating demand.	Coal switching to NG and power guys stimulating demand.	134613984	1475621439921	1475621440056	 	32
264569	2834421	Coal switching to NG and power guys stimulating demand.	Coal switching to NG and power guys stimulating demand.	134613990	1475621439944	1475621440200	SHIFT	16
264569	2834421	Coal switching to NG and power guys stimulating demand.	Coal switching to NG and power guys stimulating demand.	134613987	1475621440024	1475621440152	N	78
264569	2834421	Coal switching to NG and power guys stimulating demand.	Coal switching to NG and power guys stimulating demand.	134613992	1475621440120	1475621440232	G	71
264569	2834421	Coal switching to NG and power guys stimulating demand.	Coal switching to NG and power guys stimulating demand.	134613993	1475621440257	1475621440376	 	32
264569	2834421	Coal switching to NG and power guys stimulating demand.	Coal switching to NG and power guys stimulating demand.	134613999	1475621440336	1475621440464	a	65
264569	2834421	Coal switching to NG and power guys stimulating demand.	Coal switching to NG and power guys stimulating demand.	134614000	1475621440424	1475621440520	n	78
264569	2834421	Coal switching to NG and power guys stimulating demand.	Coal switching to NG and power guys stimulating demand.	134614001	1475621440512	1475621440616	d	68
264569	2834421	Coal switching to NG and power guys stimulating demand.	Coal switching to NG and power guys stimulating demand.	134614002	1475621440552	1475621440648	 	32
264569	2834421	Coal switching to NG and power guys stimulating demand.	Coal switching to NG and power guys stimulating demand.	134614003	1475621440656	1475621440744	p	80
264569	2834421	Coal switching to NG and power guys stimulating demand.	Coal switching to NG and power guys stimulating demand.	134614004	1475621440817	1475621440936	p	80
264569	2834421	Coal switching to NG and power guys stimulating demand.	Coal switching to NG and power guys stimulating demand.	134614032	1475621440856	1475621440952	w	87
264569	2834421	Coal switching to NG and power guys stimulating demand.	Coal switching to NG and power guys stimulating demand.	134614034	1475621441032	1475621441136	e	69
264569	2834421	Coal switching to NG and power guys stimulating demand.	Coal switching to NG and power guys stimulating demand.	134614036	1475621441096	1475621441248	r	82
264569	2834421	Coal switching to NG and power guys stimulating demand.	Coal switching to NG and power guys stimulating demand.	134614040	1475621441376	1475621441448	BKSP	8
264569	2834421	Coal switching to NG and power guys stimulating demand.	Coal switching to NG and power guys stimulating demand.	134614044	1475621441496	1475621441576	BKSP	8
264569	2834421	Coal switching to NG and power guys stimulating demand.	Coal switching to NG and power guys stimulating demand.	134614050	1475621441624	1475621441696	BKSP	8
264569	2834421	Coal switching to NG and power guys stimulating demand.	Coal switching to NG and power guys stimulating demand.	134614055	1475621441744	1475621441816	BKSP	8
264569	2834421	Coal switching to NG and power guys stimulating demand.	Coal switching to NG and power guys stimulating demand.	134614062	1475621441905	1475621442056	o	79
264569	2834421	Coal switching to NG and power guys stimulating demand.	Coal switching to NG and power guys stimulating demand.	134614057	1475621441960	1475621442048	w	87
264569	2834421	Coal switching to NG and power guys stimulating demand.	Coal switching to NG and power guys stimulating demand.	134614066	1475621442128	1475621442232	e	69
264569	2834421	Coal switching to NG and power guys stimulating demand.	Coal switching to NG and power guys stimulating demand.	134614085	1475621442176	1475621442288	r	82
264569	2834421	Coal switching to NG and power guys stimulating demand.	Coal switching to NG and power guys stimulating demand.	134614086	1475621442273	1475621442384	 	32
264569	2834421	Coal switching to NG and power guys stimulating demand.	Coal switching to NG and power guys stimulating demand.	134614087	1475621442400	1475621442520	g	71
264569	2834421	Coal switching to NG and power guys stimulating demand.	Coal switching to NG and power guys stimulating demand.	134614088	1475621442473	1475621442608	u	85
264569	2834421	Coal switching to NG and power guys stimulating demand.	Coal switching to NG and power guys stimulating demand.	134614091	1475621443104	1475621443232	y	89
264569	2834421	Coal switching to NG and power guys stimulating demand.	Coal switching to NG and power guys stimulating demand.	134614094	1475621443248	1475621443368	s	83
264569	2834421	Coal switching to NG and power guys stimulating demand.	Coal switching to NG and power guys stimulating demand.	134614102	1475621443344	1475621443480	 	32
264569	2834421	Coal switching to NG and power guys stimulating demand.	Coal switching to NG and power guys stimulating demand.	134614104	1475621443432	1475621443528	s	83
264569	2834421	Coal switching to NG and power guys stimulating demand.	Coal switching to NG and power guys stimulating demand.	134614108	1475621443576	1475621443704	t	84
264569	2834421	Coal switching to NG and power guys stimulating demand.	Coal switching to NG and power guys stimulating demand.	134614106	1475621443616	1475621443704	i	73
264569	2834421	Coal switching to NG and power guys stimulating demand.	Coal switching to NG and power guys stimulating demand.	134614110	1475621443720	1475621443832	m	77
264569	2834421	Coal switching to NG and power guys stimulating demand.	Coal switching to NG and power guys stimulating demand.	134614111	1475621443881	1475621443960	u	85
264569	2834421	Coal switching to NG and power guys stimulating demand.	Coal switching to NG and power guys stimulating demand.	134614116	1475621444128	1475621444216	a	65
264569	2834421	Coal switching to NG and power guys stimulating demand.	Coal switching to NG and power guys stimulating demand.	134614118	1475621444232	1475621444360	t	84
264569	2834421	Coal switching to NG and power guys stimulating demand.	Coal switching to NG and power guys stimulating demand.	134614120	1475621444312	1475621444416	i	73
264569	2834421	Coal switching to NG and power guys stimulating demand.	Coal switching to NG and power guys stimulating demand.	134614123	1475621444424	1475621444527	n	78
264569	2834421	Coal switching to NG and power guys stimulating demand.	Coal switching to NG and power guys stimulating demand.	134614127	1475621444520	1475621444600	g	71
264569	2834421	Coal switching to NG and power guys stimulating demand.	Coal switching to NG and power guys stimulating demand.	134614129	1475621444584	1475621444714	 	32
264569	2834421	Coal switching to NG and power guys stimulating demand.	Coal switching to NG and power guys stimulating demand.	134614132	1475621444696	1475621444808	d	68
264569	2834421	Coal switching to NG and power guys stimulating demand.	Coal switching to NG and power guys stimulating demand.	134614136	1475621444752	1475621444848	e	69
264569	2834421	Coal switching to NG and power guys stimulating demand.	Coal switching to NG and power guys stimulating demand.	134614139	1475621444816	1475621444914	m	77
264569	2834421	Coal switching to NG and power guys stimulating demand.	Coal switching to NG and power guys stimulating demand.	134614159	1475621444888	1475621445016	a	65
264569	2834421	Coal switching to NG and power guys stimulating demand.	Coal switching to NG and power guys stimulating demand.	134614162	1475621445024	1475621445136	n	78
264569	2834421	Coal switching to NG and power guys stimulating demand.	Coal switching to NG and power guys stimulating demand.	134614165	1475621445152	1475621445208	c	67
264569	2834421	Coal switching to NG and power guys stimulating demand.	Coal switching to NG and power guys stimulating demand.	134614168	1475621445424	1475621445488	BKSP	8
264569	2834421	Coal switching to NG and power guys stimulating demand.	Coal switching to NG and power guys stimulating demand.	134614171	1475621445496	1475621445608	d	68
264569	2834421	Coal switching to NG and power guys stimulating demand.	Coal switching to NG and power guys stimulating demand.	134614175	1475621445608	1475621445656	.	190
264569	2834428	Rookie Kevin Swayne will move into the starting lineup.	Rookie Kevin Swayne will move into the starting lineup/	134614241	1475621447488	1475621447664	SHIFT	16
264569	2834428	Rookie Kevin Swayne will move into the starting lineup.	Rookie Kevin Swayne will move into the starting lineup/	134614244	1475621447624	1475621447735	R	82
264569	2834428	Rookie Kevin Swayne will move into the starting lineup.	Rookie Kevin Swayne will move into the starting lineup/	134614247	1475621447712	1475621447792	o	79
264569	2834428	Rookie Kevin Swayne will move into the starting lineup.	Rookie Kevin Swayne will move into the starting lineup/	134614249	1475621447913	1475621447960	k	75
264569	2834428	Rookie Kevin Swayne will move into the starting lineup.	Rookie Kevin Swayne will move into the starting lineup/	134614250	1475621448184	1475621448240	BKSP	8
264569	2834428	Rookie Kevin Swayne will move into the starting lineup.	Rookie Kevin Swayne will move into the starting lineup/	134614252	1475621448328	1475621448400	o	79
264569	2834428	Rookie Kevin Swayne will move into the starting lineup.	Rookie Kevin Swayne will move into the starting lineup/	134614376	1475621448512	1475621453016	l	76
264569	2834428	Rookie Kevin Swayne will move into the starting lineup.	Rookie Kevin Swayne will move into the starting lineup/	134614271	1475621448664	1475621448784	i	73
264569	2834428	Rookie Kevin Swayne will move into the starting lineup.	Rookie Kevin Swayne will move into the starting lineup/	134614272	1475621448808	1475621448888	e	69
264569	2834428	Rookie Kevin Swayne will move into the starting lineup.	Rookie Kevin Swayne will move into the starting lineup/	134614273	1475621449114	1475621449184	BKSP	8
264569	2834428	Rookie Kevin Swayne will move into the starting lineup.	Rookie Kevin Swayne will move into the starting lineup/	134614274	1475621449256	1475621449319	BKSP	8
264569	2834428	Rookie Kevin Swayne will move into the starting lineup.	Rookie Kevin Swayne will move into the starting lineup/	134614276	1475621449384	1475621449440	BKSP	8
264569	2834428	Rookie Kevin Swayne will move into the starting lineup.	Rookie Kevin Swayne will move into the starting lineup/	134614278	1475621449544	1475621449616	k	75
264569	2834428	Rookie Kevin Swayne will move into the starting lineup.	Rookie Kevin Swayne will move into the starting lineup/	134614280	1475621449704	1475621449791	i	73
264569	2834428	Rookie Kevin Swayne will move into the starting lineup.	Rookie Kevin Swayne will move into the starting lineup/	134614286	1475621449784	1475621449856	e	69
264569	2834428	Rookie Kevin Swayne will move into the starting lineup.	Rookie Kevin Swayne will move into the starting lineup/	134614287	1475621449864	1475621450018	 	32
264569	2834428	Rookie Kevin Swayne will move into the starting lineup.	Rookie Kevin Swayne will move into the starting lineup/	134614288	1475621449919	1475621450056	SHIFT	16
264569	2834428	Rookie Kevin Swayne will move into the starting lineup.	Rookie Kevin Swayne will move into the starting lineup/	134614289	1475621450000	1475621450127	K	75
264569	2834428	Rookie Kevin Swayne will move into the starting lineup.	Rookie Kevin Swayne will move into the starting lineup/	134614290	1475621450080	1475621450160	e	69
264569	2834428	Rookie Kevin Swayne will move into the starting lineup.	Rookie Kevin Swayne will move into the starting lineup/	134614293	1475621450240	1475621450359	v	86
264569	2834428	Rookie Kevin Swayne will move into the starting lineup.	Rookie Kevin Swayne will move into the starting lineup/	134614316	1475621450304	1475621450431	i	73
264569	2834428	Rookie Kevin Swayne will move into the starting lineup.	Rookie Kevin Swayne will move into the starting lineup/	134614318	1475621450400	1475621450520	n	78
264569	2834428	Rookie Kevin Swayne will move into the starting lineup.	Rookie Kevin Swayne will move into the starting lineup/	134614320	1475621450496	1475621450640	 	32
264569	2834428	Rookie Kevin Swayne will move into the starting lineup.	Rookie Kevin Swayne will move into the starting lineup/	134614322	1475621450520	1475621450768	SHIFT	16
264569	2834428	Rookie Kevin Swayne will move into the starting lineup.	Rookie Kevin Swayne will move into the starting lineup/	134614326	1475621450680	1475621450823	S	83
264569	2834428	Rookie Kevin Swayne will move into the starting lineup.	Rookie Kevin Swayne will move into the starting lineup/	134614328	1475621450952	1475621451040	w	87
264569	2834428	Rookie Kevin Swayne will move into the starting lineup.	Rookie Kevin Swayne will move into the starting lineup/	134614330	1475621451416	1475621451575	a	65
264569	2834428	Rookie Kevin Swayne will move into the starting lineup.	Rookie Kevin Swayne will move into the starting lineup/	134614352	1475621451672	1475621451728	t	84
264569	2834428	Rookie Kevin Swayne will move into the starting lineup.	Rookie Kevin Swayne will move into the starting lineup/	134614355	1475621451912	1475621452023	n	78
264569	2834428	Rookie Kevin Swayne will move into the starting lineup.	Rookie Kevin Swayne will move into the starting lineup/	134614359	1475621452144	1475621452208	BKSP	8
264569	2834428	Rookie Kevin Swayne will move into the starting lineup.	Rookie Kevin Swayne will move into the starting lineup/	134614361	1475621452280	1475621452360	BKSP	8
264569	2834428	Rookie Kevin Swayne will move into the starting lineup.	Rookie Kevin Swayne will move into the starting lineup/	134614363	1475621452384	1475621452480	y	89
264569	2834428	Rookie Kevin Swayne will move into the starting lineup.	Rookie Kevin Swayne will move into the starting lineup/	134614364	1475621452496	1475621452608	n	78
264569	2834428	Rookie Kevin Swayne will move into the starting lineup.	Rookie Kevin Swayne will move into the starting lineup/	134614368	1475621452576	1475621452664	e	69
264569	2834428	Rookie Kevin Swayne will move into the starting lineup.	Rookie Kevin Swayne will move into the starting lineup/	134614370	1475621452656	1475621452767	 	32
264569	2834428	Rookie Kevin Swayne will move into the starting lineup.	Rookie Kevin Swayne will move into the starting lineup/	134614374	1475621452736	1475621452872	w	87
264569	2834428	Rookie Kevin Swayne will move into the starting lineup.	Rookie Kevin Swayne will move into the starting lineup/	134614372	1475621452792	1475621452872	i	73
264569	2834428	Rookie Kevin Swayne will move into the starting lineup.	Rookie Kevin Swayne will move into the starting lineup/	134614377	1475621452960	1475621453168	l	76
264569	2834428	Rookie Kevin Swayne will move into the starting lineup.	Rookie Kevin Swayne will move into the starting lineup/	134614455	1475621453064	1475621455831	l	76
264569	2834428	Rookie Kevin Swayne will move into the starting lineup.	Rookie Kevin Swayne will move into the starting lineup/	134614379	1475621453200	1475621453319	 	32
264569	2834428	Rookie Kevin Swayne will move into the starting lineup.	Rookie Kevin Swayne will move into the starting lineup/	134614382	1475621453248	1475621453351	m	77
264569	2834428	Rookie Kevin Swayne will move into the starting lineup.	Rookie Kevin Swayne will move into the starting lineup/	134614385	1475621453408	1475621453552	o	79
264569	2834428	Rookie Kevin Swayne will move into the starting lineup.	Rookie Kevin Swayne will move into the starting lineup/	134614388	1475621453488	1475621453592	v	86
264569	2834428	Rookie Kevin Swayne will move into the starting lineup.	Rookie Kevin Swayne will move into the starting lineup/	134614391	1475621453656	1475621453792	e	69
264569	2834428	Rookie Kevin Swayne will move into the starting lineup.	Rookie Kevin Swayne will move into the starting lineup/	134614401	1475621453728	1475621453856	 	32
264569	2834428	Rookie Kevin Swayne will move into the starting lineup.	Rookie Kevin Swayne will move into the starting lineup/	134614403	1475621453832	1475621453952	i	73
264569	2834428	Rookie Kevin Swayne will move into the starting lineup.	Rookie Kevin Swayne will move into the starting lineup/	134614405	1475621453912	1475621454040	n	78
264569	2834428	Rookie Kevin Swayne will move into the starting lineup.	Rookie Kevin Swayne will move into the starting lineup/	134614407	1475621454064	1475621454200	t	84
264569	2834428	Rookie Kevin Swayne will move into the starting lineup.	Rookie Kevin Swayne will move into the starting lineup/	134614409	1475621454168	1475621454280	o	79
264569	2834428	Rookie Kevin Swayne will move into the starting lineup.	Rookie Kevin Swayne will move into the starting lineup/	134614410	1475621454320	1475621454455	 	32
264569	2834428	Rookie Kevin Swayne will move into the starting lineup.	Rookie Kevin Swayne will move into the starting lineup/	134614416	1475621454464	1475621454576	t	84
264569	2834428	Rookie Kevin Swayne will move into the starting lineup.	Rookie Kevin Swayne will move into the starting lineup/	134614417	1475621454528	1475621454664	h	72
264569	2834428	Rookie Kevin Swayne will move into the starting lineup.	Rookie Kevin Swayne will move into the starting lineup/	134614418	1475621454672	1475621454767	e	69
264569	2834428	Rookie Kevin Swayne will move into the starting lineup.	Rookie Kevin Swayne will move into the starting lineup/	134614419	1475621454768	1475621454919	 	32
264569	2834428	Rookie Kevin Swayne will move into the starting lineup.	Rookie Kevin Swayne will move into the starting lineup/	134614431	1475621454848	1475621454935	s	83
264569	2834428	Rookie Kevin Swayne will move into the starting lineup.	Rookie Kevin Swayne will move into the starting lineup/	134614432	1475621454968	1475621455039	t	84
264569	2834428	Rookie Kevin Swayne will move into the starting lineup.	Rookie Kevin Swayne will move into the starting lineup/	134614433	1475621455080	1475621455207	a	65
264569	2834428	Rookie Kevin Swayne will move into the starting lineup.	Rookie Kevin Swayne will move into the starting lineup/	134614434	1475621455184	1475621455255	r	82
264569	2834428	Rookie Kevin Swayne will move into the starting lineup.	Rookie Kevin Swayne will move into the starting lineup/	134614436	1475621455328	1475621455447	t	84
264569	2834428	Rookie Kevin Swayne will move into the starting lineup.	Rookie Kevin Swayne will move into the starting lineup/	134614450	1475621455400	1475621455536	i	73
264569	2834428	Rookie Kevin Swayne will move into the starting lineup.	Rookie Kevin Swayne will move into the starting lineup/	134614451	1475621455488	1475621455632	n	78
264569	2834428	Rookie Kevin Swayne will move into the starting lineup.	Rookie Kevin Swayne will move into the starting lineup/	134614452	1475621455576	1475621455679	g	71
264569	2834428	Rookie Kevin Swayne will move into the starting lineup.	Rookie Kevin Swayne will move into the starting lineup/	134614453	1475621455632	1475621455743	 	32
264569	2834428	Rookie Kevin Swayne will move into the starting lineup.	Rookie Kevin Swayne will move into the starting lineup/	134614457	1475621455920	1475621456056	i	73
264569	2834428	Rookie Kevin Swayne will move into the starting lineup.	Rookie Kevin Swayne will move into the starting lineup/	134614471	1475621455976	1475621456095	n	78
264569	2834428	Rookie Kevin Swayne will move into the starting lineup.	Rookie Kevin Swayne will move into the starting lineup/	134614472	1475621456048	1475621456223	e	69
264569	2834428	Rookie Kevin Swayne will move into the starting lineup.	Rookie Kevin Swayne will move into the starting lineup/	134614473	1475621456208	1475621456295	u	85
264569	2834428	Rookie Kevin Swayne will move into the starting lineup.	Rookie Kevin Swayne will move into the starting lineup/	134614474	1475621456352	1475621456432	p	80
264569	2834428	Rookie Kevin Swayne will move into the starting lineup.	Rookie Kevin Swayne will move into the starting lineup/	134614475	1475621456536	1475621456616	/	191
264569	2834434	Evaluating a lease offer on Sonoran project.	Evaluating a lease offer on Sonoran project.	134614530	1475621458151	1475621458295	SHIFT	16
264569	2834434	Evaluating a lease offer on Sonoran project.	Evaluating a lease offer on Sonoran project.	134614533	1475621458248	1475621458367	E	69
264569	2834434	Evaluating a lease offer on Sonoran project.	Evaluating a lease offer on Sonoran project.	134614538	1475621458440	1475621458551	v	86
264569	2834434	Evaluating a lease offer on Sonoran project.	Evaluating a lease offer on Sonoran project.	134614540	1475621458608	1475621458767	a	65
264569	2834434	Evaluating a lease offer on Sonoran project.	Evaluating a lease offer on Sonoran project.	134614580	1475621458736	1475621461256	l	76
264569	2834434	Evaluating a lease offer on Sonoran project.	Evaluating a lease offer on Sonoran project.	134614544	1475621459537	1475621459631	a	65
264569	2834434	Evaluating a lease offer on Sonoran project.	Evaluating a lease offer on Sonoran project.	134614558	1475621459912	1475621460007	BKSP	8
264569	2834434	Evaluating a lease offer on Sonoran project.	Evaluating a lease offer on Sonoran project.	134614559	1475621460208	1475621460343	u	85
264569	2834434	Evaluating a lease offer on Sonoran project.	Evaluating a lease offer on Sonoran project.	134614560	1475621460272	1475621460351	a	65
264569	2834434	Evaluating a lease offer on Sonoran project.	Evaluating a lease offer on Sonoran project.	134614562	1475621460391	1475621460503	t	84
264569	2834434	Evaluating a lease offer on Sonoran project.	Evaluating a lease offer on Sonoran project.	134614564	1475621460464	1475621460567	i	73
264569	2834434	Evaluating a lease offer on Sonoran project.	Evaluating a lease offer on Sonoran project.	134614567	1475621460616	1475621460735	n	78
264569	2834434	Evaluating a lease offer on Sonoran project.	Evaluating a lease offer on Sonoran project.	134614575	1475621460720	1475621460807	g	71
264569	2834434	Evaluating a lease offer on Sonoran project.	Evaluating a lease offer on Sonoran project.	134614576	1475621460800	1475621460919	 	32
264569	2834434	Evaluating a lease offer on Sonoran project.	Evaluating a lease offer on Sonoran project.	134614577	1475621460904	1475621460993	a	65
264569	2834434	Evaluating a lease offer on Sonoran project.	Evaluating a lease offer on Sonoran project.	134614578	1475621460976	1475621461055	 	32
264569	2834434	Evaluating a lease offer on Sonoran project.	Evaluating a lease offer on Sonoran project.	134614579	1475621461129	1475621461215	e	69
264569	2834434	Evaluating a lease offer on Sonoran project.	Evaluating a lease offer on Sonoran project.	134614581	1475621461208	1475621461351	a	65
264569	2834434	Evaluating a lease offer on Sonoran project.	Evaluating a lease offer on Sonoran project.	134614582	1475621461344	1475621461447	s	83
264569	2834434	Evaluating a lease offer on Sonoran project.	Evaluating a lease offer on Sonoran project.	134614584	1475621461480	1475621461599	e	69
264569	2834434	Evaluating a lease offer on Sonoran project.	Evaluating a lease offer on Sonoran project.	134614586	1475621461536	1475621461679	 	32
264569	2834434	Evaluating a lease offer on Sonoran project.	Evaluating a lease offer on Sonoran project.	134614588	1475621461608	1475621461783	o	79
264569	2834434	Evaluating a lease offer on Sonoran project.	Evaluating a lease offer on Sonoran project.	134614591	1475621461752	1475621461815	f	70
264569	2834434	Evaluating a lease offer on Sonoran project.	Evaluating a lease offer on Sonoran project.	134614593	1475621461888	1475621461983	f	70
264569	2834434	Evaluating a lease offer on Sonoran project.	Evaluating a lease offer on Sonoran project.	134614595	1475621462024	1475621462143	e	69
264569	2834434	Evaluating a lease offer on Sonoran project.	Evaluating a lease offer on Sonoran project.	134614597	1475621462104	1475621462231	r	82
264569	2834434	Evaluating a lease offer on Sonoran project.	Evaluating a lease offer on Sonoran project.	134614599	1475621462167	1475621462271	 	32
264569	2834434	Evaluating a lease offer on Sonoran project.	Evaluating a lease offer on Sonoran project.	134614612	1475621462240	1475621462343	o	79
264569	2834434	Evaluating a lease offer on Sonoran project.	Evaluating a lease offer on Sonoran project.	134614613	1475621462399	1475621462495	n	78
264569	2834434	Evaluating a lease offer on Sonoran project.	Evaluating a lease offer on Sonoran project.	134614614	1475621462504	1475621462656	 	32
264569	2834434	Evaluating a lease offer on Sonoran project.	Evaluating a lease offer on Sonoran project.	134614615	1475621462695	1475621462831	SHIFT	16
264569	2834434	Evaluating a lease offer on Sonoran project.	Evaluating a lease offer on Sonoran project.	134614616	1475621462768	1475621462911	S	83
264569	2834434	Evaluating a lease offer on Sonoran project.	Evaluating a lease offer on Sonoran project.	134614617	1475621462840	1475621462927	o	79
264569	2834434	Evaluating a lease offer on Sonoran project.	Evaluating a lease offer on Sonoran project.	134614618	1475621462992	1475621463087	n	78
264569	2834434	Evaluating a lease offer on Sonoran project.	Evaluating a lease offer on Sonoran project.	134614624	1475621463160	1475621463312	o	79
264569	2834434	Evaluating a lease offer on Sonoran project.	Evaluating a lease offer on Sonoran project.	134614625	1475621463256	1475621463359	r	82
264569	2834434	Evaluating a lease offer on Sonoran project.	Evaluating a lease offer on Sonoran project.	134614626	1475621463392	1475621463567	a	65
264569	2834434	Evaluating a lease offer on Sonoran project.	Evaluating a lease offer on Sonoran project.	134614627	1475621463536	1475621463631	n	78
264569	2834434	Evaluating a lease offer on Sonoran project.	Evaluating a lease offer on Sonoran project.	134614628	1475621463680	1475621463792	 	32
264569	2834434	Evaluating a lease offer on Sonoran project.	Evaluating a lease offer on Sonoran project.	134614629	1475621463840	1475621463935	p	80
264569	2834434	Evaluating a lease offer on Sonoran project.	Evaluating a lease offer on Sonoran project.	134614631	1475621463920	1475621464047	r	82
264569	2834434	Evaluating a lease offer on Sonoran project.	Evaluating a lease offer on Sonoran project.	134614633	1475621464024	1475621464119	o	79
264569	2834434	Evaluating a lease offer on Sonoran project.	Evaluating a lease offer on Sonoran project.	134614639	1475621464167	1475621464305	j	74
264569	2834434	Evaluating a lease offer on Sonoran project.	Evaluating a lease offer on Sonoran project.	134614635	1475621464216	1475621464303	e	69
264569	2834434	Evaluating a lease offer on Sonoran project.	Evaluating a lease offer on Sonoran project.	134614641	1475621464367	1475621464455	c	67
264569	2834434	Evaluating a lease offer on Sonoran project.	Evaluating a lease offer on Sonoran project.	134614643	1475621464552	1475621464655	t	84
264569	2834434	Evaluating a lease offer on Sonoran project.	Evaluating a lease offer on Sonoran project.	134614645	1475621464608	1475621464735	.	190
264569	2834437	I'll just have her call Tracy.	I'll just have her call Tracy.	134614670	1475621466592	1475621466759	SHIFT	16
264569	2834437	I'll just have her call Tracy.	I'll just have her call Tracy.	134614669	1475621466656	1475621466743	I	73
264569	2834437	I'll just have her call Tracy.	I'll just have her call Tracy.	134614672	1475621466880	1475621466943	'	222
264569	2834437	I'll just have her call Tracy.	I'll just have her call Tracy.	134614676	1475621467040	1475621467255	l	76
264569	2834437	I'll just have her call Tracy.	I'll just have her call Tracy.	134614738	1475621467160	1475621468943	l	76
264569	2834437	I'll just have her call Tracy.	I'll just have her call Tracy.	134614678	1475621467256	1475621467407	 	32
264569	2834437	I'll just have her call Tracy.	I'll just have her call Tracy.	134614691	1475621467335	1475621467463	j	74
264569	2834437	I'll just have her call Tracy.	I'll just have her call Tracy.	134614693	1475621467456	1475621467607	u	85
264569	2834437	I'll just have her call Tracy.	I'll just have her call Tracy.	134614695	1475621467528	1475621467639	s	83
264569	2834437	I'll just have her call Tracy.	I'll just have her call Tracy.	134614696	1475621467736	1475621467855	t	84
264569	2834437	I'll just have her call Tracy.	I'll just have her call Tracy.	134614697	1475621467847	1475621467975	 	32
264569	2834437	I'll just have her call Tracy.	I'll just have her call Tracy.	134614706	1475621467967	1475621468079	h	72
264569	2834437	I'll just have her call Tracy.	I'll just have her call Tracy.	134614709	1475621468047	1475621468159	a	65
264569	2834437	I'll just have her call Tracy.	I'll just have her call Tracy.	134614713	1475621468183	1475621468287	v	86
264569	2834437	I'll just have her call Tracy.	I'll just have her call Tracy.	134614717	1475621468247	1475621468392	e	69
264569	2834437	I'll just have her call Tracy.	I'll just have her call Tracy.	134614719	1475621468368	1475621468487	 	32
264569	2834437	I'll just have her call Tracy.	I'll just have her call Tracy.	134614720	1475621468440	1475621468575	h	72
264569	2834437	I'll just have her call Tracy.	I'll just have her call Tracy.	134614723	1475621468552	1475621468615	e	69
264569	2834437	I'll just have her call Tracy.	I'll just have her call Tracy.	134614726	1475621468576	1475621468663	r	82
264569	2834437	I'll just have her call Tracy.	I'll just have her call Tracy.	134614729	1475621468656	1475621468775	 	32
264569	2834437	I'll just have her call Tracy.	I'll just have her call Tracy.	134614732	1475621468751	1475621468831	c	67
264569	2834437	I'll just have her call Tracy.	I'll just have her call Tracy.	134614745	1475621468888	1475621469007	l	65
264569	2834437	I'll just have her call Tracy.	I'll just have her call Tracy.	134614746	1475621469008	1475621469111	l	76
264569	2834437	I'll just have her call Tracy.	I'll just have her call Tracy.	134614748	1475621469104	1475621469287	 	32
264569	2834437	I'll just have her call Tracy.	I'll just have her call Tracy.	134614747	1475621469127	1475621469223	SHIFT	16
264569	2834437	I'll just have her call Tracy.	I'll just have her call Tracy.	134614749	1475621469207	1475621469351	T	84
264569	2834437	I'll just have her call Tracy.	I'll just have her call Tracy.	134614750	1475621469280	1475621469383	r	82
264569	2834437	I'll just have her call Tracy.	I'll just have her call Tracy.	134614751	1475621469439	1475621469551	a	65
264569	2834437	I'll just have her call Tracy.	I'll just have her call Tracy.	134614761	1475621469585	1475621469719	c	67
264569	2834437	I'll just have her call Tracy.	I'll just have her call Tracy.	134614762	1475621469712	1475621469799	y	89
264569	2834437	I'll just have her call Tracy.	I'll just have her call Tracy.	134614763	1475621469928	1475621470015	.	190
