PARTICIPANT_ID	TEST_SECTION_ID	SENTENCE	USER_INPUT	KEYSTROKE_ID	PRESS_TIME	RELEASE_TIME	LETTER	KEYCODE
271150	2905393	The Senate should approve a 14-year-old treaty.	The Senate should approve a 14-year-old treaty.\	137990281	1475697682245	1475697682594	SHIFT	16
271150	2905393	The Senate should approve a 14-year-old treaty.	The Senate should approve a 14-year-old treaty.\	137990287	1475697682481	1475697682625	T	84
271150	2905393	The Senate should approve a 14-year-old treaty.	The Senate should approve a 14-year-old treaty.\	137990292	1475697682797	1475697682911	h	72
271150	2905393	The Senate should approve a 14-year-old treaty.	The Senate should approve a 14-year-old treaty.\	137990296	1475697683051	1475697683196	e	69
271150	2905393	The Senate should approve a 14-year-old treaty.	The Senate should approve a 14-year-old treaty.\	137990301	1475697683227	1475697683333	 	32
271150	2905393	The Senate should approve a 14-year-old treaty.	The Senate should approve a 14-year-old treaty.\	137990305	1475697683411	1475697683678	SHIFT	16
271150	2905393	The Senate should approve a 14-year-old treaty.	The Senate should approve a 14-year-old treaty.\	137990356	1475697683520	1475697683694	S	83
271150	2905393	The Senate should approve a 14-year-old treaty.	The Senate should approve a 14-year-old treaty.\	137990362	1475697683757	1475697683911	e	69
271150	2905393	The Senate should approve a 14-year-old treaty.	The Senate should approve a 14-year-old treaty.\	137990367	1475697684160	1475697684279	n	78
271150	2905393	The Senate should approve a 14-year-old treaty.	The Senate should approve a 14-year-old treaty.\	137990371	1475697684326	1475697684448	a	65
271150	2905393	The Senate should approve a 14-year-old treaty.	The Senate should approve a 14-year-old treaty.\	137990378	1475697684697	1475697684868	t	84
271150	2905393	The Senate should approve a 14-year-old treaty.	The Senate should approve a 14-year-old treaty.\	137990500	1475697684810	1475697684947	e	69
271150	2905393	The Senate should approve a 14-year-old treaty.	The Senate should approve a 14-year-old treaty.\	137990509	1475697684962	1475697685065	 	32
271150	2905393	The Senate should approve a 14-year-old treaty.	The Senate should approve a 14-year-old treaty.\	137990515	1475697685065	1475697685206	SHIFT	16
271150	2905393	The Senate should approve a 14-year-old treaty.	The Senate should approve a 14-year-old treaty.\	137990523	1475697685676	1475697685824	s	83
271150	2905393	The Senate should approve a 14-year-old treaty.	The Senate should approve a 14-year-old treaty.\	137990531	1475697685765	1475697685909	g	71
271150	2905393	The Senate should approve a 14-year-old treaty.	The Senate should approve a 14-year-old treaty.\	137990537	1475697686221	1475697686333	o	79
271150	2905393	The Senate should approve a 14-year-old treaty.	The Senate should approve a 14-year-old treaty.\	137990543	1475697686505	1475697686598	u	85
271150	2905393	The Senate should approve a 14-year-old treaty.	The Senate should approve a 14-year-old treaty.\	137990642	1475697686896	1475697687011	BKSP	8
271150	2905393	The Senate should approve a 14-year-old treaty.	The Senate should approve a 14-year-old treaty.\	137990646	1475697687104	1475697687214	BKSP	8
271150	2905393	The Senate should approve a 14-year-old treaty.	The Senate should approve a 14-year-old treaty.\	137990650	1475697687292	1475697687429	BKSP	8
271150	2905393	The Senate should approve a 14-year-old treaty.	The Senate should approve a 14-year-old treaty.\	137990656	1475697687461	1475697687604	h	72
271150	2905393	The Senate should approve a 14-year-old treaty.	The Senate should approve a 14-year-old treaty.\	137990662	1475697687564	1475697687693	o	79
271150	2905393	The Senate should approve a 14-year-old treaty.	The Senate should approve a 14-year-old treaty.\	137990666	1475697687787	1475697687882	u	85
271150	2905393	The Senate should approve a 14-year-old treaty.	The Senate should approve a 14-year-old treaty.\	137990672	1475697687991	1475697688098	l	76
271150	2905393	The Senate should approve a 14-year-old treaty.	The Senate should approve a 14-year-old treaty.\	137990676	1475697688223	1475697688331	s	83
271150	2905393	The Senate should approve a 14-year-old treaty.	The Senate should approve a 14-year-old treaty.\	137990761	1475697688409	1475697688532	 	32
271150	2905393	The Senate should approve a 14-year-old treaty.	The Senate should approve a 14-year-old treaty.\	137990764	1475697688735	1475697688816	BKSP	8
271150	2905393	The Senate should approve a 14-year-old treaty.	The Senate should approve a 14-year-old treaty.\	137990770	1475697688925	1475697689031	BKSP	8
271150	2905393	The Senate should approve a 14-year-old treaty.	The Senate should approve a 14-year-old treaty.\	137990772	1475697689297	1475697689457	d	68
271150	2905393	The Senate should approve a 14-year-old treaty.	The Senate should approve a 14-year-old treaty.\	137990774	1475697689442	1475697689532	 	32
271150	2905393	The Senate should approve a 14-year-old treaty.	The Senate should approve a 14-year-old treaty.\	137990776	1475697689859	1475697689980	a	65
271150	2905393	The Senate should approve a 14-year-old treaty.	The Senate should approve a 14-year-old treaty.\	137990778	1475697690120	1475697690199	p	80
271150	2905393	The Senate should approve a 14-year-old treaty.	The Senate should approve a 14-year-old treaty.\	137990827	1475697690262	1475697690365	p	80
271150	2905393	The Senate should approve a 14-year-old treaty.	The Senate should approve a 14-year-old treaty.\	137990829	1475697690381	1475697690509	r	82
271150	2905393	The Senate should approve a 14-year-old treaty.	The Senate should approve a 14-year-old treaty.\	137990831	1475697690790	1475697690914	o	79
271150	2905393	The Senate should approve a 14-year-old treaty.	The Senate should approve a 14-year-old treaty.\	137990834	1475697691148	1475697691351	v	86
271150	2905393	The Senate should approve a 14-year-old treaty.	The Senate should approve a 14-year-old treaty.\	137990923	1475697691292	1475697691462	e	69
271150	2905393	The Senate should approve a 14-year-old treaty.	The Senate should approve a 14-year-old treaty.\	137990928	1475697691446	1475697691564	 	32
271150	2905393	The Senate should approve a 14-year-old treaty.	The Senate should approve a 14-year-old treaty.\	137990934	1475697691673	1475697691796	a	65
271150	2905393	The Senate should approve a 14-year-old treaty.	The Senate should approve a 14-year-old treaty.\	137990938	1475697691796	1475697691882	 	32
271150	2905393	The Senate should approve a 14-year-old treaty.	The Senate should approve a 14-year-old treaty.\	137990944	1475697692351	1475697692512	1	49
271150	2905393	The Senate should approve a 14-year-old treaty.	The Senate should approve a 14-year-old treaty.\	137990949	1475697692652	1475697692764	4	52
271150	2905393	The Senate should approve a 14-year-old treaty.	The Senate should approve a 14-year-old treaty.\	137991041	1475697692948	1475697693062	-	189
271150	2905393	The Senate should approve a 14-year-old treaty.	The Senate should approve a 14-year-old treaty.\	137991043	1475697694115	1475697694216	y	89
271150	2905393	The Senate should approve a 14-year-old treaty.	The Senate should approve a 14-year-old treaty.\	137991046	1475697694180	1475697694327	e	69
271150	2905393	The Senate should approve a 14-year-old treaty.	The Senate should approve a 14-year-old treaty.\	137991048	1475697694279	1475697694427	a	65
271150	2905393	The Senate should approve a 14-year-old treaty.	The Senate should approve a 14-year-old treaty.\	137991051	1475697694583	1475697694713	r	82
271150	2905393	The Senate should approve a 14-year-old treaty.	The Senate should approve a 14-year-old treaty.\	137991168	1475697694870	1475697694981	-	189
271150	2905393	The Senate should approve a 14-year-old treaty.	The Senate should approve a 14-year-old treaty.\	137991174	1475697695592	1475697695681	o	79
271150	2905393	The Senate should approve a 14-year-old treaty.	The Senate should approve a 14-year-old treaty.\	137991181	1475697695696	1475697695796	d	68
271150	2905393	The Senate should approve a 14-year-old treaty.	The Senate should approve a 14-year-old treaty.\	137991186	1475697696077	1475697696212	BKSP	8
271150	2905393	The Senate should approve a 14-year-old treaty.	The Senate should approve a 14-year-old treaty.\	137991191	1475697696305	1475697696414	l	76
271150	2905393	The Senate should approve a 14-year-old treaty.	The Senate should approve a 14-year-old treaty.\	137991194	1475697696461	1475697696637	d	68
271150	2905393	The Senate should approve a 14-year-old treaty.	The Senate should approve a 14-year-old treaty.\	137991247	1475697696612	1475697696715	 	32
271150	2905393	The Senate should approve a 14-year-old treaty.	The Senate should approve a 14-year-old treaty.\	137991251	1475697696996	1475697697082	t	84
271150	2905393	The Senate should approve a 14-year-old treaty.	The Senate should approve a 14-year-old treaty.\	137991254	1475697697176	1475697697318	r	82
271150	2905393	The Senate should approve a 14-year-old treaty.	The Senate should approve a 14-year-old treaty.\	137991257	1475697697249	1475697697377	e	69
271150	2905393	The Senate should approve a 14-year-old treaty.	The Senate should approve a 14-year-old treaty.\	137991262	1475697697471	1475697697612	a	65
271150	2905393	The Senate should approve a 14-year-old treaty.	The Senate should approve a 14-year-old treaty.\	137991265	1475697697768	1475697697846	t	84
271150	2905393	The Senate should approve a 14-year-old treaty.	The Senate should approve a 14-year-old treaty.\	137991310	1475697697939	1475697698065	y	89
271150	2905393	The Senate should approve a 14-year-old treaty.	The Senate should approve a 14-year-old treaty.\	137991312	1475697698518	1475697698599	.	190
271150	2905426	He should still be able to play in the team's next game.	He should still be able to play in the team's next game.	137991587	1475697701634	1475697701964	SHIFT	16
271150	2905426	He should still be able to play in the team's next game.	He should still be able to play in the team's next game.	137991585	1475697701852	1475697701949	H	72
271150	2905426	He should still be able to play in the team's next game.	He should still be able to play in the team's next game.	137991589	1475697702058	1475697702195	e	69
271150	2905426	He should still be able to play in the team's next game.	He should still be able to play in the team's next game.	137991592	1475697702273	1475697702365	 	32
271150	2905426	He should still be able to play in the team's next game.	He should still be able to play in the team's next game.	137991598	1475697702647	1475697702776	s	83
271150	2905426	He should still be able to play in the team's next game.	He should still be able to play in the team's next game.	137991604	1475697702854	1475697702964	h	72
271150	2905426	He should still be able to play in the team's next game.	He should still be able to play in the team's next game.	137991691	1475697703136	1475697703230	o	79
271150	2905426	He should still be able to play in the team's next game.	He should still be able to play in the team's next game.	137991693	1475697703324	1475697703415	u	85
271150	2905426	He should still be able to play in the team's next game.	He should still be able to play in the team's next game.	137991697	1475697703540	1475697703648	l	76
271150	2905426	He should still be able to play in the team's next game.	He should still be able to play in the team's next game.	137991702	1475697704477	1475697704596	d	68
271150	2905426	He should still be able to play in the team's next game.	He should still be able to play in the team's next game.	137991703	1475697704596	1475697704694	 	32
271150	2905426	He should still be able to play in the team's next game.	He should still be able to play in the team's next game.	137991748	1475697704805	1475697704958	s	83
271150	2905426	He should still be able to play in the team's next game.	He should still be able to play in the team's next game.	137991754	1475697704898	1475697705027	t	84
271150	2905426	He should still be able to play in the team's next game.	He should still be able to play in the team's next game.	137991760	1475697705073	1475697705166	i	73
271150	2905426	He should still be able to play in the team's next game.	He should still be able to play in the team's next game.	137991764	1475697705275	1475697705348	l	76
271150	2905426	He should still be able to play in the team's next game.	He should still be able to play in the team's next game.	137991766	1475697705427	1475697705530	l	76
271150	2905426	He should still be able to play in the team's next game.	He should still be able to play in the team's next game.	137991799	1475697705546	1475697705648	 	32
271150	2905426	He should still be able to play in the team's next game.	He should still be able to play in the team's next game.	137991805	1475697705726	1475697705847	b	66
271150	2905426	He should still be able to play in the team's next game.	He should still be able to play in the team's next game.	137991809	1475697705815	1475697705965	e	69
271150	2905426	He should still be able to play in the team's next game.	He should still be able to play in the team's next game.	137991814	1475697705912	1475697705998	 	32
271150	2905426	He should still be able to play in the team's next game.	He should still be able to play in the team's next game.	137991819	1475697706014	1475697706158	a	65
271150	2905426	He should still be able to play in the team's next game.	He should still be able to play in the team's next game.	137991861	1475697706190	1475697706282	b	66
271150	2905426	He should still be able to play in the team's next game.	He should still be able to play in the team's next game.	137991864	1475697706408	1475697706498	l	76
271150	2905426	He should still be able to play in the team's next game.	He should still be able to play in the team's next game.	137991870	1475697706561	1475697706712	e	69
271150	2905426	He should still be able to play in the team's next game.	He should still be able to play in the team's next game.	137991874	1475697706712	1475697706796	 	32
271150	2905426	He should still be able to play in the team's next game.	He should still be able to play in the team's next game.	137991877	1475697706858	1475697706995	t	84
271150	2905426	He should still be able to play in the team's next game.	He should still be able to play in the team's next game.	137991905	1475697707010	1475697707115	o	79
271150	2905426	He should still be able to play in the team's next game.	He should still be able to play in the team's next game.	137991908	1475697707146	1475697707260	 	32
271150	2905426	He should still be able to play in the team's next game.	He should still be able to play in the team's next game.	137991910	1475697707260	1475697707349	p	80
271150	2905426	He should still be able to play in the team's next game.	He should still be able to play in the team's next game.	137991912	1475697707458	1475697707572	l	76
271150	2905426	He should still be able to play in the team's next game.	He should still be able to play in the team's next game.	137991946	1475697707516	1475697707683	a	65
271150	2905426	He should still be able to play in the team's next game.	He should still be able to play in the team's next game.	137991949	1475697707600	1475697707775	y	89
271150	2905426	He should still be able to play in the team's next game.	He should still be able to play in the team's next game.	137991955	1475697707730	1475697707827	 	32
271150	2905426	He should still be able to play in the team's next game.	He should still be able to play in the team's next game.	137991961	1475697707967	1475697708076	i	73
271150	2905426	He should still be able to play in the team's next game.	He should still be able to play in the team's next game.	137991967	1475697708170	1475697708281	n	78
271150	2905426	He should still be able to play in the team's next game.	He should still be able to play in the team's next game.	137991974	1475697708297	1475697708363	 	32
271150	2905426	He should still be able to play in the team's next game.	He should still be able to play in the team's next game.	137992009	1475697708378	1475697708508	t	84
271150	2905426	He should still be able to play in the team's next game.	He should still be able to play in the team's next game.	137992012	1475697708492	1475697708612	h	72
271150	2905426	He should still be able to play in the team's next game.	He should still be able to play in the team's next game.	137992016	1475697708643	1475697708810	e	69
271150	2905426	He should still be able to play in the team's next game.	He should still be able to play in the team's next game.	137992018	1475697708794	1475697708881	 	32
271150	2905426	He should still be able to play in the team's next game.	He should still be able to play in the team's next game.	137992024	1475697709193	1475697709333	t	84
271150	2905426	He should still be able to play in the team's next game.	He should still be able to play in the team's next game.	137992080	1475697709267	1475697709382	e	69
271150	2905426	He should still be able to play in the team's next game.	He should still be able to play in the team's next game.	137992084	1475697709491	1475697709644	a	65
271150	2905426	He should still be able to play in the team's next game.	He should still be able to play in the team's next game.	137992089	1475697709675	1475697709764	m	77
271150	2905426	He should still be able to play in the team's next game.	He should still be able to play in the team's next game.	137992093	1475697710170	1475697710281	'	222
271150	2905426	He should still be able to play in the team's next game.	He should still be able to play in the team's next game.	137992100	1475697710265	1475697710393	s	83
271150	2905426	He should still be able to play in the team's next game.	He should still be able to play in the team's next game.	137992231	1475697710377	1475697710481	 	32
271150	2905426	He should still be able to play in the team's next game.	He should still be able to play in the team's next game.	137992234	1475697710967	1475697711050	n	66
271150	2905426	He should still be able to play in the team's next game.	He should still be able to play in the team's next game.	137992236	1475697711394	1475697711530	BKSP	8
271150	2905426	He should still be able to play in the team's next game.	He should still be able to play in the team's next game.	137992238	1475697711873	1475697711997	BKSP	8
271150	2905426	He should still be able to play in the team's next game.	He should still be able to play in the team's next game.	137992242	1475697712246	1475697712344	n	78
271150	2905426	He should still be able to play in the team's next game.	He should still be able to play in the team's next game.	137992246	1475697712299	1475697712410	e	69
271150	2905426	He should still be able to play in the team's next game.	He should still be able to play in the team's next game.	137992250	1475697712504	1475697712614	x	88
271150	2905426	He should still be able to play in the team's next game.	He should still be able to play in the team's next game.	137992296	1475697712677	1475697712812	t	84
271150	2905426	He should still be able to play in the team's next game.	He should still be able to play in the team's next game.	137992301	1475697712828	1475697712943	 	32
271150	2905426	He should still be able to play in the team's next game.	He should still be able to play in the team's next game.	137992306	1475697713099	1475697713243	g	71
271150	2905426	He should still be able to play in the team's next game.	He should still be able to play in the team's next game.	137992310	1475697713182	1475697713323	a	65
271150	2905426	He should still be able to play in the team's next game.	He should still be able to play in the team's next game.	137992412	1475697713265	1475697713366	m	77
271150	2905426	He should still be able to play in the team's next game.	He should still be able to play in the team's next game.	137992417	1475697713366	1475697713492	e	69
271150	2905426	He should still be able to play in the team's next game.	He should still be able to play in the team's next game.	137992422	1475697713804	1475697713881	/	191
271150	2905426	He should still be able to play in the team's next game.	He should still be able to play in the team's next game.	137992426	1475697714255	1475697714363	BKSP	8
271150	2905426	He should still be able to play in the team's next game.	He should still be able to play in the team's next game.	137992428	1475697714503	1475697714600	,	190
271150	2905426	He should still be able to play in the team's next game.	He should still be able to play in the team's next game.	137992430	1475697715021	1475697715096	BKSP	8
271150	2905443	Are you feeling better?	Are you feeling better?	137992641	1475697718285	1475697718679	SHIFT	16
271150	2905443	Are you feeling better?	Are you feeling better?	137992648	1475697718551	1475697718695	A	65
271150	2905443	Are you feeling better?	Are you feeling better?	137992655	1475697718773	1475697718946	r	82
271150	2905443	Are you feeling better?	Are you feeling better?	137992662	1475697718880	1475697719040	e	69
271150	2905443	Are you feeling better?	Are you feeling better?	137992667	1475697719055	1475697719164	 	32
271150	2905443	Are you feeling better?	Are you feeling better?	137992671	1475697719367	1475697719480	y	89
271150	2905443	Are you feeling better?	Are you feeling better?	137992691	1475697719495	1475697719595	o	79
271150	2905443	Are you feeling better?	Are you feeling better?	137992695	1475697719688	1475697719782	u	85
271150	2905443	Are you feeling better?	Are you feeling better?	137992699	1475697719782	1475697719893	 	32
271150	2905443	Are you feeling better?	Are you feeling better?	137992703	1475697719971	1475697720122	f	70
271150	2905443	Are you feeling better?	Are you feeling better?	137992737	1475697720064	1475697720212	e	69
271150	2905443	Are you feeling better?	Are you feeling better?	137992742	1475697720275	1475697720426	e	69
271150	2905443	Are you feeling better?	Are you feeling better?	137992747	1475697720458	1475697720579	l	76
271150	2905443	Are you feeling better?	Are you feeling better?	137992751	1475697720673	1475697720764	i	73
271150	2905443	Are you feeling better?	Are you feeling better?	137992759	1475697720873	1475697720996	n	78
271150	2905443	Are you feeling better?	Are you feeling better?	137992792	1475697720933	1475697721078	g	71
271150	2905443	Are you feeling better?	Are you feeling better?	137992794	1475697721015	1475697721099	 	32
271150	2905443	Are you feeling better?	Are you feeling better?	137992796	1475697721130	1475697721259	b	66
271150	2905443	Are you feeling better?	Are you feeling better?	137992799	1475697721275	1475697721364	e	69
271150	2905443	Are you feeling better?	Are you feeling better?	137992801	1475697721520	1475697721614	t	84
271150	2905443	Are you feeling better?	Are you feeling better?	137992803	1475697721708	1475697721859	t	84
271150	2905443	Are you feeling better?	Are you feeling better?	137992864	1475697721875	1475697722014	e	69
271150	2905443	Are you feeling better?	Are you feeling better?	137992865	1475697721963	1475697722061	r	82
271150	2905443	Are you feeling better?	Are you feeling better?	137992869	1475697722045	1475697722228	SHIFT	16
271150	2905443	Are you feeling better?	Are you feeling better?	137992873	1475697722108	1475697722243	?	191
271150	2905443	Are you feeling better?	Are you feeling better?	137992883	1475697723213	1475697723295	BKSP	8
271150	2905457	Michael said his day was rotten.	Michael said his day was rotten.\	137993101	1475697726260	1475697726559	SHIFT	16
271150	2905457	Michael said his day was rotten.	Michael said his day was rotten.\	137993100	1475697726447	1475697726544	M	77
271150	2905457	Michael said his day was rotten.	Michael said his day was rotten.\	137993102	1475697726653	1475697726763	i	73
271150	2905457	Michael said his day was rotten.	Michael said his day was rotten.\	137993105	1475697726810	1475697726928	c	67
271150	2905457	Michael said his day was rotten.	Michael said his day was rotten.\	137993109	1475697726959	1475697727062	h	72
271150	2905457	Michael said his day was rotten.	Michael said his day was rotten.\	137993113	1475697727078	1475697727212	a	65
271150	2905457	Michael said his day was rotten.	Michael said his day was rotten.\	137993171	1475697727400	1475697727528	e	69
271150	2905457	Michael said his day was rotten.	Michael said his day was rotten.\	137993173	1475697727652	1475697727747	l	76
271150	2905457	Michael said his day was rotten.	Michael said his day was rotten.\	137993179	1475697728264	1475697728360	 	32
271150	2905457	Michael said his day was rotten.	Michael said his day was rotten.\	137993184	1475697728454	1475697728627	s	83
271150	2905457	Michael said his day was rotten.	Michael said his day was rotten.\	137993231	1475697728531	1475697728675	a	65
271150	2905457	Michael said his day was rotten.	Michael said his day was rotten.\	137993233	1475697729018	1475697729110	i	73
271150	2905457	Michael said his day was rotten.	Michael said his day was rotten.\	137993235	1475697729110	1475697729255	d	68
271150	2905457	Michael said his day was rotten.	Michael said his day was rotten.\	137993241	1475697729213	1475697729311	 	32
271150	2905457	Michael said his day was rotten.	Michael said his day was rotten.\	137993245	1475697729451	1475697729579	h	72
271150	2905457	Michael said his day was rotten.	Michael said his day was rotten.\	137993247	1475697729579	1475697729677	i	73
271150	2905457	Michael said his day was rotten.	Michael said his day was rotten.\	137993321	1475697729708	1475697729843	s	83
271150	2905457	Michael said his day was rotten.	Michael said his day was rotten.\	137993324	1475697729828	1475697729945	 	32
271150	2905457	Michael said his day was rotten.	Michael said his day was rotten.\	137993327	1475697730101	1475697730272	d	68
271150	2905457	Michael said his day was rotten.	Michael said his day was rotten.\	137993330	1475697730212	1475697730388	a	65
271150	2905457	Michael said his day was rotten.	Michael said his day was rotten.\	137993332	1475697730684	1475697730828	y	89
271150	2905457	Michael said his day was rotten.	Michael said his day was rotten.\	137993348	1475697730828	1475697730942	 	32
271150	2905457	Michael said his day was rotten.	Michael said his day was rotten.\	137993353	1475697731005	1475697731162	w	87
271150	2905457	Michael said his day was rotten.	Michael said his day was rotten.\	137993358	1475697731097	1475697731225	a	65
271150	2905457	Michael said his day was rotten.	Michael said his day was rotten.\	137993364	1475697731334	1475697731478	s	83
271150	2905457	Michael said his day was rotten.	Michael said his day was rotten.\	137993407	1475697731463	1475697731560	 	32
271150	2905457	Michael said his day was rotten.	Michael said his day was rotten.\	137993409	1475697731655	1475697731778	r	82
271150	2905457	Michael said his day was rotten.	Michael said his day was rotten.\	137993412	1475697731825	1475697731930	o	79
271150	2905457	Michael said his day was rotten.	Michael said his day was rotten.\	137993416	1475697731992	1475697732081	t	84
271150	2905457	Michael said his day was rotten.	Michael said his day was rotten.\	137993425	1475697732143	1475697732263	t	84
271150	2905457	Michael said his day was rotten.	Michael said his day was rotten.\	137993513	1475697732247	1475697732375	e	69
271150	2905457	Michael said his day was rotten.	Michael said his day was rotten.\	137993518	1475697733176	1475697733295	n	78
271150	2905457	Michael said his day was rotten.	Michael said his day was rotten.\	137993522	1475697733420	1475697733499	.	190
271150	2905469	The buses will be identified by their cities of origin.	The buses will be identified by their cities of origin.	137993740	1475697736423	1475697736761	SHIFT	16
271150	2905469	The buses will be identified by their cities of origin.	The buses will be identified by their cities of origin.	137993742	1475697736626	1475697736761	T	84
271150	2905469	The buses will be identified by their cities of origin.	The buses will be identified by their cities of origin.	137993746	1475697736995	1475697737124	h	72
271150	2905469	The buses will be identified by their cities of origin.	The buses will be identified by their cities of origin.	137993750	1475697737202	1475697737365	e	69
271150	2905469	The buses will be identified by their cities of origin.	The buses will be identified by their cities of origin.	137993754	1475697737329	1475697737442	 	32
271150	2905469	The buses will be identified by their cities of origin.	The buses will be identified by their cities of origin.	137993760	1475697737582	1475697737696	b	66
271150	2905469	The buses will be identified by their cities of origin.	The buses will be identified by their cities of origin.	137993796	1475697737759	1475697737847	u	85
271150	2905469	The buses will be identified by their cities of origin.	The buses will be identified by their cities of origin.	137993802	1475697737909	1475697738060	s	83
271150	2905469	The buses will be identified by their cities of origin.	The buses will be identified by their cities of origin.	137993808	1475697738138	1475697738287	e	69
271150	2905469	The buses will be identified by their cities of origin.	The buses will be identified by their cities of origin.	137993813	1475697738246	1475697738374	s	83
271150	2905469	The buses will be identified by their cities of origin.	The buses will be identified by their cities of origin.	137993818	1475697738390	1475697738496	 	32
271150	2905469	The buses will be identified by their cities of origin.	The buses will be identified by their cities of origin.	137993844	1475697738559	1475697738679	w	87
271150	2905469	The buses will be identified by their cities of origin.	The buses will be identified by their cities of origin.	137993848	1475697738679	1475697738776	i	73
271150	2905469	The buses will be identified by their cities of origin.	The buses will be identified by their cities of origin.	137993852	1475697738886	1475697738980	l	76
271150	2905469	The buses will be identified by their cities of origin.	The buses will be identified by their cities of origin.	137993856	1475697739042	1475697739153	l	76
271150	2905469	The buses will be identified by their cities of origin.	The buses will be identified by their cities of origin.	137993859	1475697739153	1475697739247	 	32
271150	2905469	The buses will be identified by their cities of origin.	The buses will be identified by their cities of origin.	137993914	1475697739327	1475697739445	b	66
271150	2905469	The buses will be identified by their cities of origin.	The buses will be identified by their cities of origin.	137993916	1475697739461	1475697739613	e	69
271150	2905469	The buses will be identified by their cities of origin.	The buses will be identified by their cities of origin.	137993919	1475697739547	1475697739659	 	32
271150	2905469	The buses will be identified by their cities of origin.	The buses will be identified by their cities of origin.	137993922	1475697740080	1475697740180	i	73
271150	2905469	The buses will be identified by their cities of origin.	The buses will be identified by their cities of origin.	137993925	1475697740290	1475697740379	d	68
271150	2905469	The buses will be identified by their cities of origin.	The buses will be identified by their cities of origin.	137993975	1475697740474	1475697740563	e	69
271150	2905469	The buses will be identified by their cities of origin.	The buses will be identified by their cities of origin.	137993980	1475697740642	1475697740745	n	78
271150	2905469	The buses will be identified by their cities of origin.	The buses will be identified by their cities of origin.	137993987	1475697740807	1475697740911	t	84
271150	2905469	The buses will be identified by their cities of origin.	The buses will be identified by their cities of origin.	137993992	1475697740974	1475697741078	i	73
271150	2905469	The buses will be identified by their cities of origin.	The buses will be identified by their cities of origin.	137993996	1475697741171	1475697741309	f	70
271150	2905469	The buses will be identified by their cities of origin.	The buses will be identified by their cities of origin.	137994068	1475697741340	1475697741445	i	73
271150	2905469	The buses will be identified by their cities of origin.	The buses will be identified by their cities of origin.	137994069	1475697741460	1475697741606	e	69
271150	2905469	The buses will be identified by their cities of origin.	The buses will be identified by their cities of origin.	137994073	1475697742081	1475697742195	d	68
271150	2905469	The buses will be identified by their cities of origin.	The buses will be identified by their cities of origin.	137994077	1475697742304	1475697742396	 	32
271150	2905469	The buses will be identified by their cities of origin.	The buses will be identified by their cities of origin.	137994080	1475697742630	1475697742729	b	66
271150	2905469	The buses will be identified by their cities of origin.	The buses will be identified by their cities of origin.	137994111	1475697742901	1475697742993	y	89
271150	2905469	The buses will be identified by their cities of origin.	The buses will be identified by their cities of origin.	137994113	1475697743024	1475697743112	 	32
271150	2905469	The buses will be identified by their cities of origin.	The buses will be identified by their cities of origin.	137994118	1475697743128	1475697743257	t	84
271150	2905469	The buses will be identified by their cities of origin.	The buses will be identified by their cities of origin.	137994121	1475697743257	1475697743362	h	72
271150	2905469	The buses will be identified by their cities of origin.	The buses will be identified by their cities of origin.	137994123	1475697743377	1475697743507	e	69
271150	2905469	The buses will be identified by their cities of origin.	The buses will be identified by their cities of origin.	137994202	1475697743507	1475697743627	u	85
271150	2905469	The buses will be identified by their cities of origin.	The buses will be identified by their cities of origin.	137994206	1475697743784	1475697743942	r	82
271150	2905469	The buses will be identified by their cities of origin.	The buses will be identified by their cities of origin.	137994210	1475697744082	1475697744195	BKSP	8
271150	2905469	The buses will be identified by their cities of origin.	The buses will be identified by their cities of origin.	137994213	1475697744273	1475697744394	BKSP	8
271150	2905469	The buses will be identified by their cities of origin.	The buses will be identified by their cities of origin.	137994217	1475697744519	1475697744628	i	73
271150	2905469	The buses will be identified by their cities of origin.	The buses will be identified by their cities of origin.	137994219	1475697744612	1475697744748	r	82
271150	2905469	The buses will be identified by their cities of origin.	The buses will be identified by their cities of origin.	137994291	1475697744693	1475697744796	 	32
271150	2905469	The buses will be identified by their cities of origin.	The buses will be identified by their cities of origin.	137994295	1475697745248	1475697745362	c	67
271150	2905469	The buses will be identified by their cities of origin.	The buses will be identified by their cities of origin.	137994298	1475697745565	1475697745677	i	73
271150	2905469	The buses will be identified by their cities of origin.	The buses will be identified by their cities of origin.	137994302	1475697745709	1475697745812	t	84
271150	2905469	The buses will be identified by their cities of origin.	The buses will be identified by their cities of origin.	137994306	1475697745843	1475697745945	i	73
271150	2905469	The buses will be identified by their cities of origin.	The buses will be identified by their cities of origin.	137994310	1475697746101	1475697746254	e	69
271150	2905469	The buses will be identified by their cities of origin.	The buses will be identified by their cities of origin.	137994374	1475697746196	1475697746346	s	83
271150	2905469	The buses will be identified by their cities of origin.	The buses will be identified by their cities of origin.	137994379	1475697746362	1475697746458	 	32
271150	2905469	The buses will be identified by their cities of origin.	The buses will be identified by their cities of origin.	137994385	1475697746786	1475697746879	o	79
271150	2905469	The buses will be identified by their cities of origin.	The buses will be identified by their cities of origin.	137994390	1475697746879	1475697747021	f	70
271150	2905469	The buses will be identified by their cities of origin.	The buses will be identified by their cities of origin.	137994394	1475697746977	1475697747075	 	32
271150	2905469	The buses will be identified by their cities of origin.	The buses will be identified by their cities of origin.	137994397	1475697747247	1475697747342	o	79
271150	2905469	The buses will be identified by their cities of origin.	The buses will be identified by their cities of origin.	137994441	1475697747421	1475697747528	r	82
271150	2905469	The buses will be identified by their cities of origin.	The buses will be identified by their cities of origin.	137994443	1475697747622	1475697747712	i	73
271150	2905469	The buses will be identified by their cities of origin.	The buses will be identified by their cities of origin.	137994447	1475697747884	1475697747995	g	71
271150	2905469	The buses will be identified by their cities of origin.	The buses will be identified by their cities of origin.	137994450	1475697748010	1475697748109	i	73
271150	2905469	The buses will be identified by their cities of origin.	The buses will be identified by their cities of origin.	137994455	1475697748202	1475697748296	n	78
271150	2905469	The buses will be identified by their cities of origin.	The buses will be identified by their cities of origin.	137994487	1475697748812	1475697748893	.	190
271150	2905493	It will also protect the interest of the businessman.	It will also protect the interest of the businessman.\	137994688	1475697751572	1475697751874	SHIFT	16
271150	2905493	It will also protect the interest of the businessman.	It will also protect the interest of the businessman.\	137994685	1475697751743	1475697751843	I	73
271150	2905493	It will also protect the interest of the businessman.	It will also protect the interest of the businessman.\	137994692	1475697751968	1475697752109	t	84
271150	2905493	It will also protect the interest of the businessman.	It will also protect the interest of the businessman.\	137994695	1475697752124	1475697752196	 	32
271150	2905493	It will also protect the interest of the businessman.	It will also protect the interest of the businessman.\	137994697	1475697752212	1475697752363	w	87
271150	2905493	It will also protect the interest of the businessman.	It will also protect the interest of the businessman.\	137994721	1475697752324	1475697752412	i	73
271150	2905493	It will also protect the interest of the businessman.	It will also protect the interest of the businessman.\	137994723	1475697752506	1475697752595	l	76
271150	2905493	It will also protect the interest of the businessman.	It will also protect the interest of the businessman.\	137994726	1475697752673	1475697752763	l	76
271150	2905493	It will also protect the interest of the businessman.	It will also protect the interest of the businessman.\	137994730	1475697752763	1475697752874	 	32
271150	2905493	It will also protect the interest of the businessman.	It will also protect the interest of the businessman.\	137994734	1475697752874	1475697753024	a	65
271150	2905493	It will also protect the interest of the businessman.	It will also protect the interest of the businessman.\	137994739	1475697753056	1475697753145	l	76
271150	2905493	It will also protect the interest of the businessman.	It will also protect the interest of the businessman.\	137994786	1475697753207	1475697753344	s	83
271150	2905493	It will also protect the interest of the businessman.	It will also protect the interest of the businessman.\	137994788	1475697753391	1475697753495	o	79
271150	2905493	It will also protect the interest of the businessman.	It will also protect the interest of the businessman.\	137994791	1475697753557	1475697753645	 	32
271150	2905493	It will also protect the interest of the businessman.	It will also protect the interest of the businessman.\	137994794	1475697753879	1475697754006	p	80
271150	2905493	It will also protect the interest of the businessman.	It will also protect the interest of the businessman.\	137994797	1475697754118	1475697754243	r	82
271150	2905493	It will also protect the interest of the businessman.	It will also protect the interest of the businessman.\	137994846	1475697754307	1475697754411	o	79
271150	2905493	It will also protect the interest of the businessman.	It will also protect the interest of the businessman.\	137994850	1475697754457	1475697754581	t	84
271150	2905493	It will also protect the interest of the businessman.	It will also protect the interest of the businessman.\	137994855	1475697754529	1475697754672	e	69
271150	2905493	It will also protect the interest of the businessman.	It will also protect the interest of the businessman.\	137994860	1475697754750	1475697754876	c	67
271150	2905493	It will also protect the interest of the businessman.	It will also protect the interest of the businessman.\	137994866	1475697755001	1475697755111	t	84
271150	2905493	It will also protect the interest of the businessman.	It will also protect the interest of the businessman.\	137994872	1475697755126	1475697755225	 	32
271150	2905493	It will also protect the interest of the businessman.	It will also protect the interest of the businessman.\	137994873	1475697755256	1475697755376	t	84
271150	2905493	It will also protect the interest of the businessman.	It will also protect the interest of the businessman.\	137994874	1475697755423	1475697755528	h	72
271150	2905493	It will also protect the interest of the businessman.	It will also protect the interest of the businessman.\	137994876	1475697755528	1475697755688	e	69
271150	2905493	It will also protect the interest of the businessman.	It will also protect the interest of the businessman.\	137994930	1475697755657	1475697755746	 	32
271150	2905493	It will also protect the interest of the businessman.	It will also protect the interest of the businessman.\	137994933	1475697755872	1475697755977	i	73
271150	2905493	It will also protect the interest of the businessman.	It will also protect the interest of the businessman.\	137994937	1475697756087	1475697756195	n	78
271150	2905493	It will also protect the interest of the businessman.	It will also protect the interest of the businessman.\	137994941	1475697756319	1475697756443	t	84
271150	2905493	It will also protect the interest of the businessman.	It will also protect the interest of the businessman.\	137994945	1475697756427	1475697756556	e	69
271150	2905493	It will also protect the interest of the businessman.	It will also protect the interest of the businessman.\	137994950	1475697756634	1475697756812	r	82
271150	2905493	It will also protect the interest of the businessman.	It will also protect the interest of the businessman.\	137994998	1475697756776	1475697756876	e	69
271150	2905493	It will also protect the interest of the businessman.	It will also protect the interest of the businessman.\	137995003	1475697756985	1475697757095	s	83
271150	2905493	It will also protect the interest of the businessman.	It will also protect the interest of the businessman.\	137995008	1475697757188	1475697757351	t	84
271150	2905493	It will also protect the interest of the businessman.	It will also protect the interest of the businessman.\	137995012	1475697757326	1475697757414	 	32
271150	2905493	It will also protect the interest of the businessman.	It will also protect the interest of the businessman.\	137995017	1475697757461	1475697757606	o	79
271150	2905493	It will also protect the interest of the businessman.	It will also protect the interest of the businessman.\	137995022	1475697757621	1475697757781	f	70
271150	2905493	It will also protect the interest of the businessman.	It will also protect the interest of the businessman.\	137995090	1475697757743	1475697757857	 	32
271150	2905493	It will also protect the interest of the businessman.	It will also protect the interest of the businessman.\	137995097	1475697757919	1475697758043	t	84
271150	2905493	It will also protect the interest of the businessman.	It will also protect the interest of the businessman.\	137995101	1475697758074	1475697758178	h	72
271150	2905493	It will also protect the interest of the businessman.	It will also protect the interest of the businessman.\	137995110	1475697758194	1475697758322	e	69
271150	2905493	It will also protect the interest of the businessman.	It will also protect the interest of the businessman.\	137995114	1475697758307	1475697758395	 	32
271150	2905493	It will also protect the interest of the businessman.	It will also protect the interest of the businessman.\	137995207	1475697758489	1475697758935	SHIFT	16
271150	2905493	It will also protect the interest of the businessman.	It will also protect the interest of the businessman.\	137995116	1475697758692	1475697758778	B	66
271150	2905493	It will also protect the interest of the businessman.	It will also protect the interest of the businessman.\	137995209	1475697759076	1475697759221	BKSP	8
271150	2905493	It will also protect the interest of the businessman.	It will also protect the interest of the businessman.\	137995213	1475697759268	1475697759393	b	66
271150	2905493	It will also protect the interest of the businessman.	It will also protect the interest of the businessman.\	137995216	1475697759409	1475697759511	u	85
271150	2905493	It will also protect the interest of the businessman.	It will also protect the interest of the businessman.\	137995222	1475697759558	1475697759685	s	83
271150	2905493	It will also protect the interest of the businessman.	It will also protect the interest of the businessman.\	137995227	1475697759732	1475697759829	i	73
271150	2905493	It will also protect the interest of the businessman.	It will also protect the interest of the businessman.\	137995233	1475697759969	1475697760078	n	78
271150	2905493	It will also protect the interest of the businessman.	It will also protect the interest of the businessman.\	137995303	1475697760094	1475697760238	e	69
271150	2905493	It will also protect the interest of the businessman.	It will also protect the interest of the businessman.\	137995306	1475697760222	1475697760359	s	83
271150	2905493	It will also protect the interest of the businessman.	It will also protect the interest of the businessman.\	137995309	1475697760515	1475697760612	m	77
271150	2905493	It will also protect the interest of the businessman.	It will also protect the interest of the businessman.\	137995312	1475697760956	1475697761092	BKSP	8
271150	2905493	It will also protect the interest of the businessman.	It will also protect the interest of the businessman.\	137995315	1475697761123	1475697761259	s	83
271150	2905493	It will also protect the interest of the businessman.	It will also protect the interest of the businessman.\	137995319	1475697761415	1475697761544	m	77
271150	2905493	It will also protect the interest of the businessman.	It will also protect the interest of the businessman.\	137995344	1475697761544	1475697761672	a	65
271150	2905493	It will also protect the interest of the businessman.	It will also protect the interest of the businessman.\	137995347	1475697761704	1475697761795	n	78
271150	2905493	It will also protect the interest of the businessman.	It will also protect the interest of the businessman.\	137995351	1475697762124	1475697762212	.	190
271150	2905511	I need your help in putting together a new list.	I need your help in putting together a new list.\	137995569	1475697764959	1475697765261	SHIFT	16
271150	2905511	I need your help in putting together a new list.	I need your help in putting together a new list.\	137995564	1475697765146	1475697765245	I	73
271150	2905511	I need your help in putting together a new list.	I need your help in putting together a new list.\	137995574	1475697765308	1475697765411	 	32
271150	2905511	I need your help in putting together a new list.	I need your help in putting together a new list.\	137995578	1475697765426	1475697765556	n	78
271150	2905511	I need your help in putting together a new list.	I need your help in putting together a new list.\	137995580	1475697765572	1475697765661	e	69
271150	2905511	I need your help in putting together a new list.	I need your help in putting together a new list.\	137995582	1475697765723	1475697765812	e	69
271150	2905511	I need your help in putting together a new list.	I need your help in putting together a new list.\	137995628	1475697765907	1475697766052	d	68
271150	2905511	I need your help in putting together a new list.	I need your help in putting together a new list.\	137995635	1475697766068	1475697766146	 	32
271150	2905511	I need your help in putting together a new list.	I need your help in putting together a new list.\	137995642	1475697766255	1475697766377	y	89
271150	2905511	I need your help in putting together a new list.	I need your help in putting together a new list.\	137995646	1475697766423	1475697766589	o	79
271150	2905511	I need your help in putting together a new list.	I need your help in putting together a new list.\	137995652	1475697766823	1475697766927	u	85
271150	2905511	I need your help in putting together a new list.	I need your help in putting together a new list.\	137995723	1475697767539	1475697767675	r	82
271150	2905511	I need your help in putting together a new list.	I need your help in putting together a new list.\	137995726	1475697767690	1475697767793	 	32
271150	2905511	I need your help in putting together a new list.	I need your help in putting together a new list.\	137995728	1475697767918	1475697768011	h	72
271150	2905511	I need your help in putting together a new list.	I need your help in putting together a new list.\	137995729	1475697767996	1475697768123	e	69
271150	2905511	I need your help in putting together a new list.	I need your help in putting together a new list.\	137995730	1475697768154	1475697768260	l	76
271150	2905511	I need your help in putting together a new list.	I need your help in putting together a new list.\	137995771	1475697768355	1475697768461	p	80
271150	2905511	I need your help in putting together a new list.	I need your help in putting together a new list.\	137995773	1475697768476	1475697768575	 	32
271150	2905511	I need your help in putting together a new list.	I need your help in putting together a new list.\	137995774	1475697768684	1475697768809	i	73
271150	2905511	I need your help in putting together a new list.	I need your help in putting together a new list.\	137995776	1475697768934	1475697769059	n	78
271150	2905511	I need your help in putting together a new list.	I need your help in putting together a new list.\	137995829	1475697769044	1475697769157	 	32
271150	2905511	I need your help in putting together a new list.	I need your help in putting together a new list.\	137995832	1475697769250	1475697769361	p	80
271150	2905511	I need your help in putting together a new list.	I need your help in putting together a new list.\	137995838	1475697769595	1475697769709	u	85
271150	2905511	I need your help in putting together a new list.	I need your help in putting together a new list.\	137995848	1475697769820	1475697769895	t	84
271150	2905511	I need your help in putting together a new list.	I need your help in putting together a new list.\	137995855	1475697769973	1475697770093	t	84
271150	2905511	I need your help in putting together a new list.	I need your help in putting together a new list.\	137995860	1475697770155	1475697770244	i	73
271150	2905511	I need your help in putting together a new list.	I need your help in putting together a new list.\	137995894	1475697770370	1475697770492	n	78
271150	2905511	I need your help in putting together a new list.	I need your help in putting together a new list.\	137995897	1475697770492	1475697770615	g	71
271150	2905511	I need your help in putting together a new list.	I need your help in putting together a new list.\	137995901	1475697770563	1475697770646	 	32
271150	2905511	I need your help in putting together a new list.	I need your help in putting together a new list.\	137995904	1475697770739	1475697770860	t	84
271150	2905511	I need your help in putting together a new list.	I need your help in putting together a new list.\	137995907	1475697770891	1475697771010	o	79
271150	2905511	I need your help in putting together a new list.	I need your help in putting together a new list.\	137995965	1475697771214	1475697771327	g	71
271150	2905511	I need your help in putting together a new list.	I need your help in putting together a new list.\	137995970	1475697771499	1475697771642	e	69
271150	2905511	I need your help in putting together a new list.	I need your help in putting together a new list.\	137995973	1475697771907	1475697772027	t	84
271150	2905511	I need your help in putting together a new list.	I need your help in putting together a new list.\	137995977	1475697772042	1475697772156	h	72
271150	2905511	I need your help in putting together a new list.	I need your help in putting together a new list.\	137995981	1475697772188	1475697772294	e	69
271150	2905511	I need your help in putting together a new list.	I need your help in putting together a new list.\	137996018	1475697772388	1475697772510	r	82
271150	2905511	I need your help in putting together a new list.	I need your help in putting together a new list.\	137996021	1475697772510	1475697772593	 	32
271150	2905511	I need your help in putting together a new list.	I need your help in putting together a new list.\	137996026	1475697772655	1475697772808	a	65
271150	2905511	I need your help in putting together a new list.	I need your help in putting together a new list.\	137996030	1475697772808	1475697772895	 	32
271150	2905511	I need your help in putting together a new list.	I need your help in putting together a new list.\	137996033	1475697772958	1475697773057	n	78
271150	2905511	I need your help in putting together a new list.	I need your help in putting together a new list.\	137996064	1475697773152	1475697773326	e	69
271150	2905511	I need your help in putting together a new list.	I need your help in putting together a new list.\	137996068	1475697773244	1475697773394	w	87
271150	2905511	I need your help in putting together a new list.	I need your help in putting together a new list.\	137996072	1475697773357	1475697773445	 	32
271150	2905511	I need your help in putting together a new list.	I need your help in putting together a new list.\	137996075	1475697773523	1475697773626	l	76
271150	2905511	I need your help in putting together a new list.	I need your help in putting together a new list.\	137996077	1475697773782	1475697773878	i	73
271150	2905511	I need your help in putting together a new list.	I need your help in putting together a new list.\	137996121	1475697773893	1475697774038	s	83
271150	2905511	I need your help in putting together a new list.	I need your help in putting together a new list.\	137996125	1475697773991	1475697774125	t	84
271150	2905511	I need your help in putting together a new list.	I need your help in putting together a new list.\	137996133	1475697774343	1475697774440	.	190
271150	2905527	We are somewhat emasculated bystanders.	We are somewhat emasculated bystanders.	137996368	1475697777338	1475697777745	SHIFT	16
271150	2905527	We are somewhat emasculated bystanders.	We are somewhat emasculated bystanders.	137996371	1475697777650	1475697777791	W	87
271150	2905527	We are somewhat emasculated bystanders.	We are somewhat emasculated bystanders.	137996374	1475697777947	1475697778075	e	69
271150	2905527	We are somewhat emasculated bystanders.	We are somewhat emasculated bystanders.	137996379	1475697778200	1475697778292	 	32
271150	2905527	We are somewhat emasculated bystanders.	We are somewhat emasculated bystanders.	137996383	1475697778339	1475697778491	a	65
271150	2905527	We are somewhat emasculated bystanders.	We are somewhat emasculated bystanders.	137996386	1475697778882	1475697779046	r	82
271150	2905527	We are somewhat emasculated bystanders.	We are somewhat emasculated bystanders.	137996452	1475697778978	1475697779137	e	69
271150	2905527	We are somewhat emasculated bystanders.	We are somewhat emasculated bystanders.	137996454	1475697779184	1475697779278	 	32
271150	2905527	We are somewhat emasculated bystanders.	We are somewhat emasculated bystanders.	137996456	1475697779450	1475697779591	s	83
271150	2905527	We are somewhat emasculated bystanders.	We are somewhat emasculated bystanders.	137996458	1475697779778	1475697779874	o	79
271150	2905527	We are somewhat emasculated bystanders.	We are somewhat emasculated bystanders.	137996459	1475697780016	1475697780158	m	77
271150	2905527	We are somewhat emasculated bystanders.	We are somewhat emasculated bystanders.	137996461	1475697780251	1475697780376	e	69
271150	2905527	We are somewhat emasculated bystanders.	We are somewhat emasculated bystanders.	137996488	1475697780470	1475697780592	w	87
271150	2905527	We are somewhat emasculated bystanders.	We are somewhat emasculated bystanders.	137996491	1475697780686	1475697780778	h	72
271150	2905527	We are somewhat emasculated bystanders.	We are somewhat emasculated bystanders.	137996494	1475697780887	1475697781059	a	65
271150	2905527	We are somewhat emasculated bystanders.	We are somewhat emasculated bystanders.	137996497	1475697781059	1475697781266	t	84
271150	2905527	We are somewhat emasculated bystanders.	We are somewhat emasculated bystanders.	137996545	1475697781235	1475697781359	 	32
271150	2905527	We are somewhat emasculated bystanders.	We are somewhat emasculated bystanders.	137996547	1475697781640	1475697781760	e	69
271150	2905527	We are somewhat emasculated bystanders.	We are somewhat emasculated bystanders.	137996550	1475697781885	1475697782009	m	77
271150	2905527	We are somewhat emasculated bystanders.	We are somewhat emasculated bystanders.	137996553	1475697782025	1475697782158	a	65
271150	2905527	We are somewhat emasculated bystanders.	We are somewhat emasculated bystanders.	137996556	1475697782205	1475697782325	s	83
271150	2905527	We are somewhat emasculated bystanders.	We are somewhat emasculated bystanders.	137996558	1475697782512	1475697782627	c	67
271150	2905527	We are somewhat emasculated bystanders.	We are somewhat emasculated bystanders.	137996590	1475697782659	1475697782742	u	85
271150	2905527	We are somewhat emasculated bystanders.	We are somewhat emasculated bystanders.	137996594	1475697782882	1475697783016	l	76
271150	2905527	We are somewhat emasculated bystanders.	We are somewhat emasculated bystanders.	137996599	1475697782977	1475697783105	a	65
271150	2905527	We are somewhat emasculated bystanders.	We are somewhat emasculated bystanders.	137996602	1475697783262	1475697783447	t	84
271150	2905527	We are somewhat emasculated bystanders.	We are somewhat emasculated bystanders.	137996695	1475697783393	1475697783553	e	69
271150	2905527	We are somewhat emasculated bystanders.	We are somewhat emasculated bystanders.	137996699	1475697783756	1475697783903	d	68
271150	2905527	We are somewhat emasculated bystanders.	We are somewhat emasculated bystanders.	137996703	1475697783950	1475697784060	 	32
271150	2905527	We are somewhat emasculated bystanders.	We are somewhat emasculated bystanders.	137996706	1475697784312	1475697784410	b	66
271150	2905527	We are somewhat emasculated bystanders.	We are somewhat emasculated bystanders.	137996709	1475697784613	1475697784680	y	89
271150	2905527	We are somewhat emasculated bystanders.	We are somewhat emasculated bystanders.	137996714	1475697785243	1475697785356	s	83
271150	2905527	We are somewhat emasculated bystanders.	We are somewhat emasculated bystanders.	137996754	1475697785683	1475697785824	t	84
271150	2905527	We are somewhat emasculated bystanders.	We are somewhat emasculated bystanders.	137996757	1475697785808	1475697785941	a	65
271150	2905527	We are somewhat emasculated bystanders.	We are somewhat emasculated bystanders.	137996759	1475697785972	1475697786076	n	78
271150	2905527	We are somewhat emasculated bystanders.	We are somewhat emasculated bystanders.	137996760	1475697786092	1475697786222	d	68
271150	2905527	We are somewhat emasculated bystanders.	We are somewhat emasculated bystanders.	137996761	1475697786315	1475697786412	e	69
271150	2905527	We are somewhat emasculated bystanders.	We are somewhat emasculated bystanders.	137996807	1475697786506	1475697786626	r	82
271150	2905527	We are somewhat emasculated bystanders.	We are somewhat emasculated bystanders.	137996814	1475697786641	1475697786772	s	83
271150	2905527	We are somewhat emasculated bystanders.	We are somewhat emasculated bystanders.	137996823	1475697787022	1475697787127	.	190
271150	2905541	The Senate vote undercut him the day before the Geneva talks.	The Senate vote undercut him the day before the Geneva talks.	137997012	1475697789790	1475697790110	SHIFT	16
271150	2905541	The Senate vote undercut him the day before the Geneva talks.	The Senate vote undercut him the day before the Geneva talks.	137997017	1475697790014	1475697790110	T	84
271150	2905541	The Senate vote undercut him the day before the Geneva talks.	The Senate vote undercut him the day before the Geneva talks.	137997022	1475697790204	1475697790314	h	72
271150	2905541	The Senate vote undercut him the day before the Geneva talks.	The Senate vote undercut him the day before the Geneva talks.	137997025	1475697790329	1475697790490	e	69
271150	2905541	The Senate vote undercut him the day before the Geneva talks.	The Senate vote undercut him the day before the Geneva talks.	137997031	1475697790474	1475697790574	 	32
271150	2905541	The Senate vote undercut him the day before the Geneva talks.	The Senate vote undercut him the day before the Geneva talks.	137997036	1475697790683	1475697790777	s	83
271150	2905541	The Senate vote undercut him the day before the Geneva talks.	The Senate vote undercut him the day before the Geneva talks.	137997135	1475697791152	1475697791293	BKSP	8
271150	2905541	The Senate vote undercut him the day before the Geneva talks.	The Senate vote undercut him the day before the Geneva talks.	137997137	1475697791213	1475697791476	SHIFT	16
271150	2905541	The Senate vote undercut him the day before the Geneva talks.	The Senate vote undercut him the day before the Geneva talks.	137997140	1475697791339	1475697791507	S	83
271150	2905541	The Senate vote undercut him the day before the Geneva talks.	The Senate vote undercut him the day before the Geneva talks.	137997143	1475697791632	1475697791774	e	69
271150	2905541	The Senate vote undercut him the day before the Geneva talks.	The Senate vote undercut him the day before the Geneva talks.	137997148	1475697792039	1475697792143	n	78
271150	2905541	The Senate vote undercut him the day before the Geneva talks.	The Senate vote undercut him the day before the Geneva talks.	137997150	1475697792127	1475697792271	a	65
271150	2905541	The Senate vote undercut him the day before the Geneva talks.	The Senate vote undercut him the day before the Geneva talks.	137997157	1475697792411	1475697792579	t	84
271150	2905541	The Senate vote undercut him the day before the Geneva talks.	The Senate vote undercut him the day before the Geneva talks.	137997186	1475697792510	1475697792654	e	69
271150	2905541	The Senate vote undercut him the day before the Geneva talks.	The Senate vote undercut him the day before the Geneva talks.	137997188	1475697792639	1475697792743	 	32
271150	2905541	The Senate vote undercut him the day before the Geneva talks.	The Senate vote undercut him the day before the Geneva talks.	137997191	1475697793086	1475697793209	v	86
271150	2905541	The Senate vote undercut him the day before the Geneva talks.	The Senate vote undercut him the day before the Geneva talks.	137997197	1475697793256	1475697793360	o	79
271150	2905541	The Senate vote undercut him the day before the Geneva talks.	The Senate vote undercut him the day before the Geneva talks.	137997201	1475697793438	1475697793646	t	84
271150	2905541	The Senate vote undercut him the day before the Geneva talks.	The Senate vote undercut him the day before the Geneva talks.	137997238	1475697793590	1475697793741	e	69
271150	2905541	The Senate vote undercut him the day before the Geneva talks.	The Senate vote undercut him the day before the Geneva talks.	137997240	1475697793725	1475697793824	 	32
271150	2905541	The Senate vote undercut him the day before the Geneva talks.	The Senate vote undercut him the day before the Geneva talks.	137997242	1475697794073	1475697794223	u	85
271150	2905541	The Senate vote undercut him the day before the Geneva talks.	The Senate vote undercut him the day before the Geneva talks.	137997244	1475697794363	1475697794475	n	78
271150	2905541	The Senate vote undercut him the day before the Geneva talks.	The Senate vote undercut him the day before the Geneva talks.	137997246	1475697794569	1475697794691	d	68
271150	2905541	The Senate vote undercut him the day before the Geneva talks.	The Senate vote undercut him the day before the Geneva talks.	137997249	1475697794800	1475697794894	e	69
271150	2905541	The Senate vote undercut him the day before the Geneva talks.	The Senate vote undercut him the day before the Geneva talks.	137997288	1475697795129	1475697795243	r	82
271150	2905541	The Senate vote undercut him the day before the Geneva talks.	The Senate vote undercut him the day before the Geneva talks.	137997293	1475697795556	1475697795675	c	67
271150	2905541	The Senate vote undercut him the day before the Geneva talks.	The Senate vote undercut him the day before the Geneva talks.	137997298	1475697795831	1475697795910	u	85
271150	2905541	The Senate vote undercut him the day before the Geneva talks.	The Senate vote undercut him the day before the Geneva talks.	137997304	1475697796300	1475697796408	t	84
271150	2905541	The Senate vote undercut him the day before the Geneva talks.	The Senate vote undercut him the day before the Geneva talks.	137997307	1475697796486	1475697796592	 	32
271150	2905541	The Senate vote undercut him the day before the Geneva talks.	The Senate vote undercut him the day before the Geneva talks.	137997355	1475697797142	1475697797240	h	72
271150	2905541	The Senate vote undercut him the day before the Geneva talks.	The Senate vote undercut him the day before the Geneva talks.	137997357	1475697797256	1475697797329	i	73
271150	2905541	The Senate vote undercut him the day before the Geneva talks.	The Senate vote undercut him the day before the Geneva talks.	137997361	1475697797438	1475697797543	m	77
271150	2905541	The Senate vote undercut him the day before the Geneva talks.	The Senate vote undercut him the day before the Geneva talks.	137997367	1475697797527	1475697797624	 	32
271150	2905541	The Senate vote undercut him the day before the Geneva talks.	The Senate vote undercut him the day before the Geneva talks.	137997371	1475697797686	1475697797809	t	84
271150	2905541	The Senate vote undercut him the day before the Geneva talks.	The Senate vote undercut him the day before the Geneva talks.	137997390	1475697797872	1475697797992	h	72
271150	2905541	The Senate vote undercut him the day before the Geneva talks.	The Senate vote undercut him the day before the Geneva talks.	137997392	1475697797976	1475697798105	e	69
271150	2905541	The Senate vote undercut him the day before the Geneva talks.	The Senate vote undercut him the day before the Geneva talks.	137997394	1475697798089	1475697798193	 	32
271150	2905541	The Senate vote undercut him the day before the Geneva talks.	The Senate vote undercut him the day before the Geneva talks.	137997397	1475697798255	1475697798406	d	68
271150	2905541	The Senate vote undercut him the day before the Geneva talks.	The Senate vote undercut him the day before the Geneva talks.	137997452	1475697798344	1475697798519	a	65
271150	2905541	The Senate vote undercut him the day before the Geneva talks.	The Senate vote undercut him the day before the Geneva talks.	137997453	1475697798566	1475697798723	y	89
271150	2905541	The Senate vote undercut him the day before the Geneva talks.	The Senate vote undercut him the day before the Geneva talks.	137997454	1475697798723	1475697798841	 	32
271150	2905541	The Senate vote undercut him the day before the Geneva talks.	The Senate vote undercut him the day before the Geneva talks.	137997455	1475697799247	1475697799375	b	66
271150	2905541	The Senate vote undercut him the day before the Geneva talks.	The Senate vote undercut him the day before the Geneva talks.	137997456	1475697799453	1475697799617	e	69
271150	2905541	The Senate vote undercut him the day before the Geneva talks.	The Senate vote undercut him the day before the Geneva talks.	137997459	1475697799804	1475697799909	f	70
271150	2905541	The Senate vote undercut him the day before the Geneva talks.	The Senate vote undercut him the day before the Geneva talks.	137997493	1475697800020	1475697800131	o	79
271150	2905541	The Senate vote undercut him the day before the Geneva talks.	The Senate vote undercut him the day before the Geneva talks.	137997494	1475697800095	1475697800259	r	82
271150	2905541	The Senate vote undercut him the day before the Geneva talks.	The Senate vote undercut him the day before the Geneva talks.	137997495	1475697800195	1475697800337	e	69
271150	2905541	The Senate vote undercut him the day before the Geneva talks.	The Senate vote undercut him the day before the Geneva talks.	137997496	1475697800306	1475697800410	 	32
271150	2905541	The Senate vote undercut him the day before the Geneva talks.	The Senate vote undercut him the day before the Geneva talks.	137997497	1475697800488	1475697800610	t	84
271150	2905541	The Senate vote undercut him the day before the Geneva talks.	The Senate vote undercut him the day before the Geneva talks.	137997577	1475697800736	1475697800891	h	72
271150	2905541	The Senate vote undercut him the day before the Geneva talks.	The Senate vote undercut him the day before the Geneva talks.	137997578	1475697801000	1475697801141	e	69
271150	2905541	The Senate vote undercut him the day before the Geneva talks.	The Senate vote undercut him the day before the Geneva talks.	137997579	1475697801141	1475697801224	 	32
271150	2905541	The Senate vote undercut him the day before the Geneva talks.	The Senate vote undercut him the day before the Geneva talks.	137997580	1475697801224	1475697801540	SHIFT	16
271150	2905541	The Senate vote undercut him the day before the Geneva talks.	The Senate vote undercut him the day before the Geneva talks.	137997581	1475697801443	1475697801540	G	71
271150	2905541	The Senate vote undercut him the day before the Geneva talks.	The Senate vote undercut him the day before the Geneva talks.	137997582	1475697801914	1475697802026	e	69
271150	2905541	The Senate vote undercut him the day before the Geneva talks.	The Senate vote undercut him the day before the Geneva talks.	137997617	1475697802230	1475697802327	n	78
271150	2905541	The Senate vote undercut him the day before the Geneva talks.	The Senate vote undercut him the day before the Geneva talks.	137997621	1475697802358	1475697802472	e	69
271150	2905541	The Senate vote undercut him the day before the Geneva talks.	The Senate vote undercut him the day before the Geneva talks.	137997627	1475697802724	1475697802891	v	86
271150	2905541	The Senate vote undercut him the day before the Geneva talks.	The Senate vote undercut him the day before the Geneva talks.	137997639	1475697802811	1475697803013	a	65
271150	2905541	The Senate vote undercut him the day before the Geneva talks.	The Senate vote undercut him the day before the Geneva talks.	137997703	1475697802971	1475697803092	 	32
271150	2905541	The Senate vote undercut him the day before the Geneva talks.	The Senate vote undercut him the day before the Geneva talks.	137997705	1475697803202	1475697803594	SHIFT	16
271150	2905541	The Senate vote undercut him the day before the Geneva talks.	The Senate vote undercut him the day before the Geneva talks.	137997707	1475697803750	1475697803900	t	84
271150	2905541	The Senate vote undercut him the day before the Geneva talks.	The Senate vote undercut him the day before the Geneva talks.	137997710	1475697803860	1475697804004	a	65
271150	2905541	The Senate vote undercut him the day before the Geneva talks.	The Senate vote undercut him the day before the Geneva talks.	137997713	1475697803989	1475697804094	l	76
271150	2905541	The Senate vote undercut him the day before the Geneva talks.	The Senate vote undercut him the day before the Geneva talks.	137997715	1475697804187	1475697804279	k	75
271150	2905541	The Senate vote undercut him the day before the Geneva talks.	The Senate vote undercut him the day before the Geneva talks.	137997717	1475697804435	1475697804555	s	83
271150	2905541	The Senate vote undercut him the day before the Geneva talks.	The Senate vote undercut him the day before the Geneva talks.	137997718	1475697804696	1475697804778	.	190
271150	2905561	Let me know if you have any questions.	Let me know if you have any questions.	137997850	1475697807522	1475697807839	SHIFT	16
271150	2905561	Let me know if you have any questions.	Let me know if you have any questions.	137997849	1475697807709	1475697807823	L	76
271150	2905561	Let me know if you have any questions.	Let me know if you have any questions.	137997853	1475697807917	1475697808027	e	69
271150	2905561	Let me know if you have any questions.	Let me know if you have any questions.	137997856	1475697808152	1475697808310	t	84
271150	2905561	Let me know if you have any questions.	Let me know if you have any questions.	137997860	1475697808271	1475697808360	 	32
271150	2905561	Let me know if you have any questions.	Let me know if you have any questions.	137997863	1475697808376	1475697808505	m	77
271150	2905561	Let me know if you have any questions.	Let me know if you have any questions.	137997897	1475697808616	1475697808758	e	69
271150	2905561	Let me know if you have any questions.	Let me know if you have any questions.	137997900	1475697808742	1475697808891	 	32
271150	2905561	Let me know if you have any questions.	Let me know if you have any questions.	137997903	1475697809095	1475697809190	k	75
271150	2905561	Let me know if you have any questions.	Let me know if you have any questions.	137997906	1475697809284	1475697809358	n	78
271150	2905561	Let me know if you have any questions.	Let me know if you have any questions.	137997911	1475697809451	1475697809545	o	79
271150	2905561	Let me know if you have any questions.	Let me know if you have any questions.	137997926	1475697809529	1475697809663	w	87
271150	2905561	Let me know if you have any questions.	Let me know if you have any questions.	137997929	1475697809596	1475697809694	 	32
271150	2905561	Let me know if you have any questions.	Let me know if you have any questions.	137997933	1475697809709	1475697809823	i	73
271150	2905561	Let me know if you have any questions.	Let me know if you have any questions.	137997936	1475697809839	1475697809993	f	70
271150	2905561	Let me know if you have any questions.	Let me know if you have any questions.	137997939	1475697809927	1475697810008	 	32
271150	2905561	Let me know if you have any questions.	Let me know if you have any questions.	137997942	1475697810119	1475697810273	y	89
271150	2905561	Let me know if you have any questions.	Let me know if you have any questions.	137997991	1475697810211	1475697810325	o	79
271150	2905561	Let me know if you have any questions.	Let me know if you have any questions.	137997995	1475697810418	1475697810526	u	85
271150	2905561	Let me know if you have any questions.	Let me know if you have any questions.	137997999	1475697810542	1475697810640	 	32
271150	2905561	Let me know if you have any questions.	Let me know if you have any questions.	137998002	1475697811298	1475697811403	h	72
271150	2905561	Let me know if you have any questions.	Let me know if you have any questions.	137998004	1475697811348	1475697811459	a	65
271150	2905561	Let me know if you have any questions.	Let me know if you have any questions.	137998027	1475697811444	1475697811612	v	86
271150	2905561	Let me know if you have any questions.	Let me know if you have any questions.	137998029	1475697811540	1475697811695	e	69
271150	2905561	Let me know if you have any questions.	Let me know if you have any questions.	137998032	1475697811659	1475697811773	 	32
271150	2905561	Let me know if you have any questions.	Let me know if you have any questions.	137998035	1475697811820	1475697811945	a	65
271150	2905561	Let me know if you have any questions.	Let me know if you have any questions.	137998038	1475697811961	1475697812073	n	78
271150	2905561	Let me know if you have any questions.	Let me know if you have any questions.	137998041	1475697812151	1475697812291	y	89
271150	2905561	Let me know if you have any questions.	Let me know if you have any questions.	137998088	1475697812291	1475697812399	 	32
271150	2905561	Let me know if you have any questions.	Let me know if you have any questions.	137998092	1475697812664	1475697812762	q	81
271150	2905561	Let me know if you have any questions.	Let me know if you have any questions.	137998095	1475697812886	1475697812961	u	85
271150	2905561	Let me know if you have any questions.	Let me know if you have any questions.	137998098	1475697812992	1475697813129	e	69
271150	2905561	Let me know if you have any questions.	Let me know if you have any questions.	137998101	1475697813090	1475697813239	s	83
271150	2905561	Let me know if you have any questions.	Let me know if you have any questions.	137998103	1475697813286	1475697813393	t	84
271150	2905561	Let me know if you have any questions.	Let me know if you have any questions.	137998138	1475697813439	1475697813527	i	73
271150	2905561	Let me know if you have any questions.	Let me know if you have any questions.	137998146	1475697813605	1475697813712	o	79
271150	2905561	Let me know if you have any questions.	Let me know if you have any questions.	137998150	1475697813837	1475697813943	n	78
271150	2905561	Let me know if you have any questions.	Let me know if you have any questions.	137998156	1475697814007	1475697814141	s	83
271150	2905561	Let me know if you have any questions.	Let me know if you have any questions.	137998161	1475697814360	1475697814461	.	190
271150	2905568	Others voting against represented the defense ministry.	Other Voting against represented the defense ministry.	137998324	1475697816935	1475697817406	SHIFT	16
271150	2905568	Others voting against represented the defense ministry.	Other Voting against represented the defense ministry.	137998327	1475697817308	1475697817406	O	79
271150	2905568	Others voting against represented the defense ministry.	Other Voting against represented the defense ministry.	137998331	1475697817500	1475697817610	t	84
271150	2905568	Others voting against represented the defense ministry.	Other Voting against represented the defense ministry.	137998334	1475697817625	1475697817739	h	72
271150	2905568	Others voting against represented the defense ministry.	Other Voting against represented the defense ministry.	137998337	1475697817755	1475697817923	e	69
271150	2905568	Others voting against represented the defense ministry.	Other Voting against represented the defense ministry.	137998404	1475697817891	1475697818006	r	82
271150	2905568	Others voting against represented the defense ministry.	Other Voting against represented the defense ministry.	137998407	1475697818225	1475697818307	 	32
271150	2905568	Others voting against represented the defense ministry.	Other Voting against represented the defense ministry.	137998413	1475697818480	1475697818823	SHIFT	16
271150	2905568	Others voting against represented the defense ministry.	Other Voting against represented the defense ministry.	137998416	1475697818667	1475697818839	V	86
271150	2905568	Others voting against represented the defense ministry.	Other Voting against represented the defense ministry.	137998421	1475697818854	1475697818991	o	79
271150	2905568	Others voting against represented the defense ministry.	Other Voting against represented the defense ministry.	137998426	1475697819038	1475697819174	t	84
271150	2905568	Others voting against represented the defense ministry.	Other Voting against represented the defense ministry.	137998429	1475697819221	1475697819310	i	73
271150	2905568	Others voting against represented the defense ministry.	Other Voting against represented the defense ministry.	137998460	1475697819420	1475697819525	n	78
271150	2905568	Others voting against represented the defense ministry.	Other Voting against represented the defense ministry.	137998463	1475697819494	1475697819622	g	71
271150	2905568	Others voting against represented the defense ministry.	Other Voting against represented the defense ministry.	137998469	1475697819577	1475697819661	 	32
271150	2905568	Others voting against represented the defense ministry.	Other Voting against represented the defense ministry.	137998474	1475697819926	1475697820087	a	65
271150	2905568	Others voting against represented the defense ministry.	Other Voting against represented the defense ministry.	137998478	1475697820102	1475697820251	g	71
271150	2905568	Others voting against represented the defense ministry.	Other Voting against represented the defense ministry.	137998496	1475697820195	1475697820322	a	65
271150	2905568	Others voting against represented the defense ministry.	Other Voting against represented the defense ministry.	137998498	1475697820353	1475697820444	i	73
271150	2905568	Others voting against represented the defense ministry.	Other Voting against represented the defense ministry.	137998501	1475697820553	1475697820682	n	78
271150	2905568	Others voting against represented the defense ministry.	Other Voting against represented the defense ministry.	137998505	1475697820644	1475697820813	t	84
271150	2905568	Others voting against represented the defense ministry.	Other Voting against represented the defense ministry.	137998508	1475697820755	1475697820922	s	83
271150	2905568	Others voting against represented the defense ministry.	Other Voting against represented the defense ministry.	137998510	1475697820953	1475697821061	 	32
271150	2905568	Others voting against represented the defense ministry.	Other Voting against represented the defense ministry.	137998528	1475697821377	1475697821541	r	82
271150	2905568	Others voting against represented the defense ministry.	Other Voting against represented the defense ministry.	137998530	1475697821458	1475697821572	e	69
271150	2905568	Others voting against represented the defense ministry.	Other Voting against represented the defense ministry.	137998534	1475697821634	1475697821758	p	80
271150	2905568	Others voting against represented the defense ministry.	Other Voting against represented the defense ministry.	137998539	1475697821961	1475697822129	r	82
271150	2905568	Others voting against represented the defense ministry.	Other Voting against represented the defense ministry.	137998901	1475697822072	1475697822225	e	69
271150	2905568	Others voting against represented the defense ministry.	Other Voting against represented the defense ministry.	137998905	1475697823258	1475697823904	ARW_LEFT	37
271150	2905568	Others voting against represented the defense ministry.	Other Voting against represented the defense ministry.	137998909	1475697824065	1475697824159	ARW_LEFT	37
271150	2905568	Others voting against represented the defense ministry.	Other Voting against represented the defense ministry.	137998914	1475697824222	1475697824341	ARW_LEFT	37
271150	2905568	Others voting against represented the defense ministry.	Other Voting against represented the defense ministry.	137998919	1475697824403	1475697824508	ARW_LEFT	37
271150	2905568	Others voting against represented the defense ministry.	Other Voting against represented the defense ministry.	137998923	1475697824586	1475697824676	ARW_LEFT	37
271150	2905568	Others voting against represented the defense ministry.	Other Voting against represented the defense ministry.	137998927	1475697825050	1475697825220	ARW_RIGHT	39
271150	2905568	Others voting against represented the defense ministry.	Other Voting against represented the defense ministry.	137998931	1475697825740	1475697825858	BKSP	8
271150	2905568	Others voting against represented the defense ministry.	Other Voting against represented the defense ministry.	137998935	1475697825936	1475697826043	BKSP	8
271150	2905568	Others voting against represented the defense ministry.	Other Voting against represented the defense ministry.	137998936	1475697826137	1475697826321	s	83
271150	2905568	Others voting against represented the defense ministry.	Other Voting against represented the defense ministry.	137998938	1475697826664	1475697826790	t	84
271150	2905568	Others voting against represented the defense ministry.	Other Voting against represented the defense ministry.	137998941	1475697828619	1475697828775	s	83
271150	2905568	Others voting against represented the defense ministry.	Other Voting against represented the defense ministry.	137998946	1475697828711	1475697828837	e	69
271150	2905568	Others voting against represented the defense ministry.	Other Voting against represented the defense ministry.	137998952	1475697828900	1475697829040	n	78
271150	2905568	Others voting against represented the defense ministry.	Other Voting against represented the defense ministry.	137999116	1475697829244	1475697829357	t	84
271150	2905568	Others voting against represented the defense ministry.	Other Voting against represented the defense ministry.	137999119	1475697830298	1475697830409	e	69
271150	2905568	Others voting against represented the defense ministry.	Other Voting against represented the defense ministry.	137999122	1475697831506	1475697831656	d	68
271150	2905568	Others voting against represented the defense ministry.	Other Voting against represented the defense ministry.	137999126	1475697831703	1475697831809	 	32
271150	2905568	Others voting against represented the defense ministry.	Other Voting against represented the defense ministry.	137999130	1475697832374	1475697832491	t	84
271150	2905568	Others voting against represented the defense ministry.	Other Voting against represented the defense ministry.	137999172	1475697832507	1475697832611	h	72
271150	2905568	Others voting against represented the defense ministry.	Other Voting against represented the defense ministry.	137999174	1475697832611	1475697832753	e	69
271150	2905568	Others voting against represented the defense ministry.	Other Voting against represented the defense ministry.	137999176	1475697832737	1475697832826	 	32
271150	2905568	Others voting against represented the defense ministry.	Other Voting against represented the defense ministry.	137999177	1475697832967	1475697833060	d	68
271150	2905568	Others voting against represented the defense ministry.	Other Voting against represented the defense ministry.	137999178	1475697833138	1475697833258	e	69
271150	2905568	Others voting against represented the defense ministry.	Other Voting against represented the defense ministry.	137999202	1475697833414	1475697833567	f	70
271150	2905568	Others voting against represented the defense ministry.	Other Voting against represented the defense ministry.	137999205	1475697833524	1475697833654	e	69
271150	2905568	Others voting against represented the defense ministry.	Other Voting against represented the defense ministry.	137999208	1475697833733	1475697833857	n	78
271150	2905568	Others voting against represented the defense ministry.	Other Voting against represented the defense ministry.	137999210	1475697833919	1475697834071	s	83
271150	2905568	Others voting against represented the defense ministry.	Other Voting against represented the defense ministry.	137999264	1475697834025	1475697834201	e	69
271150	2905568	Others voting against represented the defense ministry.	Other Voting against represented the defense ministry.	137999268	1475697834216	1475697834325	 	32
271150	2905568	Others voting against represented the defense ministry.	Other Voting against represented the defense ministry.	137999274	1475697834513	1475697834626	m	77
271150	2905568	Others voting against represented the defense ministry.	Other Voting against represented the defense ministry.	137999283	1475697834750	1475697834827	i	73
271150	2905568	Others voting against represented the defense ministry.	Other Voting against represented the defense ministry.	137999291	1475697834921	1475697835010	n	78
271150	2905568	Others voting against represented the defense ministry.	Other Voting against represented the defense ministry.	137999297	1475697835088	1475697835177	i	73
271150	2905568	Others voting against represented the defense ministry.	Other Voting against represented the defense ministry.	137999340	1475697835208	1475697835342	s	83
271150	2905568	Others voting against represented the defense ministry.	Other Voting against represented the defense ministry.	137999343	1475697835404	1475697835509	t	84
271150	2905568	Others voting against represented the defense ministry.	Other Voting against represented the defense ministry.	137999346	1475697835636	1475697835774	r	82
271150	2905568	Others voting against represented the defense ministry.	Other Voting against represented the defense ministry.	137999351	1475697835915	1475697836037	y	89
271150	2905568	Others voting against represented the defense ministry.	Other Voting against represented the defense ministry.	137999354	1475697836272	1475697836361	.	190
271150	2905595	Probably will be working.	Probably will be working.\	137999631	1475697839243	1475697839761	SHIFT	16
271150	2905595	Probably will be working.	Probably will be working.\	137999632	1475697839682	1475697839777	P	80
271150	2905595	Probably will be working.	Probably will be working.\	137999639	1475697839855	1475697839959	r	82
271150	2905595	Probably will be working.	Probably will be working.\	137999642	1475697840007	1475697840122	o	79
271150	2905595	Probably will be working.	Probably will be working.\	137999649	1475697840185	1475697840354	b	66
271150	2905595	Probably will be working.	Probably will be working.\	137999702	1475697840339	1475697840510	a	65
271150	2905595	Probably will be working.	Probably will be working.\	137999707	1475697840473	1475697840607	b	66
271150	2905595	Probably will be working.	Probably will be working.\	137999711	1475697840796	1475697840925	l	76
271150	2905595	Probably will be working.	Probably will be working.\	137999714	1475697841284	1475697841425	y	89
271150	2905595	Probably will be working.	Probably will be working.\	137999718	1475697841392	1475697841505	 	32
271150	2905595	Probably will be working.	Probably will be working.\	137999723	1475697841520	1475697841672	w	87
271150	2905595	Probably will be working.	Probably will be working.\	137999761	1475697841672	1475697841744	i	73
271150	2905595	Probably will be working.	Probably will be working.\	137999765	1475697841901	1475697841976	l	76
271150	2905595	Probably will be working.	Probably will be working.\	137999768	1475697842070	1475697842174	l	76
271150	2905595	Probably will be working.	Probably will be working.\	137999773	1475697842174	1475697842273	 	32
271150	2905595	Probably will be working.	Probably will be working.\	137999779	1475697842320	1475697842444	b	66
271150	2905595	Probably will be working.	Probably will be working.\	137999822	1475697842409	1475697842553	e	69
271150	2905595	Probably will be working.	Probably will be working.\	137999826	1475697842505	1475697842608	 	32
271150	2905595	Probably will be working.	Probably will be working.\	137999834	1475697842624	1475697842754	w	87
271150	2905595	Probably will be working.	Probably will be working.\	137999840	1475697842769	1475697842875	o	79
271150	2905595	Probably will be working.	Probably will be working.\	137999843	1475697842982	1475697843107	r	82
271150	2905595	Probably will be working.	Probably will be working.\	137999846	1475697843123	1475697843238	k	75
271150	2905595	Probably will be working.	Probably will be working.\	137999876	1475697843317	1475697843409	i	73
271150	2905595	Probably will be working.	Probably will be working.\	137999878	1475697843503	1475697843609	n	78
271150	2905595	Probably will be working.	Probably will be working.\	137999883	1475697843609	1475697843736	g	71
271150	2905595	Probably will be working.	Probably will be working.\	137999888	1475697843799	1475697843924	.	190
271150	2905608	He is listed as questionable for this week's game.	He is listed as questionable for this week's game.	138000074	1475697847073	1475697847389	SHIFT	16
271150	2905608	He is listed as questionable for this week's game.	He is listed as questionable for this week's game.	138000077	1475697847291	1475697847389	H	72
271150	2905608	He is listed as questionable for this week's game.	He is listed as questionable for this week's game.	138000080	1475697847577	1475697847721	e	69
271150	2905608	He is listed as questionable for this week's game.	He is listed as questionable for this week's game.	138000083	1475697847737	1475697847826	 	32
271150	2905608	He is listed as questionable for this week's game.	He is listed as questionable for this week's game.	138000086	1475697848077	1475697848192	i	73
271150	2905608	He is listed as questionable for this week's game.	He is listed as questionable for this week's game.	138000123	1475697848145	1475697848278	s	83
271150	2905608	He is listed as questionable for this week's game.	He is listed as questionable for this week's game.	138000126	1475697848212	1475697848341	 	32
271150	2905608	He is listed as questionable for this week's game.	He is listed as questionable for this week's game.	138000128	1475697848325	1475697848422	l	76
271150	2905608	He is listed as questionable for this week's game.	He is listed as questionable for this week's game.	138000130	1475697848516	1475697848641	i	73
271150	2905608	He is listed as questionable for this week's game.	He is listed as questionable for this week's game.	138000132	1475697848625	1475697848754	s	83
271150	2905608	He is listed as questionable for this week's game.	He is listed as questionable for this week's game.	138000133	1475697848832	1475697848991	t	84
271150	2905608	He is listed as questionable for this week's game.	He is listed as questionable for this week's game.	138000178	1475697848942	1475697849070	e	69
271150	2905608	He is listed as questionable for this week's game.	He is listed as questionable for this week's game.	138000180	1475697849164	1475697849352	d	68
271150	2905608	He is listed as questionable for this week's game.	He is listed as questionable for this week's game.	138000183	1475697849289	1475697849423	 	32
271150	2905608	He is listed as questionable for this week's game.	He is listed as questionable for this week's game.	138000186	1475697849751	1475697849924	a	65
271150	2905608	He is listed as questionable for this week's game.	He is listed as questionable for this week's game.	138000190	1475697849873	1475697850003	s	83
271150	2905608	He is listed as questionable for this week's game.	He is listed as questionable for this week's game.	138000194	1475697850065	1475697850159	 	32
271150	2905608	He is listed as questionable for this week's game.	He is listed as questionable for this week's game.	138000225	1475697850206	1475697850339	q	81
271150	2905608	He is listed as questionable for this week's game.	He is listed as questionable for this week's game.	138000228	1475697850386	1475697850492	u	85
271150	2905608	He is listed as questionable for this week's game.	He is listed as questionable for this week's game.	138000232	1475697850523	1475697850670	e	69
271150	2905608	He is listed as questionable for this week's game.	He is listed as questionable for this week's game.	138000233	1475697850625	1475697850770	s	83
271150	2905608	He is listed as questionable for this week's game.	He is listed as questionable for this week's game.	138000234	1475697850848	1475697850989	t	84
271150	2905608	He is listed as questionable for this week's game.	He is listed as questionable for this week's game.	138000272	1475697851037	1475697851126	i	73
271150	2905608	He is listed as questionable for this week's game.	He is listed as questionable for this week's game.	138000275	1475697851204	1475697851292	o	79
271150	2905608	He is listed as questionable for this week's game.	He is listed as questionable for this week's game.	138000277	1475697851417	1475697851525	n	78
271150	2905608	He is listed as questionable for this week's game.	He is listed as questionable for this week's game.	138000281	1475697851525	1475697851658	a	65
271150	2905608	He is listed as questionable for this week's game.	He is listed as questionable for this week's game.	138000283	1475697851752	1475697851904	b	66
271150	2905608	He is listed as questionable for this week's game.	He is listed as questionable for this week's game.	138000304	1475697851936	1475697852041	l	76
271150	2905608	He is listed as questionable for this week's game.	He is listed as questionable for this week's game.	138000310	1475697852088	1475697852229	e	69
271150	2905608	He is listed as questionable for this week's game.	He is listed as questionable for this week's game.	138000317	1475697852192	1475697852273	 	32
271150	2905608	He is listed as questionable for this week's game.	He is listed as questionable for this week's game.	138000325	1475697852382	1475697852536	f	70
271150	2905608	He is listed as questionable for this week's game.	He is listed as questionable for this week's game.	138000368	1475697852477	1475697852612	o	79
271150	2905608	He is listed as questionable for this week's game.	He is listed as questionable for this week's game.	138000373	1475697852755	1475697852889	t	84
271150	2905608	He is listed as questionable for this week's game.	He is listed as questionable for this week's game.	138000375	1475697853172	1475697853306	BKSP	8
271150	2905608	He is listed as questionable for this week's game.	He is listed as questionable for this week's game.	138000377	1475697853322	1475697853456	r	82
271150	2905608	He is listed as questionable for this week's game.	He is listed as questionable for this week's game.	138000379	1475697853441	1475697853522	 	32
271150	2905608	He is listed as questionable for this week's game.	He is listed as questionable for this week's game.	138000381	1475697853585	1475697853723	t	84
271150	2905608	He is listed as questionable for this week's game.	He is listed as questionable for this week's game.	138000383	1475697853723	1475697853810	h	72
271150	2905608	He is listed as questionable for this week's game.	He is listed as questionable for this week's game.	138000401	1475697853904	1475697854008	i	73
271150	2905608	He is listed as questionable for this week's game.	He is listed as questionable for this week's game.	138000404	1475697854039	1475697854201	s	83
271150	2905608	He is listed as questionable for this week's game.	He is listed as questionable for this week's game.	138000408	1475697854154	1475697854258	 	32
271150	2905608	He is listed as questionable for this week's game.	He is listed as questionable for this week's game.	138000413	1475697854352	1475697854520	w	87
271150	2905608	He is listed as questionable for this week's game.	He is listed as questionable for this week's game.	138000417	1475697854614	1475697854709	e	69
271150	2905608	He is listed as questionable for this week's game.	He is listed as questionable for this week's game.	138000442	1475697854788	1475697854892	e	69
271150	2905608	He is listed as questionable for this week's game.	He is listed as questionable for this week's game.	138000446	1475697854939	1475697855026	k	75
271150	2905608	He is listed as questionable for this week's game.	He is listed as questionable for this week's game.	138000450	1475697855338	1475697855442	'	222
271150	2905608	He is listed as questionable for this week's game.	He is listed as questionable for this week's game.	138000454	1475697855442	1475697855586	s	83
271150	2905608	He is listed as questionable for this week's game.	He is listed as questionable for this week's game.	138000507	1475697855554	1475697855658	 	32
271150	2905608	He is listed as questionable for this week's game.	He is listed as questionable for this week's game.	138000510	1475697856048	1475697856176	g	71
271150	2905608	He is listed as questionable for this week's game.	He is listed as questionable for this week's game.	138000514	1475697856111	1475697856270	a	65
271150	2905608	He is listed as questionable for this week's game.	He is listed as questionable for this week's game.	138000516	1475697856348	1475697856473	m	77
271150	2905608	He is listed as questionable for this week's game.	He is listed as questionable for this week's game.	138000521	1475697856567	1475697856691	e	69
271150	2905608	He is listed as questionable for this week's game.	He is listed as questionable for this week's game.	138000523	1475697856831	1475697856926	.	190
271150	2905623	Washington was not moving toward a unilateral lifting of the embargo.	Washington was not moving towards a unilateral lifting of the embargo.	138000750	1475697859561	1475697859985	SHIFT	16
271150	2905623	Washington was not moving toward a unilateral lifting of the embargo.	Washington was not moving towards a unilateral lifting of the embargo.	138000757	1475697859842	1475697860016	W	87
271150	2905623	Washington was not moving toward a unilateral lifting of the embargo.	Washington was not moving towards a unilateral lifting of the embargo.	138000763	1475697860110	1475697860272	a	65
271150	2905623	Washington was not moving toward a unilateral lifting of the embargo.	Washington was not moving towards a unilateral lifting of the embargo.	138000768	1475697860334	1475697860457	s	83
271150	2905623	Washington was not moving toward a unilateral lifting of the embargo.	Washington was not moving towards a unilateral lifting of the embargo.	138000771	1475697860504	1475697860592	h	72
271150	2905623	Washington was not moving toward a unilateral lifting of the embargo.	Washington was not moving towards a unilateral lifting of the embargo.	138000774	1475697860701	1475697860808	i	73
271150	2905623	Washington was not moving toward a unilateral lifting of the embargo.	Washington was not moving towards a unilateral lifting of the embargo.	138000784	1475697860918	1475697861036	n	78
271150	2905623	Washington was not moving toward a unilateral lifting of the embargo.	Washington was not moving towards a unilateral lifting of the embargo.	138000786	1475697860992	1475697861138	g	71
271150	2905623	Washington was not moving toward a unilateral lifting of the embargo.	Washington was not moving towards a unilateral lifting of the embargo.	138000788	1475697861073	1475697861156	 	32
271150	2905623	Washington was not moving toward a unilateral lifting of the embargo.	Washington was not moving towards a unilateral lifting of the embargo.	138000789	1475697861218	1475697861356	t	84
271150	2905623	Washington was not moving toward a unilateral lifting of the embargo.	Washington was not moving towards a unilateral lifting of the embargo.	138000981	1475697861356	1475697861502	o	79
271150	2905623	Washington was not moving toward a unilateral lifting of the embargo.	Washington was not moving towards a unilateral lifting of the embargo.	138000985	1475697861959	1475697862087	BKSP	8
271150	2905623	Washington was not moving toward a unilateral lifting of the embargo.	Washington was not moving towards a unilateral lifting of the embargo.	138000992	1475697862165	1475697862259	BKSP	8
271150	2905623	Washington was not moving toward a unilateral lifting of the embargo.	Washington was not moving towards a unilateral lifting of the embargo.	138000997	1475697862353	1475697862442	BKSP	8
271150	2905623	Washington was not moving toward a unilateral lifting of the embargo.	Washington was not moving towards a unilateral lifting of the embargo.	138001000	1475697862536	1475697862656	BKSP	8
271150	2905623	Washington was not moving toward a unilateral lifting of the embargo.	Washington was not moving towards a unilateral lifting of the embargo.	138001004	1475697862703	1475697862842	t	84
271150	2905623	Washington was not moving toward a unilateral lifting of the embargo.	Washington was not moving towards a unilateral lifting of the embargo.	138001010	1475697862808	1475697862888	i	73
271150	2905623	Washington was not moving toward a unilateral lifting of the embargo.	Washington was not moving towards a unilateral lifting of the embargo.	138001007	1475697862844	1475697862867	o	79
271150	2905623	Washington was not moving toward a unilateral lifting of the embargo.	Washington was not moving towards a unilateral lifting of the embargo.	138001012	1475697863188	1475697863291	BKSP	8
271150	2905623	Washington was not moving toward a unilateral lifting of the embargo.	Washington was not moving towards a unilateral lifting of the embargo.	138001014	1475697863379	1475697863491	BKSP	8
271150	2905623	Washington was not moving toward a unilateral lifting of the embargo.	Washington was not moving towards a unilateral lifting of the embargo.	138001016	1475697863584	1475697863690	BKSP	8
271150	2905623	Washington was not moving toward a unilateral lifting of the embargo.	Washington was not moving towards a unilateral lifting of the embargo.	138001017	1475697864194	1475697864308	g	71
271150	2905623	Washington was not moving toward a unilateral lifting of the embargo.	Washington was not moving towards a unilateral lifting of the embargo.	138001018	1475697864386	1475697864491	t	84
271150	2905623	Washington was not moving toward a unilateral lifting of the embargo.	Washington was not moving towards a unilateral lifting of the embargo.	138001021	1475697864491	1475697864574	o	79
271150	2905623	Washington was not moving toward a unilateral lifting of the embargo.	Washington was not moving towards a unilateral lifting of the embargo.	138001022	1475697864683	1475697864806	n	78
271150	2905623	Washington was not moving toward a unilateral lifting of the embargo.	Washington was not moving towards a unilateral lifting of the embargo.	138001026	1475697864806	1475697864908	 	32
271150	2905623	Washington was not moving toward a unilateral lifting of the embargo.	Washington was not moving towards a unilateral lifting of the embargo.	138001030	1475697864908	1475697865057	w	87
271150	2905623	Washington was not moving toward a unilateral lifting of the embargo.	Washington was not moving towards a unilateral lifting of the embargo.	138001034	1475697864990	1475697865119	a	65
271150	2905623	Washington was not moving toward a unilateral lifting of the embargo.	Washington was not moving towards a unilateral lifting of the embargo.	138001037	1475697865166	1475697865313	s	83
271150	2905623	Washington was not moving toward a unilateral lifting of the embargo.	Washington was not moving towards a unilateral lifting of the embargo.	138001069	1475697865275	1475697865387	 	32
271150	2905623	Washington was not moving toward a unilateral lifting of the embargo.	Washington was not moving towards a unilateral lifting of the embargo.	138001075	1475697865387	1475697865460	n	78
271150	2905623	Washington was not moving toward a unilateral lifting of the embargo.	Washington was not moving towards a unilateral lifting of the embargo.	138001081	1475697865554	1475697865675	o	79
271150	2905623	Washington was not moving toward a unilateral lifting of the embargo.	Washington was not moving towards a unilateral lifting of the embargo.	138001088	1475697865643	1475697865805	t	84
271150	2905623	Washington was not moving toward a unilateral lifting of the embargo.	Washington was not moving towards a unilateral lifting of the embargo.	138001094	1475697865758	1475697865870	 	32
271150	2905623	Washington was not moving toward a unilateral lifting of the embargo.	Washington was not moving towards a unilateral lifting of the embargo.	138001099	1475697866199	1475697866308	m	77
271150	2905623	Washington was not moving toward a unilateral lifting of the embargo.	Washington was not moving towards a unilateral lifting of the embargo.	138001131	1475697866387	1475697866491	o	79
271150	2905623	Washington was not moving toward a unilateral lifting of the embargo.	Washington was not moving towards a unilateral lifting of the embargo.	138001133	1475697866600	1475697866739	v	86
271150	2905623	Washington was not moving toward a unilateral lifting of the embargo.	Washington was not moving towards a unilateral lifting of the embargo.	138001135	1475697866707	1475697866821	i	73
271150	2905623	Washington was not moving toward a unilateral lifting of the embargo.	Washington was not moving towards a unilateral lifting of the embargo.	138001141	1475697866931	1475697867039	n	78
271150	2905623	Washington was not moving toward a unilateral lifting of the embargo.	Washington was not moving towards a unilateral lifting of the embargo.	138001146	1475697867039	1475697867202	g	71
271150	2905623	Washington was not moving toward a unilateral lifting of the embargo.	Washington was not moving towards a unilateral lifting of the embargo.	138001197	1475697867139	1475697867262	 	32
271150	2905623	Washington was not moving toward a unilateral lifting of the embargo.	Washington was not moving towards a unilateral lifting of the embargo.	138001198	1475697867685	1475697867792	t	84
271150	2905623	Washington was not moving toward a unilateral lifting of the embargo.	Washington was not moving towards a unilateral lifting of the embargo.	138001199	1475697867823	1475697867921	o	79
271150	2905623	Washington was not moving toward a unilateral lifting of the embargo.	Washington was not moving towards a unilateral lifting of the embargo.	138001200	1475697867999	1475697868253	w	87
271150	2905623	Washington was not moving toward a unilateral lifting of the embargo.	Washington was not moving towards a unilateral lifting of the embargo.	138001238	1475697868108	1475697868280	a	65
271150	2905623	Washington was not moving toward a unilateral lifting of the embargo.	Washington was not moving towards a unilateral lifting of the embargo.	138001241	1475697868237	1475697868356	r	82
271150	2905623	Washington was not moving toward a unilateral lifting of the embargo.	Washington was not moving towards a unilateral lifting of the embargo.	138001244	1475697868450	1475697868625	d	68
271150	2905623	Washington was not moving toward a unilateral lifting of the embargo.	Washington was not moving towards a unilateral lifting of the embargo.	138001251	1475697868526	1475697868672	s	83
271150	2905623	Washington was not moving toward a unilateral lifting of the embargo.	Washington was not moving towards a unilateral lifting of the embargo.	138001255	1475697868656	1475697868770	 	32
271150	2905623	Washington was not moving toward a unilateral lifting of the embargo.	Washington was not moving towards a unilateral lifting of the embargo.	138001260	1475697868910	1475697869080	a	65
271150	2905623	Washington was not moving toward a unilateral lifting of the embargo.	Washington was not moving towards a unilateral lifting of the embargo.	138001301	1475697869039	1475697869170	 	32
271150	2905623	Washington was not moving toward a unilateral lifting of the embargo.	Washington was not moving towards a unilateral lifting of the embargo.	138001302	1475697869420	1475697869509	u	85
271150	2905623	Washington was not moving toward a unilateral lifting of the embargo.	Washington was not moving towards a unilateral lifting of the embargo.	138001304	1475697869633	1475697869725	n	78
271150	2905623	Washington was not moving toward a unilateral lifting of the embargo.	Washington was not moving towards a unilateral lifting of the embargo.	138001307	1475697869818	1475697869908	i	73
271150	2905623	Washington was not moving toward a unilateral lifting of the embargo.	Washington was not moving towards a unilateral lifting of the embargo.	138001310	1475697870003	1475697870124	l	76
271150	2905623	Washington was not moving toward a unilateral lifting of the embargo.	Washington was not moving towards a unilateral lifting of the embargo.	138001371	1475697870092	1475697870236	a	65
271150	2905623	Washington was not moving toward a unilateral lifting of the embargo.	Washington was not moving towards a unilateral lifting of the embargo.	138001373	1475697870236	1475697870417	t	84
271150	2905623	Washington was not moving toward a unilateral lifting of the embargo.	Washington was not moving towards a unilateral lifting of the embargo.	138001377	1475697870357	1475697870501	e	69
271150	2905623	Washington was not moving toward a unilateral lifting of the embargo.	Washington was not moving towards a unilateral lifting of the embargo.	138001380	1475697870563	1475697870705	r	82
271150	2905623	Washington was not moving toward a unilateral lifting of the embargo.	Washington was not moving towards a unilateral lifting of the embargo.	138001385	1475697870924	1475697871084	a	65
271150	2905623	Washington was not moving toward a unilateral lifting of the embargo.	Washington was not moving towards a unilateral lifting of the embargo.	138001387	1475697871349	1475697871442	l	76
271150	2905623	Washington was not moving toward a unilateral lifting of the embargo.	Washington was not moving towards a unilateral lifting of the embargo.	138001424	1475697871490	1475697871604	 	32
271150	2905623	Washington was not moving toward a unilateral lifting of the embargo.	Washington was not moving towards a unilateral lifting of the embargo.	138001428	1475697871822	1475697871921	l	76
271150	2905623	Washington was not moving toward a unilateral lifting of the embargo.	Washington was not moving towards a unilateral lifting of the embargo.	138001432	1475697872031	1475697872124	i	73
271150	2905623	Washington was not moving toward a unilateral lifting of the embargo.	Washington was not moving towards a unilateral lifting of the embargo.	138001437	1475697872155	1475697872258	f	70
271150	2905623	Washington was not moving toward a unilateral lifting of the embargo.	Washington was not moving towards a unilateral lifting of the embargo.	138001441	1475697872367	1475697872490	t	84
271150	2905623	Washington was not moving toward a unilateral lifting of the embargo.	Washington was not moving towards a unilateral lifting of the embargo.	138001456	1475697872505	1475697872605	i	73
271150	2905623	Washington was not moving toward a unilateral lifting of the embargo.	Washington was not moving towards a unilateral lifting of the embargo.	138001458	1475697872714	1475697872824	n	78
271150	2905623	Washington was not moving toward a unilateral lifting of the embargo.	Washington was not moving towards a unilateral lifting of the embargo.	138001461	1475697872824	1475697872979	g	71
271150	2905623	Washington was not moving toward a unilateral lifting of the embargo.	Washington was not moving towards a unilateral lifting of the embargo.	138001467	1475697872922	1475697873022	 	32
271150	2905623	Washington was not moving toward a unilateral lifting of the embargo.	Washington was not moving towards a unilateral lifting of the embargo.	138001471	1475697873193	1475697873371	o	79
271150	2905623	Washington was not moving toward a unilateral lifting of the embargo.	Washington was not moving towards a unilateral lifting of the embargo.	138001528	1475697873355	1475697873516	f	70
271150	2905623	Washington was not moving toward a unilateral lifting of the embargo.	Washington was not moving towards a unilateral lifting of the embargo.	138001531	1475697873470	1475697873574	 	32
271150	2905623	Washington was not moving toward a unilateral lifting of the embargo.	Washington was not moving towards a unilateral lifting of the embargo.	138001534	1475697873605	1475697873767	t	84
271150	2905623	Washington was not moving toward a unilateral lifting of the embargo.	Washington was not moving towards a unilateral lifting of the embargo.	138001536	1475697873892	1475697874022	h	72
271150	2905623	Washington was not moving toward a unilateral lifting of the embargo.	Washington was not moving towards a unilateral lifting of the embargo.	138001538	1475697874194	1475697874353	e	69
271150	2905623	Washington was not moving toward a unilateral lifting of the embargo.	Washington was not moving towards a unilateral lifting of the embargo.	138001584	1475697874322	1475697874424	 	32
271150	2905623	Washington was not moving toward a unilateral lifting of the embargo.	Washington was not moving towards a unilateral lifting of the embargo.	138001588	1475697874596	1475697874769	e	69
271150	2905623	Washington was not moving toward a unilateral lifting of the embargo.	Washington was not moving towards a unilateral lifting of the embargo.	138001593	1475697874831	1475697874925	m	77
271150	2905623	Washington was not moving toward a unilateral lifting of the embargo.	Washington was not moving towards a unilateral lifting of the embargo.	138001596	1475697875034	1475697875164	b	66
271150	2905623	Washington was not moving toward a unilateral lifting of the embargo.	Washington was not moving towards a unilateral lifting of the embargo.	138001599	1475697875110	1475697875270	a	65
271150	2905623	Washington was not moving toward a unilateral lifting of the embargo.	Washington was not moving towards a unilateral lifting of the embargo.	138001602	1475697875348	1475697875457	r	82
271150	2905623	Washington was not moving toward a unilateral lifting of the embargo.	Washington was not moving towards a unilateral lifting of the embargo.	138001627	1475697875679	1475697875806	g	71
271150	2905623	Washington was not moving toward a unilateral lifting of the embargo.	Washington was not moving towards a unilateral lifting of the embargo.	138001629	1475697875853	1475697875957	o	79
271150	2905623	Washington was not moving toward a unilateral lifting of the embargo.	Washington was not moving towards a unilateral lifting of the embargo.	138001631	1475697876082	1475697876206	.	190
271150	2905642	Do you have it yet?.	Do you have it yet?\	138001797	1475697879303	1475697879423	d	68
271150	2905642	Do you have it yet?.	Do you have it yet?\	138001799	1475697879438	1475697879522	o	79
271150	2905642	Do you have it yet?.	Do you have it yet?\	138001801	1475697879709	1475697879820	BKSP	8
271150	2905642	Do you have it yet?.	Do you have it yet?\	138001804	1475697879898	1475697880003	BKSP	8
271150	2905642	Do you have it yet?.	Do you have it yet?\	138001808	1475697879934	1475697880187	SHIFT	16
271150	2905642	Do you have it yet?.	Do you have it yet?\	138001812	1475697880034	1475697880203	D	68
271150	2905642	Do you have it yet?.	Do you have it yet?\	138001816	1475697880390	1475697880503	o	79
271150	2905642	Do you have it yet?.	Do you have it yet?\	138001818	1475697880628	1475697880724	 	32
271150	2905642	Do you have it yet?.	Do you have it yet?\	138001829	1475697880756	1475697880896	y	89
271150	2905642	Do you have it yet?.	Do you have it yet?\	138001833	1475697880858	1475697880970	o	79
271150	2905642	Do you have it yet?.	Do you have it yet?\	138001835	1475697881064	1475697881191	y	85
271150	2905642	Do you have it yet?.	Do you have it yet?\	138001904	1475697881170	1475697881258	 	32
271150	2905642	Do you have it yet?.	Do you have it yet?\	138001906	1475697881697	1475697881807	BKSP	8
271150	2905642	Do you have it yet?.	Do you have it yet?\	138001910	1475697881885	1475697881991	BKSP	8
271150	2905642	Do you have it yet?.	Do you have it yet?\	138001914	1475697882334	1475697882441	 	32
271150	2905642	Do you have it yet?.	Do you have it yet?\	138001918	1475697882613	1475697882723	h	72
271150	2905642	Do you have it yet?.	Do you have it yet?\	138001921	1475697882662	1475697882801	a	65
271150	2905642	Do you have it yet?.	Do you have it yet?\	138001924	1475697882785	1475697882986	v	86
271150	2905642	Do you have it yet?.	Do you have it yet?\	138001979	1475697882874	1475697883024	e	69
271150	2905642	Do you have it yet?.	Do you have it yet?\	138001983	1475697882971	1475697883089	 	32
271150	2905642	Do you have it yet?.	Do you have it yet?\	138001988	1475697883105	1475697883270	i	73
271150	2905642	Do you have it yet?.	Do you have it yet?\	138001994	1475697883286	1475697883421	t	84
271150	2905642	Do you have it yet?.	Do you have it yet?\	138001998	1475697883421	1475697883524	 	32
271150	2905642	Do you have it yet?.	Do you have it yet?\	138002003	1475697883917	1475697884008	y	89
271150	2905642	Do you have it yet?.	Do you have it yet?\	138002011	1475697884040	1475697884153	e	69
271150	2905642	Do you have it yet?.	Do you have it yet?\	138002042	1475697884246	1475697884372	t	84
271150	2905642	Do you have it yet?.	Do you have it yet?\	138002049	1475697884372	1475697884636	SHIFT	16
271150	2905642	Do you have it yet?.	Do you have it yet?\	138002045	1475697884482	1475697884620	?	191
