PARTICIPANT_ID	TEST_SECTION_ID	SENTENCE	USER_INPUT	KEYSTROKE_ID	PRESS_TIME	RELEASE_TIME	LETTER	KEYCODE
272115	2916988	I know you changed it.	I know you changed it	138534655	1475708819685	1475708819921	SHIFT	16
272115	2916988	I know you changed it.	I know you changed it	138534657	1475708819825	1475708820037	I	73
272115	2916988	I know you changed it.	I know you changed it	138534662	1475708819985	1475708820117	 	32
272115	2916988	I know you changed it.	I know you changed it	138534666	1475708820098	1475708820214	k	75
272115	2916988	I know you changed it.	I know you changed it	138534672	1475708820308	1475708820608	n	78
272115	2916988	I know you changed it.	I know you changed it	138534714	1475708820596	1475708820653	o	79
272115	2916988	I know you changed it.	I know you changed it	138534715	1475708820653	1475708820661	 	87
272115	2916988	I know you changed it.	I know you changed it	138534717	1475708821050	1475708821192	y	89
272115	2916988	I know you changed it.	I know you changed it	138534720	1475708821208	1475708821381	o	79
272115	2916988	I know you changed it.	I know you changed it	138534761	1475708821347	1475708821511	u	85
272115	2916988	I know you changed it.	I know you changed it	138534767	1475708821573	1475708821695	 	32
272115	2916988	I know you changed it.	I know you changed it	138534772	1475708821804	1475708821930	c	67
272115	2916988	I know you changed it.	I know you changed it	138534776	1475708822040	1475708822105	h	72
272115	2916988	I know you changed it.	I know you changed it	138534780	1475708822117	1475708822237	a	65
272115	2916988	I know you changed it.	I know you changed it	138534810	1475708822192	1475708822265	n	78
272115	2916988	I know you changed it.	I know you changed it	138534816	1475708822390	1475708822451	g	71
272115	2916988	I know you changed it.	I know you changed it	138534818	1475708822685	1475708822849	e	69
272115	2916988	I know you changed it.	I know you changed it	138534821	1475708822780	1475708822943	d	68
272115	2916988	I know you changed it.	I know you changed it	138534825	1475708822943	1475708823034	 	32
272115	2916988	I know you changed it.	I know you changed it	138534827	1475708823127	1475708823233	i	222
272115	2916988	I know you changed it.	I know you changed it	138534837	1475708823373	1475708823377	t	84
272115	2916995	It would lessen that anxiety that the officers are faced with.	It would lessen that anx?ety that the officers are faced with.	138534897	1475708825422	1475708825691	SHIFT	16
272115	2916995	It would lessen that anxiety that the officers are faced with.	It would lessen that anx?ety that the officers are faced with.	138534900	1475708825654	1475708825751	I	73
272115	2916995	It would lessen that anxiety that the officers are faced with.	It would lessen that anx?ety that the officers are faced with.	138534907	1475708825876	1475708825980	t	84
272115	2916995	It would lessen that anxiety that the officers are faced with.	It would lessen that anx?ety that the officers are faced with.	138534914	1475708825965	1475708826064	 	32
272115	2916995	It would lessen that anxiety that the officers are faced with.	It would lessen that anx?ety that the officers are faced with.	138534919	1475708826173	1475708826322	w	87
272115	2916995	It would lessen that anxiety that the officers are faced with.	It would lessen that anx?ety that the officers are faced with.	138534973	1475708826283	1475708826397	o	79
272115	2916995	It would lessen that anxiety that the officers are faced with.	It would lessen that anx?ety that the officers are faced with.	138534977	1475708826538	1475708826633	u	85
272115	2916995	It would lessen that anxiety that the officers are faced with.	It would lessen that anx?ety that the officers are faced with.	138534984	1475708826742	1475708826851	l	76
272115	2916995	It would lessen that anxiety that the officers are faced with.	It would lessen that anx?ety that the officers are faced with.	138534990	1475708826880	1475708826965	d	68
272115	2916995	It would lessen that anxiety that the officers are faced with.	It would lessen that anx?ety that the officers are faced with.	138534995	1475708826980	1475708827114	 	32
272115	2916995	It would lessen that anxiety that the officers are faced with.	It would lessen that anx?ety that the officers are faced with.	138534997	1475708827301	1475708827415	l	76
272115	2916995	It would lessen that anxiety that the officers are faced with.	It would lessen that anx?ety that the officers are faced with.	138535003	1475708827691	1475708827694	s	69
272115	2916995	It would lessen that anxiety that the officers are faced with.	It would lessen that anx?ety that the officers are faced with.	138535004	1475708827726	1475708827861	s	83
272115	2916995	It would lessen that anxiety that the officers are faced with.	It would lessen that anx?ety that the officers are faced with.	138535005	1475708827892	1475708828093	e	69
272115	2916995	It would lessen that anxiety that the officers are faced with.	It would lessen that anx?ety that the officers are faced with.	138535032	1475708828089	1475708828101	 	78
272115	2916995	It would lessen that anxiety that the officers are faced with.	It would lessen that anx?ety that the officers are faced with.	138535034	1475708828260	1475708828332	t	84
272115	2916995	It would lessen that anxiety that the officers are faced with.	It would lessen that anx?ety that the officers are faced with.	138535037	1475708828400	1475708828488	h	72
272115	2916995	It would lessen that anxiety that the officers are faced with.	It would lessen that anx?ety that the officers are faced with.	138535039	1475708828452	1475708828595	a	65
272115	2916995	It would lessen that anxiety that the officers are faced with.	It would lessen that anx?ety that the officers are faced with.	138535146	1475708828579	1475708828729	t	84
272115	2916995	It would lessen that anxiety that the officers are faced with.	It would lessen that anx?ety that the officers are faced with.	138535149	1475708828682	1475708828819	 	32
272115	2916995	It would lessen that anxiety that the officers are faced with.	It would lessen that anx?ety that the officers are faced with.	138535154	1475708828991	1475708829115	a	65
272115	2916995	It would lessen that anxiety that the officers are faced with.	It would lessen that anx?ety that the officers are faced with.	138535160	1475708829182	1475708829225	n	78
272115	2916995	It would lessen that anxiety that the officers are faced with.	It would lessen that anx?ety that the officers are faced with.	138535164	1475708830143	1475708830273	x	88
272115	2916995	It would lessen that anxiety that the officers are faced with.	It would lessen that anx?ety that the officers are faced with.	138535167	1475708830827	1475708830914	?	73
272115	2916995	It would lessen that anxiety that the officers are faced with.	It would lessen that anx?ety that the officers are faced with.	138535204	1475708831133	1475708831305	e	69
272115	2916995	It would lessen that anxiety that the officers are faced with.	It would lessen that anx?ety that the officers are faced with.	138535206	1475708831277	1475708831365	t	84
272115	2916995	It would lessen that anxiety that the officers are faced with.	It would lessen that anx?ety that the officers are faced with.	138535214	1475708831443	1475708831579	y	89
272115	2916995	It would lessen that anxiety that the officers are faced with.	It would lessen that anx?ety that the officers are faced with.	138535218	1475708831611	1475708831742	 	32
272115	2916995	It would lessen that anxiety that the officers are faced with.	It would lessen that anx?ety that the officers are faced with.	138535224	1475708831908	1475708832000	t	84
272115	2916995	It would lessen that anxiety that the officers are faced with.	It would lessen that anx?ety that the officers are faced with.	138535242	1475708832010	1475708832099	h	72
272115	2916995	It would lessen that anxiety that the officers are faced with.	It would lessen that anx?ety that the officers are faced with.	138535243	1475708832162	1475708832283	a	65
272115	2916995	It would lessen that anxiety that the officers are faced with.	It would lessen that anx?ety that the officers are faced with.	138535244	1475708832218	1475708832346	t	84
272115	2916995	It would lessen that anxiety that the officers are faced with.	It would lessen that anx?ety that the officers are faced with.	138535245	1475708832377	1475708832474	 	32
272115	2916995	It would lessen that anxiety that the officers are faced with.	It would lessen that anx?ety that the officers are faced with.	138535247	1475708832599	1475708832684	t	84
272115	2916995	It would lessen that anxiety that the officers are faced with.	It would lessen that anx?ety that the officers are faced with.	138535267	1475708832760	1475708832882	h	72
272115	2916995	It would lessen that anxiety that the officers are faced with.	It would lessen that anx?ety that the officers are faced with.	138535268	1475708832850	1475708832984	e	69
272115	2916995	It would lessen that anxiety that the officers are faced with.	It would lessen that anx?ety that the officers are faced with.	138535269	1475708832922	1475708833032	 	32
272115	2916995	It would lessen that anxiety that the officers are faced with.	It would lessen that anx?ety that the officers are faced with.	138535270	1475708833110	1475708833230	o	79
272115	2916995	It would lessen that anxiety that the officers are faced with.	It would lessen that anx?ety that the officers are faced with.	138535271	1475708833277	1475708833347	f	70
272115	2916995	It would lessen that anxiety that the officers are faced with.	It would lessen that anx?ety that the officers are faced with.	138535303	1475708833414	1475708833556	f	70
272115	2916995	It would lessen that anxiety that the officers are faced with.	It would lessen that anx?ety that the officers are faced with.	138535305	1475708833482	1475708833601	i	222
272115	2916995	It would lessen that anxiety that the officers are faced with.	It would lessen that anx?ety that the officers are faced with.	138535308	1475708833647	1475708833781	c	67
272115	2916995	It would lessen that anxiety that the officers are faced with.	It would lessen that anx?ety that the officers are faced with.	138535310	1475708833749	1475708833911	e	69
272115	2916995	It would lessen that anxiety that the officers are faced with.	It would lessen that anx?ety that the officers are faced with.	138535313	1475708834143	1475708834252	r	82
272115	2916995	It would lessen that anxiety that the officers are faced with.	It would lessen that anx?ety that the officers are faced with.	138535352	1475708834370	1475708834511	s	83
272115	2916995	It would lessen that anxiety that the officers are faced with.	It would lessen that anx?ety that the officers are faced with.	138535356	1475708834481	1475708834582	 	32
272115	2916995	It would lessen that anxiety that the officers are faced with.	It would lessen that anx?ety that the officers are faced with.	138535359	1475708834692	1475708834768	a	65
272115	2916995	It would lessen that anxiety that the officers are faced with.	It would lessen that anx?ety that the officers are faced with.	138535363	1475708834955	1475708835097	r	82
272115	2916995	It would lessen that anxiety that the officers are faced with.	It would lessen that anx?ety that the officers are faced with.	138535461	1475708834982	1475708835177	e	69
272115	2916995	It would lessen that anxiety that the officers are faced with.	It would lessen that anx?ety that the officers are faced with.	138535457	1475708835125	1475708835153	w	87
272115	2916995	It would lessen that anxiety that the officers are faced with.	It would lessen that anx?ety that the officers are faced with.	138535464	1475708835479	1475708835551	BKSP	8
272115	2916995	It would lessen that anxiety that the officers are faced with.	It would lessen that anx?ety that the officers are faced with.	138535467	1475708835645	1475708835681	BKSP	8
272115	2916995	It would lessen that anxiety that the officers are faced with.	It would lessen that anx?ety that the officers are faced with.	138535471	1475708836230	1475708836363	e	69
272115	2916995	It would lessen that anxiety that the officers are faced with.	It would lessen that anx?ety that the officers are faced with.	138535472	1475708836520	1475708836645	 	32
272115	2916995	It would lessen that anxiety that the officers are faced with.	It would lessen that anx?ety that the officers are faced with.	138535473	1475708837368	1475708837553	f	70
272115	2916995	It would lessen that anxiety that the officers are faced with.	It would lessen that anx?ety that the officers are faced with.	138535499	1475708837466	1475708837648	a	65
272115	2916995	It would lessen that anxiety that the officers are faced with.	It would lessen that anx?ety that the officers are faced with.	138535504	1475708837680	1475708837827	c	67
272115	2916995	It would lessen that anxiety that the officers are faced with.	It would lessen that anx?ety that the officers are faced with.	138535508	1475708837796	1475708837928	e	69
272115	2916995	It would lessen that anxiety that the officers are faced with.	It would lessen that anx?ety that the officers are faced with.	138535511	1475708837959	1475708838129	d	68
272115	2916995	It would lessen that anxiety that the officers are faced with.	It would lessen that anx?ety that the officers are faced with.	138535516	1475708838112	1475708838248	 	32
272115	2916995	It would lessen that anxiety that the officers are faced with.	It would lessen that anx?ety that the officers are faced with.	138535519	1475708838405	1475708838548	w	87
272115	2916995	It would lessen that anxiety that the officers are faced with.	It would lessen that anx?ety that the officers are faced with.	138535541	1475708838499	1475708838600	i	222
272115	2916995	It would lessen that anxiety that the officers are faced with.	It would lessen that anx?ety that the officers are faced with.	138535546	1475708838691	1475708838783	t	84
272115	2916995	It would lessen that anxiety that the officers are faced with.	It would lessen that anx?ety that the officers are faced with.	138535552	1475708838799	1475708838866	h	72
272115	2917011	But I would suspect that when Ricky can play, he'll play again.	But I would suspect that then Ricky can play, he'll play again.	138535675	1475708841014	1475708841316	SHIFT	16
272115	2917011	But I would suspect that when Ricky can play, he'll play again.	But I would suspect that then Ricky can play, he'll play again.	138535678	1475708841269	1475708841410	B	66
272115	2917011	But I would suspect that when Ricky can play, he'll play again.	But I would suspect that then Ricky can play, he'll play again.	138535681	1475708841503	1475708841584	u	85
272115	2917011	But I would suspect that when Ricky can play, he'll play again.	But I would suspect that then Ricky can play, he'll play again.	138535684	1475708841615	1475708841715	t	84
272115	2917011	But I would suspect that when Ricky can play, he'll play again.	But I would suspect that then Ricky can play, he'll play again.	138535686	1475708841746	1475708841847	 	32
272115	2917011	But I would suspect that when Ricky can play, he'll play again.	But I would suspect that then Ricky can play, he'll play again.	138535689	1475708842329	1475708842584	SHIFT	16
272115	2917011	But I would suspect that when Ricky can play, he'll play again.	But I would suspect that then Ricky can play, he'll play again.	138535705	1475708842521	1475708842687	I	73
272115	2917011	But I would suspect that when Ricky can play, he'll play again.	But I would suspect that then Ricky can play, he'll play again.	138535707	1475708842662	1475708842747	 	32
272115	2917011	But I would suspect that when Ricky can play, he'll play again.	But I would suspect that then Ricky can play, he'll play again.	138535710	1475708842778	1475708842909	w	87
272115	2917011	But I would suspect that when Ricky can play, he'll play again.	But I would suspect that then Ricky can play, he'll play again.	138535717	1475708842863	1475708842933	o	79
272115	2917011	But I would suspect that when Ricky can play, he'll play again.	But I would suspect that then Ricky can play, he'll play again.	138535720	1475708843074	1475708843130	u	85
272115	2917011	But I would suspect that when Ricky can play, he'll play again.	But I would suspect that then Ricky can play, he'll play again.	138535724	1475708843234	1475708843330	l	76
272115	2917011	But I would suspect that when Ricky can play, he'll play again.	But I would suspect that then Ricky can play, he'll play again.	138535746	1475708843376	1475708843489	d	68
272115	2917011	But I would suspect that when Ricky can play, he'll play again.	But I would suspect that then Ricky can play, he'll play again.	138535750	1475708843479	1475708843580	 	32
272115	2917011	But I would suspect that when Ricky can play, he'll play again.	But I would suspect that then Ricky can play, he'll play again.	138535755	1475708843721	1475708843765	s	83
272115	2917011	But I would suspect that when Ricky can play, he'll play again.	But I would suspect that then Ricky can play, he'll play again.	138535760	1475708843906	1475708843981	u	85
272115	2917011	But I would suspect that when Ricky can play, he'll play again.	But I would suspect that then Ricky can play, he'll play again.	138535762	1475708844106	1475708844227	s	83
272115	2917011	But I would suspect that when Ricky can play, he'll play again.	But I would suspect that then Ricky can play, he'll play again.	138535796	1475708844569	1475708844664	p	80
272115	2917011	But I would suspect that when Ricky can play, he'll play again.	But I would suspect that then Ricky can play, he'll play again.	138535799	1475708844680	1475708844869	e	69
272115	2917011	But I would suspect that when Ricky can play, he'll play again.	But I would suspect that then Ricky can play, he'll play again.	138535803	1475708844796	1475708844885	c	67
272115	2917011	But I would suspect that when Ricky can play, he'll play again.	But I would suspect that then Ricky can play, he'll play again.	138535806	1475708844963	1475708845123	t	84
272115	2917011	But I would suspect that when Ricky can play, he'll play again.	But I would suspect that then Ricky can play, he'll play again.	138535823	1475708845093	1475708845261	 	32
272115	2917011	But I would suspect that when Ricky can play, he'll play again.	But I would suspect that then Ricky can play, he'll play again.	138535825	1475708845593	1475708845683	t	84
272115	2917011	But I would suspect that when Ricky can play, he'll play again.	But I would suspect that then Ricky can play, he'll play again.	138535826	1475708845746	1475708845830	h	72
272115	2917011	But I would suspect that when Ricky can play, he'll play again.	But I would suspect that then Ricky can play, he'll play again.	138535827	1475708845877	1475708846001	a	65
272115	2917011	But I would suspect that when Ricky can play, he'll play again.	But I would suspect that then Ricky can play, he'll play again.	138535829	1475708845964	1475708846078	t	84
272115	2917011	But I would suspect that when Ricky can play, he'll play again.	But I would suspect that then Ricky can play, he'll play again.	138535864	1475708846064	1475708846233	 	32
272115	2917011	But I would suspect that when Ricky can play, he'll play again.	But I would suspect that then Ricky can play, he'll play again.	138535868	1475708846178	1475708846312	t	84
272115	2917011	But I would suspect that when Ricky can play, he'll play again.	But I would suspect that then Ricky can play, he'll play again.	138535873	1475708846390	1475708846497	h	72
272115	2917011	But I would suspect that when Ricky can play, he'll play again.	But I would suspect that then Ricky can play, he'll play again.	138535876	1475708846512	1475708846563	e	69
272115	2917011	But I would suspect that when Ricky can play, he'll play again.	But I would suspect that then Ricky can play, he'll play again.	138535878	1475708846615	1475708846780	n	78
272115	2917011	But I would suspect that when Ricky can play, he'll play again.	But I would suspect that then Ricky can play, he'll play again.	138535880	1475708846842	1475708846961	 	32
272115	2917011	But I would suspect that when Ricky can play, he'll play again.	But I would suspect that then Ricky can play, he'll play again.	138535971	1475708848047	1475708848163	k	75
272115	2917011	But I would suspect that when Ricky can play, he'll play again.	But I would suspect that then Ricky can play, he'll play again.	138535974	1475708848273	1475708848443	y	89
272115	2917011	But I would suspect that when Ricky can play, he'll play again.	But I would suspect that then Ricky can play, he'll play again.	138535980	1475708848851	1475708848915	BKSP	8
272115	2917011	But I would suspect that when Ricky can play, he'll play again.	But I would suspect that then Ricky can play, he'll play again.	138535982	1475708848991	1475708849051	BKSP	8
272115	2917011	But I would suspect that when Ricky can play, he'll play again.	But I would suspect that then Ricky can play, he'll play again.	138535984	1475708849363	1475708849749	SHIFT	16
272115	2917011	But I would suspect that when Ricky can play, he'll play again.	But I would suspect that then Ricky can play, he'll play again.	138535985	1475708849632	1475708849765	R	82
272115	2917011	But I would suspect that when Ricky can play, he'll play again.	But I would suspect that then Ricky can play, he'll play again.	138535986	1475708849905	1475708849957	i	222
272115	2917011	But I would suspect that when Ricky can play, he'll play again.	But I would suspect that then Ricky can play, he'll play again.	138535988	1475708849981	1475708850034	i	222
272115	2917011	But I would suspect that when Ricky can play, he'll play again.	But I would suspect that then Ricky can play, he'll play again.	138536073	1475708850144	1475708850247	c	67
272115	2917011	But I would suspect that when Ricky can play, he'll play again.	But I would suspect that then Ricky can play, he'll play again.	138536075	1475708850294	1475708850367	k	75
272115	2917011	But I would suspect that when Ricky can play, he'll play again.	But I would suspect that then Ricky can play, he'll play again.	138536077	1475708850961	1475708850988	BKSP	8
272115	2917011	But I would suspect that when Ricky can play, he'll play again.	But I would suspect that then Ricky can play, he'll play again.	138536078	1475708851064	1475708851131	BKSP	8
272115	2917011	But I would suspect that when Ricky can play, he'll play again.	But I would suspect that then Ricky can play, he'll play again.	138536079	1475708851225	1475708851285	BKSP	8
272115	2917011	But I would suspect that when Ricky can play, he'll play again.	But I would suspect that then Ricky can play, he'll play again.	138536081	1475708851457	1475708851581	c	67
272115	2917011	But I would suspect that when Ricky can play, he'll play again.	But I would suspect that then Ricky can play, he'll play again.	138536084	1475708851684	1475708851780	k	75
272115	2917011	But I would suspect that when Ricky can play, he'll play again.	But I would suspect that then Ricky can play, he'll play again.	138536087	1475708851905	1475708852018	y	89
272115	2917011	But I would suspect that when Ricky can play, he'll play again.	But I would suspect that then Ricky can play, he'll play again.	138536100	1475708852029	1475708852175	 	32
272115	2917011	But I would suspect that when Ricky can play, he'll play again.	But I would suspect that then Ricky can play, he'll play again.	138536104	1475708852566	1475708852764	c	67
272115	2917011	But I would suspect that when Ricky can play, he'll play again.	But I would suspect that then Ricky can play, he'll play again.	138536108	1475708852696	1475708852868	a	65
272115	2917011	But I would suspect that when Ricky can play, he'll play again.	But I would suspect that then Ricky can play, he'll play again.	138536113	1475708852811	1475708852932	n	78
272115	2917011	But I would suspect that when Ricky can play, he'll play again.	But I would suspect that then Ricky can play, he'll play again.	138536155	1475708852884	1475708852989	 	32
272115	2917011	But I would suspect that when Ricky can play, he'll play again.	But I would suspect that then Ricky can play, he'll play again.	138536159	1475708853239	1475708853314	p	80
272115	2917011	But I would suspect that when Ricky can play, he'll play again.	But I would suspect that then Ricky can play, he'll play again.	138536164	1475708853397	1475708853512	l	76
272115	2917011	But I would suspect that when Ricky can play, he'll play again.	But I would suspect that then Ricky can play, he'll play again.	138536169	1475708853528	1475708853661	a	65
272115	2917011	But I would suspect that when Ricky can play, he'll play again.	But I would suspect that then Ricky can play, he'll play again.	138536172	1475708853676	1475708853749	y	89
272115	2917011	But I would suspect that when Ricky can play, he'll play again.	But I would suspect that then Ricky can play, he'll play again.	138536174	1475708854171	1475708854265	,	188
272115	2917011	But I would suspect that when Ricky can play, he'll play again.	But I would suspect that then Ricky can play, he'll play again.	138536223	1475708854574	1475708854711	 	32
272115	2917011	But I would suspect that when Ricky can play, he'll play again.	But I would suspect that then Ricky can play, he'll play again.	138536225	1475708855007	1475708855117	SHIFT	16
272115	2917011	But I would suspect that when Ricky can play, he'll play again.	But I would suspect that then Ricky can play, he'll play again.	138536227	1475708855619	1475708855731	h	72
272115	2917011	But I would suspect that when Ricky can play, he'll play again.	But I would suspect that then Ricky can play, he'll play again.	138536228	1475708855747	1475708855846	e	69
272115	2917011	But I would suspect that when Ricky can play, he'll play again.	But I would suspect that then Ricky can play, he'll play again.	138536231	1475708855939	1475708856310	SHIFT	16
272115	2917011	But I would suspect that when Ricky can play, he'll play again.	But I would suspect that then Ricky can play, he'll play again.	138536230	1475708856174	1475708856295	'	50
272115	2917011	But I would suspect that when Ricky can play, he'll play again.	But I would suspect that then Ricky can play, he'll play again.	138536233	1475708856482	1475708856547	l	76
272115	2917011	But I would suspect that when Ricky can play, he'll play again.	But I would suspect that then Ricky can play, he'll play again.	138536273	1475708856606	1475708856681	l	76
272115	2917011	But I would suspect that when Ricky can play, he'll play again.	But I would suspect that then Ricky can play, he'll play again.	138536276	1475708857563	1475708857647	 	32
272115	2917011	But I would suspect that when Ricky can play, he'll play again.	But I would suspect that then Ricky can play, he'll play again.	138536279	1475708857835	1475708857978	p	80
272115	2917011	But I would suspect that when Ricky can play, he'll play again.	But I would suspect that then Ricky can play, he'll play again.	138536281	1475708857952	1475708858061	l	76
272115	2917011	But I would suspect that when Ricky can play, he'll play again.	But I would suspect that then Ricky can play, he'll play again.	138536286	1475708858108	1475708858230	a	65
272115	2917011	But I would suspect that when Ricky can play, he'll play again.	But I would suspect that then Ricky can play, he'll play again.	138536296	1475708858258	1475708858341	y	89
272115	2917011	But I would suspect that when Ricky can play, he'll play again.	But I would suspect that then Ricky can play, he'll play again.	138536298	1475708858318	1475708858420	 	32
272115	2917011	But I would suspect that when Ricky can play, he'll play again.	But I would suspect that then Ricky can play, he'll play again.	138536300	1475708858400	1475708858517	a	65
272115	2917011	But I would suspect that when Ricky can play, he'll play again.	But I would suspect that then Ricky can play, he'll play again.	138536302	1475708858484	1475708858581	g	71
272115	2917011	But I would suspect that when Ricky can play, he'll play again.	But I would suspect that then Ricky can play, he'll play again.	138536304	1475708858628	1475708858765	a	65
272115	2917011	But I would suspect that when Ricky can play, he'll play again.	But I would suspect that then Ricky can play, he'll play again.	138536319	1475708858733	1475708858919	i	222
272115	2917011	But I would suspect that when Ricky can play, he'll play again.	But I would suspect that then Ricky can play, he'll play again.	138536321	1475708858901	1475708859014	n	78
272115	2917026	I think Tim wants to move quickly.	I think Tim wants to move quickly.	138536391	1475708861901	1475708862146	SHIFT	16
272115	2917026	I think Tim wants to move quickly.	I think Tim wants to move quickly.	138536394	1475708862089	1475708862249	I	73
272115	2917026	I think Tim wants to move quickly.	I think Tim wants to move quickly.	138536395	1475708862196	1475708862312	 	32
272115	2917026	I think Tim wants to move quickly.	I think Tim wants to move quickly.	138536396	1475708862374	1475708862484	t	84
272115	2917026	I think Tim wants to move quickly.	I think Tim wants to move quickly.	138536397	1475708862432	1475708862562	h	72
272115	2917026	I think Tim wants to move quickly.	I think Tim wants to move quickly.	138536398	1475708862640	1475708862776	i	222
272115	2917026	I think Tim wants to move quickly.	I think Tim wants to move quickly.	138536410	1475708862788	1475708862989	n	78
272115	2917026	I think Tim wants to move quickly.	I think Tim wants to move quickly.	138536412	1475708862895	1475708863049	k	75
272115	2917026	I think Tim wants to move quickly.	I think Tim wants to move quickly.	138536415	1475708863065	1475708863197	 	32
272115	2917026	I think Tim wants to move quickly.	I think Tim wants to move quickly.	138536418	1475708863711	1475708863900	SHIFT	16
272115	2917026	I think Tim wants to move quickly.	I think Tim wants to move quickly.	138536421	1475708863805	1475708863916	T	84
272115	2917026	I think Tim wants to move quickly.	I think Tim wants to move quickly.	138536425	1475708863963	1475708864111	i	222
272115	2917026	I think Tim wants to move quickly.	I think Tim wants to move quickly.	138536455	1475708864140	1475708864294	m	77
272115	2917026	I think Tim wants to move quickly.	I think Tim wants to move quickly.	138536457	1475708864310	1475708864428	 	32
272115	2917026	I think Tim wants to move quickly.	I think Tim wants to move quickly.	138536459	1475708865088	1475708865164	w	87
272115	2917026	I think Tim wants to move quickly.	I think Tim wants to move quickly.	138536461	1475708865258	1475708865379	a	65
272115	2917026	I think Tim wants to move quickly.	I think Tim wants to move quickly.	138536488	1475708865330	1475708865466	n	78
272115	2917026	I think Tim wants to move quickly.	I think Tim wants to move quickly.	138536491	1475708865592	1475708865650	t	84
272115	2917026	I think Tim wants to move quickly.	I think Tim wants to move quickly.	138536494	1475708865697	1475708865812	s	83
272115	2917026	I think Tim wants to move quickly.	I think Tim wants to move quickly.	138536496	1475708865867	1475708865963	 	32
272115	2917026	I think Tim wants to move quickly.	I think Tim wants to move quickly.	138536497	1475708866236	1475708866370	t	84
272115	2917026	I think Tim wants to move quickly.	I think Tim wants to move quickly.	138536506	1475708866329	1475708866434	o	79
272115	2917026	I think Tim wants to move quickly.	I think Tim wants to move quickly.	138536510	1475708866403	1475708866514	 	32
272115	2917026	I think Tim wants to move quickly.	I think Tim wants to move quickly.	138536514	1475708866623	1475708866764	m	77
272115	2917026	I think Tim wants to move quickly.	I think Tim wants to move quickly.	138536516	1475708866697	1475708866811	o	79
272115	2917026	I think Tim wants to move quickly.	I think Tim wants to move quickly.	138536517	1475708866874	1475708867031	v	86
272115	2917026	I think Tim wants to move quickly.	I think Tim wants to move quickly.	138536562	1475708866944	1475708867108	e	69
272115	2917026	I think Tim wants to move quickly.	I think Tim wants to move quickly.	138536565	1475708867320	1475708867435	 	32
272115	2917026	I think Tim wants to move quickly.	I think Tim wants to move quickly.	138536569	1475708867714	1475708867833	q	81
272115	2917026	I think Tim wants to move quickly.	I think Tim wants to move quickly.	138536573	1475708867753	1475708867880	u	85
272115	2917026	I think Tim wants to move quickly.	I think Tim wants to move quickly.	138536578	1475708868929	1475708869031	i	222
272115	2917026	I think Tim wants to move quickly.	I think Tim wants to move quickly.	138536581	1475708869031	1475708869155	c	67
272115	2917026	I think Tim wants to move quickly.	I think Tim wants to move quickly.	138536606	1475708869132	1475708869199	k	75
272115	2917026	I think Tim wants to move quickly.	I think Tim wants to move quickly.	138536609	1475708869293	1475708869378	l	76
272115	2917026	I think Tim wants to move quickly.	I think Tim wants to move quickly.	138536611	1475708869503	1475708869565	y	89
272115	2917034	See what concerts we have for you in your city.	See what concerts we have for you in your city.	138536676	1475708871851	1475708872131	SHIFT	16
272115	2917034	See what concerts we have for you in your city.	See what concerts we have for you in your city.	138536678	1475708872041	1475708872177	S	83
272115	2917034	See what concerts we have for you in your city.	See what concerts we have for you in your city.	138536681	1475708872287	1475708872350	e	69
272115	2917034	See what concerts we have for you in your city.	See what concerts we have for you in your city.	138536684	1475708872412	1475708872542	e	69
272115	2917034	See what concerts we have for you in your city.	See what concerts we have for you in your city.	138536687	1475708872512	1475708872613	 	32
272115	2917034	See what concerts we have for you in your city.	See what concerts we have for you in your city.	138536689	1475708873319	1475708873419	w	87
272115	2917034	See what concerts we have for you in your city.	See what concerts we have for you in your city.	138536702	1475708873434	1475708873513	h	72
272115	2917034	See what concerts we have for you in your city.	See what concerts we have for you in your city.	138536703	1475708873560	1475708873701	a	65
272115	2917034	See what concerts we have for you in your city.	See what concerts we have for you in your city.	138536704	1475708873661	1475708873779	t	84
272115	2917034	See what concerts we have for you in your city.	See what concerts we have for you in your city.	138536705	1475708873810	1475708873913	 	32
272115	2917034	See what concerts we have for you in your city.	See what concerts we have for you in your city.	138536707	1475708874194	1475708874331	c	67
272115	2917034	See what concerts we have for you in your city.	See what concerts we have for you in your city.	138536723	1475708874297	1475708874432	o	79
272115	2917034	See what concerts we have for you in your city.	See what concerts we have for you in your city.	138536724	1475708874379	1475708874522	n	78
272115	2917034	See what concerts we have for you in your city.	See what concerts we have for you in your city.	138536725	1475708874481	1475708874605	c	67
272115	2917034	See what concerts we have for you in your city.	See what concerts we have for you in your city.	138536726	1475708874593	1475708874712	e	69
272115	2917034	See what concerts we have for you in your city.	See what concerts we have for you in your city.	138536727	1475708874759	1475708874879	r	82
272115	2917034	See what concerts we have for you in your city.	See what concerts we have for you in your city.	138536728	1475708874941	1475708875046	t	84
272115	2917034	See what concerts we have for you in your city.	See what concerts we have for you in your city.	138536744	1475708875084	1475708875195	s	83
272115	2917034	See what concerts we have for you in your city.	See what concerts we have for you in your city.	138536746	1475708875211	1475708875326	 	32
272115	2917034	See what concerts we have for you in your city.	See what concerts we have for you in your city.	138536749	1475708875404	1475708875494	w	87
272115	2917034	See what concerts we have for you in your city.	See what concerts we have for you in your city.	138536751	1475708875603	1475708875730	e	69
272115	2917034	See what concerts we have for you in your city.	See what concerts we have for you in your city.	138536753	1475708875745	1475708875844	 	32
272115	2917034	See what concerts we have for you in your city.	See what concerts we have for you in your city.	138536759	1475708875932	1475708876053	h	72
272115	2917034	See what concerts we have for you in your city.	See what concerts we have for you in your city.	138536760	1475708876016	1475708876144	a	65
272115	2917034	See what concerts we have for you in your city.	See what concerts we have for you in your city.	138536761	1475708876175	1475708876281	v	86
272115	2917034	See what concerts we have for you in your city.	See what concerts we have for you in your city.	138536762	1475708876312	1475708876414	e	69
272115	2917034	See what concerts we have for you in your city.	See what concerts we have for you in your city.	138536764	1475708876414	1475708876527	 	32
272115	2917034	See what concerts we have for you in your city.	See what concerts we have for you in your city.	138536792	1475708876835	1475708876951	f	70
272115	2917034	See what concerts we have for you in your city.	See what concerts we have for you in your city.	138536794	1475708876900	1475708876983	o	79
272115	2917034	See what concerts we have for you in your city.	See what concerts we have for you in your city.	138536798	1475708877029	1475708877149	r	82
272115	2917034	See what concerts we have for you in your city.	See what concerts we have for you in your city.	138536796	1475708877098	1475708877149	 	32
272115	2917034	See what concerts we have for you in your city.	See what concerts we have for you in your city.	138536800	1475708877290	1475708877396	y	89
272115	2917034	See what concerts we have for you in your city.	See what concerts we have for you in your city.	138536820	1475708877349	1475708877575	o	79
272115	2917034	See what concerts we have for you in your city.	See what concerts we have for you in your city.	138536822	1475708877557	1475708877743	u	85
272115	2917034	See what concerts we have for you in your city.	See what concerts we have for you in your city.	138536824	1475708877727	1475708877861	 	32
272115	2917034	See what concerts we have for you in your city.	See what concerts we have for you in your city.	138536825	1475708877938	1475708878044	i	222
272115	2917034	See what concerts we have for you in your city.	See what concerts we have for you in your city.	138536826	1475708878216	1475708878346	n	78
272115	2917034	See what concerts we have for you in your city.	See what concerts we have for you in your city.	138536858	1475708878279	1475708878419	 	32
272115	2917034	See what concerts we have for you in your city.	See what concerts we have for you in your city.	138536861	1475708879085	1475708879218	y	89
272115	2917034	See what concerts we have for you in your city.	See what concerts we have for you in your city.	138536863	1475708879180	1475708879319	o	79
272115	2917034	See what concerts we have for you in your city.	See what concerts we have for you in your city.	138536865	1475708879277	1475708879416	u	85
272115	2917034	See what concerts we have for you in your city.	See what concerts we have for you in your city.	138536869	1475708879378	1475708879504	r	82
272115	2917034	See what concerts we have for you in your city.	See what concerts we have for you in your city.	138536902	1475708879462	1475708879579	 	32
272115	2917034	See what concerts we have for you in your city.	See what concerts we have for you in your city.	138536903	1475708879720	1475708879860	c	67
272115	2917034	See what concerts we have for you in your city.	See what concerts we have for you in your city.	138536904	1475708879858	1475708879896	i	222
272115	2917034	See what concerts we have for you in your city.	See what concerts we have for you in your city.	138536905	1475708879959	1475708880060	t	84
272115	2917034	See what concerts we have for you in your city.	See what concerts we have for you in your city.	138536906	1475708880076	1475708880147	y	89
272115	2917038	The aviation college had already trained pilots.	The aviation college had already trained pilots.	138536966	1475708882021	1475708882427	SHIFT	16
272115	2917038	The aviation college had already trained pilots.	The aviation college had already trained pilots.	138536967	1475708882339	1475708882474	T	84
272115	2917038	The aviation college had already trained pilots.	The aviation college had already trained pilots.	138536968	1475708882615	1475708882711	e	69
272115	2917038	The aviation college had already trained pilots.	The aviation college had already trained pilots.	138536969	1475708882946	1475708883011	BKSP	8
272115	2917038	The aviation college had already trained pilots.	The aviation college had already trained pilots.	138536970	1475708883079	1475708883148	BKSP	8
272115	2917038	The aviation college had already trained pilots.	The aviation college had already trained pilots.	138536972	1475708883586	1475708883731	SHIFT	16
272115	2917038	The aviation college had already trained pilots.	The aviation college had already trained pilots.	138536975	1475708883666	1475708883747	T	84
272115	2917038	The aviation college had already trained pilots.	The aviation college had already trained pilots.	138536978	1475708883888	1475708883958	h	72
272115	2917038	The aviation college had already trained pilots.	The aviation college had already trained pilots.	138537010	1475708883948	1475708884061	e	69
272115	2917038	The aviation college had already trained pilots.	The aviation college had already trained pilots.	138537013	1475708884077	1475708884210	 	32
272115	2917038	The aviation college had already trained pilots.	The aviation college had already trained pilots.	138537016	1475708884742	1475708884890	a	65
272115	2917038	The aviation college had already trained pilots.	The aviation college had already trained pilots.	138537018	1475708884984	1475708885128	v	86
272115	2917038	The aviation college had already trained pilots.	The aviation college had already trained pilots.	138537021	1475708885095	1475708885211	i	222
272115	2917038	The aviation college had already trained pilots.	The aviation college had already trained pilots.	138537024	1475708885258	1475708885362	t	84
272115	2917038	The aviation college had already trained pilots.	The aviation college had already trained pilots.	138537099	1475708885880	1475708886008	a	65
272115	2917038	The aviation college had already trained pilots.	The aviation college had already trained pilots.	138537100	1475708886243	1475708886300	BKSP	8
272115	2917038	The aviation college had already trained pilots.	The aviation college had already trained pilots.	138537101	1475708886347	1475708886414	BKSP	8
272115	2917038	The aviation college had already trained pilots.	The aviation college had already trained pilots.	138537102	1475708887149	1475708887274	a	65
272115	2917038	The aviation college had already trained pilots.	The aviation college had already trained pilots.	138537103	1475708887415	1475708887548	t	84
272115	2917038	The aviation college had already trained pilots.	The aviation college had already trained pilots.	138537104	1475708887528	1475708887659	i	222
272115	2917038	The aviation college had already trained pilots.	The aviation college had already trained pilots.	138537106	1475708887675	1475708887869	o	79
272115	2917038	The aviation college had already trained pilots.	The aviation college had already trained pilots.	138537149	1475708887826	1475708887960	n	78
272115	2917038	The aviation college had already trained pilots.	The aviation college had already trained pilots.	138537151	1475708888303	1475708888416	 	32
272115	2917038	The aviation college had already trained pilots.	The aviation college had already trained pilots.	138537155	1475708888526	1475708888639	c	67
272115	2917038	The aviation college had already trained pilots.	The aviation college had already trained pilots.	138537157	1475708888613	1475708888712	o	79
272115	2917038	The aviation college had already trained pilots.	The aviation college had already trained pilots.	138537160	1475708888759	1475708888845	l	76
272115	2917038	The aviation college had already trained pilots.	The aviation college had already trained pilots.	138537163	1475708888892	1475708888996	l	76
272115	2917038	The aviation college had already trained pilots.	The aviation college had already trained pilots.	138537186	1475708889119	1475708889210	e	69
272115	2917038	The aviation college had already trained pilots.	The aviation college had already trained pilots.	138537192	1475708889226	1475708889323	g	71
272115	2917038	The aviation college had already trained pilots.	The aviation college had already trained pilots.	138537199	1475708889386	1475708889492	e	69
272115	2917038	The aviation college had already trained pilots.	The aviation college had already trained pilots.	138537205	1475708889481	1475708889611	 	32
272115	2917038	The aviation college had already trained pilots.	The aviation college had already trained pilots.	138537210	1475708889845	1475708889931	h	72
272115	2917038	The aviation college had already trained pilots.	The aviation college had already trained pilots.	138537224	1475708890022	1475708890204	a	65
272115	2917038	The aviation college had already trained pilots.	The aviation college had already trained pilots.	138537225	1475708890235	1475708890361	d	68
272115	2917038	The aviation college had already trained pilots.	The aviation college had already trained pilots.	138537226	1475708890377	1475708890479	 	32
272115	2917038	The aviation college had already trained pilots.	The aviation college had already trained pilots.	138537227	1475708890461	1475708890624	a	65
272115	2917038	The aviation college had already trained pilots.	The aviation college had already trained pilots.	138537228	1475708890640	1475708890776	?	186
272115	2917038	The aviation college had already trained pilots.	The aviation college had already trained pilots.	138537247	1475708890854	1475708890990	r	82
272115	2917038	The aviation college had already trained pilots.	The aviation college had already trained pilots.	138537249	1475708890946	1475708891061	e	69
272115	2917038	The aviation college had already trained pilots.	The aviation college had already trained pilots.	138537251	1475708891155	1475708891275	a	65
272115	2917038	The aviation college had already trained pilots.	The aviation college had already trained pilots.	138537253	1475708891368	1475708891493	d	68
272115	2917038	The aviation college had already trained pilots.	The aviation college had already trained pilots.	138537343	1475708891461	1475708891623	y	89
272115	2917038	The aviation college had already trained pilots.	The aviation college had already trained pilots.	138537345	1475708891623	1475708891752	 	32
272115	2917038	The aviation college had already trained pilots.	The aviation college had already trained pilots.	138537347	1475708891921	1475708891997	BKSP	8
272115	2917038	The aviation college had already trained pilots.	The aviation college had already trained pilots.	138537350	1475708892075	1475708892131	BKSP	8
272115	2917038	The aviation college had already trained pilots.	The aviation college had already trained pilots.	138537352	1475708892225	1475708892273	BKSP	8
272115	2917038	The aviation college had already trained pilots.	The aviation college had already trained pilots.	138537354	1475708892344	1475708892399	BKSP	8
272115	2917038	The aviation college had already trained pilots.	The aviation college had already trained pilots.	138537358	1475708892485	1475708892531	BKSP	8
272115	2917038	The aviation college had already trained pilots.	The aviation college had already trained pilots.	138537362	1475708892626	1475708892679	BKSP	8
272115	2917038	The aviation college had already trained pilots.	The aviation college had already trained pilots.	138537366	1475708892788	1475708892863	BKSP	8
272115	2917038	The aviation college had already trained pilots.	The aviation college had already trained pilots.	138537371	1475708893169	1475708893247	l	76
272115	2917038	The aviation college had already trained pilots.	The aviation college had already trained pilots.	138537375	1475708893419	1475708893573	r	82
272115	2917038	The aviation college had already trained pilots.	The aviation college had already trained pilots.	138537379	1475708893543	1475708893613	e	69
272115	2917038	The aviation college had already trained pilots.	The aviation college had already trained pilots.	138537383	1475708893737	1475708893860	a	65
272115	2917038	The aviation college had already trained pilots.	The aviation college had already trained pilots.	138537398	1475708893903	1475708894054	d	68
272115	2917038	The aviation college had already trained pilots.	The aviation college had already trained pilots.	138537399	1475708894028	1475708894130	y	89
272115	2917038	The aviation college had already trained pilots.	The aviation college had already trained pilots.	138537400	1475708894489	1475708894609	 	32
272115	2917038	The aviation college had already trained pilots.	The aviation college had already trained pilots.	138537401	1475708894843	1475708894930	t	84
272115	2917038	The aviation college had already trained pilots.	The aviation college had already trained pilots.	138537402	1475708895008	1475708895110	r	82
272115	2917038	The aviation college had already trained pilots.	The aviation college had already trained pilots.	138537424	1475708895251	1475708895394	a	65
272115	2917038	The aviation college had already trained pilots.	The aviation college had already trained pilots.	138537425	1475708895312	1475708895426	i	222
272115	2917038	The aviation college had already trained pilots.	The aviation college had already trained pilots.	138537426	1475708895551	1475708895632	n	78
272115	2917038	The aviation college had already trained pilots.	The aviation college had already trained pilots.	138537427	1475708895647	1475708895827	e	69
272115	2917038	The aviation college had already trained pilots.	The aviation college had already trained pilots.	138537448	1475708895762	1475708895921	d	68
272115	2917038	The aviation college had already trained pilots.	The aviation college had already trained pilots.	138537453	1475708895952	1475708896077	 	32
272115	2917038	The aviation college had already trained pilots.	The aviation college had already trained pilots.	138537457	1475708896518	1475708896658	p	80
272115	2917038	The aviation college had already trained pilots.	The aviation college had already trained pilots.	138537460	1475708896658	1475708896825	i	222
272115	2917038	The aviation college had already trained pilots.	The aviation college had already trained pilots.	138537463	1475708896810	1475708896925	l	76
272115	2917038	The aviation college had already trained pilots.	The aviation college had already trained pilots.	138537466	1475708896972	1475708897115	o	79
272115	2917038	The aviation college had already trained pilots.	The aviation college had already trained pilots.	138537477	1475708897087	1475708897179	t	84
272115	2917038	The aviation college had already trained pilots.	The aviation college had already trained pilots.	138537480	1475708897304	1475708897462	s	83
272115	2917060	I hope he is having a fantastic time.	I hope he is having a fantastic time.	138538085	1475708914502	1475708914863	SHIFT	16
272115	2917060	I hope he is having a fantastic time.	I hope he is having a fantastic time.	138538086	1475708914783	1475708914926	I	73
272115	2917060	I hope he is having a fantastic time.	I hope he is having a fantastic time.	138538087	1475708915024	1475708915158	 	32
272115	2917060	I hope he is having a fantastic time.	I hope he is having a fantastic time.	138538088	1475708915361	1475708915475	h	72
272115	2917060	I hope he is having a fantastic time.	I hope he is having a fantastic time.	138538089	1475708915491	1475708915626	o	79
272115	2917060	I hope he is having a fantastic time.	I hope he is having a fantastic time.	138538112	1475708915578	1475708915734	p	80
272115	2917060	I hope he is having a fantastic time.	I hope he is having a fantastic time.	138538115	1475708915709	1475708915843	e	69
272115	2917060	I hope he is having a fantastic time.	I hope he is having a fantastic time.	138538119	1475708915874	1475708916007	 	32
272115	2917060	I hope he is having a fantastic time.	I hope he is having a fantastic time.	138538123	1475708916541	1475708916631	h	72
272115	2917060	I hope he is having a fantastic time.	I hope he is having a fantastic time.	138538126	1475708916598	1475708916728	e	69
272115	2917060	I hope he is having a fantastic time.	I hope he is having a fantastic time.	138538147	1475708916659	1475708916740	 	32
272115	2917060	I hope he is having a fantastic time.	I hope he is having a fantastic time.	138538150	1475708916818	1475708916978	i	222
272115	2917060	I hope he is having a fantastic time.	I hope he is having a fantastic time.	138538153	1475708916978	1475708917108	s	83
272115	2917060	I hope he is having a fantastic time.	I hope he is having a fantastic time.	138538155	1475708917075	1475708917211	 	32
272115	2917060	I hope he is having a fantastic time.	I hope he is having a fantastic time.	138538157	1475708917415	1475708917524	h	72
272115	2917060	I hope he is having a fantastic time.	I hope he is having a fantastic time.	138538158	1475708917544	1475708917627	a	65
272115	2917060	I hope he is having a fantastic time.	I hope he is having a fantastic time.	138538183	1475708917877	1475708917995	v	86
272115	2917060	I hope he is having a fantastic time.	I hope he is having a fantastic time.	138538185	1475708918011	1475708918125	i	222
272115	2917060	I hope he is having a fantastic time.	I hope he is having a fantastic time.	138538189	1475708918251	1475708918327	n	78
272115	2917060	I hope he is having a fantastic time.	I hope he is having a fantastic time.	138538190	1475708918327	1475708918430	g	71
272115	2917060	I hope he is having a fantastic time.	I hope he is having a fantastic time.	138538191	1475708918461	1475708918577	 	32
272115	2917060	I hope he is having a fantastic time.	I hope he is having a fantastic time.	138538206	1475708918805	1475708918893	a	65
272115	2917060	I hope he is having a fantastic time.	I hope he is having a fantastic time.	138538208	1475708918940	1475708919037	 	32
272115	2917060	I hope he is having a fantastic time.	I hope he is having a fantastic time.	138538211	1475708919130	1475708919284	f	70
272115	2917060	I hope he is having a fantastic time.	I hope he is having a fantastic time.	138538213	1475708919256	1475708919412	a	65
272115	2917060	I hope he is having a fantastic time.	I hope he is having a fantastic time.	138538233	1475708919328	1475708919440	n	78
272115	2917060	I hope he is having a fantastic time.	I hope he is having a fantastic time.	138538234	1475708919628	1475708919706	t	84
272115	2917060	I hope he is having a fantastic time.	I hope he is having a fantastic time.	138538236	1475708919658	1475708919849	a	65
272115	2917060	I hope he is having a fantastic time.	I hope he is having a fantastic time.	138538238	1475708919805	1475708919955	s	83
272115	2917060	I hope he is having a fantastic time.	I hope he is having a fantastic time.	138538240	1475708920341	1475708920394	t	84
272115	2917060	I hope he is having a fantastic time.	I hope he is having a fantastic time.	138538243	1475708920456	1475708920574	i	222
272115	2917060	I hope he is having a fantastic time.	I hope he is having a fantastic time.	138538255	1475708920634	1475708920757	c	67
272115	2917060	I hope he is having a fantastic time.	I hope he is having a fantastic time.	138538256	1475708920728	1475708920844	 	32
272115	2917060	I hope he is having a fantastic time.	I hope he is having a fantastic time.	138538257	1475708921032	1475708921159	t	84
272115	2917060	I hope he is having a fantastic time.	I hope he is having a fantastic time.	138538258	1475708921159	1475708921344	i	222
272115	2917060	I hope he is having a fantastic time.	I hope he is having a fantastic time.	138538266	1475708921309	1475708921395	m	77
272115	2917060	I hope he is having a fantastic time.	I hope he is having a fantastic time.	138538269	1475708921411	1475708921541	e	69
272115	2917060	I hope he is having a fantastic time.	I hope he is having a fantastic time.	138538272	1475708921651	1475708921758	.	190
272115	2917063	Juppe described Emile Jonassaint as a puppet with no legitimacy.	Juppe described Emile Jonassaint as a puppet with no legitimacy.	138538324	1475708923225	1475708923935	SHIFT	16
272115	2917063	Juppe described Emile Jonassaint as a puppet with no legitimacy.	Juppe described Emile Jonassaint as a puppet with no legitimacy.	138538321	1475708923610	1475708923720	H	72
272115	2917063	Juppe described Emile Jonassaint as a puppet with no legitimacy.	Juppe described Emile Jonassaint as a puppet with no legitimacy.	138538327	1475708924107	1475708924179	BKSP	8
272115	2917063	Juppe described Emile Jonassaint as a puppet with no legitimacy.	Juppe described Emile Jonassaint as a puppet with no legitimacy.	138538330	1475708924382	1475708924578	SHIFT	16
272115	2917063	Juppe described Emile Jonassaint as a puppet with no legitimacy.	Juppe described Emile Jonassaint as a puppet with no legitimacy.	138538333	1475708924476	1475708924610	J	74
272115	2917063	Juppe described Emile Jonassaint as a puppet with no legitimacy.	Juppe described Emile Jonassaint as a puppet with no legitimacy.	138538336	1475708924724	1475708924843	u	85
272115	2917063	Juppe described Emile Jonassaint as a puppet with no legitimacy.	Juppe described Emile Jonassaint as a puppet with no legitimacy.	138538338	1475708924953	1475708925012	p	80
272115	2917063	Juppe described Emile Jonassaint as a puppet with no legitimacy.	Juppe described Emile Jonassaint as a puppet with no legitimacy.	138538340	1475708925044	1475708925127	p	80
272115	2917063	Juppe described Emile Jonassaint as a puppet with no legitimacy.	Juppe described Emile Jonassaint as a puppet with no legitimacy.	138538353	1475708925185	1475708925324	e	69
272115	2917063	Juppe described Emile Jonassaint as a puppet with no legitimacy.	Juppe described Emile Jonassaint as a puppet with no legitimacy.	138538354	1475708925340	1475708925476	 	32
272115	2917063	Juppe described Emile Jonassaint as a puppet with no legitimacy.	Juppe described Emile Jonassaint as a puppet with no legitimacy.	138538355	1475708925648	1475708925828	d	68
272115	2917063	Juppe described Emile Jonassaint as a puppet with no legitimacy.	Juppe described Emile Jonassaint as a puppet with no legitimacy.	138538356	1475708925758	1475708925906	e	69
272115	2917063	Juppe described Emile Jonassaint as a puppet with no legitimacy.	Juppe described Emile Jonassaint as a puppet with no legitimacy.	138538358	1475708926156	1475708926352	s	83
272115	2917063	Juppe described Emile Jonassaint as a puppet with no legitimacy.	Juppe described Emile Jonassaint as a puppet with no legitimacy.	138538418	1475708926906	1475708926963	BKSP	8
272115	2917063	Juppe described Emile Jonassaint as a puppet with no legitimacy.	Juppe described Emile Jonassaint as a puppet with no legitimacy.	138538420	1475708927832	1475708927957	s	83
272115	2917063	Juppe described Emile Jonassaint as a puppet with no legitimacy.	Juppe described Emile Jonassaint as a puppet with no legitimacy.	138538422	1475708928082	1475708928148	c	67
272115	2917063	Juppe described Emile Jonassaint as a puppet with no legitimacy.	Juppe described Emile Jonassaint as a puppet with no legitimacy.	138538424	1475708928304	1475708928428	r	82
272115	2917063	Juppe described Emile Jonassaint as a puppet with no legitimacy.	Juppe described Emile Jonassaint as a puppet with no legitimacy.	138538426	1475708928410	1475708928525	i	222
272115	2917063	Juppe described Emile Jonassaint as a puppet with no legitimacy.	Juppe described Emile Jonassaint as a puppet with no legitimacy.	138538427	1475708928743	1475708928856	b	66
272115	2917063	Juppe described Emile Jonassaint as a puppet with no legitimacy.	Juppe described Emile Jonassaint as a puppet with no legitimacy.	138538441	1475708928828	1475708929045	e	69
272115	2917063	Juppe described Emile Jonassaint as a puppet with no legitimacy.	Juppe described Emile Jonassaint as a puppet with no legitimacy.	138538444	1475708928958	1475708929107	d	68
272115	2917063	Juppe described Emile Jonassaint as a puppet with no legitimacy.	Juppe described Emile Jonassaint as a puppet with no legitimacy.	138538447	1475708929107	1475708929183	 	32
272115	2917063	Juppe described Emile Jonassaint as a puppet with no legitimacy.	Juppe described Emile Jonassaint as a puppet with no legitimacy.	138538448	1475708929258	1475708929490	SHIFT	16
272115	2917063	Juppe described Emile Jonassaint as a puppet with no legitimacy.	Juppe described Emile Jonassaint as a puppet with no legitimacy.	138538449	1475708929352	1475708929521	E	69
272115	2917063	Juppe described Emile Jonassaint as a puppet with no legitimacy.	Juppe described Emile Jonassaint as a puppet with no legitimacy.	138538450	1475708929552	1475708929675	m	77
272115	2917063	Juppe described Emile Jonassaint as a puppet with no legitimacy.	Juppe described Emile Jonassaint as a puppet with no legitimacy.	138538473	1475708929662	1475708929868	i	222
272115	2917063	Juppe described Emile Jonassaint as a puppet with no legitimacy.	Juppe described Emile Jonassaint as a puppet with no legitimacy.	138538474	1475708929868	1475708930005	l	76
272115	2917063	Juppe described Emile Jonassaint as a puppet with no legitimacy.	Juppe described Emile Jonassaint as a puppet with no legitimacy.	138538475	1475708930052	1475708930199	e	69
272115	2917063	Juppe described Emile Jonassaint as a puppet with no legitimacy.	Juppe described Emile Jonassaint as a puppet with no legitimacy.	138538476	1475708930140	1475708930244	 	32
272115	2917063	Juppe described Emile Jonassaint as a puppet with no legitimacy.	Juppe described Emile Jonassaint as a puppet with no legitimacy.	138538481	1475708930290	1475708930858	SHIFT	16
272115	2917063	Juppe described Emile Jonassaint as a puppet with no legitimacy.	Juppe described Emile Jonassaint as a puppet with no legitimacy.	138538478	1475708930731	1475708930827	J	74
272115	2917063	Juppe described Emile Jonassaint as a puppet with no legitimacy.	Juppe described Emile Jonassaint as a puppet with no legitimacy.	138538484	1475708930999	1475708931092	o	79
272115	2917063	Juppe described Emile Jonassaint as a puppet with no legitimacy.	Juppe described Emile Jonassaint as a puppet with no legitimacy.	138538508	1475708931216	1475708931308	n	78
272115	2917063	Juppe described Emile Jonassaint as a puppet with no legitimacy.	Juppe described Emile Jonassaint as a puppet with no legitimacy.	138538510	1475708931339	1475708931523	a	65
272115	2917063	Juppe described Emile Jonassaint as a puppet with no legitimacy.	Juppe described Emile Jonassaint as a puppet with no legitimacy.	138538512	1475708931555	1475708931644	s	83
272115	2917063	Juppe described Emile Jonassaint as a puppet with no legitimacy.	Juppe described Emile Jonassaint as a puppet with no legitimacy.	138538514	1475708931707	1475708931826	s	83
272115	2917063	Juppe described Emile Jonassaint as a puppet with no legitimacy.	Juppe described Emile Jonassaint as a puppet with no legitimacy.	138538515	1475708931935	1475708932107	a	65
272115	2917063	Juppe described Emile Jonassaint as a puppet with no legitimacy.	Juppe described Emile Jonassaint as a puppet with no legitimacy.	138538538	1475708932180	1475708932283	i	222
272115	2917063	Juppe described Emile Jonassaint as a puppet with no legitimacy.	Juppe described Emile Jonassaint as a puppet with no legitimacy.	138538539	1475708932408	1475708932501	n	78
272115	2917063	Juppe described Emile Jonassaint as a puppet with no legitimacy.	Juppe described Emile Jonassaint as a puppet with no legitimacy.	138538540	1475708932516	1475708932628	t	84
272115	2917063	Juppe described Emile Jonassaint as a puppet with no legitimacy.	Juppe described Emile Jonassaint as a puppet with no legitimacy.	138538541	1475708932659	1475708932790	 	32
272115	2917063	Juppe described Emile Jonassaint as a puppet with no legitimacy.	Juppe described Emile Jonassaint as a puppet with no legitimacy.	138538542	1475708932978	1475708933094	a	65
272115	2917063	Juppe described Emile Jonassaint as a puppet with no legitimacy.	Juppe described Emile Jonassaint as a puppet with no legitimacy.	138538573	1475708933185	1475708933278	s	83
272115	2917063	Juppe described Emile Jonassaint as a puppet with no legitimacy.	Juppe described Emile Jonassaint as a puppet with no legitimacy.	138538576	1475708933278	1475708933364	 	32
272115	2917063	Juppe described Emile Jonassaint as a puppet with no legitimacy.	Juppe described Emile Jonassaint as a puppet with no legitimacy.	138538579	1475708933411	1475708933541	a	65
272115	2917063	Juppe described Emile Jonassaint as a puppet with no legitimacy.	Juppe described Emile Jonassaint as a puppet with no legitimacy.	138538581	1475708933541	1475708933645	 	32
272115	2917063	Juppe described Emile Jonassaint as a puppet with no legitimacy.	Juppe described Emile Jonassaint as a puppet with no legitimacy.	138538583	1475708934104	1475708934225	p	80
272115	2917063	Juppe described Emile Jonassaint as a puppet with no legitimacy.	Juppe described Emile Jonassaint as a puppet with no legitimacy.	138538600	1475708934378	1475708934444	u	85
272115	2917063	Juppe described Emile Jonassaint as a puppet with no legitimacy.	Juppe described Emile Jonassaint as a puppet with no legitimacy.	138538601	1475708934554	1475708934625	p	80
272115	2917063	Juppe described Emile Jonassaint as a puppet with no legitimacy.	Juppe described Emile Jonassaint as a puppet with no legitimacy.	138538602	1475708934704	1475708934795	p	80
272115	2917063	Juppe described Emile Jonassaint as a puppet with no legitimacy.	Juppe described Emile Jonassaint as a puppet with no legitimacy.	138538603	1475708934826	1475708934957	e	69
272115	2917063	Juppe described Emile Jonassaint as a puppet with no legitimacy.	Juppe described Emile Jonassaint as a puppet with no legitimacy.	138538604	1475708935098	1475708935207	t	84
272115	2917063	Juppe described Emile Jonassaint as a puppet with no legitimacy.	Juppe described Emile Jonassaint as a puppet with no legitimacy.	138538623	1475708935266	1475708935394	 	32
272115	2917063	Juppe described Emile Jonassaint as a puppet with no legitimacy.	Juppe described Emile Jonassaint as a puppet with no legitimacy.	138538625	1475708935691	1475708935821	w	87
272115	2917063	Juppe described Emile Jonassaint as a puppet with no legitimacy.	Juppe described Emile Jonassaint as a puppet with no legitimacy.	138538628	1475708935794	1475708935908	i	222
272115	2917063	Juppe described Emile Jonassaint as a puppet with no legitimacy.	Juppe described Emile Jonassaint as a puppet with no legitimacy.	138538629	1475708935955	1475708936075	t	84
272115	2917063	Juppe described Emile Jonassaint as a puppet with no legitimacy.	Juppe described Emile Jonassaint as a puppet with no legitimacy.	138538630	1475708936168	1475708936275	h	72
272115	2917063	Juppe described Emile Jonassaint as a puppet with no legitimacy.	Juppe described Emile Jonassaint as a puppet with no legitimacy.	138538680	1475708936430	1475708936542	 	32
272115	2917063	Juppe described Emile Jonassaint as a puppet with no legitimacy.	Juppe described Emile Jonassaint as a puppet with no legitimacy.	138538681	1475708936682	1475708936793	n	78
272115	2917063	Juppe described Emile Jonassaint as a puppet with no legitimacy.	Juppe described Emile Jonassaint as a puppet with no legitimacy.	138538683	1475708936775	1475708936924	o	79
272115	2917063	Juppe described Emile Jonassaint as a puppet with no legitimacy.	Juppe described Emile Jonassaint as a puppet with no legitimacy.	138538687	1475708936971	1475708937091	 	32
272115	2917063	Juppe described Emile Jonassaint as a puppet with no legitimacy.	Juppe described Emile Jonassaint as a puppet with no legitimacy.	138538690	1475708937594	1475708937693	l	76
272115	2917063	Juppe described Emile Jonassaint as a puppet with no legitimacy.	Juppe described Emile Jonassaint as a puppet with no legitimacy.	138538727	1475708937740	1475708937874	e	69
272115	2917063	Juppe described Emile Jonassaint as a puppet with no legitimacy.	Juppe described Emile Jonassaint as a puppet with no legitimacy.	138538730	1475708937999	1475708938129	g	71
272115	2917063	Juppe described Emile Jonassaint as a puppet with no legitimacy.	Juppe described Emile Jonassaint as a puppet with no legitimacy.	138538732	1475708938107	1475708938255	i	222
272115	2917063	Juppe described Emile Jonassaint as a puppet with no legitimacy.	Juppe described Emile Jonassaint as a puppet with no legitimacy.	138538733	1475708938791	1475708938920	t	84
272115	2917063	Juppe described Emile Jonassaint as a puppet with no legitimacy.	Juppe described Emile Jonassaint as a puppet with no legitimacy.	138538776	1475708938909	1475708939037	i	222
272115	2917063	Juppe described Emile Jonassaint as a puppet with no legitimacy.	Juppe described Emile Jonassaint as a puppet with no legitimacy.	138538778	1475708939147	1475708939234	m	77
272115	2917063	Juppe described Emile Jonassaint as a puppet with no legitimacy.	Juppe described Emile Jonassaint as a puppet with no legitimacy.	138538780	1475708939210	1475708939357	a	65
272115	2917063	Juppe described Emile Jonassaint as a puppet with no legitimacy.	Juppe described Emile Jonassaint as a puppet with no legitimacy.	138538782	1475708939466	1475708939575	c	67
272115	2917063	Juppe described Emile Jonassaint as a puppet with no legitimacy.	Juppe described Emile Jonassaint as a puppet with no legitimacy.	138538784	1475708939591	1475708939660	y	89
272115	2917076	I will be taking the first week in December off, though.	I will be taking the first week in December off, though.	138538852	1475708941810	1475708942124	SHIFT	16
272115	2917076	I will be taking the first week in December off, though.	I will be taking the first week in December off, though.	138538854	1475708942070	1475708942228	I	73
272115	2917076	I will be taking the first week in December off, though.	I will be taking the first week in December off, though.	138538855	1475708942191	1475708942310	 	32
272115	2917076	I will be taking the first week in December off, though.	I will be taking the first week in December off, though.	138538856	1475708942292	1475708942482	w	87
272115	2917076	I will be taking the first week in December off, though.	I will be taking the first week in December off, though.	138538857	1475708942409	1475708942537	i	222
272115	2917076	I will be taking the first week in December off, though.	I will be taking the first week in December off, though.	138538871	1475708942527	1475708942593	l	76
272115	2917076	I will be taking the first week in December off, though.	I will be taking the first week in December off, though.	138538873	1475708942656	1475708942775	l	76
272115	2917076	I will be taking the first week in December off, though.	I will be taking the first week in December off, though.	138538875	1475708942775	1475708942875	 	32
272115	2917076	I will be taking the first week in December off, though.	I will be taking the first week in December off, though.	138538877	1475708942984	1475708943110	b	66
272115	2917076	I will be taking the first week in December off, though.	I will be taking the first week in December off, though.	138538879	1475708943075	1475708943146	e	69
272115	2917076	I will be taking the first week in December off, though.	I will be taking the first week in December off, though.	138538881	1475708943162	1475708943218	 	32
272115	2917076	I will be taking the first week in December off, though.	I will be taking the first week in December off, though.	138538895	1475708943375	1475708943476	t	84
272115	2917076	I will be taking the first week in December off, though.	I will be taking the first week in December off, though.	138538897	1475708943507	1475708943624	a	65
272115	2917076	I will be taking the first week in December off, though.	I will be taking the first week in December off, though.	138538899	1475708943687	1475708943827	k	75
272115	2917076	I will be taking the first week in December off, though.	I will be taking the first week in December off, though.	138538901	1475708943759	1475708943890	i	222
272115	2917076	I will be taking the first week in December off, though.	I will be taking the first week in December off, though.	138538903	1475708943968	1475708944091	n	78
272115	2917076	I will be taking the first week in December off, though.	I will be taking the first week in December off, though.	138538922	1475708944059	1475708944215	g	71
272115	2917076	I will be taking the first week in December off, though.	I will be taking the first week in December off, though.	138538923	1475708944158	1475708944337	 	32
272115	2917076	I will be taking the first week in December off, though.	I will be taking the first week in December off, though.	138538925	1475708944681	1475708944782	t	84
272115	2917076	I will be taking the first week in December off, though.	I will be taking the first week in December off, though.	138538927	1475708944761	1475708944863	h	72
272115	2917076	I will be taking the first week in December off, though.	I will be taking the first week in December off, though.	138538929	1475708944842	1475708944980	e	69
272115	2917076	I will be taking the first week in December off, though.	I will be taking the first week in December off, though.	138538941	1475708944927	1475708945039	 	32
272115	2917076	I will be taking the first week in December off, though.	I will be taking the first week in December off, though.	138538943	1475708945086	1475708945205	f	70
272115	2917076	I will be taking the first week in December off, though.	I will be taking the first week in December off, though.	138538946	1475708945177	1475708945308	i	222
272115	2917076	I will be taking the first week in December off, though.	I will be taking the first week in December off, though.	138538949	1475708945308	1475708945410	r	82
272115	2917076	I will be taking the first week in December off, though.	I will be taking the first week in December off, though.	138538952	1475708945525	1475708945675	s	83
272115	2917076	I will be taking the first week in December off, though.	I will be taking the first week in December off, though.	138538963	1475708945639	1475708945751	t	84
272115	2917076	I will be taking the first week in December off, though.	I will be taking the first week in December off, though.	138538965	1475708945798	1475708945939	 	32
272115	2917076	I will be taking the first week in December off, though.	I will be taking the first week in December off, though.	138538967	1475708946111	1475708946241	w	87
272115	2917076	I will be taking the first week in December off, though.	I will be taking the first week in December off, though.	138538969	1475708946350	1475708946428	e	69
272115	2917076	I will be taking the first week in December off, though.	I will be taking the first week in December off, though.	138538971	1475708946474	1475708946611	e	69
272115	2917076	I will be taking the first week in December off, though.	I will be taking the first week in December off, though.	138539009	1475708946558	1475708946712	k	75
272115	2917076	I will be taking the first week in December off, though.	I will be taking the first week in December off, though.	138539012	1475708946653	1475708946775	 	32
272115	2917076	I will be taking the first week in December off, though.	I will be taking the first week in December off, though.	138539015	1475708946869	1475708946960	i	222
272115	2917076	I will be taking the first week in December off, though.	I will be taking the first week in December off, though.	138539018	1475708947101	1475708947228	n	78
272115	2917076	I will be taking the first week in December off, though.	I will be taking the first week in December off, though.	138539021	1475708947179	1475708947306	 	32
272115	2917076	I will be taking the first week in December off, though.	I will be taking the first week in December off, though.	138539024	1475708947827	1475708948044	SHIFT	16
272115	2917076	I will be taking the first week in December off, though.	I will be taking the first week in December off, though.	138539035	1475708947952	1475708948072	D	68
272115	2917076	I will be taking the first week in December off, though.	I will be taking the first week in December off, though.	138539037	1475708948212	1475708948339	e	69
272115	2917076	I will be taking the first week in December off, though.	I will be taking the first week in December off, though.	138539039	1475708948355	1475708948489	c	67
272115	2917076	I will be taking the first week in December off, though.	I will be taking the first week in December off, though.	138539041	1475708948475	1475708948608	e	69
272115	2917076	I will be taking the first week in December off, though.	I will be taking the first week in December off, though.	138539043	1475708948639	1475708948726	m	77
272115	2917076	I will be taking the first week in December off, though.	I will be taking the first week in December off, though.	138539046	1475708948851	1475708948948	b	66
272115	2917076	I will be taking the first week in December off, though.	I will be taking the first week in December off, though.	138539072	1475708948919	1475708949096	e	69
272115	2917076	I will be taking the first week in December off, though.	I will be taking the first week in December off, though.	138539075	1475708949043	1475708949197	r	82
272115	2917076	I will be taking the first week in December off, though.	I will be taking the first week in December off, though.	138539078	1475708949174	1475708949292	 	32
272115	2917076	I will be taking the first week in December off, though.	I will be taking the first week in December off, though.	138539080	1475708949433	1475708949526	o	79
272115	2917076	I will be taking the first week in December off, though.	I will be taking the first week in December off, though.	138539085	1475708949541	1475708949593	f	70
272115	2917076	I will be taking the first week in December off, though.	I will be taking the first week in December off, though.	138539094	1475708949672	1475708949793	f	70
272115	2917076	I will be taking the first week in December off, though.	I will be taking the first week in December off, though.	138539146	1475708949912	1475708949974	,	188
272115	2917076	I will be taking the first week in December off, though.	I will be taking the first week in December off, though.	138539149	1475708950591	1475708950707	 	32
272115	2917076	I will be taking the first week in December off, though.	I will be taking the first week in December off, though.	138539152	1475708950894	1475708951006	t	84
272115	2917076	I will be taking the first week in December off, though.	I will be taking the first week in December off, though.	138539156	1475708951412	1475708951521	h	72
272115	2917076	I will be taking the first week in December off, though.	I will be taking the first week in December off, though.	138539201	1475708951492	1475708951623	o	79
272115	2917076	I will be taking the first week in December off, though.	I will be taking the first week in December off, though.	138539204	1475708951638	1475708951712	u	85
272115	2917076	I will be taking the first week in December off, though.	I will be taking the first week in December off, though.	138539209	1475708951837	1475708951912	g	71
272115	2917076	I will be taking the first week in December off, though.	I will be taking the first week in December off, though.	138539210	1475708951943	1475708952028	h	72
272115	2917085	Is that enough for this week?	Is that enough for this week?	138539285	1475708954124	1475708954436	SHIFT	16
272115	2917085	Is that enough for this week?	Is that enough for this week?	138539287	1475708954388	1475708954460	I	73
272115	2917085	Is that enough for this week?	Is that enough for this week?	138539289	1475708954569	1475708954701	s	83
272115	2917085	Is that enough for this week?	Is that enough for this week?	138539291	1475708954645	1475708954725	 	32
272115	2917085	Is that enough for this week?	Is that enough for this week?	138539294	1475708954835	1475708954911	t	84
272115	2917085	Is that enough for this week?	Is that enough for this week?	138539297	1475708954989	1475708955111	h	72
272115	2917085	Is that enough for this week?	Is that enough for this week?	138539311	1475708955091	1475708955175	a	65
272115	2917085	Is that enough for this week?	Is that enough for this week?	138539314	1475708955206	1475708955333	t	84
272115	2917085	Is that enough for this week?	Is that enough for this week?	138539316	1475708955310	1475708955427	 	32
272115	2917085	Is that enough for this week?	Is that enough for this week?	138539318	1475708955615	1475708955775	e	69
272115	2917085	Is that enough for this week?	Is that enough for this week?	138539319	1475708955741	1475708955866	n	78
272115	2917085	Is that enough for this week?	Is that enough for this week?	138539336	1475708955843	1475708955957	o	79
272115	2917085	Is that enough for this week?	Is that enough for this week?	138539337	1475708956020	1475708956077	u	85
272115	2917085	Is that enough for this week?	Is that enough for this week?	138539338	1475708956186	1475708956244	g	71
272115	2917085	Is that enough for this week?	Is that enough for this week?	138539339	1475708956338	1475708956424	h	72
272115	2917085	Is that enough for this week?	Is that enough for this week?	138539341	1475708956502	1475708956623	 	32
272115	2917085	Is that enough for this week?	Is that enough for this week?	138539343	1475708956826	1475708956947	f	70
272115	2917085	Is that enough for this week?	Is that enough for this week?	138539380	1475708956926	1475708957010	o	79
272115	2917085	Is that enough for this week?	Is that enough for this week?	138539382	1475708957057	1475708957113	 	84
272115	2917085	Is that enough for this week?	Is that enough for this week?	138539387	1475708957457	1475708957543	BKSP	8
272115	2917085	Is that enough for this week?	Is that enough for this week?	138539388	1475708957814	1475708957908	BKSP	8
272115	2917085	Is that enough for this week?	Is that enough for this week?	138539390	1475708957939	1475708958061	r	82
272115	2917085	Is that enough for this week?	Is that enough for this week?	138539392	1475708958030	1475708958110	 	32
272115	2917085	Is that enough for this week?	Is that enough for this week?	138539394	1475708958188	1475708958302	t	84
272115	2917085	Is that enough for this week?	Is that enough for this week?	138539422	1475708958278	1475708958358	h	72
272115	2917085	Is that enough for this week?	Is that enough for this week?	138539424	1475708958452	1475708958577	i	222
272115	2917085	Is that enough for this week?	Is that enough for this week?	138539426	1475708958560	1475708958677	s	83
272115	2917085	Is that enough for this week?	Is that enough for this week?	138539429	1475708958641	1475708958775	 	32
272115	2917085	Is that enough for this week?	Is that enough for this week?	138539433	1475708958931	1475708959088	w	87
272115	2917085	Is that enough for this week?	Is that enough for this week?	138539436	1475708959150	1475708959226	e	69
272115	2917085	Is that enough for this week?	Is that enough for this week?	138539466	1475708959305	1475708959456	e	69
272115	2917085	Is that enough for this week?	Is that enough for this week?	138539469	1475708959488	1475708959563	k	75
272115	2917085	Is that enough for this week?	Is that enough for this week?	138539472	1475708959750	1475708959918	SHIFT	16
272115	2917085	Is that enough for this week?	Is that enough for this week?	138539475	1475708959907	1475708959974	?	223
272115	2917094	They spent about two hours at Larnaca airport.	They spent about two hours at Larnarca airport.	138539548	1475708961503	1475708961809	SHIFT	16
272115	2917094	They spent about two hours at Larnaca airport.	They spent about two hours at Larnarca airport.	138539551	1475708961722	1475708961824	T	84
272115	2917094	They spent about two hours at Larnaca airport.	They spent about two hours at Larnarca airport.	138539552	1475708961871	1475708962010	h	72
272115	2917094	They spent about two hours at Larnaca airport.	They spent about two hours at Larnarca airport.	138539553	1475708961958	1475708962104	e	69
272115	2917094	They spent about two hours at Larnaca airport.	They spent about two hours at Larnarca airport.	138539554	1475708962150	1475708962228	y	89
272115	2917094	They spent about two hours at Larnaca airport.	They spent about two hours at Larnarca airport.	138539555	1475708962416	1475708962542	 	32
272115	2917094	They spent about two hours at Larnaca airport.	They spent about two hours at Larnarca airport.	138539587	1475708962741	1475708962896	s	83
272115	2917094	They spent about two hours at Larnaca airport.	They spent about two hours at Larnarca airport.	138539588	1475708962855	1475708962943	p	80
272115	2917094	They spent about two hours at Larnaca airport.	They spent about two hours at Larnarca airport.	138539590	1475708963037	1475708963152	e	69
272115	2917094	They spent about two hours at Larnaca airport.	They spent about two hours at Larnarca airport.	138539592	1475708963110	1475708963192	n	78
272115	2917094	They spent about two hours at Larnaca airport.	They spent about two hours at Larnarca airport.	138539594	1475708963270	1475708963380	t	84
272115	2917094	They spent about two hours at Larnaca airport.	They spent about two hours at Larnarca airport.	138539621	1475708963360	1475708963443	 	32
272115	2917094	They spent about two hours at Larnaca airport.	They spent about two hours at Larnarca airport.	138539623	1475708963505	1475708963622	t	84
272115	2917094	They spent about two hours at Larnaca airport.	They spent about two hours at Larnarca airport.	138539625	1475708964073	1475708964158	BKSP	8
272115	2917094	They spent about two hours at Larnaca airport.	They spent about two hours at Larnarca airport.	138539627	1475708964268	1475708964413	a	65
272115	2917094	They spent about two hours at Larnaca airport.	They spent about two hours at Larnarca airport.	138539629	1475708964374	1475708964520	b	66
272115	2917094	They spent about two hours at Larnaca airport.	They spent about two hours at Larnarca airport.	138539631	1475708964475	1475708964674	o	79
272115	2917094	They spent about two hours at Larnaca airport.	They spent about two hours at Larnarca airport.	138539689	1475708964663	1475708964760	u	85
272115	2917094	They spent about two hours at Larnaca airport.	They spent about two hours at Larnarca airport.	138539692	1475708964742	1475708964891	t	84
272115	2917094	They spent about two hours at Larnaca airport.	They spent about two hours at Larnarca airport.	138539696	1475708964937	1475708965027	 	32
272115	2917094	They spent about two hours at Larnaca airport.	They spent about two hours at Larnarca airport.	138539698	1475708965292	1475708965424	w	87
272115	2917094	They spent about two hours at Larnaca airport.	They spent about two hours at Larnarca airport.	138539700	1475708965674	1475708965776	BKSP	8
272115	2917094	They spent about two hours at Larnaca airport.	They spent about two hours at Larnarca airport.	138539701	1475708965759	1475708965887	t	84
272115	2917094	They spent about two hours at Larnaca airport.	They spent about two hours at Larnarca airport.	138539703	1475708965918	1475708966091	w	87
272115	2917094	They spent about two hours at Larnaca airport.	They spent about two hours at Larnarca airport.	138539727	1475708966041	1475708966168	o	79
272115	2917094	They spent about two hours at Larnaca airport.	They spent about two hours at Larnarca airport.	138539730	1475708966199	1475708966324	 	32
272115	2917094	They spent about two hours at Larnaca airport.	They spent about two hours at Larnarca airport.	138539732	1475708966521	1475708966633	h	72
272115	2917094	They spent about two hours at Larnaca airport.	They spent about two hours at Larnarca airport.	138539735	1475708966610	1475708966758	o	79
272115	2917094	They spent about two hours at Larnaca airport.	They spent about two hours at Larnarca airport.	138539737	1475708966739	1475708966855	u	85
272115	2917094	They spent about two hours at Larnaca airport.	They spent about two hours at Larnarca airport.	138539769	1475708966826	1475708966922	r	82
272115	2917094	They spent about two hours at Larnaca airport.	They spent about two hours at Larnarca airport.	138539772	1475708967047	1475708967189	s	83
272115	2917094	They spent about two hours at Larnaca airport.	They spent about two hours at Larnarca airport.	138539774	1475708967189	1475708967307	 	32
272115	2917094	They spent about two hours at Larnaca airport.	They spent about two hours at Larnarca airport.	138539776	1475708967354	1475708967458	a	65
272115	2917094	They spent about two hours at Larnaca airport.	They spent about two hours at Larnarca airport.	138539777	1475708967646	1475708967759	t	84
272115	2917094	They spent about two hours at Larnaca airport.	They spent about two hours at Larnarca airport.	138539817	1475708967726	1475708967843	 	32
272115	2917094	They spent about two hours at Larnaca airport.	They spent about two hours at Larnarca airport.	138539820	1475708967905	1475708968170	SHIFT	16
272115	2917094	They spent about two hours at Larnaca airport.	They spent about two hours at Larnarca airport.	138539822	1475708968140	1475708968234	L	76
272115	2917094	They spent about two hours at Larnaca airport.	They spent about two hours at Larnarca airport.	138539825	1475708968359	1475708968475	a	65
272115	2917094	They spent about two hours at Larnaca airport.	They spent about two hours at Larnarca airport.	138539829	1475708968538	1475708968610	n	78
272115	2917094	They spent about two hours at Larnaca airport.	They spent about two hours at Larnarca airport.	138539833	1475708968657	1475708968756	a	65
272115	2917094	They spent about two hours at Larnaca airport.	They spent about two hours at Larnarca airport.	138539836	1475708968881	1475708969006	r	82
272115	2917094	They spent about two hours at Larnaca airport.	They spent about two hours at Larnarca airport.	138539904	1475708969945	1475708970021	BKSP	8
272115	2917094	They spent about two hours at Larnaca airport.	They spent about two hours at Larnarca airport.	138539905	1475708970092	1475708970174	BKSP	8
272115	2917094	They spent about two hours at Larnaca airport.	They spent about two hours at Larnarca airport.	138539906	1475708970236	1475708970294	BKSP	8
272115	2917094	They spent about two hours at Larnaca airport.	They spent about two hours at Larnarca airport.	138539907	1475708970498	1475708970593	n	78
272115	2917094	They spent about two hours at Larnaca airport.	They spent about two hours at Larnarca airport.	138539908	1475708970810	1475708970895	BKSP	8
272115	2917094	They spent about two hours at Larnaca airport.	They spent about two hours at Larnarca airport.	138539909	1475708970926	1475708971024	r	82
272115	2917094	They spent about two hours at Larnaca airport.	They spent about two hours at Larnarca airport.	138539911	1475708971102	1475708971212	n	78
272115	2917094	They spent about two hours at Larnaca airport.	They spent about two hours at Larnarca airport.	138539915	1475708971192	1475708971305	a	65
272115	2917094	They spent about two hours at Larnaca airport.	They spent about two hours at Larnarca airport.	138539918	1475708971352	1475708971456	r	82
272115	2917094	They spent about two hours at Larnaca airport.	They spent about two hours at Larnarca airport.	138539981	1475708971677	1475708971844	c	67
272115	2917094	They spent about two hours at Larnaca airport.	They spent about two hours at Larnarca airport.	138539984	1475708971789	1475708971907	a	65
272115	2917094	They spent about two hours at Larnaca airport.	They spent about two hours at Larnarca airport.	138539988	1475708972141	1475708972245	 	32
272115	2917094	They spent about two hours at Larnaca airport.	They spent about two hours at Larnarca airport.	138539995	1475708972385	1475708972506	a	65
272115	2917094	They spent about two hours at Larnaca airport.	They spent about two hours at Larnarca airport.	138540001	1475708972882	1475708973004	i	222
272115	2917094	They spent about two hours at Larnaca airport.	They spent about two hours at Larnarca airport.	138540034	1475708973108	1475708973223	r	82
272115	2917094	They spent about two hours at Larnaca airport.	They spent about two hours at Larnarca airport.	138540038	1475708973426	1475708973548	p	80
272115	2917094	They spent about two hours at Larnaca airport.	They spent about two hours at Larnarca airport.	138540040	1475708973524	1475708973626	o	79
272115	2917094	They spent about two hours at Larnaca airport.	They spent about two hours at Larnarca airport.	138540044	1475708973688	1475708973791	r	82
272115	2917094	They spent about two hours at Larnaca airport.	They spent about two hours at Larnarca airport.	138540046	1475708973869	1475708973999	t	84
272115	2917107	Opposition leaders have urged him to call off the visit.	Oppositon leaders have urged him to call off the visit.	138540115	1475708975498	1475708975829	SHIFT	16
272115	2917107	Opposition leaders have urged him to call off the visit.	Oppositon leaders have urged him to call off the visit.	138540117	1475708975768	1475708975891	O	79
272115	2917107	Opposition leaders have urged him to call off the visit.	Oppositon leaders have urged him to call off the visit.	138540120	1475708976079	1475708976176	p	80
272115	2917107	Opposition leaders have urged him to call off the visit.	Oppositon leaders have urged him to call off the visit.	138540123	1475708976254	1475708976373	p	80
272115	2917107	Opposition leaders have urged him to call off the visit.	Oppositon leaders have urged him to call off the visit.	138540126	1475708976466	1475708976573	o	79
272115	2917107	Opposition leaders have urged him to call off the visit.	Oppositon leaders have urged him to call off the visit.	138540129	1475708976667	1475708976837	s	83
272115	2917107	Opposition leaders have urged him to call off the visit.	Oppositon leaders have urged him to call off the visit.	138540145	1475708976847	1475708976972	i	222
272115	2917107	Opposition leaders have urged him to call off the visit.	Oppositon leaders have urged him to call off the visit.	138540148	1475708977003	1475708977093	t	84
272115	2917107	Opposition leaders have urged him to call off the visit.	Oppositon leaders have urged him to call off the visit.	138540151	1475708977124	1475708977292	o	79
272115	2917107	Opposition leaders have urged him to call off the visit.	Oppositon leaders have urged him to call off the visit.	138540155	1475708977244	1475708977459	n	78
272115	2917107	Opposition leaders have urged him to call off the visit.	Oppositon leaders have urged him to call off the visit.	138540193	1475708977437	1475708977555	 	32
272115	2917107	Opposition leaders have urged him to call off the visit.	Oppositon leaders have urged him to call off the visit.	138540194	1475708978059	1475708978142	l	76
272115	2917107	Opposition leaders have urged him to call off the visit.	Oppositon leaders have urged him to call off the visit.	138540196	1475708978173	1475708978279	e	69
272115	2917107	Opposition leaders have urged him to call off the visit.	Oppositon leaders have urged him to call off the visit.	138540198	1475708978405	1475708978538	a	65
272115	2917107	Opposition leaders have urged him to call off the visit.	Oppositon leaders have urged him to call off the visit.	138540201	1475708978663	1475708978808	d	68
272115	2917107	Opposition leaders have urged him to call off the visit.	Oppositon leaders have urged him to call off the visit.	138540251	1475708978728	1475708978900	e	69
272115	2917107	Opposition leaders have urged him to call off the visit.	Oppositon leaders have urged him to call off the visit.	138540253	1475708978883	1475708978991	r	82
272115	2917107	Opposition leaders have urged him to call off the visit.	Oppositon leaders have urged him to call off the visit.	138540254	1475708979116	1475708979261	s	83
272115	2917107	Opposition leaders have urged him to call off the visit.	Oppositon leaders have urged him to call off the visit.	138540255	1475708979308	1475708979412	 	32
272115	2917107	Opposition leaders have urged him to call off the visit.	Oppositon leaders have urged him to call off the visit.	138540256	1475708979551	1475708979610	h	72
272115	2917107	Opposition leaders have urged him to call off the visit.	Oppositon leaders have urged him to call off the visit.	138540257	1475708979720	1475708979839	a	65
272115	2917107	Opposition leaders have urged him to call off the visit.	Oppositon leaders have urged him to call off the visit.	138540270	1475708979850	1475708979927	v	86
272115	2917107	Opposition leaders have urged him to call off the visit.	Oppositon leaders have urged him to call off the visit.	138540273	1475708979974	1475708980096	e	69
272115	2917107	Opposition leaders have urged him to call off the visit.	Oppositon leaders have urged him to call off the visit.	138540278	1475708980057	1475708980176	 	32
272115	2917107	Opposition leaders have urged him to call off the visit.	Oppositon leaders have urged him to call off the visit.	138540283	1475708980429	1475708980510	u	85
272115	2917107	Opposition leaders have urged him to call off the visit.	Oppositon leaders have urged him to call off the visit.	138540287	1475708980588	1475708980708	r	82
272115	2917107	Opposition leaders have urged him to call off the visit.	Oppositon leaders have urged him to call off the visit.	138540306	1475708980720	1475708980809	g	71
272115	2917107	Opposition leaders have urged him to call off the visit.	Oppositon leaders have urged him to call off the visit.	138540308	1475708980792	1475708980992	e	69
272115	2917107	Opposition leaders have urged him to call off the visit.	Oppositon leaders have urged him to call off the visit.	138540311	1475708980939	1475708981117	d	68
272115	2917107	Opposition leaders have urged him to call off the visit.	Oppositon leaders have urged him to call off the visit.	138540314	1475708981164	1475708981290	 	32
272115	2917107	Opposition leaders have urged him to call off the visit.	Oppositon leaders have urged him to call off the visit.	138540317	1475708981556	1475708981690	h	72
272115	2917107	Opposition leaders have urged him to call off the visit.	Oppositon leaders have urged him to call off the visit.	138540325	1475708981641	1475708981836	i	222
272115	2917107	Opposition leaders have urged him to call off the visit.	Oppositon leaders have urged him to call off the visit.	138540326	1475708981796	1475708981971	m	77
272115	2917107	Opposition leaders have urged him to call off the visit.	Oppositon leaders have urged him to call off the visit.	138540328	1475708981954	1475708982090	 	32
272115	2917107	Opposition leaders have urged him to call off the visit.	Oppositon leaders have urged him to call off the visit.	138540331	1475708982075	1475708982189	t	84
272115	2917107	Opposition leaders have urged him to call off the visit.	Oppositon leaders have urged him to call off the visit.	138540337	1475708982221	1475708982370	o	79
272115	2917107	Opposition leaders have urged him to call off the visit.	Oppositon leaders have urged him to call off the visit.	138540363	1475708982324	1475708982475	 	32
272115	2917107	Opposition leaders have urged him to call off the visit.	Oppositon leaders have urged him to call off the visit.	138540365	1475708982457	1475708982648	c	67
272115	2917107	Opposition leaders have urged him to call off the visit.	Oppositon leaders have urged him to call off the visit.	138540367	1475708982613	1475708982711	a	65
272115	2917107	Opposition leaders have urged him to call off the visit.	Oppositon leaders have urged him to call off the visit.	138540368	1475708982661	1475708982726	l	76
272115	2917107	Opposition leaders have urged him to call off the visit.	Oppositon leaders have urged him to call off the visit.	138540369	1475708982804	1475708982917	l	76
272115	2917107	Opposition leaders have urged him to call off the visit.	Oppositon leaders have urged him to call off the visit.	138540418	1475708982892	1475708983023	 	32
272115	2917107	Opposition leaders have urged him to call off the visit.	Oppositon leaders have urged him to call off the visit.	138540419	1475708983117	1475708983223	o	79
272115	2917107	Opposition leaders have urged him to call off the visit.	Oppositon leaders have urged him to call off the visit.	138540420	1475708983223	1475708983310	f	70
272115	2917107	Opposition leaders have urged him to call off the visit.	Oppositon leaders have urged him to call off the visit.	138540421	1475708983388	1475708983508	f	70
272115	2917107	Opposition leaders have urged him to call off the visit.	Oppositon leaders have urged him to call off the visit.	138540422	1475708983523	1475708983641	 	32
272115	2917107	Opposition leaders have urged him to call off the visit.	Oppositon leaders have urged him to call off the visit.	138540423	1475708983938	1475708984027	t	84
272115	2917107	Opposition leaders have urged him to call off the visit.	Oppositon leaders have urged him to call off the visit.	138540443	1475708984058	1475708984141	h	72
272115	2917107	Opposition leaders have urged him to call off the visit.	Oppositon leaders have urged him to call off the visit.	138540448	1475708984157	1475708984257	e	69
272115	2917107	Opposition leaders have urged him to call off the visit.	Oppositon leaders have urged him to call off the visit.	138540452	1475708984226	1475708984327	 	32
272115	2917107	Opposition leaders have urged him to call off the visit.	Oppositon leaders have urged him to call off the visit.	138540456	1475708984483	1475708984590	v	86
272115	2917107	Opposition leaders have urged him to call off the visit.	Oppositon leaders have urged him to call off the visit.	138540459	1475708984637	1475708984744	i	222
272115	2917107	Opposition leaders have urged him to call off the visit.	Oppositon leaders have urged him to call off the visit.	138540477	1475708984724	1475708984867	s	83
272115	2917107	Opposition leaders have urged him to call off the visit.	Oppositon leaders have urged him to call off the visit.	138540482	1475708984824	1475708984907	i	222
272115	2917107	Opposition leaders have urged him to call off the visit.	Oppositon leaders have urged him to call off the visit.	138540486	1475708985001	1475708985127	t	84
272115	2917107	Opposition leaders have urged him to call off the visit.	Oppositon leaders have urged him to call off the visit.	138540489	1475708985074	1475708985207	.	190
272115	2917117	Hours are listed in 24hr format central time.	Hours are listed in 24hr format central time.	138540579	1475708986901	1475708987261	SHIFT	16
272115	2917117	Hours are listed in 24hr format central time.	Hours are listed in 24hr format central time.	138540582	1475708987213	1475708987340	H	72
272115	2917117	Hours are listed in 24hr format central time.	Hours are listed in 24hr format central time.	138540587	1475708987387	1475708987529	o	79
272115	2917117	Hours are listed in 24hr format central time.	Hours are listed in 24hr format central time.	138540591	1475708987506	1475708987638	u	85
272115	2917117	Hours are listed in 24hr format central time.	Hours are listed in 24hr format central time.	138540595	1475708987624	1475708987740	r	82
272115	2917117	Hours are listed in 24hr format central time.	Hours are listed in 24hr format central time.	138540599	1475708987865	1475708988004	s	83
272115	2917117	Hours are listed in 24hr format central time.	Hours are listed in 24hr format central time.	138540612	1475708988049	1475708988173	 	32
272115	2917117	Hours are listed in 24hr format central time.	Hours are listed in 24hr format central time.	138540614	1475708988377	1475708988521	a	65
272115	2917117	Hours are listed in 24hr format central time.	Hours are listed in 24hr format central time.	138540615	1475708988653	1475708988808	r	82
272115	2917117	Hours are listed in 24hr format central time.	Hours are listed in 24hr format central time.	138540616	1475708988742	1475708988914	e	69
272115	2917117	Hours are listed in 24hr format central time.	Hours are listed in 24hr format central time.	138540674	1475708988902	1475708989009	 	32
272115	2917117	Hours are listed in 24hr format central time.	Hours are listed in 24hr format central time.	138540676	1475708989478	1475708989589	l	76
272115	2917117	Hours are listed in 24hr format central time.	Hours are listed in 24hr format central time.	138540678	1475708989543	1475708989697	i	222
272115	2917117	Hours are listed in 24hr format central time.	Hours are listed in 24hr format central time.	138540680	1475708989655	1475708989756	s	83
272115	2917117	Hours are listed in 24hr format central time.	Hours are listed in 24hr format central time.	138540681	1475708989881	1475708990006	t	84
272115	2917117	Hours are listed in 24hr format central time.	Hours are listed in 24hr format central time.	138540682	1475708990014	1475708990257	e	69
272115	2917117	Hours are listed in 24hr format central time.	Hours are listed in 24hr format central time.	138540727	1475708990183	1475708990352	d	68
272115	2917117	Hours are listed in 24hr format central time.	Hours are listed in 24hr format central time.	138540728	1475708990383	1475708990506	 	32
272115	2917117	Hours are listed in 24hr format central time.	Hours are listed in 24hr format central time.	138540729	1475708990787	1475708990912	?	186
272115	2917117	Hours are listed in 24hr format central time.	Hours are listed in 24hr format central time.	138540730	1475708991022	1475708991138	n	78
272115	2917117	Hours are listed in 24hr format central time.	Hours are listed in 24hr format central time.	138540731	1475708991388	1475708991445	BKSP	8
272115	2917117	Hours are listed in 24hr format central time.	Hours are listed in 24hr format central time.	138540732	1475708991508	1475708991558	BKSP	8
272115	2917117	Hours are listed in 24hr format central time.	Hours are listed in 24hr format central time.	138540733	1475708991683	1475708991806	i	222
272115	2917117	Hours are listed in 24hr format central time.	Hours are listed in 24hr format central time.	138540734	1475708991954	1475708992058	n	78
272115	2917117	Hours are listed in 24hr format central time.	Hours are listed in 24hr format central time.	138540780	1475708992010	1475708992117	 	32
272115	2917117	Hours are listed in 24hr format central time.	Hours are listed in 24hr format central time.	138540782	1475708992242	1475708992389	2	50
272115	2917117	Hours are listed in 24hr format central time.	Hours are listed in 24hr format central time.	138540783	1475708993356	1475708993456	4	52
272115	2917117	Hours are listed in 24hr format central time.	Hours are listed in 24hr format central time.	138540784	1475708993550	1475708993642	h	72
272115	2917117	Hours are listed in 24hr format central time.	Hours are listed in 24hr format central time.	138540785	1475708993767	1475708993906	r	82
272115	2917117	Hours are listed in 24hr format central time.	Hours are listed in 24hr format central time.	138540786	1475708994156	1475708994274	 	32
272115	2917117	Hours are listed in 24hr format central time.	Hours are listed in 24hr format central time.	138540810	1475708994410	1475708994541	f	70
272115	2917117	Hours are listed in 24hr format central time.	Hours are listed in 24hr format central time.	138540813	1475708994524	1475708994609	o	79
272115	2917117	Hours are listed in 24hr format central time.	Hours are listed in 24hr format central time.	138540815	1475708994624	1475708994724	r	82
272115	2917117	Hours are listed in 24hr format central time.	Hours are listed in 24hr format central time.	138540816	1475708994692	1475708994838	m	77
272115	2917117	Hours are listed in 24hr format central time.	Hours are listed in 24hr format central time.	138540817	1475708994870	1475708994989	a	65
272115	2917117	Hours are listed in 24hr format central time.	Hours are listed in 24hr format central time.	138540851	1475708995129	1475708995222	t	84
272115	2917117	Hours are listed in 24hr format central time.	Hours are listed in 24hr format central time.	138540853	1475708995238	1475708995360	 	32
272115	2917117	Hours are listed in 24hr format central time.	Hours are listed in 24hr format central time.	138540856	1475708995614	1475708995770	c	67
272115	2917117	Hours are listed in 24hr format central time.	Hours are listed in 24hr format central time.	138540860	1475708995833	1475708995986	e	69
272115	2917117	Hours are listed in 24hr format central time.	Hours are listed in 24hr format central time.	138540862	1475708995986	1475708996056	n	78
272115	2917117	Hours are listed in 24hr format central time.	Hours are listed in 24hr format central time.	138540854	1475708996084	1475708996159	t	84
272115	2917117	Hours are listed in 24hr format central time.	Hours are listed in 24hr format central time.	138540857	1475708996237	1475708996356	r	82
272115	2917117	Hours are listed in 24hr format central time.	Hours are listed in 24hr format central time.	138540859	1475708996512	1475708996676	a	65
272115	2917117	Hours are listed in 24hr format central time.	Hours are listed in 24hr format central time.	138540863	1475708996644	1475708996774	l	76
272115	2917117	Hours are listed in 24hr format central time.	Hours are listed in 24hr format central time.	138540881	1475708996712	1475708996822	 	32
272115	2917117	Hours are listed in 24hr format central time.	Hours are listed in 24hr format central time.	138540882	1475708996853	1475708996993	t	84
272115	2917117	Hours are listed in 24hr format central time.	Hours are listed in 24hr format central time.	138540883	1475708996941	1475708997110	i	222
272115	2917117	Hours are listed in 24hr format central time.	Hours are listed in 24hr format central time.	138540885	1475708997071	1475708997203	m	77
272115	2917117	Hours are listed in 24hr format central time.	Hours are listed in 24hr format central time.	138540887	1475708997171	1475708997322	e	69
272115	2917117	Hours are listed in 24hr format central time.	Hours are listed in 24hr format central time.	138540890	1475708997353	1475708997471	.	190
272115	2917126	The local forecasters are showing rain for Thanksgiving here.	The locak forecasters are showing rain for Thanksgiving here.	138540998	1475708999937	1475709000274	SHIFT	16
272115	2917126	The local forecasters are showing rain for Thanksgiving here.	The locak forecasters are showing rain for Thanksgiving here.	138541000	1475709000204	1475709000321	T	84
272115	2917126	The local forecasters are showing rain for Thanksgiving here.	The locak forecasters are showing rain for Thanksgiving here.	138541003	1475709000368	1475709000452	h	72
272115	2917126	The local forecasters are showing rain for Thanksgiving here.	The locak forecasters are showing rain for Thanksgiving here.	138541006	1475709000429	1475709000547	e	69
272115	2917126	The local forecasters are showing rain for Thanksgiving here.	The locak forecasters are showing rain for Thanksgiving here.	138541008	1475709000523	1475709000609	 	32
272115	2917126	The local forecasters are showing rain for Thanksgiving here.	The locak forecasters are showing rain for Thanksgiving here.	138541009	1475709000687	1475709000807	l	76
272115	2917126	The local forecasters are showing rain for Thanksgiving here.	The locak forecasters are showing rain for Thanksgiving here.	138541011	1475709000817	1475709000920	o	79
272115	2917126	The local forecasters are showing rain for Thanksgiving here.	The locak forecasters are showing rain for Thanksgiving here.	138541013	1475709000892	1475709001060	c	67
272115	2917126	The local forecasters are showing rain for Thanksgiving here.	The locak forecasters are showing rain for Thanksgiving here.	138541015	1475709000991	1475709001192	a	65
272115	2917126	The local forecasters are showing rain for Thanksgiving here.	The locak forecasters are showing rain for Thanksgiving here.	138541017	1475709001153	1475709001297	k	75
272115	2917126	The local forecasters are showing rain for Thanksgiving here.	The locak forecasters are showing rain for Thanksgiving here.	138541076	1475709001224	1475709001376	 	32
272115	2917126	The local forecasters are showing rain for Thanksgiving here.	The locak forecasters are showing rain for Thanksgiving here.	138541080	1475709001485	1475709001606	f	70
272115	2917126	The local forecasters are showing rain for Thanksgiving here.	The locak forecasters are showing rain for Thanksgiving here.	138541085	1475709001783	1475709001874	o	79
272115	2917126	The local forecasters are showing rain for Thanksgiving here.	The locak forecasters are showing rain for Thanksgiving here.	138541093	1475709001984	1475709002148	r	82
272115	2917126	The local forecasters are showing rain for Thanksgiving here.	The locak forecasters are showing rain for Thanksgiving here.	138541097	1475709002106	1475709002223	e	69
272115	2917126	The local forecasters are showing rain for Thanksgiving here.	The locak forecasters are showing rain for Thanksgiving here.	138541104	1475709002348	1475709002576	c	67
272115	2917126	The local forecasters are showing rain for Thanksgiving here.	The locak forecasters are showing rain for Thanksgiving here.	138541129	1475709002520	1475709002664	a	65
272115	2917126	The local forecasters are showing rain for Thanksgiving here.	The locak forecasters are showing rain for Thanksgiving here.	138541131	1475709002805	1475709002922	s	83
272115	2917126	The local forecasters are showing rain for Thanksgiving here.	The locak forecasters are showing rain for Thanksgiving here.	138541133	1475709003016	1475709003109	t	84
272115	2917126	The local forecasters are showing rain for Thanksgiving here.	The locak forecasters are showing rain for Thanksgiving here.	138541135	1475709003078	1475709003224	e	69
272115	2917126	The local forecasters are showing rain for Thanksgiving here.	The locak forecasters are showing rain for Thanksgiving here.	138541137	1475709003172	1475709003318	r	82
272115	2917126	The local forecasters are showing rain for Thanksgiving here.	The locak forecasters are showing rain for Thanksgiving here.	138541139	1475709003381	1475709003515	s	83
272115	2917126	The local forecasters are showing rain for Thanksgiving here.	The locak forecasters are showing rain for Thanksgiving here.	138541166	1475709003490	1475709003623	 	32
272115	2917126	The local forecasters are showing rain for Thanksgiving here.	The locak forecasters are showing rain for Thanksgiving here.	138541169	1475709003607	1475709003738	a	65
272115	2917126	The local forecasters are showing rain for Thanksgiving here.	The locak forecasters are showing rain for Thanksgiving here.	138541172	1475709003878	1475709004031	r	82
272115	2917126	The local forecasters are showing rain for Thanksgiving here.	The locak forecasters are showing rain for Thanksgiving here.	138541175	1475709003974	1475709004125	e	69
272115	2917126	The local forecasters are showing rain for Thanksgiving here.	The locak forecasters are showing rain for Thanksgiving here.	138541177	1475709004105	1475709004224	 	32
272115	2917126	The local forecasters are showing rain for Thanksgiving here.	The locak forecasters are showing rain for Thanksgiving here.	138541179	1475709004302	1475709004455	s	83
272115	2917126	The local forecasters are showing rain for Thanksgiving here.	The locak forecasters are showing rain for Thanksgiving here.	138541217	1475709004469	1475709004588	h	72
272115	2917126	The local forecasters are showing rain for Thanksgiving here.	The locak forecasters are showing rain for Thanksgiving here.	138541220	1475709004539	1475709004735	o	79
272115	2917126	The local forecasters are showing rain for Thanksgiving here.	The locak forecasters are showing rain for Thanksgiving here.	138541224	1475709004798	1475709004929	w	87
272115	2917126	The local forecasters are showing rain for Thanksgiving here.	The locak forecasters are showing rain for Thanksgiving here.	138541228	1475709005277	1475709005358	n	78
272115	2917126	The local forecasters are showing rain for Thanksgiving here.	The locak forecasters are showing rain for Thanksgiving here.	138541232	1475709005374	1475709005502	g	71
272115	2917126	The local forecasters are showing rain for Thanksgiving here.	The locak forecasters are showing rain for Thanksgiving here.	138541296	1475709006180	1475709006276	BKSP	8
272115	2917126	The local forecasters are showing rain for Thanksgiving here.	The locak forecasters are showing rain for Thanksgiving here.	138541298	1475709006495	1475709006589	BKSP	8
272115	2917126	The local forecasters are showing rain for Thanksgiving here.	The locak forecasters are showing rain for Thanksgiving here.	138541300	1475709006801	1475709006890	i	222
272115	2917126	The local forecasters are showing rain for Thanksgiving here.	The locak forecasters are showing rain for Thanksgiving here.	138541304	1475709007064	1475709007150	n	78
272115	2917126	The local forecasters are showing rain for Thanksgiving here.	The locak forecasters are showing rain for Thanksgiving here.	138541307	1475709007137	1475709007255	g	71
272115	2917126	The local forecasters are showing rain for Thanksgiving here.	The locak forecasters are showing rain for Thanksgiving here.	138541313	1475709007255	1475709007391	 	32
272115	2917126	The local forecasters are showing rain for Thanksgiving here.	The locak forecasters are showing rain for Thanksgiving here.	138541317	1475709007672	1475709007755	r	82
272115	2917126	The local forecasters are showing rain for Thanksgiving here.	The locak forecasters are showing rain for Thanksgiving here.	138541334	1475709007862	1475709008043	a	65
272115	2917126	The local forecasters are showing rain for Thanksgiving here.	The locak forecasters are showing rain for Thanksgiving here.	138541336	1475709007987	1475709008106	i	222
272115	2917126	The local forecasters are showing rain for Thanksgiving here.	The locak forecasters are showing rain for Thanksgiving here.	138541339	1475709008356	1475709008504	n	78
272115	2917126	The local forecasters are showing rain for Thanksgiving here.	The locak forecasters are showing rain for Thanksgiving here.	138541342	1475709008471	1475709008606	 	32
272115	2917126	The local forecasters are showing rain for Thanksgiving here.	The locak forecasters are showing rain for Thanksgiving here.	138541345	1475709008731	1475709008865	f	70
272115	2917126	The local forecasters are showing rain for Thanksgiving here.	The locak forecasters are showing rain for Thanksgiving here.	138541362	1475709008840	1475709008941	o	79
272115	2917126	The local forecasters are showing rain for Thanksgiving here.	The locak forecasters are showing rain for Thanksgiving here.	138541365	1475709008956	1475709009068	r	82
272115	2917126	The local forecasters are showing rain for Thanksgiving here.	The locak forecasters are showing rain for Thanksgiving here.	138541367	1475709009000	1475709009093	 	32
272115	2917126	The local forecasters are showing rain for Thanksgiving here.	The locak forecasters are showing rain for Thanksgiving here.	138541370	1475709009155	1475709009392	SHIFT	16
272115	2917126	The local forecasters are showing rain for Thanksgiving here.	The locak forecasters are showing rain for Thanksgiving here.	138541374	1475709009296	1475709009408	T	84
272115	2917126	The local forecasters are showing rain for Thanksgiving here.	The locak forecasters are showing rain for Thanksgiving here.	138541378	1475709009530	1475709009590	h	72
272115	2917126	The local forecasters are showing rain for Thanksgiving here.	The locak forecasters are showing rain for Thanksgiving here.	138541382	1475709009606	1475709009740	a	65
272115	2917126	The local forecasters are showing rain for Thanksgiving here.	The locak forecasters are showing rain for Thanksgiving here.	138541404	1475709009658	1475709009793	n	78
272115	2917126	The local forecasters are showing rain for Thanksgiving here.	The locak forecasters are showing rain for Thanksgiving here.	138541405	1475709009771	1475709009939	k	75
272115	2917126	The local forecasters are showing rain for Thanksgiving here.	The locak forecasters are showing rain for Thanksgiving here.	138541406	1475709009920	1475709010052	s	83
272115	2917126	The local forecasters are showing rain for Thanksgiving here.	The locak forecasters are showing rain for Thanksgiving here.	138541407	1475709010573	1475709010686	g	71
272115	2917126	The local forecasters are showing rain for Thanksgiving here.	The locak forecasters are showing rain for Thanksgiving here.	138541408	1475709010658	1475709010763	i	222
272115	2917126	The local forecasters are showing rain for Thanksgiving here.	The locak forecasters are showing rain for Thanksgiving here.	138541438	1475709010742	1475709010854	b	66
272115	2917126	The local forecasters are showing rain for Thanksgiving here.	The locak forecasters are showing rain for Thanksgiving here.	138541441	1475709011088	1475709011143	BKSP	8
272115	2917126	The local forecasters are showing rain for Thanksgiving here.	The locak forecasters are showing rain for Thanksgiving here.	138541444	1475709011190	1475709011323	v	86
272115	2917126	The local forecasters are showing rain for Thanksgiving here.	The locak forecasters are showing rain for Thanksgiving here.	138541448	1475709011304	1475709011439	i	222
272115	2917126	The local forecasters are showing rain for Thanksgiving here.	The locak forecasters are showing rain for Thanksgiving here.	138541454	1475709011532	1475709011610	n	78
272115	2917126	The local forecasters are showing rain for Thanksgiving here.	The locak forecasters are showing rain for Thanksgiving here.	138541459	1475709011844	1475709011972	g	71
272115	2917126	The local forecasters are showing rain for Thanksgiving here.	The locak forecasters are showing rain for Thanksgiving here.	138541464	1475709012281	1475709012375	 	32
272115	2917126	The local forecasters are showing rain for Thanksgiving here.	The locak forecasters are showing rain for Thanksgiving here.	138541473	1475709012500	1475709012578	h	72
272115	2917126	The local forecasters are showing rain for Thanksgiving here.	The locak forecasters are showing rain for Thanksgiving here.	138541475	1475709012558	1475709012659	e	69
272115	2917126	The local forecasters are showing rain for Thanksgiving here.	The locak forecasters are showing rain for Thanksgiving here.	138541477	1475709012768	1475709012884	r	82
272115	2917126	The local forecasters are showing rain for Thanksgiving here.	The locak forecasters are showing rain for Thanksgiving here.	138541480	1475709012839	1475709012985	e	69
272115	2917236	It's really just technicalities.	It's really just technicalities.	138549144	1475709200378	1475709200741	SHIFT	16
272115	2917236	It's really just technicalities.	It's really just technicalities.	138549141	1475709200644	1475709200733	I	73
272115	2917236	It's really just technicalities.	It's really just technicalities.	138549148	1475709200910	1475709200984	t	84
272115	2917236	It's really just technicalities.	It's really just technicalities.	138549151	1475709201453	1475709201984	SHIFT	16
272115	2917236	It's really just technicalities.	It's really just technicalities.	138549154	1475709201879	1475709201984	'	50
272115	2917236	It's really just technicalities.	It's really just technicalities.	138549156	1475709202125	1475709202262	s	83
272115	2917236	It's really just technicalities.	It's really just technicalities.	138549158	1475709202278	1475709202385	 	32
272115	2917236	It's really just technicalities.	It's really just technicalities.	138549165	1475709202475	1475709202603	r	82
272115	2917236	It's really just technicalities.	It's really just technicalities.	138549167	1475709202566	1475709202650	e	69
272115	2917236	It's really just technicalities.	It's really just technicalities.	138549173	1475709202760	1475709202902	a	65
272115	2917236	It's really just technicalities.	It's really just technicalities.	138549170	1475709202835	1475709202887	l	76
272115	2917236	It's really just technicalities.	It's really just technicalities.	138549179	1475709202949	1475709203019	l	76
272115	2917236	It's really just technicalities.	It's really just technicalities.	138549227	1475709203162	1475709203312	y	89
272115	2917236	It's really just technicalities.	It's really just technicalities.	138549229	1475709203266	1475709203395	 	32
272115	2917236	It's really just technicalities.	It's really just technicalities.	138549232	1475709203929	1475709204015	j	74
272115	2917236	It's really just technicalities.	It's really just technicalities.	138549235	1475709204046	1475709204211	u	85
272115	2917236	It's really just technicalities.	It's really just technicalities.	138549238	1475709204211	1475709204325	s	83
272115	2917236	It's really just technicalities.	It's really just technicalities.	138549284	1475709204302	1475709204430	t	84
272115	2917236	It's really just technicalities.	It's really just technicalities.	138549285	1475709204446	1475709204564	 	32
272115	2917236	It's really just technicalities.	It's really just technicalities.	138549288	1475709205286	1475709205400	t	84
272115	2917236	It's really just technicalities.	It's really just technicalities.	138549294	1475709205463	1475709205642	e	69
272115	2917236	It's really just technicalities.	It's really just technicalities.	138549297	1475709205600	1475709205729	c	67
272115	2917236	It's really just technicalities.	It's really just technicalities.	138549302	1475709205760	1475709205881	h	72
272115	2917236	It's really just technicalities.	It's really just technicalities.	138549420	1475709208076	1475709208229	n	78
272115	2917236	It's really just technicalities.	It's really just technicalities.	138549425	1475709208170	1475709208317	i	222
272115	2917236	It's really just technicalities.	It's really just technicalities.	138549430	1475709208253	1475709208433	c	67
272115	2917236	It's really just technicalities.	It's really just technicalities.	138549436	1475709208349	1475709208495	a	65
272115	2917236	It's really just technicalities.	It's really just technicalities.	138549438	1475709208558	1475709208718	l	76
272115	2917236	It's really just technicalities.	It's really just technicalities.	138549475	1475709208699	1475709208860	i	222
272115	2917236	It's really just technicalities.	It's really just technicalities.	138549476	1475709209047	1475709209175	t	84
272115	2917236	It's really just technicalities.	It's really just technicalities.	138549477	1475709209151	1475709209282	i	222
272115	2917236	It's really just technicalities.	It's really just technicalities.	138549478	1475709209344	1475709209451	e	69
272115	2917236	It's really just technicalities.	It's really just technicalities.	138549479	1475709209544	1475709209678	s	83
272115	2917236	It's really just technicalities.	It's really just technicalities.	138549480	1475709209635	1475709209722	.	190
