PARTICIPANT_ID	TEST_SECTION_ID	SENTENCE	USER_INPUT	KEYSTROKE_ID	PRESS_TIME	RELEASE_TIME	LETTER	KEYCODE
277470	2975373	We cleaned him up as well as we could.	We cleaned him up as well as we could. 	141321008	1475775517478	1475775517774	SHIFT	16
277470	2975373	We cleaned him up as well as we could.	We cleaned him up as well as we could. 	141321012	1475775517692	1475775517774	W	87
277470	2975373	We cleaned him up as well as we could.	We cleaned him up as well as we could. 	141321017	1475775517884	1475775517979	e	69
277470	2975373	We cleaned him up as well as we could.	We cleaned him up as well as we could. 	141321024	1475775517979	1475775518059	 	32
277470	2975373	We cleaned him up as well as we could.	We cleaned him up as well as we could. 	141321030	1475775518107	1475775518192	c	67
277470	2975373	We cleaned him up as well as we could.	We cleaned him up as well as we could. 	141321037	1475775518192	1475775518281	k	75
277470	2975373	We cleaned him up as well as we could.	We cleaned him up as well as we could. 	141321043	1475775518281	1475775518412	e	69
277470	2975373	We cleaned him up as well as we could.	We cleaned him up as well as we could. 	141321046	1475775518375	1475775518506	a	65
277470	2975373	We cleaned him up as well as we could.	We cleaned him up as well as we could. 	141321049	1475775518506	1475775518559	b	78
277470	2975373	We cleaned him up as well as we could.	We cleaned him up as well as we could. 	141321053	1475775518559	1475775518642	e	69
277470	2975373	We cleaned him up as well as we could.	We cleaned him up as well as we could. 	141321214	1475775519067	1475775519141	BKSP	8
277470	2975373	We cleaned him up as well as we could.	We cleaned him up as well as we could. 	141321218	1475775519235	1475775519292	BKSP	8
277470	2975373	We cleaned him up as well as we could.	We cleaned him up as well as we could. 	141321224	1475775519386	1475775519459	BKSP	8
277470	2975373	We cleaned him up as well as we could.	We cleaned him up as well as we could. 	141321231	1475775519537	1475775519609	BKSP	8
277470	2975373	We cleaned him up as well as we could.	We cleaned him up as well as we could. 	141321237	1475775519687	1475775519758	BKSP	8
277470	2975373	We cleaned him up as well as we could.	We cleaned him up as well as we could. 	141321242	1475775520007	1475775520124	BKSP	8
277470	2975373	We cleaned him up as well as we could.	We cleaned him up as well as we could. 	141321247	1475775520342	1475775520426	l	76
277470	2975373	We cleaned him up as well as we could.	We cleaned him up as well as we could. 	141321251	1475775520457	1475775520560	e	69
277470	2975373	We cleaned him up as well as we could.	We cleaned him up as well as we could. 	141321254	1475775520526	1475775520660	a	65
277470	2975373	We cleaned him up as well as we could.	We cleaned him up as well as we could. 	141321257	1475775520623	1475775520739	n	78
277470	2975373	We cleaned him up as well as we could.	We cleaned him up as well as we could. 	141321304	1475775520724	1475775520808	e	69
277470	2975373	We cleaned him up as well as we could.	We cleaned him up as well as we could. 	141321309	1475775520886	1475775521005	d	68
277470	2975373	We cleaned him up as well as we could.	We cleaned him up as well as we could. 	141321317	1475775521005	1475775521122	 	32
277470	2975373	We cleaned him up as well as we could.	We cleaned him up as well as we could. 	141321322	1475775521705	1475775521791	h	72
277470	2975373	We cleaned him up as well as we could.	We cleaned him up as well as we could. 	141321330	1475775522011	1475775522124	i	73
277470	2975373	We cleaned him up as well as we could.	We cleaned him up as well as we could. 	141321337	1475775522164	1475775522272	m	77
277470	2975373	We cleaned him up as well as we could.	We cleaned him up as well as we could. 	141321417	1475775522335	1475775522449	 	32
277470	2975373	We cleaned him up as well as we could.	We cleaned him up as well as we could. 	141321418	1475775522648	1475775522735	u	85
277470	2975373	We cleaned him up as well as we could.	We cleaned him up as well as we could. 	141321421	1475775522860	1475775523007	p	80
277470	2975373	We cleaned him up as well as we could.	We cleaned him up as well as we could. 	141321423	1475775523116	1475775523207	 	32
277470	2975373	We cleaned him up as well as we could.	We cleaned him up as well as we could. 	141321428	1475775523301	1475775523427	a	65
277470	2975373	We cleaned him up as well as we could.	We cleaned him up as well as we could. 	141321459	1475775523381	1475775523507	s	83
277470	2975373	We cleaned him up as well as we could.	We cleaned him up as well as we could. 	141321462	1475775523538	1475775523609	 	32
277470	2975373	We cleaned him up as well as we could.	We cleaned him up as well as we could. 	141321467	1475775523656	1475775523825	w	87
277470	2975373	We cleaned him up as well as we could.	We cleaned him up as well as we could. 	141321472	1475775523755	1475775523872	e	69
277470	2975373	We cleaned him up as well as we could.	We cleaned him up as well as we could. 	141321479	1475775523904	1475775523990	l	76
277470	2975373	We cleaned him up as well as we could.	We cleaned him up as well as we could. 	141321485	1475775524068	1475775524158	l	76
277470	2975373	We cleaned him up as well as we could.	We cleaned him up as well as we could. 	141321521	1475775524207	1475775524290	 	32
277470	2975373	We cleaned him up as well as we could.	We cleaned him up as well as we could. 	141321527	1475775524290	1475775524427	a	65
277470	2975373	We cleaned him up as well as we could.	We cleaned him up as well as we could. 	141321531	1475775524374	1475775524505	s	83
277470	2975373	We cleaned him up as well as we could.	We cleaned him up as well as we could. 	141321536	1475775524490	1475775524575	 	32
277470	2975373	We cleaned him up as well as we could.	We cleaned him up as well as we could. 	141321540	1475775524622	1475775524825	w	87
277470	2975373	We cleaned him up as well as we could.	We cleaned him up as well as we could. 	141321577	1475775524771	1475775524905	e	69
277470	2975373	We cleaned him up as well as we could.	We cleaned him up as well as we could. 	141321583	1475775524905	1475775524975	 	32
277470	2975373	We cleaned him up as well as we could.	We cleaned him up as well as we could. 	141321590	1475775525038	1475775525141	c	67
277470	2975373	We cleaned him up as well as we could.	We cleaned him up as well as we could. 	141321595	1475775525084	1475775525204	o	79
277470	2975373	We cleaned him up as well as we could.	We cleaned him up as well as we could. 	141321601	1475775525141	1475775525257	u	85
277470	2975373	We cleaned him up as well as we could.	We cleaned him up as well as we could. 	141321604	1475775525366	1475775525489	l	76
277470	2975373	We cleaned him up as well as we could.	We cleaned him up as well as we could. 	141321705	1475775525489	1475775525622	d	68
277470	2975373	We cleaned him up as well as we could.	We cleaned him up as well as we could. 	141321708	1475775525716	1475775525807	.	190
277470	2975373	We cleaned him up as well as we could.	We cleaned him up as well as we could. 	141321710	1475775525994	1475775526107	 	32
277470	2975386	Indy time trials begin Saturday.	Indy time trials begin Saturday.	141321922	1475775528963	1475775529239	SHIFT	16
277470	2975386	Indy time trials begin Saturday.	Indy time trials begin Saturday.	141321919	1475775529134	1475775529223	I	73
277470	2975386	Indy time trials begin Saturday.	Indy time trials begin Saturday.	141321927	1475775529332	1475775529425	n	78
277470	2975386	Indy time trials begin Saturday.	Indy time trials begin Saturday.	141321930	1475775529425	1475775529486	d	68
277470	2975386	Indy time trials begin Saturday.	Indy time trials begin Saturday.	141321934	1475775529626	1475775529723	y	89
277470	2975386	Indy time trials begin Saturday.	Indy time trials begin Saturday.	141321938	1475775529816	1475775529876	 	32
277470	2975386	Indy time trials begin Saturday.	Indy time trials begin Saturday.	141321979	1475775530158	1475775530256	m	77
277470	2975386	Indy time trials begin Saturday.	Indy time trials begin Saturday.	141321982	1475775530412	1475775530482	BKSP	8
277470	2975386	Indy time trials begin Saturday.	Indy time trials begin Saturday.	141321985	1475775530513	1475775530593	t	84
277470	2975386	Indy time trials begin Saturday.	Indy time trials begin Saturday.	141321988	1475775530608	1475775530740	i	73
277470	2975386	Indy time trials begin Saturday.	Indy time trials begin Saturday.	141321992	1475775530725	1475775530808	m	77
277470	2975386	Indy time trials begin Saturday.	Indy time trials begin Saturday.	141322101	1475775530793	1475775530906	e	69
277470	2975386	Indy time trials begin Saturday.	Indy time trials begin Saturday.	141322108	1475775530906	1475775530989	 	32
277470	2975386	Indy time trials begin Saturday.	Indy time trials begin Saturday.	141322114	1475775531041	1475775531077	t	84
277470	2975386	Indy time trials begin Saturday.	Indy time trials begin Saturday.	141322122	1475775531203	1475775531307	r	82
277470	2975386	Indy time trials begin Saturday.	Indy time trials begin Saturday.	141322129	1475775531368	1475775531420	e	69
277470	2975386	Indy time trials begin Saturday.	Indy time trials begin Saturday.	141322138	1475775531876	1475775531958	BKSP	8
277470	2975386	Indy time trials begin Saturday.	Indy time trials begin Saturday.	141322143	1475775532052	1475775532155	i	73
277470	2975386	Indy time trials begin Saturday.	Indy time trials begin Saturday.	141322171	1475775532189	1475775532276	a	65
277470	2975386	Indy time trials begin Saturday.	Indy time trials begin Saturday.	141322179	1475775532308	1475775532439	l	76
277470	2975386	Indy time trials begin Saturday.	Indy time trials begin Saturday.	141322186	1475775532439	1475775532555	s	83
277470	2975386	Indy time trials begin Saturday.	Indy time trials begin Saturday.	141322193	1475775532555	1475775532625	 	32
277470	2975386	Indy time trials begin Saturday.	Indy time trials begin Saturday.	141322198	1475775532907	1475775532991	b	66
277470	2975386	Indy time trials begin Saturday.	Indy time trials begin Saturday.	141322222	1475775533055	1475775533203	e	69
277470	2975386	Indy time trials begin Saturday.	Indy time trials begin Saturday.	141322227	1475775533187	1475775533290	g	71
277470	2975386	Indy time trials begin Saturday.	Indy time trials begin Saturday.	141322233	1475775533290	1475775533441	i	73
277470	2975386	Indy time trials begin Saturday.	Indy time trials begin Saturday.	141322239	1475775533359	1475775533457	n	78
277470	2975386	Indy time trials begin Saturday.	Indy time trials begin Saturday.	141322242	1475775533504	1475775533575	 	32
277470	2975386	Indy time trials begin Saturday.	Indy time trials begin Saturday.	141322283	1475775533670	1475775533874	SHIFT	16
277470	2975386	Indy time trials begin Saturday.	Indy time trials begin Saturday.	141322289	1475775533780	1475775533874	S	83
277470	2975386	Indy time trials begin Saturday.	Indy time trials begin Saturday.	141322293	1475775533952	1475775534056	a	65
277470	2975386	Indy time trials begin Saturday.	Indy time trials begin Saturday.	141322300	1475775534103	1475775534206	t	84
277470	2975386	Indy time trials begin Saturday.	Indy time trials begin Saturday.	141322304	1475775534206	1475775534310	u	85
277470	2975386	Indy time trials begin Saturday.	Indy time trials begin Saturday.	141322354	1475775534275	1475775534342	r	82
277470	2975386	Indy time trials begin Saturday.	Indy time trials begin Saturday.	141322360	1475775534460	1475775534587	d	68
277470	2975386	Indy time trials begin Saturday.	Indy time trials begin Saturday.	141322365	1475775534540	1475775534624	a	65
277470	2975386	Indy time trials begin Saturday.	Indy time trials begin Saturday.	141322369	1475775534749	1475775534841	y	89
277470	2975386	Indy time trials begin Saturday.	Indy time trials begin Saturday.	141322374	1475775534888	1475775534973	.	190
277470	2975402	I decided that I am going to stay here!	I decided that I am going to stay here!	141322525	1475775536730	1475775536988	SHIFT	16
277470	2975402	I decided that I am going to stay here!	I decided that I am going to stay here!	141322519	1475775536873	1475775536972	I	73
277470	2975402	I decided that I am going to stay here!	I decided that I am going to stay here!	141322529	1475775537019	1475775537091	 	32
277470	2975402	I decided that I am going to stay here!	I decided that I am going to stay here!	141322533	1475775537138	1475775537240	d	68
277470	2975402	I decided that I am going to stay here!	I decided that I am going to stay here!	141322538	1475775537287	1475775537359	e	69
277470	2975402	I decided that I am going to stay here!	I decided that I am going to stay here!	141322543	1475775537421	1475775537523	c	67
277470	2975402	I decided that I am going to stay here!	I decided that I am going to stay here!	141322579	1475775537539	1475775537644	i	73
277470	2975402	I decided that I am going to stay here!	I decided that I am going to stay here!	141322585	1475775537607	1475775537684	d	68
277470	2975402	I decided that I am going to stay here!	I decided that I am going to stay here!	141322591	1475775537756	1475775537856	e	69
277470	2975402	I decided that I am going to stay here!	I decided that I am going to stay here!	141322596	1475775537949	1475775538040	d	68
277470	2975402	I decided that I am going to stay here!	I decided that I am going to stay here!	141322602	1475775538087	1475775538157	 	32
277470	2975402	I decided that I am going to stay here!	I decided that I am going to stay here!	141322628	1475775538222	1475775538343	t	84
277470	2975402	I decided that I am going to stay here!	I decided that I am going to stay here!	141322630	1475775538307	1475775538374	h	72
277470	2975402	I decided that I am going to stay here!	I decided that I am going to stay here!	141322635	1475775538437	1475775538571	a	65
277470	2975402	I decided that I am going to stay here!	I decided that I am going to stay here!	141322641	1475775538509	1475775538639	t	84
277470	2975402	I decided that I am going to stay here!	I decided that I am going to stay here!	141322647	1475775538639	1475775538692	 	32
277470	2975402	I decided that I am going to stay here!	I decided that I am going to stay here!	141322664	1475775538723	1475775538857	SHIFT	16
277470	2975402	I decided that I am going to stay here!	I decided that I am going to stay here!	141322669	1475775538772	1475775538857	I	73
277470	2975402	I decided that I am going to stay here!	I decided that I am going to stay here!	141322675	1475775538857	1475775538909	 	32
277470	2975402	I decided that I am going to stay here!	I decided that I am going to stay here!	141322682	1475775538940	1475775539060	a	65
277470	2975402	I decided that I am going to stay here!	I decided that I am going to stay here!	141322689	1475775539024	1475775539153	m	77
277470	2975402	I decided that I am going to stay here!	I decided that I am going to stay here!	141322695	1475775539153	1475775539203	 	32
277470	2975402	I decided that I am going to stay here!	I decided that I am going to stay here!	141322708	1475775539298	1475775539376	g	71
277470	2975402	I decided that I am going to stay here!	I decided that I am going to stay here!	141322712	1475775539376	1475775539477	o	79
277470	2975402	I decided that I am going to stay here!	I decided that I am going to stay here!	141322717	1475775539442	1475775539571	i	73
277470	2975402	I decided that I am going to stay here!	I decided that I am going to stay here!	141322722	1475775539539	1475775539651	n	78
277470	2975402	I decided that I am going to stay here!	I decided that I am going to stay here!	141322759	1475775539608	1475775539692	g	71
277470	2975402	I decided that I am going to stay here!	I decided that I am going to stay here!	141322768	1475775539692	1475775539760	 	32
277470	2975402	I decided that I am going to stay here!	I decided that I am going to stay here!	141322772	1475775539838	1475775539940	t	84
277470	2975402	I decided that I am going to stay here!	I decided that I am going to stay here!	141322777	1475775539940	1475775540019	o	79
277470	2975402	I decided that I am going to stay here!	I decided that I am going to stay here!	141322784	1475775540051	1475775540110	 	32
277470	2975402	I decided that I am going to stay here!	I decided that I am going to stay here!	141322788	1475775540172	1475775540288	s	83
277470	2975402	I decided that I am going to stay here!	I decided that I am going to stay here!	141322803	1475775540352	1475775540472	t	84
277470	2975402	I decided that I am going to stay here!	I decided that I am going to stay here!	141322810	1475775540472	1475775540626	a	65
277470	2975402	I decided that I am going to stay here!	I decided that I am going to stay here!	141322818	1475775540556	1475775540673	y	89
277470	2975402	I decided that I am going to stay here!	I decided that I am going to stay here!	141322826	1475775540782	1475775540873	 	32
277470	2975402	I decided that I am going to stay here!	I decided that I am going to stay here!	141322834	1475775540951	1475775541067	h	72
277470	2975402	I decided that I am going to stay here!	I decided that I am going to stay here!	141322871	1475775541026	1475775541123	e	69
277470	2975402	I decided that I am going to stay here!	I decided that I am going to stay here!	141322873	1475775541081	1475775541236	r	82
277470	2975402	I decided that I am going to stay here!	I decided that I am going to stay here!	141322876	1475775541236	1475775541325	e	69
277470	2975402	I decided that I am going to stay here!	I decided that I am going to stay here!	141322879	1475775541403	1475775541689	SHIFT	16
277470	2975402	I decided that I am going to stay here!	I decided that I am going to stay here!	141322884	1475775541575	1475775541689	!	49
277470	2975412	Talk to you later.	Talk to you later.	141323105	1475775544574	1475775544759	SHIFT	16
277470	2975412	Talk to you later.	Talk to you later.	141323109	1475775544699	1475775544790	T	84
277470	2975412	Talk to you later.	Talk to you later.	141323114	1475775544883	1475775545010	a	65
277470	2975412	Talk to you later.	Talk to you later.	141323119	1475775544963	1475775545072	l	76
277470	2975412	Talk to you later.	Talk to you later.	141323126	1475775545150	1475775545257	k	75
277470	2975412	Talk to you later.	Talk to you later.	141323132	1475775545288	1475775545373	 	32
277470	2975412	Talk to you later.	Talk to you later.	141323141	1475775545406	1475775545506	t	84
277470	2975412	Talk to you later.	Talk to you later.	141323145	1475775545506	1475775545591	o	79
277470	2975412	Talk to you later.	Talk to you later.	141323148	1475775545591	1475775545690	 	32
277470	2975412	Talk to you later.	Talk to you later.	141323150	1475775545690	1475775545793	y	89
277470	2975412	Talk to you later.	Talk to you later.	141323178	1475775545723	1475775545875	o	79
277470	2975412	Talk to you later.	Talk to you later.	141323187	1475775545825	1475775545924	u	85
277470	2975412	Talk to you later.	Talk to you later.	141323196	1475775545940	1475775546010	 	32
277470	2975412	Talk to you later.	Talk to you later.	141323206	1475775546088	1475775546194	l	76
277470	2975412	Talk to you later.	Talk to you later.	141323215	1475775546159	1475775546309	a	65
277470	2975412	Talk to you later.	Talk to you later.	141323233	1475775546241	1475775546374	t	84
277470	2975412	Talk to you later.	Talk to you later.	141323236	1475775546374	1475775546542	e	69
277470	2975412	Talk to you later.	Talk to you later.	141323239	1475775546489	1475775546589	r	82
277470	2975412	Talk to you later.	Talk to you later.	141323242	1475775546589	1475775546674	.	190
277470	2975417	The cause of the fire was under investigation, police said.	The cause of the fire was under investigation, police said.	141323387	1475775548409	1475775548575	SHIFT	16
277470	2975417	The cause of the fire was under investigation, police said.	The cause of the fire was under investigation, police said.	141323385	1475775548502	1475775548559	T	84
277470	2975417	The cause of the fire was under investigation, police said.	The cause of the fire was under investigation, police said.	141323390	1475775548684	1475775548742	h	72
277470	2975417	The cause of the fire was under investigation, police said.	The cause of the fire was under investigation, police said.	141323393	1475775548804	1475775548940	e	69
277470	2975417	The cause of the fire was under investigation, police said.	The cause of the fire was under investigation, police said.	141323398	1475775548906	1475775548991	 	32
277470	2975417	The cause of the fire was under investigation, police said.	The cause of the fire was under investigation, police said.	141323402	1475775549022	1475775549139	c	67
277470	2975417	The cause of the fire was under investigation, police said.	The cause of the fire was under investigation, police said.	141323420	1475775549123	1475775549223	a	65
277470	2975417	The cause of the fire was under investigation, police said.	The cause of the fire was under investigation, police said.	141323423	1475775549238	1475775549340	u	85
277470	2975417	The cause of the fire was under investigation, police said.	The cause of the fire was under investigation, police said.	141323428	1475775549340	1475775549458	s	83
277470	2975417	The cause of the fire was under investigation, police said.	The cause of the fire was under investigation, police said.	141323434	1475775549408	1475775549543	e	69
277470	2975417	The cause of the fire was under investigation, police said.	The cause of the fire was under investigation, police said.	141323441	1475775549505	1475775549590	 	32
277470	2975417	The cause of the fire was under investigation, police said.	The cause of the fire was under investigation, police said.	141323450	1475775549606	1475775549726	o	79
277470	2975417	The cause of the fire was under investigation, police said.	The cause of the fire was under investigation, police said.	141323481	1475775549691	1475775549775	f	70
277470	2975417	The cause of the fire was under investigation, police said.	The cause of the fire was under investigation, police said.	141323487	1475775549760	1475775549830	 	32
277470	2975417	The cause of the fire was under investigation, police said.	The cause of the fire was under investigation, police said.	141323495	1475775549893	1475775550007	t	84
277470	2975417	The cause of the fire was under investigation, police said.	The cause of the fire was under investigation, police said.	141323500	1475775550100	1475775550165	h	72
277470	2975417	The cause of the fire was under investigation, police said.	The cause of the fire was under investigation, police said.	141323508	1475775550414	1475775550468	 	32
277470	2975417	The cause of the fire was under investigation, police said.	The cause of the fire was under investigation, police said.	141323515	1475775550468	1475775550508	e	69
277470	2975417	The cause of the fire was under investigation, police said.	The cause of the fire was under investigation, police said.	141323594	1475775550683	1475775550806	BKSP	8
277470	2975417	The cause of the fire was under investigation, police said.	The cause of the fire was under investigation, police said.	141323597	1475775550806	1475775550874	e	69
277470	2975417	The cause of the fire was under investigation, police said.	The cause of the fire was under investigation, police said.	141323599	1475775550954	1475775551057	BKSP	8
277470	2975417	The cause of the fire was under investigation, police said.	The cause of the fire was under investigation, police said.	141323601	1475775551151	1475775551256	BKSP	8
277470	2975417	The cause of the fire was under investigation, police said.	The cause of the fire was under investigation, police said.	141323605	1475775551303	1475775551422	e	69
277470	2975417	The cause of the fire was under investigation, police said.	The cause of the fire was under investigation, police said.	141323608	1475775551422	1475775551477	 	32
277470	2975417	The cause of the fire was under investigation, police said.	The cause of the fire was under investigation, police said.	141323610	1475775551571	1475775551642	f	70
277470	2975417	The cause of the fire was under investigation, police said.	The cause of the fire was under investigation, police said.	141323613	1475775551674	1475775551741	i	73
277470	2975417	The cause of the fire was under investigation, police said.	The cause of the fire was under investigation, police said.	141323624	1475775551757	1475775551891	r	82
277470	2975417	The cause of the fire was under investigation, police said.	The cause of the fire was under investigation, police said.	141323632	1475775551840	1475775551986	e	69
277470	2975417	The cause of the fire was under investigation, police said.	The cause of the fire was under investigation, police said.	141323639	1475775551986	1475775552042	 	32
277470	2975417	The cause of the fire was under investigation, police said.	The cause of the fire was under investigation, police said.	141323648	1475775552058	1475775552235	w	87
277470	2975417	The cause of the fire was under investigation, police said.	The cause of the fire was under investigation, police said.	141323685	1475775552202	1475775552343	a	65
277470	2975417	The cause of the fire was under investigation, police said.	The cause of the fire was under investigation, police said.	141323690	1475775552374	1475775552491	s	83
277470	2975417	The cause of the fire was under investigation, police said.	The cause of the fire was under investigation, police said.	141323698	1475775552491	1475775552559	 	32
277470	2975417	The cause of the fire was under investigation, police said.	The cause of the fire was under investigation, police said.	141323703	1475775552590	1475775552704	u	85
277470	2975417	The cause of the fire was under investigation, police said.	The cause of the fire was under investigation, police said.	141323709	1475775552751	1475775552867	n	78
277470	2975417	The cause of the fire was under investigation, police said.	The cause of the fire was under investigation, police said.	141323758	1475775552825	1475775552909	d	68
277470	2975417	The cause of the fire was under investigation, police said.	The cause of the fire was under investigation, police said.	141323764	1475775553002	1475775553190	e	69
277470	2975417	The cause of the fire was under investigation, police said.	The cause of the fire was under investigation, police said.	141323768	1475775553106	1475775553252	r	82
277470	2975417	The cause of the fire was under investigation, police said.	The cause of the fire was under investigation, police said.	141323773	1475775553284	1475775553346	 	32
277470	2975417	The cause of the fire was under investigation, police said.	The cause of the fire was under investigation, police said.	141323778	1475775553424	1475775553508	i	73
277470	2975417	The cause of the fire was under investigation, police said.	The cause of the fire was under investigation, police said.	141323783	1475775553601	1475775553706	n	78
277470	2975417	The cause of the fire was under investigation, police said.	The cause of the fire was under investigation, police said.	141323830	1475775553802	1475775553875	v	86
277470	2975417	The cause of the fire was under investigation, police said.	The cause of the fire was under investigation, police said.	141323836	1475775553985	1475775554131	e	69
277470	2975417	The cause of the fire was under investigation, police said.	The cause of the fire was under investigation, police said.	141323844	1475775554089	1475775554245	s	83
277470	2975417	The cause of the fire was under investigation, police said.	The cause of the fire was under investigation, police said.	141323850	1475775554190	1475775554292	t	84
277470	2975417	The cause of the fire was under investigation, police said.	The cause of the fire was under investigation, police said.	141323855	1475775554339	1475775554409	i	73
277470	2975417	The cause of the fire was under investigation, police said.	The cause of the fire was under investigation, police said.	141323870	1475775554473	1475775554558	g	71
277470	2975417	The cause of the fire was under investigation, police said.	The cause of the fire was under investigation, police said.	141323875	1475775554558	1475775554723	a	65
277470	2975417	The cause of the fire was under investigation, police said.	The cause of the fire was under investigation, police said.	141323879	1475775554671	1475775554788	t	84
277470	2975417	The cause of the fire was under investigation, police said.	The cause of the fire was under investigation, police said.	141323884	1475775554820	1475775555011	i	73
277470	2975417	The cause of the fire was under investigation, police said.	The cause of the fire was under investigation, police said.	141323956	1475775554970	1475775555120	o	79
277470	2975417	The cause of the fire was under investigation, police said.	The cause of the fire was under investigation, police said.	141323961	1475775555151	1475775555241	n	78
277470	2975417	The cause of the fire was under investigation, police said.	The cause of the fire was under investigation, police said.	141323965	1475775555415	1475775555507	,	188
277470	2975417	The cause of the fire was under investigation, police said.	The cause of the fire was under investigation, police said.	141323970	1475775555570	1475775555641	 	32
277470	2975417	The cause of the fire was under investigation, police said.	The cause of the fire was under investigation, police said.	141323972	1475775555672	1475775555834	p	80
277470	2975417	The cause of the fire was under investigation, police said.	The cause of the fire was under investigation, police said.	141323976	1475775555959	1475775556042	o	79
277470	2975417	The cause of the fire was under investigation, police said.	The cause of the fire was under investigation, police said.	141323991	1475775556153	1475775556217	l	76
277470	2975417	The cause of the fire was under investigation, police said.	The cause of the fire was under investigation, police said.	141323995	1475775556295	1475775556395	i	73
277470	2975417	The cause of the fire was under investigation, police said.	The cause of the fire was under investigation, police said.	141323998	1475775556359	1475775556525	c	67
277470	2975417	The cause of the fire was under investigation, police said.	The cause of the fire was under investigation, police said.	141324002	1475775556473	1475775556619	e	69
277470	2975417	The cause of the fire was under investigation, police said.	The cause of the fire was under investigation, police said.	141324005	1475775556619	1475775556692	 	32
277470	2975417	The cause of the fire was under investigation, police said.	The cause of the fire was under investigation, police said.	141324025	1475775556708	1475775556806	s	83
277470	2975417	The cause of the fire was under investigation, police said.	The cause of the fire was under investigation, police said.	141324026	1475775556901	1475775557021	a	65
277470	2975417	The cause of the fire was under investigation, police said.	The cause of the fire was under investigation, police said.	141324029	1475775557021	1475775557108	i	73
277470	2975417	The cause of the fire was under investigation, police said.	The cause of the fire was under investigation, police said.	141324035	1475775557108	1475775557192	d	68
277470	2975417	The cause of the fire was under investigation, police said.	The cause of the fire was under investigation, police said.	141324041	1475775557254	1475775557402	.	190
277470	2975433	He is listed as questionable for this week's game.	He is listed as questionable for this week's game.	141324202	1475775558746	1475775559056	SHIFT	16
277470	2975433	He is listed as questionable for this week's game.	He is listed as questionable for this week's game.	141324208	1475775558953	1475775559056	H	72
277470	2975433	He is listed as questionable for this week's game.	He is listed as questionable for this week's game.	141324214	1475775559118	1475775559267	e	69
277470	2975433	He is listed as questionable for this week's game.	He is listed as questionable for this week's game.	141324223	1475775559223	1475775559339	 	32
277470	2975433	He is listed as questionable for this week's game.	He is listed as questionable for this week's game.	141324233	1475775559339	1475775559439	i	73
277470	2975433	He is listed as questionable for this week's game.	He is listed as questionable for this week's game.	141324238	1475775559439	1475775559540	s	83
277470	2975433	He is listed as questionable for this week's game.	He is listed as questionable for this week's game.	141324259	1475775559509	1475775559615	 	32
277470	2975433	He is listed as questionable for this week's game.	He is listed as questionable for this week's game.	141324263	1475775559615	1475775559706	l	76
277470	2975433	He is listed as questionable for this week's game.	He is listed as questionable for this week's game.	141324269	1475775559769	1475775559905	i	73
277470	2975433	He is listed as questionable for this week's game.	He is listed as questionable for this week's game.	141324274	1475775559905	1475775560067	s	83
277470	2975433	He is listed as questionable for this week's game.	He is listed as questionable for this week's game.	141324278	1475775560023	1475775560159	t	84
277470	2975433	He is listed as questionable for this week's game.	He is listed as questionable for this week's game.	141324344	1475775560100	1475775560207	e	69
277470	2975433	He is listed as questionable for this week's game.	He is listed as questionable for this week's game.	141324347	1475775560301	1475775560436	d	68
277470	2975433	He is listed as questionable for this week's game.	He is listed as questionable for this week's game.	141324351	1475775560436	1475775560557	 	32
277470	2975433	He is listed as questionable for this week's game.	He is listed as questionable for this week's game.	141324356	1475775560666	1475775560851	a	65
277470	2975433	He is listed as questionable for this week's game.	He is listed as questionable for this week's game.	141324362	1475775560804	1475775560954	s	83
277470	2975433	He is listed as questionable for this week's game.	He is listed as questionable for this week's game.	141324366	1475775561016	1475775561123	 	32
277470	2975433	He is listed as questionable for this week's game.	He is listed as questionable for this week's game.	141324392	1475775561250	1475775561372	q	81
277470	2975433	He is listed as questionable for this week's game.	He is listed as questionable for this week's game.	141324395	1475775561418	1475775561523	u	85
277470	2975433	He is listed as questionable for this week's game.	He is listed as questionable for this week's game.	141324401	1475775561523	1475775561642	e	69
277470	2975433	He is listed as questionable for this week's game.	He is listed as questionable for this week's game.	141324406	1475775561575	1475775561760	s	83
277470	2975433	He is listed as questionable for this week's game.	He is listed as questionable for this week's game.	141324478	1475775561704	1475775561824	t	84
277470	2975433	He is listed as questionable for this week's game.	He is listed as questionable for this week's game.	141324480	1475775561824	1475775561956	i	73
277470	2975433	He is listed as questionable for this week's game.	He is listed as questionable for this week's game.	141324482	1475775561924	1475775562043	o	79
277470	2975433	He is listed as questionable for this week's game.	He is listed as questionable for this week's game.	141324484	1475775562008	1475775562075	n	78
277470	2975433	He is listed as questionable for this week's game.	He is listed as questionable for this week's game.	141324485	1475775562154	1475775562304	a	65
277470	2975433	He is listed as questionable for this week's game.	He is listed as questionable for this week's game.	141324487	1475775562569	1475775562703	b	66
277470	2975433	He is listed as questionable for this week's game.	He is listed as questionable for this week's game.	141324503	1475775562735	1475775562870	l	76
277470	2975433	He is listed as questionable for this week's game.	He is listed as questionable for this week's game.	141324511	1475775562870	1475775563004	e	69
277470	2975433	He is listed as questionable for this week's game.	He is listed as questionable for this week's game.	141324520	1475775563035	1475775563123	 	32
277470	2975433	He is listed as questionable for this week's game.	He is listed as questionable for this week's game.	141324530	1475775563186	1475775563274	f	70
277470	2975433	He is listed as questionable for this week's game.	He is listed as questionable for this week's game.	141324537	1475775563274	1475775563357	o	79
277470	2975433	He is listed as questionable for this week's game.	He is listed as questionable for this week's game.	141324563	1475775563341	1475775563467	r	82
277470	2975433	He is listed as questionable for this week's game.	He is listed as questionable for this week's game.	141324568	1475775563431	1475775563508	 	32
277470	2975433	He is listed as questionable for this week's game.	He is listed as questionable for this week's game.	141324575	1475775563571	1475775563726	t	84
277470	2975433	He is listed as questionable for this week's game.	He is listed as questionable for this week's game.	141324579	1475775563672	1475775563742	h	72
277470	2975433	He is listed as questionable for this week's game.	He is listed as questionable for this week's game.	141324582	1475775563742	1475775563840	i	73
277470	2975433	He is listed as questionable for this week's game.	He is listed as questionable for this week's game.	141324585	1475775563872	1475775564026	s	83
277470	2975433	He is listed as questionable for this week's game.	He is listed as questionable for this week's game.	141324628	1475775563973	1475775564074	 	32
277470	2975433	He is listed as questionable for this week's game.	He is listed as questionable for this week's game.	141324633	1475775564184	1475775564347	w	87
277470	2975433	He is listed as questionable for this week's game.	He is listed as questionable for this week's game.	141324639	1475775564304	1475775564406	e	69
277470	2975433	He is listed as questionable for this week's game.	He is listed as questionable for this week's game.	141324642	1475775564469	1475775564597	e	69
277470	2975433	He is listed as questionable for this week's game.	He is listed as questionable for this week's game.	141324647	1475775564549	1475775564675	k	75
277470	2975433	He is listed as questionable for this week's game.	He is listed as questionable for this week's game.	141324652	1475775564800	1475775564953	'	222
277470	2975433	He is listed as questionable for this week's game.	He is listed as questionable for this week's game.	141324701	1475775564953	1475775565071	s	83
277470	2975433	He is listed as questionable for this week's game.	He is listed as questionable for this week's game.	141324713	1475775565071	1475775565156	 	32
277470	2975433	He is listed as questionable for this week's game.	He is listed as questionable for this week's game.	141324721	1475775565390	1475775565491	g	71
277470	2975433	He is listed as questionable for this week's game.	He is listed as questionable for this week's game.	141324730	1475775565555	1475775565719	a	65
277470	2975433	He is listed as questionable for this week's game.	He is listed as questionable for this week's game.	141324735	1475775565719	1475775565806	m	77
277470	2975433	He is listed as questionable for this week's game.	He is listed as questionable for this week's game.	141324743	1475775565806	1475775565937	e	69
277470	2975433	He is listed as questionable for this week's game.	He is listed as questionable for this week's game.	141324745	1475775565968	1475775566151	.	190
277470	2975449	Our reform and opening programme has forged ahead.	Our reform and opening programme has forged ahead.	141324928	1475775567555	1475775567807	SHIFT	16
277470	2975449	Our reform and opening programme has forged ahead.	Our reform and opening programme has forged ahead.	141324932	1475775567713	1475775567807	O	79
277470	2975449	Our reform and opening programme has forged ahead.	Our reform and opening programme has forged ahead.	141324934	1475775567885	1475775568035	u	85
277470	2975449	Our reform and opening programme has forged ahead.	Our reform and opening programme has forged ahead.	141324936	1475775568035	1475775568123	r	82
277470	2975449	Our reform and opening programme has forged ahead.	Our reform and opening programme has forged ahead.	141324938	1475775568123	1475775568208	 	32
277470	2975449	Our reform and opening programme has forged ahead.	Our reform and opening programme has forged ahead.	141324941	1475775568286	1475775568426	r	82
277470	2975449	Our reform and opening programme has forged ahead.	Our reform and opening programme has forged ahead.	141324997	1475775568389	1475775568490	e	69
277470	2975449	Our reform and opening programme has forged ahead.	Our reform and opening programme has forged ahead.	141325004	1475775568583	1475775568674	f	70
277470	2975449	Our reform and opening programme has forged ahead.	Our reform and opening programme has forged ahead.	141325013	1475775568674	1475775568772	o	79
277470	2975449	Our reform and opening programme has forged ahead.	Our reform and opening programme has forged ahead.	141325022	1475775568772	1475775568865	r	82
277470	2975449	Our reform and opening programme has forged ahead.	Our reform and opening programme has forged ahead.	141325030	1475775568927	1475775569039	m	77
277470	2975449	Our reform and opening programme has forged ahead.	Our reform and opening programme has forged ahead.	141325032	1475775569132	1475775569223	 	32
277470	2975449	Our reform and opening programme has forged ahead.	Our reform and opening programme has forged ahead.	141325067	1475775569318	1475775569423	a	65
277470	2975449	Our reform and opening programme has forged ahead.	Our reform and opening programme has forged ahead.	141325071	1475775569407	1475775569522	n	78
277470	2975449	Our reform and opening programme has forged ahead.	Our reform and opening programme has forged ahead.	141325076	1475775569522	1475775569607	d	68
277470	2975449	Our reform and opening programme has forged ahead.	Our reform and opening programme has forged ahead.	141325081	1475775569607	1475775569707	 	32
277470	2975449	Our reform and opening programme has forged ahead.	Our reform and opening programme has forged ahead.	141325086	1475775569847	1475775570003	o	79
277470	2975449	Our reform and opening programme has forged ahead.	Our reform and opening programme has forged ahead.	141325115	1475775570003	1475775570107	p	80
277470	2975449	Our reform and opening programme has forged ahead.	Our reform and opening programme has forged ahead.	141325120	1475775570154	1475775570271	e	69
277470	2975449	Our reform and opening programme has forged ahead.	Our reform and opening programme has forged ahead.	141325125	1475775570286	1475775570358	n	78
277470	2975449	Our reform and opening programme has forged ahead.	Our reform and opening programme has forged ahead.	141325131	1475775570389	1475775570505	i	73
277470	2975449	Our reform and opening programme has forged ahead.	Our reform and opening programme has forged ahead.	141325189	1475775570489	1475775570591	n	78
277470	2975449	Our reform and opening programme has forged ahead.	Our reform and opening programme has forged ahead.	141325191	1475775570591	1475775570675	g	71
277470	2975449	Our reform and opening programme has forged ahead.	Our reform and opening programme has forged ahead.	141325193	1475775570675	1475775570726	 	32
277470	2975449	Our reform and opening programme has forged ahead.	Our reform and opening programme has forged ahead.	141325196	1475775571009	1475775571107	p	80
277470	2975449	Our reform and opening programme has forged ahead.	Our reform and opening programme has forged ahead.	141325202	1475775571341	1475775571439	r	82
277470	2975449	Our reform and opening programme has forged ahead.	Our reform and opening programme has forged ahead.	141325208	1475775571563	1475775571643	o	79
277470	2975449	Our reform and opening programme has forged ahead.	Our reform and opening programme has forged ahead.	141325255	1475775571677	1475775571790	g	71
277470	2975449	Our reform and opening programme has forged ahead.	Our reform and opening programme has forged ahead.	141325263	1475775571868	1475775571957	r	82
277470	2975449	Our reform and opening programme has forged ahead.	Our reform and opening programme has forged ahead.	141325272	1475775572066	1475775572204	a	65
277470	2975449	Our reform and opening programme has forged ahead.	Our reform and opening programme has forged ahead.	141325281	1475775572204	1475775572291	m	77
277470	2975449	Our reform and opening programme has forged ahead.	Our reform and opening programme has forged ahead.	141325287	1475775572369	1475775572503	m	77
277470	2975449	Our reform and opening programme has forged ahead.	Our reform and opening programme has forged ahead.	141325308	1475775572503	1475775572591	e	69
277470	2975449	Our reform and opening programme has forged ahead.	Our reform and opening programme has forged ahead.	141325312	1475775572703	1475775572760	 	32
277470	2975449	Our reform and opening programme has forged ahead.	Our reform and opening programme has forged ahead.	141325315	1475775572853	1475775572993	h	72
277470	2975449	Our reform and opening programme has forged ahead.	Our reform and opening programme has forged ahead.	141325317	1475775572941	1475775573108	a	65
277470	2975449	Our reform and opening programme has forged ahead.	Our reform and opening programme has forged ahead.	141325433	1475775573039	1475775573157	s	83
277470	2975449	Our reform and opening programme has forged ahead.	Our reform and opening programme has forged ahead.	141325435	1475775573219	1475775573292	 	32
277470	2975449	Our reform and opening programme has forged ahead.	Our reform and opening programme has forged ahead.	141325437	1475775573682	1475775573778	BKSP	8
277470	2975449	Our reform and opening programme has forged ahead.	Our reform and opening programme has forged ahead.	141325439	1475775574634	1475775574725	 	32
277470	2975449	Our reform and opening programme has forged ahead.	Our reform and opening programme has forged ahead.	141325440	1475775575099	1475775575175	f	70
277470	2975449	Our reform and opening programme has forged ahead.	Our reform and opening programme has forged ahead.	141325443	1475775575175	1475775575290	o	79
277470	2975449	Our reform and opening programme has forged ahead.	Our reform and opening programme has forged ahead.	141325498	1475775575290	1475775575555	r	82
277470	2975449	Our reform and opening programme has forged ahead.	Our reform and opening programme has forged ahead.	141325448	1475775575388	1475775575521	g	71
277470	2975449	Our reform and opening programme has forged ahead.	Our reform and opening programme has forged ahead.	141325502	1475775575521	1475775575639	e	69
277470	2975449	Our reform and opening programme has forged ahead.	Our reform and opening programme has forged ahead.	141325506	1475775575733	1475775575855	d	68
277470	2975449	Our reform and opening programme has forged ahead.	Our reform and opening programme has forged ahead.	141325511	1475775575855	1475775575957	 	32
277470	2975449	Our reform and opening programme has forged ahead.	Our reform and opening programme has forged ahead.	141325515	1475775575957	1475775576151	a	65
277470	2975449	Our reform and opening programme has forged ahead.	Our reform and opening programme has forged ahead.	141325521	1475775576338	1475775576424	h	72
277470	2975449	Our reform and opening programme has forged ahead.	Our reform and opening programme has forged ahead.	141325546	1475775576535	1475775576691	e	69
277470	2975449	Our reform and opening programme has forged ahead.	Our reform and opening programme has forged ahead.	141325551	1475775576654	1475775576803	a	65
277470	2975449	Our reform and opening programme has forged ahead.	Our reform and opening programme has forged ahead.	141325558	1475775576755	1475775576872	d	68
277470	2975470	I'll send you minutes.	I'll send you minutes.	141325817	1475775578487	1475775578656	SHIFT	16
277470	2975470	I'll send you minutes.	I'll send you minutes.	141325818	1475775578565	1475775578656	I	73
277470	2975470	I'll send you minutes.	I'll send you minutes.	141325819	1475775578797	1475775578891	;	186
277470	2975470	I'll send you minutes.	I'll send you minutes.	141325820	1475775579316	1475775579422	BKSP	8
277470	2975470	I'll send you minutes.	I'll send you minutes.	141325821	1475775579941	1475775580073	'	222
277470	2975470	I'll send you minutes.	I'll send you minutes.	141325823	1475775580322	1475775580371	l	76
277470	2975470	I'll send you minutes.	I'll send you minutes.	141325826	1475775580449	1475775580540	l	76
277470	2975470	I'll send you minutes.	I'll send you minutes.	141325871	1475775580573	1475775580707	 	32
277470	2975470	I'll send you minutes.	I'll send you minutes.	141325877	1475775580673	1475775580874	s	83
277470	2975470	I'll send you minutes.	I'll send you minutes.	141325883	1475775580787	1475775580889	e	69
277470	2975470	I'll send you minutes.	I'll send you minutes.	141325890	1475775580874	1475775580957	n	78
277470	2975470	I'll send you minutes.	I'll send you minutes.	141325892	1475775580972	1475775581074	d	68
277470	2975470	I'll send you minutes.	I'll send you minutes.	141325905	1475775581107	1475775581174	 	32
277470	2975470	I'll send you minutes.	I'll send you minutes.	141325908	1475775581221	1475775581331	y	89
277470	2975470	I'll send you minutes.	I'll send you minutes.	141325915	1475775581292	1475775581425	o	79
277470	2975470	I'll send you minutes.	I'll send you minutes.	141325920	1475775581358	1475775581488	u	85
277470	2975470	I'll send you minutes.	I'll send you minutes.	141325926	1475775581488	1475775581574	 	32
277470	2975470	I'll send you minutes.	I'll send you minutes.	141325956	1475775581607	1475775581706	m	77
277470	2975470	I'll send you minutes.	I'll send you minutes.	141325959	1475775581753	1475775581872	i	73
277470	2975470	I'll send you minutes.	I'll send you minutes.	141325964	1475775581872	1475775581987	n	78
277470	2975470	I'll send you minutes.	I'll send you minutes.	141325970	1475775582003	1475775582141	u	85
277470	2975470	I'll send you minutes.	I'll send you minutes.	141326001	1475775582075	1475775582239	t	84
277470	2975470	I'll send you minutes.	I'll send you minutes.	141326011	1475775582141	1475775582308	e	69
277470	2975470	I'll send you minutes.	I'll send you minutes.	141326015	1475775582239	1475775582370	s	83
277470	2975476	I appreciate you moving so quickly on this.	I appreciate you moving so quickly on this.	141326134	1475775583904	1475775584204	SHIFT	16
277470	2975476	I appreciate you moving so quickly on this.	I appreciate you moving so quickly on this.	141326139	1475775584076	1475775584204	I	73
277470	2975476	I appreciate you moving so quickly on this.	I appreciate you moving so quickly on this.	141326147	1475775584235	1475775584308	 	32
277470	2975476	I appreciate you moving so quickly on this.	I appreciate you moving so quickly on this.	141326150	1475775584371	1475775584457	a	65
277470	2975476	I appreciate you moving so quickly on this.	I appreciate you moving so quickly on this.	141326155	1475775584488	1475775584542	p	80
277470	2975476	I appreciate you moving so quickly on this.	I appreciate you moving so quickly on this.	141326162	1475775584637	1475775584757	p	80
277470	2975476	I appreciate you moving so quickly on this.	I appreciate you moving so quickly on this.	141326182	1475775584772	1475775584867	r	82
277470	2975476	I appreciate you moving so quickly on this.	I appreciate you moving so quickly on this.	141326189	1475775584827	1475775584938	e	69
277470	2975476	I appreciate you moving so quickly on this.	I appreciate you moving so quickly on this.	141326192	1475775585079	1475775585174	c	67
277470	2975476	I appreciate you moving so quickly on this.	I appreciate you moving so quickly on this.	141326198	1475775585174	1475775585283	i	73
277470	2975476	I appreciate you moving so quickly on this.	I appreciate you moving so quickly on this.	141326266	1475775585242	1475775585359	a	65
277470	2975476	I appreciate you moving so quickly on this.	I appreciate you moving so quickly on this.	141326269	1475775585452	1475775585572	t	84
277470	2975476	I appreciate you moving so quickly on this.	I appreciate you moving so quickly on this.	141326274	1475775585572	1475775585698	e	69
277470	2975476	I appreciate you moving so quickly on this.	I appreciate you moving so quickly on this.	141326277	1475775585698	1475775585775	 	32
277470	2975476	I appreciate you moving so quickly on this.	I appreciate you moving so quickly on this.	141326281	1475775585994	1475775586123	y	89
277470	2975476	I appreciate you moving so quickly on this.	I appreciate you moving so quickly on this.	141326307	1475775586089	1475775586193	o	79
277470	2975476	I appreciate you moving so quickly on this.	I appreciate you moving so quickly on this.	141326309	1475775586136	1475775586286	u	85
277470	2975476	I appreciate you moving so quickly on this.	I appreciate you moving so quickly on this.	141326314	1475775586286	1475775586358	 	32
277470	2975476	I appreciate you moving so quickly on this.	I appreciate you moving so quickly on this.	141326318	1475775586389	1475775586505	m	77
277470	2975476	I appreciate you moving so quickly on this.	I appreciate you moving so quickly on this.	141326321	1475775586505	1475775586621	o	79
277470	2975476	I appreciate you moving so quickly on this.	I appreciate you moving so quickly on this.	141326326	1475775586621	1475775586675	s	83
277470	2975476	I appreciate you moving so quickly on this.	I appreciate you moving so quickly on this.	141326367	1475775586911	1475775586991	BKSP	8
277470	2975476	I appreciate you moving so quickly on this.	I appreciate you moving so quickly on this.	141326369	1475775587022	1475775587139	v	86
277470	2975476	I appreciate you moving so quickly on this.	I appreciate you moving so quickly on this.	141326371	1475775587139	1475775587260	i	73
277470	2975476	I appreciate you moving so quickly on this.	I appreciate you moving so quickly on this.	141326372	1475775587223	1475775587355	n	78
277470	2975476	I appreciate you moving so quickly on this.	I appreciate you moving so quickly on this.	141326374	1475775587307	1475775587422	g	71
277470	2975476	I appreciate you moving so quickly on this.	I appreciate you moving so quickly on this.	141326466	1475775587407	1475775587505	 	32
277470	2975476	I appreciate you moving so quickly on this.	I appreciate you moving so quickly on this.	141326473	1475775587692	1475775587774	s	83
277470	2975476	I appreciate you moving so quickly on this.	I appreciate you moving so quickly on this.	141326481	1475775587774	1475775587841	o	79
277470	2975476	I appreciate you moving so quickly on this.	I appreciate you moving so quickly on this.	141326488	1475775588249	1475775588325	 	32
277470	2975476	I appreciate you moving so quickly on this.	I appreciate you moving so quickly on this.	141326498	1475775588449	1475775588555	q	81
277470	2975476	I appreciate you moving so quickly on this.	I appreciate you moving so quickly on this.	141326506	1475775588586	1475775588715	u	85
277470	2975476	I appreciate you moving so quickly on this.	I appreciate you moving so quickly on this.	141326569	1475775588673	1475775588806	i	73
277470	2975476	I appreciate you moving so quickly on this.	I appreciate you moving so quickly on this.	141326577	1475775588822	1475775588892	c	67
277470	2975476	I appreciate you moving so quickly on this.	I appreciate you moving so quickly on this.	141326585	1475775588939	1475775589038	k	75
277470	2975476	I appreciate you moving so quickly on this.	I appreciate you moving so quickly on this.	141326590	1475775589179	1475775589306	l	76
277470	2975476	I appreciate you moving so quickly on this.	I appreciate you moving so quickly on this.	141326595	1475775589306	1475775589405	y	89
277470	2975476	I appreciate you moving so quickly on this.	I appreciate you moving so quickly on this.	141326600	1475775589437	1475775589510	 	32
277470	2975476	I appreciate you moving so quickly on this.	I appreciate you moving so quickly on this.	141326619	1475775589699	1475775589843	o	79
277470	2975476	I appreciate you moving so quickly on this.	I appreciate you moving so quickly on this.	141326624	1475775589810	1475775589915	n	78
277470	2975476	I appreciate you moving so quickly on this.	I appreciate you moving so quickly on this.	141326629	1475775589875	1475775589957	 	32
277470	2975476	I appreciate you moving so quickly on this.	I appreciate you moving so quickly on this.	141326636	1475775589957	1475775590131	t	84
277470	2975476	I appreciate you moving so quickly on this.	I appreciate you moving so quickly on this.	141326676	1475775590059	1475775590191	h	72
277470	2975476	I appreciate you moving so quickly on this.	I appreciate you moving so quickly on this.	141326678	1475775590107	1475775590207	i	73
277470	2975476	I appreciate you moving so quickly on this.	I appreciate you moving so quickly on this.	141326680	1475775590207	1475775590372	s	83
277470	2975496	See you on the third.	See you on the third.	141326968	1475775592413	1475775592888	SHIFT	16
277470	2975496	See you on the third.	See you on the third.	141326959	1475775592773	1475775592857	W	87
277470	2975496	See you on the third.	See you on the third.	141326980	1475775592935	1475775593772	SHIFT	16
277470	2975496	See you on the third.	See you on the third.	141326972	1475775593547	1475775593656	BKSP	8
277470	2975496	See you on the third.	See you on the third.	141326986	1475775593656	1475775593772	S	83
277470	2975496	See you on the third.	See you on the third.	141326993	1475775593882	1475775593946	e	69
277470	2975496	See you on the third.	See you on the third.	141327004	1475775594024	1475775594125	e	69
277470	2975496	See you on the third.	See you on the third.	141327010	1475775594125	1475775594255	 	32
277470	2975496	See you on the third.	See you on the third.	141327018	1475775594255	1475775594374	y	89
277470	2975496	See you on the third.	See you on the third.	141327021	1475775594307	1475775594441	o	79
277470	2975496	See you on the third.	See you on the third.	141327027	1475775594374	1475775594488	u	85
277470	2975496	See you on the third.	See you on the third.	141327034	1475775594473	1475775594541	 	32
277470	2975496	See you on the third.	See you on the third.	141327039	1475775594573	1475775594709	o	79
277470	2975496	See you on the third.	See you on the third.	141327051	1475775594659	1475775594775	n	78
277470	2975496	See you on the third.	See you on the third.	141327054	1475775594724	1475775594807	 	32
277470	2975496	See you on the third.	See you on the third.	141327057	1475775594841	1475775594975	t	84
277470	2975496	See you on the third.	See you on the third.	141327060	1475775594915	1475775595007	h	72
277470	2975496	See you on the third.	See you on the third.	141327062	1475775595053	1475775595186	e	69
277470	2975496	See you on the third.	See you on the third.	141327142	1475775595171	1475775595241	 	32
277470	2975496	See you on the third.	See you on the third.	141327145	1475775595553	1475775595710	t	84
277470	2975496	See you on the third.	See you on the third.	141327148	1475775595647	1475775595741	h	72
277470	2975496	See you on the third.	See you on the third.	141327153	1475775595725	1475775595875	i	73
277470	2975496	See you on the third.	See you on the third.	141327163	1475775595837	1475775595908	r	82
277470	2975496	See you on the third.	See you on the third.	141327172	1475775596158	1475775596257	d	68
277470	2975502	I am meeting with my direct reports at 1 to work on recommendations.	I am meeting with my direct reports at 1 to work on recommendations.	141328215	1475775596306	1475775608825	.	190
277470	2975502	I am meeting with my direct reports at 1 to work on recommendations.	I am meeting with my direct reports at 1 to work on recommendations.	141327306	1475775597685	1475775597955	SHIFT	16
277470	2975502	I am meeting with my direct reports at 1 to work on recommendations.	I am meeting with my direct reports at 1 to work on recommendations.	141327311	1475775597843	1475775597955	I	73
277470	2975502	I am meeting with my direct reports at 1 to work on recommendations.	I am meeting with my direct reports at 1 to work on recommendations.	141327320	1475775597971	1475775598041	 	32
277470	2975502	I am meeting with my direct reports at 1 to work on recommendations.	I am meeting with my direct reports at 1 to work on recommendations.	141327327	1475775598057	1475775598172	a	65
277470	2975502	I am meeting with my direct reports at 1 to work on recommendations.	I am meeting with my direct reports at 1 to work on recommendations.	141327336	1475775598172	1475775598272	m	77
277470	2975502	I am meeting with my direct reports at 1 to work on recommendations.	I am meeting with my direct reports at 1 to work on recommendations.	141327343	1475775598288	1475775598388	 	32
277470	2975502	I am meeting with my direct reports at 1 to work on recommendations.	I am meeting with my direct reports at 1 to work on recommendations.	141327400	1475775598717	1475775598807	m	77
277470	2975502	I am meeting with my direct reports at 1 to work on recommendations.	I am meeting with my direct reports at 1 to work on recommendations.	141327409	1475775598823	1475775598876	e	69
277470	2975502	I am meeting with my direct reports at 1 to work on recommendations.	I am meeting with my direct reports at 1 to work on recommendations.	141327418	1475775598986	1475775599139	e	69
277470	2975502	I am meeting with my direct reports at 1 to work on recommendations.	I am meeting with my direct reports at 1 to work on recommendations.	141327425	1475775599089	1475775599190	t	84
277470	2975502	I am meeting with my direct reports at 1 to work on recommendations.	I am meeting with my direct reports at 1 to work on recommendations.	141327432	1475775599190	1475775599309	i	73
277470	2975502	I am meeting with my direct reports at 1 to work on recommendations.	I am meeting with my direct reports at 1 to work on recommendations.	141327458	1475775599274	1475775599374	n	78
277470	2975502	I am meeting with my direct reports at 1 to work on recommendations.	I am meeting with my direct reports at 1 to work on recommendations.	141327460	1475775599374	1475775599488	g	71
277470	2975502	I am meeting with my direct reports at 1 to work on recommendations.	I am meeting with my direct reports at 1 to work on recommendations.	141327463	1475775599488	1475775599559	 	32
277470	2975502	I am meeting with my direct reports at 1 to work on recommendations.	I am meeting with my direct reports at 1 to work on recommendations.	141327467	1475775599715	1475775599840	w	87
277470	2975502	I am meeting with my direct reports at 1 to work on recommendations.	I am meeting with my direct reports at 1 to work on recommendations.	141327471	1475775599840	1475775599940	i	73
277470	2975502	I am meeting with my direct reports at 1 to work on recommendations.	I am meeting with my direct reports at 1 to work on recommendations.	141327476	1475775599940	1475775600075	t	84
277470	2975502	I am meeting with my direct reports at 1 to work on recommendations.	I am meeting with my direct reports at 1 to work on recommendations.	141327514	1475775600007	1475775600126	h	72
277470	2975502	I am meeting with my direct reports at 1 to work on recommendations.	I am meeting with my direct reports at 1 to work on recommendations.	141327520	1475775600091	1475775600173	 	32
277470	2975502	I am meeting with my direct reports at 1 to work on recommendations.	I am meeting with my direct reports at 1 to work on recommendations.	141327524	1475775600236	1475775600326	m	77
277470	2975502	I am meeting with my direct reports at 1 to work on recommendations.	I am meeting with my direct reports at 1 to work on recommendations.	141327529	1475775600291	1475775600404	y	89
277470	2975502	I am meeting with my direct reports at 1 to work on recommendations.	I am meeting with my direct reports at 1 to work on recommendations.	141327535	1475775600404	1475775600475	 	32
277470	2975502	I am meeting with my direct reports at 1 to work on recommendations.	I am meeting with my direct reports at 1 to work on recommendations.	141327540	1475775600633	1475775600723	d	68
277470	2975502	I am meeting with my direct reports at 1 to work on recommendations.	I am meeting with my direct reports at 1 to work on recommendations.	141327575	1475775600772	1475775600875	i	73
277470	2975502	I am meeting with my direct reports at 1 to work on recommendations.	I am meeting with my direct reports at 1 to work on recommendations.	141327580	1475775600826	1475775600943	r	82
277470	2975502	I am meeting with my direct reports at 1 to work on recommendations.	I am meeting with my direct reports at 1 to work on recommendations.	141327584	1475775600908	1475775601005	e	69
277470	2975502	I am meeting with my direct reports at 1 to work on recommendations.	I am meeting with my direct reports at 1 to work on recommendations.	141327589	1475775601099	1475775601174	c	67
277470	2975502	I am meeting with my direct reports at 1 to work on recommendations.	I am meeting with my direct reports at 1 to work on recommendations.	141327594	1475775601315	1475775601423	t	84
277470	2975502	I am meeting with my direct reports at 1 to work on recommendations.	I am meeting with my direct reports at 1 to work on recommendations.	141327642	1475775601690	1475775601757	 	32
277470	2975502	I am meeting with my direct reports at 1 to work on recommendations.	I am meeting with my direct reports at 1 to work on recommendations.	141327646	1475775602071	1475775602226	r	82
277470	2975502	I am meeting with my direct reports at 1 to work on recommendations.	I am meeting with my direct reports at 1 to work on recommendations.	141327649	1475775602173	1475775602304	e	69
277470	2975502	I am meeting with my direct reports at 1 to work on recommendations.	I am meeting with my direct reports at 1 to work on recommendations.	141327653	1475775602304	1475775602421	p	80
277470	2975502	I am meeting with my direct reports at 1 to work on recommendations.	I am meeting with my direct reports at 1 to work on recommendations.	141327714	1475775602405	1475775602522	o	79
277470	2975502	I am meeting with my direct reports at 1 to work on recommendations.	I am meeting with my direct reports at 1 to work on recommendations.	141327719	1475775602522	1475775602676	r	82
277470	2975502	I am meeting with my direct reports at 1 to work on recommendations.	I am meeting with my direct reports at 1 to work on recommendations.	141327723	1475775602623	1475775602819	t	84
277470	2975502	I am meeting with my direct reports at 1 to work on recommendations.	I am meeting with my direct reports at 1 to work on recommendations.	141327729	1475775602786	1475775602942	s	83
277470	2975502	I am meeting with my direct reports at 1 to work on recommendations.	I am meeting with my direct reports at 1 to work on recommendations.	141327733	1475775602973	1475775603059	 	32
277470	2975502	I am meeting with my direct reports at 1 to work on recommendations.	I am meeting with my direct reports at 1 to work on recommendations.	141327738	1475775603449	1475775603617	a	65
277470	2975502	I am meeting with my direct reports at 1 to work on recommendations.	I am meeting with my direct reports at 1 to work on recommendations.	141327800	1475775603617	1475775603722	s	83
277470	2975502	I am meeting with my direct reports at 1 to work on recommendations.	I am meeting with my direct reports at 1 to work on recommendations.	141327807	1475775603784	1475775603872	 	32
277470	2975502	I am meeting with my direct reports at 1 to work on recommendations.	I am meeting with my direct reports at 1 to work on recommendations.	141327813	1475775604121	1475775604191	BKSP	8
277470	2975502	I am meeting with my direct reports at 1 to work on recommendations.	I am meeting with my direct reports at 1 to work on recommendations.	141327821	1475775604284	1475775604374	BKSP	8
277470	2975502	I am meeting with my direct reports at 1 to work on recommendations.	I am meeting with my direct reports at 1 to work on recommendations.	141327827	1475775604374	1475775604475	t	84
277470	2975502	I am meeting with my direct reports at 1 to work on recommendations.	I am meeting with my direct reports at 1 to work on recommendations.	141327839	1475775604475	1475775604540	 	32
277470	2975502	I am meeting with my direct reports at 1 to work on recommendations.	I am meeting with my direct reports at 1 to work on recommendations.	141327846	1475775604634	1475775604740	1	49
277470	2975502	I am meeting with my direct reports at 1 to work on recommendations.	I am meeting with my direct reports at 1 to work on recommendations.	141327869	1475775604756	1475775604825	 	32
277470	2975502	I am meeting with my direct reports at 1 to work on recommendations.	I am meeting with my direct reports at 1 to work on recommendations.	141327874	1475775604918	1475775605043	t	84
277470	2975502	I am meeting with my direct reports at 1 to work on recommendations.	I am meeting with my direct reports at 1 to work on recommendations.	141327878	1475775605007	1475775605105	o	79
277470	2975502	I am meeting with my direct reports at 1 to work on recommendations.	I am meeting with my direct reports at 1 to work on recommendations.	141327882	1475775605121	1475775605192	 	32
277470	2975502	I am meeting with my direct reports at 1 to work on recommendations.	I am meeting with my direct reports at 1 to work on recommendations.	141327883	1475775605301	1475775605390	o	79
277470	2975502	I am meeting with my direct reports at 1 to work on recommendations.	I am meeting with my direct reports at 1 to work on recommendations.	141327929	1475775605579	1475775605674	BKSP	8
277470	2975502	I am meeting with my direct reports at 1 to work on recommendations.	I am meeting with my direct reports at 1 to work on recommendations.	141327933	1475775605705	1475775605790	w	87
277470	2975502	I am meeting with my direct reports at 1 to work on recommendations.	I am meeting with my direct reports at 1 to work on recommendations.	141327936	1475775605790	1475775605881	o	79
277470	2975502	I am meeting with my direct reports at 1 to work on recommendations.	I am meeting with my direct reports at 1 to work on recommendations.	141327940	1475775605897	1475775606006	r	82
277470	2975502	I am meeting with my direct reports at 1 to work on recommendations.	I am meeting with my direct reports at 1 to work on recommendations.	141327944	1475775606006	1475775606121	k	75
277470	2975502	I am meeting with my direct reports at 1 to work on recommendations.	I am meeting with my direct reports at 1 to work on recommendations.	141327947	1475775606138	1475775606207	 	32
277470	2975502	I am meeting with my direct reports at 1 to work on recommendations.	I am meeting with my direct reports at 1 to work on recommendations.	141327993	1475775606223	1475775606355	o	79
277470	2975502	I am meeting with my direct reports at 1 to work on recommendations.	I am meeting with my direct reports at 1 to work on recommendations.	141328006	1475775606324	1475775606437	n	78
277470	2975502	I am meeting with my direct reports at 1 to work on recommendations.	I am meeting with my direct reports at 1 to work on recommendations.	141328014	1475775606437	1475775606556	 	32
277470	2975502	I am meeting with my direct reports at 1 to work on recommendations.	I am meeting with my direct reports at 1 to work on recommendations.	141328020	1475775606712	1475775606874	r	82
277470	2975502	I am meeting with my direct reports at 1 to work on recommendations.	I am meeting with my direct reports at 1 to work on recommendations.	141328069	1475775606838	1475775606941	e	69
277470	2975502	I am meeting with my direct reports at 1 to work on recommendations.	I am meeting with my direct reports at 1 to work on recommendations.	141328073	1475775607034	1475775607155	c	67
277470	2975502	I am meeting with my direct reports at 1 to work on recommendations.	I am meeting with my direct reports at 1 to work on recommendations.	141328080	1475775607155	1475775607240	o	79
277470	2975502	I am meeting with my direct reports at 1 to work on recommendations.	I am meeting with my direct reports at 1 to work on recommendations.	141328091	1475775607318	1475775607393	m	77
277470	2975502	I am meeting with my direct reports at 1 to work on recommendations.	I am meeting with my direct reports at 1 to work on recommendations.	141328098	1475775607486	1475775607543	m	77
277470	2975502	I am meeting with my direct reports at 1 to work on recommendations.	I am meeting with my direct reports at 1 to work on recommendations.	141328105	1475775607605	1475775607739	e	69
277470	2975502	I am meeting with my direct reports at 1 to work on recommendations.	I am meeting with my direct reports at 1 to work on recommendations.	141328137	1475775607706	1475775607815	n	78
277470	2975502	I am meeting with my direct reports at 1 to work on recommendations.	I am meeting with my direct reports at 1 to work on recommendations.	141328141	1475775608017	1475775608122	d	68
277470	2975502	I am meeting with my direct reports at 1 to work on recommendations.	I am meeting with my direct reports at 1 to work on recommendations.	141328148	1475775608122	1475775608293	a	65
277470	2975502	I am meeting with my direct reports at 1 to work on recommendations.	I am meeting with my direct reports at 1 to work on recommendations.	141328154	1475775608238	1475775608355	t	84
277470	2975502	I am meeting with my direct reports at 1 to work on recommendations.	I am meeting with my direct reports at 1 to work on recommendations.	141328160	1475775608355	1475775608523	i	73
277470	2975502	I am meeting with my direct reports at 1 to work on recommendations.	I am meeting with my direct reports at 1 to work on recommendations.	141328205	1475775608439	1475775608554	o	79
277470	2975502	I am meeting with my direct reports at 1 to work on recommendations.	I am meeting with my direct reports at 1 to work on recommendations.	141328209	1475775608555	1475775608625	n	78
277470	2975502	I am meeting with my direct reports at 1 to work on recommendations.	I am meeting with my direct reports at 1 to work on recommendations.	141328220	1475775609122	1475775609207	BKSP	8
277470	2975502	I am meeting with my direct reports at 1 to work on recommendations.	I am meeting with my direct reports at 1 to work on recommendations.	141328223	1475775609192	1475775609274	s	83
277470	2975502	I am meeting with my direct reports at 1 to work on recommendations.	I am meeting with my direct reports at 1 to work on recommendations.	141328225	1475775609336	1475775609424	.	190
277470	2975519	I have 30 minutes then.	I have 30 minutes then.	141328395	1475775610990	1475775611391	SHIFT	16
277470	2975519	I have 30 minutes then.	I have 30 minutes then.	141328393	1475775611304	1475775611375	I	73
277470	2975519	I have 30 minutes then.	I have 30 minutes then.	141328398	1475775611438	1475775611507	 	32
277470	2975519	I have 30 minutes then.	I have 30 minutes then.	141328402	1475775611538	1475775611643	h	72
277470	2975519	I have 30 minutes then.	I have 30 minutes then.	141328406	1475775611608	1475775611738	a	65
277470	2975519	I have 30 minutes then.	I have 30 minutes then.	141328409	1475775611753	1475775611922	v	86
277470	2975519	I have 30 minutes then.	I have 30 minutes then.	141328500	1475775611886	1475775612043	e	69
277470	2975519	I have 30 minutes then.	I have 30 minutes then.	141328504	1475775611974	1475775612106	 	32
277470	2975519	I have 30 minutes then.	I have 30 minutes then.	141328507	1475775612718	1475775612823	3	51
277470	2975519	I have 30 minutes then.	I have 30 minutes then.	141328511	1475775612823	1475775612892	0	48
277470	2975519	I have 30 minutes then.	I have 30 minutes then.	141328514	1475775612970	1475775613072	 	32
277470	2975519	I have 30 minutes then.	I have 30 minutes then.	141328518	1475775613072	1475775613173	m	77
277470	2975519	I have 30 minutes then.	I have 30 minutes then.	141328537	1475775613253	1475775613387	i	73
277470	2975519	I have 30 minutes then.	I have 30 minutes then.	141328542	1475775613355	1475775613472	n	78
277470	2975519	I have 30 minutes then.	I have 30 minutes then.	141328546	1475775613472	1475775613654	u	85
277470	2975519	I have 30 minutes then.	I have 30 minutes then.	141328550	1475775613540	1475775613707	t	84
277470	2975519	I have 30 minutes then.	I have 30 minutes then.	141328585	1475775613654	1475775613776	e	69
277470	2975519	I have 30 minutes then.	I have 30 minutes then.	141328588	1475775613726	1475775613867	s	83
277470	2975519	I have 30 minutes then.	I have 30 minutes then.	141328593	1475775613807	1475775613876	 	32
277470	2975519	I have 30 minutes then.	I have 30 minutes then.	141328598	1475775614128	1475775614305	t	84
277470	2975519	I have 30 minutes then.	I have 30 minutes then.	141328606	1475775614207	1475775614305	h	72
277470	2975519	I have 30 minutes then.	I have 30 minutes then.	141328612	1475775614351	1475775614474	e	69
277470	2975519	I have 30 minutes then.	I have 30 minutes then.	141328632	1475775614410	1475775614474	n	78
277470	2975519	I have 30 minutes then.	I have 30 minutes then.	141328634	1475775614664	1475775614806	.	190
277470	2975527	I liked your flag.	I liked your flag.	141328752	1475775616170	1475775616355	SHIFT	16
277470	2975527	I liked your flag.	I liked your flag.	141328754	1475775616248	1475775616355	I	73
277470	2975527	I liked your flag.	I liked your flag.	141328756	1475775616402	1475775616474	 	32
277470	2975527	I liked your flag.	I liked your flag.	141328758	1475775616521	1475775616576	l	76
277470	2975527	I liked your flag.	I liked your flag.	141328760	1475775616654	1475775616802	i	73
277470	2975527	I liked your flag.	I liked your flag.	141328762	1475775616802	1475775616891	k	75
277470	2975527	I liked your flag.	I liked your flag.	141328792	1475775616843	1475775616909	e	69
277470	2975527	I liked your flag.	I liked your flag.	141328796	1475775617003	1475775617121	d	68
277470	2975527	I liked your flag.	I liked your flag.	141328800	1475775617121	1475775617175	 	32
277470	2975527	I liked your flag.	I liked your flag.	141328806	1475775617269	1475775617325	y	89
277470	2975527	I liked your flag.	I liked your flag.	141328811	1475775617325	1475775617476	o	79
277470	2975527	I liked your flag.	I liked your flag.	141328926	1475775617417	1475775617556	u	85
277470	2975527	I liked your flag.	I liked your flag.	141328933	1475775617587	1475775617642	r	82
277470	2975527	I liked your flag.	I liked your flag.	141328940	1475775618035	1475775618109	 	32
277470	2975527	I liked your flag.	I liked your flag.	141328946	1475775618735	1475775618839	f	70
277470	2975527	I liked your flag.	I liked your flag.	141328954	1475775618901	1475775619006	l	76
277470	2975527	I liked your flag.	I liked your flag.	141328960	1475775619006	1475775619176	a	65
277470	2975527	I liked your flag.	I liked your flag.	141328955	1475775619121	1475775619224	g	71
277470	2975527	I liked your flag.	I liked your flag.	141328958	1475775619224	1475775619324	.	190
277470	2975535	Hope your trip to Florida was good.	Hope your trip to Florida was good.	141329112	1475775620636	1475775620974	SHIFT	16
277470	2975535	Hope your trip to Florida was good.	Hope your trip to Florida was good.	141329117	1475775620890	1475775620974	H	72
277470	2975535	Hope your trip to Florida was good.	Hope your trip to Florida was good.	141329122	1475775621083	1475775621208	o	79
277470	2975535	Hope your trip to Florida was good.	Hope your trip to Florida was good.	141329129	1475775621147	1475775621243	p	80
277470	2975535	Hope your trip to Florida was good.	Hope your trip to Florida was good.	141329135	1475775621208	1475775621337	e	69
277470	2975535	Hope your trip to Florida was good.	Hope your trip to Florida was good.	141329140	1475775621337	1475775621424	 	32
277470	2975535	Hope your trip to Florida was good.	Hope your trip to Florida was good.	141329185	1475775621440	1475775621570	y	89
277470	2975535	Hope your trip to Florida was good.	Hope your trip to Florida was good.	141329188	1475775621509	1475775621629	o	79
277470	2975535	Hope your trip to Florida was good.	Hope your trip to Florida was good.	141329192	1475775621576	1475775621707	u	85
277470	2975535	Hope your trip to Florida was good.	Hope your trip to Florida was good.	141329196	1475775621785	1475775621906	r	82
277470	2975535	Hope your trip to Florida was good.	Hope your trip to Florida was good.	141329200	1475775622109	1475775622238	 	32
277470	2975535	Hope your trip to Florida was good.	Hope your trip to Florida was good.	141329217	1475775622302	1475775622491	t	84
277470	2975535	Hope your trip to Florida was good.	Hope your trip to Florida was good.	141329220	1475775622436	1475775622555	r	82
277470	2975535	Hope your trip to Florida was good.	Hope your trip to Florida was good.	141329224	1475775622555	1475775622640	i	73
277470	2975535	Hope your trip to Florida was good.	Hope your trip to Florida was good.	141329230	1475775622734	1475775622840	p	80
277470	2975535	Hope your trip to Florida was good.	Hope your trip to Florida was good.	141329234	1475775622871	1475775622940	 	32
277470	2975535	Hope your trip to Florida was good.	Hope your trip to Florida was good.	141329302	1475775623269	1475775623373	t	84
277470	2975535	Hope your trip to Florida was good.	Hope your trip to Florida was good.	141329304	1475775623671	1475775623804	o	79
277470	2975535	Hope your trip to Florida was good.	Hope your trip to Florida was good.	141329307	1475775623851	1475775623924	 	32
277470	2975535	Hope your trip to Florida was good.	Hope your trip to Florida was good.	141329310	1475775623924	1475775624090	SHIFT	16
277470	2975535	Hope your trip to Florida was good.	Hope your trip to Florida was good.	141329312	1475775624002	1475775624105	F	70
277470	2975535	Hope your trip to Florida was good.	Hope your trip to Florida was good.	141329314	1475775624105	1475775624155	l	76
277470	2975535	Hope your trip to Florida was good.	Hope your trip to Florida was good.	141329330	1475775624200	1475775624337	o	79
277470	2975535	Hope your trip to Florida was good.	Hope your trip to Florida was good.	141329333	1475775624337	1475775624424	r	82
277470	2975535	Hope your trip to Florida was good.	Hope your trip to Florida was good.	141329337	1475775624424	1475775624570	i	73
277470	2975535	Hope your trip to Florida was good.	Hope your trip to Florida was good.	141329340	1475775624601	1475775624723	d	68
277470	2975535	Hope your trip to Florida was good.	Hope your trip to Florida was good.	141329382	1475775624691	1475775624799	a	65
277470	2975535	Hope your trip to Florida was good.	Hope your trip to Florida was good.	141329383	1475775624940	1475775625008	 	32
277470	2975535	Hope your trip to Florida was good.	Hope your trip to Florida was good.	141329386	1475775625132	1475775625291	w	87
277470	2975535	Hope your trip to Florida was good.	Hope your trip to Florida was good.	141329388	1475775625222	1475775625307	a	65
277470	2975535	Hope your trip to Florida was good.	Hope your trip to Florida was good.	141329390	1475775625416	1475775625539	s	83
277470	2975535	Hope your trip to Florida was good.	Hope your trip to Florida was good.	141329391	1475775625539	1475775625591	 	32
277470	2975535	Hope your trip to Florida was good.	Hope your trip to Florida was good.	141329422	1475775625656	1475775625742	g	71
277470	2975535	Hope your trip to Florida was good.	Hope your trip to Florida was good.	141329427	1475775625742	1475775625793	o	79
277470	2975535	Hope your trip to Florida was good.	Hope your trip to Florida was good.	141329434	1475775625886	1475775626006	o	79
277470	2975535	Hope your trip to Florida was good.	Hope your trip to Florida was good.	141329439	1475775626021	1475775626122	d	68
277470	2975535	Hope your trip to Florida was good.	Hope your trip to Florida was good.	141329444	1475775626122	1475775626238	.	190
277470	2975548	I need your home cell or whatever.	I need your home cell or whatever.	141329530	1475775627454	1475775627655	SHIFT	16
277470	2975548	I need your home cell or whatever.	I need your home cell or whatever.	141329534	1475775627532	1475775627655	I	73
277470	2975548	I need your home cell or whatever.	I need your home cell or whatever.	141329539	1475775627655	1475775627725	 	32
277470	2975548	I need your home cell or whatever.	I need your home cell or whatever.	141329543	1475775627772	1475775627876	n	78
277470	2975548	I need your home cell or whatever.	I need your home cell or whatever.	141329546	1475775627826	1475775627891	e	69
277470	2975548	I need your home cell or whatever.	I need your home cell or whatever.	141329550	1475775627969	1475775628026	e	69
277470	2975548	I need your home cell or whatever.	I need your home cell or whatever.	141329585	1475775628137	1475775628223	d	68
277470	2975548	I need your home cell or whatever.	I need your home cell or whatever.	141329588	1475775628285	1475775628326	 	32
277470	2975548	I need your home cell or whatever.	I need your home cell or whatever.	141329591	1475775628358	1475775628457	y	89
277470	2975548	I need your home cell or whatever.	I need your home cell or whatever.	141329596	1475775628457	1475775628656	o	79
277470	2975548	I need your home cell or whatever.	I need your home cell or whatever.	141329673	1475775628573	1475775628720	u	85
277470	2975548	I need your home cell or whatever.	I need your home cell or whatever.	141329676	1475775628782	1475775628826	 	32
277470	2975548	I need your home cell or whatever.	I need your home cell or whatever.	141329680	1475775629107	1475775629193	BKSP	8
277470	2975548	I need your home cell or whatever.	I need your home cell or whatever.	141329683	1475775629159	1475775629293	r	82
277470	2975548	I need your home cell or whatever.	I need your home cell or whatever.	141329688	1475775629239	1475775629324	 	32
277470	2975548	I need your home cell or whatever.	I need your home cell or whatever.	141329691	1475775629417	1475775629522	m	77
277470	2975548	I need your home cell or whatever.	I need your home cell or whatever.	141329695	1475775629678	1475775629758	h	72
277470	2975548	I need your home cell or whatever.	I need your home cell or whatever.	141329744	1475775629931	1475775630008	BKSP	8
277470	2975548	I need your home cell or whatever.	I need your home cell or whatever.	141329750	1475775630055	1475775630170	BKSP	8
277470	2975548	I need your home cell or whatever.	I need your home cell or whatever.	141329755	1475775630170	1475775630256	h	72
277470	2975548	I need your home cell or whatever.	I need your home cell or whatever.	141329758	1475775630475	1475775630626	o	79
277470	2975548	I need your home cell or whatever.	I need your home cell or whatever.	141329766	1475775630573	1475775630706	m	77
277470	2975548	I need your home cell or whatever.	I need your home cell or whatever.	141329772	1475775630657	1475775630756	e	69
277470	2975548	I need your home cell or whatever.	I need your home cell or whatever.	141329777	1475775630756	1475775630840	 	32
277470	2975548	I need your home cell or whatever.	I need your home cell or whatever.	141329804	1475775630920	1475775631054	c	67
277470	2975548	I need your home cell or whatever.	I need your home cell or whatever.	141329808	1475775631069	1475775631188	e	69
277470	2975548	I need your home cell or whatever.	I need your home cell or whatever.	141329814	1475775631188	1475775631242	l	76
277470	2975548	I need your home cell or whatever.	I need your home cell or whatever.	141329817	1475775631320	1475775631438	l	76
277470	2975548	I need your home cell or whatever.	I need your home cell or whatever.	141329819	1475775631438	1475775631524	 	32
277470	2975548	I need your home cell or whatever.	I need your home cell or whatever.	141329830	1475775631555	1475775631674	o	79
277470	2975548	I need your home cell or whatever.	I need your home cell or whatever.	141329833	1475775631625	1475775631738	r	82
277470	2975548	I need your home cell or whatever.	I need your home cell or whatever.	141329838	1475775631738	1475775631807	 	32
277470	2975548	I need your home cell or whatever.	I need your home cell or whatever.	141329842	1475775631870	1475775631957	w	87
277470	2975548	I need your home cell or whatever.	I need your home cell or whatever.	141329845	1475775631957	1475775632057	h	72
277470	2975548	I need your home cell or whatever.	I need your home cell or whatever.	141329880	1475775632057	1475775632214	a	65
277470	2975548	I need your home cell or whatever.	I need your home cell or whatever.	141329884	1475775632143	1475775632277	t	84
277470	2975548	I need your home cell or whatever.	I need your home cell or whatever.	141329888	1475775632277	1475775632388	e	69
277470	2975548	I need your home cell or whatever.	I need your home cell or whatever.	141329891	1475775632451	1475775632592	v	86
277470	2975548	I need your home cell or whatever.	I need your home cell or whatever.	141329894	1475775632608	1475775632773	e	69
277470	2975548	I need your home cell or whatever.	I need your home cell or whatever.	141329899	1475775632693	1475775632835	r	82
277470	2975548	I need your home cell or whatever.	I need your home cell or whatever.	141329904	1475775632788	1475775632968	.	190
