PARTICIPANT_ID	TEST_SECTION_ID	SENTENCE	USER_INPUT	KEYSTROKE_ID	PRESS_TIME	RELEASE_TIME	LETTER	KEYCODE
278718	2988996	I can get them.	I can get them.	141961055	1475784055543	1475784055808	SHIFT	16
278718	2988996	I can get them.	I can get them.	141961058	1475784055762	1475784055922	I	73
278718	2988996	I can get them.	I can get them.	141961063	1475784055880	1475784055974	 	32
278718	2988996	I can get them.	I can get them.	141961068	1475784055938	1475784056045	c	67
278718	2988996	I can get them.	I can get them.	141961104	1475784056001	1475784056125	a	65
278718	2988996	I can get them.	I can get them.	141961100	1475784056027	1475784056110	n	78
278718	2988996	I can get them.	I can get them.	141961110	1475784056125	1475784056210	 	32
278718	2988996	I can get them.	I can get them.	141961113	1475784056242	1475784056302	g	71
278718	2988996	I can get them.	I can get them.	141961117	1475784056302	1475784056447	e	69
278718	2988996	I can get them.	I can get them.	141961122	1475784056416	1475784056498	t	84
278718	2988996	I can get them.	I can get them.	141961141	1475784056471	1475784056578	 	32
278718	2988996	I can get them.	I can get them.	141961145	1475784056553	1475784056618	t	84
278718	2988996	I can get them.	I can get them.	141961149	1475784056634	1475784056696	h	72
278718	2988996	I can get them.	I can get them.	141961151	1475784056727	1475784056828	e	69
278718	2988996	I can get them.	I can get them.	141961154	1475784056788	1475784056869	m	77
278718	2988996	I can get them.	I can get them.	141961157	1475784056947	1475784057042	.	190
278718	2989005	Peace talks last week in Kirghizstan.	Peace talks last week in Kirghiztan.	141961341	1475784059340	1475784059520	SHIFT	16
278718	2989005	Peace talks last week in Kirghizstan.	Peace talks last week in Kirghiztan.	141961344	1475784059465	1475784059588	P	80
278718	2989005	Peace talks last week in Kirghizstan.	Peace talks last week in Kirghiztan.	141961350	1475784059538	1475784059629	e	69
278718	2989005	Peace talks last week in Kirghizstan.	Peace talks last week in Kirghiztan.	141961355	1475784059600	1475784059670	a	65
278718	2989005	Peace talks last week in Kirghizstan.	Peace talks last week in Kirghiztan.	141961373	1475784059733	1475784059830	v	86
278718	2989005	Peace talks last week in Kirghizstan.	Peace talks last week in Kirghiztan.	141961364	1475784059790	1475784059806	CTRL	17
278718	2989005	Peace talks last week in Kirghizstan.	Peace talks last week in Kirghiztan.	141961426	1475784059806	1475784059907	e	69
278718	2989005	Peace talks last week in Kirghizstan.	Peace talks last week in Kirghiztan.	141961429	1475784059872	1475784059957	 	32
278718	2989005	Peace talks last week in Kirghizstan.	Peace talks last week in Kirghiztan.	141961433	1475784060004	1475784060114	t	84
278718	2989005	Peace talks last week in Kirghizstan.	Peace talks last week in Kirghiztan.	141961437	1475784060088	1475784060202	a	65
278718	2989005	Peace talks last week in Kirghizstan.	Peace talks last week in Kirghiztan.	141961444	1475784060248	1475784060321	BKSP	8
278718	2989005	Peace talks last week in Kirghizstan.	Peace talks last week in Kirghiztan.	141961453	1475784060372	1475784060455	BKSP	8
278718	2989005	Peace talks last week in Kirghizstan.	Peace talks last week in Kirghiztan.	141961457	1475784060502	1475784060581	BKSP	8
278718	2989005	Peace talks last week in Kirghizstan.	Peace talks last week in Kirghiztan.	141961464	1475784060644	1475784060699	BKSP	8
278718	2989005	Peace talks last week in Kirghizstan.	Peace talks last week in Kirghiztan.	141961470	1475784060747	1475784060816	BKSP	8
278718	2989005	Peace talks last week in Kirghizstan.	Peace talks last week in Kirghiztan.	141961474	1475784061020	1475784061129	c	67
278718	2989005	Peace talks last week in Kirghizstan.	Peace talks last week in Kirghiztan.	141961478	1475784061083	1475784061205	e	69
278718	2989005	Peace talks last week in Kirghizstan.	Peace talks last week in Kirghiztan.	141961485	1475784061166	1475784061240	 	32
278718	2989005	Peace talks last week in Kirghizstan.	Peace talks last week in Kirghiztan.	141961488	1475784061303	1475784061396	t	84
278718	2989005	Peace talks last week in Kirghizstan.	Peace talks last week in Kirghiztan.	141961493	1475784061373	1475784061521	a	65
278718	2989005	Peace talks last week in Kirghizstan.	Peace talks last week in Kirghiztan.	141961499	1475784061427	1475784061521	l	76
278718	2989005	Peace talks last week in Kirghizstan.	Peace talks last week in Kirghiztan.	141961506	1475784061583	1475784061641	s	75
278718	2989005	Peace talks last week in Kirghizstan.	Peace talks last week in Kirghiztan.	141961521	1475784061667	1475784061750	 	32
278718	2989005	Peace talks last week in Kirghizstan.	Peace talks last week in Kirghiztan.	141961528	1475784061796	1475784061906	l	76
278718	2989005	Peace talks last week in Kirghizstan.	Peace talks last week in Kirghiztan.	141961536	1475784061846	1475784061974	a	65
278718	2989005	Peace talks last week in Kirghizstan.	Peace talks last week in Kirghiztan.	141961542	1475784061892	1475784062009	s	83
278718	2989005	Peace talks last week in Kirghizstan.	Peace talks last week in Kirghiztan.	141961581	1475784061990	1475784062077	t	84
278718	2989005	Peace talks last week in Kirghizstan.	Peace talks last week in Kirghiztan.	141961584	1475784062051	1475784062135	 	32
278718	2989005	Peace talks last week in Kirghizstan.	Peace talks last week in Kirghiztan.	141961591	1475784062150	1475784062268	w	87
278718	2989005	Peace talks last week in Kirghizstan.	Peace talks last week in Kirghiztan.	141961597	1475784062243	1475784062291	e	69
278718	2989005	Peace talks last week in Kirghizstan.	Peace talks last week in Kirghiztan.	141961603	1475784062323	1475784062416	e	69
278718	2989005	Peace talks last week in Kirghizstan.	Peace talks last week in Kirghiztan.	141961609	1475784062452	1475784062524	k	75
278718	2989005	Peace talks last week in Kirghizstan.	Peace talks last week in Kirghiztan.	141961650	1475784062589	1475784062674	 	32
278718	2989005	Peace talks last week in Kirghizstan.	Peace talks last week in Kirghiztan.	141961655	1475784062692	1475784062758	i	73
278718	2989005	Peace talks last week in Kirghizstan.	Peace talks last week in Kirghiztan.	141961659	1475784062820	1475784062894	n	78
278718	2989005	Peace talks last week in Kirghizstan.	Peace talks last week in Kirghiztan.	141961664	1475784062875	1475784062967	 	32
278718	2989005	Peace talks last week in Kirghizstan.	Peace talks last week in Kirghiztan.	141961665	1475784063029	1475784063192	SHIFT	16
278718	2989005	Peace talks last week in Kirghizstan.	Peace talks last week in Kirghiztan.	141961721	1475784063154	1475784063234	K	75
278718	2989005	Peace talks last week in Kirghizstan.	Peace talks last week in Kirghiztan.	141961725	1475784063328	1475784063401	i	73
278718	2989005	Peace talks last week in Kirghizstan.	Peace talks last week in Kirghiztan.	141961732	1475784063417	1475784063492	r	82
278718	2989005	Peace talks last week in Kirghizstan.	Peace talks last week in Kirghiztan.	141961737	1475784063633	1475784063686	g	71
278718	2989005	Peace talks last week in Kirghizstan.	Peace talks last week in Kirghiztan.	141961742	1475784063936	1475784064076	h	72
278718	2989005	Peace talks last week in Kirghizstan.	Peace talks last week in Kirghiztan.	141961783	1475784064017	1475784064149	i	73
278718	2989005	Peace talks last week in Kirghizstan.	Peace talks last week in Kirghiztan.	141961789	1475784064259	1475784064341	z	90
278718	2989005	Peace talks last week in Kirghizstan.	Peace talks last week in Kirghiztan.	141961792	1475784064485	1475784064566	t	84
278718	2989005	Peace talks last week in Kirghizstan.	Peace talks last week in Kirghiztan.	141961797	1475784064537	1475784064670	a	65
278718	2989005	Peace talks last week in Kirghizstan.	Peace talks last week in Kirghiztan.	141961799	1475784064618	1475784064686	n	78
278718	2989005	Peace talks last week in Kirghizstan.	Peace talks last week in Kirghiztan.	141961801	1475784064873	1475784064945	.	190
278718	2989017	The local forecasters are showing rain for Thanksgiving here.	The local forecasters are showing rain for Thanksgiving here.	141961991	1475784066670	1475784066854	SHIFT	16
278718	2989017	The local forecasters are showing rain for Thanksgiving here.	The local forecasters are showing rain for Thanksgiving here.	141961985	1475784066763	1475784066838	T	84
278718	2989017	The local forecasters are showing rain for Thanksgiving here.	The local forecasters are showing rain for Thanksgiving here.	141961997	1475784066963	1475784067038	h	72
278718	2989017	The local forecasters are showing rain for Thanksgiving here.	The local forecasters are showing rain for Thanksgiving here.	141962003	1475784067014	1475784067112	e	69
278718	2989017	The local forecasters are showing rain for Thanksgiving here.	The local forecasters are showing rain for Thanksgiving here.	141962007	1475784067080	1475784067195	 	32
278718	2989017	The local forecasters are showing rain for Thanksgiving here.	The local forecasters are showing rain for Thanksgiving here.	141962017	1475784067176	1475784067308	l	76
278718	2989017	The local forecasters are showing rain for Thanksgiving here.	The local forecasters are showing rain for Thanksgiving here.	141962019	1475784067229	1475784067323	o	79
278718	2989017	The local forecasters are showing rain for Thanksgiving here.	The local forecasters are showing rain for Thanksgiving here.	141962023	1475784067279	1475784067378	c	67
278718	2989017	The local forecasters are showing rain for Thanksgiving here.	The local forecasters are showing rain for Thanksgiving here.	141962028	1475784067362	1475784067479	a	65
278718	2989017	The local forecasters are showing rain for Thanksgiving here.	The local forecasters are showing rain for Thanksgiving here.	141962032	1475784067414	1475784067494	l	76
278718	2989017	The local forecasters are showing rain for Thanksgiving here.	The local forecasters are showing rain for Thanksgiving here.	141962038	1475784067510	1475784067598	 	32
278718	2989017	The local forecasters are showing rain for Thanksgiving here.	The local forecasters are showing rain for Thanksgiving here.	141962064	1475784067595	1475784067673	f	70
278718	2989017	The local forecasters are showing rain for Thanksgiving here.	The local forecasters are showing rain for Thanksgiving here.	141962068	1475784067673	1475784067782	o	79
278718	2989017	The local forecasters are showing rain for Thanksgiving here.	The local forecasters are showing rain for Thanksgiving here.	141962072	1475784067747	1475784067838	r	82
278718	2989017	The local forecasters are showing rain for Thanksgiving here.	The local forecasters are showing rain for Thanksgiving here.	141962075	1475784067806	1475784067879	e	69
278718	2989017	The local forecasters are showing rain for Thanksgiving here.	The local forecasters are showing rain for Thanksgiving here.	141962080	1475784067957	1475784068046	c	67
278718	2989017	The local forecasters are showing rain for Thanksgiving here.	The local forecasters are showing rain for Thanksgiving here.	141962172	1475784068062	1475784068239	a	65
278718	2989017	The local forecasters are showing rain for Thanksgiving here.	The local forecasters are showing rain for Thanksgiving here.	141962082	1475784068114	1475784068213	z	90
278718	2989017	The local forecasters are showing rain for Thanksgiving here.	The local forecasters are showing rain for Thanksgiving here.	141962179	1475784068271	1475784068346	t	84
278718	2989017	The local forecasters are showing rain for Thanksgiving here.	The local forecasters are showing rain for Thanksgiving here.	141962186	1475784068487	1475784068579	BKSP	8
278718	2989017	The local forecasters are showing rain for Thanksgiving here.	The local forecasters are showing rain for Thanksgiving here.	141962191	1475784068642	1475784068713	BKSP	8
278718	2989017	The local forecasters are showing rain for Thanksgiving here.	The local forecasters are showing rain for Thanksgiving here.	141962195	1475784068885	1475784068973	s	83
278718	2989017	The local forecasters are showing rain for Thanksgiving here.	The local forecasters are showing rain for Thanksgiving here.	141962197	1475784069020	1475784069112	t	84
278718	2989017	The local forecasters are showing rain for Thanksgiving here.	The local forecasters are showing rain for Thanksgiving here.	141962200	1475784069126	1475784069259	e	69
278718	2989017	The local forecasters are showing rain for Thanksgiving here.	The local forecasters are showing rain for Thanksgiving here.	141962210	1475784069222	1475784069300	r	82
278718	2989017	The local forecasters are showing rain for Thanksgiving here.	The local forecasters are showing rain for Thanksgiving here.	141962215	1475784069361	1475784069451	s	83
278718	2989017	The local forecasters are showing rain for Thanksgiving here.	The local forecasters are showing rain for Thanksgiving here.	141962218	1475784069484	1475784069578	 	32
278718	2989017	The local forecasters are showing rain for Thanksgiving here.	The local forecasters are showing rain for Thanksgiving here.	141962221	1475784069548	1475784069670	a	65
278718	2989017	The local forecasters are showing rain for Thanksgiving here.	The local forecasters are showing rain for Thanksgiving here.	141962229	1475784069670	1475784069766	r	82
278718	2989017	The local forecasters are showing rain for Thanksgiving here.	The local forecasters are showing rain for Thanksgiving here.	141962243	1475784069727	1475784069797	e	69
278718	2989017	The local forecasters are showing rain for Thanksgiving here.	The local forecasters are showing rain for Thanksgiving here.	141962247	1475784069780	1475784069897	 	32
278718	2989017	The local forecasters are showing rain for Thanksgiving here.	The local forecasters are showing rain for Thanksgiving here.	141962251	1475784069879	1475784069996	s	83
278718	2989017	The local forecasters are showing rain for Thanksgiving here.	The local forecasters are showing rain for Thanksgiving here.	141962256	1475784070027	1475784070143	h	72
278718	2989017	The local forecasters are showing rain for Thanksgiving here.	The local forecasters are showing rain for Thanksgiving here.	141962262	1475784070099	1475784070190	o	79
278718	2989017	The local forecasters are showing rain for Thanksgiving here.	The local forecasters are showing rain for Thanksgiving here.	141962286	1475784070159	1475784070258	w	87
278718	2989017	The local forecasters are showing rain for Thanksgiving here.	The local forecasters are showing rain for Thanksgiving here.	141962287	1475784070258	1475784070332	i	73
278718	2989017	The local forecasters are showing rain for Thanksgiving here.	The local forecasters are showing rain for Thanksgiving here.	141962295	1475784070395	1475784070493	n	78
278718	2989017	The local forecasters are showing rain for Thanksgiving here.	The local forecasters are showing rain for Thanksgiving here.	141962291	1475784070430	1475784070493	g	71
278718	2989017	The local forecasters are showing rain for Thanksgiving here.	The local forecasters are showing rain for Thanksgiving here.	141962299	1475784070508	1475784070585	 	32
278718	2989017	The local forecasters are showing rain for Thanksgiving here.	The local forecasters are showing rain for Thanksgiving here.	141962305	1475784070600	1475784070716	r	82
278718	2989017	The local forecasters are showing rain for Thanksgiving here.	The local forecasters are showing rain for Thanksgiving here.	141962328	1475784070665	1475784070790	a	65
278718	2989017	The local forecasters are showing rain for Thanksgiving here.	The local forecasters are showing rain for Thanksgiving here.	141962326	1475784070709	1475784070775	i	73
278718	2989017	The local forecasters are showing rain for Thanksgiving here.	The local forecasters are showing rain for Thanksgiving here.	141962332	1475784070822	1475784070914	n	78
278718	2989017	The local forecasters are showing rain for Thanksgiving here.	The local forecasters are showing rain for Thanksgiving here.	141962337	1475784070876	1475784070950	 	32
278718	2989017	The local forecasters are showing rain for Thanksgiving here.	The local forecasters are showing rain for Thanksgiving here.	141962342	1475784070926	1475784071007	f	70
278718	2989017	The local forecasters are showing rain for Thanksgiving here.	The local forecasters are showing rain for Thanksgiving here.	141962347	1475784071022	1475784071123	o	79
278718	2989017	The local forecasters are showing rain for Thanksgiving here.	The local forecasters are showing rain for Thanksgiving here.	141962399	1475784071093	1475784071168	r	82
278718	2989017	The local forecasters are showing rain for Thanksgiving here.	The local forecasters are showing rain for Thanksgiving here.	141962406	1475784071150	1475784071241	 	32
278718	2989017	The local forecasters are showing rain for Thanksgiving here.	The local forecasters are showing rain for Thanksgiving here.	141962410	1475784071226	1475784071308	t	84
278718	2989017	The local forecasters are showing rain for Thanksgiving here.	The local forecasters are showing rain for Thanksgiving here.	141962413	1475784071526	1475784071600	BKSP	8
278718	2989017	The local forecasters are showing rain for Thanksgiving here.	The local forecasters are showing rain for Thanksgiving here.	141962421	1475784071678	1475784071808	SHIFT	16
278718	2989017	The local forecasters are showing rain for Thanksgiving here.	The local forecasters are showing rain for Thanksgiving here.	141962424	1475784071725	1475784071808	T	84
278718	2989017	The local forecasters are showing rain for Thanksgiving here.	The local forecasters are showing rain for Thanksgiving here.	141962499	1475784071964	1475784072034	g	72
278718	2989017	The local forecasters are showing rain for Thanksgiving here.	The local forecasters are showing rain for Thanksgiving here.	141962501	1475784072112	1475784072168	e	69
278718	2989017	The local forecasters are showing rain for Thanksgiving here.	The local forecasters are showing rain for Thanksgiving here.	141962506	1475784072215	1475784072292	n	78
278718	2989017	The local forecasters are showing rain for Thanksgiving here.	The local forecasters are showing rain for Thanksgiving here.	141962512	1475784072278	1475784072381	a	65
278718	2989017	The local forecasters are showing rain for Thanksgiving here.	The local forecasters are showing rain for Thanksgiving here.	141962519	1475784072459	1475784072530	BKSP	8
278718	2989017	The local forecasters are showing rain for Thanksgiving here.	The local forecasters are showing rain for Thanksgiving here.	141962524	1475784072593	1475784072652	BKSP	8
278718	2989017	The local forecasters are showing rain for Thanksgiving here.	The local forecasters are showing rain for Thanksgiving here.	141962530	1475784072730	1475784072785	BKSP	8
278718	2989017	The local forecasters are showing rain for Thanksgiving here.	The local forecasters are showing rain for Thanksgiving here.	141962536	1475784073053	1475784073110	BKSP	8
278718	2989017	The local forecasters are showing rain for Thanksgiving here.	The local forecasters are showing rain for Thanksgiving here.	141962539	1475784073282	1475784073385	a	65
278718	2989017	The local forecasters are showing rain for Thanksgiving here.	The local forecasters are showing rain for Thanksgiving here.	141962567	1475784073336	1475784073471	n	78
278718	2989017	The local forecasters are showing rain for Thanksgiving here.	The local forecasters are showing rain for Thanksgiving here.	141962572	1475784073416	1475784073536	k	75
278718	2989017	The local forecasters are showing rain for Thanksgiving here.	The local forecasters are showing rain for Thanksgiving here.	141962578	1475784073502	1475784073610	s	83
278718	2989017	The local forecasters are showing rain for Thanksgiving here.	The local forecasters are showing rain for Thanksgiving here.	141962586	1475784073829	1475784073934	g	71
278718	2989017	The local forecasters are showing rain for Thanksgiving here.	The local forecasters are showing rain for Thanksgiving here.	141962591	1475784073950	1475784074076	i	73
278718	2989017	The local forecasters are showing rain for Thanksgiving here.	The local forecasters are showing rain for Thanksgiving here.	141962596	1475784074107	1475784074178	v	86
278718	2989017	The local forecasters are showing rain for Thanksgiving here.	The local forecasters are showing rain for Thanksgiving here.	141962627	1475784074251	1475784074318	i	73
278718	2989017	The local forecasters are showing rain for Thanksgiving here.	The local forecasters are showing rain for Thanksgiving here.	141962632	1475784074494	1475784074578	n	78
278718	2989017	The local forecasters are showing rain for Thanksgiving here.	The local forecasters are showing rain for Thanksgiving here.	141962639	1475784074594	1475784074689	g	71
278718	2989017	The local forecasters are showing rain for Thanksgiving here.	The local forecasters are showing rain for Thanksgiving here.	141962643	1475784074662	1475784074736	 	32
278718	2989017	The local forecasters are showing rain for Thanksgiving here.	The local forecasters are showing rain for Thanksgiving here.	141962648	1475784074767	1475784074836	h	72
278718	2989017	The local forecasters are showing rain for Thanksgiving here.	The local forecasters are showing rain for Thanksgiving here.	141962680	1475784074836	1475784074901	e	69
278718	2989017	The local forecasters are showing rain for Thanksgiving here.	The local forecasters are showing rain for Thanksgiving here.	141962686	1475784074894	1475784075000	r	82
278718	2989017	The local forecasters are showing rain for Thanksgiving here.	The local forecasters are showing rain for Thanksgiving here.	141962693	1475784074946	1475784075051	e	69
278718	2989017	The local forecasters are showing rain for Thanksgiving here.	The local forecasters are showing rain for Thanksgiving here.	141962701	1475784075051	1475784075135	.	190
278718	2989031	Opposition leaders have urged him to call off the visit.	Opposition leaders have urged him to call off the visit.	141963041	1475784077942	1475784078135	SHIFT	16
278718	2989031	Opposition leaders have urged him to call off the visit.	Opposition leaders have urged him to call off the visit.	141963047	1475784078086	1475784078188	P	80
278718	2989031	Opposition leaders have urged him to call off the visit.	Opposition leaders have urged him to call off the visit.	141963051	1475784078282	1475784078351	[	219
278718	2989031	Opposition leaders have urged him to call off the visit.	Opposition leaders have urged him to call off the visit.	141963055	1475784078413	1475784078490	[	219
278718	2989031	Opposition leaders have urged him to call off the visit.	Opposition leaders have urged him to call off the visit.	141963056	1475784078646	1475784078722	BKSP	8
278718	2989031	Opposition leaders have urged him to call off the visit.	Opposition leaders have urged him to call off the visit.	141963058	1475784078769	1475784078834	BKSP	8
278718	2989031	Opposition leaders have urged him to call off the visit.	Opposition leaders have urged him to call off the visit.	141963060	1475784078959	1475784079034	BKSP	8
278718	2989031	Opposition leaders have urged him to call off the visit.	Opposition leaders have urged him to call off the visit.	141963064	1475784079112	1475784079311	SHIFT	16
278718	2989031	Opposition leaders have urged him to call off the visit.	Opposition leaders have urged him to call off the visit.	141963068	1475784079253	1475784079389	O	79
278718	2989031	Opposition leaders have urged him to call off the visit.	Opposition leaders have urged him to call off the visit.	141963074	1475784079529	1475784079622	p	80
278718	2989031	Opposition leaders have urged him to call off the visit.	Opposition leaders have urged him to call off the visit.	141963172	1475784079742	1475784079808	o	79
278718	2989031	Opposition leaders have urged him to call off the visit.	Opposition leaders have urged him to call off the visit.	141963178	1475784080074	1475784080152	BKSP	8
278718	2989031	Opposition leaders have urged him to call off the visit.	Opposition leaders have urged him to call off the visit.	141963183	1475784080286	1475784080415	p	80
278718	2989031	Opposition leaders have urged him to call off the visit.	Opposition leaders have urged him to call off the visit.	141963187	1475784080384	1475784080442	o	79
278718	2989031	Opposition leaders have urged him to call off the visit.	Opposition leaders have urged him to call off the visit.	141963193	1475784081023	1475784081139	s	83
278718	2989031	Opposition leaders have urged him to call off the visit.	Opposition leaders have urged him to call off the visit.	141963196	1475784081154	1475784081227	i	73
278718	2989031	Opposition leaders have urged him to call off the visit.	Opposition leaders have urged him to call off the visit.	141963215	1475784081316	1475784081420	t	84
278718	2989031	Opposition leaders have urged him to call off the visit.	Opposition leaders have urged him to call off the visit.	141963222	1475784081392	1475784081511	i	73
278718	2989031	Opposition leaders have urged him to call off the visit.	Opposition leaders have urged him to call off the visit.	141963224	1475784081453	1475784081542	o	79
278718	2989031	Opposition leaders have urged him to call off the visit.	Opposition leaders have urged him to call off the visit.	141963228	1475784081605	1475784081680	n	78
278718	2989031	Opposition leaders have urged him to call off the visit.	Opposition leaders have urged him to call off the visit.	141963262	1475784081660	1475784081752	 	32
278718	2989031	Opposition leaders have urged him to call off the visit.	Opposition leaders have urged him to call off the visit.	141963266	1475784081892	1475784081997	l	76
278718	2989031	Opposition leaders have urged him to call off the visit.	Opposition leaders have urged him to call off the visit.	141963271	1475784081969	1475784082057	e	69
278718	2989031	Opposition leaders have urged him to call off the visit.	Opposition leaders have urged him to call off the visit.	141963275	1475784082027	1475784082124	a	65
278718	2989031	Opposition leaders have urged him to call off the visit.	Opposition leaders have urged him to call off the visit.	141963276	1475784082124	1475784082203	d	68
278718	2989031	Opposition leaders have urged him to call off the visit.	Opposition leaders have urged him to call off the visit.	141963277	1475784082218	1475784082306	e	69
278718	2989031	Opposition leaders have urged him to call off the visit.	Opposition leaders have urged him to call off the visit.	141963291	1475784082278	1475784082376	r	82
278718	2989031	Opposition leaders have urged him to call off the visit.	Opposition leaders have urged him to call off the visit.	141963294	1475784082408	1475784082508	s	83
278718	2989031	Opposition leaders have urged him to call off the visit.	Opposition leaders have urged him to call off the visit.	141963299	1475784082477	1475784082576	 	32
278718	2989031	Opposition leaders have urged him to call off the visit.	Opposition leaders have urged him to call off the visit.	141963304	1475784082716	1475784082807	h	72
278718	2989031	Opposition leaders have urged him to call off the visit.	Opposition leaders have urged him to call off the visit.	141963310	1475784082778	1475784082853	a	65
278718	2989031	Opposition leaders have urged him to call off the visit.	Opposition leaders have urged him to call off the visit.	141963315	1475784082884	1475784082974	v	86
278718	2989031	Opposition leaders have urged him to call off the visit.	Opposition leaders have urged him to call off the visit.	141963329	1475784082954	1475784083047	e	69
278718	2989031	Opposition leaders have urged him to call off the visit.	Opposition leaders have urged him to call off the visit.	141963332	1475784083012	1475784083090	 	32
278718	2989031	Opposition leaders have urged him to call off the visit.	Opposition leaders have urged him to call off the visit.	141963336	1475784083078	1475784083170	u	85
278718	2989031	Opposition leaders have urged him to call off the visit.	Opposition leaders have urged him to call off the visit.	141963339	1475784083144	1475784083195	r	82
278718	2989031	Opposition leaders have urged him to call off the visit.	Opposition leaders have urged him to call off the visit.	141963343	1475784083273	1475784083354	g	71
278718	2989031	Opposition leaders have urged him to call off the visit.	Opposition leaders have urged him to call off the visit.	141963346	1475784083370	1475784083476	e	69
278718	2989031	Opposition leaders have urged him to call off the visit.	Opposition leaders have urged him to call off the visit.	141963361	1475784083506	1475784083620	d	68
278718	2989031	Opposition leaders have urged him to call off the visit.	Opposition leaders have urged him to call off the visit.	141963363	1475784083593	1475784083660	 	32
278718	2989031	Opposition leaders have urged him to call off the visit.	Opposition leaders have urged him to call off the visit.	141963364	1475784083770	1475784083829	h	72
278718	2989031	Opposition leaders have urged him to call off the visit.	Opposition leaders have urged him to call off the visit.	141963365	1475784083829	1475784083897	i	73
278718	2989031	Opposition leaders have urged him to call off the visit.	Opposition leaders have urged him to call off the visit.	141963366	1475784083975	1475784084067	m	77
278718	2989031	Opposition leaders have urged him to call off the visit.	Opposition leaders have urged him to call off the visit.	141963375	1475784084023	1475784084097	 	32
278718	2989031	Opposition leaders have urged him to call off the visit.	Opposition leaders have urged him to call off the visit.	141963378	1475784084076	1475784084176	t	84
278718	2989031	Opposition leaders have urged him to call off the visit.	Opposition leaders have urged him to call off the visit.	141963382	1475784084176	1475784084277	o	79
278718	2989031	Opposition leaders have urged him to call off the visit.	Opposition leaders have urged him to call off the visit.	141963388	1475784084228	1475784084296	 	32
278718	2989031	Opposition leaders have urged him to call off the visit.	Opposition leaders have urged him to call off the visit.	141963395	1475784084405	1475784084497	c	67
278718	2989031	Opposition leaders have urged him to call off the visit.	Opposition leaders have urged him to call off the visit.	141963413	1475784084464	1475784084581	a	65
278718	2989031	Opposition leaders have urged him to call off the visit.	Opposition leaders have urged him to call off the visit.	141963416	1475784084523	1475784084597	l	76
278718	2989031	Opposition leaders have urged him to call off the visit.	Opposition leaders have urged him to call off the visit.	141963417	1475784084644	1475784084712	l	76
278718	2989031	Opposition leaders have urged him to call off the visit.	Opposition leaders have urged him to call off the visit.	141963420	1475784084739	1475784084806	 	32
278718	2989031	Opposition leaders have urged him to call off the visit.	Opposition leaders have urged him to call off the visit.	141963422	1475784084837	1475784084931	o	79
278718	2989031	Opposition leaders have urged him to call off the visit.	Opposition leaders have urged him to call off the visit.	141963467	1475784084884	1475784084951	f	70
278718	2989031	Opposition leaders have urged him to call off the visit.	Opposition leaders have urged him to call off the visit.	141963469	1475784085201	1475784085258	 	32
278718	2989031	Opposition leaders have urged him to call off the visit.	Opposition leaders have urged him to call off the visit.	141963471	1475784085431	1475784085538	BKSP	8
278718	2989031	Opposition leaders have urged him to call off the visit.	Opposition leaders have urged him to call off the visit.	141963475	1475784085538	1475784085628	f	70
278718	2989031	Opposition leaders have urged him to call off the visit.	Opposition leaders have urged him to call off the visit.	141963478	1475784085644	1475784085728	 	32
278718	2989031	Opposition leaders have urged him to call off the visit.	Opposition leaders have urged him to call off the visit.	141963482	1475784085728	1475784085822	t	84
278718	2989031	Opposition leaders have urged him to call off the visit.	Opposition leaders have urged him to call off the visit.	141963486	1475784085869	1475784085925	h	72
278718	2989031	Opposition leaders have urged him to call off the visit.	Opposition leaders have urged him to call off the visit.	141963494	1475784085943	1475784086047	e	69
278718	2989031	Opposition leaders have urged him to call off the visit.	Opposition leaders have urged him to call off the visit.	141963496	1475784086009	1475784086079	 	32
278718	2989031	Opposition leaders have urged him to call off the visit.	Opposition leaders have urged him to call off the visit.	141963497	1475784086142	1475784086225	v	86
278718	2989031	Opposition leaders have urged him to call off the visit.	Opposition leaders have urged him to call off the visit.	141963498	1475784086271	1475784086332	i	73
278718	2989031	Opposition leaders have urged him to call off the visit.	Opposition leaders have urged him to call off the visit.	141963499	1475784086348	1475784086424	s	83
278718	2989031	Opposition leaders have urged him to call off the visit.	Opposition leaders have urged him to call off the visit.	141963511	1475784086434	1475784086498	i	73
278718	2989031	Opposition leaders have urged him to call off the visit.	Opposition leaders have urged him to call off the visit.	141963514	1475784086564	1475784086632	t	84
278718	2989031	Opposition leaders have urged him to call off the visit.	Opposition leaders have urged him to call off the visit.	141963517	1475784086648	1475784086715	.	190
278718	2989043	He wrote numerous books on human development.	He wrote numerous books on human development.	141963654	1475784088958	1475784089190	SHIFT	16
278718	2989043	He wrote numerous books on human development.	He wrote numerous books on human development.	141963652	1475784089063	1475784089144	H	72
278718	2989043	He wrote numerous books on human development.	He wrote numerous books on human development.	141963655	1475784089347	1475784089432	e	69
278718	2989043	He wrote numerous books on human development.	He wrote numerous books on human development.	141963658	1475784089479	1475784089598	 	32
278718	2989043	He wrote numerous books on human development.	He wrote numerous books on human development.	141963661	1475784089566	1475784089735	w	87
278718	2989043	He wrote numerous books on human development.	He wrote numerous books on human development.	141963697	1475784089691	1475784089844	r	82
278718	2989043	He wrote numerous books on human development.	He wrote numerous books on human development.	141963705	1475784089808	1475784089932	o	79
278718	2989043	He wrote numerous books on human development.	He wrote numerous books on human development.	141963711	1475784089947	1475784090088	t	84
278718	2989043	He wrote numerous books on human development.	He wrote numerous books on human development.	141963720	1475784090049	1475784090176	e	69
278718	2989043	He wrote numerous books on human development.	He wrote numerous books on human development.	141963723	1475784090136	1475784090265	 	32
278718	2989043	He wrote numerous books on human development.	He wrote numerous books on human development.	141963730	1475784090312	1475784090462	n	78
278718	2989043	He wrote numerous books on human development.	He wrote numerous books on human development.	141963748	1475784090386	1475784090473	u	85
278718	2989043	He wrote numerous books on human development.	He wrote numerous books on human development.	141963750	1475784090567	1475784090667	m	77
278718	2989043	He wrote numerous books on human development.	He wrote numerous books on human development.	141963753	1475784090667	1475784090766	e	69
278718	2989043	He wrote numerous books on human development.	He wrote numerous books on human development.	141963755	1475784090891	1475784090977	r	82
278718	2989043	He wrote numerous books on human development.	He wrote numerous books on human development.	141963757	1475784090993	1475784091061	o	79
278718	2989043	He wrote numerous books on human development.	He wrote numerous books on human development.	141963760	1475784091171	1475784091247	u	85
278718	2989043	He wrote numerous books on human development.	He wrote numerous books on human development.	141963776	1475784091221	1475784091309	s	83
278718	2989043	He wrote numerous books on human development.	He wrote numerous books on human development.	141963778	1475784091280	1475784091377	 	32
278718	2989043	He wrote numerous books on human development.	He wrote numerous books on human development.	141963781	1475784091409	1475784091507	b	66
278718	2989043	He wrote numerous books on human development.	He wrote numerous books on human development.	141963783	1475784091486	1475784091537	o	79
278718	2989043	He wrote numerous books on human development.	He wrote numerous books on human development.	141963785	1475784091599	1475784091662	o	79
278718	2989043	He wrote numerous books on human development.	He wrote numerous books on human development.	141963786	1475784091725	1475784091823	k	75
278718	2989043	He wrote numerous books on human development.	He wrote numerous books on human development.	141963791	1475784091803	1475784091880	s	83
278718	2989043	He wrote numerous books on human development.	He wrote numerous books on human development.	141963795	1475784091853	1475784091980	 	32
278718	2989043	He wrote numerous books on human development.	He wrote numerous books on human development.	141963801	1475784091919	1475784091996	o	79
278718	2989043	He wrote numerous books on human development.	He wrote numerous books on human development.	141963807	1475784092058	1475784092155	n	78
278718	2989043	He wrote numerous books on human development.	He wrote numerous books on human development.	141963812	1475784092170	1475784092270	 	32
278718	2989043	He wrote numerous books on human development.	He wrote numerous books on human development.	141963816	1475784092302	1475784092416	h	72
278718	2989043	He wrote numerous books on human development.	He wrote numerous books on human development.	141963841	1475784092371	1475784092446	u	85
278718	2989043	He wrote numerous books on human development.	He wrote numerous books on human development.	141963848	1475784092556	1475784092645	m	77
278718	2989043	He wrote numerous books on human development.	He wrote numerous books on human development.	141963856	1475784092645	1475784092747	a	65
278718	2989043	He wrote numerous books on human development.	He wrote numerous books on human development.	141963867	1475784092714	1475784092802	n	78
278718	2989043	He wrote numerous books on human development.	He wrote numerous books on human development.	141963873	1475784092818	1475784092934	 	32
278718	2989043	He wrote numerous books on human development.	He wrote numerous books on human development.	141963876	1475784093015	1475784093125	d	68
278718	2989043	He wrote numerous books on human development.	He wrote numerous books on human development.	141963901	1475784093103	1475784093180	e	69
278718	2989043	He wrote numerous books on human development.	He wrote numerous books on human development.	141963902	1475784093290	1475784093364	v	86
278718	2989043	He wrote numerous books on human development.	He wrote numerous books on human development.	141963904	1475784093380	1475784093485	e	69
278718	2989043	He wrote numerous books on human development.	He wrote numerous books on human development.	141963907	1475784093532	1475784093706	l	76
278718	2989043	He wrote numerous books on human development.	He wrote numerous books on human development.	141963911	1475784093646	1475784093722	o	79
278718	2989043	He wrote numerous books on human development.	He wrote numerous books on human development.	141963915	1475784093831	1475784093914	p	80
278718	2989043	He wrote numerous books on human development.	He wrote numerous books on human development.	141963927	1475784094016	1475784094102	m	77
278718	2989043	He wrote numerous books on human development.	He wrote numerous books on human development.	141963931	1475784094089	1475784094192	e	69
278718	2989043	He wrote numerous books on human development.	He wrote numerous books on human development.	141963940	1475784094165	1475784094248	n	78
278718	2989043	He wrote numerous books on human development.	He wrote numerous books on human development.	141963944	1475784094232	1475784094315	t	84
278718	2989043	He wrote numerous books on human development.	He wrote numerous books on human development.	141963948	1475784094392	1475784094439	.	190
278718	2989055	Hope you guys are doing fine.	Hope you guys are doing fine.	141964049	1475784096105	1475784096256	SHIFT	16
278718	2989055	Hope you guys are doing fine.	Hope you guys are doing fine.	141964042	1475784096167	1475784096256	H	72
278718	2989055	Hope you guys are doing fine.	Hope you guys are doing fine.	141964057	1475784096350	1475784096515	o	79
278718	2989055	Hope you guys are doing fine.	Hope you guys are doing fine.	141964062	1475784096455	1475784096581	p	80
278718	2989055	Hope you guys are doing fine.	Hope you guys are doing fine.	141964105	1475784096484	1475784096590	e	69
278718	2989055	Hope you guys are doing fine.	Hope you guys are doing fine.	141964106	1475784096567	1475784096665	 	32
278718	2989055	Hope you guys are doing fine.	Hope you guys are doing fine.	141964107	1475784096712	1475784096805	y	89
278718	2989055	Hope you guys are doing fine.	Hope you guys are doing fine.	141964109	1475784096756	1475784096919	o	79
278718	2989055	Hope you guys are doing fine.	Hope you guys are doing fine.	141964110	1475784096856	1475784096990	u	85
278718	2989055	Hope you guys are doing fine.	Hope you guys are doing fine.	141964113	1475784096966	1475784097072	 	32
278718	2989055	Hope you guys are doing fine.	Hope you guys are doing fine.	141964117	1475784097322	1475784097393	g	71
278718	2989055	Hope you guys are doing fine.	Hope you guys are doing fine.	141964126	1475784097393	1475784097457	u	85
278718	2989055	Hope you guys are doing fine.	Hope you guys are doing fine.	141964129	1475784097537	1475784097626	y	89
278718	2989055	Hope you guys are doing fine.	Hope you guys are doing fine.	141964132	1475784097583	1475784097637	s	83
278718	2989055	Hope you guys are doing fine.	Hope you guys are doing fine.	141964136	1475784097637	1475784097753	 	32
278718	2989055	Hope you guys are doing fine.	Hope you guys are doing fine.	141964145	1475784097719	1475784097818	a	65
278718	2989055	Hope you guys are doing fine.	Hope you guys are doing fine.	141964147	1475784097800	1475784097888	r	82
278718	2989055	Hope you guys are doing fine.	Hope you guys are doing fine.	141964150	1475784097860	1475784097936	e	69
278718	2989055	Hope you guys are doing fine.	Hope you guys are doing fine.	141964152	1475784097897	1475784098016	 	32
278718	2989055	Hope you guys are doing fine.	Hope you guys are doing fine.	141964154	1475784097991	1475784098130	d	68
278718	2989055	Hope you guys are doing fine.	Hope you guys are doing fine.	141964167	1475784098044	1475784098146	o	79
278718	2989055	Hope you guys are doing fine.	Hope you guys are doing fine.	141964170	1475784098104	1475784098176	i	73
278718	2989055	Hope you guys are doing fine.	Hope you guys are doing fine.	141964180	1475784098238	1475784098337	n	78
278718	2989055	Hope you guys are doing fine.	Hope you guys are doing fine.	141964184	1475784098266	1475784098337	g	71
278718	2989055	Hope you guys are doing fine.	Hope you guys are doing fine.	141964194	1475784098337	1475784098423	 	32
278718	2989055	Hope you guys are doing fine.	Hope you guys are doing fine.	141964201	1475784098409	1475784098491	g	71
278718	2989055	Hope you guys are doing fine.	Hope you guys are doing fine.	141964239	1475784098468	1475784098535	i	73
278718	2989055	Hope you guys are doing fine.	Hope you guys are doing fine.	141964241	1475784098587	1475784098653	n	78
278718	2989055	Hope you guys are doing fine.	Hope you guys are doing fine.	141964243	1475784098797	1475784098870	BKSP	8
278718	2989055	Hope you guys are doing fine.	Hope you guys are doing fine.	141964246	1475784098917	1475784098971	BKSP	8
278718	2989055	Hope you guys are doing fine.	Hope you guys are doing fine.	141964251	1475784099053	1475784099135	BKSP	8
278718	2989055	Hope you guys are doing fine.	Hope you guys are doing fine.	141964256	1475784099151	1475784099243	f	70
278718	2989055	Hope you guys are doing fine.	Hope you guys are doing fine.	141964260	1475784099259	1475784099321	i	73
278718	2989055	Hope you guys are doing fine.	Hope you guys are doing fine.	141964266	1475784099403	1475784099471	n	78
278718	2989055	Hope you guys are doing fine.	Hope you guys are doing fine.	141964265	1475784099454	1475784099543	e	69
278718	2989055	Hope you guys are doing fine.	Hope you guys are doing fine.	141964270	1475784099590	1475784099644	.	190
278718	2989061	Kay Mann is going to take the lead on this.	Kay Mann is going to take the lead on this.	141964415	1475784101629	1475784101860	SHIFT	16
278718	2989061	Kay Mann is going to take the lead on this.	Kay Mann is going to take the lead on this.	141964420	1475784101816	1475784101927	K	75
278718	2989061	Kay Mann is going to take the lead on this.	Kay Mann is going to take the lead on this.	141964426	1475784101974	1475784102098	a	65
278718	2989061	Kay Mann is going to take the lead on this.	Kay Mann is going to take the lead on this.	141964429	1475784102078	1475784102140	y	89
278718	2989061	Kay Mann is going to take the lead on this.	Kay Mann is going to take the lead on this.	141964435	1475784102202	1475784102304	 	32
278718	2989061	Kay Mann is going to take the lead on this.	Kay Mann is going to take the lead on this.	141964442	1475784102319	1475784102494	SHIFT	16
278718	2989061	Kay Mann is going to take the lead on this.	Kay Mann is going to take the lead on this.	141964454	1475784102444	1475784102554	M	77
278718	2989061	Kay Mann is going to take the lead on this.	Kay Mann is going to take the lead on this.	141964455	1475784102601	1475784102718	a	65
278718	2989061	Kay Mann is going to take the lead on this.	Kay Mann is going to take the lead on this.	141964456	1475784102680	1475784102748	n	78
278718	2989061	Kay Mann is going to take the lead on this.	Kay Mann is going to take the lead on this.	141964457	1475784102810	1475784102890	n	78
278718	2989061	Kay Mann is going to take the lead on this.	Kay Mann is going to take the lead on this.	141964458	1475784102968	1475784103070	 	32
278718	2989061	Kay Mann is going to take the lead on this.	Kay Mann is going to take the lead on this.	141964471	1475784103040	1475784103140	i	73
278718	2989061	Kay Mann is going to take the lead on this.	Kay Mann is going to take the lead on this.	141964473	1475784103129	1475784103243	s	83
278718	2989061	Kay Mann is going to take the lead on this.	Kay Mann is going to take the lead on this.	141964477	1475784103207	1475784103307	 	32
278718	2989061	Kay Mann is going to take the lead on this.	Kay Mann is going to take the lead on this.	141964480	1475784103338	1475784103446	g	71
278718	2989061	Kay Mann is going to take the lead on this.	Kay Mann is going to take the lead on this.	141964483	1475784103398	1475784103515	o	79
278718	2989061	Kay Mann is going to take the lead on this.	Kay Mann is going to take the lead on this.	141964490	1475784103459	1475784103541	i	73
278718	2989061	Kay Mann is going to take the lead on this.	Kay Mann is going to take the lead on this.	141964494	1475784103603	1475784103697	g	78
278718	2989061	Kay Mann is going to take the lead on this.	Kay Mann is going to take the lead on this.	141964499	1475784103690	1475784103797	 	32
278718	2989061	Kay Mann is going to take the lead on this.	Kay Mann is going to take the lead on this.	141964503	1475784103764	1475784103848	t	84
278718	2989061	Kay Mann is going to take the lead on this.	Kay Mann is going to take the lead on this.	141964532	1475784103825	1475784103926	o	79
278718	2989061	Kay Mann is going to take the lead on this.	Kay Mann is going to take the lead on this.	141964534	1475784103915	1475784104013	 	32
278718	2989061	Kay Mann is going to take the lead on this.	Kay Mann is going to take the lead on this.	141964537	1475784103989	1475784104100	t	84
278718	2989061	Kay Mann is going to take the lead on this.	Kay Mann is going to take the lead on this.	141964540	1475784104089	1475784104210	a	65
278718	2989061	Kay Mann is going to take the lead on this.	Kay Mann is going to take the lead on this.	141964543	1475784104152	1475784104275	k	75
278718	2989061	Kay Mann is going to take the lead on this.	Kay Mann is going to take the lead on this.	141964552	1475784104248	1475784104315	e	69
278718	2989061	Kay Mann is going to take the lead on this.	Kay Mann is going to take the lead on this.	141964555	1475784104315	1475784104392	 	32
278718	2989061	Kay Mann is going to take the lead on this.	Kay Mann is going to take the lead on this.	141964557	1475784104408	1475784104486	t	84
278718	2989061	Kay Mann is going to take the lead on this.	Kay Mann is going to take the lead on this.	141964560	1475784104459	1475784104532	h	72
278718	2989061	Kay Mann is going to take the lead on this.	Kay Mann is going to take the lead on this.	141964564	1475784104563	1475784104674	e	69
278718	2989061	Kay Mann is going to take the lead on this.	Kay Mann is going to take the lead on this.	141964576	1475784104649	1475784104746	 	32
278718	2989061	Kay Mann is going to take the lead on this.	Kay Mann is going to take the lead on this.	141964578	1475784104709	1475784104826	l	76
278718	2989061	Kay Mann is going to take the lead on this.	Kay Mann is going to take the lead on this.	141964581	1475784104792	1475784104925	e	69
278718	2989061	Kay Mann is going to take the lead on this.	Kay Mann is going to take the lead on this.	141964583	1475784104882	1475784105032	a	65
278718	2989061	Kay Mann is going to take the lead on this.	Kay Mann is going to take the lead on this.	141964585	1475784105013	1475784105123	d	68
278718	2989061	Kay Mann is going to take the lead on this.	Kay Mann is going to take the lead on this.	141964595	1475784105068	1475784105181	 	32
278718	2989061	Kay Mann is going to take the lead on this.	Kay Mann is going to take the lead on this.	141964597	1475784105200	1475784105275	o	79
278718	2989061	Kay Mann is going to take the lead on this.	Kay Mann is going to take the lead on this.	141964599	1475784105369	1475784105442	n	78
278718	2989061	Kay Mann is going to take the lead on this.	Kay Mann is going to take the lead on this.	141964602	1475784105442	1475784105532	 	32
278718	2989061	Kay Mann is going to take the lead on this.	Kay Mann is going to take the lead on this.	141964605	1475784105500	1475784105602	t	84
278718	2989061	Kay Mann is going to take the lead on this.	Kay Mann is going to take the lead on this.	141964621	1475784105558	1475784105680	h	72
278718	2989061	Kay Mann is going to take the lead on this.	Kay Mann is going to take the lead on this.	141964625	1475784105633	1475784105735	i	73
278718	2989061	Kay Mann is going to take the lead on this.	Kay Mann is going to take the lead on this.	141964628	1475784105686	1475784105775	s	83
278718	2989061	Kay Mann is going to take the lead on this.	Kay Mann is going to take the lead on this.	141964631	1475784105838	1475784105894	.	190
278718	2989067	The Jets will try to control the ball and the clock against the Rams.	The Jets will try to control the ball and the clock against the Rams.	141964737	1475784107683	1475784107861	SHIFT	16
278718	2989067	The Jets will try to control the ball and the clock against the Rams.	The Jets will try to control the ball and the clock against the Rams.	141964741	1475784107761	1475784107861	T	84
278718	2989067	The Jets will try to control the ball and the clock against the Rams.	The Jets will try to control the ball and the clock against the Rams.	141964744	1475784107955	1475784108044	h	72
278718	2989067	The Jets will try to control the ball and the clock against the Rams.	The Jets will try to control the ball and the clock against the Rams.	141964746	1475784108034	1475784108140	e	69
278718	2989067	The Jets will try to control the ball and the clock against the Rams.	The Jets will try to control the ball and the clock against the Rams.	141964747	1475784108119	1475784108194	 	32
278718	2989067	The Jets will try to control the ball and the clock against the Rams.	The Jets will try to control the ball and the clock against the Rams.	141964770	1475784108226	1475784108365	SHIFT	16
278718	2989067	The Jets will try to control the ball and the clock against the Rams.	The Jets will try to control the ball and the clock against the Rams.	141964748	1475784108304	1475784108354	J	74
278718	2989067	The Jets will try to control the ball and the clock against the Rams.	The Jets will try to control the ball and the clock against the Rams.	141964773	1475784108458	1475784108555	e	69
278718	2989067	The Jets will try to control the ball and the clock against the Rams.	The Jets will try to control the ball and the clock against the Rams.	141964777	1475784108529	1475784108596	t	84
278718	2989067	The Jets will try to control the ball and the clock against the Rams.	The Jets will try to control the ball and the clock against the Rams.	141964780	1475784108689	1475784108789	s	83
278718	2989067	The Jets will try to control the ball and the clock against the Rams.	The Jets will try to control the ball and the clock against the Rams.	141964783	1475784108747	1475784108849	 	32
278718	2989067	The Jets will try to control the ball and the clock against the Rams.	The Jets will try to control the ball and the clock against the Rams.	141964788	1475784108896	1475784108997	w	87
278718	2989067	The Jets will try to control the ball and the clock against the Rams.	The Jets will try to control the ball and the clock against the Rams.	141964797	1475784108963	1475784109030	i	73
278718	2989067	The Jets will try to control the ball and the clock against the Rams.	The Jets will try to control the ball and the clock against the Rams.	141964801	1475784109124	1475784109171	l	76
278718	2989067	The Jets will try to control the ball and the clock against the Rams.	The Jets will try to control the ball and the clock against the Rams.	141964808	1475784109218	1475784109296	l	76
278718	2989067	The Jets will try to control the ball and the clock against the Rams.	The Jets will try to control the ball and the clock against the Rams.	141964814	1475784109260	1475784109330	 	32
278718	2989067	The Jets will try to control the ball and the clock against the Rams.	The Jets will try to control the ball and the clock against the Rams.	141964818	1475784109309	1475784109365	t	84
278718	2989067	The Jets will try to control the ball and the clock against the Rams.	The Jets will try to control the ball and the clock against the Rams.	141964821	1475784109380	1475784109470	r	82
278718	2989067	The Jets will try to control the ball and the clock against the Rams.	The Jets will try to control the ball and the clock against the Rams.	141964831	1475784109437	1475784109521	y	89
278718	2989067	The Jets will try to control the ball and the clock against the Rams.	The Jets will try to control the ball and the clock against the Rams.	141964833	1475784109512	1475784109596	 	32
278718	2989067	The Jets will try to control the ball and the clock against the Rams.	The Jets will try to control the ball and the clock against the Rams.	141964835	1475784109596	1475784109701	t	84
278718	2989067	The Jets will try to control the ball and the clock against the Rams.	The Jets will try to control the ball and the clock against the Rams.	141964839	1475784109664	1475784109731	o	79
278718	2989067	The Jets will try to control the ball and the clock against the Rams.	The Jets will try to control the ball and the clock against the Rams.	141964842	1475784109731	1475784109792	 	32
278718	2989067	The Jets will try to control the ball and the clock against the Rams.	The Jets will try to control the ball and the clock against the Rams.	141964846	1475784109824	1475784109938	c	67
278718	2989067	The Jets will try to control the ball and the clock against the Rams.	The Jets will try to control the ball and the clock against the Rams.	141964853	1475784109888	1475784109960	o	79
278718	2989067	The Jets will try to control the ball and the clock against the Rams.	The Jets will try to control the ball and the clock against the Rams.	141964854	1475784110031	1475784110105	n	78
278718	2989067	The Jets will try to control the ball and the clock against the Rams.	The Jets will try to control the ball and the clock against the Rams.	141964856	1475784110089	1475784110196	t	84
278718	2989067	The Jets will try to control the ball and the clock against the Rams.	The Jets will try to control the ball and the clock against the Rams.	141964861	1475784110164	1475784110264	r	82
278718	2989067	The Jets will try to control the ball and the clock against the Rams.	The Jets will try to control the ball and the clock against the Rams.	141964866	1475784110216	1475784110274	o	79
278718	2989067	The Jets will try to control the ball and the clock against the Rams.	The Jets will try to control the ball and the clock against the Rams.	141964873	1475784110336	1475784110432	l	76
278718	2989067	The Jets will try to control the ball and the clock against the Rams.	The Jets will try to control the ball and the clock against the Rams.	141964897	1475784110381	1475784110463	 	32
278718	2989067	The Jets will try to control the ball and the clock against the Rams.	The Jets will try to control the ball and the clock against the Rams.	141964898	1475784110439	1475784110504	t	84
278718	2989067	The Jets will try to control the ball and the clock against the Rams.	The Jets will try to control the ball and the clock against the Rams.	141964902	1475784110535	1475784110621	h	72
278718	2989067	The Jets will try to control the ball and the clock against the Rams.	The Jets will try to control the ball and the clock against the Rams.	141964907	1475784110621	1475784110714	e	69
278718	2989067	The Jets will try to control the ball and the clock against the Rams.	The Jets will try to control the ball and the clock against the Rams.	141964913	1475784110688	1475784110756	 	32
278718	2989067	The Jets will try to control the ball and the clock against the Rams.	The Jets will try to control the ball and the clock against the Rams.	141964921	1475784110834	1475784110931	b	66
278718	2989067	The Jets will try to control the ball and the clock against the Rams.	The Jets will try to control the ball and the clock against the Rams.	141964932	1475784110947	1475784111038	a	65
278718	2989067	The Jets will try to control the ball and the clock against the Rams.	The Jets will try to control the ball and the clock against the Rams.	141964937	1475784110977	1475784111038	l	76
278718	2989067	The Jets will try to control the ball and the clock against the Rams.	The Jets will try to control the ball and the clock against the Rams.	141964941	1475784111101	1475784111187	l	76
278718	2989067	The Jets will try to control the ball and the clock against the Rams.	The Jets will try to control the ball and the clock against the Rams.	141964943	1475784111187	1475784111282	 	32
278718	2989067	The Jets will try to control the ball and the clock against the Rams.	The Jets will try to control the ball and the clock against the Rams.	141964978	1475784111250	1475784111380	a	65
278718	2989067	The Jets will try to control the ball and the clock against the Rams.	The Jets will try to control the ball and the clock against the Rams.	141964982	1475784111372	1475784111447	n	78
278718	2989067	The Jets will try to control the ball and the clock against the Rams.	The Jets will try to control the ball and the clock against the Rams.	141964984	1475784111439	1475784111518	d	68
278718	2989067	The Jets will try to control the ball and the clock against the Rams.	The Jets will try to control the ball and the clock against the Rams.	141964986	1475784111493	1475784111571	 	32
278718	2989067	The Jets will try to control the ball and the clock against the Rams.	The Jets will try to control the ball and the clock against the Rams.	141964988	1475784111728	1475784111783	t	84
278718	2989067	The Jets will try to control the ball and the clock against the Rams.	The Jets will try to control the ball and the clock against the Rams.	141964990	1475784111830	1475784111898	h	72
278718	2989067	The Jets will try to control the ball and the clock against the Rams.	The Jets will try to control the ball and the clock against the Rams.	141964995	1475784111925	1475784112005	e	69
278718	2989067	The Jets will try to control the ball and the clock against the Rams.	The Jets will try to control the ball and the clock against the Rams.	141964998	1475784111973	1475784112064	 	32
278718	2989067	The Jets will try to control the ball and the clock against the Rams.	The Jets will try to control the ball and the clock against the Rams.	141965002	1475784112111	1475784112203	c	67
278718	2989067	The Jets will try to control the ball and the clock against the Rams.	The Jets will try to control the ball and the clock against the Rams.	141965005	1475784112157	1475784112289	l	76
278718	2989067	The Jets will try to control the ball and the clock against the Rams.	The Jets will try to control the ball and the clock against the Rams.	141965029	1475784112223	1475784112300	o	79
278718	2989067	The Jets will try to control the ball and the clock against the Rams.	The Jets will try to control the ball and the clock against the Rams.	141965033	1475784112300	1475784112387	c	67
278718	2989067	The Jets will try to control the ball and the clock against the Rams.	The Jets will try to control the ball and the clock against the Rams.	141965037	1475784112387	1475784112475	k	75
278718	2989067	The Jets will try to control the ball and the clock against the Rams.	The Jets will try to control the ball and the clock against the Rams.	141965042	1475784112440	1475784112526	 	32
278718	2989067	The Jets will try to control the ball and the clock against the Rams.	The Jets will try to control the ball and the clock against the Rams.	141965047	1475784112516	1475784112607	a	65
278718	2989067	The Jets will try to control the ball and the clock against the Rams.	The Jets will try to control the ball and the clock against the Rams.	141965051	1475784112638	1475784112730	g	71
278718	2989067	The Jets will try to control the ball and the clock against the Rams.	The Jets will try to control the ball and the clock against the Rams.	141965056	1475784112691	1475784112808	a	65
278718	2989067	The Jets will try to control the ball and the clock against the Rams.	The Jets will try to control the ball and the clock against the Rams.	141965062	1475784112767	1475784112833	i	73
278718	2989067	The Jets will try to control the ball and the clock against the Rams.	The Jets will try to control the ball and the clock against the Rams.	141965068	1475784112895	1475784113001	n	78
278718	2989067	The Jets will try to control the ball and the clock against the Rams.	The Jets will try to control the ball and the clock against the Rams.	141965073	1475784112950	1475784113081	s	83
278718	2989067	The Jets will try to control the ball and the clock against the Rams.	The Jets will try to control the ball and the clock against the Rams.	141965077	1475784113063	1475784113152	t	84
278718	2989067	The Jets will try to control the ball and the clock against the Rams.	The Jets will try to control the ball and the clock against the Rams.	141965110	1475784113125	1475784113222	 	32
278718	2989067	The Jets will try to control the ball and the clock against the Rams.	The Jets will try to control the ball and the clock against the Rams.	141965114	1475784113507	1475784113559	t	84
278718	2989067	The Jets will try to control the ball and the clock against the Rams.	The Jets will try to control the ball and the clock against the Rams.	141965119	1475784113610	1475784113675	h	72
278718	2989067	The Jets will try to control the ball and the clock against the Rams.	The Jets will try to control the ball and the clock against the Rams.	141965124	1475784113706	1475784113807	e	69
278718	2989067	The Jets will try to control the ball and the clock against the Rams.	The Jets will try to control the ball and the clock against the Rams.	141965127	1475784113767	1475784113841	 	32
278718	2989067	The Jets will try to control the ball and the clock against the Rams.	The Jets will try to control the ball and the clock against the Rams.	141965130	1475784113872	1475784114002	SHIFT	16
278718	2989067	The Jets will try to control the ball and the clock against the Rams.	The Jets will try to control the ball and the clock against the Rams.	141965173	1475784113950	1475784114002	R	82
278718	2989067	The Jets will try to control the ball and the clock against the Rams.	The Jets will try to control the ball and the clock against the Rams.	141965179	1475784114079	1475784114173	a	65
278718	2989067	The Jets will try to control the ball and the clock against the Rams.	The Jets will try to control the ball and the clock against the Rams.	141965184	1475784114204	1475784114260	m	77
278718	2989067	The Jets will try to control the ball and the clock against the Rams.	The Jets will try to control the ball and the clock against the Rams.	141965187	1475784114438	1475784114539	s	83
278718	2989067	The Jets will try to control the ball and the clock against the Rams.	The Jets will try to control the ball and the clock against the Rams.	141965191	1475784114703	1475784114755	.	190
278718	2989076	I think those are the right dates.	I think those are the right dates.	141965330	1475784116807	1475784117028	SHIFT	16
278718	2989076	I think those are the right dates.	I think those are the right dates.	141965335	1475784116994	1475784117078	I	73
278718	2989076	I think those are the right dates.	I think those are the right dates.	141965341	1475784117078	1475784117178	 	32
278718	2989076	I think those are the right dates.	I think those are the right dates.	141965346	1475784117139	1475784117247	t	84
278718	2989076	I think those are the right dates.	I think those are the right dates.	141965364	1475784117211	1475784117287	h	72
278718	2989076	I think those are the right dates.	I think those are the right dates.	141965366	1475784117234	1475784117303	i	73
278718	2989076	I think those are the right dates.	I think those are the right dates.	141965368	1475784117366	1475784117422	n	78
278718	2989076	I think those are the right dates.	I think those are the right dates.	141965372	1475784117500	1475784117583	k	75
278718	2989076	I think those are the right dates.	I think those are the right dates.	141965375	1475784117554	1475784117639	 	32
278718	2989076	I think those are the right dates.	I think those are the right dates.	141965382	1475784117606	1475784117694	t	84
278718	2989076	I think those are the right dates.	I think those are the right dates.	141965388	1475784117726	1475784117875	h	72
278718	2989076	I think those are the right dates.	I think those are the right dates.	141965407	1475784117795	1475784117945	o	79
278718	2989076	I think those are the right dates.	I think those are the right dates.	141965401	1475784117853	1475784117935	s	83
278718	2989076	I think those are the right dates.	I think those are the right dates.	141965413	1475784117906	1475784117996	e	69
278718	2989076	I think those are the right dates.	I think those are the right dates.	141965418	1475784117962	1475784118089	 	32
278718	2989076	I think those are the right dates.	I think those are the right dates.	141965423	1475784118028	1475784118120	a	65
278718	2989076	I think those are the right dates.	I think those are the right dates.	141965428	1475784118120	1475784118229	r	82
278718	2989076	I think those are the right dates.	I think those are the right dates.	141965433	1475784118189	1475784118273	e	69
278718	2989076	I think those are the right dates.	I think those are the right dates.	141965436	1475784118262	1475784118358	 	32
278718	2989076	I think those are the right dates.	I think those are the right dates.	141965439	1475784118329	1475784118408	t	84
278718	2989076	I think those are the right dates.	I think those are the right dates.	141965445	1475784118424	1475784118495	h	72
278718	2989076	I think those are the right dates.	I think those are the right dates.	141965451	1475784118511	1475784118617	e	69
278718	2989076	I think those are the right dates.	I think those are the right dates.	141965467	1475784118573	1475784118676	 	32
278718	2989076	I think those are the right dates.	I think those are the right dates.	141965470	1475784118723	1475784118811	r	82
278718	2989076	I think those are the right dates.	I think those are the right dates.	141965473	1475784118827	1475784118906	i	73
278718	2989076	I think those are the right dates.	I think those are the right dates.	141965476	1475784118891	1475784118947	g	71
278718	2989076	I think those are the right dates.	I think those are the right dates.	141965498	1475784118994	1475784119093	h	72
278718	2989076	I think those are the right dates.	I think those are the right dates.	141965482	1475784119032	1475784119086	t	84
278718	2989076	I think those are the right dates.	I think those are the right dates.	141965502	1475784119102	1475784119162	 	32
278718	2989076	I think those are the right dates.	I think those are the right dates.	141965507	1475784119209	1475784119322	d	68
278718	2989076	I think those are the right dates.	I think those are the right dates.	141965514	1475784119296	1475784119373	a	65
278718	2989076	I think those are the right dates.	I think those are the right dates.	141965520	1475784119404	1475784119501	t	84
278718	2989076	I think those are the right dates.	I think those are the right dates.	141965532	1475784119489	1475784119545	e	69
278718	2989076	I think those are the right dates.	I think those are the right dates.	141965534	1475784119597	1475784119696	s	83
278718	2989076	I think those are the right dates.	I think those are the right dates.	141965536	1475784119743	1475784119813	.	190
278718	2989083	1.5 million visitors will flood Atlanta each day of the Olympics.	1.5 million visitors will flood Atlanta each day of the Olympics	141965667	1475784121915	1475784122027	1	49
278718	2989083	1.5 million visitors will flood Atlanta each day of the Olympics.	1.5 million visitors will flood Atlanta each day of the Olympics	141965671	1475784122007	1475784122107	.	190
278718	2989083	1.5 million visitors will flood Atlanta each day of the Olympics.	1.5 million visitors will flood Atlanta each day of the Olympics	141965674	1475784122138	1475784122192	5	53
278718	2989083	1.5 million visitors will flood Atlanta each day of the Olympics.	1.5 million visitors will flood Atlanta each day of the Olympics	141965678	1475784122380	1475784122464	 	32
278718	2989083	1.5 million visitors will flood Atlanta each day of the Olympics.	1.5 million visitors will flood Atlanta each day of the Olympics	141965681	1475784122495	1475784122617	m	77
278718	2989083	1.5 million visitors will flood Atlanta each day of the Olympics.	1.5 million visitors will flood Atlanta each day of the Olympics	141965718	1475784122567	1475784122632	i	73
278718	2989083	1.5 million visitors will flood Atlanta each day of the Olympics.	1.5 million visitors will flood Atlanta each day of the Olympics	141965720	1475784122726	1475784122793	l	76
278718	2989083	1.5 million visitors will flood Atlanta each day of the Olympics.	1.5 million visitors will flood Atlanta each day of the Olympics	141965722	1475784122840	1475784122901	l	76
278718	2989083	1.5 million visitors will flood Atlanta each day of the Olympics.	1.5 million visitors will flood Atlanta each day of the Olympics	141965724	1475784123026	1475784123145	i	73
278718	2989083	1.5 million visitors will flood Atlanta each day of the Olympics.	1.5 million visitors will flood Atlanta each day of the Olympics	141965726	1475784123084	1475784123176	o	79
278718	2989083	1.5 million visitors will flood Atlanta each day of the Olympics.	1.5 million visitors will flood Atlanta each day of the Olympics	141965728	1475784123239	1475784123309	n	78
278718	2989083	1.5 million visitors will flood Atlanta each day of the Olympics.	1.5 million visitors will flood Atlanta each day of the Olympics	141965731	1475784123309	1475784123399	 	32
278718	2989083	1.5 million visitors will flood Atlanta each day of the Olympics.	1.5 million visitors will flood Atlanta each day of the Olympics	141965734	1475784123461	1475784123534	v	86
278718	2989083	1.5 million visitors will flood Atlanta each day of the Olympics.	1.5 million visitors will flood Atlanta each day of the Olympics	141965738	1475784123534	1475784123602	i	73
278718	2989083	1.5 million visitors will flood Atlanta each day of the Olympics.	1.5 million visitors will flood Atlanta each day of the Olympics	141965742	1475784123633	1475784123733	s	83
278718	2989083	1.5 million visitors will flood Atlanta each day of the Olympics.	1.5 million visitors will flood Atlanta each day of the Olympics	141965786	1475784123695	1475784123784	i	73
278718	2989083	1.5 million visitors will flood Atlanta each day of the Olympics.	1.5 million visitors will flood Atlanta each day of the Olympics	141965789	1475784123831	1475784123911	t	84
278718	2989083	1.5 million visitors will flood Atlanta each day of the Olympics.	1.5 million visitors will flood Atlanta each day of the Olympics	141965791	1475784124083	1475784124202	o	79
278718	2989083	1.5 million visitors will flood Atlanta each day of the Olympics.	1.5 million visitors will flood Atlanta each day of the Olympics	141965792	1475784124192	1475784124340	r	82
278718	2989083	1.5 million visitors will flood Atlanta each day of the Olympics.	1.5 million visitors will flood Atlanta each day of the Olympics	141965794	1475784124283	1475784124416	s	83
278718	2989083	1.5 million visitors will flood Atlanta each day of the Olympics.	1.5 million visitors will flood Atlanta each day of the Olympics	141965796	1475784124431	1475784124541	 	32
278718	2989083	1.5 million visitors will flood Atlanta each day of the Olympics.	1.5 million visitors will flood Atlanta each day of the Olympics	141965811	1475784124646	1475784124755	w	87
278718	2989083	1.5 million visitors will flood Atlanta each day of the Olympics.	1.5 million visitors will flood Atlanta each day of the Olympics	141965815	1475784124703	1475784124761	i	73
278718	2989083	1.5 million visitors will flood Atlanta each day of the Olympics.	1.5 million visitors will flood Atlanta each day of the Olympics	141965817	1475784124839	1475784124903	l	76
278718	2989083	1.5 million visitors will flood Atlanta each day of the Olympics.	1.5 million visitors will flood Atlanta each day of the Olympics	141965820	1475784124950	1475784125015	l	76
278718	2989083	1.5 million visitors will flood Atlanta each day of the Olympics.	1.5 million visitors will flood Atlanta each day of the Olympics	141965847	1475784124990	1475784125088	 	32
278718	2989083	1.5 million visitors will flood Atlanta each day of the Olympics.	1.5 million visitors will flood Atlanta each day of the Olympics	141965851	1475784125068	1475784125192	f	70
278718	2989083	1.5 million visitors will flood Atlanta each day of the Olympics.	1.5 million visitors will flood Atlanta each day of the Olympics	141965857	1475784125150	1475784125270	l	76
278718	2989083	1.5 million visitors will flood Atlanta each day of the Olympics.	1.5 million visitors will flood Atlanta each day of the Olympics	141965861	1475784125214	1475784125286	o	79
278718	2989083	1.5 million visitors will flood Atlanta each day of the Olympics.	1.5 million visitors will flood Atlanta each day of the Olympics	141965866	1475784125348	1475784125445	o	79
278718	2989083	1.5 million visitors will flood Atlanta each day of the Olympics.	1.5 million visitors will flood Atlanta each day of the Olympics	141965871	1475784125460	1475784125563	d	68
278718	2989083	1.5 million visitors will flood Atlanta each day of the Olympics.	1.5 million visitors will flood Atlanta each day of the Olympics	141965891	1475784125520	1475784125634	 	32
278718	2989083	1.5 million visitors will flood Atlanta each day of the Olympics.	1.5 million visitors will flood Atlanta each day of the Olympics	141965894	1475784125681	1475784125830	SHIFT	16
278718	2989083	1.5 million visitors will flood Atlanta each day of the Olympics.	1.5 million visitors will flood Atlanta each day of the Olympics	141965900	1475784125775	1475784125862	A	65
278718	2989083	1.5 million visitors will flood Atlanta each day of the Olympics.	1.5 million visitors will flood Atlanta each day of the Olympics	141965905	1475784125910	1475784126001	t	84
278718	2989083	1.5 million visitors will flood Atlanta each day of the Olympics.	1.5 million visitors will flood Atlanta each day of the Olympics	141965908	1475784126079	1475784126201	l	76
278718	2989083	1.5 million visitors will flood Atlanta each day of the Olympics.	1.5 million visitors will flood Atlanta each day of the Olympics	141965911	1475784126217	1475784126360	a	65
278718	2989083	1.5 million visitors will flood Atlanta each day of the Olympics.	1.5 million visitors will flood Atlanta each day of the Olympics	141965916	1475784126360	1475784126471	n	78
278718	2989083	1.5 million visitors will flood Atlanta each day of the Olympics.	1.5 million visitors will flood Atlanta each day of the Olympics	141965975	1475784126437	1475784126504	t	84
278718	2989083	1.5 million visitors will flood Atlanta each day of the Olympics.	1.5 million visitors will flood Atlanta each day of the Olympics	141965977	1475784126942	1475784127060	a	65
278718	2989083	1.5 million visitors will flood Atlanta each day of the Olympics.	1.5 million visitors will flood Atlanta each day of the Olympics	141965981	1475784127075	1475784127185	 	32
278718	2989083	1.5 million visitors will flood Atlanta each day of the Olympics.	1.5 million visitors will flood Atlanta each day of the Olympics	141965984	1475784127200	1475784127334	e	69
278718	2989083	1.5 million visitors will flood Atlanta each day of the Olympics.	1.5 million visitors will flood Atlanta each day of the Olympics	141965987	1475784127334	1475784127435	a	65
278718	2989083	1.5 million visitors will flood Atlanta each day of the Olympics.	1.5 million visitors will flood Atlanta each day of the Olympics	141965990	1475784127522	1475784127610	c	67
278718	2989083	1.5 million visitors will flood Atlanta each day of the Olympics.	1.5 million visitors will flood Atlanta each day of the Olympics	141966016	1475784127598	1475784127671	h	72
278718	2989083	1.5 million visitors will flood Atlanta each day of the Olympics.	1.5 million visitors will flood Atlanta each day of the Olympics	141966017	1475784127687	1475784127780	 	32
278718	2989083	1.5 million visitors will flood Atlanta each day of the Olympics.	1.5 million visitors will flood Atlanta each day of the Olympics	141966018	1475784128112	1475784128247	d	68
278718	2989083	1.5 million visitors will flood Atlanta each day of the Olympics.	1.5 million visitors will flood Atlanta each day of the Olympics	141966020	1475784128181	1475784128316	a	65
278718	2989083	1.5 million visitors will flood Atlanta each day of the Olympics.	1.5 million visitors will flood Atlanta each day of the Olympics	141966025	1475784128262	1475784128332	y	89
278718	2989083	1.5 million visitors will flood Atlanta each day of the Olympics.	1.5 million visitors will flood Atlanta each day of the Olympics	141966031	1475784128363	1475784128470	 	32
278718	2989083	1.5 million visitors will flood Atlanta each day of the Olympics.	1.5 million visitors will flood Atlanta each day of the Olympics	141966043	1475784128527	1475784128613	o	79
278718	2989083	1.5 million visitors will flood Atlanta each day of the Olympics.	1.5 million visitors will flood Atlanta each day of the Olympics	141966048	1475784128574	1475784128655	f	70
278718	2989083	1.5 million visitors will flood Atlanta each day of the Olympics.	1.5 million visitors will flood Atlanta each day of the Olympics	141966052	1475784128671	1475784128753	 	32
278718	2989083	1.5 million visitors will flood Atlanta each day of the Olympics.	1.5 million visitors will flood Atlanta each day of the Olympics	141966055	1475784128732	1475784128809	t	84
278718	2989083	1.5 million visitors will flood Atlanta each day of the Olympics.	1.5 million visitors will flood Atlanta each day of the Olympics	141966092	1475784128790	1475784128866	h	72
278718	2989083	1.5 million visitors will flood Atlanta each day of the Olympics.	1.5 million visitors will flood Atlanta each day of the Olympics	141966094	1475784128897	1475784129003	e	69
278718	2989083	1.5 million visitors will flood Atlanta each day of the Olympics.	1.5 million visitors will flood Atlanta each day of the Olympics	141966098	1475784128973	1475784129070	 	32
278718	2989083	1.5 million visitors will flood Atlanta each day of the Olympics.	1.5 million visitors will flood Atlanta each day of the Olympics	141966102	1475784129039	1475784129192	SHIFT	16
278718	2989083	1.5 million visitors will flood Atlanta each day of the Olympics.	1.5 million visitors will flood Atlanta each day of the Olympics	141966105	1475784129148	1475784129248	O	79
278718	2989083	1.5 million visitors will flood Atlanta each day of the Olympics.	1.5 million visitors will flood Atlanta each day of the Olympics	141966108	1475784129342	1475784129431	l	76
278718	2989083	1.5 million visitors will flood Atlanta each day of the Olympics.	1.5 million visitors will flood Atlanta each day of the Olympics	141966111	1475784129541	1475784129639	y	89
278718	2989083	1.5 million visitors will flood Atlanta each day of the Olympics.	1.5 million visitors will flood Atlanta each day of the Olympics	141966131	1475784129697	1475784129839	m	77
278718	2989083	1.5 million visitors will flood Atlanta each day of the Olympics.	1.5 million visitors will flood Atlanta each day of the Olympics	141966136	1475784129788	1475784129889	p	80
278718	2989083	1.5 million visitors will flood Atlanta each day of the Olympics.	1.5 million visitors will flood Atlanta each day of the Olympics	141966139	1475784129998	1475784130089	i	73
278718	2989083	1.5 million visitors will flood Atlanta each day of the Olympics.	1.5 million visitors will flood Atlanta each day of the Olympics	141966143	1475784130136	1475784130227	c	67
278718	2989100	I am hoping to complete them today or tomorrow morning.	I am hoping to complete them today or tomorrow morning.	141966363	1475784132415	1475784132863	SHIFT	16
278718	2989100	I am hoping to complete them today or tomorrow morning.	I am hoping to complete them today or tomorrow morning.	141966366	1475784132824	1475784132909	O	73
278718	2989100	I am hoping to complete them today or tomorrow morning.	I am hoping to complete them today or tomorrow morning.	141966368	1475784132972	1475784133091	 	32
278718	2989100	I am hoping to complete them today or tomorrow morning.	I am hoping to complete them today or tomorrow morning.	141966371	1475784133043	1475784133206	a	65
278718	2989100	I am hoping to complete them today or tomorrow morning.	I am hoping to complete them today or tomorrow morning.	141966373	1475784133300	1475784133387	BKSP	8
278718	2989100	I am hoping to complete them today or tomorrow morning.	I am hoping to complete them today or tomorrow morning.	141966377	1475784133450	1475784133504	BKSP	8
278718	2989100	I am hoping to complete them today or tomorrow morning.	I am hoping to complete them today or tomorrow morning.	141966380	1475784133582	1475784133675	BKSP	8
278718	2989100	I am hoping to complete them today or tomorrow morning.	I am hoping to complete them today or tomorrow morning.	141966384	1475784133722	1475784133843	 	32
278718	2989100	I am hoping to complete them today or tomorrow morning.	I am hoping to complete them today or tomorrow morning.	141966400	1475784133854	1475784133991	a	65
278718	2989100	I am hoping to complete them today or tomorrow morning.	I am hoping to complete them today or tomorrow morning.	141966405	1475784133958	1475784134027	m	77
278718	2989100	I am hoping to complete them today or tomorrow morning.	I am hoping to complete them today or tomorrow morning.	141966407	1475784134058	1475784134159	 	32
278718	2989100	I am hoping to complete them today or tomorrow morning.	I am hoping to complete them today or tomorrow morning.	141966411	1475784134206	1475784134304	h	72
278718	2989100	I am hoping to complete them today or tomorrow morning.	I am hoping to complete them today or tomorrow morning.	141966414	1475784134304	1475784134408	o	79
278718	2989100	I am hoping to complete them today or tomorrow morning.	I am hoping to complete them today or tomorrow morning.	141966433	1475784134356	1475784134449	p	80
278718	2989100	I am hoping to complete them today or tomorrow morning.	I am hoping to complete them today or tomorrow morning.	141966437	1475784134512	1475784134589	i	73
278718	2989100	I am hoping to complete them today or tomorrow morning.	I am hoping to complete them today or tomorrow morning.	141966443	1475784134667	1475784134746	g	78
278718	2989100	I am hoping to complete them today or tomorrow morning.	I am hoping to complete them today or tomorrow morning.	141966450	1475784134746	1475784134848	 	32
278718	2989100	I am hoping to complete them today or tomorrow morning.	I am hoping to complete them today or tomorrow morning.	141966479	1475784134827	1475784134930	t	84
278718	2989100	I am hoping to complete them today or tomorrow morning.	I am hoping to complete them today or tomorrow morning.	141966481	1475784134905	1475784134991	o	79
278718	2989100	I am hoping to complete them today or tomorrow morning.	I am hoping to complete them today or tomorrow morning.	141966486	1475784134961	1475784135012	 	32
278718	2989100	I am hoping to complete them today or tomorrow morning.	I am hoping to complete them today or tomorrow morning.	141966489	1475784135059	1475784135191	c	67
278718	2989100	I am hoping to complete them today or tomorrow morning.	I am hoping to complete them today or tomorrow morning.	141966496	1475784135191	1475784135247	o	79
278718	2989100	I am hoping to complete them today or tomorrow morning.	I am hoping to complete them today or tomorrow morning.	141966502	1475784135339	1475784135421	m	77
278718	2989100	I am hoping to complete them today or tomorrow morning.	I am hoping to complete them today or tomorrow morning.	141966515	1475784135577	1475784135637	p	80
278718	2989100	I am hoping to complete them today or tomorrow morning.	I am hoping to complete them today or tomorrow morning.	141966516	1475784135703	1475784135839	l	76
278718	2989100	I am hoping to complete them today or tomorrow morning.	I am hoping to complete them today or tomorrow morning.	141966518	1475784135763	1475784135854	e	69
278718	2989100	I am hoping to complete them today or tomorrow morning.	I am hoping to complete them today or tomorrow morning.	141966520	1475784135854	1475784135963	t	84
278718	2989100	I am hoping to complete them today or tomorrow morning.	I am hoping to complete them today or tomorrow morning.	141966534	1475784135928	1475784136038	e	69
278718	2989100	I am hoping to complete them today or tomorrow morning.	I am hoping to complete them today or tomorrow morning.	141966537	1475784136011	1475784136105	 	32
278718	2989100	I am hoping to complete them today or tomorrow morning.	I am hoping to complete them today or tomorrow morning.	141966541	1475784136152	1475784136246	t	84
278718	2989100	I am hoping to complete them today or tomorrow morning.	I am hoping to complete them today or tomorrow morning.	141966545	1475784136277	1475784136355	h	72
278718	2989100	I am hoping to complete them today or tomorrow morning.	I am hoping to complete them today or tomorrow morning.	141966549	1475784136386	1475784136473	e	69
278718	2989100	I am hoping to complete them today or tomorrow morning.	I am hoping to complete them today or tomorrow morning.	141966566	1475784136463	1475784136530	m	77
278718	2989100	I am hoping to complete them today or tomorrow morning.	I am hoping to complete them today or tomorrow morning.	141966571	1475784136530	1475784136646	 	32
278718	2989100	I am hoping to complete them today or tomorrow morning.	I am hoping to complete them today or tomorrow morning.	141966577	1475784136608	1475784136689	t	84
278718	2989100	I am hoping to complete them today or tomorrow morning.	I am hoping to complete them today or tomorrow morning.	141966584	1475784136689	1475784136763	o	79
278718	2989100	I am hoping to complete them today or tomorrow morning.	I am hoping to complete them today or tomorrow morning.	141966588	1475784136794	1475784136898	d	68
278718	2989100	I am hoping to complete them today or tomorrow morning.	I am hoping to complete them today or tomorrow morning.	141966601	1475784136848	1475784136989	a	65
278718	2989100	I am hoping to complete them today or tomorrow morning.	I am hoping to complete them today or tomorrow morning.	141966605	1475784136923	1475784136989	y	89
278718	2989100	I am hoping to complete them today or tomorrow morning.	I am hoping to complete them today or tomorrow morning.	141966607	1475784137020	1475784137128	 	32
278718	2989100	I am hoping to complete them today or tomorrow morning.	I am hoping to complete them today or tomorrow morning.	141966610	1475784137174	1475784137277	o	79
278718	2989100	I am hoping to complete them today or tomorrow morning.	I am hoping to complete them today or tomorrow morning.	141966615	1475784137262	1475784137370	r	82
278718	2989100	I am hoping to complete them today or tomorrow morning.	I am hoping to complete them today or tomorrow morning.	141966637	1475784137341	1475784137445	 	32
278718	2989100	I am hoping to complete them today or tomorrow morning.	I am hoping to complete them today or tomorrow morning.	141966639	1475784137555	1475784137646	t	84
278718	2989100	I am hoping to complete them today or tomorrow morning.	I am hoping to complete them today or tomorrow morning.	141966641	1475784137646	1475784137724	o	79
278718	2989100	I am hoping to complete them today or tomorrow morning.	I am hoping to complete them today or tomorrow morning.	141966643	1475784137802	1475784137942	m	77
278718	2989100	I am hoping to complete them today or tomorrow morning.	I am hoping to complete them today or tomorrow morning.	141966645	1475784137891	1475784138009	o	79
278718	2989100	I am hoping to complete them today or tomorrow morning.	I am hoping to complete them today or tomorrow morning.	141966662	1475784137988	1475784138049	r	82
278718	2989100	I am hoping to complete them today or tomorrow morning.	I am hoping to complete them today or tomorrow morning.	141966665	1475784138111	1475784138198	r	82
278718	2989100	I am hoping to complete them today or tomorrow morning.	I am hoping to complete them today or tomorrow morning.	141966668	1475784138230	1475784138327	o	79
278718	2989100	I am hoping to complete them today or tomorrow morning.	I am hoping to complete them today or tomorrow morning.	141966672	1475784138297	1475784138428	w	87
278718	2989100	I am hoping to complete them today or tomorrow morning.	I am hoping to complete them today or tomorrow morning.	141966676	1475784138389	1475784138504	 	32
278718	2989100	I am hoping to complete them today or tomorrow morning.	I am hoping to complete them today or tomorrow morning.	141966680	1475784138567	1475784138700	m	77
278718	2989100	I am hoping to complete them today or tomorrow morning.	I am hoping to complete them today or tomorrow morning.	141966708	1475784138633	1475784138743	o	79
278718	2989100	I am hoping to complete them today or tomorrow morning.	I am hoping to complete them today or tomorrow morning.	141966711	1475784138743	1475784138840	r	82
278718	2989100	I am hoping to complete them today or tomorrow morning.	I am hoping to complete them today or tomorrow morning.	141966715	1475784139016	1475784139153	n	78
278718	2989100	I am hoping to complete them today or tomorrow morning.	I am hoping to complete them today or tomorrow morning.	141966719	1475784139114	1475784139284	i	73
278718	2989100	I am hoping to complete them today or tomorrow morning.	I am hoping to complete them today or tomorrow morning.	141966724	1475784139221	1475784139325	n	78
278718	2989100	I am hoping to complete them today or tomorrow morning.	I am hoping to complete them today or tomorrow morning.	141966745	1475784139300	1475784139391	g	71
278718	2989100	I am hoping to complete them today or tomorrow morning.	I am hoping to complete them today or tomorrow morning.	141966748	1475784139469	1475784139518	.	190
278718	2989110	South Korea will send two escort destroyers and men for the maneuvers.	South Korea will send two escort destroyers and men for the maneuvers.	141966875	1475784141381	1475784141602	SHIFT	16
278718	2989110	South Korea will send two escort destroyers and men for the maneuvers.	South Korea will send two escort destroyers and men for the maneuvers.	141966879	1475784141665	1475784141760	o	79
278718	2989110	South Korea will send two escort destroyers and men for the maneuvers.	South Korea will send two escort destroyers and men for the maneuvers.	141966881	1475784141869	1475784141935	u	85
278718	2989110	South Korea will send two escort destroyers and men for the maneuvers.	South Korea will send two escort destroyers and men for the maneuvers.	141966883	1475784142013	1475784142078	t	84
278718	2989110	South Korea will send two escort destroyers and men for the maneuvers.	South Korea will send two escort destroyers and men for the maneuvers.	141966884	1475784142043	1475784142111	h	72
278718	2989110	South Korea will send two escort destroyers and men for the maneuvers.	South Korea will send two escort destroyers and men for the maneuvers.	141966885	1475784142158	1475784142245	 	32
278718	2989110	South Korea will send two escort destroyers and men for the maneuvers.	South Korea will send two escort destroyers and men for the maneuvers.	141966936	1475784142274	1475784142435	SHIFT	16
278718	2989110	South Korea will send two escort destroyers and men for the maneuvers.	South Korea will send two escort destroyers and men for the maneuvers.	141966939	1475784142414	1475784142590	L	75
278718	2989110	South Korea will send two escort destroyers and men for the maneuvers.	South Korea will send two escort destroyers and men for the maneuvers.	141966945	1475784142502	1475784142653	o	79
278718	2989110	South Korea will send two escort destroyers and men for the maneuvers.	South Korea will send two escort destroyers and men for the maneuvers.	141966948	1475784142871	1475784142945	BKSP	8
278718	2989110	South Korea will send two escort destroyers and men for the maneuvers.	South Korea will send two escort destroyers and men for the maneuvers.	141966952	1475784143008	1475784143085	BKSP	8
278718	2989110	South Korea will send two escort destroyers and men for the maneuvers.	South Korea will send two escort destroyers and men for the maneuvers.	141966958	1475784143336	1475784143422	o	79
278718	2989110	South Korea will send two escort destroyers and men for the maneuvers.	South Korea will send two escort destroyers and men for the maneuvers.	141966962	1475784143422	1475784143582	r	82
278718	2989110	South Korea will send two escort destroyers and men for the maneuvers.	South Korea will send two escort destroyers and men for the maneuvers.	141966972	1475784143481	1475784143612	e	69
278718	2989110	South Korea will send two escort destroyers and men for the maneuvers.	South Korea will send two escort destroyers and men for the maneuvers.	141966975	1475784143530	1475784143671	a	65
278718	2989110	South Korea will send two escort destroyers and men for the maneuvers.	South Korea will send two escort destroyers and men for the maneuvers.	141966980	1475784143612	1475784143718	 	32
278718	2989110	South Korea will send two escort destroyers and men for the maneuvers.	South Korea will send two escort destroyers and men for the maneuvers.	141966983	1475784143749	1475784143890	w	87
278718	2989110	South Korea will send two escort destroyers and men for the maneuvers.	South Korea will send two escort destroyers and men for the maneuvers.	141966988	1475784143830	1475784143905	i	73
278718	2989110	South Korea will send two escort destroyers and men for the maneuvers.	South Korea will send two escort destroyers and men for the maneuvers.	141966994	1475784143983	1475784144048	l	76
278718	2989110	South Korea will send two escort destroyers and men for the maneuvers.	South Korea will send two escort destroyers and men for the maneuvers.	141967001	1475784144080	1475784144167	l	76
278718	2989110	South Korea will send two escort destroyers and men for the maneuvers.	South Korea will send two escort destroyers and men for the maneuvers.	141966998	1475784144138	1475784144248	 	32
278718	2989110	South Korea will send two escort destroyers and men for the maneuvers.	South Korea will send two escort destroyers and men for the maneuvers.	141967003	1475784144205	1475784144333	s	83
278718	2989110	South Korea will send two escort destroyers and men for the maneuvers.	South Korea will send two escort destroyers and men for the maneuvers.	141967007	1475784144272	1475784144348	e	69
278718	2989110	South Korea will send two escort destroyers and men for the maneuvers.	South Korea will send two escort destroyers and men for the maneuvers.	141967010	1475784144333	1475784144404	n	78
278718	2989110	South Korea will send two escort destroyers and men for the maneuvers.	South Korea will send two escort destroyers and men for the maneuvers.	141967013	1475784144404	1475784144494	d	68
278718	2989110	South Korea will send two escort destroyers and men for the maneuvers.	South Korea will send two escort destroyers and men for the maneuvers.	141967034	1475784144480	1475784144607	 	32
278718	2989110	South Korea will send two escort destroyers and men for the maneuvers.	South Korea will send two escort destroyers and men for the maneuvers.	141967036	1475784144586	1475784144695	t	84
278718	2989110	South Korea will send two escort destroyers and men for the maneuvers.	South Korea will send two escort destroyers and men for the maneuvers.	141967040	1475784144665	1475784144789	w	87
278718	2989110	South Korea will send two escort destroyers and men for the maneuvers.	South Korea will send two escort destroyers and men for the maneuvers.	141967043	1475784144770	1475784144895	o	79
278718	2989110	South Korea will send two escort destroyers and men for the maneuvers.	South Korea will send two escort destroyers and men for the maneuvers.	141967047	1475784144848	1475784144953	 	32
278718	2989110	South Korea will send two escort destroyers and men for the maneuvers.	South Korea will send two escort destroyers and men for the maneuvers.	141967051	1475784144968	1475784145064	e	69
278718	2989110	South Korea will send two escort destroyers and men for the maneuvers.	South Korea will send two escort destroyers and men for the maneuvers.	141967069	1475784145538	1475784145605	s	83
278718	2989110	South Korea will send two escort destroyers and men for the maneuvers.	South Korea will send two escort destroyers and men for the maneuvers.	141967073	1475784145683	1475784145782	c	67
278718	2989110	South Korea will send two escort destroyers and men for the maneuvers.	South Korea will send two escort destroyers and men for the maneuvers.	141967079	1475784145798	1475784145888	o	79
278718	2989110	South Korea will send two escort destroyers and men for the maneuvers.	South Korea will send two escort destroyers and men for the maneuvers.	141967083	1475784145903	1475784145972	r	82
278718	2989110	South Korea will send two escort destroyers and men for the maneuvers.	South Korea will send two escort destroyers and men for the maneuvers.	141967086	1475784146034	1475784146115	t	84
278718	2989110	South Korea will send two escort destroyers and men for the maneuvers.	South Korea will send two escort destroyers and men for the maneuvers.	141967115	1475784146115	1475784146199	 	32
278718	2989110	South Korea will send two escort destroyers and men for the maneuvers.	South Korea will send two escort destroyers and men for the maneuvers.	141967117	1475784146246	1475784146363	d	68
278718	2989110	South Korea will send two escort destroyers and men for the maneuvers.	South Korea will send two escort destroyers and men for the maneuvers.	141967120	1475784146307	1475784146389	e	69
278718	2989110	South Korea will send two escort destroyers and men for the maneuvers.	South Korea will send two escort destroyers and men for the maneuvers.	141967126	1475784146483	1475784146590	s	83
278718	2989110	South Korea will send two escort destroyers and men for the maneuvers.	South Korea will send two escort destroyers and men for the maneuvers.	141967131	1475784147015	1475784147099	t	84
278718	2989110	South Korea will send two escort destroyers and men for the maneuvers.	South Korea will send two escort destroyers and men for the maneuvers.	141967214	1475784147282	1475784147380	r	82
278718	2989110	South Korea will send two escort destroyers and men for the maneuvers.	South Korea will send two escort destroyers and men for the maneuvers.	141967220	1475784147490	1475784147563	y	89
278718	2989110	South Korea will send two escort destroyers and men for the maneuvers.	South Korea will send two escort destroyers and men for the maneuvers.	141967224	1475784147630	1475784147688	o	79
278718	2989110	South Korea will send two escort destroyers and men for the maneuvers.	South Korea will send two escort destroyers and men for the maneuvers.	141967231	1475784147692	1475784147783	o	79
278718	2989110	South Korea will send two escort destroyers and men for the maneuvers.	South Korea will send two escort destroyers and men for the maneuvers.	141967235	1475784148103	1475784148174	BKSP	8
278718	2989110	South Korea will send two escort destroyers and men for the maneuvers.	South Korea will send two escort destroyers and men for the maneuvers.	141967240	1475784148252	1475784148324	BKSP	8
278718	2989110	South Korea will send two escort destroyers and men for the maneuvers.	South Korea will send two escort destroyers and men for the maneuvers.	141967241	1475784148481	1475784148557	BKSP	8
278718	2989110	South Korea will send two escort destroyers and men for the maneuvers.	South Korea will send two escort destroyers and men for the maneuvers.	141967243	1475784148643	1475784148710	o	79
278718	2989110	South Korea will send two escort destroyers and men for the maneuvers.	South Korea will send two escort destroyers and men for the maneuvers.	141967247	1475784148855	1475784148940	y	89
278718	2989110	South Korea will send two escort destroyers and men for the maneuvers.	South Korea will send two escort destroyers and men for the maneuvers.	141967249	1475784148940	1475784149038	e	69
278718	2989110	South Korea will send two escort destroyers and men for the maneuvers.	South Korea will send two escort destroyers and men for the maneuvers.	141967252	1475784149008	1475784149070	r	82
278718	2989110	South Korea will send two escort destroyers and men for the maneuvers.	South Korea will send two escort destroyers and men for the maneuvers.	141967255	1475784149149	1475784149253	s	83
278718	2989110	South Korea will send two escort destroyers and men for the maneuvers.	South Korea will send two escort destroyers and men for the maneuvers.	141967285	1475784149219	1475784149340	 	32
278718	2989110	South Korea will send two escort destroyers and men for the maneuvers.	South Korea will send two escort destroyers and men for the maneuvers.	141967288	1475784149512	1475784149641	a	65
278718	2989110	South Korea will send two escort destroyers and men for the maneuvers.	South Korea will send two escort destroyers and men for the maneuvers.	141967295	1475784149602	1475784149676	n	78
278718	2989110	South Korea will send two escort destroyers and men for the maneuvers.	South Korea will send two escort destroyers and men for the maneuvers.	141967303	1475784149692	1475784149789	d	68
278718	2989110	South Korea will send two escort destroyers and men for the maneuvers.	South Korea will send two escort destroyers and men for the maneuvers.	141967309	1475784149745	1475784149819	 	32
278718	2989110	South Korea will send two escort destroyers and men for the maneuvers.	South Korea will send two escort destroyers and men for the maneuvers.	141967316	1475784149819	1475784149909	m	77
278718	2989110	South Korea will send two escort destroyers and men for the maneuvers.	South Korea will send two escort destroyers and men for the maneuvers.	141967324	1475784149877	1475784149960	e	69
278718	2989110	South Korea will send two escort destroyers and men for the maneuvers.	South Korea will send two escort destroyers and men for the maneuvers.	141967329	1475784149991	1475784150055	n	78
278718	2989110	South Korea will send two escort destroyers and men for the maneuvers.	South Korea will send two escort destroyers and men for the maneuvers.	141967334	1475784150037	1475784150118	 	32
278718	2989110	South Korea will send two escort destroyers and men for the maneuvers.	South Korea will send two escort destroyers and men for the maneuvers.	141967337	1475784150109	1475784150172	f	70
278718	2989110	South Korea will send two escort destroyers and men for the maneuvers.	South Korea will send two escort destroyers and men for the maneuvers.	141967340	1475784150188	1475784150284	o	79
278718	2989110	South Korea will send two escort destroyers and men for the maneuvers.	South Korea will send two escort destroyers and men for the maneuvers.	141967367	1475784150254	1475784150327	r	82
278718	2989110	South Korea will send two escort destroyers and men for the maneuvers.	South Korea will send two escort destroyers and men for the maneuvers.	141967370	1475784150343	1475784150419	 	32
278718	2989110	South Korea will send two escort destroyers and men for the maneuvers.	South Korea will send two escort destroyers and men for the maneuvers.	141967372	1475784150625	1475784150688	t	84
278718	2989110	South Korea will send two escort destroyers and men for the maneuvers.	South Korea will send two escort destroyers and men for the maneuvers.	141967373	1475784150755	1475784150836	h	72
278718	2989110	South Korea will send two escort destroyers and men for the maneuvers.	South Korea will send two escort destroyers and men for the maneuvers.	141967374	1475784150836	1475784150952	e	69
278718	2989110	South Korea will send two escort destroyers and men for the maneuvers.	South Korea will send two escort destroyers and men for the maneuvers.	141967408	1475784150921	1475784151003	 	32
278718	2989110	South Korea will send two escort destroyers and men for the maneuvers.	South Korea will send two escort destroyers and men for the maneuvers.	141967411	1475784151034	1475784151122	m	77
278718	2989110	South Korea will send two escort destroyers and men for the maneuvers.	South Korea will send two escort destroyers and men for the maneuvers.	141967415	1475784151102	1475784151211	a	65
278718	2989110	South Korea will send two escort destroyers and men for the maneuvers.	South Korea will send two escort destroyers and men for the maneuvers.	141967418	1475784151304	1475784151377	n	78
278718	2989110	South Korea will send two escort destroyers and men for the maneuvers.	South Korea will send two escort destroyers and men for the maneuvers.	141967420	1475784151424	1475784151541	e	69
278718	2989110	South Korea will send two escort destroyers and men for the maneuvers.	South Korea will send two escort destroyers and men for the maneuvers.	141967425	1475784151572	1475784151651	u	85
278718	2989110	South Korea will send two escort destroyers and men for the maneuvers.	South Korea will send two escort destroyers and men for the maneuvers.	141967450	1475784151757	1475784151828	v	86
278718	2989110	South Korea will send two escort destroyers and men for the maneuvers.	South Korea will send two escort destroyers and men for the maneuvers.	141967453	1475784151891	1475784152002	e	69
278718	2989110	South Korea will send two escort destroyers and men for the maneuvers.	South Korea will send two escort destroyers and men for the maneuvers.	141967458	1475784151971	1475784152045	r	82
278718	2989110	South Korea will send two escort destroyers and men for the maneuvers.	South Korea will send two escort destroyers and men for the maneuvers.	141967462	1475784152092	1475784152188	s	83
278718	2989110	South Korea will send two escort destroyers and men for the maneuvers.	South Korea will send two escort destroyers and men for the maneuvers.	141967465	1475784152203	1475784152279	.	190
278718	2989127	Many townspeople who had gathered earlier on the main road.	Many townspeople who had gathered earlier on the main road.	141967599	1475784154409	1475784154638	SHIFT	16
278718	2989127	Many townspeople who had gathered earlier on the main road.	Many townspeople who had gathered earlier on the main road.	141967601	1475784154604	1475784154696	M	77
278718	2989127	Many townspeople who had gathered earlier on the main road.	Many townspeople who had gathered earlier on the main road.	141967605	1475784154728	1475784154813	a	65
278718	2989127	Many townspeople who had gathered earlier on the main road.	Many townspeople who had gathered earlier on the main road.	141967608	1475784154813	1475784154907	n	78
278718	2989127	Many townspeople who had gathered earlier on the main road.	Many townspeople who had gathered earlier on the main road.	141967610	1475784154907	1475784155024	y	89
278718	2989127	Many townspeople who had gathered earlier on the main road.	Many townspeople who had gathered earlier on the main road.	141967637	1475784154990	1475784155090	 	32
278718	2989127	Many townspeople who had gathered earlier on the main road.	Many townspeople who had gathered earlier on the main road.	141967640	1475784155105	1475784155216	t	84
278718	2989127	Many townspeople who had gathered earlier on the main road.	Many townspeople who had gathered earlier on the main road.	141967643	1475784155198	1475784155280	o	79
278718	2989127	Many townspeople who had gathered earlier on the main road.	Many townspeople who had gathered earlier on the main road.	141967644	1475784155327	1475784155445	w	87
278718	2989127	Many townspeople who had gathered earlier on the main road.	Many townspeople who had gathered earlier on the main road.	141967645	1475784155465	1475784155564	n	78
278718	2989127	Many townspeople who had gathered earlier on the main road.	Many townspeople who had gathered earlier on the main road.	141967647	1475784155642	1475784155747	s	83
278718	2989127	Many townspeople who had gathered earlier on the main road.	Many townspeople who had gathered earlier on the main road.	141967686	1475784155899	1475784155997	p	80
278718	2989127	Many townspeople who had gathered earlier on the main road.	Many townspeople who had gathered earlier on the main road.	141967690	1475784156044	1475784156147	e	69
278718	2989127	Many townspeople who had gathered earlier on the main road.	Many townspeople who had gathered earlier on the main road.	141967695	1475784156147	1475784156207	o	79
278718	2989127	Many townspeople who had gathered earlier on the main road.	Many townspeople who had gathered earlier on the main road.	141967702	1475784156289	1475784156366	p	80
278718	2989127	Many townspeople who had gathered earlier on the main road.	Many townspeople who had gathered earlier on the main road.	141967707	1475784156429	1475784156530	l	76
278718	2989127	Many townspeople who had gathered earlier on the main road.	Many townspeople who had gathered earlier on the main road.	141967721	1475784156482	1475784156542	e	69
278718	2989127	Many townspeople who had gathered earlier on the main road.	Many townspeople who had gathered earlier on the main road.	141967725	1475784156558	1475784156671	 	32
278718	2989127	Many townspeople who had gathered earlier on the main road.	Many townspeople who had gathered earlier on the main road.	141967730	1475784156656	1475784156741	w	87
278718	2989127	Many townspeople who had gathered earlier on the main road.	Many townspeople who had gathered earlier on the main road.	141967734	1475784156741	1475784156876	h	72
278718	2989127	Many townspeople who had gathered earlier on the main road.	Many townspeople who had gathered earlier on the main road.	141967736	1475784156811	1475784156930	o	79
278718	2989127	Many townspeople who had gathered earlier on the main road.	Many townspeople who had gathered earlier on the main road.	141967756	1475784156908	1475784156967	 	32
278718	2989127	Many townspeople who had gathered earlier on the main road.	Many townspeople who had gathered earlier on the main road.	141967760	1475784156990	1475784157094	h	72
278718	2989127	Many townspeople who had gathered earlier on the main road.	Many townspeople who had gathered earlier on the main road.	141967762	1475784157042	1475784157186	a	65
278718	2989127	Many townspeople who had gathered earlier on the main road.	Many townspeople who had gathered earlier on the main road.	141967766	1475784157141	1475784157223	d	68
278718	2989127	Many townspeople who had gathered earlier on the main road.	Many townspeople who had gathered earlier on the main road.	141967770	1475784157193	1475784157299	 	32
278718	2989127	Many townspeople who had gathered earlier on the main road.	Many townspeople who had gathered earlier on the main road.	141967774	1475784157397	1475784157467	g	71
278718	2989127	Many townspeople who had gathered earlier on the main road.	Many townspeople who had gathered earlier on the main road.	141967783	1475784157497	1475784157592	a	65
278718	2989127	Many townspeople who had gathered earlier on the main road.	Many townspeople who had gathered earlier on the main road.	141967789	1475784157592	1475784157691	t	84
278718	2989127	Many townspeople who had gathered earlier on the main road.	Many townspeople who had gathered earlier on the main road.	141967793	1475784157723	1475784157828	h	72
278718	2989127	Many townspeople who had gathered earlier on the main road.	Many townspeople who had gathered earlier on the main road.	141967797	1475784157809	1475784157902	e	69
278718	2989127	Many townspeople who had gathered earlier on the main road.	Many townspeople who had gathered earlier on the main road.	141967856	1475784157862	1475784157944	r	82
278718	2989127	Many townspeople who had gathered earlier on the main road.	Many townspeople who had gathered earlier on the main road.	141967860	1475784158241	1475784158333	e	69
278718	2989127	Many townspeople who had gathered earlier on the main road.	Many townspeople who had gathered earlier on the main road.	141967866	1475784158349	1475784158475	d	68
278718	2989127	Many townspeople who had gathered earlier on the main road.	Many townspeople who had gathered earlier on the main road.	141967869	1475784158459	1475784158543	 	32
278718	2989127	Many townspeople who had gathered earlier on the main road.	Many townspeople who had gathered earlier on the main road.	141967874	1475784158699	1475784158837	e	69
278718	2989127	Many townspeople who had gathered earlier on the main road.	Many townspeople who had gathered earlier on the main road.	141967912	1475784158784	1475784158953	a	65
278718	2989127	Many townspeople who had gathered earlier on the main road.	Many townspeople who had gathered earlier on the main road.	141967915	1475784158926	1475784159037	r	82
278718	2989127	Many townspeople who had gathered earlier on the main road.	Many townspeople who had gathered earlier on the main road.	141967919	1475784159002	1475784159084	l	76
278718	2989127	Many townspeople who had gathered earlier on the main road.	Many townspeople who had gathered earlier on the main road.	141967924	1475784159178	1475784159268	i	73
278718	2989127	Many townspeople who had gathered earlier on the main road.	Many townspeople who had gathered earlier on the main road.	141967927	1475784159377	1475784159468	e	69
278718	2989127	Many townspeople who had gathered earlier on the main road.	Many townspeople who had gathered earlier on the main road.	141967931	1475784159546	1475784159626	e	69
278718	2989127	Many townspeople who had gathered earlier on the main road.	Many townspeople who had gathered earlier on the main road.	141968013	1475784159596	1475784159693	r	82
278718	2989127	Many townspeople who had gathered earlier on the main road.	Many townspeople who had gathered earlier on the main road.	141968017	1475784159693	1475784159794	 	32
278718	2989127	Many townspeople who had gathered earlier on the main road.	Many townspeople who had gathered earlier on the main road.	141968020	1475784159841	1475784159931	o	79
278718	2989127	Many townspeople who had gathered earlier on the main road.	Many townspeople who had gathered earlier on the main road.	141968023	1475784160007	1475784160110	n	78
278718	2989127	Many townspeople who had gathered earlier on the main road.	Many townspeople who had gathered earlier on the main road.	141968026	1475784160301	1475784160370	BKSP	8
278718	2989127	Many townspeople who had gathered earlier on the main road.	Many townspeople who had gathered earlier on the main road.	141968029	1475784160433	1475784160514	BKSP	8
278718	2989127	Many townspeople who had gathered earlier on the main road.	Many townspeople who had gathered earlier on the main road.	141968033	1475784160576	1475784160638	BKSP	8
278718	2989127	Many townspeople who had gathered earlier on the main road.	Many townspeople who had gathered earlier on the main road.	141968037	1475784160700	1475784160779	BKSP	8
278718	2989127	Many townspeople who had gathered earlier on the main road.	Many townspeople who had gathered earlier on the main road.	141968042	1475784160853	1475784160920	BKSP	8
278718	2989127	Many townspeople who had gathered earlier on the main road.	Many townspeople who had gathered earlier on the main road.	141968046	1475784161211	1475784161302	r	82
278718	2989127	Many townspeople who had gathered earlier on the main road.	Many townspeople who had gathered earlier on the main road.	141968053	1475784161334	1475784161444	 	32
278718	2989127	Many townspeople who had gathered earlier on the main road.	Many townspeople who had gathered earlier on the main road.	141968043	1475784161486	1475784161554	o	79
278718	2989127	Many townspeople who had gathered earlier on the main road.	Many townspeople who had gathered earlier on the main road.	141968047	1475784161648	1475784161733	n	78
278718	2989127	Many townspeople who had gathered earlier on the main road.	Many townspeople who had gathered earlier on the main road.	141968052	1475784161715	1475784161787	 	32
278718	2989127	Many townspeople who had gathered earlier on the main road.	Many townspeople who had gathered earlier on the main road.	141968057	1475784161766	1475784161823	t	84
278718	2989127	Many townspeople who had gathered earlier on the main road.	Many townspeople who had gathered earlier on the main road.	141968063	1475784161839	1475784161915	h	72
278718	2989127	Many townspeople who had gathered earlier on the main road.	Many townspeople who had gathered earlier on the main road.	141968074	1475784161915	1475784161998	e	69
278718	2989127	Many townspeople who had gathered earlier on the main road.	Many townspeople who had gathered earlier on the main road.	141968078	1475784161974	1475784162052	 	32
278718	2989127	Many townspeople who had gathered earlier on the main road.	Many townspeople who had gathered earlier on the main road.	141968082	1475784162038	1475784162115	m	77
278718	2989127	Many townspeople who had gathered earlier on the main road.	Many townspeople who had gathered earlier on the main road.	141968089	1475784162104	1475784162246	a	65
278718	2989127	Many townspeople who had gathered earlier on the main road.	Many townspeople who had gathered earlier on the main road.	141968115	1475784162201	1475784162256	i	73
278718	2989127	Many townspeople who had gathered earlier on the main road.	Many townspeople who had gathered earlier on the main road.	141968118	1475784162318	1475784162399	n	78
278718	2989127	Many townspeople who had gathered earlier on the main road.	Many townspeople who had gathered earlier on the main road.	141968121	1475784162345	1475784162440	 	32
278718	2989127	Many townspeople who had gathered earlier on the main road.	Many townspeople who had gathered earlier on the main road.	141968127	1475784162415	1475784162504	r	82
278718	2989127	Many townspeople who had gathered earlier on the main road.	Many townspeople who had gathered earlier on the main road.	141968135	1475784162520	1475784162599	o	79
278718	2989127	Many townspeople who had gathered earlier on the main road.	Many townspeople who had gathered earlier on the main road.	141968143	1475784162599	1475784162729	a	65
278718	2989127	Many townspeople who had gathered earlier on the main road.	Many townspeople who had gathered earlier on the main road.	141968126	1475784162672	1475784162790	d	68
278718	2989127	Many townspeople who had gathered earlier on the main road.	Many townspeople who had gathered earlier on the main road.	141968132	1475784162755	1475784162837	.	190
278718	2989144	The military refuses to leave power and restore democracy by May 21.	The military refuses to leave power and restore democracy by May 21	141968292	1475784164479	1475784164840	SHIFT	16
278718	2989144	The military refuses to leave power and restore democracy by May 21.	The military refuses to leave power and restore democracy by May 21	141968287	1475784164742	1475784164825	T	84
278718	2989144	The military refuses to leave power and restore democracy by May 21.	The military refuses to leave power and restore democracy by May 21	141968297	1475784164981	1475784165035	h	72
278718	2989144	The military refuses to leave power and restore democracy by May 21.	The military refuses to leave power and restore democracy by May 21	141968301	1475784165051	1475784165153	e	69
278718	2989144	The military refuses to leave power and restore democracy by May 21.	The military refuses to leave power and restore democracy by May 21	141968307	1475784165118	1475784165223	 	32
278718	2989144	The military refuses to leave power and restore democracy by May 21.	The military refuses to leave power and restore democracy by May 21	141968312	1475784165238	1475784165365	m	77
278718	2989144	The military refuses to leave power and restore democracy by May 21.	The military refuses to leave power and restore democracy by May 21	141968324	1475784165309	1475784165376	i	73
278718	2989144	The military refuses to leave power and restore democracy by May 21.	The military refuses to leave power and restore democracy by May 21	141968327	1475784165454	1475784165550	l	76
278718	2989144	The military refuses to leave power and restore democracy by May 21.	The military refuses to leave power and restore democracy by May 21	141968331	1475784165628	1475784165742	i	73
278718	2989144	The military refuses to leave power and restore democracy by May 21.	The military refuses to leave power and restore democracy by May 21	141968334	1475784165709	1475784165792	t	84
278718	2989144	The military refuses to leave power and restore democracy by May 21.	The military refuses to leave power and restore democracy by May 21	141968338	1475784165964	1475784166154	a	65
278718	2989144	The military refuses to leave power and restore democracy by May 21.	The military refuses to leave power and restore democracy by May 21	141968365	1475784166099	1475784166212	r	82
278718	2989144	The military refuses to leave power and restore democracy by May 21.	The military refuses to leave power and restore democracy by May 21	141968367	1475784166212	1475784166277	y	89
278718	2989144	The military refuses to leave power and restore democracy by May 21.	The military refuses to leave power and restore democracy by May 21	141968371	1475784166309	1475784166402	 	32
278718	2989144	The military refuses to leave power and restore democracy by May 21.	The military refuses to leave power and restore democracy by May 21	141968375	1475784166433	1475784166531	r	82
278718	2989144	The military refuses to leave power and restore democracy by May 21.	The military refuses to leave power and restore democracy by May 21	141968379	1475784166509	1475784166591	e	69
278718	2989144	The military refuses to leave power and restore democracy by May 21.	The military refuses to leave power and restore democracy by May 21	141968382	1475784166673	1475784166759	f	70
278718	2989144	The military refuses to leave power and restore democracy by May 21.	The military refuses to leave power and restore democracy by May 21	141968389	1475784166770	1475784166852	u	85
278718	2989144	The military refuses to leave power and restore democracy by May 21.	The military refuses to leave power and restore democracy by May 21	141968391	1475784166867	1475784166978	s	83
278718	2989144	The military refuses to leave power and restore democracy by May 21.	The military refuses to leave power and restore democracy by May 21	141968395	1475784166953	1475784167064	e	69
278718	2989144	The military refuses to leave power and restore democracy by May 21.	The military refuses to leave power and restore democracy by May 21	141968401	1475784167035	1475784167142	s	83
278718	2989144	The military refuses to leave power and restore democracy by May 21.	The military refuses to leave power and restore democracy by May 21	141968422	1475784167110	1475784167218	 	32
278718	2989144	The military refuses to leave power and restore democracy by May 21.	The military refuses to leave power and restore democracy by May 21	141968426	1475784167218	1475784167293	t	84
278718	2989144	The military refuses to leave power and restore democracy by May 21.	The military refuses to leave power and restore democracy by May 21	141968433	1475784167309	1475784167383	o	79
278718	2989144	The military refuses to leave power and restore democracy by May 21.	The military refuses to leave power and restore democracy by May 21	141968440	1475784167376	1475784167427	 	32
278718	2989144	The military refuses to leave power and restore democracy by May 21.	The military refuses to leave power and restore democracy by May 21	141968444	1475784167458	1475784167587	l	76
278718	2989144	The military refuses to leave power and restore democracy by May 21.	The military refuses to leave power and restore democracy by May 21	141968457	1475784167502	1475784167593	e	69
278718	2989144	The military refuses to leave power and restore democracy by May 21.	The military refuses to leave power and restore democracy by May 21	141968463	1475784167554	1475784167644	a	65
278718	2989144	The military refuses to leave power and restore democracy by May 21.	The military refuses to leave power and restore democracy by May 21	141968471	1475784167706	1475784167777	v	86
278718	2989144	The military refuses to leave power and restore democracy by May 21.	The military refuses to leave power and restore democracy by May 21	141968479	1475784167777	1475784167858	e	69
278718	2989144	The military refuses to leave power and restore democracy by May 21.	The military refuses to leave power and restore democracy by May 21	141968484	1475784167832	1475784167904	 	32
278718	2989144	The military refuses to leave power and restore democracy by May 21.	The military refuses to leave power and restore democracy by May 21	141968494	1475784167913	1475784168073	p	80
278718	2989144	The military refuses to leave power and restore democracy by May 21.	The military refuses to leave power and restore democracy by May 21	141968515	1475784167977	1475784168102	o	79
278718	2989144	The military refuses to leave power and restore democracy by May 21.	The military refuses to leave power and restore democracy by May 21	141968512	1475784168014	1475784168101	w	87
278718	2989144	The military refuses to leave power and restore democracy by May 21.	The military refuses to leave power and restore democracy by May 21	141968519	1475784168061	1475784168135	e	69
278718	2989144	The military refuses to leave power and restore democracy by May 21.	The military refuses to leave power and restore democracy by May 21	141968523	1475784168213	1475784168294	r	82
278718	2989144	The military refuses to leave power and restore democracy by May 21.	The military refuses to leave power and restore democracy by May 21	141968527	1475784168310	1475784168407	 	32
278718	2989144	The military refuses to leave power and restore democracy by May 21.	The military refuses to leave power and restore democracy by May 21	141968531	1475784168396	1475784168528	a	65
278718	2989144	The military refuses to leave power and restore democracy by May 21.	The military refuses to leave power and restore democracy by May 21	141968535	1475784168501	1475784168586	n	78
278718	2989144	The military refuses to leave power and restore democracy by May 21.	The military refuses to leave power and restore democracy by May 21	141968539	1475784168586	1475784168671	d	68
278718	2989144	The military refuses to leave power and restore democracy by May 21.	The military refuses to leave power and restore democracy by May 21	141968559	1475784168646	1475784168726	 	32
278718	2989144	The military refuses to leave power and restore democracy by May 21.	The military refuses to leave power and restore democracy by May 21	141968566	1475784168758	1475784168846	r	82
278718	2989144	The military refuses to leave power and restore democracy by May 21.	The military refuses to leave power and restore democracy by May 21	141968572	1475784168812	1475784168878	e	69
278718	2989144	The military refuses to leave power and restore democracy by May 21.	The military refuses to leave power and restore democracy by May 21	141968577	1475784168956	1475784169060	s	83
278718	2989144	The military refuses to leave power and restore democracy by May 21.	The military refuses to leave power and restore democracy by May 21	141968583	1475784169076	1475784169146	t	84
278718	2989144	The military refuses to leave power and restore democracy by May 21.	The military refuses to leave power and restore democracy by May 21	141968591	1475784169177	1475784169263	o	79
278718	2989144	The military refuses to leave power and restore democracy by May 21.	The military refuses to leave power and restore democracy by May 21	141968607	1475784169263	1475784169376	r	82
278718	2989144	The military refuses to leave power and restore democracy by May 21.	The military refuses to leave power and restore democracy by May 21	141968614	1475784169407	1475784169487	y	89
278718	2989144	The military refuses to leave power and restore democracy by May 21.	The military refuses to leave power and restore democracy by May 21	141968621	1475784169463	1475784169556	 	32
278718	2989144	The military refuses to leave power and restore democracy by May 21.	The military refuses to leave power and restore democracy by May 21	141968626	1475784169681	1475784169795	d	68
278718	2989144	The military refuses to leave power and restore democracy by May 21.	The military refuses to leave power and restore democracy by May 21	141968735	1475784169740	1475784169848	e	69
278718	2989144	The military refuses to leave power and restore democracy by May 21.	The military refuses to leave power and restore democracy by May 21	141968743	1475784169800	1475784169903	m	77
278718	2989144	The military refuses to leave power and restore democracy by May 21.	The military refuses to leave power and restore democracy by May 21	141968751	1475784169856	1475784169938	o	79
278718	2989144	The military refuses to leave power and restore democracy by May 21.	The military refuses to leave power and restore democracy by May 21	141968759	1475784170245	1475784170313	BKSP	8
278718	2989144	The military refuses to leave power and restore democracy by May 21.	The military refuses to leave power and restore democracy by May 21	141968766	1475784170375	1475784170446	BKSP	8
278718	2989144	The military refuses to leave power and restore democracy by May 21.	The military refuses to leave power and restore democracy by May 21	141968772	1475784170493	1475784170572	BKSP	8
278718	2989144	The military refuses to leave power and restore democracy by May 21.	The military refuses to leave power and restore democracy by May 21	141968775	1475784170634	1475784170696	BKSP	8
278718	2989144	The military refuses to leave power and restore democracy by May 21.	The military refuses to leave power and restore democracy by May 21	141968778	1475784170754	1475784170798	BKSP	8
278718	2989144	The military refuses to leave power and restore democracy by May 21.	The military refuses to leave power and restore democracy by May 21	141968781	1475784170830	1475784170914	BKSP	8
278718	2989144	The military refuses to leave power and restore democracy by May 21.	The military refuses to leave power and restore democracy by May 21	141968783	1475784171214	1475784171296	e	69
278718	2989144	The military refuses to leave power and restore democracy by May 21.	The military refuses to leave power and restore democracy by May 21	141968785	1475784171328	1475784171429	 	32
278718	2989144	The military refuses to leave power and restore democracy by May 21.	The military refuses to leave power and restore democracy by May 21	141968788	1475784171538	1475784171630	d	68
278718	2989144	The military refuses to leave power and restore democracy by May 21.	The military refuses to leave power and restore democracy by May 21	141968849	1475784171596	1475784171702	e	69
278718	2989144	The military refuses to leave power and restore democracy by May 21.	The military refuses to leave power and restore democracy by May 21	141968854	1475784171665	1475784171816	,	188
278718	2989144	The military refuses to leave power and restore democracy by May 21.	The military refuses to leave power and restore democracy by May 21	141968860	1475784171749	1475784171847	p	80
278718	2989144	The military refuses to leave power and restore democracy by May 21.	The military refuses to leave power and restore democracy by May 21	141968865	1475784172113	1475784172181	BKSP	8
278718	2989144	The military refuses to leave power and restore democracy by May 21.	The military refuses to leave power and restore democracy by May 21	141968869	1475784172238	1475784172298	BKSP	8
278718	2989144	The military refuses to leave power and restore democracy by May 21.	The military refuses to leave power and restore democracy by May 21	141968872	1475784172518	1475784172676	m	77
278718	2989144	The military refuses to leave power and restore democracy by May 21.	The military refuses to leave power and restore democracy by May 21	141968877	1475784172599	1475784172707	o	79
278718	2989144	The military refuses to leave power and restore democracy by May 21.	The military refuses to leave power and restore democracy by May 21	141968881	1475784173216	1475784173283	c	67
278718	2989144	The military refuses to leave power and restore democracy by May 21.	The military refuses to leave power and restore democracy by May 21	141968906	1475784173419	1475784173577	r	82
278718	2989144	The military refuses to leave power and restore democracy by May 21.	The military refuses to leave power and restore democracy by May 21	141968908	1475784173546	1475784173672	a	65
278718	2989144	The military refuses to leave power and restore democracy by May 21.	The military refuses to leave power and restore democracy by May 21	141968910	1475784173781	1475784173875	c	67
278718	2989144	The military refuses to leave power and restore democracy by May 21.	The military refuses to leave power and restore democracy by May 21	141968912	1475784173907	1475784173978	y	89
278718	2989144	The military refuses to leave power and restore democracy by May 21.	The military refuses to leave power and restore democracy by May 21	141968913	1475784174009	1475784174078	 	32
278718	2989144	The military refuses to leave power and restore democracy by May 21.	The military refuses to leave power and restore democracy by May 21	141968954	1475784174433	1475784174540	b	66
278718	2989144	The military refuses to leave power and restore democracy by May 21.	The military refuses to leave power and restore democracy by May 21	141968958	1475784174572	1475784174628	y	89
278718	2989144	The military refuses to leave power and restore democracy by May 21.	The military refuses to leave power and restore democracy by May 21	141968961	1475784174707	1475784174784	 	32
278718	2989144	The military refuses to leave power and restore democracy by May 21.	The military refuses to leave power and restore democracy by May 21	141968968	1475784174909	1475784175134	SHIFT	16
278718	2989144	The military refuses to leave power and restore democracy by May 21.	The military refuses to leave power and restore democracy by May 21	141968974	1475784175096	1475784175183	M	77
278718	2989144	The military refuses to leave power and restore democracy by May 21.	The military refuses to leave power and restore democracy by May 21	141968981	1475784175230	1475784175301	a	65
278718	2989144	The military refuses to leave power and restore democracy by May 21.	The military refuses to leave power and restore democracy by May 21	141969023	1475784175320	1475784175385	n	78
278718	2989144	The military refuses to leave power and restore democracy by May 21.	The military refuses to leave power and restore democracy by May 21	141969028	1475784175619	1475784175716	BKSP	8
278718	2989144	The military refuses to leave power and restore democracy by May 21.	The military refuses to leave power and restore democracy by May 21	141969034	1475784175797	1475784175869	y	89
278718	2989144	The military refuses to leave power and restore democracy by May 21.	The military refuses to leave power and restore democracy by May 21	141969042	1475784175979	1475784176068	 	32
278718	2989144	The military refuses to leave power and restore democracy by May 21.	The military refuses to leave power and restore democracy by May 21	141969051	1475784176177	1475784176288	2	50
278718	2989144	The military refuses to leave power and restore democracy by May 21.	The military refuses to leave power and restore democracy by May 21	141969053	1475784176244	1475784176346	1	49
278718	2989160	If Motley is in we are out of money.	If Motley is in we are out of money.	141969197	1475784177981	1475784178282	SHIFT	16
278718	2989160	If Motley is in we are out of money.	If Motley is in we are out of money.	141969202	1475784178232	1475784178335	I	73
278718	2989160	If Motley is in we are out of money.	If Motley is in we are out of money.	141969207	1475784178366	1475784178477	f	70
278718	2989160	If Motley is in we are out of money.	If Motley is in we are out of money.	141969210	1475784178433	1475784178535	 	32
278718	2989160	If Motley is in we are out of money.	If Motley is in we are out of money.	141969212	1475784178597	1475784178787	SHIFT	16
278718	2989160	If Motley is in we are out of money.	If Motley is in we are out of money.	141969214	1475784178738	1475784178836	M	77
278718	2989160	If Motley is in we are out of money.	If Motley is in we are out of money.	141969215	1475784178914	1475784178997	t	84
278718	2989160	If Motley is in we are out of money.	If Motley is in we are out of money.	141969216	1475784178997	1475784179049	o	79
278718	2989160	If Motley is in we are out of money.	If Motley is in we are out of money.	141969217	1475784179127	1475784179222	l	76
278718	2989160	If Motley is in we are out of money.	If Motley is in we are out of money.	141969218	1475784179171	1475784179269	e	69
278718	2989160	If Motley is in we are out of money.	If Motley is in we are out of money.	141969220	1475784179347	1475784179422	y	89
278718	2989160	If Motley is in we are out of money.	If Motley is in we are out of money.	141969268	1475784179385	1475784179510	 	32
278718	2989160	If Motley is in we are out of money.	If Motley is in we are out of money.	141969271	1475784179470	1475784179523	w	87
278718	2989160	If Motley is in we are out of money.	If Motley is in we are out of money.	141969278	1475784179851	1475784179921	BKSP	8
278718	2989160	If Motley is in we are out of money.	If Motley is in we are out of money.	141969287	1475784180078	1475784180161	i	73
278718	2989160	If Motley is in we are out of money.	If Motley is in we are out of money.	141969293	1475784180148	1475784180272	s	83
278718	2989160	If Motley is in we are out of money.	If Motley is in we are out of money.	141969299	1475784180223	1475784180330	 	32
278718	2989160	If Motley is in we are out of money.	If Motley is in we are out of money.	141969457	1475784180290	1475784180358	i	73
278718	2989160	If Motley is in we are out of money.	If Motley is in we are out of money.	141969460	1475784180436	1475784180521	n	78
278718	2989160	If Motley is in we are out of money.	If Motley is in we are out of money.	141969465	1475784180771	1475784180850	BKSP	8
278718	2989160	If Motley is in we are out of money.	If Motley is in we are out of money.	141969470	1475784180912	1475784180991	BKSP	8
278718	2989160	If Motley is in we are out of money.	If Motley is in we are out of money.	141969475	1475784181054	1475784181118	BKSP	8
278718	2989160	If Motley is in we are out of money.	If Motley is in we are out of money.	141969477	1475784181180	1475784181257	BKSP	8
278718	2989160	If Motley is in we are out of money.	If Motley is in we are out of money.	141969479	1475784181318	1475784181391	BKSP	8
278718	2989160	If Motley is in we are out of money.	If Motley is in we are out of money.	141969481	1475784181462	1475784181519	BKSP	8
278718	2989160	If Motley is in we are out of money.	If Motley is in we are out of money.	141969483	1475784181597	1475784181658	BKSP	8
278718	2989160	If Motley is in we are out of money.	If Motley is in we are out of money.	141969484	1475784181723	1475784181785	BKSP	8
278718	2989160	If Motley is in we are out of money.	If Motley is in we are out of money.	141969486	1475784181855	1475784181909	BKSP	8
278718	2989160	If Motley is in we are out of money.	If Motley is in we are out of money.	141969490	1475784181987	1475784182058	BKSP	8
278718	2989160	If Motley is in we are out of money.	If Motley is in we are out of money.	141969493	1475784182472	1475784182536	BKSP	8
278718	2989160	If Motley is in we are out of money.	If Motley is in we are out of money.	141969496	1475784182661	1475784182715	k	75
278718	2989160	If Motley is in we are out of money.	If Motley is in we are out of money.	141969499	1475784183223	1475784183293	BKSP	8
278718	2989160	If Motley is in we are out of money.	If Motley is in we are out of money.	141969500	1475784183402	1475784183486	o	79
278718	2989160	If Motley is in we are out of money.	If Motley is in we are out of money.	141969505	1475784183501	1475784183591	t	84
278718	2989160	If Motley is in we are out of money.	If Motley is in we are out of money.	141969509	1475784183638	1475784183755	l	76
278718	2989160	If Motley is in we are out of money.	If Motley is in we are out of money.	141969489	1475784183797	1475784183907	e	69
278718	2989160	If Motley is in we are out of money.	If Motley is in we are out of money.	141969492	1475784183969	1475784184052	y	89
278718	2989160	If Motley is in we are out of money.	If Motley is in we are out of money.	141969495	1475784184068	1475784184174	 	32
278718	2989160	If Motley is in we are out of money.	If Motley is in we are out of money.	141969498	1475784184205	1475784184290	i	73
278718	2989160	If Motley is in we are out of money.	If Motley is in we are out of money.	141969516	1475784184260	1475784184365	s	83
278718	2989160	If Motley is in we are out of money.	If Motley is in we are out of money.	141969520	1475784184327	1475784184446	 	32
278718	2989160	If Motley is in we are out of money.	If Motley is in we are out of money.	141969522	1475784184409	1475784184479	i	73
278718	2989160	If Motley is in we are out of money.	If Motley is in we are out of money.	141969526	1475784184557	1475784184644	n	78
278718	2989160	If Motley is in we are out of money.	If Motley is in we are out of money.	141969529	1475784184582	1475784184678	 	32
278718	2989160	If Motley is in we are out of money.	If Motley is in we are out of money.	141969533	1475784184660	1475784184762	w	87
278718	2989160	If Motley is in we are out of money.	If Motley is in we are out of money.	141969535	1475784184736	1475784184826	e	69
278718	2989160	If Motley is in we are out of money.	If Motley is in we are out of money.	141969537	1475784184804	1475784184901	 	32
278718	2989160	If Motley is in we are out of money.	If Motley is in we are out of money.	141969539	1475784184861	1475784184974	a	65
278718	2989160	If Motley is in we are out of money.	If Motley is in we are out of money.	141969541	1475784184974	1475784185075	r	82
278718	2989160	If Motley is in we are out of money.	If Motley is in we are out of money.	141969549	1475784185028	1475784185152	e	69
278718	2989160	If Motley is in we are out of money.	If Motley is in we are out of money.	141969552	1475784185108	1475784185195	 	32
278718	2989160	If Motley is in we are out of money.	If Motley is in we are out of money.	141969561	1475784185195	1475784185325	o	79
278718	2989160	If Motley is in we are out of money.	If Motley is in we are out of money.	141969566	1475784185270	1475784185360	u	85
278718	2989160	If Motley is in we are out of money.	If Motley is in we are out of money.	141969573	1475784185375	1475784185463	t	84
278718	2989160	If Motley is in we are out of money.	If Motley is in we are out of money.	141969645	1475784185438	1475784185528	 	32
278718	2989160	If Motley is in we are out of money.	If Motley is in we are out of money.	141969650	1475784185859	1475784185937	o	79
278718	2989160	If Motley is in we are out of money.	If Motley is in we are out of money.	141969652	1475784185953	1475784186075	f	70
278718	2989160	If Motley is in we are out of money.	If Motley is in we are out of money.	141969656	1475784186044	1475784186137	 	32
278718	2989160	If Motley is in we are out of money.	If Motley is in we are out of money.	141969661	1475784186294	1475784186394	m	77
278718	2989160	If Motley is in we are out of money.	If Motley is in we are out of money.	141969667	1475784186566	1475784186644	o	79
278718	2989160	If Motley is in we are out of money.	If Motley is in we are out of money.	141969716	1475784186732	1475784186806	n	78
278718	2989160	If Motley is in we are out of money.	If Motley is in we are out of money.	141969717	1475784186873	1475784186961	e	69
278718	2989160	If Motley is in we are out of money.	If Motley is in we are out of money.	141969718	1475784186947	1475784187024	y	89
278718	2989160	If Motley is in we are out of money.	If Motley is in we are out of money.	141969719	1475784187278	1475784187356	.	190
