PARTICIPANT_ID	TEST_SECTION_ID	SENTENCE	USER_INPUT	KEYSTROKE_ID	PRESS_TIME	RELEASE_TIME	LETTER	KEYCODE
279075	2992794	This is a major setback for the rookie.	This is a major setback for the rookie.	142138297	1475787229947	1475787230149	SHIFT	16
279075	2992794	This is a major setback for the rookie.	This is a major setback for the rookie.	142138304	1475787230067	1475787230153	T	84
279075	2992794	This is a major setback for the rookie.	This is a major setback for the rookie.	142138312	1475787230185	1475787230281	h	72
279075	2992794	This is a major setback for the rookie.	This is a major setback for the rookie.	142138319	1475787230309	1475787230409	i	73
279075	2992794	This is a major setback for the rookie.	This is a major setback for the rookie.	142138330	1475787230337	1475787230465	s	83
279075	2992794	This is a major setback for the rookie.	This is a major setback for the rookie.	142138338	1475787230529	1475787230637	 	32
279075	2992794	This is a major setback for the rookie.	This is a major setback for the rookie.	142138366	1475787230639	1475787230741	i	73
279075	2992794	This is a major setback for the rookie.	This is a major setback for the rookie.	142138370	1475787230825	1475787230929	s	83
279075	2992794	This is a major setback for the rookie.	This is a major setback for the rookie.	142138375	1475787230965	1475787231065	 	32
279075	2992794	This is a major setback for the rookie.	This is a major setback for the rookie.	142138381	1475787231121	1475787231225	a	65
279075	2992794	This is a major setback for the rookie.	This is a major setback for the rookie.	142138385	1475787231233	1475787231337	 	32
279075	2992794	This is a major setback for the rookie.	This is a major setback for the rookie.	142138441	1475787231521	1475787231649	m	77
279075	2992794	This is a major setback for the rookie.	This is a major setback for the rookie.	142138448	1475787231657	1475787231781	a	65
279075	2992794	This is a major setback for the rookie.	This is a major setback for the rookie.	142138454	1475787232077	1475787232169	j	74
279075	2992794	This is a major setback for the rookie.	This is a major setback for the rookie.	142138462	1475787232241	1475787232341	o	79
279075	2992794	This is a major setback for the rookie.	This is a major setback for the rookie.	142138471	1475787232412	1475787232528	r	82
279075	2992794	This is a major setback for the rookie.	This is a major setback for the rookie.	142138552	1475787232612	1475787232705	 	32
279075	2992794	This is a major setback for the rookie.	This is a major setback for the rookie.	142138555	1475787233165	1475787233284	s	83
279075	2992794	This is a major setback for the rookie.	This is a major setback for the rookie.	142138558	1475787233368	1475787233480	e	69
279075	2992794	This is a major setback for the rookie.	This is a major setback for the rookie.	142138563	1475787233629	1475787233700	t	84
279075	2992794	This is a major setback for the rookie.	This is a major setback for the rookie.	142138566	1475787233912	1475787233993	b	66
279075	2992794	This is a major setback for the rookie.	This is a major setback for the rookie.	142138603	1475787234060	1475787234212	a	65
279075	2992794	This is a major setback for the rookie.	This is a major setback for the rookie.	142138605	1475787234177	1475787234292	c	67
279075	2992794	This is a major setback for the rookie.	This is a major setback for the rookie.	142138606	1475787234336	1475787234460	k	75
279075	2992794	This is a major setback for the rookie.	This is a major setback for the rookie.	142138608	1475787234485	1475787234584	 	32
279075	2992794	This is a major setback for the rookie.	This is a major setback for the rookie.	142138610	1475787234860	1475787234956	f	70
279075	2992794	This is a major setback for the rookie.	This is a major setback for the rookie.	142138623	1475787235004	1475787235092	o	79
279075	2992794	This is a major setback for the rookie.	This is a major setback for the rookie.	142138625	1475787235085	1475787235172	r	82
279075	2992794	This is a major setback for the rookie.	This is a major setback for the rookie.	142138629	1475787235196	1475787235276	 	32
279075	2992794	This is a major setback for the rookie.	This is a major setback for the rookie.	142138631	1475787235300	1475787235374	t	84
279075	2992794	This is a major setback for the rookie.	This is a major setback for the rookie.	142138682	1475787235356	1475787235452	h	72
279075	2992794	This is a major setback for the rookie.	This is a major setback for the rookie.	142138684	1475787235460	1475787235556	e	69
279075	2992794	This is a major setback for the rookie.	This is a major setback for the rookie.	142138687	1475787235580	1475787235668	 	32
279075	2992794	This is a major setback for the rookie.	This is a major setback for the rookie.	142138690	1475787235772	1475787235876	r	82
279075	2992794	This is a major setback for the rookie.	This is a major setback for the rookie.	142138691	1475787235964	1475787236052	o	79
279075	2992794	This is a major setback for the rookie.	This is a major setback for the rookie.	142138693	1475787236124	1475787236212	o	79
279075	2992794	This is a major setback for the rookie.	This is a major setback for the rookie.	142138710	1475787236252	1475787236332	k	75
279075	2992794	This is a major setback for the rookie.	This is a major setback for the rookie.	142138711	1475787236444	1475787236532	i	73
279075	2992794	This is a major setback for the rookie.	This is a major setback for the rookie.	142138714	1475787236548	1475787236676	e	69
279075	2992794	This is a major setback for the rookie.	This is a major setback for the rookie.	142138763	1475787236828	1475787236908	.	191
279075	2992794	This is a major setback for the rookie.	This is a major setback for the rookie.	142138764	1475787237340	1475787237420	BKSP	8
279075	2992794	This is a major setback for the rookie.	This is a major setback for the rookie.	142138765	1475787237468	1475787237556	BKSP	8
279075	2992794	This is a major setback for the rookie.	This is a major setback for the rookie.	142138767	1475787237652	1475787237764	.	190
279075	2992810	They really must get the money together.	They really must get the money together.	142138833	1475787240468	1475787240676	SHIFT	16
279075	2992810	They really must get the money together.	They really must get the money together.	142138836	1475787240604	1475787240708	T	84
279075	2992810	They really must get the money together.	They really must get the money together.	142138838	1475787240740	1475787240820	h	72
279075	2992810	They really must get the money together.	They really must get the money together.	142138841	1475787240836	1475787240940	e	69
279075	2992810	They really must get the money together.	They really must get the money together.	142138843	1475787240964	1475787241060	y	89
279075	2992810	They really must get the money together.	They really must get the money together.	142138845	1475787241116	1475787241204	 	32
279075	2992810	They really must get the money together.	They really must get the money together.	142138865	1475787241292	1475787241380	r	82
279075	2992810	They really must get the money together.	They really must get the money together.	142138870	1475787241388	1475787241492	e	69
279075	2992810	They really must get the money together.	They really must get the money together.	142138876	1475787241492	1475787241628	a	65
279075	2992810	They really must get the money together.	They really must get the money together.	142138881	1475787241700	1475787241780	l	76
279075	2992810	They really must get the money together.	They really must get the money together.	142138886	1475787241860	1475787241940	l	76
279075	2992810	They really must get the money together.	They really must get the money together.	142138958	1475787242004	1475787242079	t	84
279075	2992810	They really must get the money together.	They really must get the money together.	142138962	1475787242652	1475787242756	BKSP	8
279075	2992810	They really must get the money together.	They really must get the money together.	142138969	1475787242780	1475787242860	y	89
279075	2992810	They really must get the money together.	They really must get the money together.	142138976	1475787242892	1475787243020	 	32
279075	2992810	They really must get the money together.	They really must get the money together.	142138982	1475787243300	1475787243404	m	77
279075	2992810	They really must get the money together.	They really must get the money together.	142138988	1475787243556	1475787243636	u	85
279075	2992810	They really must get the money together.	They really must get the money together.	142139073	1475787243638	1475787243748	s	83
279075	2992810	They really must get the money together.	They really must get the money together.	142139079	1475787243740	1475787243868	t	84
279075	2992810	They really must get the money together.	They really must get the money together.	142139085	1475787243860	1475787243980	 	32
279075	2992810	They really must get the money together.	They really must get the money together.	142139090	1475787245044	1475787245132	g	71
279075	2992810	They really must get the money together.	They really must get the money together.	142139095	1475787245188	1475787245316	e	69
279075	2992810	They really must get the money together.	They really must get the money together.	142139107	1475787245318	1475787245404	t	84
279075	2992810	They really must get the money together.	They really must get the money together.	142139111	1475787245444	1475787245572	 	32
279075	2992810	They really must get the money together.	They really must get the money together.	142139116	1475787245564	1475787245644	t	84
279075	2992810	They really must get the money together.	They really must get the money together.	142139122	1475787245676	1475787245764	h	72
279075	2992810	They really must get the money together.	They really must get the money together.	142139154	1475787245756	1475787245860	e	69
279075	2992810	They really must get the money together.	They really must get the money together.	142139155	1475787245852	1475787245956	 	32
279075	2992810	They really must get the money together.	They really must get the money together.	142139156	1475787246020	1475787246156	m	77
279075	2992810	They really must get the money together.	They really must get the money together.	142139157	1475787246220	1475787246332	o	79
279075	2992810	They really must get the money together.	They really must get the money together.	142139158	1475787246364	1475787246476	n	78
279075	2992810	They really must get the money together.	They really must get the money together.	142139159	1475787246484	1475787246588	e	69
279075	2992810	They really must get the money together.	They really must get the money together.	142139196	1475787246652	1475787246748	y	89
279075	2992810	They really must get the money together.	They really must get the money together.	142139199	1475787246772	1475787246868	 	32
279075	2992810	They really must get the money together.	They really must get the money together.	142139202	1475787246996	1475787247084	t	84
279075	2992810	They really must get the money together.	They really must get the money together.	142139204	1475787247148	1475787247244	o	79
279075	2992810	They really must get the money together.	They really must get the money together.	142139207	1475787247556	1475787247660	g	71
279075	2992810	They really must get the money together.	They really must get the money together.	142139220	1475787247748	1475787247876	e	69
279075	2992810	They really must get the money together.	They really must get the money together.	142139222	1475787247924	1475787248004	t	84
279075	2992810	They really must get the money together.	They really must get the money together.	142139224	1475787248020	1475787248100	h	72
279075	2992810	They really must get the money together.	They really must get the money together.	142139226	1475787248084	1475787248220	e	69
279075	2992810	They really must get the money together.	They really must get the money together.	142139235	1475787248180	1475787248308	r	82
279075	2992810	They really must get the money together.	They really must get the money together.	142139239	1475787248348	1475787248460	.	190
279075	2992820	I appreciate you moving so quickly on this.	I appreciate you moving so quickly on this.	142139422	1475787250428	1475787250820	SHIFT	16
279075	2992820	I appreciate you moving so quickly on this.	I appreciate you moving so quickly on this.	142139418	1475787250612	1475787250764	I	73
279075	2992820	I appreciate you moving so quickly on this.	I appreciate you moving so quickly on this.	142139424	1475787250988	1475787251116	 	32
279075	2992820	I appreciate you moving so quickly on this.	I appreciate you moving so quickly on this.	142139427	1475787251212	1475787251356	a	65
279075	2992820	I appreciate you moving so quickly on this.	I appreciate you moving so quickly on this.	142139430	1475787251412	1475787251516	p	80
279075	2992820	I appreciate you moving so quickly on this.	I appreciate you moving so quickly on this.	142139434	1475787251588	1475787251676	p	80
279075	2992820	I appreciate you moving so quickly on this.	I appreciate you moving so quickly on this.	142139465	1475787251708	1475787251820	r	82
279075	2992820	I appreciate you moving so quickly on this.	I appreciate you moving so quickly on this.	142139469	1475787251836	1475787251972	e	69
279075	2992820	I appreciate you moving so quickly on this.	I appreciate you moving so quickly on this.	142139474	1475787252100	1475787252212	c	67
279075	2992820	I appreciate you moving so quickly on this.	I appreciate you moving so quickly on this.	142139478	1475787252404	1475787252524	i	73
279075	2992820	I appreciate you moving so quickly on this.	I appreciate you moving so quickly on this.	142139487	1475787252604	1475787252700	a	65
279075	2992820	I appreciate you moving so quickly on this.	I appreciate you moving so quickly on this.	142139545	1475787252780	1475787252884	t	84
279075	2992820	I appreciate you moving so quickly on this.	I appreciate you moving so quickly on this.	142139549	1475787252956	1475787253052	e	69
279075	2992820	I appreciate you moving so quickly on this.	I appreciate you moving so quickly on this.	142139554	1475787253100	1475787253180	 	32
279075	2992820	I appreciate you moving so quickly on this.	I appreciate you moving so quickly on this.	142139557	1475787253540	1475787253612	y	89
279075	2992820	I appreciate you moving so quickly on this.	I appreciate you moving so quickly on this.	142139560	1475787253652	1475787253836	o	79
279075	2992820	I appreciate you moving so quickly on this.	I appreciate you moving so quickly on this.	142139616	1475787253820	1475787253916	u	85
279075	2992820	I appreciate you moving so quickly on this.	I appreciate you moving so quickly on this.	142139619	1475787254028	1475787254132	 	32
279075	2992820	I appreciate you moving so quickly on this.	I appreciate you moving so quickly on this.	142139622	1475787254460	1475787254564	m	77
279075	2992820	I appreciate you moving so quickly on this.	I appreciate you moving so quickly on this.	142139624	1475787254644	1475787254748	o	79
279075	2992820	I appreciate you moving so quickly on this.	I appreciate you moving so quickly on this.	142139626	1475787254788	1475787254900	v	86
279075	2992820	I appreciate you moving so quickly on this.	I appreciate you moving so quickly on this.	142139627	1475787254908	1475787255052	i	73
279075	2992820	I appreciate you moving so quickly on this.	I appreciate you moving so quickly on this.	142139640	1475787255004	1475787255100	n	78
279075	2992820	I appreciate you moving so quickly on this.	I appreciate you moving so quickly on this.	142139642	1475787255100	1475787255220	g	71
279075	2992820	I appreciate you moving so quickly on this.	I appreciate you moving so quickly on this.	142139646	1475787255252	1475787255372	 	32
279075	2992820	I appreciate you moving so quickly on this.	I appreciate you moving so quickly on this.	142139650	1475787255516	1475787255652	s	83
279075	2992820	I appreciate you moving so quickly on this.	I appreciate you moving so quickly on this.	142139655	1475787255644	1475787255708	o	79
279075	2992820	I appreciate you moving so quickly on this.	I appreciate you moving so quickly on this.	142139660	1475787255764	1475787255876	 	32
279075	2992820	I appreciate you moving so quickly on this.	I appreciate you moving so quickly on this.	142139725	1475787256396	1475787256500	q	81
279075	2992820	I appreciate you moving so quickly on this.	I appreciate you moving so quickly on this.	142139727	1475787256564	1475787256676	u	85
279075	2992820	I appreciate you moving so quickly on this.	I appreciate you moving so quickly on this.	142139732	1475787256684	1475787256780	i	73
279075	2992820	I appreciate you moving so quickly on this.	I appreciate you moving so quickly on this.	142139735	1475787256828	1475787256948	c	67
279075	2992820	I appreciate you moving so quickly on this.	I appreciate you moving so quickly on this.	142139739	1475787256980	1475787257068	k	75
279075	2992820	I appreciate you moving so quickly on this.	I appreciate you moving so quickly on this.	142139759	1475787257180	1475787257284	l	76
279075	2992820	I appreciate you moving so quickly on this.	I appreciate you moving so quickly on this.	142139760	1475787257308	1475787257388	y	89
279075	2992820	I appreciate you moving so quickly on this.	I appreciate you moving so quickly on this.	142139761	1475787257492	1475787257612	 	32
279075	2992820	I appreciate you moving so quickly on this.	I appreciate you moving so quickly on this.	142139763	1475787257636	1475787257716	o	79
279075	2992820	I appreciate you moving so quickly on this.	I appreciate you moving so quickly on this.	142139764	1475787257804	1475787257892	n	78
279075	2992820	I appreciate you moving so quickly on this.	I appreciate you moving so quickly on this.	142139791	1475787257924	1475787258020	 	32
279075	2992820	I appreciate you moving so quickly on this.	I appreciate you moving so quickly on this.	142139794	1475787258076	1475787258180	t	84
279075	2992820	I appreciate you moving so quickly on this.	I appreciate you moving so quickly on this.	142139801	1475787258204	1475787258284	h	72
279075	2992820	I appreciate you moving so quickly on this.	I appreciate you moving so quickly on this.	142139805	1475787258388	1475787258492	i	73
279075	2992820	I appreciate you moving so quickly on this.	I appreciate you moving so quickly on this.	142139809	1475787258508	1475787258660	s	83
279075	2992820	I appreciate you moving so quickly on this.	I appreciate you moving so quickly on this.	142139821	1475787258740	1475787258852	.	190
279075	2992832	A growing number of US households are joining the middle class.	A growing number of US households are joining the middle class.	142139942	1475787260620	1475787260860	SHIFT	16
279075	2992832	A growing number of US households are joining the middle class.	A growing number of US households are joining the middle class.	142139945	1475787260804	1475787260908	A	65
279075	2992832	A growing number of US households are joining the middle class.	A growing number of US households are joining the middle class.	142139947	1475787260924	1475787261028	 	32
279075	2992832	A growing number of US households are joining the middle class.	A growing number of US households are joining the middle class.	142139950	1475787261580	1475787261676	g	71
279075	2992832	A growing number of US households are joining the middle class.	A growing number of US households are joining the middle class.	142139953	1475787261804	1475787261900	r	82
279075	2992832	A growing number of US households are joining the middle class.	A growing number of US households are joining the middle class.	142139989	1475787261884	1475787261996	o	79
279075	2992832	A growing number of US households are joining the middle class.	A growing number of US households are joining the middle class.	142139991	1475787261980	1475787262116	w	87
279075	2992832	A growing number of US households are joining the middle class.	A growing number of US households are joining the middle class.	142139992	1475787262188	1475787262300	i	73
279075	2992832	A growing number of US households are joining the middle class.	A growing number of US households are joining the middle class.	142139993	1475787262300	1475787262404	n	78
279075	2992832	A growing number of US households are joining the middle class.	A growing number of US households are joining the middle class.	142139994	1475787262404	1475787262524	g	71
279075	2992832	A growing number of US households are joining the middle class.	A growing number of US households are joining the middle class.	142139995	1475787262580	1475787262684	 	32
279075	2992832	A growing number of US households are joining the middle class.	A growing number of US households are joining the middle class.	142140031	1475787262896	1475787263012	n	78
279075	2992832	A growing number of US households are joining the middle class.	A growing number of US households are joining the middle class.	142140036	1475787263092	1475787263180	u	85
279075	2992832	A growing number of US households are joining the middle class.	A growing number of US households are joining the middle class.	142140040	1475787263260	1475787263364	m	77
279075	2992832	A growing number of US households are joining the middle class.	A growing number of US households are joining the middle class.	142140045	1475787263476	1475787263556	b	66
279075	2992832	A growing number of US households are joining the middle class.	A growing number of US households are joining the middle class.	142140071	1475787263540	1475787263692	e	69
279075	2992832	A growing number of US households are joining the middle class.	A growing number of US households are joining the middle class.	142140075	1475787263652	1475787263768	r	82
279075	2992832	A growing number of US households are joining the middle class.	A growing number of US households are joining the middle class.	142140079	1475787263772	1475787263884	 	32
279075	2992832	A growing number of US households are joining the middle class.	A growing number of US households are joining the middle class.	142140082	1475787263892	1475787263956	o	73
279075	2992832	A growing number of US households are joining the middle class.	A growing number of US households are joining the middle class.	142140085	1475787263956	1475787264004	f	70
279075	2992832	A growing number of US households are joining the middle class.	A growing number of US households are joining the middle class.	142140169	1475787264364	1475787264448	BKSP	8
279075	2992832	A growing number of US households are joining the middle class.	A growing number of US households are joining the middle class.	142140175	1475787264492	1475787264572	BKSP	8
279075	2992832	A growing number of US households are joining the middle class.	A growing number of US households are joining the middle class.	142140179	1475787264628	1475787264740	BKSP	8
279075	2992832	A growing number of US households are joining the middle class.	A growing number of US households are joining the middle class.	142140187	1475787264844	1475787264952	o	79
279075	2992832	A growing number of US households are joining the middle class.	A growing number of US households are joining the middle class.	142140193	1475787264924	1475787265032	f	70
279075	2992832	A growing number of US households are joining the middle class.	A growing number of US households are joining the middle class.	142140198	1475787265012	1475787265124	 	32
279075	2992832	A growing number of US households are joining the middle class.	A growing number of US households are joining the middle class.	142140208	1475787265248	1475787265652	SHIFT	16
279075	2992832	A growing number of US households are joining the middle class.	A growing number of US households are joining the middle class.	142140203	1475787265492	1475787265584	U	85
279075	2992832	A growing number of US households are joining the middle class.	A growing number of US households are joining the middle class.	142140266	1475787265600	1475787265736	S	83
279075	2992832	A growing number of US households are joining the middle class.	A growing number of US households are joining the middle class.	142140269	1475787265716	1475787265812	 	32
279075	2992832	A growing number of US households are joining the middle class.	A growing number of US households are joining the middle class.	142140272	1475787266180	1475787266312	h	72
279075	2992832	A growing number of US households are joining the middle class.	A growing number of US households are joining the middle class.	142140274	1475787266300	1475787266472	o	79
279075	2992832	A growing number of US households are joining the middle class.	A growing number of US households are joining the middle class.	142140280	1475787266452	1475787266548	u	85
279075	2992832	A growing number of US households are joining the middle class.	A growing number of US households are joining the middle class.	142140282	1475787266616	1475787266804	s	83
279075	2992832	A growing number of US households are joining the middle class.	A growing number of US households are joining the middle class.	142140375	1475787266768	1475787266880	e	69
279075	2992832	A growing number of US households are joining the middle class.	A growing number of US households are joining the middle class.	142140379	1475787267160	1475787267256	h	72
279075	2992832	A growing number of US households are joining the middle class.	A growing number of US households are joining the middle class.	142140385	1475787267312	1475787267428	o	79
279075	2992832	A growing number of US households are joining the middle class.	A growing number of US households are joining the middle class.	142140389	1475787267524	1475787267616	l	76
279075	2992832	A growing number of US households are joining the middle class.	A growing number of US households are joining the middle class.	142140396	1475787267704	1475787267824	d	68
279075	2992832	A growing number of US households are joining the middle class.	A growing number of US households are joining the middle class.	142140401	1475787268784	1475787268928	s	83
279075	2992832	A growing number of US households are joining the middle class.	A growing number of US households are joining the middle class.	142140430	1475787268952	1475787269056	 	32
279075	2992832	A growing number of US households are joining the middle class.	A growing number of US households are joining the middle class.	142140434	1475787269112	1475787269224	a	65
279075	2992832	A growing number of US households are joining the middle class.	A growing number of US households are joining the middle class.	142140438	1475787269272	1475787269376	r	82
279075	2992832	A growing number of US households are joining the middle class.	A growing number of US households are joining the middle class.	142140441	1475787269408	1475787269528	e	69
279075	2992832	A growing number of US households are joining the middle class.	A growing number of US households are joining the middle class.	142140443	1475787269536	1475787269640	 	32
279075	2992832	A growing number of US households are joining the middle class.	A growing number of US households are joining the middle class.	142140514	1475787270040	1475787270144	j	74
279075	2992832	A growing number of US households are joining the middle class.	A growing number of US households are joining the middle class.	142140519	1475787270200	1475787270368	o	79
279075	2992832	A growing number of US households are joining the middle class.	A growing number of US households are joining the middle class.	142140523	1475787270320	1475787270424	i	73
279075	2992832	A growing number of US households are joining the middle class.	A growing number of US households are joining the middle class.	142140526	1475787270712	1475787270840	n	78
279075	2992832	A growing number of US households are joining the middle class.	A growing number of US households are joining the middle class.	142140531	1475787271023	1475787271136	i	73
279075	2992832	A growing number of US households are joining the middle class.	A growing number of US households are joining the middle class.	142140563	1475787271184	1475787271280	n	78
279075	2992832	A growing number of US households are joining the middle class.	A growing number of US households are joining the middle class.	142140569	1475787271320	1475787271432	g	71
279075	2992832	A growing number of US households are joining the middle class.	A growing number of US households are joining the middle class.	142140575	1475787271536	1475787271648	 	32
279075	2992832	A growing number of US households are joining the middle class.	A growing number of US households are joining the middle class.	142140579	1475787271944	1475787272056	t	84
279075	2992832	A growing number of US households are joining the middle class.	A growing number of US households are joining the middle class.	142140581	1475787272072	1475787272160	h	72
279075	2992832	A growing number of US households are joining the middle class.	A growing number of US households are joining the middle class.	142140601	1475787272152	1475787272263	e	69
279075	2992832	A growing number of US households are joining the middle class.	A growing number of US households are joining the middle class.	142140603	1475787272264	1475787272369	 	32
279075	2992832	A growing number of US households are joining the middle class.	A growing number of US households are joining the middle class.	142140605	1475787272352	1475787272479	m	77
279075	2992832	A growing number of US households are joining the middle class.	A growing number of US households are joining the middle class.	142140607	1475787272504	1475787272600	i	73
279075	2992832	A growing number of US households are joining the middle class.	A growing number of US households are joining the middle class.	142140609	1475787272648	1475787272727	d	68
279075	2992832	A growing number of US households are joining the middle class.	A growing number of US households are joining the middle class.	142140613	1475787272808	1475787272879	d	68
279075	2992832	A growing number of US households are joining the middle class.	A growing number of US households are joining the middle class.	142140653	1475787272848	1475787272967	l	76
279075	2992832	A growing number of US households are joining the middle class.	A growing number of US households are joining the middle class.	142140656	1475787272983	1475787273071	e	69
279075	2992832	A growing number of US households are joining the middle class.	A growing number of US households are joining the middle class.	142140658	1475787273104	1475787273199	 	32
279075	2992832	A growing number of US households are joining the middle class.	A growing number of US households are joining the middle class.	142140662	1475787273303	1475787273415	c	67
279075	2992832	A growing number of US households are joining the middle class.	A growing number of US households are joining the middle class.	142140664	1475787273599	1475787273711	l	76
279075	2992832	A growing number of US households are joining the middle class.	A growing number of US households are joining the middle class.	142140669	1475787273767	1475787273887	a	65
279075	2992832	A growing number of US households are joining the middle class.	A growing number of US households are joining the middle class.	142140689	1475787274167	1475787274255	s	83
279075	2992832	A growing number of US households are joining the middle class.	A growing number of US households are joining the middle class.	142140692	1475787274335	1475787274431	s	83
279075	2992844	A bit behind on my emails.	A bit behind on my emails.	142141029	1475787274439	1475787281479	.	190
279075	2992844	A bit behind on my emails.	A bit behind on my emails.	142140845	1475787276439	1475787276655	SHIFT	16
279075	2992844	A bit behind on my emails.	A bit behind on my emails.	142140849	1475787276575	1475787276703	A	65
279075	2992844	A bit behind on my emails.	A bit behind on my emails.	142140854	1475787276719	1475787276839	 	32
279075	2992844	A bit behind on my emails.	A bit behind on my emails.	142140858	1475787277255	1475787277343	b	66
279075	2992844	A bit behind on my emails.	A bit behind on my emails.	142140861	1475787277463	1475787277599	i	73
279075	2992844	A bit behind on my emails.	A bit behind on my emails.	142140866	1475787277607	1475787277695	t	84
279075	2992844	A bit behind on my emails.	A bit behind on my emails.	142140893	1475787277719	1475787277831	 	32
279075	2992844	A bit behind on my emails.	A bit behind on my emails.	142140896	1475787277887	1475787277991	b	66
279075	2992844	A bit behind on my emails.	A bit behind on my emails.	142140900	1475787278087	1475787278191	e	69
279075	2992844	A bit behind on my emails.	A bit behind on my emails.	142140903	1475787278279	1475787278399	h	72
279075	2992844	A bit behind on my emails.	A bit behind on my emails.	142140905	1475787278415	1475787278535	i	73
279075	2992844	A bit behind on my emails.	A bit behind on my emails.	142140924	1475787278559	1475787278639	n	78
279075	2992844	A bit behind on my emails.	A bit behind on my emails.	142140926	1475787278767	1475787278887	d	68
279075	2992844	A bit behind on my emails.	A bit behind on my emails.	142140931	1475787278935	1475787279023	 	32
279075	2992844	A bit behind on my emails.	A bit behind on my emails.	142140935	1475787279087	1475787279191	o	79
279075	2992844	A bit behind on my emails.	A bit behind on my emails.	142140939	1475787279311	1475787279407	n	78
279075	2992844	A bit behind on my emails.	A bit behind on my emails.	142140963	1475787279463	1475787279583	 	32
279075	2992844	A bit behind on my emails.	A bit behind on my emails.	142140966	1475787279727	1475787279839	m	77
279075	2992844	A bit behind on my emails.	A bit behind on my emails.	142140970	1475787279847	1475787279935	y	89
279075	2992844	A bit behind on my emails.	A bit behind on my emails.	142140975	1475787280031	1475787280119	 	32
279075	2992844	A bit behind on my emails.	A bit behind on my emails.	142140981	1475787280231	1475787280335	e	69
279075	2992844	A bit behind on my emails.	A bit behind on my emails.	142141015	1475787280359	1475787280463	m	77
279075	2992844	A bit behind on my emails.	A bit behind on my emails.	142141016	1475787280511	1475787280663	a	65
279075	2992844	A bit behind on my emails.	A bit behind on my emails.	142141017	1475787280823	1475787280943	i	73
279075	2992844	A bit behind on my emails.	A bit behind on my emails.	142141018	1475787280999	1475787281111	l	76
279075	2992844	A bit behind on my emails.	A bit behind on my emails.	142141019	1475787281231	1475787281343	s	83
279075	2992856	Did you talk to Ava this morning?	Did you talk to Ava this morning?	142141179	1475787283919	1475787284215	SHIFT	16
279075	2992856	Did you talk to Ava this morning?	Did you talk to Ava this morning?	142141177	1475787284079	1475787284191	D	68
279075	2992856	Did you talk to Ava this morning?	Did you talk to Ava this morning?	142141182	1475787284423	1475787284503	i	73
279075	2992856	Did you talk to Ava this morning?	Did you talk to Ava this morning?	142141186	1475787284551	1475787284687	d	68
279075	2992856	Did you talk to Ava this morning?	Did you talk to Ava this morning?	142141191	1475787284663	1475787284759	 	32
279075	2992856	Did you talk to Ava this morning?	Did you talk to Ava this morning?	142141196	1475787284863	1475787284975	y	89
279075	2992856	Did you talk to Ava this morning?	Did you talk to Ava this morning?	142141234	1475787285007	1475787285119	o	79
279075	2992856	Did you talk to Ava this morning?	Did you talk to Ava this morning?	142141237	1475787285215	1475787285311	u	85
279075	2992856	Did you talk to Ava this morning?	Did you talk to Ava this morning?	142141238	1475787285431	1475787285535	 	32
279075	2992856	Did you talk to Ava this morning?	Did you talk to Ava this morning?	142141240	1475787285791	1475787285903	t	84
279075	2992856	Did you talk to Ava this morning?	Did you talk to Ava this morning?	142141242	1475787285935	1475787286071	a	65
279075	2992856	Did you talk to Ava this morning?	Did you talk to Ava this morning?	142141260	1475787286047	1475787286175	l	76
279075	2992856	Did you talk to Ava this morning?	Did you talk to Ava this morning?	142141263	1475787286127	1475787286247	k	75
279075	2992856	Did you talk to Ava this morning?	Did you talk to Ava this morning?	142141267	1475787286231	1475787286327	 	32
279075	2992856	Did you talk to Ava this morning?	Did you talk to Ava this morning?	142141271	1475787286351	1475787286447	t	84
279075	2992856	Did you talk to Ava this morning?	Did you talk to Ava this morning?	142141275	1475787286431	1475787286519	o	79
279075	2992856	Did you talk to Ava this morning?	Did you talk to Ava this morning?	142141277	1475787286519	1475787286615	 	32
279075	2992856	Did you talk to Ava this morning?	Did you talk to Ava this morning?	142141397	1475787286719	1475787286983	SHIFT	16
279075	2992856	Did you talk to Ava this morning?	Did you talk to Ava this morning?	142141392	1475787286847	1475787286967	A	65
279075	2992856	Did you talk to Ava this morning?	Did you talk to Ava this morning?	142141402	1475787287087	1475787287143	v	66
279075	2992856	Did you talk to Ava this morning?	Did you talk to Ava this morning?	142141407	1475787287519	1475787287599	BKSP	8
279075	2992856	Did you talk to Ava this morning?	Did you talk to Ava this morning?	142141414	1475787287655	1475787287735	BKSP	8
279075	2992856	Did you talk to Ava this morning?	Did you talk to Ava this morning?	142141419	1475787287799	1475787287911	v	86
279075	2992856	Did you talk to Ava this morning?	Did you talk to Ava this morning?	142141422	1475787288095	1475787288239	a	65
279075	2992856	Did you talk to Ava this morning?	Did you talk to Ava this morning?	142141446	1475787288311	1475787288415	 	32
279075	2992856	Did you talk to Ava this morning?	Did you talk to Ava this morning?	142141450	1475787288551	1475787288647	t	84
279075	2992856	Did you talk to Ava this morning?	Did you talk to Ava this morning?	142141455	1475787288647	1475787288759	h	72
279075	2992856	Did you talk to Ava this morning?	Did you talk to Ava this morning?	142141458	1475787288775	1475787288888	i	73
279075	2992856	Did you talk to Ava this morning?	Did you talk to Ava this morning?	142141525	1475787288871	1475787288999	s	83
279075	2992856	Did you talk to Ava this morning?	Did you talk to Ava this morning?	142141527	1475787288983	1475787289095	 	32
279075	2992856	Did you talk to Ava this morning?	Did you talk to Ava this morning?	142141533	1475787289407	1475787289519	m	77
279075	2992856	Did you talk to Ava this morning?	Did you talk to Ava this morning?	142141536	1475787289591	1475787289687	o	79
279075	2992856	Did you talk to Ava this morning?	Did you talk to Ava this morning?	142141546	1475787289679	1475787289791	r	82
279075	2992856	Did you talk to Ava this morning?	Did you talk to Ava this morning?	142141554	1475787289815	1475787289911	n	78
279075	2992856	Did you talk to Ava this morning?	Did you talk to Ava this morning?	142141661	1475787289943	1475787290064	i	73
279075	2992856	Did you talk to Ava this morning?	Did you talk to Ava this morning?	142141663	1475787290047	1475787290143	n	78
279075	2992856	Did you talk to Ava this morning?	Did you talk to Ava this morning?	142141668	1475787290167	1475787290271	g	71
279075	2992856	Did you talk to Ava this morning?	Did you talk to Ava this morning?	142141677	1475787290843	1475787291551	SHIFT	16
279075	2992856	Did you talk to Ava this morning?	Did you talk to Ava this morning?	142141673	1475787291391	1475787291495	?	191
279075	2992866	If you have questions, please send an email to Enron.	If you have questions, please send an email to Enron.	142141827	1475787293767	1475787294015	SHIFT	16
279075	2992866	If you have questions, please send an email to Enron.	If you have questions, please send an email to Enron.	142141829	1475787293951	1475787294087	I	73
279075	2992866	If you have questions, please send an email to Enron.	If you have questions, please send an email to Enron.	142141832	1475787294095	1475787294240	f	70
279075	2992866	If you have questions, please send an email to Enron.	If you have questions, please send an email to Enron.	142141834	1475787294223	1475787294383	 	32
279075	2992866	If you have questions, please send an email to Enron.	If you have questions, please send an email to Enron.	142141836	1475787294431	1475787294551	y	89
279075	2992866	If you have questions, please send an email to Enron.	If you have questions, please send an email to Enron.	142141865	1475787294543	1475787294727	o	79
279075	2992866	If you have questions, please send an email to Enron.	If you have questions, please send an email to Enron.	142141870	1475787294687	1475787294783	u	85
279075	2992866	If you have questions, please send an email to Enron.	If you have questions, please send an email to Enron.	142141878	1475787294823	1475787294927	 	32
279075	2992866	If you have questions, please send an email to Enron.	If you have questions, please send an email to Enron.	142141886	1475787294991	1475787295095	h	72
279075	2992866	If you have questions, please send an email to Enron.	If you have questions, please send an email to Enron.	142141894	1475787295103	1475787295255	a	65
279075	2992866	If you have questions, please send an email to Enron.	If you have questions, please send an email to Enron.	142141961	1475787295223	1475787295359	v	86
279075	2992866	If you have questions, please send an email to Enron.	If you have questions, please send an email to Enron.	142141965	1475787295415	1475787295560	e	69
279075	2992866	If you have questions, please send an email to Enron.	If you have questions, please send an email to Enron.	142141969	1475787295543	1475787295655	 	32
279075	2992866	If you have questions, please send an email to Enron.	If you have questions, please send an email to Enron.	142141974	1475787295947	1475787296063	q	81
279075	2992866	If you have questions, please send an email to Enron.	If you have questions, please send an email to Enron.	142141976	1475787296143	1475787296239	u	85
279075	2992866	If you have questions, please send an email to Enron.	If you have questions, please send an email to Enron.	142141979	1475787296255	1475787296423	e	69
279075	2992866	If you have questions, please send an email to Enron.	If you have questions, please send an email to Enron.	142142018	1475787296375	1475787296551	s	83
279075	2992866	If you have questions, please send an email to Enron.	If you have questions, please send an email to Enron.	142142028	1475787296599	1475787296687	t	84
279075	2992866	If you have questions, please send an email to Enron.	If you have questions, please send an email to Enron.	142142038	1475787296803	1475787296975	i	73
279075	2992866	If you have questions, please send an email to Enron.	If you have questions, please send an email to Enron.	142142043	1475787296967	1475787297128	o	79
279075	2992866	If you have questions, please send an email to Enron.	If you have questions, please send an email to Enron.	142142048	1475787297111	1475787297191	n	78
279075	2992866	If you have questions, please send an email to Enron.	If you have questions, please send an email to Enron.	142142051	1475787297223	1475787297383	s	83
279075	2992866	If you have questions, please send an email to Enron.	If you have questions, please send an email to Enron.	142142092	1475787297471	1475787297511	,	188
279075	2992866	If you have questions, please send an email to Enron.	If you have questions, please send an email to Enron.	142142096	1475787297819	1475787297919	 	32
279075	2992866	If you have questions, please send an email to Enron.	If you have questions, please send an email to Enron.	142142102	1475787298423	1475787298568	p	80
279075	2992866	If you have questions, please send an email to Enron.	If you have questions, please send an email to Enron.	142142106	1475787298551	1475787298683	l	76
279075	2992866	If you have questions, please send an email to Enron.	If you have questions, please send an email to Enron.	142142159	1475787298639	1475787298779	e	69
279075	2992866	If you have questions, please send an email to Enron.	If you have questions, please send an email to Enron.	142142164	1475787298799	1475787298943	a	65
279075	2992866	If you have questions, please send an email to Enron.	If you have questions, please send an email to Enron.	142142171	1475787298967	1475787299151	s	83
279075	2992866	If you have questions, please send an email to Enron.	If you have questions, please send an email to Enron.	142142178	1475787299103	1475787299235	e	69
279075	2992866	If you have questions, please send an email to Enron.	If you have questions, please send an email to Enron.	142142184	1475787299247	1475787299371	 	32
279075	2992866	If you have questions, please send an email to Enron.	If you have questions, please send an email to Enron.	142142192	1475787299407	1475787299559	s	83
279075	2992866	If you have questions, please send an email to Enron.	If you have questions, please send an email to Enron.	142142210	1475787299523	1475787299635	e	69
279075	2992866	If you have questions, please send an email to Enron.	If you have questions, please send an email to Enron.	142142217	1475787299647	1475787299747	n	78
279075	2992866	If you have questions, please send an email to Enron.	If you have questions, please send an email to Enron.	142142220	1475787299775	1475787299899	d	68
279075	2992866	If you have questions, please send an email to Enron.	If you have questions, please send an email to Enron.	142142221	1475787299927	1475787300043	 	32
279075	2992866	If you have questions, please send an email to Enron.	If you have questions, please send an email to Enron.	142142223	1475787300027	1475787300168	a	65
279075	2992866	If you have questions, please send an email to Enron.	If you have questions, please send an email to Enron.	142142284	1475787300151	1475787300243	n	78
279075	2992866	If you have questions, please send an email to Enron.	If you have questions, please send an email to Enron.	142142287	1475787300247	1475787300375	 	32
279075	2992866	If you have questions, please send an email to Enron.	If you have questions, please send an email to Enron.	142142291	1475787300835	1475787300931	e	69
279075	2992866	If you have questions, please send an email to Enron.	If you have questions, please send an email to Enron.	142142295	1475787300963	1475787301083	m	77
279075	2992866	If you have questions, please send an email to Enron.	If you have questions, please send an email to Enron.	142142297	1475787301091	1475787301227	a	65
279075	2992866	If you have questions, please send an email to Enron.	If you have questions, please send an email to Enron.	142142300	1475787301227	1475787301299	i	73
279075	2992866	If you have questions, please send an email to Enron.	If you have questions, please send an email to Enron.	142142345	1475787301419	1475787301531	l	76
279075	2992866	If you have questions, please send an email to Enron.	If you have questions, please send an email to Enron.	142142350	1475787301547	1475787301643	 	32
279075	2992866	If you have questions, please send an email to Enron.	If you have questions, please send an email to Enron.	142142354	1475787301771	1475787301867	t	84
279075	2992866	If you have questions, please send an email to Enron.	If you have questions, please send an email to Enron.	142142359	1475787301915	1475787302019	o	79
279075	2992866	If you have questions, please send an email to Enron.	If you have questions, please send an email to Enron.	142142361	1475787302027	1475787302123	 	32
279075	2992866	If you have questions, please send an email to Enron.	If you have questions, please send an email to Enron.	142142438	1475787302219	1475787302459	SHIFT	16
279075	2992866	If you have questions, please send an email to Enron.	If you have questions, please send an email to Enron.	142142434	1475787302331	1475787302435	E	69
279075	2992866	If you have questions, please send an email to Enron.	If you have questions, please send an email to Enron.	142142444	1475787302563	1475787302683	n	78
279075	2992866	If you have questions, please send an email to Enron.	If you have questions, please send an email to Enron.	142142447	1475787302827	1475787302939	r	82
279075	2992866	If you have questions, please send an email to Enron.	If you have questions, please send an email to Enron.	142142453	1475787303035	1475787303155	o	79
279075	2992866	If you have questions, please send an email to Enron.	If you have questions, please send an email to Enron.	142142459	1475787303379	1475787303483	n	78
279075	2992866	If you have questions, please send an email to Enron.	If you have questions, please send an email to Enron.	142142479	1475787303643	1475787303747	.	190
279075	2992882	But let me know which ones you don't get.	But let me know which ones you don't get.	142142659	1475787305531	1475787305819	SHIFT	16
279075	2992882	But let me know which ones you don't get.	But let me know which ones you don't get.	142142665	1475787305739	1475787305835	B	66
279075	2992882	But let me know which ones you don't get.	But let me know which ones you don't get.	142142671	1475787305915	1475787305995	u	85
279075	2992882	But let me know which ones you don't get.	But let me know which ones you don't get.	142142679	1475787306035	1475787306131	t	84
279075	2992882	But let me know which ones you don't get.	But let me know which ones you don't get.	142142685	1475787306227	1475787306347	l	76
279075	2992882	But let me know which ones you don't get.	But let me know which ones you don't get.	142142766	1475787306339	1475787306483	e	69
279075	2992882	But let me know which ones you don't get.	But let me know which ones you don't get.	142142768	1475787306683	1475787306795	t	84
279075	2992882	But let me know which ones you don't get.	But let me know which ones you don't get.	142142771	1475787307171	1475787307251	BKSP	8
279075	2992882	But let me know which ones you don't get.	But let me know which ones you don't get.	142142777	1475787307315	1475787307403	BKSP	8
279075	2992882	But let me know which ones you don't get.	But let me know which ones you don't get.	142142781	1475787307579	1475787307675	BKSP	8
279075	2992882	But let me know which ones you don't get.	But let me know which ones you don't get.	142142787	1475787307763	1475787307867	 	32
279075	2992882	But let me know which ones you don't get.	But let me know which ones you don't get.	142142791	1475787307915	1475787308019	l	76
279075	2992882	But let me know which ones you don't get.	But let me know which ones you don't get.	142142794	1475787308115	1475787308243	e	69
279075	2992882	But let me know which ones you don't get.	But let me know which ones you don't get.	142142798	1475787308307	1475787308411	t	84
279075	2992882	But let me know which ones you don't get.	But let me know which ones you don't get.	142142826	1475787308419	1475787308515	 	32
279075	2992882	But let me know which ones you don't get.	But let me know which ones you don't get.	142142827	1475787308595	1475787308715	m	77
279075	2992882	But let me know which ones you don't get.	But let me know which ones you don't get.	142142830	1475787308667	1475787308771	e	69
279075	2992882	But let me know which ones you don't get.	But let me know which ones you don't get.	142142833	1475787308779	1475787308883	 	32
279075	2992882	But let me know which ones you don't get.	But let me know which ones you don't get.	142142835	1475787308923	1475787309123	k	75
279075	2992882	But let me know which ones you don't get.	But let me know which ones you don't get.	142142850	1475787309067	1475787309218	n	78
279075	2992882	But let me know which ones you don't get.	But let me know which ones you don't get.	142142854	1475787309187	1475787309306	o	79
279075	2992882	But let me know which ones you don't get.	But let me know which ones you don't get.	142142859	1475787309243	1475787309386	w	87
279075	2992882	But let me know which ones you don't get.	But let me know which ones you don't get.	142142865	1475787309394	1475787309507	 	32
279075	2992882	But let me know which ones you don't get.	But let me know which ones you don't get.	142142872	1475787309635	1475787309763	w	87
279075	2992882	But let me know which ones you don't get.	But let me know which ones you don't get.	142142901	1475787309755	1475787309875	h	72
279075	2992882	But let me know which ones you don't get.	But let me know which ones you don't get.	142142906	1475787309907	1475787310019	i	73
279075	2992882	But let me know which ones you don't get.	But let me know which ones you don't get.	142142909	1475787310027	1475787310164	c	67
279075	2992882	But let me know which ones you don't get.	But let me know which ones you don't get.	142142911	1475787310147	1475787310235	h	72
279075	2992882	But let me know which ones you don't get.	But let me know which ones you don't get.	142142913	1475787310259	1475787310387	 	32
279075	2992882	But let me know which ones you don't get.	But let me know which ones you don't get.	142142915	1475787310443	1475787310530	o	79
279075	2992882	But let me know which ones you don't get.	But let me know which ones you don't get.	142142933	1475787310618	1475787310738	n	78
279075	2992882	But let me know which ones you don't get.	But let me know which ones you don't get.	142142935	1475787310739	1475787310884	e	69
279075	2992882	But let me know which ones you don't get.	But let me know which ones you don't get.	142142938	1475787310867	1475787311019	s	83
279075	2992882	But let me know which ones you don't get.	But let me know which ones you don't get.	142142939	1475787310994	1475787311114	 	32
279075	2992882	But let me know which ones you don't get.	But let me know which ones you don't get.	142142942	1475787311235	1475787311325	y	89
279075	2992882	But let me know which ones you don't get.	But let me know which ones you don't get.	142142998	1475787311386	1475787311546	o	79
279075	2992882	But let me know which ones you don't get.	But let me know which ones you don't get.	142143003	1475787311539	1475787311610	u	85
279075	2992882	But let me know which ones you don't get.	But let me know which ones you don't get.	142143007	1475787311698	1475787311794	 	32
279075	2992882	But let me know which ones you don't get.	But let me know which ones you don't get.	142143014	1475787311986	1475787312090	d	68
279075	2992882	But let me know which ones you don't get.	But let me know which ones you don't get.	142143022	1475787312091	1475787312250	o	79
279075	2992882	But let me know which ones you don't get.	But let me know which ones you don't get.	142143084	1475787312322	1475787312452	n	78
279075	2992882	But let me know which ones you don't get.	But let me know which ones you don't get.	142143088	1475787312434	1475787312554	'	222
279075	2992882	But let me know which ones you don't get.	But let me know which ones you don't get.	142143092	1475787312546	1475787312650	t	84
279075	2992882	But let me know which ones you don't get.	But let me know which ones you don't get.	142143096	1475787312666	1475787312770	 	32
279075	2992882	But let me know which ones you don't get.	But let me know which ones you don't get.	142143098	1475787313282	1475787313386	g	71
279075	2992882	But let me know which ones you don't get.	But let me know which ones you don't get.	142143109	1475787313469	1475787313594	e	69
279075	2992882	But let me know which ones you don't get.	But let me know which ones you don't get.	142143112	1475787313586	1475787313690	t	84
279075	2992899	I didn't expect them to hand over the sites.	I didn't expect them to hand over the sites.	142143293	1475787315330	1475787315618	SHIFT	16
279075	2992899	I didn't expect them to hand over the sites.	I didn't expect them to hand over the sites.	142143297	1475787315522	1475787315642	I	73
279075	2992899	I didn't expect them to hand over the sites.	I didn't expect them to hand over the sites.	142143300	1475787315714	1475787315843	 	32
279075	2992899	I didn't expect them to hand over the sites.	I didn't expect them to hand over the sites.	142143302	1475787315810	1475787315924	d	68
279075	2992899	I didn't expect them to hand over the sites.	I didn't expect them to hand over the sites.	142143306	1475787315906	1475787316042	i	73
279075	2992899	I didn't expect them to hand over the sites.	I didn't expect them to hand over the sites.	142143312	1475787316122	1475787316218	d	68
279075	2992899	I didn't expect them to hand over the sites.	I didn't expect them to hand over the sites.	142143360	1475787316426	1475787316514	n	78
279075	2992899	I didn't expect them to hand over the sites.	I didn't expect them to hand over the sites.	142143365	1475787316626	1475787316722	'	222
279075	2992899	I didn't expect them to hand over the sites.	I didn't expect them to hand over the sites.	142143368	1475787316722	1475787316826	t	84
279075	2992899	I didn't expect them to hand over the sites.	I didn't expect them to hand over the sites.	142143375	1475787316850	1475787316954	 	32
279075	2992899	I didn't expect them to hand over the sites.	I didn't expect them to hand over the sites.	142143379	1475787317298	1475787317394	e	69
279075	2992899	I didn't expect them to hand over the sites.	I didn't expect them to hand over the sites.	142143415	1475787317562	1475787317698	x	88
279075	2992899	I didn't expect them to hand over the sites.	I didn't expect them to hand over the sites.	142143417	1475787317674	1475787317794	p	80
279075	2992899	I didn't expect them to hand over the sites.	I didn't expect them to hand over the sites.	142143423	1475787317858	1475787317962	e	69
279075	2992899	I didn't expect them to hand over the sites.	I didn't expect them to hand over the sites.	142143429	1475787318066	1475787318170	c	67
279075	2992899	I didn't expect them to hand over the sites.	I didn't expect them to hand over the sites.	142143435	1475787318306	1475787318394	t	84
279075	2992899	I didn't expect them to hand over the sites.	I didn't expect them to hand over the sites.	142143469	1475787318498	1475787318618	 	32
279075	2992899	I didn't expect them to hand over the sites.	I didn't expect them to hand over the sites.	142143473	1475787318786	1475787318922	t	84
279075	2992899	I didn't expect them to hand over the sites.	I didn't expect them to hand over the sites.	142143480	1475787319123	1475787319218	h	72
279075	2992899	I didn't expect them to hand over the sites.	I didn't expect them to hand over the sites.	142143485	1475787319242	1475787319362	e	69
279075	2992899	I didn't expect them to hand over the sites.	I didn't expect them to hand over the sites.	142143488	1475787319386	1475787319498	m	77
279075	2992899	I didn't expect them to hand over the sites.	I didn't expect them to hand over the sites.	142143522	1475787319554	1475787319658	 	32
279075	2992899	I didn't expect them to hand over the sites.	I didn't expect them to hand over the sites.	142143525	1475787319738	1475787319842	t	84
279075	2992899	I didn't expect them to hand over the sites.	I didn't expect them to hand over the sites.	142143532	1475787319882	1475787319987	o	79
279075	2992899	I didn't expect them to hand over the sites.	I didn't expect them to hand over the sites.	142143537	1475787319978	1475787320098	 	32
279075	2992899	I didn't expect them to hand over the sites.	I didn't expect them to hand over the sites.	142143542	1475787320130	1475787320218	h	72
279075	2992899	I didn't expect them to hand over the sites.	I didn't expect them to hand over the sites.	142143605	1475787320226	1475787320370	a	65
279075	2992899	I didn't expect them to hand over the sites.	I didn't expect them to hand over the sites.	142143609	1475787320434	1475787320546	n	78
279075	2992899	I didn't expect them to hand over the sites.	I didn't expect them to hand over the sites.	142143612	1475787320562	1475787320698	d	68
279075	2992899	I didn't expect them to hand over the sites.	I didn't expect them to hand over the sites.	142143614	1475787320874	1475787320994	 	32
279075	2992899	I didn't expect them to hand over the sites.	I didn't expect them to hand over the sites.	142143615	1475787321202	1475787321322	o	79
279075	2992899	I didn't expect them to hand over the sites.	I didn't expect them to hand over the sites.	142143646	1475787321978	1475787322090	v	86
279075	2992899	I didn't expect them to hand over the sites.	I didn't expect them to hand over the sites.	142143653	1475787322194	1475787322330	e	69
279075	2992899	I didn't expect them to hand over the sites.	I didn't expect them to hand over the sites.	142143658	1475787322290	1475787322418	r	82
279075	2992899	I didn't expect them to hand over the sites.	I didn't expect them to hand over the sites.	142143664	1475787322450	1475787322562	 	32
279075	2992899	I didn't expect them to hand over the sites.	I didn't expect them to hand over the sites.	142143673	1475787322586	1475787322674	t	84
279075	2992899	I didn't expect them to hand over the sites.	I didn't expect them to hand over the sites.	142143724	1475787322690	1475787322771	h	72
279075	2992899	I didn't expect them to hand over the sites.	I didn't expect them to hand over the sites.	142143728	1475787322771	1475787322882	e	69
279075	2992899	I didn't expect them to hand over the sites.	I didn't expect them to hand over the sites.	142143730	1475787322906	1475787323034	 	32
279075	2992899	I didn't expect them to hand over the sites.	I didn't expect them to hand over the sites.	142143734	1475787323186	1475787323322	s	83
279075	2992899	I didn't expect them to hand over the sites.	I didn't expect them to hand over the sites.	142143737	1475787323370	1475787323490	i	73
279075	2992899	I didn't expect them to hand over the sites.	I didn't expect them to hand over the sites.	142143767	1475787323522	1475787323626	t	84
279075	2992899	I didn't expect them to hand over the sites.	I didn't expect them to hand over the sites.	142143771	1475787323666	1475787323826	e	69
279075	2992899	I didn't expect them to hand over the sites.	I didn't expect them to hand over the sites.	142143776	1475787323834	1475787323970	s	83
279075	2992914	Monitor his progress over the next few weeks.	Monitor his prgress over the next few weeks.	142143914	1475787325851	1475787326170	SHIFT	16
279075	2992914	Monitor his progress over the next few weeks.	Monitor his prgress over the next few weeks.	142143924	1475787326106	1475787326234	M	77
279075	2992914	Monitor his progress over the next few weeks.	Monitor his prgress over the next few weeks.	142143933	1475787326314	1475787326410	o	79
279075	2992914	Monitor his progress over the next few weeks.	Monitor his prgress over the next few weeks.	142143941	1475787326466	1475787326554	n	78
279075	2992914	Monitor his progress over the next few weeks.	Monitor his prgress over the next few weeks.	142143946	1475787326602	1475787326698	i	73
279075	2992914	Monitor his progress over the next few weeks.	Monitor his prgress over the next few weeks.	142143953	1475787326802	1475787326922	t	84
279075	2992914	Monitor his progress over the next few weeks.	Monitor his prgress over the next few weeks.	142143987	1475787326986	1475787327098	o	79
279075	2992914	Monitor his progress over the next few weeks.	Monitor his prgress over the next few weeks.	142143992	1475787327202	1475787327322	r	82
279075	2992914	Monitor his progress over the next few weeks.	Monitor his prgress over the next few weeks.	142143995	1475787327458	1475787327578	 	32
279075	2992914	Monitor his progress over the next few weeks.	Monitor his prgress over the next few weeks.	142144000	1475787327758	1475787327874	h	72
279075	2992914	Monitor his progress over the next few weeks.	Monitor his prgress over the next few weeks.	142144006	1475787327882	1475787328018	i	73
279075	2992914	Monitor his progress over the next few weeks.	Monitor his prgress over the next few weeks.	142144083	1475787327986	1475787328138	s	83
279075	2992914	Monitor his progress over the next few weeks.	Monitor his prgress over the next few weeks.	142144087	1475787328090	1475787328226	 	32
279075	2992914	Monitor his progress over the next few weeks.	Monitor his prgress over the next few weeks.	142144091	1475787328590	1475787328698	p	80
279075	2992914	Monitor his progress over the next few weeks.	Monitor his prgress over the next few weeks.	142144094	1475787328763	1475787328850	r	82
279075	2992914	Monitor his progress over the next few weeks.	Monitor his prgress over the next few weeks.	142144099	1475787328954	1475787329058	g	71
279075	2992914	Monitor his progress over the next few weeks.	Monitor his prgress over the next few weeks.	142144104	1475787329170	1475787329322	r	82
279075	2992914	Monitor his progress over the next few weeks.	Monitor his prgress over the next few weeks.	142144123	1475787329386	1475787329498	e	69
279075	2992914	Monitor his progress over the next few weeks.	Monitor his prgress over the next few weeks.	142144127	1475787329610	1475787329674	s	83
279075	2992914	Monitor his progress over the next few weeks.	Monitor his prgress over the next few weeks.	142144134	1475787329754	1475787329850	s	83
279075	2992914	Monitor his progress over the next few weeks.	Monitor his prgress over the next few weeks.	142144140	1475787329858	1475787329962	 	32
279075	2992914	Monitor his progress over the next few weeks.	Monitor his prgress over the next few weeks.	142144150	1475787329962	1475787330074	o	79
279075	2992914	Monitor his progress over the next few weeks.	Monitor his prgress over the next few weeks.	142144211	1475787330402	1475787330498	e	69
279075	2992914	Monitor his progress over the next few weeks.	Monitor his prgress over the next few weeks.	142144216	1475787330802	1475787330898	BKSP	8
279075	2992914	Monitor his progress over the next few weeks.	Monitor his prgress over the next few weeks.	142144220	1475787330858	1475787330978	v	86
279075	2992914	Monitor his progress over the next few weeks.	Monitor his prgress over the next few weeks.	142144224	1475787331034	1475787331202	e	69
279075	2992914	Monitor his progress over the next few weeks.	Monitor his prgress over the next few weeks.	142144228	1475787331146	1475787331274	r	82
279075	2992914	Monitor his progress over the next few weeks.	Monitor his prgress over the next few weeks.	142144232	1475787331298	1475787331434	 	32
279075	2992914	Monitor his progress over the next few weeks.	Monitor his prgress over the next few weeks.	142144268	1475787331402	1475787331506	t	84
279075	2992914	Monitor his progress over the next few weeks.	Monitor his prgress over the next few weeks.	142144270	1475787331486	1475787331586	h	72
279075	2992914	Monitor his progress over the next few weeks.	Monitor his prgress over the next few weeks.	142144271	1475787331594	1475787331706	e	69
279075	2992914	Monitor his progress over the next few weeks.	Monitor his prgress over the next few weeks.	142144274	1475787331698	1475787331838	 	32
279075	2992914	Monitor his progress over the next few weeks.	Monitor his prgress over the next few weeks.	142144276	1475787331998	1475787332098	n	78
279075	2992914	Monitor his progress over the next few weeks.	Monitor his prgress over the next few weeks.	142144279	1475787332114	1475787332222	e	69
279075	2992914	Monitor his progress over the next few weeks.	Monitor his prgress over the next few weeks.	142144321	1475787332342	1475787332490	x	88
279075	2992914	Monitor his progress over the next few weeks.	Monitor his prgress over the next few weeks.	142144324	1475787332546	1475787332658	t	84
279075	2992914	Monitor his progress over the next few weeks.	Monitor his prgress over the next few weeks.	142144330	1475787332650	1475787332798	 	32
279075	2992914	Monitor his progress over the next few weeks.	Monitor his prgress over the next few weeks.	142144334	1475787332930	1475787333030	f	70
279075	2992914	Monitor his progress over the next few weeks.	Monitor his prgress over the next few weeks.	142144337	1475787333186	1475787333246	e	69
279075	2992914	Monitor his progress over the next few weeks.	Monitor his prgress over the next few weeks.	142144391	1475787333446	1475787333554	w	87
279075	2992914	Monitor his progress over the next few weeks.	Monitor his prgress over the next few weeks.	142144394	1475787333570	1475787333694	 	32
279075	2992914	Monitor his progress over the next few weeks.	Monitor his prgress over the next few weeks.	142144398	1475787333878	1475787333978	w	87
279075	2992914	Monitor his progress over the next few weeks.	Monitor his prgress over the next few weeks.	142144403	1475787333986	1475787334070	e	69
279075	2992914	Monitor his progress over the next few weeks.	Monitor his prgress over the next few weeks.	142144408	1475787334182	1475787334286	e	69
279075	2992914	Monitor his progress over the next few weeks.	Monitor his prgress over the next few weeks.	142144437	1475787334348	1475787334478	k	75
279075	2992914	Monitor his progress over the next few weeks.	Monitor his prgress over the next few weeks.	142144441	1475787334486	1475787334638	s	83
279075	2992925	Are you going to apply?	Are you going to apply?	142144596	1475787336478	1475787336662	SHIFT	16
279075	2992925	Are you going to apply?	Are you going to apply?	142144599	1475787336550	1475787336718	A	65
279075	2992925	Are you going to apply?	Are you going to apply?	142144606	1475787336718	1475787336854	r	82
279075	2992925	Are you going to apply?	Are you going to apply?	142144610	1475787336862	1475787336974	e	69
279075	2992925	Are you going to apply?	Are you going to apply?	142144619	1475787336974	1475787337110	 	32
279075	2992925	Are you going to apply?	Are you going to apply?	142144627	1475787337606	1475787337726	y	89
279075	2992925	Are you going to apply?	Are you going to apply?	142144651	1475787337694	1475787337870	o	79
279075	2992925	Are you going to apply?	Are you going to apply?	142144653	1475787337830	1475787337926	u	85
279075	2992925	Are you going to apply?	Are you going to apply?	142144659	1475787337934	1475787338046	 	32
279075	2992925	Are you going to apply?	Are you going to apply?	142144663	1475787338102	1475787338198	g	71
279075	2992925	Are you going to apply?	Are you going to apply?	142144670	1475787338206	1475787338342	o	79
279075	2992925	Are you going to apply?	Are you going to apply?	142144675	1475787338462	1475787338550	i	73
279075	2992925	Are you going to apply?	Are you going to apply?	142144698	1475787338526	1475787338638	n	78
279075	2992925	Are you going to apply?	Are you going to apply?	142144702	1475787338622	1475787338734	g	71
279075	2992925	Are you going to apply?	Are you going to apply?	142144704	1475787338710	1475787338830	 	32
279075	2992925	Are you going to apply?	Are you going to apply?	142144706	1475787338910	1475787339030	t	84
279075	2992925	Are you going to apply?	Are you going to apply?	142144708	1475787339022	1475787339110	o	79
279075	2992925	Are you going to apply?	Are you going to apply?	142144709	1475787339134	1475787339230	 	32
279075	2992925	Are you going to apply?	Are you going to apply?	142144728	1475787339238	1475787339374	a	65
279075	2992925	Are you going to apply?	Are you going to apply?	142144732	1475787339398	1475787339494	p	80
279075	2992925	Are you going to apply?	Are you going to apply?	142144739	1475787339582	1475787339702	p	80
279075	2992925	Are you going to apply?	Are you going to apply?	142144743	1475787339686	1475787339798	l	76
279075	2992925	Are you going to apply?	Are you going to apply?	142144811	1475787339782	1475787339886	y	89
279075	2992925	Are you going to apply?	Are you going to apply?	142144819	1475787340222	1475787340974	SHIFT	16
279075	2992925	Are you going to apply?	Are you going to apply?	142144814	1475787340822	1475787340942	?	191
279075	2992935	So, we need to get these resolved.	So, we need to get these resolved.	142144974	1475787342790	1475787343054	SHIFT	16
279075	2992935	So, we need to get these resolved.	So, we need to get these resolved.	142144971	1475787342926	1475787343046	S	83
279075	2992935	So, we need to get these resolved.	So, we need to get these resolved.	142144979	1475787343230	1475787343310	o	79
279075	2992935	So, we need to get these resolved.	So, we need to get these resolved.	142144982	1475787343438	1475787343550	,	188
279075	2992935	So, we need to get these resolved.	So, we need to get these resolved.	142144987	1475787343582	1475787343702	 	32
279075	2992935	So, we need to get these resolved.	So, we need to get these resolved.	142144990	1475787343830	1475787343990	w	87
279075	2992935	So, we need to get these resolved.	So, we need to get these resolved.	142145045	1475787343950	1475787344110	e	69
279075	2992935	So, we need to get these resolved.	So, we need to get these resolved.	142145059	1475787344214	1475787344326	 	32
279075	2992935	So, we need to get these resolved.	So, we need to get these resolved.	142145065	1475787344358	1475787344469	n	78
279075	2992935	So, we need to get these resolved.	So, we need to get these resolved.	142145077	1475787344462	1475787344558	e	69
279075	2992935	So, we need to get these resolved.	So, we need to get these resolved.	142145089	1475787344630	1475787344718	e	69
279075	2992935	So, we need to get these resolved.	So, we need to get these resolved.	142145098	1475787344848	1475787344958	d	68
279075	2992935	So, we need to get these resolved.	So, we need to get these resolved.	142145148	1475787344950	1475787345102	 	32
279075	2992935	So, we need to get these resolved.	So, we need to get these resolved.	142145152	1475787345142	1475787345246	t	84
279075	2992935	So, we need to get these resolved.	So, we need to get these resolved.	142145154	1475787345261	1475787345374	o	79
279075	2992935	So, we need to get these resolved.	So, we need to get these resolved.	142145155	1475787345398	1475787345518	 	32
279075	2992935	So, we need to get these resolved.	So, we need to get these resolved.	142145156	1475787345694	1475787345798	g	71
279075	2992935	So, we need to get these resolved.	So, we need to get these resolved.	142145159	1475787345894	1475787346023	e	69
279075	2992935	So, we need to get these resolved.	So, we need to get these resolved.	142145204	1475787346006	1475787346094	t	84
279075	2992935	So, we need to get these resolved.	So, we need to get these resolved.	142145208	1475787346118	1475787346294	 	32
279075	2992935	So, we need to get these resolved.	So, we need to get these resolved.	142145212	1475787346270	1475787346390	t	84
279075	2992935	So, we need to get these resolved.	So, we need to get these resolved.	142145215	1475787346406	1475787346510	h	72
279075	2992935	So, we need to get these resolved.	So, we need to get these resolved.	142145218	1475787346510	1475787346670	e	69
279075	2992935	So, we need to get these resolved.	So, we need to get these resolved.	142145223	1475787346678	1475787346830	s	83
279075	2992935	So, we need to get these resolved.	So, we need to get these resolved.	142145266	1475787346774	1475787346926	e	69
279075	2992935	So, we need to get these resolved.	So, we need to get these resolved.	142145270	1475787346894	1475787347022	 	32
279075	2992935	So, we need to get these resolved.	So, we need to get these resolved.	142145274	1475787347102	1475787347214	r	82
279075	2992935	So, we need to get these resolved.	So, we need to get these resolved.	142145276	1475787347206	1475787347358	e	69
279075	2992935	So, we need to get these resolved.	So, we need to get these resolved.	142145278	1475787347350	1475787347502	s	83
279075	2992935	So, we need to get these resolved.	So, we need to get these resolved.	142145282	1475787347566	1475787347702	o	79
279075	2992935	So, we need to get these resolved.	So, we need to get these resolved.	142145382	1475787348270	1475787348374	l	76
279075	2992935	So, we need to get these resolved.	So, we need to get these resolved.	142145387	1475787348461	1475787348558	v	86
279075	2992935	So, we need to get these resolved.	So, we need to get these resolved.	142145394	1475787348614	1475787348718	e	69
279075	2992935	So, we need to get these resolved.	So, we need to get these resolved.	142145396	1475787348814	1475787348926	d	68
279075	2992935	So, we need to get these resolved.	So, we need to get these resolved.	142145398	1475787349110	1475787349230	.	190
279075	2992943	If she calls me yet today, I'll let you know.	If she calls me yet today, I'll let you know.	142145522	1475787350886	1475787351158	SHIFT	16
279075	2992943	If she calls me yet today, I'll let you know.	If she calls me yet today, I'll let you know.	142145524	1475787351110	1475787351189	I	73
279075	2992943	If she calls me yet today, I'll let you know.	If she calls me yet today, I'll let you know.	142145526	1475787351181	1475787351318	f	70
279075	2992943	If she calls me yet today, I'll let you know.	If she calls me yet today, I'll let you know.	142145529	1475787351326	1475787351445	 	32
279075	2992943	If she calls me yet today, I'll let you know.	If she calls me yet today, I'll let you know.	142145531	1475787351446	1475787351629	s	83
279075	2992943	If she calls me yet today, I'll let you know.	If she calls me yet today, I'll let you know.	142145557	1475787351566	1475787351653	h	72
279075	2992943	If she calls me yet today, I'll let you know.	If she calls me yet today, I'll let you know.	142145559	1475787351654	1475787351781	e	69
279075	2992943	If she calls me yet today, I'll let you know.	If she calls me yet today, I'll let you know.	142145564	1475787351782	1475787351885	 	32
279075	2992943	If she calls me yet today, I'll let you know.	If she calls me yet today, I'll let you know.	142145567	1475787351989	1475787352141	c	67
279075	2992943	If she calls me yet today, I'll let you know.	If she calls me yet today, I'll let you know.	142145569	1475787352142	1475787352294	a	65
279075	2992943	If she calls me yet today, I'll let you know.	If she calls me yet today, I'll let you know.	142145623	1475787352261	1475787352357	l	76
279075	2992943	If she calls me yet today, I'll let you know.	If she calls me yet today, I'll let you know.	142145628	1475787352429	1475787352549	l	76
279075	2992943	If she calls me yet today, I'll let you know.	If she calls me yet today, I'll let you know.	142145632	1475787352653	1475787352773	s	83
279075	2992943	If she calls me yet today, I'll let you know.	If she calls me yet today, I'll let you know.	142145636	1475787352933	1475787353045	 	32
279075	2992943	If she calls me yet today, I'll let you know.	If she calls me yet today, I'll let you know.	142145643	1475787353165	1475787353301	m	77
279075	2992943	If she calls me yet today, I'll let you know.	If she calls me yet today, I'll let you know.	142145722	1475787353245	1475787353392	e	69
279075	2992943	If she calls me yet today, I'll let you know.	If she calls me yet today, I'll let you know.	142145727	1475787353350	1475787353477	 	32
279075	2992943	If she calls me yet today, I'll let you know.	If she calls me yet today, I'll let you know.	142145729	1475787354133	1475787354237	y	89
279075	2992943	If she calls me yet today, I'll let you know.	If she calls me yet today, I'll let you know.	142145731	1475787354261	1475787354389	e	69
279075	2992943	If she calls me yet today, I'll let you know.	If she calls me yet today, I'll let you know.	142145735	1475787354390	1475787354509	t	84
279075	2992943	If she calls me yet today, I'll let you know.	If she calls me yet today, I'll let you know.	142145741	1475787354997	1475787355102	 	32
279075	2992943	If she calls me yet today, I'll let you know.	If she calls me yet today, I'll let you know.	142145782	1475787355302	1475787355405	t	84
279075	2992943	If she calls me yet today, I'll let you know.	If she calls me yet today, I'll let you know.	142145786	1475787355477	1475787355589	o	79
279075	2992943	If she calls me yet today, I'll let you know.	If she calls me yet today, I'll let you know.	142145790	1475787355613	1475787355765	d	68
279075	2992943	If she calls me yet today, I'll let you know.	If she calls me yet today, I'll let you know.	142145796	1475787355789	1475787355941	a	65
279075	2992943	If she calls me yet today, I'll let you know.	If she calls me yet today, I'll let you know.	142145801	1475787355942	1475787356053	y	89
279075	2992943	If she calls me yet today, I'll let you know.	If she calls me yet today, I'll let you know.	142145884	1475787356149	1475787356277	,	188
279075	2992943	If she calls me yet today, I'll let you know.	If she calls me yet today, I'll let you know.	142145886	1475787356317	1475787356413	 	32
279075	2992943	If she calls me yet today, I'll let you know.	If she calls me yet today, I'll let you know.	142145890	1475787356685	1475787356973	SHIFT	16
279075	2992943	If she calls me yet today, I'll let you know.	If she calls me yet today, I'll let you know.	142145892	1475787356845	1475787356989	I	73
279075	2992943	If she calls me yet today, I'll let you know.	If she calls me yet today, I'll let you know.	142145894	1475787357245	1475787357373	'	222
279075	2992943	If she calls me yet today, I'll let you know.	If she calls me yet today, I'll let you know.	142145896	1475787357861	1475787357973	l	76
279075	2992943	If she calls me yet today, I'll let you know.	If she calls me yet today, I'll let you know.	142145938	1475787358061	1475787358149	l	76
279075	2992943	If she calls me yet today, I'll let you know.	If she calls me yet today, I'll let you know.	142145941	1475787358213	1475787358325	 	32
279075	2992943	If she calls me yet today, I'll let you know.	If she calls me yet today, I'll let you know.	142145944	1475787358653	1475787358717	l	76
279075	2992943	If she calls me yet today, I'll let you know.	If she calls me yet today, I'll let you know.	142145946	1475787358741	1475787358877	e	69
279075	2992943	If she calls me yet today, I'll let you know.	If she calls me yet today, I'll let you know.	142145948	1475787358885	1475787358989	t	84
279075	2992943	If she calls me yet today, I'll let you know.	If she calls me yet today, I'll let you know.	142145961	1475787359029	1475787359165	 	32
279075	2992943	If she calls me yet today, I'll let you know.	If she calls me yet today, I'll let you know.	142145965	1475787359213	1475787359309	y	89
279075	2992943	If she calls me yet today, I'll let you know.	If she calls me yet today, I'll let you know.	142145969	1475787359301	1475787359446	o	79
279075	2992943	If she calls me yet today, I'll let you know.	If she calls me yet today, I'll let you know.	142145973	1475787359429	1475787359493	u	85
279075	2992943	If she calls me yet today, I'll let you know.	If she calls me yet today, I'll let you know.	142145978	1475787359533	1475787359661	 	32
279075	2992943	If she calls me yet today, I'll let you know.	If she calls me yet today, I'll let you know.	142146014	1475787359837	1475787360005	k	75
279075	2992943	If she calls me yet today, I'll let you know.	If she calls me yet today, I'll let you know.	142146017	1475787359941	1475787360093	n	78
279075	2992943	If she calls me yet today, I'll let you know.	If she calls me yet today, I'll let you know.	142146021	1475787360093	1475787360173	o	79
279075	2992943	If she calls me yet today, I'll let you know.	If she calls me yet today, I'll let you know.	142146026	1475787360133	1475787360269	w	87
279075	2992943	If she calls me yet today, I'll let you know.	If she calls me yet today, I'll let you know.	142146031	1475787360389	1475787360501	.	190
279075	2992959	Theresa - Please resend.	Theresa - Please resend.	142146238	1475787362445	1475787362653	SHIFT	16
279075	2992959	Theresa - Please resend.	Theresa - Please resend.	142146240	1475787362573	1475787362709	T	84
279075	2992959	Theresa - Please resend.	Theresa - Please resend.	142146243	1475787362725	1475787362813	h	72
279075	2992959	Theresa - Please resend.	Theresa - Please resend.	142146246	1475787363477	1475787363614	e	69
279075	2992959	Theresa - Please resend.	Theresa - Please resend.	142146250	1475787363597	1475787363725	r	82
279075	2992959	Theresa - Please resend.	Theresa - Please resend.	142146257	1475787363861	1475787364005	e	69
279075	2992959	Theresa - Please resend.	Theresa - Please resend.	142146353	1475787364341	1475787364493	s	83
279075	2992959	Theresa - Please resend.	Theresa - Please resend.	142146355	1475787364517	1475787364653	a	65
279075	2992959	Theresa - Please resend.	Theresa - Please resend.	142146358	1475787365229	1475787365341	 	32
279075	2992959	Theresa - Please resend.	Theresa - Please resend.	142146361	1475787365513	1475787365609	-	189
279075	2992959	Theresa - Please resend.	Theresa - Please resend.	142146363	1475787366053	1475787366193	 	32
279075	2992959	Theresa - Please resend.	Theresa - Please resend.	142146429	1475787366437	1475787366749	SHIFT	16
279075	2992959	Theresa - Please resend.	Theresa - Please resend.	142146425	1475787366577	1475787366729	P	80
279075	2992959	Theresa - Please resend.	Theresa - Please resend.	142146435	1475787366913	1475787367037	l	76
279075	2992959	Theresa - Please resend.	Theresa - Please resend.	142146439	1475787367017	1475787367185	e	69
279075	2992959	Theresa - Please resend.	Theresa - Please resend.	142146442	1475787367385	1475787367537	a	65
279075	2992959	Theresa - Please resend.	Theresa - Please resend.	142146493	1475787367525	1475787367745	s	83
279075	2992959	Theresa - Please resend.	Theresa - Please resend.	142146496	1475787367649	1475787367813	e	69
279075	2992959	Theresa - Please resend.	Theresa - Please resend.	142146499	1475787367901	1475787368013	 	32
279075	2992959	Theresa - Please resend.	Theresa - Please resend.	142146501	1475787368101	1475787368213	r	82
279075	2992959	Theresa - Please resend.	Theresa - Please resend.	142146502	1475787368225	1475787368357	e	69
279075	2992959	Theresa - Please resend.	Theresa - Please resend.	142146503	1475787368369	1475787368521	s	83
279075	2992959	Theresa - Please resend.	Theresa - Please resend.	142146549	1475787368481	1475787368625	e	69
279075	2992959	Theresa - Please resend.	Theresa - Please resend.	142146550	1475787368649	1475787368769	n	78
279075	2992959	Theresa - Please resend.	Theresa - Please resend.	142146551	1475787368805	1475787368869	t	84
279075	2992959	Theresa - Please resend.	Theresa - Please resend.	142146553	1475787369169	1475787369258	BKSP	8
279075	2992959	Theresa - Please resend.	Theresa - Please resend.	142146555	1475787369225	1475787369377	d	68
279075	2992959	Theresa - Please resend.	Theresa - Please resend.	142146557	1475787369425	1475787369585	.	190
279075	2992973	Joel will handle this.	Joel will handle this.	142146701	1475787371649	1475787371889	SHIFT	16
279075	2992973	Joel will handle this.	Joel will handle this.	142146704	1475787371801	1475787371921	J	74
279075	2992973	Joel will handle this.	Joel will handle this.	142146709	1475787371969	1475787372081	o	79
279075	2992973	Joel will handle this.	Joel will handle this.	142146716	1475787372065	1475787372201	e	69
279075	2992973	Joel will handle this.	Joel will handle this.	142146720	1475787372241	1475787372377	l	76
279075	2992973	Joel will handle this.	Joel will handle this.	142146727	1475787372385	1475787372489	 	32
279075	2992973	Joel will handle this.	Joel will handle this.	142146774	1475787372569	1475787372705	w	87
279075	2992973	Joel will handle this.	Joel will handle this.	142146778	1475787372737	1475787372841	i	73
279075	2992973	Joel will handle this.	Joel will handle this.	142146782	1475787372921	1475787373001	l	76
279075	2992973	Joel will handle this.	Joel will handle this.	142146788	1475787373065	1475787373161	l	76
279075	2992973	Joel will handle this.	Joel will handle this.	142146795	1475787373185	1475787373281	 	32
279075	2992973	Joel will handle this.	Joel will handle this.	142146853	1475787373321	1475787373417	h	72
279075	2992973	Joel will handle this.	Joel will handle this.	142146857	1475787373441	1475787373601	a	65
279075	2992973	Joel will handle this.	Joel will handle this.	142146861	1475787373801	1475787373897	n	78
279075	2992973	Joel will handle this.	Joel will handle this.	142146865	1475787373985	1475787374121	d	68
279075	2992973	Joel will handle this.	Joel will handle this.	142146870	1475787374273	1475787374393	l	76
279075	2992973	Joel will handle this.	Joel will handle this.	142146893	1475787374433	1475787374545	e	69
279075	2992973	Joel will handle this.	Joel will handle this.	142146896	1475787374561	1475787374681	 	32
279075	2992973	Joel will handle this.	Joel will handle this.	142146900	1475787374737	1475787374833	t	84
279075	2992973	Joel will handle this.	Joel will handle this.	142146903	1475787374825	1475787374937	h	72
279075	2992973	Joel will handle this.	Joel will handle this.	142146905	1475787374985	1475787375097	i	73
279075	2992973	Joel will handle this.	Joel will handle this.	142146919	1475787375098	1475787375273	s	83
279075	2992973	Joel will handle this.	Joel will handle this.	142146923	1475787375321	1475787375497	.	190
