PARTICIPANT_ID	TEST_SECTION_ID	SENTENCE	USER_INPUT	KEYSTROKE_ID	PRESS_TIME	RELEASE_TIME	LETTER	KEYCODE
279726	3000486	He quoted local Yemenis as saying that 43 people had been killed.	He quoted local Yeminis as saying that 43 people had been killed.	142502931	1475795305126	1475795305904	SHIFT	16
279726	3000486	He quoted local Yemenis as saying that 43 people had been killed.	He quoted local Yeminis as saying that 43 people had been killed.	142502927	1475795305493	1475795305539	H	72
279726	3000486	He quoted local Yemenis as saying that 43 people had been killed.	He quoted local Yeminis as saying that 43 people had been killed.	142502934	1475795306110	1475795306288	e	69
279726	3000486	He quoted local Yemenis as saying that 43 people had been killed.	He quoted local Yeminis as saying that 43 people had been killed.	142502938	1475795306449	1475795306579	 	32
279726	3000486	He quoted local Yemenis as saying that 43 people had been killed.	He quoted local Yeminis as saying that 43 people had been killed.	142502942	1475795306774	1475795306924	q	81
279726	3000486	He quoted local Yemenis as saying that 43 people had been killed.	He quoted local Yeminis as saying that 43 people had been killed.	142502961	1475795306892	1475795307007	u	85
279726	3000486	He quoted local Yemenis as saying that 43 people had been killed.	He quoted local Yeminis as saying that 43 people had been killed.	142502963	1475795307056	1475795307201	o	79
279726	3000486	He quoted local Yemenis as saying that 43 people had been killed.	He quoted local Yeminis as saying that 43 people had been killed.	142502965	1475795307231	1475795307310	t	84
279726	3000486	He quoted local Yemenis as saying that 43 people had been killed.	He quoted local Yeminis as saying that 43 people had been killed.	142502966	1475795307414	1475795307493	e	69
279726	3000486	He quoted local Yemenis as saying that 43 people had been killed.	He quoted local Yeminis as saying that 43 people had been killed.	142502967	1475795307639	1475795307741	d	68
279726	3000486	He quoted local Yemenis as saying that 43 people had been killed.	He quoted local Yeminis as saying that 43 people had been killed.	142502969	1475795307745	1475795307826	 	32
279726	3000486	He quoted local Yemenis as saying that 43 people had been killed.	He quoted local Yeminis as saying that 43 people had been killed.	142502983	1475795307906	1475795308008	l	76
279726	3000486	He quoted local Yemenis as saying that 43 people had been killed.	He quoted local Yeminis as saying that 43 people had been killed.	142502984	1475795308130	1475795308260	o	79
279726	3000486	He quoted local Yemenis as saying that 43 people had been killed.	He quoted local Yeminis as saying that 43 people had been killed.	142502985	1475795308232	1475795308321	c	67
279726	3000486	He quoted local Yemenis as saying that 43 people had been killed.	He quoted local Yeminis as saying that 43 people had been killed.	142502986	1475795308409	1475795308543	a	65
279726	3000486	He quoted local Yemenis as saying that 43 people had been killed.	He quoted local Yeminis as saying that 43 people had been killed.	142502987	1475795308899	1475795309042	l	76
279726	3000486	He quoted local Yemenis as saying that 43 people had been killed.	He quoted local Yeminis as saying that 43 people had been killed.	142503003	1475795309112	1475795309204	 	32
279726	3000486	He quoted local Yemenis as saying that 43 people had been killed.	He quoted local Yeminis as saying that 43 people had been killed.	142503004	1475795309470	1475795309684	SHIFT	16
279726	3000486	He quoted local Yemenis as saying that 43 people had been killed.	He quoted local Yeminis as saying that 43 people had been killed.	142503005	1475795309634	1475795309715	Y	89
279726	3000486	He quoted local Yemenis as saying that 43 people had been killed.	He quoted local Yeminis as saying that 43 people had been killed.	142503006	1475795309844	1475795309981	e	69
279726	3000486	He quoted local Yemenis as saying that 43 people had been killed.	He quoted local Yeminis as saying that 43 people had been killed.	142503007	1475795310064	1475795310150	m	77
279726	3000486	He quoted local Yemenis as saying that 43 people had been killed.	He quoted local Yeminis as saying that 43 people had been killed.	142503008	1475795310253	1475795310353	i	73
279726	3000486	He quoted local Yemenis as saying that 43 people had been killed.	He quoted local Yeminis as saying that 43 people had been killed.	142503032	1475795310478	1475795310551	n	78
279726	3000486	He quoted local Yemenis as saying that 43 people had been killed.	He quoted local Yeminis as saying that 43 people had been killed.	142503034	1475795310655	1475795310759	i	73
279726	3000486	He quoted local Yemenis as saying that 43 people had been killed.	He quoted local Yeminis as saying that 43 people had been killed.	142503035	1475795310791	1475795310868	s	83
279726	3000486	He quoted local Yemenis as saying that 43 people had been killed.	He quoted local Yeminis as saying that 43 people had been killed.	142503037	1475795310924	1475795311029	 	32
279726	3000486	He quoted local Yemenis as saying that 43 people had been killed.	He quoted local Yeminis as saying that 43 people had been killed.	142503039	1475795311052	1475795311178	a	65
279726	3000486	He quoted local Yemenis as saying that 43 people had been killed.	He quoted local Yeminis as saying that 43 people had been killed.	142503063	1475795311281	1475795311377	s	83
279726	3000486	He quoted local Yemenis as saying that 43 people had been killed.	He quoted local Yeminis as saying that 43 people had been killed.	142503065	1475795311405	1475795311497	 	32
279726	3000486	He quoted local Yemenis as saying that 43 people had been killed.	He quoted local Yeminis as saying that 43 people had been killed.	142503068	1475795311532	1475795311674	s	83
279726	3000486	He quoted local Yemenis as saying that 43 people had been killed.	He quoted local Yeminis as saying that 43 people had been killed.	142503118	1475795311781	1475795311903	a	65
279726	3000486	He quoted local Yemenis as saying that 43 people had been killed.	He quoted local Yeminis as saying that 43 people had been killed.	142503071	1475795311801	1475795311881	y	89
279726	3000486	He quoted local Yemenis as saying that 43 people had been killed.	He quoted local Yeminis as saying that 43 people had been killed.	142503120	1475795312144	1475795312226	i	73
279726	3000486	He quoted local Yemenis as saying that 43 people had been killed.	He quoted local Yeminis as saying that 43 people had been killed.	142503122	1475795312355	1475795312460	n	78
279726	3000486	He quoted local Yemenis as saying that 43 people had been killed.	He quoted local Yeminis as saying that 43 people had been killed.	142503124	1475795312431	1475795312536	g	71
279726	3000486	He quoted local Yemenis as saying that 43 people had been killed.	He quoted local Yeminis as saying that 43 people had been killed.	142503127	1475795312581	1475795312702	 	32
279726	3000486	He quoted local Yemenis as saying that 43 people had been killed.	He quoted local Yeminis as saying that 43 people had been killed.	142503130	1475795312989	1475795313092	t	84
279726	3000486	He quoted local Yemenis as saying that 43 people had been killed.	He quoted local Yeminis as saying that 43 people had been killed.	142503177	1475795313067	1475795313160	h	72
279726	3000486	He quoted local Yemenis as saying that 43 people had been killed.	He quoted local Yeminis as saying that 43 people had been killed.	142503181	1475795313189	1475795313342	a	65
279726	3000486	He quoted local Yemenis as saying that 43 people had been killed.	He quoted local Yeminis as saying that 43 people had been killed.	142503186	1475795313298	1475795313413	t	84
279726	3000486	He quoted local Yemenis as saying that 43 people had been killed.	He quoted local Yeminis as saying that 43 people had been killed.	142503191	1475795313380	1475795313492	 	32
279726	3000486	He quoted local Yemenis as saying that 43 people had been killed.	He quoted local Yeminis as saying that 43 people had been killed.	142503195	1475795313706	1475795313842	4	52
279726	3000486	He quoted local Yemenis as saying that 43 people had been killed.	He quoted local Yeminis as saying that 43 people had been killed.	142503198	1475795314278	1475795314403	3	51
279726	3000486	He quoted local Yemenis as saying that 43 people had been killed.	He quoted local Yeminis as saying that 43 people had been killed.	142503221	1475795314552	1475795314671	 	32
279726	3000486	He quoted local Yemenis as saying that 43 people had been killed.	He quoted local Yeminis as saying that 43 people had been killed.	142503223	1475795314791	1475795314908	p	80
279726	3000486	He quoted local Yemenis as saying that 43 people had been killed.	He quoted local Yeminis as saying that 43 people had been killed.	142503225	1475795314893	1475795315012	e	69
279726	3000486	He quoted local Yemenis as saying that 43 people had been killed.	He quoted local Yeminis as saying that 43 people had been killed.	142503226	1475795315136	1475795315240	o	79
279726	3000486	He quoted local Yemenis as saying that 43 people had been killed.	He quoted local Yeminis as saying that 43 people had been killed.	142503227	1475795315320	1475795315415	p	80
279726	3000486	He quoted local Yemenis as saying that 43 people had been killed.	He quoted local Yeminis as saying that 43 people had been killed.	142503245	1475795315583	1475795315673	l	76
279726	3000486	He quoted local Yemenis as saying that 43 people had been killed.	He quoted local Yeminis as saying that 43 people had been killed.	142503247	1475795315663	1475795315764	e	69
279726	3000486	He quoted local Yemenis as saying that 43 people had been killed.	He quoted local Yeminis as saying that 43 people had been killed.	142503250	1475795315749	1475795315864	 	32
279726	3000486	He quoted local Yemenis as saying that 43 people had been killed.	He quoted local Yeminis as saying that 43 people had been killed.	142503252	1475795315968	1475795316078	h	72
279726	3000486	He quoted local Yemenis as saying that 43 people had been killed.	He quoted local Yeminis as saying that 43 people had been killed.	142503255	1475795316092	1475795316223	a	65
279726	3000486	He quoted local Yemenis as saying that 43 people had been killed.	He quoted local Yeminis as saying that 43 people had been killed.	142503283	1475795316362	1475795316459	d	68
279726	3000486	He quoted local Yemenis as saying that 43 people had been killed.	He quoted local Yeminis as saying that 43 people had been killed.	142503285	1475795316425	1475795316536	 	32
279726	3000486	He quoted local Yemenis as saying that 43 people had been killed.	He quoted local Yeminis as saying that 43 people had been killed.	142503287	1475795316682	1475795316734	b	66
279726	3000486	He quoted local Yemenis as saying that 43 people had been killed.	He quoted local Yeminis as saying that 43 people had been killed.	142503289	1475795316892	1475795316971	e	69
279726	3000486	He quoted local Yemenis as saying that 43 people had been killed.	He quoted local Yeminis as saying that 43 people had been killed.	142503290	1475795317086	1475795317180	e	69
279726	3000486	He quoted local Yemenis as saying that 43 people had been killed.	He quoted local Yeminis as saying that 43 people had been killed.	142503304	1475795317224	1475795317318	n	78
279726	3000486	He quoted local Yemenis as saying that 43 people had been killed.	He quoted local Yeminis as saying that 43 people had been killed.	142503305	1475795317308	1475795317410	 	32
279726	3000486	He quoted local Yemenis as saying that 43 people had been killed.	He quoted local Yeminis as saying that 43 people had been killed.	142503306	1475795317532	1475795317622	k	75
279726	3000486	He quoted local Yemenis as saying that 43 people had been killed.	He quoted local Yeminis as saying that 43 people had been killed.	142503307	1475795317732	1475795317831	i	73
279726	3000486	He quoted local Yemenis as saying that 43 people had been killed.	He quoted local Yeminis as saying that 43 people had been killed.	142503308	1475795317956	1475795318058	l	76
279726	3000486	He quoted local Yemenis as saying that 43 people had been killed.	He quoted local Yeminis as saying that 43 people had been killed.	142503338	1475795318140	1475795318266	l	76
279726	3000486	He quoted local Yemenis as saying that 43 people had been killed.	He quoted local Yeminis as saying that 43 people had been killed.	142503341	1475795318228	1475795318331	e	69
279726	3000486	He quoted local Yemenis as saying that 43 people had been killed.	He quoted local Yeminis as saying that 43 people had been killed.	142503344	1475795318451	1475795318572	d	68
279726	3000486	He quoted local Yemenis as saying that 43 people had been killed.	He quoted local Yeminis as saying that 43 people had been killed.	142503346	1475795318612	1475795318718	.	190
279726	3000502	I am snowed under and out of the office.	I am snowed under and out of the office.	142503397	1475795320944	1475795321154	SHIFT	16
279726	3000502	I am snowed under and out of the office.	I am snowed under and out of the office.	142503399	1475795321085	1475795321208	I	73
279726	3000502	I am snowed under and out of the office.	I am snowed under and out of the office.	142503401	1475795321288	1475795321433	 	32
279726	3000502	I am snowed under and out of the office.	I am snowed under and out of the office.	142503403	1475795321414	1475795321558	a	65
279726	3000502	I am snowed under and out of the office.	I am snowed under and out of the office.	142503405	1475795321631	1475795321715	m	77
279726	3000502	I am snowed under and out of the office.	I am snowed under and out of the office.	142503430	1475795321692	1475795321808	 	32
279726	3000502	I am snowed under and out of the office.	I am snowed under and out of the office.	142503432	1475795321933	1475795322036	s	83
279726	3000502	I am snowed under and out of the office.	I am snowed under and out of the office.	142503433	1475795322172	1475795322268	n	78
279726	3000502	I am snowed under and out of the office.	I am snowed under and out of the office.	142503435	1475795322369	1475795322503	o	79
279726	3000502	I am snowed under and out of the office.	I am snowed under and out of the office.	142503437	1475795322750	1475795322837	e	69
279726	3000502	I am snowed under and out of the office.	I am snowed under and out of the office.	142503479	1475795322811	1475795322892	w	87
279726	3000502	I am snowed under and out of the office.	I am snowed under and out of the office.	142503480	1475795323203	1475795323313	BKSP	8
279726	3000502	I am snowed under and out of the office.	I am snowed under and out of the office.	142503481	1475795323410	1475795323521	BKSP	8
279726	3000502	I am snowed under and out of the office.	I am snowed under and out of the office.	142503482	1475795323488	1475795323610	w	87
279726	3000502	I am snowed under and out of the office.	I am snowed under and out of the office.	142503483	1475795323577	1475795323736	e	69
279726	3000502	I am snowed under and out of the office.	I am snowed under and out of the office.	142503484	1475795324068	1475795324203	d	68
279726	3000502	I am snowed under and out of the office.	I am snowed under and out of the office.	142503487	1475795324227	1475795324335	 	32
279726	3000502	I am snowed under and out of the office.	I am snowed under and out of the office.	142503491	1475795324410	1475795324500	u	85
279726	3000502	I am snowed under and out of the office.	I am snowed under and out of the office.	142503523	1475795324652	1475795324772	n	78
279726	3000502	I am snowed under and out of the office.	I am snowed under and out of the office.	142503524	1475795324803	1475795324843	d	68
279726	3000502	I am snowed under and out of the office.	I am snowed under and out of the office.	142503525	1475795325180	1475795325376	e	69
279726	3000502	I am snowed under and out of the office.	I am snowed under and out of the office.	142503526	1475795325300	1475795325428	r	82
279726	3000502	I am snowed under and out of the office.	I am snowed under and out of the office.	142503528	1475795325465	1475795325548	 	32
279726	3000502	I am snowed under and out of the office.	I am snowed under and out of the office.	142503538	1475795325580	1475795325708	a	65
279726	3000502	I am snowed under and out of the office.	I am snowed under and out of the office.	142503542	1475795325753	1475795325855	n	78
279726	3000502	I am snowed under and out of the office.	I am snowed under and out of the office.	142503546	1475795325840	1475795325929	d	68
279726	3000502	I am snowed under and out of the office.	I am snowed under and out of the office.	142503550	1475795325872	1475795325956	 	32
279726	3000502	I am snowed under and out of the office.	I am snowed under and out of the office.	142503553	1475795326056	1475795326192	o	79
279726	3000502	I am snowed under and out of the office.	I am snowed under and out of the office.	142503570	1475795326154	1475795326279	u	85
279726	3000502	I am snowed under and out of the office.	I am snowed under and out of the office.	142503572	1475795326252	1475795326373	t	84
279726	3000502	I am snowed under and out of the office.	I am snowed under and out of the office.	142503573	1475795326338	1475795326470	 	32
279726	3000502	I am snowed under and out of the office.	I am snowed under and out of the office.	142503575	1475795326816	1475795326945	o	79
279726	3000502	I am snowed under and out of the office.	I am snowed under and out of the office.	142503576	1475795326897	1475795327003	f	70
279726	3000502	I am snowed under and out of the office.	I am snowed under and out of the office.	142503578	1475795327031	1475795327133	 	32
279726	3000502	I am snowed under and out of the office.	I am snowed under and out of the office.	142503596	1475795327154	1475795327250	t	84
279726	3000502	I am snowed under and out of the office.	I am snowed under and out of the office.	142503598	1475795327239	1475795327322	h	72
279726	3000502	I am snowed under and out of the office.	I am snowed under and out of the office.	142503599	1475795327339	1475795327425	e	69
279726	3000502	I am snowed under and out of the office.	I am snowed under and out of the office.	142503602	1475795327366	1475795327464	 	32
279726	3000502	I am snowed under and out of the office.	I am snowed under and out of the office.	142503603	1475795327487	1475795327619	o	79
279726	3000502	I am snowed under and out of the office.	I am snowed under and out of the office.	142503623	1475795327637	1475795327721	f	70
279726	3000502	I am snowed under and out of the office.	I am snowed under and out of the office.	142503625	1475795327819	1475795327918	f	70
279726	3000502	I am snowed under and out of the office.	I am snowed under and out of the office.	142503627	1475795327924	1475795328025	i	73
279726	3000502	I am snowed under and out of the office.	I am snowed under and out of the office.	142503630	1475795328052	1475795328160	c	67
279726	3000502	I am snowed under and out of the office.	I am snowed under and out of the office.	142503634	1475795328273	1475795328392	e	69
279726	3000502	I am snowed under and out of the office.	I am snowed under and out of the office.	142503651	1475795328406	1475795328540	.	190
279726	3000509	Hope that you have a great TG.	Hope that you have a great TG.	142503747	1475795330696	1475795330929	SHIFT	16
279726	3000509	Hope that you have a great TG.	Hope that you have a great TG.	142503744	1475795330831	1475795330916	H	72
279726	3000509	Hope that you have a great TG.	Hope that you have a great TG.	142503752	1475795330972	1475795331089	o	79
279726	3000509	Hope that you have a great TG.	Hope that you have a great TG.	142503755	1475795331173	1475795331301	p	80
279726	3000509	Hope that you have a great TG.	Hope that you have a great TG.	142503757	1475795331339	1475795331436	e	69
279726	3000509	Hope that you have a great TG.	Hope that you have a great TG.	142503761	1475795331513	1475795331611	 	32
279726	3000509	Hope that you have a great TG.	Hope that you have a great TG.	142503774	1475795331660	1475795331765	t	84
279726	3000509	Hope that you have a great TG.	Hope that you have a great TG.	142503776	1475795331752	1475795331833	h	72
279726	3000509	Hope that you have a great TG.	Hope that you have a great TG.	142503779	1475795331861	1475795332000	a	65
279726	3000509	Hope that you have a great TG.	Hope that you have a great TG.	142503851	1475795332006	1475795332127	t	32
279726	3000509	Hope that you have a great TG.	Hope that you have a great TG.	142503853	1475795332280	1475795332400	y	89
279726	3000509	Hope that you have a great TG.	Hope that you have a great TG.	142503856	1475795333003	1475795333087	BKSP	8
279726	3000509	Hope that you have a great TG.	Hope that you have a great TG.	142503860	1475795333192	1475795333274	BKSP	8
279726	3000509	Hope that you have a great TG.	Hope that you have a great TG.	142503867	1475795333377	1475795333479	BKSP	8
279726	3000509	Hope that you have a great TG.	Hope that you have a great TG.	142503872	1475795333570	1475795333699	t	84
279726	3000509	Hope that you have a great TG.	Hope that you have a great TG.	142503878	1475795333709	1475795333803	 	32
279726	3000509	Hope that you have a great TG.	Hope that you have a great TG.	142503884	1475795333894	1475795333990	y	89
279726	3000509	Hope that you have a great TG.	Hope that you have a great TG.	142503888	1475795334114	1475795334215	o	79
279726	3000509	Hope that you have a great TG.	Hope that you have a great TG.	142503914	1475795334171	1475795334289	u	85
279726	3000509	Hope that you have a great TG.	Hope that you have a great TG.	142503918	1475795334261	1475795334374	 	32
279726	3000509	Hope that you have a great TG.	Hope that you have a great TG.	142503921	1475795334490	1475795334584	h	72
279726	3000509	Hope that you have a great TG.	Hope that you have a great TG.	142503924	1475795334562	1475795334682	a	65
279726	3000509	Hope that you have a great TG.	Hope that you have a great TG.	142503928	1475795334781	1475795334849	v	86
279726	3000509	Hope that you have a great TG.	Hope that you have a great TG.	142503930	1475795334937	1475795335034	e	69
279726	3000509	Hope that you have a great TG.	Hope that you have a great TG.	142503942	1475795335050	1475795335127	 	32
279726	3000509	Hope that you have a great TG.	Hope that you have a great TG.	142503943	1475795335182	1475795335275	a	65
279726	3000509	Hope that you have a great TG.	Hope that you have a great TG.	142503945	1475795335261	1475795335342	 	32
279726	3000509	Hope that you have a great TG.	Hope that you have a great TG.	142503947	1475795335435	1475795335542	g	71
279726	3000509	Hope that you have a great TG.	Hope that you have a great TG.	142503949	1475795335667	1475795335816	r	82
279726	3000509	Hope that you have a great TG.	Hope that you have a great TG.	142503999	1475795335791	1475795335991	e	69
279726	3000509	Hope that you have a great TG.	Hope that you have a great TG.	142504000	1475795336052	1475795336201	a	65
279726	3000509	Hope that you have a great TG.	Hope that you have a great TG.	142504002	1475795336219	1475795336344	t	84
279726	3000509	Hope that you have a great TG.	Hope that you have a great TG.	142504005	1475795336365	1475795336480	 	32
279726	3000509	Hope that you have a great TG.	Hope that you have a great TG.	142504019	1475795336567	1475795337206	SHIFT	16
279726	3000509	Hope that you have a great TG.	Hope that you have a great TG.	142504007	1475795336710	1475795336824	T	84
279726	3000509	Hope that you have a great TG.	Hope that you have a great TG.	142504009	1475795337046	1475795337190	G	71
279726	3000509	Hope that you have a great TG.	Hope that you have a great TG.	142504021	1475795337278	1475795337404	.	190
279726	3000517	I have other things to worry about!	I have other things to worry about!	142504101	1475795340094	1475795340374	SHIFT	16
279726	3000517	I have other things to worry about!	I have other things to worry about!	142504103	1475795340261	1475795340402	I	73
279726	3000517	I have other things to worry about!	I have other things to worry about!	142504104	1475795340419	1475795340521	 	32
279726	3000517	I have other things to worry about!	I have other things to worry about!	142504105	1475795340603	1475795340678	h	72
279726	3000517	I have other things to worry about!	I have other things to worry about!	142504106	1475795340681	1475795340793	a	65
279726	3000517	I have other things to worry about!	I have other things to worry about!	142504107	1475795340898	1475795340982	v	86
279726	3000517	I have other things to worry about!	I have other things to worry about!	142504110	1475795341078	1475795341172	e	69
279726	3000517	I have other things to worry about!	I have other things to worry about!	142504112	1475795341128	1475795341253	 	32
279726	3000517	I have other things to worry about!	I have other things to worry about!	142504115	1475795341217	1475795341351	o	79
279726	3000517	I have other things to worry about!	I have other things to worry about!	142504118	1475795341388	1475795341453	t	84
279726	3000517	I have other things to worry about!	I have other things to worry about!	142504119	1475795341471	1475795341536	h	72
279726	3000517	I have other things to worry about!	I have other things to worry about!	142504124	1475795341573	1475795341703	e	69
279726	3000517	I have other things to worry about!	I have other things to worry about!	142504126	1475795341652	1475795341765	r	82
279726	3000517	I have other things to worry about!	I have other things to worry about!	142504128	1475795341756	1475795341856	 	32
279726	3000517	I have other things to worry about!	I have other things to worry about!	142504129	1475795341887	1475795342001	t	84
279726	3000517	I have other things to worry about!	I have other things to worry about!	142504138	1475795341985	1475795342053	h	72
279726	3000517	I have other things to worry about!	I have other things to worry about!	142504141	1475795342127	1475795342226	i	73
279726	3000517	I have other things to worry about!	I have other things to worry about!	142504144	1475795342343	1475795342436	n	78
279726	3000517	I have other things to worry about!	I have other things to worry about!	142504147	1475795342412	1475795342499	g	71
279726	3000517	I have other things to worry about!	I have other things to worry about!	142504150	1475795342582	1475795342691	s	83
279726	3000517	I have other things to worry about!	I have other things to worry about!	142504170	1475795342643	1475795342746	 	32
279726	3000517	I have other things to worry about!	I have other things to worry about!	142504174	1475795342815	1475795342928	t	84
279726	3000517	I have other things to worry about!	I have other things to worry about!	142504177	1475795342899	1475795343015	o	79
279726	3000517	I have other things to worry about!	I have other things to worry about!	142504178	1475795342998	1475795343113	 	32
279726	3000517	I have other things to worry about!	I have other things to worry about!	142504179	1475795343141	1475795343251	w	87
279726	3000517	I have other things to worry about!	I have other things to worry about!	142504180	1475795343281	1475795343385	o	79
279726	3000517	I have other things to worry about!	I have other things to worry about!	142504195	1475795343393	1475795343492	r	82
279726	3000517	I have other things to worry about!	I have other things to worry about!	142504196	1475795343576	1475795343683	r	82
279726	3000517	I have other things to worry about!	I have other things to worry about!	142504197	1475795343705	1475795343788	y	89
279726	3000517	I have other things to worry about!	I have other things to worry about!	142504200	1475795343858	1475795343954	 	32
279726	3000517	I have other things to worry about!	I have other things to worry about!	142504203	1475795344029	1475795344159	a	65
279726	3000517	I have other things to worry about!	I have other things to worry about!	142504227	1475795344279	1475795344405	b	66
279726	3000517	I have other things to worry about!	I have other things to worry about!	142504229	1475795344373	1475795344510	o	79
279726	3000517	I have other things to worry about!	I have other things to worry about!	142504232	1475795344485	1475795344594	u	85
279726	3000517	I have other things to worry about!	I have other things to worry about!	142504236	1475795344548	1475795344661	t	84
279726	3000517	I have other things to worry about!	I have other things to worry about!	142504239	1475795344776	1475795345187	SHIFT	16
279726	3000517	I have other things to worry about!	I have other things to worry about!	142504243	1475795345021	1475795345164	!	49
279726	3000522	Another group of policemen was due to be deployed.	Another group of policemen was due to be deployed.	142504417	1475795348038	1475795349201	SHIFT	16
279726	3000522	Another group of policemen was due to be deployed.	Another group of policemen was due to be deployed.	142504410	1475795348520	1475795348578	N	78
279726	3000522	Another group of policemen was due to be deployed.	Another group of policemen was due to be deployed.	142504413	1475795348944	1475795349039	BKSP	8
279726	3000522	Another group of policemen was due to be deployed.	Another group of policemen was due to be deployed.	142504420	1475795349053	1475795349208	A	65
279726	3000522	Another group of policemen was due to be deployed.	Another group of policemen was due to be deployed.	142504423	1475795349361	1475795349465	n	78
279726	3000522	Another group of policemen was due to be deployed.	Another group of policemen was due to be deployed.	142504425	1475795349622	1475795349733	o	79
279726	3000522	Another group of policemen was due to be deployed.	Another group of policemen was due to be deployed.	142504426	1475795349758	1475795349859	t	84
279726	3000522	Another group of policemen was due to be deployed.	Another group of policemen was due to be deployed.	142504427	1475795349912	1475795349997	h	72
279726	3000522	Another group of policemen was due to be deployed.	Another group of policemen was due to be deployed.	142504428	1475795349987	1475795350135	e	69
279726	3000522	Another group of policemen was due to be deployed.	Another group of policemen was due to be deployed.	142504430	1475795350082	1475795350198	r	82
279726	3000522	Another group of policemen was due to be deployed.	Another group of policemen was due to be deployed.	142504432	1475795350187	1475795350289	 	32
279726	3000522	Another group of policemen was due to be deployed.	Another group of policemen was due to be deployed.	142504435	1475795350465	1475795350561	g	71
279726	3000522	Another group of policemen was due to be deployed.	Another group of policemen was due to be deployed.	142504448	1475795350690	1475795350805	r	82
279726	3000522	Another group of policemen was due to be deployed.	Another group of policemen was due to be deployed.	142504449	1475795350790	1475795350925	o	79
279726	3000522	Another group of policemen was due to be deployed.	Another group of policemen was due to be deployed.	142504450	1475795350937	1475795351044	u	85
279726	3000522	Another group of policemen was due to be deployed.	Another group of policemen was due to be deployed.	142504452	1475795351112	1475795351247	p	80
279726	3000522	Another group of policemen was due to be deployed.	Another group of policemen was due to be deployed.	142504454	1475795351302	1475795351427	 	32
279726	3000522	Another group of policemen was due to be deployed.	Another group of policemen was due to be deployed.	142504476	1475795351488	1475795351604	o	79
279726	3000522	Another group of policemen was due to be deployed.	Another group of policemen was due to be deployed.	142504478	1475795351619	1475795351749	f	70
279726	3000522	Another group of policemen was due to be deployed.	Another group of policemen was due to be deployed.	142504481	1475795351703	1475795351809	 	32
279726	3000522	Another group of policemen was due to be deployed.	Another group of policemen was due to be deployed.	142504485	1475795351911	1475795352013	p	80
279726	3000522	Another group of policemen was due to be deployed.	Another group of policemen was due to be deployed.	142504489	1475795352140	1475795352269	o	79
279726	3000522	Another group of policemen was due to be deployed.	Another group of policemen was due to be deployed.	142504543	1475795352489	1475795352606	l	76
279726	3000522	Another group of policemen was due to be deployed.	Another group of policemen was due to be deployed.	142504546	1475795352712	1475795352829	i	73
279726	3000522	Another group of policemen was due to be deployed.	Another group of policemen was due to be deployed.	142504548	1475795352939	1475795353025	c	67
279726	3000522	Another group of policemen was due to be deployed.	Another group of policemen was due to be deployed.	142504552	1475795353147	1475795353245	e	69
279726	3000522	Another group of policemen was due to be deployed.	Another group of policemen was due to be deployed.	142504555	1475795353259	1475795353372	m	77
279726	3000522	Another group of policemen was due to be deployed.	Another group of policemen was due to be deployed.	142504612	1475795353661	1475795353761	e	69
279726	3000522	Another group of policemen was due to be deployed.	Another group of policemen was due to be deployed.	142504615	1475795354120	1475795354308	n	78
279726	3000522	Another group of policemen was due to be deployed.	Another group of policemen was due to be deployed.	142504618	1475795354466	1475795354549	 	32
279726	3000522	Another group of policemen was due to be deployed.	Another group of policemen was due to be deployed.	142504621	1475795354665	1475795354814	w	87
279726	3000522	Another group of policemen was due to be deployed.	Another group of policemen was due to be deployed.	142504624	1475795355093	1475795355208	a	65
279726	3000522	Another group of policemen was due to be deployed.	Another group of policemen was due to be deployed.	142504653	1475795355314	1475795355422	s	83
279726	3000522	Another group of policemen was due to be deployed.	Another group of policemen was due to be deployed.	142504655	1475795355437	1475795355516	 	32
279726	3000522	Another group of policemen was due to be deployed.	Another group of policemen was due to be deployed.	142504659	1475795355627	1475795355751	d	68
279726	3000522	Another group of policemen was due to be deployed.	Another group of policemen was due to be deployed.	142504664	1475795355733	1475795355817	u	85
279726	3000522	Another group of policemen was due to be deployed.	Another group of policemen was due to be deployed.	142504670	1475795355874	1475795355967	e	69
279726	3000522	Another group of policemen was due to be deployed.	Another group of policemen was due to be deployed.	142504691	1475795356019	1475795356133	 	32
279726	3000522	Another group of policemen was due to be deployed.	Another group of policemen was due to be deployed.	142504694	1475795356139	1475795356265	t	84
279726	3000522	Another group of policemen was due to be deployed.	Another group of policemen was due to be deployed.	142504698	1475795356246	1475795356391	o	79
279726	3000522	Another group of policemen was due to be deployed.	Another group of policemen was due to be deployed.	142504701	1475795356372	1475795356514	 	32
279726	3000522	Another group of policemen was due to be deployed.	Another group of policemen was due to be deployed.	142504705	1475795356591	1475795356679	b	66
279726	3000522	Another group of policemen was due to be deployed.	Another group of policemen was due to be deployed.	142504737	1475795356787	1475795356892	e	69
279726	3000522	Another group of policemen was due to be deployed.	Another group of policemen was due to be deployed.	142504743	1475795356899	1475795356992	 	32
279726	3000522	Another group of policemen was due to be deployed.	Another group of policemen was due to be deployed.	142504747	1475795357072	1475795357157	d	68
279726	3000522	Another group of policemen was due to be deployed.	Another group of policemen was due to be deployed.	142504749	1475795357270	1475795357381	e	69
279726	3000522	Another group of policemen was due to be deployed.	Another group of policemen was due to be deployed.	142504788	1475795357357	1475795357479	p	80
279726	3000522	Another group of policemen was due to be deployed.	Another group of policemen was due to be deployed.	142504793	1475795357646	1475795357750	l	76
279726	3000522	Another group of policemen was due to be deployed.	Another group of policemen was due to be deployed.	142504798	1475795357856	1475795357961	o	79
279726	3000522	Another group of policemen was due to be deployed.	Another group of policemen was due to be deployed.	142504803	1475795358066	1475795358162	y	89
279726	3000522	Another group of policemen was due to be deployed.	Another group of policemen was due to be deployed.	142504808	1475795358188	1475795358280	e	69
279726	3000522	Another group of policemen was due to be deployed.	Another group of policemen was due to be deployed.	142504811	1475795358563	1475795358684	d	68
279726	3000522	Another group of policemen was due to be deployed.	Another group of policemen was due to be deployed.	142504822	1475795358750	1475795358875	.	190
279726	3000531	The reserve wideout is day-to-day.	The reserve wideout is day-to-day.	142504983	1475795362516	1475795362746	SHIFT	16
279726	3000531	The reserve wideout is day-to-day.	The reserve wideout is day-to-day.	142504986	1475795362683	1475795362827	T	84
279726	3000531	The reserve wideout is day-to-day.	The reserve wideout is day-to-day.	142504989	1475795362812	1475795362909	h	72
279726	3000531	The reserve wideout is day-to-day.	The reserve wideout is day-to-day.	142504991	1475795362926	1475795363044	e	69
279726	3000531	The reserve wideout is day-to-day.	The reserve wideout is day-to-day.	142504993	1475795363006	1475795363123	 	32
279726	3000531	The reserve wideout is day-to-day.	The reserve wideout is day-to-day.	142504998	1475795363182	1475795363324	r	82
279726	3000531	The reserve wideout is day-to-day.	The reserve wideout is day-to-day.	142505032	1475795363266	1475795363377	e	69
279726	3000531	The reserve wideout is day-to-day.	The reserve wideout is day-to-day.	142505034	1475795363783	1475795363868	s	83
279726	3000531	The reserve wideout is day-to-day.	The reserve wideout is day-to-day.	142505036	1475795364007	1475795364175	e	69
279726	3000531	The reserve wideout is day-to-day.	The reserve wideout is day-to-day.	142505038	1475795364102	1475795364216	r	82
279726	3000531	The reserve wideout is day-to-day.	The reserve wideout is day-to-day.	142505040	1475795364438	1475795364529	v	86
279726	3000531	The reserve wideout is day-to-day.	The reserve wideout is day-to-day.	142505044	1475795364619	1475795364725	e	69
279726	3000531	The reserve wideout is day-to-day.	The reserve wideout is day-to-day.	142505079	1475795364716	1475795364815	 	32
279726	3000531	The reserve wideout is day-to-day.	The reserve wideout is day-to-day.	142505081	1475795364917	1475795365007	w	87
279726	3000531	The reserve wideout is day-to-day.	The reserve wideout is day-to-day.	142505083	1475795365021	1475795365141	i	73
279726	3000531	The reserve wideout is day-to-day.	The reserve wideout is day-to-day.	142505086	1475795365214	1475795365300	d	68
279726	3000531	The reserve wideout is day-to-day.	The reserve wideout is day-to-day.	142505087	1475795365413	1475795365504	e	69
279726	3000531	The reserve wideout is day-to-day.	The reserve wideout is day-to-day.	142505089	1475795365618	1475795365747	o	79
279726	3000531	The reserve wideout is day-to-day.	The reserve wideout is day-to-day.	142505108	1475795365761	1475795365843	u	85
279726	3000531	The reserve wideout is day-to-day.	The reserve wideout is day-to-day.	142505109	1475795365914	1475795366033	t	84
279726	3000531	The reserve wideout is day-to-day.	The reserve wideout is day-to-day.	142505111	1475795366149	1475795366266	 	32
279726	3000531	The reserve wideout is day-to-day.	The reserve wideout is day-to-day.	142505113	1475795366304	1475795366431	i	73
279726	3000531	The reserve wideout is day-to-day.	The reserve wideout is day-to-day.	142505147	1475795366405	1475795366502	s	83
279726	3000531	The reserve wideout is day-to-day.	The reserve wideout is day-to-day.	142505150	1475795366521	1475795366631	 	32
279726	3000531	The reserve wideout is day-to-day.	The reserve wideout is day-to-day.	142505153	1475795366720	1475795366797	d	68
279726	3000531	The reserve wideout is day-to-day.	The reserve wideout is day-to-day.	142505159	1475795366870	1475795367015	a	65
279726	3000531	The reserve wideout is day-to-day.	The reserve wideout is day-to-day.	142505162	1475795366986	1475795367075	y	89
279726	3000531	The reserve wideout is day-to-day.	The reserve wideout is day-to-day.	142505164	1475795367257	1475795367388	-	189
279726	3000531	The reserve wideout is day-to-day.	The reserve wideout is day-to-day.	142505209	1475795367569	1475795367703	t	84
279726	3000531	The reserve wideout is day-to-day.	The reserve wideout is day-to-day.	142505213	1475795367740	1475795367849	o	79
279726	3000531	The reserve wideout is day-to-day.	The reserve wideout is day-to-day.	142505217	1475795368046	1475795368189	-	189
279726	3000531	The reserve wideout is day-to-day.	The reserve wideout is day-to-day.	142505220	1475795368445	1475795368545	d	68
279726	3000531	The reserve wideout is day-to-day.	The reserve wideout is day-to-day.	142505225	1475795368595	1475795368745	a	65
279726	3000531	The reserve wideout is day-to-day.	The reserve wideout is day-to-day.	142505222	1475795368622	1475795368716	y	89
279726	3000531	The reserve wideout is day-to-day.	The reserve wideout is day-to-day.	142505229	1475795368941	1475795369056	.	190
279726	3000543	Best of luck and stay in touch.	Best of luck and stay in touch.	142505394	1475795372054	1475795372373	SHIFT	16
279726	3000543	Best of luck and stay in touch.	Best of luck and stay in touch.	142505398	1475795372298	1475795372405	B	66
279726	3000543	Best of luck and stay in touch.	Best of luck and stay in touch.	142505400	1475795372627	1475795372727	e	69
279726	3000543	Best of luck and stay in touch.	Best of luck and stay in touch.	142505403	1475795372848	1475795372947	s	83
279726	3000543	Best of luck and stay in touch.	Best of luck and stay in touch.	142505406	1475795373016	1475795373130	t	84
279726	3000543	Best of luck and stay in touch.	Best of luck and stay in touch.	142505410	1475795373133	1475795373253	 	32
279726	3000543	Best of luck and stay in touch.	Best of luck and stay in touch.	142505434	1475795373272	1475795373398	o	79
279726	3000543	Best of luck and stay in touch.	Best of luck and stay in touch.	142505435	1475795373369	1475795373485	f	70
279726	3000543	Best of luck and stay in touch.	Best of luck and stay in touch.	142505437	1475795373452	1475795373560	 	32
279726	3000543	Best of luck and stay in touch.	Best of luck and stay in touch.	142505439	1475795373709	1475795373804	l	76
279726	3000543	Best of luck and stay in touch.	Best of luck and stay in touch.	142505443	1475795373900	1475795374012	u	85
279726	3000543	Best of luck and stay in touch.	Best of luck and stay in touch.	142505482	1475795373989	1475795374103	c	67
279726	3000543	Best of luck and stay in touch.	Best of luck and stay in touch.	142505484	1475795374403	1475795374549	k	75
279726	3000543	Best of luck and stay in touch.	Best of luck and stay in touch.	142505486	1475795374608	1475795374695	 	32
279726	3000543	Best of luck and stay in touch.	Best of luck and stay in touch.	142505489	1475795374712	1475795374844	a	65
279726	3000543	Best of luck and stay in touch.	Best of luck and stay in touch.	142505493	1475795374862	1475795374949	n	78
279726	3000543	Best of luck and stay in touch.	Best of luck and stay in touch.	142505496	1475795374966	1475795375066	d	68
279726	3000543	Best of luck and stay in touch.	Best of luck and stay in touch.	142505513	1475795375041	1475795375156	 	32
279726	3000543	Best of luck and stay in touch.	Best of luck and stay in touch.	142505516	1475795375195	1475795375287	s	83
279726	3000543	Best of luck and stay in touch.	Best of luck and stay in touch.	142505520	1475795375390	1475795375486	t	84
279726	3000543	Best of luck and stay in touch.	Best of luck and stay in touch.	142505525	1475795375528	1475795375683	a	65
279726	3000543	Best of luck and stay in touch.	Best of luck and stay in touch.	142505529	1475795375668	1475795375753	y	89
279726	3000543	Best of luck and stay in touch.	Best of luck and stay in touch.	142505531	1475795375835	1475795375973	 	32
279726	3000543	Best of luck and stay in touch.	Best of luck and stay in touch.	142505535	1475795375990	1475795376098	i	73
279726	3000543	Best of luck and stay in touch.	Best of luck and stay in touch.	142505538	1475795376190	1475795376281	n	78
279726	3000543	Best of luck and stay in touch.	Best of luck and stay in touch.	142505541	1475795376242	1475795376351	 	32
279726	3000543	Best of luck and stay in touch.	Best of luck and stay in touch.	142505544	1475795376389	1475795376478	t	84
279726	3000543	Best of luck and stay in touch.	Best of luck and stay in touch.	142505597	1475795376450	1475795376573	o	79
279726	3000543	Best of luck and stay in touch.	Best of luck and stay in touch.	142505600	1475795376529	1475795376640	u	85
279726	3000543	Best of luck and stay in touch.	Best of luck and stay in touch.	142505601	1475795376722	1475795376843	c	67
279726	3000543	Best of luck and stay in touch.	Best of luck and stay in touch.	142505603	1475795376817	1475795376895	h	72
279726	3000543	Best of luck and stay in touch.	Best of luck and stay in touch.	142505604	1475795377045	1475795377146	.	190
279726	3000552	Try it again and let me know.	Try it again and let me know.	142505755	1475795380910	1475795381104	SHIFT	16
279726	3000552	Try it again and let me know.	Try it again and let me know.	142505757	1475795381064	1475795381164	T	84
279726	3000552	Try it again and let me know.	Try it again and let me know.	142505759	1475795381306	1475795381394	r	82
279726	3000552	Try it again and let me know.	Try it again and let me know.	142505761	1475795381410	1475795381501	y	89
279726	3000552	Try it again and let me know.	Try it again and let me know.	142505763	1475795381574	1475795381691	 	32
279726	3000552	Try it again and let me know.	Try it again and let me know.	142505764	1475795381773	1475795381886	i	73
279726	3000552	Try it again and let me know.	Try it again and let me know.	142505775	1475795381855	1475795381945	t	84
279726	3000552	Try it again and let me know.	Try it again and let me know.	142505777	1475795381951	1475795382027	 	32
279726	3000552	Try it again and let me know.	Try it again and let me know.	142505779	1475795382053	1475795382196	a	65
279726	3000552	Try it again and let me know.	Try it again and let me know.	142505781	1475795382304	1475795382406	g	71
279726	3000552	Try it again and let me know.	Try it again and let me know.	142505782	1475795382465	1475795382612	a	65
279726	3000552	Try it again and let me know.	Try it again and let me know.	142505797	1475795382568	1475795382680	i	73
279726	3000552	Try it again and let me know.	Try it again and let me know.	142505799	1475795382800	1475795382920	n	78
279726	3000552	Try it again and let me know.	Try it again and let me know.	142505801	1475795382895	1475795383018	 	32
279726	3000552	Try it again and let me know.	Try it again and let me know.	142505803	1475795382974	1475795383066	a	65
279726	3000552	Try it again and let me know.	Try it again and let me know.	142505804	1475795383083	1475795383203	n	78
279726	3000552	Try it again and let me know.	Try it again and let me know.	142505806	1475795383211	1475795383303	d	68
279726	3000552	Try it again and let me know.	Try it again and let me know.	142505857	1475795383280	1475795383361	 	32
279726	3000552	Try it again and let me know.	Try it again and let me know.	142505860	1475795383506	1475795383590	e	69
279726	3000552	Try it again and let me know.	Try it again and let me know.	142505863	1475795383746	1475795383879	t	84
279726	3000552	Try it again and let me know.	Try it again and let me know.	142505866	1475795384084	1475795384172	BKSP	8
279726	3000552	Try it again and let me know.	Try it again and let me know.	142505868	1475795384263	1475795384331	BKSP	8
279726	3000552	Try it again and let me know.	Try it again and let me know.	142505869	1475795384525	1475795384638	l	76
279726	3000552	Try it again and let me know.	Try it again and let me know.	142505870	1475795384628	1475795384723	e	69
279726	3000552	Try it again and let me know.	Try it again and let me know.	142505871	1475795384802	1475795384901	t	84
279726	3000552	Try it again and let me know.	Try it again and let me know.	142505877	1475795384851	1475795384942	 	32
279726	3000552	Try it again and let me know.	Try it again and let me know.	142505878	1475795385031	1475795385157	m	77
279726	3000552	Try it again and let me know.	Try it again and let me know.	142505879	1475795385111	1475795385192	e	69
279726	3000552	Try it again and let me know.	Try it again and let me know.	142505881	1475795385180	1475795385290	 	32
279726	3000552	Try it again and let me know.	Try it again and let me know.	142505884	1475795385279	1475795385404	k	75
279726	3000552	Try it again and let me know.	Try it again and let me know.	142505887	1475795385500	1475795385582	n	78
279726	3000552	Try it again and let me know.	Try it again and let me know.	142505908	1475795385633	1475795385747	o	79
279726	3000552	Try it again and let me know.	Try it again and let me know.	142505911	1475795385725	1475795385812	w	87
279726	3000552	Try it again and let me know.	Try it again and let me know.	142505912	1475795385912	1475795386022	.	190
279726	3000559	Can you get with Mary and make sure?	Can you get with Mary and make sure?	142506009	1475795389163	1475795389587	SHIFT	16
279726	3000559	Can you get with Mary and make sure?	Can you get with Mary and make sure?	142506011	1475795389464	1475795389621	C	67
279726	3000559	Can you get with Mary and make sure?	Can you get with Mary and make sure?	142506013	1475795389716	1475795389843	a	65
279726	3000559	Can you get with Mary and make sure?	Can you get with Mary and make sure?	142506015	1475795389860	1475795390010	n	78
279726	3000559	Can you get with Mary and make sure?	Can you get with Mary and make sure?	142506017	1475795390088	1475795390212	 	32
279726	3000559	Can you get with Mary and make sure?	Can you get with Mary and make sure?	142506018	1475795390290	1475795390378	y	89
279726	3000559	Can you get with Mary and make sure?	Can you get with Mary and make sure?	142506026	1475795390526	1475795390612	u	79
279726	3000559	Can you get with Mary and make sure?	Can you get with Mary and make sure?	142506028	1475795390699	1475795390798	 	32
279726	3000559	Can you get with Mary and make sure?	Can you get with Mary and make sure?	142506030	1475795390804	1475795390898	g	71
279726	3000559	Can you get with Mary and make sure?	Can you get with Mary and make sure?	142506033	1475795391037	1475795391101	e	69
279726	3000559	Can you get with Mary and make sure?	Can you get with Mary and make sure?	142506061	1475795391202	1475795391298	t	84
279726	3000559	Can you get with Mary and make sure?	Can you get with Mary and make sure?	142506063	1475795391316	1475795391433	 	32
279726	3000559	Can you get with Mary and make sure?	Can you get with Mary and make sure?	142506066	1475795391621	1475795391723	w	87
279726	3000559	Can you get with Mary and make sure?	Can you get with Mary and make sure?	142506069	1475795391668	1475795391767	i	73
279726	3000559	Can you get with Mary and make sure?	Can you get with Mary and make sure?	142506071	1475795391849	1475795391962	t	84
279726	3000559	Can you get with Mary and make sure?	Can you get with Mary and make sure?	142506096	1475795391918	1475795392039	h	72
279726	3000559	Can you get with Mary and make sure?	Can you get with Mary and make sure?	142506099	1475795392091	1475795392214	 	32
279726	3000559	Can you get with Mary and make sure?	Can you get with Mary and make sure?	142506102	1475795392247	1475795392393	SHIFT	16
279726	3000559	Can you get with Mary and make sure?	Can you get with Mary and make sure?	142506104	1475795392341	1475795392457	M	77
279726	3000559	Can you get with Mary and make sure?	Can you get with Mary and make sure?	142506107	1475795392495	1475795392626	a	65
279726	3000559	Can you get with Mary and make sure?	Can you get with Mary and make sure?	142506110	1475795392609	1475795392728	r	82
279726	3000559	Can you get with Mary and make sure?	Can you get with Mary and make sure?	142506111	1475795392769	1475795392851	y	89
279726	3000559	Can you get with Mary and make sure?	Can you get with Mary and make sure?	142506112	1475795392918	1475795393031	 	32
279726	3000559	Can you get with Mary and make sure?	Can you get with Mary and make sure?	142506113	1475795393016	1475795393155	a	65
279726	3000559	Can you get with Mary and make sure?	Can you get with Mary and make sure?	142506114	1475795393136	1475795393257	n	78
279726	3000559	Can you get with Mary and make sure?	Can you get with Mary and make sure?	142506116	1475795393248	1475795393339	d	68
279726	3000559	Can you get with Mary and make sure?	Can you get with Mary and make sure?	142506148	1475795393323	1475795393416	 	32
279726	3000559	Can you get with Mary and make sure?	Can you get with Mary and make sure?	142506151	1475795393497	1475795393612	m	77
279726	3000559	Can you get with Mary and make sure?	Can you get with Mary and make sure?	142506153	1475795393587	1475795393718	a	65
279726	3000559	Can you get with Mary and make sure?	Can you get with Mary and make sure?	142506157	1475795393772	1475795393908	k	75
279726	3000559	Can you get with Mary and make sure?	Can you get with Mary and make sure?	142506160	1475795393926	1475795394028	e	69
279726	3000559	Can you get with Mary and make sure?	Can you get with Mary and make sure?	142506162	1475795394087	1475795394196	 	32
279726	3000559	Can you get with Mary and make sure?	Can you get with Mary and make sure?	142506182	1475795394282	1475795394409	s	83
279726	3000559	Can you get with Mary and make sure?	Can you get with Mary and make sure?	142506183	1475795394397	1475795394499	u	85
279726	3000559	Can you get with Mary and make sure?	Can you get with Mary and make sure?	142506184	1475795394518	1475795394641	r	82
279726	3000559	Can you get with Mary and make sure?	Can you get with Mary and make sure?	142506185	1475795394593	1475795394695	e	69
279726	3000559	Can you get with Mary and make sure?	Can you get with Mary and make sure?	142506186	1475795394927	1475795395047	?	191
279726	3000565	The cause of the fire was under investigation, police said.	The cause of the fire was under investigation, police said.	142506277	1475795398275	1475795398440	T	84
279726	3000565	The cause of the fire was under investigation, police said.	The cause of the fire was under investigation, police said.	142506279	1475795398424	1475795398509	h	72
279726	3000565	The cause of the fire was under investigation, police said.	The cause of the fire was under investigation, police said.	142506281	1475795398562	1475795398669	e	69
279726	3000565	The cause of the fire was under investigation, police said.	The cause of the fire was under investigation, police said.	142506282	1475795398688	1475795398794	 	32
279726	3000565	The cause of the fire was under investigation, police said.	The cause of the fire was under investigation, police said.	142506283	1475795398980	1475795399049	c	67
279726	3000565	The cause of the fire was under investigation, police said.	The cause of the fire was under investigation, police said.	142506307	1475795399313	1475795399438	a	65
279726	3000565	The cause of the fire was under investigation, police said.	The cause of the fire was under investigation, police said.	142506309	1475795399784	1475795399904	u	85
279726	3000565	The cause of the fire was under investigation, police said.	The cause of the fire was under investigation, police said.	142506310	1475795399993	1475795400083	s	83
279726	3000565	The cause of the fire was under investigation, police said.	The cause of the fire was under investigation, police said.	142506312	1475795400256	1475795400342	e	69
279726	3000565	The cause of the fire was under investigation, police said.	The cause of the fire was under investigation, police said.	142506313	1475795400422	1475795400557	 	32
279726	3000565	The cause of the fire was under investigation, police said.	The cause of the fire was under investigation, police said.	142506329	1475795400538	1475795400690	o	79
279726	3000565	The cause of the fire was under investigation, police said.	The cause of the fire was under investigation, police said.	142506331	1475795400616	1475795400719	f	70
279726	3000565	The cause of the fire was under investigation, police said.	The cause of the fire was under investigation, police said.	142506333	1475795400737	1475795400840	 	32
279726	3000565	The cause of the fire was under investigation, police said.	The cause of the fire was under investigation, police said.	142506335	1475795400829	1475795400926	t	84
279726	3000565	The cause of the fire was under investigation, police said.	The cause of the fire was under investigation, police said.	142506336	1475795400938	1475795401027	h	72
279726	3000565	The cause of the fire was under investigation, police said.	The cause of the fire was under investigation, police said.	142506337	1475795401035	1475795401087	e	69
279726	3000565	The cause of the fire was under investigation, police said.	The cause of the fire was under investigation, police said.	142506342	1475795401093	1475795401205	 	32
279726	3000565	The cause of the fire was under investigation, police said.	The cause of the fire was under investigation, police said.	142506343	1475795401321	1475795401445	f	70
279726	3000565	The cause of the fire was under investigation, police said.	The cause of the fire was under investigation, police said.	142506345	1475795401420	1475795401537	i	73
279726	3000565	The cause of the fire was under investigation, police said.	The cause of the fire was under investigation, police said.	142506385	1475795401640	1475795401881	e	69
279726	3000565	The cause of the fire was under investigation, police said.	The cause of the fire was under investigation, police said.	142506347	1475795401682	1475795401795	r	82
279726	3000565	The cause of the fire was under investigation, police said.	The cause of the fire was under investigation, police said.	142506386	1475795402177	1475795402267	BKSP	8
279726	3000565	The cause of the fire was under investigation, police said.	The cause of the fire was under investigation, police said.	142506387	1475795402345	1475795402465	BKSP	8
279726	3000565	The cause of the fire was under investigation, police said.	The cause of the fire was under investigation, police said.	142506388	1475795402442	1475795402597	r	82
279726	3000565	The cause of the fire was under investigation, police said.	The cause of the fire was under investigation, police said.	142506389	1475795402511	1475795402649	e	69
279726	3000565	The cause of the fire was under investigation, police said.	The cause of the fire was under investigation, police said.	142506390	1475795402715	1475795402815	 	32
279726	3000565	The cause of the fire was under investigation, police said.	The cause of the fire was under investigation, police said.	142506391	1475795402859	1475795402953	w	87
279726	3000565	The cause of the fire was under investigation, police said.	The cause of the fire was under investigation, police said.	142506392	1475795403038	1475795403159	a	65
279726	3000565	The cause of the fire was under investigation, police said.	The cause of the fire was under investigation, police said.	142506429	1475795403135	1475795403277	s	83
279726	3000565	The cause of the fire was under investigation, police said.	The cause of the fire was under investigation, police said.	142506432	1475795403313	1475795403416	 	32
279726	3000565	The cause of the fire was under investigation, police said.	The cause of the fire was under investigation, police said.	142506434	1475795403545	1475795403593	u	85
279726	3000565	The cause of the fire was under investigation, police said.	The cause of the fire was under investigation, police said.	142506435	1475795403758	1475795403845	n	78
279726	3000565	The cause of the fire was under investigation, police said.	The cause of the fire was under investigation, police said.	142506436	1475795403868	1475795403932	d	68
279726	3000565	The cause of the fire was under investigation, police said.	The cause of the fire was under investigation, police said.	142506437	1475795404064	1475795404218	e	69
279726	3000565	The cause of the fire was under investigation, police said.	The cause of the fire was under investigation, police said.	142506471	1475795404159	1475795404268	r	82
279726	3000565	The cause of the fire was under investigation, police said.	The cause of the fire was under investigation, police said.	142506474	1475795404285	1475795404403	 	32
279726	3000565	The cause of the fire was under investigation, police said.	The cause of the fire was under investigation, police said.	142506477	1475795404540	1475795404604	i	73
279726	3000565	The cause of the fire was under investigation, police said.	The cause of the fire was under investigation, police said.	142506480	1475795405034	1475795405142	n	78
279726	3000565	The cause of the fire was under investigation, police said.	The cause of the fire was under investigation, police said.	142506484	1475795405329	1475795405403	v	86
279726	3000565	The cause of the fire was under investigation, police said.	The cause of the fire was under investigation, police said.	142506488	1475795405498	1475795405575	e	69
279726	3000565	The cause of the fire was under investigation, police said.	The cause of the fire was under investigation, police said.	142506508	1475795405683	1475795405752	s	83
279726	3000565	The cause of the fire was under investigation, police said.	The cause of the fire was under investigation, police said.	142506510	1475795405813	1475795405914	t	84
279726	3000565	The cause of the fire was under investigation, police said.	The cause of the fire was under investigation, police said.	142506514	1475795405917	1475795406029	i	73
279726	3000565	The cause of the fire was under investigation, police said.	The cause of the fire was under investigation, police said.	142506518	1475795406182	1475795406278	g	71
279726	3000565	The cause of the fire was under investigation, police said.	The cause of the fire was under investigation, police said.	142506522	1475795406349	1475795406486	a	65
279726	3000565	The cause of the fire was under investigation, police said.	The cause of the fire was under investigation, police said.	142506538	1475795406498	1475795406606	t	84
279726	3000565	The cause of the fire was under investigation, police said.	The cause of the fire was under investigation, police said.	142506540	1475795406547	1475795406712	i	73
279726	3000565	The cause of the fire was under investigation, police said.	The cause of the fire was under investigation, police said.	142506542	1475795406676	1475795406797	o	79
279726	3000565	The cause of the fire was under investigation, police said.	The cause of the fire was under investigation, police said.	142506544	1475795406906	1475795407056	n	78
279726	3000565	The cause of the fire was under investigation, police said.	The cause of the fire was under investigation, police said.	142506548	1475795407197	1475795407324	,	188
279726	3000565	The cause of the fire was under investigation, police said.	The cause of the fire was under investigation, police said.	142506573	1475795407309	1475795407412	 	32
279726	3000565	The cause of the fire was under investigation, police said.	The cause of the fire was under investigation, police said.	142506576	1475795407600	1475795407704	p	80
279726	3000565	The cause of the fire was under investigation, police said.	The cause of the fire was under investigation, police said.	142506580	1475795407819	1475795407930	o	79
279726	3000565	The cause of the fire was under investigation, police said.	The cause of the fire was under investigation, police said.	142506582	1475795408099	1475795408198	l	76
279726	3000565	The cause of the fire was under investigation, police said.	The cause of the fire was under investigation, police said.	142506585	1475795408317	1475795408434	i	73
279726	3000565	The cause of the fire was under investigation, police said.	The cause of the fire was under investigation, police said.	142506588	1475795408451	1475795408551	c	67
279726	3000565	The cause of the fire was under investigation, police said.	The cause of the fire was under investigation, police said.	142506602	1475795408694	1475795408786	e	69
279726	3000565	The cause of the fire was under investigation, police said.	The cause of the fire was under investigation, police said.	142506604	1475795408809	1475795408922	 	32
279726	3000565	The cause of the fire was under investigation, police said.	The cause of the fire was under investigation, police said.	142506609	1475795408969	1475795409061	s	83
279726	3000565	The cause of the fire was under investigation, police said.	The cause of the fire was under investigation, police said.	142506612	1475795409133	1475795409257	a	65
279726	3000565	The cause of the fire was under investigation, police said.	The cause of the fire was under investigation, police said.	142506634	1475795409211	1475795409323	i	73
279726	3000565	The cause of the fire was under investigation, police said.	The cause of the fire was under investigation, police said.	142506635	1475795409368	1475795409472	d	68
279726	3000565	The cause of the fire was under investigation, police said.	The cause of the fire was under investigation, police said.	142506636	1475795409524	1475795409641	.	190
279726	3000575	It would be great if I could have the files by the 18th or 19th.	It would be great if I could have the files by the 18th or 19th.	142506862	1475795415489	1475795415757	SHIFT	16
279726	3000575	It would be great if I could have the files by the 18th or 19th.	It would be great if I could have the files by the 18th or 19th.	142506865	1475795415648	1475795415781	I	73
279726	3000575	It would be great if I could have the files by the 18th or 19th.	It would be great if I could have the files by the 18th or 19th.	142506867	1475795415851	1475795415933	t	84
279726	3000575	It would be great if I could have the files by the 18th or 19th.	It would be great if I could have the files by the 18th or 19th.	142506868	1475795415966	1475795416099	 	32
279726	3000575	It would be great if I could have the files by the 18th or 19th.	It would be great if I could have the files by the 18th or 19th.	142506869	1475795416135	1475795416271	w	87
279726	3000575	It would be great if I could have the files by the 18th or 19th.	It would be great if I could have the files by the 18th or 19th.	142506880	1475795416200	1475795416352	o	79
279726	3000575	It would be great if I could have the files by the 18th or 19th.	It would be great if I could have the files by the 18th or 19th.	142506883	1475795416325	1475795416419	u	85
279726	3000575	It would be great if I could have the files by the 18th or 19th.	It would be great if I could have the files by the 18th or 19th.	142506885	1475795416520	1475795416675	l	76
279726	3000575	It would be great if I could have the files by the 18th or 19th.	It would be great if I could have the files by the 18th or 19th.	142506888	1475795416597	1475795416690	d	68
279726	3000575	It would be great if I could have the files by the 18th or 19th.	It would be great if I could have the files by the 18th or 19th.	142506890	1475795416646	1475795416793	 	32
279726	3000575	It would be great if I could have the files by the 18th or 19th.	It would be great if I could have the files by the 18th or 19th.	142506893	1475795416829	1475795416940	b	66
279726	3000575	It would be great if I could have the files by the 18th or 19th.	It would be great if I could have the files by the 18th or 19th.	142506909	1475795417060	1475795417178	 	69
279726	3000575	It would be great if I could have the files by the 18th or 19th.	It would be great if I could have the files by the 18th or 19th.	142506911	1475795417335	1475795417433	g	71
279726	3000575	It would be great if I could have the files by the 18th or 19th.	It would be great if I could have the files by the 18th or 19th.	142506915	1475795417560	1475795417676	r	82
279726	3000575	It would be great if I could have the files by the 18th or 19th.	It would be great if I could have the files by the 18th or 19th.	142506931	1475795417634	1475795417759	e	69
279726	3000575	It would be great if I could have the files by the 18th or 19th.	It would be great if I could have the files by the 18th or 19th.	142506935	1475795417801	1475795417920	a	65
279726	3000575	It would be great if I could have the files by the 18th or 19th.	It would be great if I could have the files by the 18th or 19th.	142506938	1475795417893	1475795418021	t	84
279726	3000575	It would be great if I could have the files by the 18th or 19th.	It would be great if I could have the files by the 18th or 19th.	142506943	1475795417998	1475795418107	 	32
279726	3000575	It would be great if I could have the files by the 18th or 19th.	It would be great if I could have the files by the 18th or 19th.	142506946	1475795418148	1475795418265	i	73
279726	3000575	It would be great if I could have the files by the 18th or 19th.	It would be great if I could have the files by the 18th or 19th.	142506949	1475795418289	1475795418435	f	70
279726	3000575	It would be great if I could have the files by the 18th or 19th.	It would be great if I could have the files by the 18th or 19th.	142506964	1475795418424	1475795418535	 	32
279726	3000575	It would be great if I could have the files by the 18th or 19th.	It would be great if I could have the files by the 18th or 19th.	142506969	1475795418749	1475795418990	SHIFT	16
279726	3000575	It would be great if I could have the files by the 18th or 19th.	It would be great if I could have the files by the 18th or 19th.	142506975	1475795418855	1475795419009	I	73
279726	3000575	It would be great if I could have the files by the 18th or 19th.	It would be great if I could have the files by the 18th or 19th.	142506979	1475795418981	1475795419078	 	32
279726	3000575	It would be great if I could have the files by the 18th or 19th.	It would be great if I could have the files by the 18th or 19th.	142506983	1475795419243	1475795419376	c	67
279726	3000575	It would be great if I could have the files by the 18th or 19th.	It would be great if I could have the files by the 18th or 19th.	142506985	1475795419336	1475795419495	o	79
279726	3000575	It would be great if I could have the files by the 18th or 19th.	It would be great if I could have the files by the 18th or 19th.	142507007	1475795419482	1475795419605	u	85
279726	3000575	It would be great if I could have the files by the 18th or 19th.	It would be great if I could have the files by the 18th or 19th.	142507009	1475795419702	1475795419855	l	76
279726	3000575	It would be great if I could have the files by the 18th or 19th.	It would be great if I could have the files by the 18th or 19th.	142507013	1475795419828	1475795419939	d	68
279726	3000575	It would be great if I could have the files by the 18th or 19th.	It would be great if I could have the files by the 18th or 19th.	142507015	1475795419874	1475795419983	 	32
279726	3000575	It would be great if I could have the files by the 18th or 19th.	It would be great if I could have the files by the 18th or 19th.	142507017	1475795420062	1475795420167	h	72
279726	3000575	It would be great if I could have the files by the 18th or 19th.	It would be great if I could have the files by the 18th or 19th.	142507028	1475795420125	1475795420253	a	65
279726	3000575	It would be great if I could have the files by the 18th or 19th.	It would be great if I could have the files by the 18th or 19th.	142507030	1475795420347	1475795420430	v	86
279726	3000575	It would be great if I could have the files by the 18th or 19th.	It would be great if I could have the files by the 18th or 19th.	142507032	1475795420521	1475795420643	e	69
279726	3000575	It would be great if I could have the files by the 18th or 19th.	It would be great if I could have the files by the 18th or 19th.	142507033	1475795420549	1475795420716	 	32
279726	3000575	It would be great if I could have the files by the 18th or 19th.	It would be great if I could have the files by the 18th or 19th.	142507034	1475795420810	1475795420925	t	84
279726	3000575	It would be great if I could have the files by the 18th or 19th.	It would be great if I could have the files by the 18th or 19th.	142507057	1475795420900	1475795420997	h	72
279726	3000575	It would be great if I could have the files by the 18th or 19th.	It would be great if I could have the files by the 18th or 19th.	142507060	1475795421011	1475795421127	e	69
279726	3000575	It would be great if I could have the files by the 18th or 19th.	It would be great if I could have the files by the 18th or 19th.	142507063	1475795421081	1475795421189	 	32
279726	3000575	It would be great if I could have the files by the 18th or 19th.	It would be great if I could have the files by the 18th or 19th.	142507065	1475795421384	1475795421528	f	70
279726	3000575	It would be great if I could have the files by the 18th or 19th.	It would be great if I could have the files by the 18th or 19th.	142507067	1475795421564	1475795421676	i	73
279726	3000575	It would be great if I could have the files by the 18th or 19th.	It would be great if I could have the files by the 18th or 19th.	142507069	1475795421804	1475795421950	l	76
279726	3000575	It would be great if I could have the files by the 18th or 19th.	It would be great if I could have the files by the 18th or 19th.	142507086	1475795421924	1475795422009	e	69
279726	3000575	It would be great if I could have the files by the 18th or 19th.	It would be great if I could have the files by the 18th or 19th.	142507087	1475795422129	1475795422231	s	83
279726	3000575	It would be great if I could have the files by the 18th or 19th.	It would be great if I could have the files by the 18th or 19th.	142507088	1475795422273	1475795422371	 	32
279726	3000575	It would be great if I could have the files by the 18th or 19th.	It would be great if I could have the files by the 18th or 19th.	142507090	1475795422483	1475795422614	b	66
279726	3000575	It would be great if I could have the files by the 18th or 19th.	It would be great if I could have the files by the 18th or 19th.	142507092	1475795422594	1475795422674	y	89
279726	3000575	It would be great if I could have the files by the 18th or 19th.	It would be great if I could have the files by the 18th or 19th.	142507094	1475795422703	1475795422845	 	32
279726	3000575	It would be great if I could have the files by the 18th or 19th.	It would be great if I could have the files by the 18th or 19th.	142507105	1475795422821	1475795422935	t	84
279726	3000575	It would be great if I could have the files by the 18th or 19th.	It would be great if I could have the files by the 18th or 19th.	142507107	1475795422922	1475795423037	h	72
279726	3000575	It would be great if I could have the files by the 18th or 19th.	It would be great if I could have the files by the 18th or 19th.	142507109	1475795423014	1475795423146	e	69
279726	3000575	It would be great if I could have the files by the 18th or 19th.	It would be great if I could have the files by the 18th or 19th.	142507111	1475795423096	1475795423187	 	32
279726	3000575	It would be great if I could have the files by the 18th or 19th.	It would be great if I could have the files by the 18th or 19th.	142507114	1475795423331	1475795423446	1	49
279726	3000575	It would be great if I could have the files by the 18th or 19th.	It would be great if I could have the files by the 18th or 19th.	142507116	1475795423495	1475795423561	9	57
279726	3000575	It would be great if I could have the files by the 18th or 19th.	It would be great if I could have the files by the 18th or 19th.	142507175	1475795423585	1475795423679	9	57
279726	3000575	It would be great if I could have the files by the 18th or 19th.	It would be great if I could have the files by the 18th or 19th.	142507178	1475795423798	1475795423920	t	84
279726	3000575	It would be great if I could have the files by the 18th or 19th.	It would be great if I could have the files by the 18th or 19th.	142507180	1475795424115	1475795424207	BKSP	8
279726	3000575	It would be great if I could have the files by the 18th or 19th.	It would be great if I could have the files by the 18th or 19th.	142507183	1475795424307	1475795424380	BKSP	8
279726	3000575	It would be great if I could have the files by the 18th or 19th.	It would be great if I could have the files by the 18th or 19th.	142507187	1475795424479	1475795424577	BKSP	8
279726	3000575	It would be great if I could have the files by the 18th or 19th.	It would be great if I could have the files by the 18th or 19th.	142507193	1475795424752	1475795424846	9	56
279726	3000575	It would be great if I could have the files by the 18th or 19th.	It would be great if I could have the files by the 18th or 19th.	142507198	1475795425060	1475795425151	t	84
279726	3000575	It would be great if I could have the files by the 18th or 19th.	It would be great if I could have the files by the 18th or 19th.	142507218	1475795425283	1475795425375	BKSP	8
279726	3000575	It would be great if I could have the files by the 18th or 19th.	It would be great if I could have the files by the 18th or 19th.	142507220	1475795425473	1475795425545	BKSP	8
279726	3000575	It would be great if I could have the files by the 18th or 19th.	It would be great if I could have the files by the 18th or 19th.	142507222	1475795425614	1475795425751	t	84
279726	3000575	It would be great if I could have the files by the 18th or 19th.	It would be great if I could have the files by the 18th or 19th.	142507224	1475795425699	1475795425780	h	72
279726	3000575	It would be great if I could have the files by the 18th or 19th.	It would be great if I could have the files by the 18th or 19th.	142507227	1475795425918	1475795426030	 	32
279726	3000575	It would be great if I could have the files by the 18th or 19th.	It would be great if I could have the files by the 18th or 19th.	142507234	1475795426075	1475795426192	o	79
279726	3000575	It would be great if I could have the files by the 18th or 19th.	It would be great if I could have the files by the 18th or 19th.	142507263	1475795426165	1475795426289	r	82
279726	3000575	It would be great if I could have the files by the 18th or 19th.	It would be great if I could have the files by the 18th or 19th.	142507265	1475795426270	1475795426374	 	32
279726	3000575	It would be great if I could have the files by the 18th or 19th.	It would be great if I could have the files by the 18th or 19th.	142507267	1475795426582	1475795426701	1	49
279726	3000575	It would be great if I could have the files by the 18th or 19th.	It would be great if I could have the files by the 18th or 19th.	142507269	1475795426670	1475795426809	9	57
279726	3000575	It would be great if I could have the files by the 18th or 19th.	It would be great if I could have the files by the 18th or 19th.	142507271	1475795427072	1475795427210	t	84
279726	3000575	It would be great if I could have the files by the 18th or 19th.	It would be great if I could have the files by the 18th or 19th.	142507277	1475795427194	1475795427298	h	72
279726	3000575	It would be great if I could have the files by the 18th or 19th.	It would be great if I could have the files by the 18th or 19th.	142507280	1475795427543	1475795427653	.	190
279726	3000591	Kay Mann is going to take the lead on this.	Kay Mann is going to take the lead on this.	142507406	1475795430952	1475795431153	SHIFT	16
279726	3000591	Kay Mann is going to take the lead on this.	Kay Mann is going to take the lead on this.	142507408	1475795431082	1475795431203	K	75
279726	3000591	Kay Mann is going to take the lead on this.	Kay Mann is going to take the lead on this.	142507411	1475795431266	1475795431416	a	65
279726	3000591	Kay Mann is going to take the lead on this.	Kay Mann is going to take the lead on this.	142507412	1475795431387	1475795431493	y	89
279726	3000591	Kay Mann is going to take the lead on this.	Kay Mann is going to take the lead on this.	142507414	1475795431537	1475795431650	 	32
279726	3000591	Kay Mann is going to take the lead on this.	Kay Mann is going to take the lead on this.	142507416	1475795431693	1475795431840	SHIFT	16
279726	3000591	Kay Mann is going to take the lead on this.	Kay Mann is going to take the lead on this.	142507452	1475795431775	1475795431889	M	77
279726	3000591	Kay Mann is going to take the lead on this.	Kay Mann is going to take the lead on this.	142507453	1475795431950	1475795432092	a	65
279726	3000591	Kay Mann is going to take the lead on this.	Kay Mann is going to take the lead on this.	142507454	1475795432071	1475795432171	n	78
279726	3000591	Kay Mann is going to take the lead on this.	Kay Mann is going to take the lead on this.	142507455	1475795432257	1475795432388	n	78
279726	3000591	Kay Mann is going to take the lead on this.	Kay Mann is going to take the lead on this.	142507456	1475795432403	1475795432507	 	32
279726	3000591	Kay Mann is going to take the lead on this.	Kay Mann is going to take the lead on this.	142507457	1475795432525	1475795432656	i	73
279726	3000591	Kay Mann is going to take the lead on this.	Kay Mann is going to take the lead on this.	142507475	1475795432591	1475795432704	s	83
279726	3000591	Kay Mann is going to take the lead on this.	Kay Mann is going to take the lead on this.	142507476	1475795432675	1475795432776	 	32
279726	3000591	Kay Mann is going to take the lead on this.	Kay Mann is going to take the lead on this.	142507477	1475795432811	1475795432939	g	71
279726	3000591	Kay Mann is going to take the lead on this.	Kay Mann is going to take the lead on this.	142507479	1475795432908	1475795433037	o	79
279726	3000591	Kay Mann is going to take the lead on this.	Kay Mann is going to take the lead on this.	142507483	1475795432958	1475795433095	i	73
279726	3000591	Kay Mann is going to take the lead on this.	Kay Mann is going to take the lead on this.	142507488	1475795433215	1475795433346	n	78
279726	3000591	Kay Mann is going to take the lead on this.	Kay Mann is going to take the lead on this.	142507569	1475795433328	1475795433439	g	32
279726	3000591	Kay Mann is going to take the lead on this.	Kay Mann is going to take the lead on this.	142507572	1475795433535	1475795433641	t	84
279726	3000591	Kay Mann is going to take the lead on this.	Kay Mann is going to take the lead on this.	142507574	1475795433578	1475795433724	o	79
279726	3000591	Kay Mann is going to take the lead on this.	Kay Mann is going to take the lead on this.	142507576	1475795433675	1475795433808	 	32
279726	3000591	Kay Mann is going to take the lead on this.	Kay Mann is going to take the lead on this.	142507578	1475795434320	1475795434389	BKSP	8
279726	3000591	Kay Mann is going to take the lead on this.	Kay Mann is going to take the lead on this.	142507579	1475795434504	1475795434585	BKSP	8
279726	3000591	Kay Mann is going to take the lead on this.	Kay Mann is going to take the lead on this.	142507582	1475795434693	1475795434766	BKSP	8
279726	3000591	Kay Mann is going to take the lead on this.	Kay Mann is going to take the lead on this.	142507585	1475795434865	1475795434937	BKSP	8
279726	3000591	Kay Mann is going to take the lead on this.	Kay Mann is going to take the lead on this.	142507591	1475795435038	1475795435137	BKSP	8
279726	3000591	Kay Mann is going to take the lead on this.	Kay Mann is going to take the lead on this.	142507594	1475795435429	1475795435556	g	71
279726	3000591	Kay Mann is going to take the lead on this.	Kay Mann is going to take the lead on this.	142507598	1475795435596	1475795435694	 	32
279726	3000591	Kay Mann is going to take the lead on this.	Kay Mann is going to take the lead on this.	142507604	1475795435727	1475795435850	t	84
279726	3000591	Kay Mann is going to take the lead on this.	Kay Mann is going to take the lead on this.	142507605	1475795435795	1475795435920	o	79
279726	3000591	Kay Mann is going to take the lead on this.	Kay Mann is going to take the lead on this.	142507607	1475795435937	1475795436046	 	32
279726	3000591	Kay Mann is going to take the lead on this.	Kay Mann is going to take the lead on this.	142507609	1475795436181	1475795436290	t	84
279726	3000591	Kay Mann is going to take the lead on this.	Kay Mann is going to take the lead on this.	142507612	1475795436340	1475795436486	a	65
279726	3000591	Kay Mann is going to take the lead on this.	Kay Mann is going to take the lead on this.	142507626	1475795436455	1475795436586	k	75
279726	3000591	Kay Mann is going to take the lead on this.	Kay Mann is going to take the lead on this.	142507629	1475795436604	1475795436699	e	69
279726	3000591	Kay Mann is going to take the lead on this.	Kay Mann is going to take the lead on this.	142507632	1475795436646	1475795436724	 	32
279726	3000591	Kay Mann is going to take the lead on this.	Kay Mann is going to take the lead on this.	142507635	1475795436800	1475795436891	t	84
279726	3000591	Kay Mann is going to take the lead on this.	Kay Mann is going to take the lead on this.	142507639	1475795436830	1475795436921	h	72
279726	3000591	Kay Mann is going to take the lead on this.	Kay Mann is going to take the lead on this.	142507707	1475795436949	1475795437071	e	32
279726	3000591	Kay Mann is going to take the lead on this.	Kay Mann is going to take the lead on this.	142507709	1475795437156	1475795437294	l	76
279726	3000591	Kay Mann is going to take the lead on this.	Kay Mann is going to take the lead on this.	142507711	1475795437308	1475795437399	e	69
279726	3000591	Kay Mann is going to take the lead on this.	Kay Mann is going to take the lead on this.	142507713	1475795437472	1475795437595	a	65
279726	3000591	Kay Mann is going to take the lead on this.	Kay Mann is going to take the lead on this.	142507714	1475795437811	1475795437935	d	68
279726	3000591	Kay Mann is going to take the lead on this.	Kay Mann is going to take the lead on this.	142507715	1475795438223	1475795438302	BKSP	8
279726	3000591	Kay Mann is going to take the lead on this.	Kay Mann is going to take the lead on this.	142507716	1475795438419	1475795438496	BKSP	8
279726	3000591	Kay Mann is going to take the lead on this.	Kay Mann is going to take the lead on this.	142507717	1475795438612	1475795438680	BKSP	8
279726	3000591	Kay Mann is going to take the lead on this.	Kay Mann is going to take the lead on this.	142507718	1475795438796	1475795438859	BKSP	8
279726	3000591	Kay Mann is going to take the lead on this.	Kay Mann is going to take the lead on this.	142507719	1475795438958	1475795439039	BKSP	8
279726	3000591	Kay Mann is going to take the lead on this.	Kay Mann is going to take the lead on this.	142507721	1475795439139	1475795439249	BKSP	8
279726	3000591	Kay Mann is going to take the lead on this.	Kay Mann is going to take the lead on this.	142507723	1475795439306	1475795439419	e	69
279726	3000591	Kay Mann is going to take the lead on this.	Kay Mann is going to take the lead on this.	142507740	1475795439454	1475795439556	 	32
279726	3000591	Kay Mann is going to take the lead on this.	Kay Mann is going to take the lead on this.	142507742	1475795439654	1475795439796	l	76
279726	3000591	Kay Mann is going to take the lead on this.	Kay Mann is going to take the lead on this.	142507744	1475795439762	1475795439862	e	69
279726	3000591	Kay Mann is going to take the lead on this.	Kay Mann is going to take the lead on this.	142507746	1475795439923	1475795440058	a	65
279726	3000591	Kay Mann is going to take the lead on this.	Kay Mann is going to take the lead on this.	142507749	1475795440142	1475795440268	d	68
279726	3000591	Kay Mann is going to take the lead on this.	Kay Mann is going to take the lead on this.	142507767	1475795440245	1475795440363	 	32
279726	3000591	Kay Mann is going to take the lead on this.	Kay Mann is going to take the lead on this.	142507768	1475795440384	1475795440480	o	79
279726	3000591	Kay Mann is going to take the lead on this.	Kay Mann is going to take the lead on this.	142507769	1475795440586	1475795440687	n	78
279726	3000591	Kay Mann is going to take the lead on this.	Kay Mann is going to take the lead on this.	142507770	1475795440641	1475795440775	 	32
279726	3000591	Kay Mann is going to take the lead on this.	Kay Mann is going to take the lead on this.	142507771	1475795440760	1475795440883	t	84
279726	3000591	Kay Mann is going to take the lead on this.	Kay Mann is going to take the lead on this.	142507784	1475795440860	1475795440943	h	72
279726	3000591	Kay Mann is going to take the lead on this.	Kay Mann is going to take the lead on this.	142507785	1475795441023	1475795441131	i	73
279726	3000591	Kay Mann is going to take the lead on this.	Kay Mann is going to take the lead on this.	142507786	1475795441117	1475795441227	s	83
279726	3000591	Kay Mann is going to take the lead on this.	Kay Mann is going to take the lead on this.	142507787	1475795441308	1475795441418	.	190
279726	3000603	I don't know that I will be back Monday.	I don't know that I will be back Monday.	142507989	1475795445885	1475795446126	SHIFT	16
279726	3000603	I don't know that I will be back Monday.	I don't know that I will be back Monday.	142507992	1475795446024	1475795446141	I	73
279726	3000603	I don't know that I will be back Monday.	I don't know that I will be back Monday.	142507994	1475795446174	1475795446264	 	32
279726	3000603	I don't know that I will be back Monday.	I don't know that I will be back Monday.	142507996	1475795446466	1475795446608	d	68
279726	3000603	I don't know that I will be back Monday.	I don't know that I will be back Monday.	142507998	1475795446549	1475795446648	o	79
279726	3000603	I don't know that I will be back Monday.	I don't know that I will be back Monday.	142508000	1475795446774	1475795446849	n	78
279726	3000603	I don't know that I will be back Monday.	I don't know that I will be back Monday.	142508021	1475795446957	1475795447079	'	222
279726	3000603	I don't know that I will be back Monday.	I don't know that I will be back Monday.	142508023	1475795447059	1475795447171	t	84
279726	3000603	I don't know that I will be back Monday.	I don't know that I will be back Monday.	142508026	1475795447152	1475795447249	 	32
279726	3000603	I don't know that I will be back Monday.	I don't know that I will be back Monday.	142508029	1475795447355	1475795447458	k	75
279726	3000603	I don't know that I will be back Monday.	I don't know that I will be back Monday.	142508031	1475795447931	1475795448061	n	78
279726	3000603	I don't know that I will be back Monday.	I don't know that I will be back Monday.	142508033	1475795448169	1475795448295	o	79
279726	3000603	I don't know that I will be back Monday.	I don't know that I will be back Monday.	142508035	1475795448358	1475795448451	w	87
279726	3000603	I don't know that I will be back Monday.	I don't know that I will be back Monday.	142508037	1475795448465	1475795448553	 	32
279726	3000603	I don't know that I will be back Monday.	I don't know that I will be back Monday.	142508040	1475795448644	1475795448752	t	84
279726	3000603	I don't know that I will be back Monday.	I don't know that I will be back Monday.	142508064	1475795448704	1475795448798	h	72
279726	3000603	I don't know that I will be back Monday.	I don't know that I will be back Monday.	142508065	1475795448835	1475795449001	a	65
279726	3000603	I don't know that I will be back Monday.	I don't know that I will be back Monday.	142508066	1475795448957	1475795449076	t	84
279726	3000603	I don't know that I will be back Monday.	I don't know that I will be back Monday.	142508067	1475795449020	1475795449125	 	32
279726	3000603	I don't know that I will be back Monday.	I don't know that I will be back Monday.	142508068	1475795449248	1475795449442	SHIFT	16
279726	3000603	I don't know that I will be back Monday.	I don't know that I will be back Monday.	142508069	1475795449336	1475795449478	I	73
279726	3000603	I don't know that I will be back Monday.	I don't know that I will be back Monday.	142508088	1475795449461	1475795449563	 	32
279726	3000603	I don't know that I will be back Monday.	I don't know that I will be back Monday.	142508091	1475795449580	1475795449719	w	87
279726	3000603	I don't know that I will be back Monday.	I don't know that I will be back Monday.	142508095	1475795449660	1475795449767	i	73
279726	3000603	I don't know that I will be back Monday.	I don't know that I will be back Monday.	142508100	1475795449912	1475795449975	l	76
279726	3000603	I don't know that I will be back Monday.	I don't know that I will be back Monday.	142508105	1475795450060	1475795450196	l	76
279726	3000603	I don't know that I will be back Monday.	I don't know that I will be back Monday.	142508129	1475795450173	1475795450309	 	32
279726	3000603	I don't know that I will be back Monday.	I don't know that I will be back Monday.	142508131	1475795450300	1475795450394	b	66
279726	3000603	I don't know that I will be back Monday.	I don't know that I will be back Monday.	142508133	1475795450493	1475795450596	e	69
279726	3000603	I don't know that I will be back Monday.	I don't know that I will be back Monday.	142508137	1475795450606	1475795450700	 	32
279726	3000603	I don't know that I will be back Monday.	I don't know that I will be back Monday.	142508139	1475795450867	1475795450971	b	66
279726	3000603	I don't know that I will be back Monday.	I don't know that I will be back Monday.	142508141	1475795451044	1475795451164	a	65
279726	3000603	I don't know that I will be back Monday.	I don't know that I will be back Monday.	142508169	1475795451288	1475795451428	c	67
279726	3000603	I don't know that I will be back Monday.	I don't know that I will be back Monday.	142508171	1475795451446	1475795451573	k	75
279726	3000603	I don't know that I will be back Monday.	I don't know that I will be back Monday.	142508173	1475795451579	1475795451684	 	32
279726	3000603	I don't know that I will be back Monday.	I don't know that I will be back Monday.	142508180	1475795451758	1475795451987	SHIFT	16
279726	3000603	I don't know that I will be back Monday.	I don't know that I will be back Monday.	142508176	1475795451840	1475795451959	M	77
279726	3000603	I don't know that I will be back Monday.	I don't know that I will be back Monday.	142508184	1475795452041	1475795452135	o	79
279726	3000603	I don't know that I will be back Monday.	I don't know that I will be back Monday.	142508197	1475795452258	1475795452359	n	78
279726	3000603	I don't know that I will be back Monday.	I don't know that I will be back Monday.	142508200	1475795452333	1475795452412	d	68
279726	3000603	I don't know that I will be back Monday.	I don't know that I will be back Monday.	142508204	1475795452457	1475795452630	a	65
279726	3000603	I don't know that I will be back Monday.	I don't know that I will be back Monday.	142508209	1475795452543	1475795452645	y	89
279726	3000603	I don't know that I will be back Monday.	I don't know that I will be back Monday.	142508215	1475795452819	1475795452941	.	190
279726	3000612	I have 30 minutes then.	I have 30 minutes then.	142508343	1475795455441	1475795455637	SHIFT	16
279726	3000612	I have 30 minutes then.	I have 30 minutes then.	142508349	1475795455534	1475795455664	I	73
279726	3000612	I have 30 minutes then.	I have 30 minutes then.	142508353	1475795455680	1475795455776	 	32
279726	3000612	I have 30 minutes then.	I have 30 minutes then.	142508357	1475795455850	1475795455954	h	72
279726	3000612	I have 30 minutes then.	I have 30 minutes then.	142508360	1475795455895	1475795456046	a	65
279726	3000612	I have 30 minutes then.	I have 30 minutes then.	142508362	1475795456139	1475795456217	v	86
279726	3000612	I have 30 minutes then.	I have 30 minutes then.	142508397	1475795456315	1475795456424	e	69
279726	3000612	I have 30 minutes then.	I have 30 minutes then.	142508401	1475795456370	1475795456473	 	32
279726	3000612	I have 30 minutes then.	I have 30 minutes then.	142508404	1475795456633	1475795456723	2	50
279726	3000612	I have 30 minutes then.	I have 30 minutes then.	142508409	1475795457008	1475795457116	BKSP	8
279726	3000612	I have 30 minutes then.	I have 30 minutes then.	142508412	1475795457174	1475795457286	3	51
279726	3000612	I have 30 minutes then.	I have 30 minutes then.	142508416	1475795457314	1475795457372	0	48
279726	3000612	I have 30 minutes then.	I have 30 minutes then.	142508457	1475795457520	1475795457631	 	32
279726	3000612	I have 30 minutes then.	I have 30 minutes then.	142508459	1475795457765	1475795457835	m	77
279726	3000612	I have 30 minutes then.	I have 30 minutes then.	142508462	1475795457906	1475795458004	i	73
279726	3000612	I have 30 minutes then.	I have 30 minutes then.	142508464	1475795458088	1475795458157	n	78
279726	3000612	I have 30 minutes then.	I have 30 minutes then.	142508466	1475795458294	1475795458411	u	85
279726	3000612	I have 30 minutes then.	I have 30 minutes then.	142508493	1475795458427	1475795458510	t	84
279726	3000612	I have 30 minutes then.	I have 30 minutes then.	142508495	1475795458567	1475795458640	e	69
279726	3000612	I have 30 minutes then.	I have 30 minutes then.	142508497	1475795458745	1475795458871	s	83
279726	3000612	I have 30 minutes then.	I have 30 minutes then.	142508500	1475795458920	1475795459009	 	32
279726	3000612	I have 30 minutes then.	I have 30 minutes then.	142508502	1475795459113	1475795459198	t	84
279726	3000612	I have 30 minutes then.	I have 30 minutes then.	142508510	1475795459142	1475795459252	h	72
279726	3000612	I have 30 minutes then.	I have 30 minutes then.	142508511	1475795459294	1475795459434	e	69
279726	3000612	I have 30 minutes then.	I have 30 minutes then.	142508512	1475795459409	1475795459513	n	78
279726	3000612	I have 30 minutes then.	I have 30 minutes then.	142508513	1475795459683	1475795459804	.	190
279726	3000618	Thank you for your call.	Thank youf or your call.	142508639	1475795462656	1475795462848	SHIFT	16
279726	3000618	Thank you for your call.	Thank youf or your call.	142508641	1475795462789	1475795462936	T	84
279726	3000618	Thank you for your call.	Thank youf or your call.	142508643	1475795462993	1475795463100	h	72
279726	3000618	Thank you for your call.	Thank youf or your call.	142508645	1475795463144	1475795463280	a	65
279726	3000618	Thank you for your call.	Thank youf or your call.	142508648	1475795463313	1475795463408	n	78
279726	3000618	Thank you for your call.	Thank youf or your call.	142508652	1475795463527	1475795463629	k	75
279726	3000618	Thank you for your call.	Thank youf or your call.	142508665	1475795463618	1475795463741	 	32
279726	3000618	Thank you for your call.	Thank youf or your call.	142508666	1475795463792	1475795463888	y	89
279726	3000618	Thank you for your call.	Thank youf or your call.	142508667	1475795464004	1475795464138	o	79
279726	3000618	Thank you for your call.	Thank youf or your call.	142508668	1475795464046	1475795464174	u	85
279726	3000618	Thank you for your call.	Thank youf or your call.	142508713	1475795464207	1475795464357	 	70
279726	3000618	Thank you for your call.	Thank youf or your call.	142508715	1475795464399	1475795464538	o	79
279726	3000618	Thank you for your call.	Thank youf or your call.	142508716	1475795464506	1475795464615	r	82
279726	3000618	Thank you for your call.	Thank youf or your call.	142508717	1475795464639	1475795464733	 	32
279726	3000618	Thank you for your call.	Thank youf or your call.	142508718	1475795464890	1475795465011	y	89
279726	3000618	Thank you for your call.	Thank youf or your call.	142508720	1475795465096	1475795465254	o	79
279726	3000618	Thank you for your call.	Thank youf or your call.	142508741	1475795465184	1475795465302	u	85
279726	3000618	Thank you for your call.	Thank youf or your call.	142508744	1475795465288	1475795465407	r	82
279726	3000618	Thank you for your call.	Thank youf or your call.	142508748	1475795465428	1475795465547	 	32
279726	3000618	Thank you for your call.	Thank youf or your call.	142508751	1475795465845	1475795465936	c	67
279726	3000618	Thank you for your call.	Thank youf or your call.	142508753	1475795465997	1475795466134	a	65
279726	3000618	Thank you for your call.	Thank youf or your call.	142508755	1475795466145	1475795466221	l	76
279726	3000618	Thank you for your call.	Thank youf or your call.	142508761	1475795466308	1475795466402	l	76
279726	3000618	Thank you for your call.	Thank youf or your call.	142508764	1475795466519	1475795466628	.	190
