PARTICIPANT_ID	TEST_SECTION_ID	SENTENCE	USER_INPUT	KEYSTROKE_ID	PRESS_TIME	RELEASE_TIME	LETTER	KEYCODE
288128	3092351	Pressure to finish my review!	pressure to finish may review!	146883698	1475906387380	1475906387537	o	79
288128	3092351	Pressure to finish my review!	pressure to finish may review!	146883703	1475906387553	1475906387681	r	82
288128	3092351	Pressure to finish my review!	pressure to finish may review!	146883708	1475906387697	1475906387825	u	85
288128	3092351	Pressure to finish my review!	pressure to finish may review!	146883711	1475906388306	1475906388401	BKSP	8
288128	3092351	Pressure to finish my review!	pressure to finish may review!	146883714	1475906388465	1475906388529	BKSP	8
288128	3092351	Pressure to finish my review!	pressure to finish may review!	146883717	1475906388625	1475906388753	BKSP	8
288128	3092351	Pressure to finish my review!	pressure to finish may review!	146883721	1475906390386	1475906390753	SHIFT	16
288128	3092351	Pressure to finish my review!	pressure to finish may review!	146883724	1475906391313	1475906391473	p	80
288128	3092351	Pressure to finish my review!	pressure to finish may review!	146883729	1475906391602	1475906391697	r	82
288128	3092351	Pressure to finish my review!	pressure to finish may review!	146883787	1475906392562	1475906392689	e	69
288128	3092351	Pressure to finish my review!	pressure to finish may review!	146883789	1475906392817	1475906392913	s	83
288128	3092351	Pressure to finish my review!	pressure to finish may review!	146883792	1475906392978	1475906393073	s	83
288128	3092351	Pressure to finish my review!	pressure to finish may review!	146883794	1475906393137	1475906393265	u	85
288128	3092351	Pressure to finish my review!	pressure to finish may review!	146883798	1475906393313	1475906393425	r	82
288128	3092351	Pressure to finish my review!	pressure to finish may review!	146883801	1475906393506	1475906393649	e	69
288128	3092351	Pressure to finish my review!	pressure to finish may review!	146883803	1475906393681	1475906393809	 	32
288128	3092351	Pressure to finish my review!	pressure to finish may review!	146883804	1475906393841	1475906393969	t	84
288128	3092351	Pressure to finish my review!	pressure to finish may review!	146883806	1475906393970	1475906394097	o	79
288128	3092351	Pressure to finish my review!	pressure to finish may review!	146883911	1475906394049	1475906394225	 	32
288128	3092351	Pressure to finish my review!	pressure to finish may review!	146883914	1475906394273	1475906394386	f	70
288128	3092351	Pressure to finish my review!	pressure to finish may review!	146883919	1475906394337	1475906394465	i	73
288128	3092351	Pressure to finish my review!	pressure to finish may review!	146883924	1475906394481	1475906394625	n	78
288128	3092351	Pressure to finish my review!	pressure to finish may review!	146883925	1475906395314	1475906395414	i	73
288128	3092351	Pressure to finish my review!	pressure to finish may review!	146883927	1475906395937	1475906396081	s	83
288128	3092351	Pressure to finish my review!	pressure to finish may review!	146883976	1475906396930	1475906397025	h	72
288128	3092351	Pressure to finish my review!	pressure to finish may review!	146883982	1475906397041	1475906397217	 	32
288128	3092351	Pressure to finish my review!	pressure to finish may review!	146883983	1475906397345	1475906397457	m	77
288128	3092351	Pressure to finish my review!	pressure to finish may review!	146883987	1475906397425	1475906397569	a	65
288128	3092351	Pressure to finish my review!	pressure to finish may review!	146883991	1475906397570	1475906397682	y	89
288128	3092351	Pressure to finish my review!	pressure to finish may review!	146884042	1475906397684	1475906397873	 	32
288128	3092351	Pressure to finish my review!	pressure to finish may review!	146884044	1475906398018	1475906398145	r	82
288128	3092351	Pressure to finish my review!	pressure to finish may review!	146884046	1475906398177	1475906398321	e	69
288128	3092351	Pressure to finish my review!	pressure to finish may review!	146884049	1475906398561	1475906398690	v	86
288128	3092351	Pressure to finish my review!	pressure to finish may review!	146884052	1475906398754	1475906398849	i	73
288128	3092351	Pressure to finish my review!	pressure to finish may review!	146884243	1475906399921	1475906400064	e	69
288128	3092351	Pressure to finish my review!	pressure to finish may review!	146884246	1475906400241	1475906400336	w	87
288128	3092351	Pressure to finish my review!	pressure to finish may review!	146884249	1475906400722	1475906401089	SHIFT	16
288128	3092351	Pressure to finish my review!	pressure to finish may review!	146884252	1475906401681	1475906401810	1	49
288128	3092351	Pressure to finish my review!	pressure to finish may review!	146884255	1475906402818	1475906402945	BKSP	8
288128	3092351	Pressure to finish my review!	pressure to finish may review!	146884259	1475906403218	1475906403537	SHIFT	16
288128	3092351	Pressure to finish my review!	pressure to finish may review!	146884262	1475906403425	1475906403569	!	49
288128	3092371	The speedway is faced with some very tough choices.	The speedway is faced with some very tough choices.	146884585	1475906410193	1475906410386	SHIFT	16
288128	3092371	The speedway is faced with some very tough choices.	The speedway is faced with some very tough choices.	146884586	1475906410353	1475906410482	T	84
288128	3092371	The speedway is faced with some very tough choices.	The speedway is faced with some very tough choices.	146884588	1475906410544	1475906410657	h	72
288128	3092371	The speedway is faced with some very tough choices.	The speedway is faced with some very tough choices.	146884590	1475906410642	1475906410817	3	69
288128	3092371	The speedway is faced with some very tough choices.	The speedway is faced with some very tough choices.	146884592	1475906412113	1475906412257	BKSP	8
288128	3092371	The speedway is faced with some very tough choices.	The speedway is faced with some very tough choices.	146884594	1475906412353	1475906412545	 	32
288128	3092371	The speedway is faced with some very tough choices.	The speedway is faced with some very tough choices.	146884612	1475906412593	1475906412705	s	83
288128	3092371	The speedway is faced with some very tough choices.	The speedway is faced with some very tough choices.	146884617	1475906412930	1475906413073	p	80
288128	3092371	The speedway is faced with some very tough choices.	The speedway is faced with some very tough choices.	146884621	1475906413185	1475906413281	e	69
288128	3092371	The speedway is faced with some very tough choices.	The speedway is faced with some very tough choices.	146884625	1475906413345	1475906413441	e	69
288128	3092371	The speedway is faced with some very tough choices.	The speedway is faced with some very tough choices.	146884628	1475906413553	1475906413713	d	68
288128	3092371	The speedway is faced with some very tough choices.	The speedway is faced with some very tough choices.	146884654	1475906414033	1475906414113	w	87
288128	3092371	The speedway is faced with some very tough choices.	The speedway is faced with some very tough choices.	146884656	1475906414193	1475906414337	a	65
288128	3092371	The speedway is faced with some very tough choices.	The speedway is faced with some very tough choices.	146884659	1475906414225	1475906414353	y	89
288128	3092371	The speedway is faced with some very tough choices.	The speedway is faced with some very tough choices.	146884661	1475906414817	1475906414928	 	32
288128	3092371	The speedway is faced with some very tough choices.	The speedway is faced with some very tough choices.	146884663	1475906414977	1475906415073	i	73
288128	3092371	The speedway is faced with some very tough choices.	The speedway is faced with some very tough choices.	146884705	1475906415074	1475906415185	s	83
288128	3092371	The speedway is faced with some very tough choices.	The speedway is faced with some very tough choices.	146884708	1475906415185	1475906415345	 	32
288128	3092371	The speedway is faced with some very tough choices.	The speedway is faced with some very tough choices.	146884712	1475906415473	1475906415585	f	70
288128	3092371	The speedway is faced with some very tough choices.	The speedway is faced with some very tough choices.	146884720	1475906415633	1475906415841	a	65
288128	3092371	The speedway is faced with some very tough choices.	The speedway is faced with some very tough choices.	146884723	1475906415857	1475906415984	c	67
288128	3092371	The speedway is faced with some very tough choices.	The speedway is faced with some very tough choices.	146884761	1475906416225	1475906416321	e	69
288128	3092371	The speedway is faced with some very tough choices.	The speedway is faced with some very tough choices.	146884767	1475906416433	1475906416593	d	68
288128	3092371	The speedway is faced with some very tough choices.	The speedway is faced with some very tough choices.	146884774	1475906416673	1475906416817	 	32
288128	3092371	The speedway is faced with some very tough choices.	The speedway is faced with some very tough choices.	146884778	1475906416881	1475906417009	w	87
288128	3092371	The speedway is faced with some very tough choices.	The speedway is faced with some very tough choices.	146884856	1475906416945	1475906417057	i	73
288128	3092371	The speedway is faced with some very tough choices.	The speedway is faced with some very tough choices.	146884860	1475906417185	1475906417313	t	84
288128	3092371	The speedway is faced with some very tough choices.	The speedway is faced with some very tough choices.	146884863	1475906417345	1475906417457	h	72
288128	3092371	The speedway is faced with some very tough choices.	The speedway is faced with some very tough choices.	146884867	1475906417489	1475906417681	 	32
288128	3092371	The speedway is faced with some very tough choices.	The speedway is faced with some very tough choices.	146884870	1475906417841	1475906417953	s	83
288128	3092371	The speedway is faced with some very tough choices.	The speedway is faced with some very tough choices.	146884866	1475906417922	1475906418016	o	79
288128	3092371	The speedway is faced with some very tough choices.	The speedway is faced with some very tough choices.	146884868	1475906418097	1475906418193	m	77
288128	3092371	The speedway is faced with some very tough choices.	The speedway is faced with some very tough choices.	146884871	1475906418225	1475906418321	e	69
288128	3092371	The speedway is faced with some very tough choices.	The speedway is faced with some very tough choices.	146884873	1475906418305	1475906418545	 	32
288128	3092371	The speedway is faced with some very tough choices.	The speedway is faced with some very tough choices.	146884875	1475906418785	1475906418881	v	86
288128	3092371	The speedway is faced with some very tough choices.	The speedway is faced with some very tough choices.	146884877	1475906418945	1475906419105	e	69
288128	3092371	The speedway is faced with some very tough choices.	The speedway is faced with some very tough choices.	146884899	1475906419473	1475906419586	r	82
288128	3092371	The speedway is faced with some very tough choices.	The speedway is faced with some very tough choices.	146884901	1475906419586	1475906419713	y	89
288128	3092371	The speedway is faced with some very tough choices.	The speedway is faced with some very tough choices.	146884904	1475906419714	1475906419905	 	32
288128	3092371	The speedway is faced with some very tough choices.	The speedway is faced with some very tough choices.	146884906	1475906420049	1475906420145	t	84
288128	3092371	The speedway is faced with some very tough choices.	The speedway is faced with some very tough choices.	146884907	1475906420177	1475906420273	o	79
288128	3092371	The speedway is faced with some very tough choices.	The speedway is faced with some very tough choices.	146884987	1475906420225	1475906420369	u	85
288128	3092371	The speedway is faced with some very tough choices.	The speedway is faced with some very tough choices.	146884992	1475906421217	1475906421297	g	71
288128	3092371	The speedway is faced with some very tough choices.	The speedway is faced with some very tough choices.	146884996	1475906421361	1475906421474	h	72
288128	3092371	The speedway is faced with some very tough choices.	The speedway is faced with some very tough choices.	146885000	1475906421538	1475906421649	 	32
288128	3092371	The speedway is faced with some very tough choices.	The speedway is faced with some very tough choices.	146885004	1475906421809	1475906421953	c	67
288128	3092371	The speedway is faced with some very tough choices.	The speedway is faced with some very tough choices.	146885007	1475906422273	1475906422385	h	72
288128	3092371	The speedway is faced with some very tough choices.	The speedway is faced with some very tough choices.	146885073	1475906422402	1475906422529	9	79
288128	3092371	The speedway is faced with some very tough choices.	The speedway is faced with some very tough choices.	146885074	1475906423553	1475906423729	BKSP	8
288128	3092371	The speedway is faced with some very tough choices.	The speedway is faced with some very tough choices.	146885075	1475906423842	1475906423937	i	73
288128	3092371	The speedway is faced with some very tough choices.	The speedway is faced with some very tough choices.	146885076	1475906424017	1475906424161	c	67
288128	3092371	The speedway is faced with some very tough choices.	The speedway is faced with some very tough choices.	146885078	1475906424257	1475906424338	e	69
288128	3092371	The speedway is faced with some very tough choices.	The speedway is faced with some very tough choices.	146885117	1475906424465	1475906424593	s	83
288128	3092371	The speedway is faced with some very tough choices.	The speedway is faced with some very tough choices.	146885118	1475906424930	1475906425073	.	190
288128	3092389	Liverpool failed again in when they were beaten at Wembley.	Liverpool filed again in when they were beaten at Wembley.	146885375	1475906430513	1475906430721	SHIFT	16
288128	3092389	Liverpool failed again in when they were beaten at Wembley.	Liverpool filed again in when they were beaten at Wembley.	146885377	1475906430577	1475906430800	L	76
288128	3092389	Liverpool failed again in when they were beaten at Wembley.	Liverpool filed again in when they were beaten at Wembley.	146885379	1475906430752	1475906430881	i	73
288128	3092389	Liverpool failed again in when they were beaten at Wembley.	Liverpool filed again in when they were beaten at Wembley.	146885381	1475906430929	1475906431073	v	86
288128	3092389	Liverpool failed again in when they were beaten at Wembley.	Liverpool filed again in when they were beaten at Wembley.	146885383	1475906431153	1475906431265	e	69
288128	3092389	Liverpool failed again in when they were beaten at Wembley.	Liverpool filed again in when they were beaten at Wembley.	146885384	1475906432002	1475906432081	r	82
288128	3092389	Liverpool failed again in when they were beaten at Wembley.	Liverpool filed again in when they were beaten at Wembley.	146885465	1475906432977	1475906433121	p	80
288128	3092389	Liverpool failed again in when they were beaten at Wembley.	Liverpool filed again in when they were beaten at Wembley.	146885468	1475906433282	1475906433345	o	79
288128	3092389	Liverpool failed again in when they were beaten at Wembley.	Liverpool filed again in when they were beaten at Wembley.	146885473	1475906433425	1475906433521	o	79
288128	3092389	Liverpool failed again in when they were beaten at Wembley.	Liverpool filed again in when they were beaten at Wembley.	146885477	1475906433873	1475906433984	l	76
288128	3092389	Liverpool failed again in when they were beaten at Wembley.	Liverpool filed again in when they were beaten at Wembley.	146885480	1475906434049	1475906434225	 	32
288128	3092389	Liverpool failed again in when they were beaten at Wembley.	Liverpool filed again in when they were beaten at Wembley.	146885545	1475906434337	1475906434465	f	70
288128	3092389	Liverpool failed again in when they were beaten at Wembley.	Liverpool filed again in when they were beaten at Wembley.	146885548	1475906434433	1475906434545	i	73
288128	3092389	Liverpool failed again in when they were beaten at Wembley.	Liverpool filed again in when they were beaten at Wembley.	146885551	1475906434690	1475906434801	l	76
288128	3092389	Liverpool failed again in when they were beaten at Wembley.	Liverpool filed again in when they were beaten at Wembley.	146885554	1475906436481	1475906436545	e	69
288128	3092389	Liverpool failed again in when they were beaten at Wembley.	Liverpool filed again in when they were beaten at Wembley.	146885557	1475906436641	1475906436801	d	68
288128	3092389	Liverpool failed again in when they were beaten at Wembley.	Liverpool filed again in when they were beaten at Wembley.	146885588	1475906436803	1475906436977	 	32
288128	3092389	Liverpool failed again in when they were beaten at Wembley.	Liverpool filed again in when they were beaten at Wembley.	146885589	1475906437138	1475906437329	a	65
288128	3092389	Liverpool failed again in when they were beaten at Wembley.	Liverpool filed again in when they were beaten at Wembley.	146885590	1475906437298	1475906437393	g	71
288128	3092389	Liverpool failed again in when they were beaten at Wembley.	Liverpool filed again in when they were beaten at Wembley.	146885592	1475906437505	1475906437697	a	65
288128	3092389	Liverpool failed again in when they were beaten at Wembley.	Liverpool filed again in when they were beaten at Wembley.	146885594	1475906437793	1475906437905	i	73
288128	3092389	Liverpool failed again in when they were beaten at Wembley.	Liverpool filed again in when they were beaten at Wembley.	146885630	1475906438033	1475906438145	n	78
288128	3092389	Liverpool failed again in when they were beaten at Wembley.	Liverpool filed again in when they were beaten at Wembley.	146885634	1475906438194	1475906438369	 	32
288128	3092389	Liverpool failed again in when they were beaten at Wembley.	Liverpool filed again in when they were beaten at Wembley.	146885638	1475906438480	1475906438577	i	73
288128	3092389	Liverpool failed again in when they were beaten at Wembley.	Liverpool filed again in when they were beaten at Wembley.	146885640	1475906438625	1475906438753	n	78
288128	3092389	Liverpool failed again in when they were beaten at Wembley.	Liverpool filed again in when they were beaten at Wembley.	146885645	1475906439185	1475906439313	w	87
288128	3092389	Liverpool failed again in when they were beaten at Wembley.	Liverpool filed again in when they were beaten at Wembley.	146885750	1475906439793	1475906439937	=	187
288128	3092389	Liverpool failed again in when they were beaten at Wembley.	Liverpool filed again in when they were beaten at Wembley.	146885751	1475906440065	1475906440225	BKSP	8
288128	3092389	Liverpool failed again in when they were beaten at Wembley.	Liverpool filed again in when they were beaten at Wembley.	146885752	1475906440321	1475906440496	BKSP	8
288128	3092389	Liverpool failed again in when they were beaten at Wembley.	Liverpool filed again in when they were beaten at Wembley.	146885753	1475906440769	1475906440945	 	32
288128	3092389	Liverpool failed again in when they were beaten at Wembley.	Liverpool filed again in when they were beaten at Wembley.	146885754	1475906441184	1475906441281	w	87
288128	3092389	Liverpool failed again in when they were beaten at Wembley.	Liverpool filed again in when they were beaten at Wembley.	146885756	1475906441216	1475906441345	h	72
288128	3092389	Liverpool failed again in when they were beaten at Wembley.	Liverpool filed again in when they were beaten at Wembley.	146885758	1475906441793	1475906441889	w	87
288128	3092389	Liverpool failed again in when they were beaten at Wembley.	Liverpool filed again in when they were beaten at Wembley.	146885810	1475906442273	1475906442401	BKSP	8
288128	3092389	Liverpool failed again in when they were beaten at Wembley.	Liverpool filed again in when they were beaten at Wembley.	146885812	1475906442353	1475906442448	e	69
288128	3092389	Liverpool failed again in when they were beaten at Wembley.	Liverpool filed again in when they were beaten at Wembley.	146885815	1475906442544	1475906442657	n	78
288128	3092389	Liverpool failed again in when they were beaten at Wembley.	Liverpool filed again in when they were beaten at Wembley.	146885818	1475906442688	1475906442929	 	32
288128	3092389	Liverpool failed again in when they were beaten at Wembley.	Liverpool filed again in when they were beaten at Wembley.	146885821	1475906443153	1475906443249	h	72
288128	3092389	Liverpool failed again in when they were beaten at Wembley.	Liverpool filed again in when they were beaten at Wembley.	146885824	1475906443793	1475906443937	BKSP	8
288128	3092389	Liverpool failed again in when they were beaten at Wembley.	Liverpool filed again in when they were beaten at Wembley.	146885826	1475906443937	1475906444049	t	84
288128	3092389	Liverpool failed again in when they were beaten at Wembley.	Liverpool filed again in when they were beaten at Wembley.	146885869	1475906444064	1475906444209	h	72
288128	3092389	Liverpool failed again in when they were beaten at Wembley.	Liverpool filed again in when they were beaten at Wembley.	146885872	1475906444272	1475906444401	e	69
288128	3092389	Liverpool failed again in when they were beaten at Wembley.	Liverpool filed again in when they were beaten at Wembley.	146885880	1475906445120	1475906445233	y	89
288128	3092389	Liverpool failed again in when they were beaten at Wembley.	Liverpool filed again in when they were beaten at Wembley.	146885890	1475906445233	1475906445377	 	32
288128	3092389	Liverpool failed again in when they were beaten at Wembley.	Liverpool filed again in when they were beaten at Wembley.	146885895	1475906445521	1475906445601	w	87
288128	3092389	Liverpool failed again in when they were beaten at Wembley.	Liverpool filed again in when they were beaten at Wembley.	146885986	1475906445712	1475906445825	r	82
288128	3092389	Liverpool failed again in when they were beaten at Wembley.	Liverpool filed again in when they were beaten at Wembley.	146885988	1475906445858	1475906445969	e	69
288128	3092389	Liverpool failed again in when they were beaten at Wembley.	Liverpool filed again in when they were beaten at Wembley.	146885990	1475906446001	1475906446097	 	32
288128	3092389	Liverpool failed again in when they were beaten at Wembley.	Liverpool filed again in when they were beaten at Wembley.	146885992	1475906446881	1475906446993	BKSP	8
288128	3092389	Liverpool failed again in when they were beaten at Wembley.	Liverpool filed again in when they were beaten at Wembley.	146885993	1475906447073	1475906447201	BKSP	8
288128	3092389	Liverpool failed again in when they were beaten at Wembley.	Liverpool filed again in when they were beaten at Wembley.	146885995	1475906448433	1475906448577	BKSP	8
288128	3092389	Liverpool failed again in when they were beaten at Wembley.	Liverpool filed again in when they were beaten at Wembley.	146885997	1475906448578	1475906448737	e	69
288128	3092389	Liverpool failed again in when they were beaten at Wembley.	Liverpool filed again in when they were beaten at Wembley.	146886000	1475906448738	1475906448832	r	82
288128	3092389	Liverpool failed again in when they were beaten at Wembley.	Liverpool filed again in when they were beaten at Wembley.	146886047	1475906448865	1475906449025	e	69
288128	3092389	Liverpool failed again in when they were beaten at Wembley.	Liverpool filed again in when they were beaten at Wembley.	146886049	1475906449073	1475906449297	 	32
288128	3092389	Liverpool failed again in when they were beaten at Wembley.	Liverpool filed again in when they were beaten at Wembley.	146886052	1475906449601	1475906449729	b	66
288128	3092389	Liverpool failed again in when they were beaten at Wembley.	Liverpool filed again in when they were beaten at Wembley.	146886055	1475906450129	1475906450240	e	69
288128	3092389	Liverpool failed again in when they were beaten at Wembley.	Liverpool filed again in when they were beaten at Wembley.	146886058	1475906450304	1475906450513	a	65
288128	3092389	Liverpool failed again in when they were beaten at Wembley.	Liverpool filed again in when they were beaten at Wembley.	146886069	1475906450515	1475906450577	t	84
288128	3092389	Liverpool failed again in when they were beaten at Wembley.	Liverpool filed again in when they were beaten at Wembley.	146886071	1475906450960	1475906451056	e	69
288128	3092389	Liverpool failed again in when they were beaten at Wembley.	Liverpool filed again in when they were beaten at Wembley.	146886076	1475906451088	1475906451217	n	78
288128	3092389	Liverpool failed again in when they were beaten at Wembley.	Liverpool filed again in when they were beaten at Wembley.	146886080	1475906451217	1475906451361	 	32
288128	3092389	Liverpool failed again in when they were beaten at Wembley.	Liverpool filed again in when they were beaten at Wembley.	146886084	1475906451426	1475906451600	a	65
288128	3092389	Liverpool failed again in when they were beaten at Wembley.	Liverpool filed again in when they were beaten at Wembley.	146886225	1475906451889	1475906452001	t	84
288128	3092389	Liverpool failed again in when they were beaten at Wembley.	Liverpool filed again in when they were beaten at Wembley.	146886228	1475906452082	1475906452225	 	32
288128	3092389	Liverpool failed again in when they were beaten at Wembley.	Liverpool filed again in when they were beaten at Wembley.	146886231	1475906452465	1475906452577	w	87
288128	3092389	Liverpool failed again in when they were beaten at Wembley.	Liverpool filed again in when they were beaten at Wembley.	146886233	1475906453057	1475906453200	BKSP	8
288128	3092389	Liverpool failed again in when they were beaten at Wembley.	Liverpool filed again in when they were beaten at Wembley.	146886235	1475906453489	1475906453649	SHIFT	16
288128	3092389	Liverpool failed again in when they were beaten at Wembley.	Liverpool filed again in when they were beaten at Wembley.	146886238	1475906453616	1475906453728	W	87
288128	3092389	Liverpool failed again in when they were beaten at Wembley.	Liverpool filed again in when they were beaten at Wembley.	146886242	1475906454433	1475906454561	e	69
288128	3092389	Liverpool failed again in when they were beaten at Wembley.	Liverpool filed again in when they were beaten at Wembley.	146886290	1475906454625	1475906454737	m	77
288128	3092389	Liverpool failed again in when they were beaten at Wembley.	Liverpool filed again in when they were beaten at Wembley.	146886292	1475906454929	1475906455089	b	66
288128	3092389	Liverpool failed again in when they were beaten at Wembley.	Liverpool filed again in when they were beaten at Wembley.	146886295	1475906455265	1475906455425	l	76
288128	3092389	Liverpool failed again in when they were beaten at Wembley.	Liverpool filed again in when they were beaten at Wembley.	146886298	1475906455457	1475906455585	y	89
288128	3092389	Liverpool failed again in when they were beaten at Wembley.	Liverpool filed again in when they were beaten at Wembley.	146886301	1475906456097	1475906456209	BKSP	8
288128	3092389	Liverpool failed again in when they were beaten at Wembley.	Liverpool filed again in when they were beaten at Wembley.	146886304	1475906456321	1475906456449	e	69
288128	3092389	Liverpool failed again in when they were beaten at Wembley.	Liverpool filed again in when they were beaten at Wembley.	146886352	1475906456513	1475906456657	y	89
288128	3092389	Liverpool failed again in when they were beaten at Wembley.	Liverpool filed again in when they were beaten at Wembley.	146886354	1475906456880	1475906456993	.	190
288128	3092415	We're not adversarial in this, but we want to know what's going on.	We're not adversarial in this, but we want to know what's going on.	146886562	1475906461905	1475906462065	SHIFT	16
288128	3092415	We're not adversarial in this, but we want to know what's going on.	We're not adversarial in this, but we want to know what's going on.	146886564	1475906462193	1475906462385	SHIFT	16
288128	3092415	We're not adversarial in this, but we want to know what's going on.	We're not adversarial in this, but we want to know what's going on.	146886566	1475906462320	1475906462433	W	87
288128	3092415	We're not adversarial in this, but we want to know what's going on.	We're not adversarial in this, but we want to know what's going on.	146886568	1475906463009	1475906463137	e	69
288128	3092415	We're not adversarial in this, but we want to know what's going on.	We're not adversarial in this, but we want to know what's going on.	146886569	1475906463520	1475906463585	'	222
288128	3092415	We're not adversarial in this, but we want to know what's going on.	We're not adversarial in this, but we want to know what's going on.	146886570	1475906464193	1475906464289	r	82
288128	3092415	We're not adversarial in this, but we want to know what's going on.	We're not adversarial in this, but we want to know what's going on.	146886572	1475906464321	1475906464433	e	69
288128	3092415	We're not adversarial in this, but we want to know what's going on.	We're not adversarial in this, but we want to know what's going on.	146886602	1475906464465	1475906464608	 	32
288128	3092415	We're not adversarial in this, but we want to know what's going on.	We're not adversarial in this, but we want to know what's going on.	146886605	1475906464656	1475906464784	n	78
288128	3092415	We're not adversarial in this, but we want to know what's going on.	We're not adversarial in this, but we want to know what's going on.	146886608	1475906464785	1475906464897	o	79
288128	3092415	We're not adversarial in this, but we want to know what's going on.	We're not adversarial in this, but we want to know what's going on.	146886612	1475906464898	1475906465008	t	84
288128	3092415	We're not adversarial in this, but we want to know what's going on.	We're not adversarial in this, but we want to know what's going on.	146886615	1475906465024	1475906465232	 	32
288128	3092415	We're not adversarial in this, but we want to know what's going on.	We're not adversarial in this, but we want to know what's going on.	146886658	1475906465328	1475906465537	a	65
288128	3092415	We're not adversarial in this, but we want to know what's going on.	We're not adversarial in this, but we want to know what's going on.	146886659	1475906466064	1475906466160	d	68
288128	3092415	We're not adversarial in this, but we want to know what's going on.	We're not adversarial in this, but we want to know what's going on.	146886660	1475906466336	1475906466465	v	86
288128	3092415	We're not adversarial in this, but we want to know what's going on.	We're not adversarial in this, but we want to know what's going on.	146886662	1475906466512	1475906466657	e	69
288128	3092415	We're not adversarial in this, but we want to know what's going on.	We're not adversarial in this, but we want to know what's going on.	146886713	1475906466608	1475906466753	r	82
288128	3092415	We're not adversarial in this, but we want to know what's going on.	We're not adversarial in this, but we want to know what's going on.	146886717	1475906466945	1475906467120	s	83
288128	3092415	We're not adversarial in this, but we want to know what's going on.	We're not adversarial in this, but we want to know what's going on.	146886721	1475906467360	1475906467553	a	65
288128	3092415	We're not adversarial in this, but we want to know what's going on.	We're not adversarial in this, but we want to know what's going on.	146886726	1475906467520	1475906467649	r	82
288128	3092415	We're not adversarial in this, but we want to know what's going on.	We're not adversarial in this, but we want to know what's going on.	146886729	1475906467776	1475906467889	i	73
288128	3092415	We're not adversarial in this, but we want to know what's going on.	We're not adversarial in this, but we want to know what's going on.	146886732	1475906467984	1475906468129	a	65
288128	3092415	We're not adversarial in this, but we want to know what's going on.	We're not adversarial in this, but we want to know what's going on.	146886764	1475906468133	1475906468257	l	76
288128	3092415	We're not adversarial in this, but we want to know what's going on.	We're not adversarial in this, but we want to know what's going on.	146886766	1475906468304	1475906468465	 	32
288128	3092415	We're not adversarial in this, but we want to know what's going on.	We're not adversarial in this, but we want to know what's going on.	146886768	1475906468496	1475906468593	i	73
288128	3092415	We're not adversarial in this, but we want to know what's going on.	We're not adversarial in this, but we want to know what's going on.	146886772	1475906468624	1475906468737	n	78
288128	3092415	We're not adversarial in this, but we want to know what's going on.	We're not adversarial in this, but we want to know what's going on.	146886777	1475906468752	1475906468929	 	32
288128	3092415	We're not adversarial in this, but we want to know what's going on.	We're not adversarial in this, but we want to know what's going on.	146886846	1475906469024	1475906469121	t	84
288128	3092415	We're not adversarial in this, but we want to know what's going on.	We're not adversarial in this, but we want to know what's going on.	146886852	1475906469089	1475906469232	h	72
288128	3092415	We're not adversarial in this, but we want to know what's going on.	We're not adversarial in this, but we want to know what's going on.	146886857	1475906469233	1475906469329	i	73
288128	3092415	We're not adversarial in this, but we want to know what's going on.	We're not adversarial in this, but we want to know what's going on.	146886859	1475906469600	1475906469649	i	73
288128	3092415	We're not adversarial in this, but we want to know what's going on.	We're not adversarial in this, but we want to know what's going on.	146886864	1475906470352	1475906470449	BKSP	8
288128	3092415	We're not adversarial in this, but we want to know what's going on.	We're not adversarial in this, but we want to know what's going on.	146886868	1475906470673	1475906470800	s	83
288128	3092415	We're not adversarial in this, but we want to know what's going on.	We're not adversarial in this, but we want to know what's going on.	146886964	1475906471232	1475906471313	'	222
288128	3092415	We're not adversarial in this, but we want to know what's going on.	We're not adversarial in this, but we want to know what's going on.	146886967	1475906471857	1475906471985	BKSP	8
288128	3092415	We're not adversarial in this, but we want to know what's going on.	We're not adversarial in this, but we want to know what's going on.	146886970	1475906473361	1475906473440	.	190
288128	3092415	We're not adversarial in this, but we want to know what's going on.	We're not adversarial in this, but we want to know what's going on.	146886974	1475906474032	1475906474081	BKSP	8
288128	3092415	We're not adversarial in this, but we want to know what's going on.	We're not adversarial in this, but we want to know what's going on.	146886981	1475906474241	1475906474385	,	188
288128	3092415	We're not adversarial in this, but we want to know what's going on.	We're not adversarial in this, but we want to know what's going on.	146886986	1475906474896	1475906475105	 	32
288128	3092415	We're not adversarial in this, but we want to know what's going on.	We're not adversarial in this, but we want to know what's going on.	146886990	1475906475376	1475906475505	b	66
288128	3092415	We're not adversarial in this, but we want to know what's going on.	We're not adversarial in this, but we want to know what's going on.	146887026	1475906475489	1475906475616	u	85
288128	3092415	We're not adversarial in this, but we want to know what's going on.	We're not adversarial in this, but we want to know what's going on.	146887028	1475906475585	1475906475680	t	84
288128	3092415	We're not adversarial in this, but we want to know what's going on.	We're not adversarial in this, but we want to know what's going on.	146887029	1475906475744	1475906475889	 	32
288128	3092415	We're not adversarial in this, but we want to know what's going on.	We're not adversarial in this, but we want to know what's going on.	146887030	1475906476241	1475906476305	w	87
288128	3092415	We're not adversarial in this, but we want to know what's going on.	We're not adversarial in this, but we want to know what's going on.	146887031	1475906476416	1475906476497	e	69
288128	3092415	We're not adversarial in this, but we want to know what's going on.	We're not adversarial in this, but we want to know what's going on.	146887032	1475906476785	1475906476913	 	32
288128	3092415	We're not adversarial in this, but we want to know what's going on.	We're not adversarial in this, but we want to know what's going on.	146887095	1475906477248	1475906477328	w	87
288128	3092415	We're not adversarial in this, but we want to know what's going on.	We're not adversarial in this, but we want to know what's going on.	146887097	1475906478257	1475906478385	a	65
288128	3092415	We're not adversarial in this, but we want to know what's going on.	We're not adversarial in this, but we want to know what's going on.	146887099	1475906478368	1475906478481	n	78
288128	3092415	We're not adversarial in this, but we want to know what's going on.	We're not adversarial in this, but we want to know what's going on.	146887101	1475906478801	1475906478897	t	84
288128	3092415	We're not adversarial in this, but we want to know what's going on.	We're not adversarial in this, but we want to know what's going on.	146887104	1475906478944	1475906479105	 	32
288128	3092415	We're not adversarial in this, but we want to know what's going on.	We're not adversarial in this, but we want to know what's going on.	146887165	1475906479296	1475906479392	t	84
288128	3092415	We're not adversarial in this, but we want to know what's going on.	We're not adversarial in this, but we want to know what's going on.	146887166	1475906479440	1475906479552	o	79
288128	3092415	We're not adversarial in this, but we want to know what's going on.	We're not adversarial in this, but we want to know what's going on.	146887167	1475906479537	1475906479697	 	32
288128	3092415	We're not adversarial in this, but we want to know what's going on.	We're not adversarial in this, but we want to know what's going on.	146887168	1475906479888	1475906479952	k	75
288128	3092415	We're not adversarial in this, but we want to know what's going on.	We're not adversarial in this, but we want to know what's going on.	146887169	1475906480257	1475906480400	n	78
288128	3092415	We're not adversarial in this, but we want to know what's going on.	We're not adversarial in this, but we want to know what's going on.	146887189	1475906480402	1475906480529	o	79
288128	3092415	We're not adversarial in this, but we want to know what's going on.	We're not adversarial in this, but we want to know what's going on.	146887191	1475906480529	1475906480609	w	87
288128	3092415	We're not adversarial in this, but we want to know what's going on.	We're not adversarial in this, but we want to know what's going on.	146887193	1475906480641	1475906480816	 	32
288128	3092415	We're not adversarial in this, but we want to know what's going on.	We're not adversarial in this, but we want to know what's going on.	146887195	1475906480992	1475906481089	w	87
288128	3092415	We're not adversarial in this, but we want to know what's going on.	We're not adversarial in this, but we want to know what's going on.	146887197	1475906481216	1475906481344	a	65
288128	3092415	We're not adversarial in this, but we want to know what's going on.	We're not adversarial in this, but we want to know what's going on.	146887249	1475906481440	1475906481569	a	65
288128	3092415	We're not adversarial in this, but we want to know what's going on.	We're not adversarial in this, but we want to know what's going on.	146887250	1475906481569	1475906481633	t	84
288128	3092415	We're not adversarial in this, but we want to know what's going on.	We're not adversarial in this, but we want to know what's going on.	146887252	1475906482209	1475906482273	BKSP	8
288128	3092415	We're not adversarial in this, but we want to know what's going on.	We're not adversarial in this, but we want to know what's going on.	146887255	1475906482337	1475906482449	BKSP	8
288128	3092415	We're not adversarial in this, but we want to know what's going on.	We're not adversarial in this, but we want to know what's going on.	146887258	1475906482705	1475906482849	BKSP	8
288128	3092415	We're not adversarial in this, but we want to know what's going on.	We're not adversarial in this, but we want to know what's going on.	146887261	1475906482960	1475906483088	h	72
288128	3092415	We're not adversarial in this, but we want to know what's going on.	We're not adversarial in this, but we want to know what's going on.	146887263	1475906483057	1475906483281	a	65
288128	3092415	We're not adversarial in this, but we want to know what's going on.	We're not adversarial in this, but we want to know what's going on.	146887316	1475906483265	1475906483345	t	84
288128	3092415	We're not adversarial in this, but we want to know what's going on.	We're not adversarial in this, but we want to know what's going on.	146887320	1475906483985	1475906484160	'	222
288128	3092415	We're not adversarial in this, but we want to know what's going on.	We're not adversarial in this, but we want to know what's going on.	146887324	1475906484496	1475906484593	s	83
288128	3092415	We're not adversarial in this, but we want to know what's going on.	We're not adversarial in this, but we want to know what's going on.	146887327	1475906484784	1475906484960	 	32
288128	3092415	We're not adversarial in this, but we want to know what's going on.	We're not adversarial in this, but we want to know what's going on.	146887330	1475906485265	1475906485345	g	71
288128	3092415	We're not adversarial in this, but we want to know what's going on.	We're not adversarial in this, but we want to know what's going on.	146887335	1475906485408	1475906485553	o	79
288128	3092415	We're not adversarial in this, but we want to know what's going on.	We're not adversarial in this, but we want to know what's going on.	146887387	1475906485680	1475906485809	i	73
288128	3092415	We're not adversarial in this, but we want to know what's going on.	We're not adversarial in this, but we want to know what's going on.	146887389	1475906485840	1475906485984	n	78
288128	3092415	We're not adversarial in this, but we want to know what's going on.	We're not adversarial in this, but we want to know what's going on.	146887391	1475906485985	1475906486065	g	71
288128	3092415	We're not adversarial in this, but we want to know what's going on.	We're not adversarial in this, but we want to know what's going on.	146887393	1475906486289	1475906486417	 	32
288128	3092415	We're not adversarial in this, but we want to know what's going on.	We're not adversarial in this, but we want to know what's going on.	146887396	1475906486544	1475906486593	n	78
288128	3092415	We're not adversarial in this, but we want to know what's going on.	We're not adversarial in this, but we want to know what's going on.	146887453	1475906486929	1475906487072	o	79
288128	3092415	We're not adversarial in this, but we want to know what's going on.	We're not adversarial in this, but we want to know what's going on.	146887456	1475906487457	1475906487841	BKSP	8
288128	3092415	We're not adversarial in this, but we want to know what's going on.	We're not adversarial in this, but we want to know what's going on.	146887459	1475906487968	1475906488096	BKSP	8
288128	3092415	We're not adversarial in this, but we want to know what's going on.	We're not adversarial in this, but we want to know what's going on.	146887461	1475906488400	1475906488512	o	79
288128	3092415	We're not adversarial in this, but we want to know what's going on.	We're not adversarial in this, but we want to know what's going on.	146887463	1475906488513	1475906488641	n	78
288128	3092415	We're not adversarial in this, but we want to know what's going on.	We're not adversarial in this, but we want to know what's going on.	146887466	1475906488832	1475906488961	'	222
288128	3092415	We're not adversarial in this, but we want to know what's going on.	We're not adversarial in this, but we want to know what's going on.	146887468	1475906489329	1475906489392	\	220
288128	3092415	We're not adversarial in this, but we want to know what's going on.	We're not adversarial in this, but we want to know what's going on.	146887485	1475906489729	1475906489809	BKSP	8
288128	3092415	We're not adversarial in this, but we want to know what's going on.	We're not adversarial in this, but we want to know what's going on.	146887487	1475906489872	1475906489953	BKSP	8
288128	3092415	We're not adversarial in this, but we want to know what's going on.	We're not adversarial in this, but we want to know what's going on.	146887489	1475906490224	1475906490289	.	190
288128	3092439	That's a fair trade off.	That's a fair trade off.	146887769	1475906496689	1475906496849	SHIFT	16
288128	3092439	That's a fair trade off.	That's a fair trade off.	146887770	1475906496800	1475906496913	T	84
288128	3092439	That's a fair trade off.	That's a fair trade off.	146887771	1475906497376	1475906497488	h	72
288128	3092439	That's a fair trade off.	That's a fair trade off.	146887772	1475906497456	1475906497648	a	65
288128	3092439	That's a fair trade off.	That's a fair trade off.	146887773	1475906497649	1475906497728	t	84
288128	3092439	That's a fair trade off.	That's a fair trade off.	146887774	1475906498752	1475906498816	'	186
288128	3092439	That's a fair trade off.	That's a fair trade off.	146887875	1475906499424	1475906499504	BKSP	8
288128	3092439	That's a fair trade off.	That's a fair trade off.	146887876	1475906499601	1475906499728	BKSP	8
288128	3092439	That's a fair trade off.	That's a fair trade off.	146887877	1475906500209	1475906500272	'	222
288128	3092439	That's a fair trade off.	That's a fair trade off.	146887878	1475906500672	1475906500784	s	83
288128	3092439	That's a fair trade off.	That's a fair trade off.	146887879	1475906500897	1475906501040	 	32
288128	3092439	That's a fair trade off.	That's a fair trade off.	146887880	1475906501136	1475906501281	a	65
288128	3092439	That's a fair trade off.	That's a fair trade off.	146887883	1475906501584	1475906501680	f	70
288128	3092439	That's a fair trade off.	That's a fair trade off.	146887937	1475906502176	1475906502320	BKSP	8
288128	3092439	That's a fair trade off.	That's a fair trade off.	146887941	1475906502368	1475906502528	 	32
288128	3092439	That's a fair trade off.	That's a fair trade off.	146887945	1475906502529	1475906502672	a	65
288128	3092439	That's a fair trade off.	That's a fair trade off.	146887949	1475906503056	1475906503200	BKSP	8
288128	3092439	That's a fair trade off.	That's a fair trade off.	146887952	1475906503201	1475906503296	f	70
288128	3092439	That's a fair trade off.	That's a fair trade off.	146887954	1475906503328	1475906503488	a	65
288128	3092439	That's a fair trade off.	That's a fair trade off.	146888055	1475906503473	1475906503584	i	73
288128	3092439	That's a fair trade off.	That's a fair trade off.	146888057	1475906503952	1475906504032	r	82
288128	3092439	That's a fair trade off.	That's a fair trade off.	146888058	1475906504833	1475906505008	 	32
288128	3092439	That's a fair trade off.	That's a fair trade off.	146888061	1475906505072	1475906505152	t	84
288128	3092439	That's a fair trade off.	That's a fair trade off.	146888064	1475906505441	1475906505536	r	82
288128	3092439	That's a fair trade off.	That's a fair trade off.	146888067	1475906505984	1475906506096	a	65
288128	3092439	That's a fair trade off.	That's a fair trade off.	146888060	1475906506160	1475906506256	d	68
288128	3092439	That's a fair trade off.	That's a fair trade off.	146888066	1475906506576	1475906506672	e	69
288128	3092439	That's a fair trade off.	That's a fair trade off.	146888070	1475906506721	1475906506912	 	32
288128	3092439	That's a fair trade off.	That's a fair trade off.	146888073	1475906506976	1475906507088	o	79
288128	3092439	That's a fair trade off.	That's a fair trade off.	146888077	1475906507089	1475906507153	f	70
288128	3092439	That's a fair trade off.	That's a fair trade off.	146888111	1475906507232	1475906507296	f	70
288128	3092439	That's a fair trade off.	That's a fair trade off.	146888114	1475906507553	1475906507616	.	190
288128	3092452	That must be a lot in kilometers.	That must be a lot in kilometers.	146888253	1475906513073	1475906513216	SHIFT	16
288128	3092452	That must be a lot in kilometers.	That must be a lot in kilometers.	146888254	1475906513200	1475906513280	T	84
288128	3092452	That must be a lot in kilometers.	That must be a lot in kilometers.	146888255	1475906513345	1475906513488	h	72
288128	3092452	That must be a lot in kilometers.	That must be a lot in kilometers.	146888256	1475906513377	1475906513568	a	65
288128	3092452	That must be a lot in kilometers.	That must be a lot in kilometers.	146888257	1475906513808	1475906513888	t	84
288128	3092452	That must be a lot in kilometers.	That must be a lot in kilometers.	146888258	1475906513920	1475906514144	 	32
288128	3092452	That must be a lot in kilometers.	That must be a lot in kilometers.	146888317	1475906514208	1475906514400	m	77
288128	3092452	That must be a lot in kilometers.	That must be a lot in kilometers.	146888322	1475906514401	1475906514528	u	85
288128	3092452	That must be a lot in kilometers.	That must be a lot in kilometers.	146888324	1475906514544	1475906514656	s	83
288128	3092452	That must be a lot in kilometers.	That must be a lot in kilometers.	146888326	1475906515296	1475906515392	t	84
288128	3092452	That must be a lot in kilometers.	That must be a lot in kilometers.	146888329	1475906515440	1475906515616	 	32
288128	3092452	That must be a lot in kilometers.	That must be a lot in kilometers.	146888340	1475906515825	1475906515952	b	66
288128	3092452	That must be a lot in kilometers.	That must be a lot in kilometers.	146888342	1475906515953	1475906516048	e	69
288128	3092452	That must be a lot in kilometers.	That must be a lot in kilometers.	146888344	1475906516096	1475906516272	 	32
288128	3092452	That must be a lot in kilometers.	That must be a lot in kilometers.	146888346	1475906516416	1475906516545	a	65
288128	3092452	That must be a lot in kilometers.	That must be a lot in kilometers.	146888421	1475906516513	1475906516641	l	76
288128	3092452	That must be a lot in kilometers.	That must be a lot in kilometers.	146888422	1475906516672	1475906516816	 	32
288128	3092452	That must be a lot in kilometers.	That must be a lot in kilometers.	146888426	1475906517377	1475906517504	BKSP	8
288128	3092452	That must be a lot in kilometers.	That must be a lot in kilometers.	146888428	1475906517584	1475906517712	BKSP	8
288128	3092452	That must be a lot in kilometers.	That must be a lot in kilometers.	146888430	1475906517968	1475906518128	 	32
288128	3092452	That must be a lot in kilometers.	That must be a lot in kilometers.	146888432	1475906518112	1475906518208	l	76
288128	3092452	That must be a lot in kilometers.	That must be a lot in kilometers.	146888434	1475906518448	1475906518592	o	79
288128	3092452	That must be a lot in kilometers.	That must be a lot in kilometers.	146888437	1475906518705	1475906518800	t	84
288128	3092452	That must be a lot in kilometers.	That must be a lot in kilometers.	146888448	1475906518864	1475906519008	 	32
288128	3092452	That must be a lot in kilometers.	That must be a lot in kilometers.	146888452	1475906519024	1475906519136	i	73
288128	3092452	That must be a lot in kilometers.	That must be a lot in kilometers.	146888456	1475906519152	1475906519280	n	78
288128	3092452	That must be a lot in kilometers.	That must be a lot in kilometers.	146888459	1475906519281	1475906519407	 	32
288128	3092452	That must be a lot in kilometers.	That must be a lot in kilometers.	146888461	1475906519600	1475906519680	k	75
288128	3092452	That must be a lot in kilometers.	That must be a lot in kilometers.	146888494	1475906519760	1475906519856	i	73
288128	3092452	That must be a lot in kilometers.	That must be a lot in kilometers.	146888496	1475906519952	1475906520064	l	76
288128	3092452	That must be a lot in kilometers.	That must be a lot in kilometers.	146888500	1475906520240	1475906520336	o	79
288128	3092452	That must be a lot in kilometers.	That must be a lot in kilometers.	146888503	1475906520672	1475906520784	m	77
288128	3092452	That must be a lot in kilometers.	That must be a lot in kilometers.	146888506	1475906520976	1475906521072	e	69
288128	3092452	That must be a lot in kilometers.	That must be a lot in kilometers.	146888583	1475906521217	1475906521328	t	82
288128	3092452	That must be a lot in kilometers.	That must be a lot in kilometers.	146888585	1475906522081	1475906522193	BKSP	8
288128	3092452	That must be a lot in kilometers.	That must be a lot in kilometers.	146888588	1475906522272	1475906522368	BKSP	8
288128	3092452	That must be a lot in kilometers.	That must be a lot in kilometers.	146888590	1475906523761	1475906523872	r	82
288128	3092452	That must be a lot in kilometers.	That must be a lot in kilometers.	146888591	1475906523935	1475906524080	e	69
288128	3092452	That must be a lot in kilometers.	That must be a lot in kilometers.	146888592	1475906524288	1475906524400	s	83
288128	3092452	That must be a lot in kilometers.	That must be a lot in kilometers.	146888662	1475906524768	1475906524896	.	190
288128	3092452	That must be a lot in kilometers.	That must be a lot in kilometers.	146888665	1475906525953	1475906526064	BKSP	8
288128	3092452	That must be a lot in kilometers.	That must be a lot in kilometers.	146888668	1475906526144	1475906526208	BKSP	8
288128	3092452	That must be a lot in kilometers.	That must be a lot in kilometers.	146888670	1475906526272	1475906526336	BKSP	8
288128	3092452	That must be a lot in kilometers.	That must be a lot in kilometers.	146888672	1475906526384	1475906526432	BKSP	8
288128	3092452	That must be a lot in kilometers.	That must be a lot in kilometers.	146888673	1475906526496	1475906526544	BKSP	8
288128	3092452	That must be a lot in kilometers.	That must be a lot in kilometers.	146888674	1475906527424	1475906527552	e	69
288128	3092452	That must be a lot in kilometers.	That must be a lot in kilometers.	146888676	1475906527648	1475906527760	t	84
288128	3092452	That must be a lot in kilometers.	That must be a lot in kilometers.	146888678	1475906528368	1475906528544	e	69
288128	3092452	That must be a lot in kilometers.	That must be a lot in kilometers.	146888683	1475906528512	1475906528624	r	82
288128	3092452	That must be a lot in kilometers.	That must be a lot in kilometers.	146888686	1475906528768	1475906528896	s	83
288128	3092452	That must be a lot in kilometers.	That must be a lot in kilometers.	146888689	1475906529088	1475906529152	.	190
288128	3092464	Trip was good I presume?	Trip was good i presume?	146888888	1475906534464	1475906534848	SHIFT	16
288128	3092464	Trip was good I presume?	Trip was good i presume?	146888890	1475906534785	1475906534864	T	84
288128	3092464	Trip was good I presume?	Trip was good i presume?	146888892	1475906535039	1475906535152	r	82
288128	3092464	Trip was good I presume?	Trip was good i presume?	146888893	1475906535856	1475906535968	i	73
288128	3092464	Trip was good I presume?	Trip was good i presume?	146888894	1475906536096	1475906536224	p	80
288128	3092464	Trip was good I presume?	Trip was good i presume?	146888895	1475906536304	1475906536512	 	32
288128	3092464	Trip was good I presume?	Trip was good i presume?	146888901	1475906536672	1475906536752	w	87
288128	3092464	Trip was good I presume?	Trip was good i presume?	146888902	1475906536832	1475906537024	a	65
288128	3092464	Trip was good I presume?	Trip was good i presume?	146888904	1475906537008	1475906537168	s	83
288128	3092464	Trip was good I presume?	Trip was good i presume?	146888906	1475906537169	1475906537392	 	32
288128	3092464	Trip was good I presume?	Trip was good i presume?	146888908	1475906537521	1475906537616	g	71
288128	3092464	Trip was good I presume?	Trip was good i presume?	146888923	1475906537618	1475906537712	o	79
288128	3092464	Trip was good I presume?	Trip was good i presume?	146888924	1475906537856	1475906537936	d	68
288128	3092464	Trip was good I presume?	Trip was good i presume?	146888925	1475906538000	1475906538080	d	68
288128	3092464	Trip was good I presume?	Trip was good i presume?	146888926	1475906538400	1475906538560	 	32
288128	3092464	Trip was good I presume?	Trip was good i presume?	146888927	1475906538608	1475906538720	i	73
288128	3092464	Trip was good I presume?	Trip was good i presume?	146889041	1475906539344	1475906539472	BKSP	8
288128	3092464	Trip was good I presume?	Trip was good i presume?	146889042	1475906539567	1475906539664	BKSP	8
288128	3092464	Trip was good I presume?	Trip was good i presume?	146889043	1475906539728	1475906540016	BKSP	8
288128	3092464	Trip was good I presume?	Trip was good i presume?	146889044	1475906540224	1475906540352	BKSP	8
288128	3092464	Trip was good I presume?	Trip was good i presume?	146889045	1475906540497	1475906540656	i	73
288128	3092464	Trip was good I presume?	Trip was good i presume?	146889046	1475906541824	1475906541936	BKSP	8
288128	3092464	Trip was good I presume?	Trip was good i presume?	146889048	1475906542400	1475906542512	o	79
288128	3092464	Trip was good I presume?	Trip was good i presume?	146889051	1475906542767	1475906542896	d	68
288128	3092464	Trip was good I presume?	Trip was good i presume?	146889054	1475906542912	1475906543136	 	32
288128	3092464	Trip was good I presume?	Trip was good i presume?	146889057	1475906543183	1475906543296	i	73
288128	3092464	Trip was good I presume?	Trip was good i presume?	146889073	1475906543360	1475906543520	 	32
288128	3092464	Trip was good I presume?	Trip was good i presume?	146889076	1475906543713	1475906543824	p	80
288128	3092464	Trip was good I presume?	Trip was good i presume?	146889079	1475906543887	1475906544016	r	82
288128	3092464	Trip was good I presume?	Trip was good i presume?	146889082	1475906544752	1475906544864	e	69
288128	3092464	Trip was good I presume?	Trip was good i presume?	146889085	1475906544959	1475906545104	s	83
288128	3092464	Trip was good I presume?	Trip was good i presume?	146889138	1475906545248	1475906545360	u	85
288128	3092464	Trip was good I presume?	Trip was good i presume?	146889139	1475906545472	1475906545584	m	77
288128	3092464	Trip was good I presume?	Trip was good i presume?	146889142	1475906545599	1475906545712	e	69
288128	3092464	Trip was good I presume?	Trip was good i presume?	146889145	1475906546128	1475906546464	SHIFT	16
288128	3092464	Trip was good I presume?	Trip was good i presume?	146889147	1475906546288	1475906546465	?	191
288128	3092475	We are going to send some money to a fund to help the victims.	We are going to send some money to a fund to help the victims.	146889324	1475906552240	1475906552640	SHIFT	16
288128	3092475	We are going to send some money to a fund to help the victims.	We are going to send some money to a fund to help the victims.	146889329	1475906552560	1475906552672	W	87
288128	3092475	We are going to send some money to a fund to help the victims.	We are going to send some money to a fund to help the victims.	146889333	1475906552768	1475906552832	3	69
288128	3092475	We are going to send some money to a fund to help the victims.	We are going to send some money to a fund to help the victims.	146889335	1475906552833	1475906552960	r	82
288128	3092475	We are going to send some money to a fund to help the victims.	We are going to send some money to a fund to help the victims.	146889336	1475906553504	1475906553632	BKSP	8
288128	3092475	We are going to send some money to a fund to help the victims.	We are going to send some money to a fund to help the victims.	146889337	1475906553711	1475906553808	BKSP	8
288128	3092475	We are going to send some money to a fund to help the victims.	We are going to send some money to a fund to help the victims.	146889339	1475906553935	1475906554080	 	32
288128	3092475	We are going to send some money to a fund to help the victims.	We are going to send some money to a fund to help the victims.	146889386	1475906554159	1475906554352	a	65
288128	3092475	We are going to send some money to a fund to help the victims.	We are going to send some money to a fund to help the victims.	146889388	1475906554336	1475906554463	r	82
288128	3092475	We are going to send some money to a fund to help the victims.	We are going to send some money to a fund to help the victims.	146889390	1475906554480	1475906554704	 	32
288128	3092475	We are going to send some money to a fund to help the victims.	We are going to send some money to a fund to help the victims.	146889392	1475906555296	1475906555440	BKSP	8
288128	3092475	We are going to send some money to a fund to help the victims.	We are going to send some money to a fund to help the victims.	146889394	1475906555551	1475906555648	BKSP	8
288128	3092475	We are going to send some money to a fund to help the victims.	We are going to send some money to a fund to help the victims.	146889395	1475906556223	1475906556320	r	82
288128	3092475	We are going to send some money to a fund to help the victims.	We are going to send some money to a fund to help the victims.	146889397	1475906556335	1475906556431	e	69
288128	3092475	We are going to send some money to a fund to help the victims.	We are going to send some money to a fund to help the victims.	146889450	1475906556463	1475906556639	 	32
288128	3092475	We are going to send some money to a fund to help the victims.	We are going to send some money to a fund to help the victims.	146889454	1475906556735	1475906556832	g	71
288128	3092475	We are going to send some money to a fund to help the victims.	We are going to send some money to a fund to help the victims.	146889457	1475906556864	1475906556976	o	79
288128	3092475	We are going to send some money to a fund to help the victims.	We are going to send some money to a fund to help the victims.	146889460	1475906557104	1475906557184	n	78
288128	3092475	We are going to send some money to a fund to help the victims.	We are going to send some money to a fund to help the victims.	146889463	1475906557728	1475906557840	BKSP	8
288128	3092475	We are going to send some money to a fund to help the victims.	We are going to send some money to a fund to help the victims.	146889466	1475906558207	1475906558304	i	73
288128	3092475	We are going to send some money to a fund to help the victims.	We are going to send some money to a fund to help the victims.	146889469	1475906558383	1475906558512	n	78
288128	3092475	We are going to send some money to a fund to help the victims.	We are going to send some money to a fund to help the victims.	146889472	1475906558513	1475906558640	g	71
288128	3092475	We are going to send some money to a fund to help the victims.	We are going to send some money to a fund to help the victims.	146889474	1475906558735	1475906558896	 	32
288128	3092475	We are going to send some money to a fund to help the victims.	We are going to send some money to a fund to help the victims.	146889476	1475906558943	1475906559040	o	79
288128	3092475	We are going to send some money to a fund to help the victims.	We are going to send some money to a fund to help the victims.	146889549	1475906559007	1475906559104	t	84
288128	3092475	We are going to send some money to a fund to help the victims.	We are going to send some money to a fund to help the victims.	146889550	1475906559151	1475906559360	 	32
288128	3092475	We are going to send some money to a fund to help the victims.	We are going to send some money to a fund to help the victims.	146889551	1475906560144	1475906560272	BKSP	8
288128	3092475	We are going to send some money to a fund to help the victims.	We are going to send some money to a fund to help the victims.	146889552	1475906560367	1475906560559	BKSP	8
288128	3092475	We are going to send some money to a fund to help the victims.	We are going to send some money to a fund to help the victims.	146889553	1475906560672	1475906560784	BKSP	8
288128	3092475	We are going to send some money to a fund to help the victims.	We are going to send some money to a fund to help the victims.	146889554	1475906560864	1475906560976	t	84
288128	3092475	We are going to send some money to a fund to help the victims.	We are going to send some money to a fund to help the victims.	146889555	1475906561343	1475906561456	o	79
288128	3092475	We are going to send some money to a fund to help the victims.	We are going to send some money to a fund to help the victims.	146889556	1475906561471	1475906561664	 	32
288128	3092475	We are going to send some money to a fund to help the victims.	We are going to send some money to a fund to help the victims.	146889557	1475906561679	1475906561775	s	83
288128	3092475	We are going to send some money to a fund to help the victims.	We are going to send some money to a fund to help the victims.	146889570	1475906561871	1475906561967	e	69
288128	3092475	We are going to send some money to a fund to help the victims.	We are going to send some money to a fund to help the victims.	146889571	1475906562031	1475906562144	n	78
288128	3092475	We are going to send some money to a fund to help the victims.	We are going to send some money to a fund to help the victims.	146889572	1475906562671	1475906562767	d	68
288128	3092475	We are going to send some money to a fund to help the victims.	We are going to send some money to a fund to help the victims.	146889573	1475906562816	1475906562991	 	32
288128	3092475	We are going to send some money to a fund to help the victims.	We are going to send some money to a fund to help the victims.	146889574	1475906563135	1475906563248	s	83
288128	3092475	We are going to send some money to a fund to help the victims.	We are going to send some money to a fund to help the victims.	146889610	1475906563250	1475906563360	m	77
288128	3092475	We are going to send some money to a fund to help the victims.	We are going to send some money to a fund to help the victims.	146889611	1475906563423	1475906563552	o	79
288128	3092475	We are going to send some money to a fund to help the victims.	We are going to send some money to a fund to help the victims.	146889613	1475906563553	1475906563600	 	69
288128	3092475	We are going to send some money to a fund to help the victims.	We are going to send some money to a fund to help the victims.	146889615	1475906564287	1475906564368	BKSP	8
288128	3092475	We are going to send some money to a fund to help the victims.	We are going to send some money to a fund to help the victims.	146889617	1475906564447	1475906564496	BKSP	8
288128	3092475	We are going to send some money to a fund to help the victims.	We are going to send some money to a fund to help the victims.	146889619	1475906564575	1475906564624	BKSP	8
288128	3092475	We are going to send some money to a fund to help the victims.	We are going to send some money to a fund to help the victims.	146889621	1475906564687	1475906564719	BKSP	8
288128	3092475	We are going to send some money to a fund to help the victims.	We are going to send some money to a fund to help the victims.	146889622	1475906565503	1475906565568	o	73
288128	3092475	We are going to send some money to a fund to help the victims.	We are going to send some money to a fund to help the victims.	146889692	1475906565695	1475906565792	m	77
288128	3092475	We are going to send some money to a fund to help the victims.	We are going to send some money to a fund to help the victims.	146889696	1475906566079	1475906566175	BKSP	8
288128	3092475	We are going to send some money to a fund to help the victims.	We are going to send some money to a fund to help the victims.	146889699	1475906566239	1475906566319	BKSP	8
288128	3092475	We are going to send some money to a fund to help the victims.	We are going to send some money to a fund to help the victims.	146889701	1475906566367	1475906566464	BKSP	8
288128	3092475	We are going to send some money to a fund to help the victims.	We are going to send some money to a fund to help the victims.	146889703	1475906567680	1475906567824	m	77
288128	3092475	We are going to send some money to a fund to help the victims.	We are going to send some money to a fund to help the victims.	146889705	1475906568432	1475906568576	BKSP	8
288128	3092475	We are going to send some money to a fund to help the victims.	We are going to send some money to a fund to help the victims.	146889707	1475906568991	1475906569055	o	79
288128	3092475	We are going to send some money to a fund to help the victims.	We are going to send some money to a fund to help the victims.	146889709	1475906569184	1475906569296	m	77
288128	3092475	We are going to send some money to a fund to help the victims.	We are going to send some money to a fund to help the victims.	146889712	1475906569296	1475906569391	e	69
288128	3092475	We are going to send some money to a fund to help the victims.	We are going to send some money to a fund to help the victims.	146889750	1475906569423	1475906569631	 	32
288128	3092475	We are going to send some money to a fund to help the victims.	We are going to send some money to a fund to help the victims.	146889753	1475906569711	1475906569888	m	77
288128	3092475	We are going to send some money to a fund to help the victims.	We are going to send some money to a fund to help the victims.	146889756	1475906569935	1475906569983	o	79
288128	3092475	We are going to send some money to a fund to help the victims.	We are going to send some money to a fund to help the victims.	146889759	1475906570591	1475906570672	n	78
288128	3092475	We are going to send some money to a fund to help the victims.	We are going to send some money to a fund to help the victims.	146889763	1475906570975	1475906571088	e	69
288128	3092475	We are going to send some money to a fund to help the victims.	We are going to send some money to a fund to help the victims.	146889768	1475906571120	1475906571232	y	89
288128	3092475	We are going to send some money to a fund to help the victims.	We are going to send some money to a fund to help the victims.	146889771	1475906571247	1475906571440	 	32
288128	3092475	We are going to send some money to a fund to help the victims.	We are going to send some money to a fund to help the victims.	146889773	1475906571488	1475906571599	t	84
288128	3092475	We are going to send some money to a fund to help the victims.	We are going to send some money to a fund to help the victims.	146889775	1475906571600	1475906571648	o	79
288128	3092475	We are going to send some money to a fund to help the victims.	We are going to send some money to a fund to help the victims.	146889777	1475906571695	1475906571840	 	32
288128	3092475	We are going to send some money to a fund to help the victims.	We are going to send some money to a fund to help the victims.	146889806	1475906571936	1475906572080	a	65
288128	3092475	We are going to send some money to a fund to help the victims.	We are going to send some money to a fund to help the victims.	146889808	1475906572111	1475906572288	 	32
288128	3092475	We are going to send some money to a fund to help the victims.	We are going to send some money to a fund to help the victims.	146889810	1475906572240	1475906572384	f	70
288128	3092475	We are going to send some money to a fund to help the victims.	We are going to send some money to a fund to help the victims.	146889812	1475906572448	1475906572576	u	85
288128	3092475	We are going to send some money to a fund to help the victims.	We are going to send some money to a fund to help the victims.	146889814	1475906572752	1475906572864	n	78
288128	3092475	We are going to send some money to a fund to help the victims.	We are going to send some money to a fund to help the victims.	146889822	1475906572959	1475906573071	d	68
288128	3092475	We are going to send some money to a fund to help the victims.	We are going to send some money to a fund to help the victims.	146889824	1475906573103	1475906573312	 	32
288128	3092475	We are going to send some money to a fund to help the victims.	We are going to send some money to a fund to help the victims.	146889826	1475906573455	1475906573552	t	84
288128	3092475	We are going to send some money to a fund to help the victims.	We are going to send some money to a fund to help the victims.	146889827	1475906573553	1475906573679	o	79
288128	3092475	We are going to send some money to a fund to help the victims.	We are going to send some money to a fund to help the victims.	146889887	1475906573632	1475906573824	 	32
288128	3092475	We are going to send some money to a fund to help the victims.	We are going to send some money to a fund to help the victims.	146889891	1475906573871	1475906574000	h	72
288128	3092475	We are going to send some money to a fund to help the victims.	We are going to send some money to a fund to help the victims.	146889894	1475906574031	1475906574144	e	69
288128	3092475	We are going to send some money to a fund to help the victims.	We are going to send some money to a fund to help the victims.	146889896	1475906574207	1475906574336	l	76
288128	3092475	We are going to send some money to a fund to help the victims.	We are going to send some money to a fund to help the victims.	146889899	1475906574575	1475906574672	p	80
288128	3092475	We are going to send some money to a fund to help the victims.	We are going to send some money to a fund to help the victims.	146889902	1475906575231	1475906575440	 	32
288128	3092475	We are going to send some money to a fund to help the victims.	We are going to send some money to a fund to help the victims.	146889906	1475906575552	1475906575648	t	84
288128	3092475	We are going to send some money to a fund to help the victims.	We are going to send some money to a fund to help the victims.	146889908	1475906575648	1475906575791	h	72
288128	3092475	We are going to send some money to a fund to help the victims.	We are going to send some money to a fund to help the victims.	146889911	1475906575727	1475906575840	e	69
288128	3092475	We are going to send some money to a fund to help the victims.	We are going to send some money to a fund to help the victims.	146889914	1475906575871	1475906576048	 	32
288128	3092475	We are going to send some money to a fund to help the victims.	We are going to send some money to a fund to help the victims.	146889919	1475906576271	1475906576448	v	86
288128	3092475	We are going to send some money to a fund to help the victims.	We are going to send some money to a fund to help the victims.	146889995	1475906576784	1475906576895	i	73
288128	3092475	We are going to send some money to a fund to help the victims.	We are going to send some money to a fund to help the victims.	146889996	1475906577071	1475906577312	c	67
288128	3092475	We are going to send some money to a fund to help the victims.	We are going to send some money to a fund to help the victims.	146889997	1475906577520	1475906577631	t	84
288128	3092475	We are going to send some money to a fund to help the victims.	We are going to send some money to a fund to help the victims.	146889998	1475906577599	1475906577727	i	73
288128	3092475	We are going to send some money to a fund to help the victims.	We are going to send some money to a fund to help the victims.	146889999	1475906577952	1475906578048	m	77
288128	3092475	We are going to send some money to a fund to help the victims.	We are going to send some money to a fund to help the victims.	146890020	1475906578191	1475906578320	s	83
288128	3092475	We are going to send some money to a fund to help the victims.	We are going to send some money to a fund to help the victims.	146890021	1475906578720	1475906578832	.	190
288128	3092497	I'll find someone to do it.	I' 11 find someone to do it.	146890369	1475906584480	1475906584736	SHIFT	16
288128	3092497	I'll find someone to do it.	I' 11 find someone to do it.	146890367	1475906584608	1475906584720	I	73
288128	3092497	I'll find someone to do it.	I' 11 find someone to do it.	146890373	1475906585055	1475906585183	;	186
288128	3092497	I'll find someone to do it.	I' 11 find someone to do it.	146890377	1475906585279	1475906585344	s	83
288128	3092497	I'll find someone to do it.	I' 11 find someone to do it.	146890379	1475906585967	1475906586064	BKSP	8
288128	3092497	I'll find someone to do it.	I' 11 find someone to do it.	146890382	1475906586160	1475906586272	BKSP	8
288128	3092497	I'll find someone to do it.	I' 11 find someone to do it.	146890384	1475906586351	1475906586447	BKSP	8
288128	3092497	I'll find someone to do it.	I' 11 find someone to do it.	146890386	1475906587168	1475906587376	SHIFT	16
288128	3092497	I'll find someone to do it.	I' 11 find someone to do it.	146890392	1475906587263	1475906587392	I	73
288128	3092497	I'll find someone to do it.	I' 11 find someone to do it.	146890394	1475906587807	1475906587888	;	186
288128	3092497	I'll find someone to do it.	I' 11 find someone to do it.	146890644	1475906588432	1475906588543	l	76
288128	3092497	I'll find someone to do it.	I' 11 find someone to do it.	146890646	1475906588591	1475906588688	l	76
288128	3092497	I'll find someone to do it.	I' 11 find someone to do it.	146890648	1475906589535	1475906589647	BKSP	8
288128	3092497	I'll find someone to do it.	I' 11 find someone to do it.	146890652	1475906589728	1475906589775	BKSP	8
288128	3092497	I'll find someone to do it.	I' 11 find someone to do it.	146890655	1475906589855	1475906589920	BKSP	8
288128	3092497	I'll find someone to do it.	I' 11 find someone to do it.	146890660	1475906590735	1475906590831	l	76
288128	3092497	I'll find someone to do it.	I' 11 find someone to do it.	146890667	1475906591616	1475906591744	BKSP	8
288128	3092497	I'll find someone to do it.	I' 11 find someone to do it.	146890673	1475906592432	1475906592576	;	186
288128	3092497	I'll find someone to do it.	I' 11 find someone to do it.	146890678	1475906593071	1475906593183	BKSP	8
288128	3092497	I'll find someone to do it.	I' 11 find someone to do it.	146890684	1475906593776	1475906594016	SHIFT	16
288128	3092497	I'll find someone to do it.	I' 11 find someone to do it.	146890841	1475906593872	1475906594018	"	222
288128	3092497	I'll find someone to do it.	I' 11 find someone to do it.	146890844	1475906595104	1475906595216	BKSP	8
288128	3092497	I'll find someone to do it.	I' 11 find someone to do it.	146890847	1475906595648	1475906595760	'	222
288128	3092497	I'll find someone to do it.	I' 11 find someone to do it.	146890848	1475906596112	1475906596192	'	222
288128	3092497	I'll find someone to do it.	I' 11 find someone to do it.	146890850	1475906596287	1475906596399	'	222
288128	3092497	I'll find someone to do it.	I' 11 find someone to do it.	146890852	1475906597135	1475906597151	BKSP	8
288128	3092497	I'll find someone to do it.	I' 11 find someone to do it.	146890853	1475906597216	1475906597391	BKSP	8
288128	3092497	I'll find someone to do it.	I' 11 find someone to do it.	146890855	1475906597823	1475906597919	i	73
288128	3092497	I'll find someone to do it.	I' 11 find someone to do it.	146890857	1475906597984	1475906598064	i	73
288128	3092497	I'll find someone to do it.	I' 11 find someone to do it.	146891508	1475906598799	1475906598880	BKSP	8
288128	3092497	I'll find someone to do it.	I' 11 find someone to do it.	146891510	1475906598943	1475906599008	BKSP	8
288128	3092497	I'll find someone to do it.	I' 11 find someone to do it.	146891512	1475906599055	1475906599136	BKSP	8
288128	3092497	I'll find someone to do it.	I' 11 find someone to do it.	146891515	1475906601616	1475906601744	'	222
288128	3092497	I'll find someone to do it.	I' 11 find someone to do it.	146891517	1475906613679	1475906613759	 	32
288128	3092497	I'll find someone to do it.	I' 11 find someone to do it.	146891519	1475906614415	1475906614496	1	49
288128	3092497	I'll find someone to do it.	I' 11 find someone to do it.	146891521	1475906614559	1475906614639	1	49
288128	3092497	I'll find someone to do it.	I' 11 find someone to do it.	146891523	1475906615552	1475906615631	f	70
288128	3092497	I'll find someone to do it.	I' 11 find someone to do it.	146891625	1475906616271	1475906616447	 	32
288128	3092497	I'll find someone to do it.	I' 11 find someone to do it.	146891627	1475906616463	1475906616607	f	70
288128	3092497	I'll find someone to do it.	I' 11 find someone to do it.	146891630	1475906616975	1475906617007	BKSP	8
288128	3092497	I'll find someone to do it.	I' 11 find someone to do it.	146891633	1475906617823	1475906617903	BKSP	8
288128	3092497	I'll find someone to do it.	I' 11 find someone to do it.	146891635	1475906617951	1475906618032	BKSP	8
288128	3092497	I'll find someone to do it.	I' 11 find someone to do it.	146891638	1475906618176	1475906618335	 	32
288128	3092497	I'll find someone to do it.	I' 11 find someone to do it.	146891640	1475906618479	1475906618607	f	70
288128	3092497	I'll find someone to do it.	I' 11 find someone to do it.	146891700	1475906618559	1475906618672	i	73
288128	3092497	I'll find someone to do it.	I' 11 find someone to do it.	146891703	1475906618784	1475906618895	n	78
288128	3092497	I'll find someone to do it.	I' 11 find someone to do it.	146891712	1475906618927	1475906619055	d	68
288128	3092497	I'll find someone to do it.	I' 11 find someone to do it.	146891717	1475906619087	1475906619263	 	32
288128	3092497	I'll find someone to do it.	I' 11 find someone to do it.	146891722	1475906619423	1475906619536	s	83
288128	3092497	I'll find someone to do it.	I' 11 find someone to do it.	146891727	1475906619632	1475906619728	m	77
288128	3092497	I'll find someone to do it.	I' 11 find someone to do it.	146891838	1475906620288	1475906620319	BKSP	8
288128	3092497	I'll find someone to do it.	I' 11 find someone to do it.	146891842	1475906620560	1475906620655	o	79
288128	3092497	I'll find someone to do it.	I' 11 find someone to do it.	146891847	1475906620767	1475906620864	m	77
288128	3092497	I'll find someone to do it.	I' 11 find someone to do it.	146891850	1475906620879	1475906621007	e	69
288128	3092497	I'll find someone to do it.	I' 11 find someone to do it.	146891853	1475906622896	1475906622991	o	79
288128	3092497	I'll find someone to do it.	I' 11 find someone to do it.	146891857	1475906623023	1475906623135	n	78
288128	3092497	I'll find someone to do it.	I' 11 find someone to do it.	146891903	1475906623167	1475906623263	e	69
288128	3092497	I'll find someone to do it.	I' 11 find someone to do it.	146891906	1475906623295	1475906623455	 	32
288128	3092497	I'll find someone to do it.	I' 11 find someone to do it.	146891912	1475906623487	1475906623599	t	84
288128	3092497	I'll find someone to do it.	I' 11 find someone to do it.	146891918	1475906623567	1475906623696	o	79
288128	3092497	I'll find someone to do it.	I' 11 find someone to do it.	146891921	1475906623696	1475906623887	 	32
288128	3092497	I'll find someone to do it.	I' 11 find someone to do it.	146891977	1475906623951	1475906624096	d	68
288128	3092497	I'll find someone to do it.	I' 11 find someone to do it.	146891983	1475906624096	1475906624192	i	73
288128	3092497	I'll find someone to do it.	I' 11 find someone to do it.	146891989	1475906624815	1475906624848	BKSP	8
288128	3092497	I'll find someone to do it.	I' 11 find someone to do it.	146891995	1475906625007	1475906625135	o	79
288128	3092497	I'll find someone to do it.	I' 11 find someone to do it.	146891998	1475906625231	1475906625375	 	32
288128	3092497	I'll find someone to do it.	I' 11 find someone to do it.	146892002	1475906625471	1475906625583	i	73
288128	3092497	I'll find someone to do it.	I' 11 find someone to do it.	146892026	1475906625551	1475906625663	t	84
288128	3092497	I'll find someone to do it.	I' 11 find someone to do it.	146892028	1475906626559	1475906626623	.	190
288128	3092537	I haven't adapted really.	I haven't adapted really.	146892401	1475906634384	1475906634511	SHIFT	16
288128	3092537	I haven't adapted really.	I haven't adapted really.	146892402	1475906635167	1475906635375	SHIFT	16
288128	3092537	I haven't adapted really.	I haven't adapted really.	146892403	1475906635311	1475906635423	J	73
288128	3092537	I haven't adapted really.	I haven't adapted really.	146892404	1475906635534	1475906635695	 	32
288128	3092537	I haven't adapted really.	I haven't adapted really.	146892405	1475906636256	1475906636367	BKSP	8
288128	3092537	I haven't adapted really.	I haven't adapted really.	146892407	1475906636463	1475906636590	BKSP	8
288128	3092537	I haven't adapted really.	I haven't adapted really.	146892409	1475906636960	1475906637136	 	32
288128	3092537	I haven't adapted really.	I haven't adapted really.	146892412	1475906637136	1475906637263	h	72
288128	3092537	I haven't adapted really.	I haven't adapted really.	146892406	1475906637247	1475906637407	a	65
288128	3092537	I haven't adapted really.	I haven't adapted really.	146892408	1475906637504	1475906637631	v	86
288128	3092537	I haven't adapted really.	I haven't adapted really.	146892410	1475906637663	1475906637791	e	69
288128	3092537	I haven't adapted really.	I haven't adapted really.	146892414	1475906638095	1475906638207	n	78
288128	3092537	I haven't adapted really.	I haven't adapted really.	146892418	1475906638255	1475906638415	 	32
288128	3092537	I haven't adapted really.	I haven't adapted really.	146892421	1475906638656	1475906638783	'	222
288128	3092537	I haven't adapted really.	I haven't adapted really.	146892554	1475906639648	1475906639791	BKSP	8
288128	3092537	I haven't adapted really.	I haven't adapted really.	146892557	1475906639872	1475906640031	BKSP	8
288128	3092537	I haven't adapted really.	I haven't adapted really.	146892559	1475906640783	1475906640911	'	222
288128	3092537	I haven't adapted really.	I haven't adapted really.	146892562	1475906641407	1475906641519	t	84
288128	3092537	I haven't adapted really.	I haven't adapted really.	146892564	1475906641567	1475906641759	 	32
288128	3092537	I haven't adapted really.	I haven't adapted really.	146892567	1475906642111	1475906642271	a	65
288128	3092537	I haven't adapted really.	I haven't adapted really.	146892603	1475906642255	1475906642383	d	68
288128	3092537	I haven't adapted really.	I haven't adapted really.	146892604	1475906642719	1475906642863	a	65
288128	3092537	I haven't adapted really.	I haven't adapted really.	146892606	1475906643040	1475906643167	p	80
288128	3092537	I haven't adapted really.	I haven't adapted really.	146892611	1475906643487	1475906643583	t	84
288128	3092537	I haven't adapted really.	I haven't adapted really.	146892615	1475906643647	1475906643743	e	69
288128	3092537	I haven't adapted really.	I haven't adapted really.	146892619	1475906643855	1475906643967	d	68
288128	3092537	I haven't adapted really.	I haven't adapted really.	146892676	1475906644014	1475906644207	 	32
288128	3092537	I haven't adapted really.	I haven't adapted really.	146892680	1475906644671	1475906644767	r	82
288128	3092537	I haven't adapted really.	I haven't adapted really.	146892685	1475906644831	1475906644943	e	69
288128	3092537	I haven't adapted really.	I haven't adapted really.	146892691	1475906645087	1475906645215	a	65
288128	3092537	I haven't adapted really.	I haven't adapted really.	146892694	1475906645216	1475906645343	l	76
288128	3092537	I haven't adapted really.	I haven't adapted really.	146892809	1475906645407	1475906645503	l	76
288128	3092537	I haven't adapted really.	I haven't adapted really.	146892812	1475906645535	1475906645631	l	76
288128	3092537	I haven't adapted really.	I haven't adapted really.	146892815	1475906645712	1475906645823	y	89
288128	3092537	I haven't adapted really.	I haven't adapted really.	146892819	1475906646400	1475906646479	BKSP	8
288128	3092537	I haven't adapted really.	I haven't adapted really.	146892823	1475906647119	1475906647294	BKSP	8
288128	3092537	I haven't adapted really.	I haven't adapted really.	146892827	1475906647535	1475906647663	y	89
288128	3092537	I haven't adapted really.	I haven't adapted really.	146892830	1475906648495	1475906648623	.	190
288128	3092551	I am hoping to complete them today or tomorrow morning.	I am hoping to complete them today or tomorrow morning.	146893059	1475906654943	1475906655199	SHIFT	16
288128	3092551	I am hoping to complete them today or tomorrow morning.	I am hoping to complete them today or tomorrow morning.	146893062	1475906655135	1475906655247	I	73
288128	3092551	I am hoping to complete them today or tomorrow morning.	I am hoping to complete them today or tomorrow morning.	146893066	1475906655567	1475906655711	 	32
288128	3092551	I am hoping to complete them today or tomorrow morning.	I am hoping to complete them today or tomorrow morning.	146893068	1475906655711	1475906655855	a	65
288128	3092551	I am hoping to complete them today or tomorrow morning.	I am hoping to complete them today or tomorrow morning.	146893070	1475906655855	1475906655951	m	77
288128	3092551	I am hoping to complete them today or tomorrow morning.	I am hoping to complete them today or tomorrow morning.	146893072	1475906656031	1475906656191	 	32
288128	3092551	I am hoping to complete them today or tomorrow morning.	I am hoping to complete them today or tomorrow morning.	146893152	1475906656656	1475906656783	h	72
288128	3092551	I am hoping to complete them today or tomorrow morning.	I am hoping to complete them today or tomorrow morning.	146893155	1475906657791	1475906657918	i	73
288128	3092551	I am hoping to complete them today or tomorrow morning.	I am hoping to complete them today or tomorrow morning.	146893158	1475906657999	1475906658079	p	80
288128	3092551	I am hoping to complete them today or tomorrow morning.	I am hoping to complete them today or tomorrow morning.	146893160	1475906658302	1475906658431	i	73
288128	3092551	I am hoping to complete them today or tomorrow morning.	I am hoping to complete them today or tomorrow morning.	146893178	1475906658399	1475906658527	n	78
288128	3092551	I am hoping to complete them today or tomorrow morning.	I am hoping to complete them today or tomorrow morning.	146893179	1475906658734	1475906658815	g	71
288128	3092551	I am hoping to complete them today or tomorrow morning.	I am hoping to complete them today or tomorrow morning.	146893180	1475906659135	1475906659263	 	32
288128	3092551	I am hoping to complete them today or tomorrow morning.	I am hoping to complete them today or tomorrow morning.	146893181	1475906659343	1475906659439	t	84
288128	3092551	I am hoping to complete them today or tomorrow morning.	I am hoping to complete them today or tomorrow morning.	146893183	1475906659375	1475906659487	o	79
288128	3092551	I am hoping to complete them today or tomorrow morning.	I am hoping to complete them today or tomorrow morning.	146893186	1475906659519	1475906659727	 	32
288128	3092551	I am hoping to complete them today or tomorrow morning.	I am hoping to complete them today or tomorrow morning.	146893367	1475906660286	1475906660399	BKSP	8
288128	3092551	I am hoping to complete them today or tomorrow morning.	I am hoping to complete them today or tomorrow morning.	146893369	1475906660590	1475906660655	BKSP	8
288128	3092551	I am hoping to complete them today or tomorrow morning.	I am hoping to complete them today or tomorrow morning.	146893372	1475906660734	1475906660862	BKSP	8
288128	3092551	I am hoping to complete them today or tomorrow morning.	I am hoping to complete them today or tomorrow morning.	146893374	1475906660991	1475906661102	BKSP	8
288128	3092551	I am hoping to complete them today or tomorrow morning.	I am hoping to complete them today or tomorrow morning.	146893375	1475906661183	1475906661295	BKSP	8
288128	3092551	I am hoping to complete them today or tomorrow morning.	I am hoping to complete them today or tomorrow morning.	146893376	1475906661391	1475906661439	BKSP	8
288128	3092551	I am hoping to complete them today or tomorrow morning.	I am hoping to complete them today or tomorrow morning.	146893377	1475906661535	1475906661615	BKSP	8
288128	3092551	I am hoping to complete them today or tomorrow morning.	I am hoping to complete them today or tomorrow morning.	146893378	1475906662431	1475906662480	BKSP	8
288128	3092551	I am hoping to complete them today or tomorrow morning.	I am hoping to complete them today or tomorrow morning.	146893379	1475906662592	1475906662704	BKSP	8
288128	3092551	I am hoping to complete them today or tomorrow morning.	I am hoping to complete them today or tomorrow morning.	146893381	1475906663024	1475906663104	i	73
288128	3092551	I am hoping to complete them today or tomorrow morning.	I am hoping to complete them today or tomorrow morning.	146893384	1475906663680	1475906663792	BKSP	8
288128	3092551	I am hoping to complete them today or tomorrow morning.	I am hoping to complete them today or tomorrow morning.	146893387	1475906664719	1475906664816	o	79
288128	3092551	I am hoping to complete them today or tomorrow morning.	I am hoping to complete them today or tomorrow morning.	146893391	1475906665008	1475906665120	p	80
288128	3092551	I am hoping to complete them today or tomorrow morning.	I am hoping to complete them today or tomorrow morning.	146893395	1475906665488	1475906665616	i	73
288128	3092551	I am hoping to complete them today or tomorrow morning.	I am hoping to complete them today or tomorrow morning.	146893401	1475906665631	1475906665744	n	78
288128	3092551	I am hoping to complete them today or tomorrow morning.	I am hoping to complete them today or tomorrow morning.	146893383	1475906665760	1475906665872	g	71
288128	3092551	I am hoping to complete them today or tomorrow morning.	I am hoping to complete them today or tomorrow morning.	146893430	1475906665760	1475906665872	g	71
288128	3092551	I am hoping to complete them today or tomorrow morning.	I am hoping to complete them today or tomorrow morning.	146893386	1475906665935	1475906666096	 	32
288128	3092551	I am hoping to complete them today or tomorrow morning.	I am hoping to complete them today or tomorrow morning.	146893434	1475906665935	1475906666096	 	32
288128	3092551	I am hoping to complete them today or tomorrow morning.	I am hoping to complete them today or tomorrow morning.	146893389	1475906666143	1475906666273	t	84
288128	3092551	I am hoping to complete them today or tomorrow morning.	I am hoping to complete them today or tomorrow morning.	146893437	1475906666143	1475906666273	t	84
288128	3092551	I am hoping to complete them today or tomorrow morning.	I am hoping to complete them today or tomorrow morning.	146893394	1475906666208	1475906666273	o	79
288128	3092551	I am hoping to complete them today or tomorrow morning.	I am hoping to complete them today or tomorrow morning.	146893440	1475906666208	1475906666273	o	79
288128	3092551	I am hoping to complete them today or tomorrow morning.	I am hoping to complete them today or tomorrow morning.	146893397	1475906666319	1475906666528	 	32
288128	3092551	I am hoping to complete them today or tomorrow morning.	I am hoping to complete them today or tomorrow morning.	146893443	1475906666319	1475906666528	 	32
288128	3092551	I am hoping to complete them today or tomorrow morning.	I am hoping to complete them today or tomorrow morning.	146893548	1475906666768	1475906666832	c	67
288128	3092551	I am hoping to complete them today or tomorrow morning.	I am hoping to complete them today or tomorrow morning.	146893552	1475906666959	1475906667040	m	77
288128	3092551	I am hoping to complete them today or tomorrow morning.	I am hoping to complete them today or tomorrow morning.	146893556	1475906667488	1475906667600	BKSP	8
288128	3092551	I am hoping to complete them today or tomorrow morning.	I am hoping to complete them today or tomorrow morning.	146893561	1475906668032	1475906668128	o	79
288128	3092551	I am hoping to complete them today or tomorrow morning.	I am hoping to complete them today or tomorrow morning.	146893565	1475906668367	1475906668448	p	80
288128	3092551	I am hoping to complete them today or tomorrow morning.	I am hoping to complete them today or tomorrow morning.	146893568	1475906668992	1475906669104	BKSP	8
288128	3092551	I am hoping to complete them today or tomorrow morning.	I am hoping to complete them today or tomorrow morning.	146893570	1475906669259	1475906669392	m	77
288128	3092551	I am hoping to complete them today or tomorrow morning.	I am hoping to complete them today or tomorrow morning.	146893560	1475906669728	1475906669792	p	80
288128	3092551	I am hoping to complete them today or tomorrow morning.	I am hoping to complete them today or tomorrow morning.	146893564	1475906669888	1475906670032	l	76
288128	3092551	I am hoping to complete them today or tomorrow morning.	I am hoping to complete them today or tomorrow morning.	146893566	1475906670000	1475906670128	e	69
288128	3092551	I am hoping to complete them today or tomorrow morning.	I am hoping to complete them today or tomorrow morning.	146893569	1475906670672	1475906670768	t	84
288128	3092551	I am hoping to complete them today or tomorrow morning.	I am hoping to complete them today or tomorrow morning.	146893571	1475906670815	1475906670944	s	83
288128	3092551	I am hoping to complete them today or tomorrow morning.	I am hoping to complete them today or tomorrow morning.	146893632	1475906671600	1475906671744	BKSP	8
288128	3092551	I am hoping to complete them today or tomorrow morning.	I am hoping to complete them today or tomorrow morning.	146893633	1475906671792	1475906671888	e	69
288128	3092551	I am hoping to complete them today or tomorrow morning.	I am hoping to complete them today or tomorrow morning.	146893634	1475906672576	1475906672752	 	32
288128	3092551	I am hoping to complete them today or tomorrow morning.	I am hoping to complete them today or tomorrow morning.	146893635	1475906672720	1475906672816	t	84
288128	3092551	I am hoping to complete them today or tomorrow morning.	I am hoping to complete them today or tomorrow morning.	146893636	1475906672817	1475906672960	h	72
288128	3092551	I am hoping to complete them today or tomorrow morning.	I am hoping to complete them today or tomorrow morning.	146893637	1475906672961	1475906673040	e	69
288128	3092551	I am hoping to complete them today or tomorrow morning.	I am hoping to complete them today or tomorrow morning.	146893665	1475906673215	1475906673327	m	77
288128	3092551	I am hoping to complete them today or tomorrow morning.	I am hoping to complete them today or tomorrow morning.	146893667	1475906673359	1475906673489	 	32
288128	3092551	I am hoping to complete them today or tomorrow morning.	I am hoping to complete them today or tomorrow morning.	146893670	1475906674064	1475906674160	t	84
288128	3092551	I am hoping to complete them today or tomorrow morning.	I am hoping to complete them today or tomorrow morning.	146893672	1475906674160	1475906674239	o	79
288128	3092551	I am hoping to complete them today or tomorrow morning.	I am hoping to complete them today or tomorrow morning.	146893674	1475906674303	1475906674432	d	68
288128	3092551	I am hoping to complete them today or tomorrow morning.	I am hoping to complete them today or tomorrow morning.	146893682	1475906674512	1475906674672	a	65
288128	3092551	I am hoping to complete them today or tomorrow morning.	I am hoping to complete them today or tomorrow morning.	146893685	1475906674672	1475906674784	y	89
288128	3092551	I am hoping to complete them today or tomorrow morning.	I am hoping to complete them today or tomorrow morning.	146893689	1475906674831	1475906674976	 	32
288128	3092551	I am hoping to complete them today or tomorrow morning.	I am hoping to complete them today or tomorrow morning.	146893694	1475906675216	1475906675327	o	79
288128	3092551	I am hoping to complete them today or tomorrow morning.	I am hoping to complete them today or tomorrow morning.	146893742	1475906675312	1475906675408	r	82
288128	3092551	I am hoping to complete them today or tomorrow morning.	I am hoping to complete them today or tomorrow morning.	146893743	1475906675424	1475906675632	 	32
288128	3092551	I am hoping to complete them today or tomorrow morning.	I am hoping to complete them today or tomorrow morning.	146893746	1475906675680	1475906675776	t	84
288128	3092551	I am hoping to complete them today or tomorrow morning.	I am hoping to complete them today or tomorrow morning.	146893749	1475906675984	1475906676079	o	79
288128	3092551	I am hoping to complete them today or tomorrow morning.	I am hoping to complete them today or tomorrow morning.	146893752	1475906676399	1475906676512	m	77
288128	3092551	I am hoping to complete them today or tomorrow morning.	I am hoping to complete them today or tomorrow morning.	146893755	1475906676608	1475906676704	o	79
288128	3092551	I am hoping to complete them today or tomorrow morning.	I am hoping to complete them today or tomorrow morning.	146893774	1475906676784	1475906676864	r	82
288128	3092551	I am hoping to complete them today or tomorrow morning.	I am hoping to complete them today or tomorrow morning.	146893776	1475906676943	1475906677024	r	82
288128	3092551	I am hoping to complete them today or tomorrow morning.	I am hoping to complete them today or tomorrow morning.	146893778	1475906677168	1475906677264	o	79
288128	3092551	I am hoping to complete them today or tomorrow morning.	I am hoping to complete them today or tomorrow morning.	146893781	1475906677744	1475906677840	w	87
288128	3092551	I am hoping to complete them today or tomorrow morning.	I am hoping to complete them today or tomorrow morning.	146893784	1475906677920	1475906678112	 	32
288128	3092551	I am hoping to complete them today or tomorrow morning.	I am hoping to complete them today or tomorrow morning.	146893851	1475906678575	1475906678656	m	77
288128	3092551	I am hoping to complete them today or tomorrow morning.	I am hoping to complete them today or tomorrow morning.	146893854	1475906678769	1475906678864	o	79
288128	3092551	I am hoping to complete them today or tomorrow morning.	I am hoping to complete them today or tomorrow morning.	146893857	1475906678831	1475906678960	r	82
288128	3092551	I am hoping to complete them today or tomorrow morning.	I am hoping to complete them today or tomorrow morning.	146893860	1475906679200	1475906679344	n	78
288128	3092551	I am hoping to complete them today or tomorrow morning.	I am hoping to complete them today or tomorrow morning.	146893864	1475906679391	1475906679488	i	73
288128	3092551	I am hoping to complete them today or tomorrow morning.	I am hoping to complete them today or tomorrow morning.	146893903	1475906679519	1475906679649	n	78
288128	3092551	I am hoping to complete them today or tomorrow morning.	I am hoping to complete them today or tomorrow morning.	146893906	1475906679936	1475906680032	g	71
288128	3092551	I am hoping to complete them today or tomorrow morning.	I am hoping to complete them today or tomorrow morning.	146893908	1475906680335	1475906680383	.	190
288128	3092575	Was it a car wreck?	Was it a car wrack?	146894074	1475906685647	1475906685984	SHIFT	16
288128	3092575	Was it a car wreck?	Was it a car wrack?	146894073	1475906685887	1475906685952	W	87
288128	3092575	Was it a car wreck?	Was it a car wrack?	146894075	1475906686031	1475906686207	a	65
288128	3092575	Was it a car wreck?	Was it a car wrack?	146894076	1475906686176	1475906686320	s	83
288128	3092575	Was it a car wreck?	Was it a car wrack?	146894077	1475906686384	1475906686544	 	32
288128	3092575	Was it a car wreck?	Was it a car wrack?	146894078	1475906686608	1475906686719	i	73
288128	3092575	Was it a car wreck?	Was it a car wrack?	146894103	1475906686720	1475906686816	t	84
288128	3092575	Was it a car wreck?	Was it a car wrack?	146894105	1475906686847	1475906687024	 	32
288128	3092575	Was it a car wreck?	Was it a car wrack?	146894108	1475906687055	1475906687201	a	65
288128	3092575	Was it a car wreck?	Was it a car wrack?	146894111	1475906687232	1475906687392	 	32
288128	3092575	Was it a car wreck?	Was it a car wrack?	146894114	1475906687600	1475906687712	c	67
288128	3092575	Was it a car wreck?	Was it a car wrack?	146894130	1475906687715	1475906687888	a	65
288128	3092575	Was it a car wreck?	Was it a car wrack?	146894131	1475906687888	1475906688000	r	82
288128	3092575	Was it a car wreck?	Was it a car wrack?	146894132	1475906688031	1475906688240	 	32
288128	3092575	Was it a car wreck?	Was it a car wrack?	146894133	1475906688752	1475906688864	w	87
288128	3092575	Was it a car wreck?	Was it a car wrack?	146894134	1475906688944	1475906689055	r	82
288128	3092575	Was it a car wreck?	Was it a car wrack?	146894219	1475906689103	1475906689280	a	65
288128	3092575	Was it a car wreck?	Was it a car wrack?	146894221	1475906689711	1475906689840	c	67
288128	3092575	Was it a car wreck?	Was it a car wrack?	146894226	1475906689888	1475906690016	k	75
288128	3092575	Was it a car wreck?	Was it a car wrack?	146894232	1475906690575	1475906690704	?	191
288128	3092582	It's too involved out here on Saturday with everybody qualifying.	It's too involved ouit here on satudday with everbody qualifying.	146894400	1475906695440	1475906695649	SHIFT	16
288128	3092582	It's too involved out here on Saturday with everybody qualifying.	It's too involved ouit here on satudday with everbody qualifying.	146894401	1475906695551	1475906695680	I	73
288128	3092582	It's too involved out here on Saturday with everybody qualifying.	It's too involved ouit here on satudday with everbody qualifying.	146894403	1475906695727	1475906695824	t	84
288128	3092582	It's too involved out here on Saturday with everybody qualifying.	It's too involved ouit here on satudday with everbody qualifying.	146894405	1475906696240	1475906696351	 	32
288128	3092582	It's too involved out here on Saturday with everybody qualifying.	It's too involved ouit here on satudday with everbody qualifying.	146894407	1475906696655	1475906696768	;	186
288128	3092582	It's too involved out here on Saturday with everybody qualifying.	It's too involved ouit here on satudday with everbody qualifying.	146894409	1475906696831	1475906697008	 	32
288128	3092582	It's too involved out here on Saturday with everybody qualifying.	It's too involved ouit here on satudday with everbody qualifying.	146894471	1475906697503	1475906697584	BKSP	8
288128	3092582	It's too involved out here on Saturday with everybody qualifying.	It's too involved ouit here on satudday with everbody qualifying.	146894473	1475906697647	1475906697711	BKSP	8
288128	3092582	It's too involved out here on Saturday with everybody qualifying.	It's too involved ouit here on satudday with everbody qualifying.	146894475	1475906697759	1475906697824	BKSP	8
288128	3092582	It's too involved out here on Saturday with everybody qualifying.	It's too involved ouit here on satudday with everbody qualifying.	146894478	1475906698336	1475906698447	;	186
288128	3092582	It's too involved out here on Saturday with everybody qualifying.	It's too involved ouit here on satudday with everbody qualifying.	146894482	1475906698959	1475906699072	BKSP	8
288128	3092582	It's too involved out here on Saturday with everybody qualifying.	It's too involved ouit here on satudday with everbody qualifying.	146894486	1475906699455	1475906699568	'	222
288128	3092582	It's too involved out here on Saturday with everybody qualifying.	It's too involved ouit here on satudday with everbody qualifying.	146894491	1475906699824	1475906699951	s	83
288128	3092582	It's too involved out here on Saturday with everybody qualifying.	It's too involved ouit here on satudday with everbody qualifying.	146894495	1475906699952	1475906700128	 	32
288128	3092582	It's too involved out here on Saturday with everybody qualifying.	It's too involved ouit here on satudday with everbody qualifying.	146894497	1475906700159	1475906700272	t	84
288128	3092582	It's too involved out here on Saturday with everybody qualifying.	It's too involved ouit here on satudday with everbody qualifying.	146894544	1475906700274	1475906700384	o	79
288128	3092582	It's too involved out here on Saturday with everybody qualifying.	It's too involved ouit here on satudday with everbody qualifying.	146894546	1475906700384	1475906700543	 	32
288128	3092582	It's too involved out here on Saturday with everybody qualifying.	It's too involved ouit here on satudday with everbody qualifying.	146894549	1475906701647	1475906701744	BKSP	8
288128	3092582	It's too involved out here on Saturday with everybody qualifying.	It's too involved ouit here on satudday with everbody qualifying.	146894552	1475906701999	1475906702096	o	79
288128	3092582	It's too involved out here on Saturday with everybody qualifying.	It's too involved ouit here on satudday with everbody qualifying.	146894553	1475906702192	1475906702351	 	32
288128	3092582	It's too involved out here on Saturday with everybody qualifying.	It's too involved ouit here on satudday with everbody qualifying.	146894555	1475906702592	1475906702719	i	73
288128	3092582	It's too involved out here on Saturday with everybody qualifying.	It's too involved ouit here on satudday with everbody qualifying.	146894578	1475906702816	1475906702975	v	86
288128	3092582	It's too involved out here on Saturday with everybody qualifying.	It's too involved ouit here on satudday with everbody qualifying.	146894579	1475906703391	1475906703488	BKSP	8
288128	3092582	It's too involved out here on Saturday with everybody qualifying.	It's too involved ouit here on satudday with everbody qualifying.	146894580	1475906703599	1475906703711	n	78
288128	3092582	It's too involved out here on Saturday with everybody qualifying.	It's too involved ouit here on satudday with everbody qualifying.	146894581	1475906704095	1475906704239	v	86
288128	3092582	It's too involved out here on Saturday with everybody qualifying.	It's too involved ouit here on satudday with everbody qualifying.	146894584	1475906704240	1475906704351	o	79
288128	3092582	It's too involved out here on Saturday with everybody qualifying.	It's too involved ouit here on satudday with everbody qualifying.	146894586	1475906704848	1475906704928	l	76
288128	3092582	It's too involved out here on Saturday with everybody qualifying.	It's too involved ouit here on satudday with everbody qualifying.	146894620	1475906705072	1475906705216	v	86
288128	3092582	It's too involved out here on Saturday with everybody qualifying.	It's too involved ouit here on satudday with everbody qualifying.	146894622	1475906705247	1475906705360	e	69
288128	3092582	It's too involved out here on Saturday with everybody qualifying.	It's too involved ouit here on satudday with everbody qualifying.	146894624	1475906705455	1475906705584	d	68
288128	3092582	It's too involved out here on Saturday with everybody qualifying.	It's too involved ouit here on satudday with everbody qualifying.	146894626	1475906705615	1475906705760	 	32
288128	3092582	It's too involved out here on Saturday with everybody qualifying.	It's too involved ouit here on satudday with everbody qualifying.	146894628	1475906705791	1475906705952	o	79
288128	3092582	It's too involved out here on Saturday with everybody qualifying.	It's too involved ouit here on satudday with everbody qualifying.	146894629	1475906705953	1475906706079	i	85
288128	3092582	It's too involved out here on Saturday with everybody qualifying.	It's too involved ouit here on satudday with everbody qualifying.	146894630	1475906706048	1475906706176	t	84
288128	3092582	It's too involved out here on Saturday with everybody qualifying.	It's too involved ouit here on satudday with everbody qualifying.	146894631	1475906706208	1475906706415	 	32
288128	3092582	It's too involved out here on Saturday with everybody qualifying.	It's too involved ouit here on satudday with everbody qualifying.	146894632	1475906706591	1475906706720	h	72
288128	3092582	It's too involved out here on Saturday with everybody qualifying.	It's too involved ouit here on satudday with everbody qualifying.	146894663	1475906706722	1475906706864	e	69
288128	3092582	It's too involved out here on Saturday with everybody qualifying.	It's too involved ouit here on satudday with everbody qualifying.	146894664	1475906706832	1475906706943	r	82
288128	3092582	It's too involved out here on Saturday with everybody qualifying.	It's too involved ouit here on satudday with everbody qualifying.	146894665	1475906707487	1475906707632	e	69
288128	3092582	It's too involved out here on Saturday with everybody qualifying.	It's too involved ouit here on satudday with everbody qualifying.	146894666	1475906707695	1475906707904	 	32
288128	3092582	It's too involved out here on Saturday with everybody qualifying.	It's too involved ouit here on satudday with everbody qualifying.	146894667	1475906707968	1475906708079	o	79
288128	3092582	It's too involved out here on Saturday with everybody qualifying.	It's too involved ouit here on satudday with everbody qualifying.	146894687	1475906708064	1475906708208	n	78
288128	3092582	It's too involved out here on Saturday with everybody qualifying.	It's too involved ouit here on satudday with everbody qualifying.	146894690	1475906708240	1475906708416	 	32
288128	3092582	It's too involved out here on Saturday with everybody qualifying.	It's too involved ouit here on satudday with everbody qualifying.	146894693	1475906708463	1475906708576	s	83
288128	3092582	It's too involved out here on Saturday with everybody qualifying.	It's too involved ouit here on satudday with everbody qualifying.	146894694	1475906708640	1475906708832	a	65
288128	3092582	It's too involved out here on Saturday with everybody qualifying.	It's too involved ouit here on satudday with everbody qualifying.	146894696	1475906709183	1475906709280	t	84
288128	3092582	It's too involved out here on Saturday with everybody qualifying.	It's too involved ouit here on satudday with everbody qualifying.	146894698	1475906709311	1475906709455	u	85
288128	3092582	It's too involved out here on Saturday with everybody qualifying.	It's too involved ouit here on satudday with everbody qualifying.	146894756	1475906709791	1475906709920	d	68
288128	3092582	It's too involved out here on Saturday with everybody qualifying.	It's too involved ouit here on satudday with everbody qualifying.	146894758	1475906710032	1475906710127	r	82
288128	3092582	It's too involved out here on Saturday with everybody qualifying.	It's too involved ouit here on satudday with everbody qualifying.	146894760	1475906711024	1475906711104	BKSP	8
288128	3092582	It's too involved out here on Saturday with everybody qualifying.	It's too involved ouit here on satudday with everbody qualifying.	146894761	1475906711183	1475906711230	BKSP	8
288128	3092582	It's too involved out here on Saturday with everybody qualifying.	It's too involved ouit here on satudday with everbody qualifying.	146894762	1475906711295	1475906711359	BKSP	8
288128	3092582	It's too involved out here on Saturday with everybody qualifying.	It's too involved ouit here on satudday with everbody qualifying.	146894763	1475906712399	1475906712512	u	85
288128	3092582	It's too involved out here on Saturday with everybody qualifying.	It's too involved ouit here on satudday with everbody qualifying.	146894765	1475906713072	1475906713104	r	68
288128	3092582	It's too involved out here on Saturday with everybody qualifying.	It's too involved ouit here on satudday with everbody qualifying.	146894794	1475906713247	1475906713391	d	68
288128	3092582	It's too involved out here on Saturday with everybody qualifying.	It's too involved ouit here on satudday with everbody qualifying.	146894796	1475906713455	1475906713583	a	65
288128	3092582	It's too involved out here on Saturday with everybody qualifying.	It's too involved ouit here on satudday with everbody qualifying.	146894798	1475906713839	1475906713919	BKSP	8
288128	3092582	It's too involved out here on Saturday with everybody qualifying.	It's too involved ouit here on satudday with everbody qualifying.	146894800	1475906713999	1475906714031	BKSP	8
288128	3092582	It's too involved out here on Saturday with everybody qualifying.	It's too involved ouit here on satudday with everbody qualifying.	146894802	1475906714111	1475906714176	BKSP	8
288128	3092582	It's too involved out here on Saturday with everybody qualifying.	It's too involved ouit here on satudday with everbody qualifying.	146894804	1475906714319	1475906714447	d	68
288128	3092582	It's too involved out here on Saturday with everybody qualifying.	It's too involved ouit here on satudday with everbody qualifying.	146894806	1475906714511	1475906714671	a	65
288128	3092582	It's too involved out here on Saturday with everybody qualifying.	It's too involved ouit here on satudday with everbody qualifying.	146894808	1475906714719	1475906714832	y	89
288128	3092582	It's too involved out here on Saturday with everybody qualifying.	It's too involved ouit here on satudday with everbody qualifying.	146894831	1475906714815	1475906715007	 	32
288128	3092582	It's too involved out here on Saturday with everybody qualifying.	It's too involved ouit here on satudday with everbody qualifying.	146894832	1475906715119	1475906715247	w	87
288128	3092582	It's too involved out here on Saturday with everybody qualifying.	It's too involved ouit here on satudday with everbody qualifying.	146894833	1475906715184	1475906715311	i	73
288128	3092582	It's too involved out here on Saturday with everybody qualifying.	It's too involved ouit here on satudday with everbody qualifying.	146894834	1475906715695	1475906715759	h	72
288128	3092582	It's too involved out here on Saturday with everybody qualifying.	It's too involved ouit here on satudday with everbody qualifying.	146894835	1475906715760	1475906715855	t	84
288128	3092582	It's too involved out here on Saturday with everybody qualifying.	It's too involved ouit here on satudday with everbody qualifying.	146894837	1475906716287	1475906716448	 	32
288128	3092582	It's too involved out here on Saturday with everybody qualifying.	It's too involved ouit here on satudday with everbody qualifying.	146894878	1475906716992	1475906717056	BKSP	8
288128	3092582	It's too involved out here on Saturday with everybody qualifying.	It's too involved ouit here on satudday with everbody qualifying.	146894879	1475906717135	1475906717167	BKSP	8
288128	3092582	It's too involved out here on Saturday with everybody qualifying.	It's too involved ouit here on satudday with everbody qualifying.	146894880	1475906717247	1475906717280	BKSP	8
288128	3092582	It's too involved out here on Saturday with everybody qualifying.	It's too involved ouit here on satudday with everbody qualifying.	146894881	1475906717327	1475906717391	BKSP	8
288128	3092582	It's too involved out here on Saturday with everybody qualifying.	It's too involved ouit here on satudday with everbody qualifying.	146894882	1475906717919	1475906718031	i	73
288128	3092582	It's too involved out here on Saturday with everybody qualifying.	It's too involved ouit here on satudday with everbody qualifying.	146894883	1475906718143	1475906718255	t	84
288128	3092582	It's too involved out here on Saturday with everybody qualifying.	It's too involved ouit here on satudday with everbody qualifying.	146894884	1475906718272	1475906718384	h	71
288128	3092582	It's too involved out here on Saturday with everybody qualifying.	It's too involved ouit here on satudday with everbody qualifying.	146894885	1475906718463	1475906718671	 	32
288128	3092582	It's too involved out here on Saturday with everybody qualifying.	It's too involved ouit here on satudday with everbody qualifying.	146894904	1475906718928	1475906718991	BKSP	8
288128	3092582	It's too involved out here on Saturday with everybody qualifying.	It's too involved ouit here on satudday with everbody qualifying.	146894906	1475906719071	1475906719119	BKSP	8
288128	3092582	It's too involved out here on Saturday with everybody qualifying.	It's too involved ouit here on satudday with everbody qualifying.	146894908	1475906719168	1475906719231	BKSP	8
288128	3092582	It's too involved out here on Saturday with everybody qualifying.	It's too involved ouit here on satudday with everbody qualifying.	146894910	1475906719439	1475906719535	h	72
288128	3092582	It's too involved out here on Saturday with everybody qualifying.	It's too involved ouit here on satudday with everbody qualifying.	146894912	1475906719631	1475906719855	 	32
288128	3092582	It's too involved out here on Saturday with everybody qualifying.	It's too involved ouit here on satudday with everbody qualifying.	146894916	1475906720592	1475906720719	e	69
288128	3092582	It's too involved out here on Saturday with everybody qualifying.	It's too involved ouit here on satudday with everbody qualifying.	146894918	1475906720800	1475906720911	v	86
288128	3092582	It's too involved out here on Saturday with everybody qualifying.	It's too involved ouit here on satudday with everbody qualifying.	146894921	1475906720943	1475906721070	e	69
288128	3092582	It's too involved out here on Saturday with everybody qualifying.	It's too involved ouit here on satudday with everbody qualifying.	146894991	1475906721055	1475906721166	r	82
288128	3092582	It's too involved out here on Saturday with everybody qualifying.	It's too involved ouit here on satudday with everbody qualifying.	146894994	1475906721455	1475906721567	d	68
288128	3092582	It's too involved out here on Saturday with everybody qualifying.	It's too involved ouit here on satudday with everbody qualifying.	146894996	1475906722399	1475906722558	BKSP	8
288128	3092582	It's too involved out here on Saturday with everybody qualifying.	It's too involved ouit here on satudday with everbody qualifying.	146894998	1475906722591	1475906722751	b	66
288128	3092582	It's too involved out here on Saturday with everybody qualifying.	It's too involved ouit here on satudday with everbody qualifying.	146894999	1475906722846	1475906722926	o	57
288128	3092582	It's too involved out here on Saturday with everybody qualifying.	It's too involved ouit here on satudday with everbody qualifying.	146895000	1475906723502	1475906723614	BKSP	8
288128	3092582	It's too involved out here on Saturday with everybody qualifying.	It's too involved ouit here on satudday with everbody qualifying.	146895001	1475906723678	1475906723758	BKSP	8
288128	3092582	It's too involved out here on Saturday with everybody qualifying.	It's too involved ouit here on satudday with everbody qualifying.	146895002	1475906724110	1475906724190	o	79
288128	3092582	It's too involved out here on Saturday with everybody qualifying.	It's too involved ouit here on satudday with everbody qualifying.	146895035	1475906724286	1475906724398	d	68
288128	3092582	It's too involved out here on Saturday with everybody qualifying.	It's too involved ouit here on satudday with everbody qualifying.	146895038	1475906724494	1475906724622	y	89
288128	3092582	It's too involved out here on Saturday with everybody qualifying.	It's too involved ouit here on satudday with everbody qualifying.	146895041	1475906724623	1475906724766	 	32
288128	3092582	It's too involved out here on Saturday with everybody qualifying.	It's too involved ouit here on satudday with everbody qualifying.	146895043	1475906725118	1475906725215	q	81
288128	3092582	It's too involved out here on Saturday with everybody qualifying.	It's too involved ouit here on satudday with everbody qualifying.	146895046	1475906725262	1475906725406	u	85
288128	3092582	It's too involved out here on Saturday with everybody qualifying.	It's too involved ouit here on satudday with everbody qualifying.	146895066	1475906726271	1475906726415	a	65
288128	3092582	It's too involved out here on Saturday with everybody qualifying.	It's too involved ouit here on satudday with everbody qualifying.	146895067	1475906726399	1475906726526	l	76
288128	3092582	It's too involved out here on Saturday with everybody qualifying.	It's too involved ouit here on satudday with everbody qualifying.	146895068	1475906726654	1475906726766	i	73
288128	3092582	It's too involved out here on Saturday with everybody qualifying.	It's too involved ouit here on satudday with everbody qualifying.	146895069	1475906726814	1475906726942	f	70
288128	3092582	It's too involved out here on Saturday with everybody qualifying.	It's too involved ouit here on satudday with everbody qualifying.	146895070	1475906727374	1475906727486	y	89
288128	3092582	It's too involved out here on Saturday with everybody qualifying.	It's too involved ouit here on satudday with everbody qualifying.	146895102	1475906727679	1475906727807	i	73
288128	3092582	It's too involved out here on Saturday with everybody qualifying.	It's too involved ouit here on satudday with everbody qualifying.	146895103	1475906727807	1475906727950	n	78
288128	3092582	It's too involved out here on Saturday with everybody qualifying.	It's too involved ouit here on satudday with everbody qualifying.	146895105	1475906727951	1475906728062	g	71
288128	3092582	It's too involved out here on Saturday with everybody qualifying.	It's too involved ouit here on satudday with everbody qualifying.	146895107	1475906728398	1475906728478	.	190
288128	3092602	I wonder if RBS is another institution which could move quickly.	I wonder if RBS is anohter instintuion which could move quickly.	146895219	1475906733199	1475906733438	SHIFT	16
288128	3092602	I wonder if RBS is another institution which could move quickly.	I wonder if RBS is anohter instintuion which could move quickly.	146895223	1475906733535	1475906733726	SHIFT	16
288128	3092602	I wonder if RBS is another institution which could move quickly.	I wonder if RBS is anohter instintuion which could move quickly.	146895226	1475906733598	1475906733727	I	73
288128	3092602	I wonder if RBS is another institution which could move quickly.	I wonder if RBS is anohter instintuion which could move quickly.	146895230	1475906733982	1475906734142	 	32
288128	3092602	I wonder if RBS is another institution which could move quickly.	I wonder if RBS is anohter instintuion which could move quickly.	146895232	1475906734383	1475906734494	w	87
288128	3092602	I wonder if RBS is another institution which could move quickly.	I wonder if RBS is anohter instintuion which could move quickly.	146895235	1475906734430	1475906734542	o	79
288128	3092602	I wonder if RBS is another institution which could move quickly.	I wonder if RBS is anohter instintuion which could move quickly.	146895254	1475906734526	1475906734670	n	78
288128	3092602	I wonder if RBS is another institution which could move quickly.	I wonder if RBS is anohter instintuion which could move quickly.	146895255	1475906734638	1475906734766	d	68
288128	3092602	I wonder if RBS is another institution which could move quickly.	I wonder if RBS is anohter instintuion which could move quickly.	146895257	1475906735086	1475906735262	e	69
288128	3092602	I wonder if RBS is another institution which could move quickly.	I wonder if RBS is anohter instintuion which could move quickly.	146895259	1475906735230	1475906735342	r	82
288128	3092602	I wonder if RBS is another institution which could move quickly.	I wonder if RBS is anohter instintuion which could move quickly.	146895262	1475906735374	1475906735502	 	32
288128	3092602	I wonder if RBS is another institution which could move quickly.	I wonder if RBS is anohter instintuion which could move quickly.	146895265	1475906735518	1475906735630	i	73
288128	3092602	I wonder if RBS is another institution which could move quickly.	I wonder if RBS is anohter instintuion which could move quickly.	146895310	1475906735632	1475906735758	f	70
288128	3092602	I wonder if RBS is another institution which could move quickly.	I wonder if RBS is anohter instintuion which could move quickly.	146895312	1475906735790	1475906735950	 	32
288128	3092602	I wonder if RBS is another institution which could move quickly.	I wonder if RBS is anohter instintuion which could move quickly.	146895428	1475906736430	1475906737678	SHIFT	16
288128	3092602	I wonder if RBS is another institution which could move quickly.	I wonder if RBS is anohter instintuion which could move quickly.	146895314	1475906736542	1475906736654	R	82
288128	3092602	I wonder if RBS is another institution which could move quickly.	I wonder if RBS is anohter instintuion which could move quickly.	146895321	1475906737150	1475906737294	B	66
288128	3092602	I wonder if RBS is another institution which could move quickly.	I wonder if RBS is anohter instintuion which could move quickly.	146895325	1475906737374	1475906737486	S	83
288128	3092602	I wonder if RBS is another institution which could move quickly.	I wonder if RBS is anohter instintuion which could move quickly.	146895430	1475906737566	1475906737710	 	32
288128	3092602	I wonder if RBS is another institution which could move quickly.	I wonder if RBS is anohter instintuion which could move quickly.	146895432	1475906737903	1475906738014	i	73
288128	3092602	I wonder if RBS is another institution which could move quickly.	I wonder if RBS is anohter instintuion which could move quickly.	146895434	1475906738078	1475906738238	 	32
288128	3092602	I wonder if RBS is another institution which could move quickly.	I wonder if RBS is anohter instintuion which could move quickly.	146895436	1475906741118	1475906741150	BKSP	8
288128	3092602	I wonder if RBS is another institution which could move quickly.	I wonder if RBS is anohter instintuion which could move quickly.	146895438	1475906741214	1475906741375	s	83
288128	3092602	I wonder if RBS is another institution which could move quickly.	I wonder if RBS is anohter instintuion which could move quickly.	146895439	1475906741375	1475906741582	 	32
288128	3092602	I wonder if RBS is another institution which could move quickly.	I wonder if RBS is anohter instintuion which could move quickly.	146895488	1475906742157	1475906742302	a	65
288128	3092602	I wonder if RBS is another institution which could move quickly.	I wonder if RBS is anohter instintuion which could move quickly.	146895490	1475906742254	1475906742430	n	78
288128	3092602	I wonder if RBS is another institution which could move quickly.	I wonder if RBS is anohter instintuion which could move quickly.	146895492	1475906742431	1475906742542	o	79
288128	3092602	I wonder if RBS is another institution which could move quickly.	I wonder if RBS is anohter instintuion which could move quickly.	146895494	1475906743470	1475906743598	h	72
288128	3092602	I wonder if RBS is another institution which could move quickly.	I wonder if RBS is anohter instintuion which could move quickly.	146895498	1475906743614	1475906743710	t	84
288128	3092602	I wonder if RBS is another institution which could move quickly.	I wonder if RBS is anohter instintuion which could move quickly.	146895560	1475906743791	1475906743886	e	69
288128	3092602	I wonder if RBS is another institution which could move quickly.	I wonder if RBS is anohter instintuion which could move quickly.	146895562	1475906743887	1475906743982	r	82
288128	3092602	I wonder if RBS is another institution which could move quickly.	I wonder if RBS is anohter instintuion which could move quickly.	146895566	1475906744142	1475906744366	 	32
288128	3092602	I wonder if RBS is another institution which could move quickly.	I wonder if RBS is anohter instintuion which could move quickly.	146895570	1475906744510	1475906744606	i	73
288128	3092602	I wonder if RBS is another institution which could move quickly.	I wonder if RBS is anohter instintuion which could move quickly.	146895574	1475906745278	1475906745374	BKSP	8
288128	3092602	I wonder if RBS is another institution which could move quickly.	I wonder if RBS is anohter instintuion which could move quickly.	146895578	1475906745454	1475906745502	BKSP	8
288128	3092602	I wonder if RBS is another institution which could move quickly.	I wonder if RBS is anohter instintuion which could move quickly.	146895581	1475906745582	1475906745630	BKSP	8
288128	3092602	I wonder if RBS is another institution which could move quickly.	I wonder if RBS is anohter instintuion which could move quickly.	146895583	1475906745694	1475906745742	BKSP	8
288128	3092602	I wonder if RBS is another institution which could move quickly.	I wonder if RBS is anohter instintuion which could move quickly.	146895584	1475906745806	1475906745854	BKSP	8
288128	3092602	I wonder if RBS is another institution which could move quickly.	I wonder if RBS is anohter instintuion which could move quickly.	146895585	1475906745918	1475906745966	BKSP	8
288128	3092602	I wonder if RBS is another institution which could move quickly.	I wonder if RBS is anohter instintuion which could move quickly.	146895587	1475906746030	1475906746078	BKSP	8
288128	3092602	I wonder if RBS is another institution which could move quickly.	I wonder if RBS is anohter instintuion which could move quickly.	146895589	1475906746686	1475906746782	o	79
288128	3092602	I wonder if RBS is another institution which could move quickly.	I wonder if RBS is anohter instintuion which could move quickly.	146895633	1475906746878	1475906747022	h	72
288128	3092602	I wonder if RBS is another institution which could move quickly.	I wonder if RBS is anohter instintuion which could move quickly.	146895637	1475906747023	1475906747102	t	84
288128	3092602	I wonder if RBS is another institution which could move quickly.	I wonder if RBS is anohter instintuion which could move quickly.	146895642	1475906747150	1475906747263	e	69
288128	3092602	I wonder if RBS is another institution which could move quickly.	I wonder if RBS is anohter instintuion which could move quickly.	146895647	1475906747263	1475906747358	r	82
288128	3092602	I wonder if RBS is another institution which could move quickly.	I wonder if RBS is anohter instintuion which could move quickly.	146895654	1475906747982	1475906748238	 	32
288128	3092602	I wonder if RBS is another institution which could move quickly.	I wonder if RBS is anohter instintuion which could move quickly.	146895742	1475906751007	1475906751102	i	73
288128	3092602	I wonder if RBS is another institution which could move quickly.	I wonder if RBS is anohter instintuion which could move quickly.	146895744	1475906751150	1475906751262	n	78
288128	3092602	I wonder if RBS is another institution which could move quickly.	I wonder if RBS is anohter instintuion which could move quickly.	146895746	1475906751614	1475906751774	s	83
288128	3092602	I wonder if RBS is another institution which could move quickly.	I wonder if RBS is anohter instintuion which could move quickly.	146895748	1475906752015	1475906752110	t	84
288128	3092602	I wonder if RBS is another institution which could move quickly.	I wonder if RBS is anohter instintuion which could move quickly.	146895750	1475906752222	1475906752350	i	73
288128	3092602	I wonder if RBS is another institution which could move quickly.	I wonder if RBS is anohter instintuion which could move quickly.	146895791	1475906752398	1475906752526	n	78
288128	3092602	I wonder if RBS is another institution which could move quickly.	I wonder if RBS is anohter instintuion which could move quickly.	146895792	1475906752622	1475906752750	t	84
288128	3092602	I wonder if RBS is another institution which could move quickly.	I wonder if RBS is anohter instintuion which could move quickly.	146895793	1475906752814	1475906752942	u	85
288128	3092602	I wonder if RBS is another institution which could move quickly.	I wonder if RBS is anohter instintuion which could move quickly.	146895794	1475906753198	1475906753326	i	73
288128	3092602	I wonder if RBS is another institution which could move quickly.	I wonder if RBS is anohter instintuion which could move quickly.	146895795	1475906753422	1475906753582	o	79
288128	3092602	I wonder if RBS is another institution which could move quickly.	I wonder if RBS is anohter instintuion which could move quickly.	146895847	1475906753585	1475906753694	n	78
288128	3092602	I wonder if RBS is another institution which could move quickly.	I wonder if RBS is anohter instintuion which could move quickly.	146895848	1475906754095	1475906754318	 	32
288128	3092602	I wonder if RBS is another institution which could move quickly.	I wonder if RBS is anohter instintuion which could move quickly.	146895849	1475906754958	1475906755070	w	87
288128	3092602	I wonder if RBS is another institution which could move quickly.	I wonder if RBS is anohter instintuion which could move quickly.	146895850	1475906755085	1475906755262	h	72
288128	3092602	I wonder if RBS is another institution which could move quickly.	I wonder if RBS is anohter instintuion which could move quickly.	146895852	1475906755310	1475906755454	i	73
288128	3092602	I wonder if RBS is another institution which could move quickly.	I wonder if RBS is anohter instintuion which could move quickly.	146895885	1475906755599	1475906755726	c	67
288128	3092602	I wonder if RBS is another institution which could move quickly.	I wonder if RBS is anohter instintuion which could move quickly.	146895886	1475906755742	1475906755870	h	72
288128	3092602	I wonder if RBS is another institution which could move quickly.	I wonder if RBS is anohter instintuion which could move quickly.	146895887	1475906755902	1475906756110	 	32
288128	3092602	I wonder if RBS is another institution which could move quickly.	I wonder if RBS is anohter instintuion which could move quickly.	146895888	1475906756606	1475906756638	o	79
288128	3092602	I wonder if RBS is another institution which could move quickly.	I wonder if RBS is anohter instintuion which could move quickly.	146895889	1475906756862	1475906756958	c	67
288128	3092602	I wonder if RBS is another institution which could move quickly.	I wonder if RBS is anohter instintuion which could move quickly.	146895947	1475906757167	1475906757246	BKSP	8
288128	3092602	I wonder if RBS is another institution which could move quickly.	I wonder if RBS is anohter instintuion which could move quickly.	146895948	1475906757294	1475906757374	BKSP	8
288128	3092602	I wonder if RBS is another institution which could move quickly.	I wonder if RBS is anohter instintuion which could move quickly.	146895949	1475906757551	1475906757710	o	79
288128	3092602	I wonder if RBS is another institution which could move quickly.	I wonder if RBS is anohter instintuion which could move quickly.	146895950	1475906757743	1475906757839	u	85
288128	3092602	I wonder if RBS is another institution which could move quickly.	I wonder if RBS is anohter instintuion which could move quickly.	146895952	1475906757790	1475906757839	i	73
288128	3092602	I wonder if RBS is another institution which could move quickly.	I wonder if RBS is anohter instintuion which could move quickly.	146895954	1475906758351	1475906758430	BKSP	8
288128	3092602	I wonder if RBS is another institution which could move quickly.	I wonder if RBS is anohter instintuion which could move quickly.	146895956	1475906758510	1475906758574	BKSP	8
288128	3092602	I wonder if RBS is another institution which could move quickly.	I wonder if RBS is anohter instintuion which could move quickly.	146895958	1475906758622	1475906758686	BKSP	8
288128	3092602	I wonder if RBS is another institution which could move quickly.	I wonder if RBS is anohter instintuion which could move quickly.	146895959	1475906758862	1475906759006	c	67
288128	3092602	I wonder if RBS is another institution which could move quickly.	I wonder if RBS is anohter instintuion which could move quickly.	146895960	1475906759022	1475906759181	o	79
288128	3092602	I wonder if RBS is another institution which could move quickly.	I wonder if RBS is anohter instintuion which could move quickly.	146896001	1475906759150	1475906759262	u	85
288128	3092602	I wonder if RBS is another institution which could move quickly.	I wonder if RBS is anohter instintuion which could move quickly.	146896002	1475906759662	1475906759759	l	76
288128	3092602	I wonder if RBS is another institution which could move quickly.	I wonder if RBS is anohter instintuion which could move quickly.	146896003	1475906759823	1475906759950	d	68
288128	3092602	I wonder if RBS is another institution which could move quickly.	I wonder if RBS is anohter instintuion which could move quickly.	146896004	1475906759982	1475906760174	 	32
288128	3092602	I wonder if RBS is another institution which could move quickly.	I wonder if RBS is anohter instintuion which could move quickly.	146896005	1475906760253	1475906760351	m	77
288128	3092602	I wonder if RBS is another institution which could move quickly.	I wonder if RBS is anohter instintuion which could move quickly.	146896006	1475906760414	1475906760510	o	79
288128	3092602	I wonder if RBS is another institution which could move quickly.	I wonder if RBS is anohter instintuion which could move quickly.	146896021	1475906760558	1475906760702	v	86
288128	3092602	I wonder if RBS is another institution which could move quickly.	I wonder if RBS is anohter instintuion which could move quickly.	146896024	1475906760734	1475906760815	e	69
288128	3092602	I wonder if RBS is another institution which could move quickly.	I wonder if RBS is anohter instintuion which could move quickly.	146896027	1475906760815	1475906761006	 	32
288128	3092602	I wonder if RBS is another institution which could move quickly.	I wonder if RBS is anohter instintuion which could move quickly.	146896031	1475906761341	1475906761439	q	81
288128	3092602	I wonder if RBS is another institution which could move quickly.	I wonder if RBS is anohter instintuion which could move quickly.	146896034	1475906761439	1475906761566	u	85
288128	3092602	I wonder if RBS is another institution which could move quickly.	I wonder if RBS is anohter instintuion which could move quickly.	146896070	1475906761569	1475906761678	i	73
288128	3092602	I wonder if RBS is another institution which could move quickly.	I wonder if RBS is anohter instintuion which could move quickly.	146896072	1475906762110	1475906762238	c	67
288128	3092602	I wonder if RBS is another institution which could move quickly.	I wonder if RBS is anohter instintuion which could move quickly.	146896073	1475906762445	1475906762574	l	76
288128	3092602	I wonder if RBS is another institution which could move quickly.	I wonder if RBS is anohter instintuion which could move quickly.	146896075	1475906763038	1475906763133	BKSP	8
288128	3092602	I wonder if RBS is another institution which could move quickly.	I wonder if RBS is anohter instintuion which could move quickly.	146896077	1475906763277	1475906763390	k	75
288128	3092602	I wonder if RBS is another institution which could move quickly.	I wonder if RBS is anohter instintuion which could move quickly.	146896080	1475906763422	1475906763646	l	76
288128	3092602	I wonder if RBS is another institution which could move quickly.	I wonder if RBS is anohter instintuion which could move quickly.	146896109	1475906763614	1475906763710	y	89
288128	3092602	I wonder if RBS is another institution which could move quickly.	I wonder if RBS is anohter instintuion which could move quickly.	146896107	1475906763649	1475906763694	u	85
288128	3092602	I wonder if RBS is another institution which could move quickly.	I wonder if RBS is anohter instintuion which could move quickly.	146896110	1475906764222	1475906764334	BKSP	8
288128	3092602	I wonder if RBS is another institution which could move quickly.	I wonder if RBS is anohter instintuion which could move quickly.	146896112	1475906764878	1475906764974	,	188
288128	3092602	I wonder if RBS is another institution which could move quickly.	I wonder if RBS is anohter instintuion which could move quickly.	146896113	1475906765502	1475906765630	BKSP	8
288128	3092602	I wonder if RBS is another institution which could move quickly.	I wonder if RBS is anohter instintuion which could move quickly.	146896114	1475906765839	1475906765918	.	190
288128	3092621	Tiger Woods is set to answer your questions.	Tiger woods is set to answer your qustions.	146896249	1475906770846	1475906771374	SHIFT	16
288128	3092621	Tiger Woods is set to answer your questions.	Tiger woods is set to answer your qustions.	146896246	1475906771246	1475906771342	T	84
288128	3092621	Tiger Woods is set to answer your questions.	Tiger woods is set to answer your qustions.	146896253	1475906771822	1475906771934	i	73
288128	3092621	Tiger Woods is set to answer your questions.	Tiger woods is set to answer your qustions.	146896257	1475906772062	1475906772142	g	71
288128	3092621	Tiger Woods is set to answer your questions.	Tiger woods is set to answer your qustions.	146896260	1475906772221	1475906772318	e	69
288128	3092621	Tiger Woods is set to answer your questions.	Tiger woods is set to answer your qustions.	146896325	1475906772285	1475906772431	r	82
288128	3092621	Tiger Woods is set to answer your questions.	Tiger woods is set to answer your qustions.	146896328	1475906772445	1475906772638	 	32
288128	3092621	Tiger Woods is set to answer your questions.	Tiger woods is set to answer your qustions.	146896331	1475906773422	1475906773534	w	87
288128	3092621	Tiger Woods is set to answer your questions.	Tiger woods is set to answer your qustions.	146896334	1475906773469	1475906773566	o	79
288128	3092621	Tiger Woods is set to answer your questions.	Tiger woods is set to answer your qustions.	146896336	1475906773998	1475906774093	o	79
288128	3092621	Tiger Woods is set to answer your questions.	Tiger woods is set to answer your qustions.	146896338	1475906774125	1475906774238	d	68
288128	3092621	Tiger Woods is set to answer your questions.	Tiger woods is set to answer your qustions.	146896343	1475906774398	1475906774526	s	83
288128	3092621	Tiger Woods is set to answer your questions.	Tiger woods is set to answer your qustions.	146896344	1475906774541	1475906774686	 	32
288128	3092621	Tiger Woods is set to answer your questions.	Tiger woods is set to answer your qustions.	146896345	1475906774701	1475906774830	i	73
288128	3092621	Tiger Woods is set to answer your questions.	Tiger woods is set to answer your qustions.	146896346	1475906774893	1475906775038	s	83
288128	3092621	Tiger Woods is set to answer your questions.	Tiger woods is set to answer your qustions.	146896347	1475906775069	1475906775246	 	32
288128	3092621	Tiger Woods is set to answer your questions.	Tiger woods is set to answer your qustions.	146896383	1475906775613	1475906775725	s	83
288128	3092621	Tiger Woods is set to answer your questions.	Tiger woods is set to answer your qustions.	146896386	1475906775773	1475906775902	e	69
288128	3092621	Tiger Woods is set to answer your questions.	Tiger woods is set to answer your qustions.	146896389	1475906776126	1475906776238	t	84
288128	3092621	Tiger Woods is set to answer your questions.	Tiger woods is set to answer your qustions.	146896392	1475906776269	1475906776478	 	32
288128	3092621	Tiger Woods is set to answer your questions.	Tiger woods is set to answer your qustions.	146896395	1475906776525	1475906776621	t	84
288128	3092621	Tiger Woods is set to answer your questions.	Tiger woods is set to answer your qustions.	146896422	1475906776605	1475906776718	o	79
288128	3092621	Tiger Woods is set to answer your questions.	Tiger woods is set to answer your qustions.	146896427	1475906776719	1475906776846	 	32
288128	3092621	Tiger Woods is set to answer your questions.	Tiger woods is set to answer your qustions.	146896432	1475906776910	1475906777086	a	65
288128	3092621	Tiger Woods is set to answer your questions.	Tiger woods is set to answer your qustions.	146896437	1475906777101	1475906777230	n	78
288128	3092621	Tiger Woods is set to answer your questions.	Tiger woods is set to answer your qustions.	146896441	1475906777231	1475906777357	s	83
288128	3092621	Tiger Woods is set to answer your questions.	Tiger woods is set to answer your qustions.	146896444	1475906778158	1475906778254	w	87
288128	3092621	Tiger Woods is set to answer your questions.	Tiger woods is set to answer your qustions.	146896467	1475906778285	1475906778462	e	69
288128	3092621	Tiger Woods is set to answer your questions.	Tiger woods is set to answer your qustions.	146896468	1475906778446	1475906778542	r	82
288128	3092621	Tiger Woods is set to answer your questions.	Tiger woods is set to answer your qustions.	146896469	1475906778605	1475906778782	 	32
288128	3092621	Tiger Woods is set to answer your questions.	Tiger woods is set to answer your qustions.	146896470	1475906778957	1475906779086	y	89
288128	3092621	Tiger Woods is set to answer your questions.	Tiger woods is set to answer your qustions.	146896471	1475906779087	1475906779230	o	79
288128	3092621	Tiger Woods is set to answer your questions.	Tiger woods is set to answer your qustions.	146896554	1475906779181	1475906779310	u	85
288128	3092621	Tiger Woods is set to answer your questions.	Tiger woods is set to answer your qustions.	146896555	1475906779486	1475906779662	 	32
288128	3092621	Tiger Woods is set to answer your questions.	Tiger woods is set to answer your qustions.	146896557	1475906780862	1475906780990	BKSP	8
288128	3092621	Tiger Woods is set to answer your questions.	Tiger woods is set to answer your qustions.	146896559	1475906780957	1475906781070	r	82
288128	3092621	Tiger Woods is set to answer your questions.	Tiger woods is set to answer your qustions.	146896561	1475906781085	1475906781278	 	32
288128	3092621	Tiger Woods is set to answer your questions.	Tiger woods is set to answer your qustions.	146896563	1475906781838	1475906781966	q	81
288128	3092621	Tiger Woods is set to answer your questions.	Tiger woods is set to answer your qustions.	146896625	1475906781966	1475906782062	y	85
288128	3092621	Tiger Woods is set to answer your questions.	Tiger woods is set to answer your qustions.	146896626	1475906782638	1475906782734	BKSP	8
288128	3092621	Tiger Woods is set to answer your questions.	Tiger woods is set to answer your qustions.	146896627	1475906782813	1475906782926	s	83
288128	3092621	Tiger Woods is set to answer your questions.	Tiger woods is set to answer your qustions.	146896628	1475906783325	1475906783437	t	84
288128	3092621	Tiger Woods is set to answer your questions.	Tiger woods is set to answer your qustions.	146896629	1475906783438	1475906783566	i	73
288128	3092621	Tiger Woods is set to answer your questions.	Tiger woods is set to answer your qustions.	146896631	1475906783549	1475906783709	o	79
288128	3092621	Tiger Woods is set to answer your questions.	Tiger woods is set to answer your qustions.	146896634	1475906784174	1475906784302	n	78
288128	3092621	Tiger Woods is set to answer your questions.	Tiger woods is set to answer your qustions.	146896652	1475906784317	1475906784462	s	83
288128	3092621	Tiger Woods is set to answer your questions.	Tiger woods is set to answer your qustions.	146896654	1475906784685	1475906784782	.	190
