PARTICIPANT_ID	TEST_SECTION_ID	SENTENCE	USER_INPUT	KEYSTROKE_ID	PRESS_TIME	RELEASE_TIME	LETTER	KEYCODE
288262	3093841	The meeting came days after the entry into Chernomyrdin's team.	The meeting came days after the entry into Chernomydin's team. 	146955936	1475909280278	1475909280375	NA	84
288262	3093841	The meeting came days after the entry into Chernomyrdin's team.	The meeting came days after the entry into Chernomydin's team. 	146955937	1475909280381	1475909280481	NA	72
288262	3093841	The meeting came days after the entry into Chernomyrdin's team.	The meeting came days after the entry into Chernomydin's team. 	146955938	1475909280907	1475909280991		8
288262	3093841	The meeting came days after the entry into Chernomyrdin's team.	The meeting came days after the entry into Chernomydin's team. 	146955939	1475909281061	1475909281137		8
288262	3093841	The meeting came days after the entry into Chernomyrdin's team.	The meeting came days after the entry into Chernomydin's team. 	146955941	1475909281215	1475909281279		8
288262	3093841	The meeting came days after the entry into Chernomyrdin's team.	The meeting came days after the entry into Chernomydin's team. 	146955998	1475909281497	1475909281694	CAPS_LOCK	20
288262	3093841	The meeting came days after the entry into Chernomyrdin's team.	The meeting came days after the entry into Chernomydin's team. 	146955999	1475909281701	1475909281851	NA	84
288262	3093841	The meeting came days after the entry into Chernomyrdin's team.	The meeting came days after the entry into Chernomydin's team. 	146956001	1475909281817	1475909282002	CAPS_LOCK	20
288262	3093841	The meeting came days after the entry into Chernomyrdin's team.	The meeting came days after the entry into Chernomydin's team. 	146956000	1475909281857	1475909281971	NA	72
288262	3093841	The meeting came days after the entry into Chernomyrdin's team.	The meeting came days after the entry into Chernomydin's team. 	146956002	1475909282058	1475909282158	NA	69
288262	3093841	The meeting came days after the entry into Chernomyrdin's team.	The meeting came days after the entry into Chernomydin's team. 	146956003	1475909282121	1475909282233	NA	32
288262	3093841	The meeting came days after the entry into Chernomyrdin's team.	The meeting came days after the entry into Chernomydin's team. 	146956005	1475909282499	1475909282639	NA	77
288262	3093841	The meeting came days after the entry into Chernomyrdin's team.	The meeting came days after the entry into Chernomydin's team. 	146956043	1475909282648	1475909282732	NA	69
288262	3093841	The meeting came days after the entry into Chernomyrdin's team.	The meeting came days after the entry into Chernomydin's team. 	146956044	1475909282805	1475909282925	NA	69
288262	3093841	The meeting came days after the entry into Chernomyrdin's team.	The meeting came days after the entry into Chernomydin's team. 	146956045	1475909283009	1475909283135	NA	84
288262	3093841	The meeting came days after the entry into Chernomyrdin's team.	The meeting came days after the entry into Chernomydin's team. 	146956046	1475909283149	1475909283304	NA	73
288262	3093841	The meeting came days after the entry into Chernomyrdin's team.	The meeting came days after the entry into Chernomydin's team. 	146956047	1475909283357	1475909283446	NA	78
288262	3093841	The meeting came days after the entry into Chernomyrdin's team.	The meeting came days after the entry into Chernomydin's team. 	146956070	1475909283516	1475909283635	NA	71
288262	3093841	The meeting came days after the entry into Chernomyrdin's team.	The meeting came days after the entry into Chernomydin's team. 	146956071	1475909284118	1475909284120	NA	32
288262	3093841	The meeting came days after the entry into Chernomyrdin's team.	The meeting came days after the entry into Chernomydin's team. 	146956072	1475909284136	1475909284152	NA	67
288262	3093841	The meeting came days after the entry into Chernomyrdin's team.	The meeting came days after the entry into Chernomydin's team. 	146956073	1475909284159	1475909284301	NA	65
288262	3093841	The meeting came days after the entry into Chernomyrdin's team.	The meeting came days after the entry into Chernomydin's team. 	146956100	1475909284294	1475909284415	NA	77
288262	3093841	The meeting came days after the entry into Chernomyrdin's team.	The meeting came days after the entry into Chernomydin's team. 	146956102	1475909284442	1475909284548	NA	69
288262	3093841	The meeting came days after the entry into Chernomyrdin's team.	The meeting came days after the entry into Chernomydin's team. 	146956104	1475909284551	1475909284628	NA	32
288262	3093841	The meeting came days after the entry into Chernomyrdin's team.	The meeting came days after the entry into Chernomydin's team. 	146956106	1475909284843	1475909284970	NA	68
288262	3093841	The meeting came days after the entry into Chernomyrdin's team.	The meeting came days after the entry into Chernomydin's team. 	146956107	1475909284991	1475909285137	NA	65
288262	3093841	The meeting came days after the entry into Chernomyrdin's team.	The meeting came days after the entry into Chernomydin's team. 	146956108	1475909285242	1475909285339	NA	89
288262	3093841	The meeting came days after the entry into Chernomyrdin's team.	The meeting came days after the entry into Chernomydin's team. 	146956155	1475909285465	1475909285589	NA	83
288262	3093841	The meeting came days after the entry into Chernomyrdin's team.	The meeting came days after the entry into Chernomydin's team. 	146956157	1475909285599	1475909285696	NA	32
288262	3093841	The meeting came days after the entry into Chernomyrdin's team.	The meeting came days after the entry into Chernomydin's team. 	146956159	1475909285994	1475909286110	NA	65
288262	3093841	The meeting came days after the entry into Chernomyrdin's team.	The meeting came days after the entry into Chernomydin's team. 	146956162	1475909286982	1475909287088	NA	70
288262	3093841	The meeting came days after the entry into Chernomyrdin's team.	The meeting came days after the entry into Chernomydin's team. 	146956164	1475909287226	1475909287373	NA	84
288262	3093841	The meeting came days after the entry into Chernomyrdin's team.	The meeting came days after the entry into Chernomydin's team. 	146956203	1475909287361	1475909287522	NA	69
288262	3093841	The meeting came days after the entry into Chernomyrdin's team.	The meeting came days after the entry into Chernomydin's team. 	146956205	1475909287494	1475909287612	NA	82
288262	3093841	The meeting came days after the entry into Chernomyrdin's team.	The meeting came days after the entry into Chernomydin's team. 	146956207	1475909287688	1475909287785	NA	32
288262	3093841	The meeting came days after the entry into Chernomyrdin's team.	The meeting came days after the entry into Chernomydin's team. 	146956208	1475909287989	1475909288092	NA	84
288262	3093841	The meeting came days after the entry into Chernomyrdin's team.	The meeting came days after the entry into Chernomydin's team. 	146956209	1475909288073	1475909288187	NA	72
288262	3093841	The meeting came days after the entry into Chernomyrdin's team.	The meeting came days after the entry into Chernomydin's team. 	146956227	1475909288163	1475909288280	NA	69
288262	3093841	The meeting came days after the entry into Chernomyrdin's team.	The meeting came days after the entry into Chernomydin's team. 	146956233	1475909288289	1475909288390	NA	32
288262	3093841	The meeting came days after the entry into Chernomyrdin's team.	The meeting came days after the entry into Chernomydin's team. 	146956240	1475909288547	1475909288660	NA	69
288262	3093841	The meeting came days after the entry into Chernomyrdin's team.	The meeting came days after the entry into Chernomydin's team. 	146956245	1475909288663	1475909288764	NA	78
288262	3093841	The meeting came days after the entry into Chernomyrdin's team.	The meeting came days after the entry into Chernomydin's team. 	146956250	1475909288860	1475909288981	NA	84
288262	3093841	The meeting came days after the entry into Chernomyrdin's team.	The meeting came days after the entry into Chernomydin's team. 	146956253	1475909289146	1475909289273	NA	82
288262	3093841	The meeting came days after the entry into Chernomyrdin's team.	The meeting came days after the entry into Chernomydin's team. 	146956273	1475909289342	1475909289454	NA	89
288262	3093841	The meeting came days after the entry into Chernomyrdin's team.	The meeting came days after the entry into Chernomydin's team. 	146956276	1475909289505	1475909289614	NA	32
288262	3093841	The meeting came days after the entry into Chernomyrdin's team.	The meeting came days after the entry into Chernomydin's team. 	146956279	1475909289776	1475909289872	NA	73
288262	3093841	The meeting came days after the entry into Chernomyrdin's team.	The meeting came days after the entry into Chernomydin's team. 	146956281	1475909289977	1475909290069	NA	78
288262	3093841	The meeting came days after the entry into Chernomyrdin's team.	The meeting came days after the entry into Chernomydin's team. 	146956284	1475909290126	1475909290259	NA	84
288262	3093841	The meeting came days after the entry into Chernomyrdin's team.	The meeting came days after the entry into Chernomydin's team. 	146956329	1475909290257	1475909290345	NA	79
288262	3093841	The meeting came days after the entry into Chernomyrdin's team.	The meeting came days after the entry into Chernomydin's team. 	146956330	1475909290397	1475909290484	NA	32
288262	3093841	The meeting came days after the entry into Chernomyrdin's team.	The meeting came days after the entry into Chernomydin's team. 	146956331	1475909290736	1475909290982	CAPS_LOCK	20
288262	3093841	The meeting came days after the entry into Chernomyrdin's team.	The meeting came days after the entry into Chernomydin's team. 	146956332	1475909290983	1475909291058	NA	67
288262	3093841	The meeting came days after the entry into Chernomyrdin's team.	The meeting came days after the entry into Chernomydin's team. 	146956334	1475909291027	1475909291182	CAPS_LOCK	20
288262	3093841	The meeting came days after the entry into Chernomyrdin's team.	The meeting came days after the entry into Chernomydin's team. 	146956336	1475909291110	1475909291226	NA	72
288262	3093841	The meeting came days after the entry into Chernomyrdin's team.	The meeting came days after the entry into Chernomydin's team. 	146956338	1475909291317	1475909291449	NA	69
288262	3093841	The meeting came days after the entry into Chernomyrdin's team.	The meeting came days after the entry into Chernomydin's team. 	146956339	1475909291509	1475909291630	NA	82
288262	3093841	The meeting came days after the entry into Chernomyrdin's team.	The meeting came days after the entry into Chernomydin's team. 	146956376	1475909292230	1475909292314	NA	78
288262	3093841	The meeting came days after the entry into Chernomyrdin's team.	The meeting came days after the entry into Chernomydin's team. 	146956378	1475909292368	1475909292492	NA	79
288262	3093841	The meeting came days after the entry into Chernomyrdin's team.	The meeting came days after the entry into Chernomydin's team. 	146956380	1475909292627	1475909292733	NA	77
288262	3093841	The meeting came days after the entry into Chernomyrdin's team.	The meeting came days after the entry into Chernomydin's team. 	146956384	1475909292870	1475909292970	NA	89
288262	3093841	The meeting came days after the entry into Chernomyrdin's team.	The meeting came days after the entry into Chernomydin's team. 	146956387	1475909293376	1475909293491	NA	68
288262	3093841	The meeting came days after the entry into Chernomyrdin's team.	The meeting came days after the entry into Chernomydin's team. 	146956425	1475909293813	1475909293928	NA	73
288262	3093841	The meeting came days after the entry into Chernomyrdin's team.	The meeting came days after the entry into Chernomydin's team. 	146956426	1475909294015	1475909294112	NA	78
288262	3093841	The meeting came days after the entry into Chernomyrdin's team.	The meeting came days after the entry into Chernomydin's team. 	146956427	1475909294541	1475909294668	NA	222
288262	3093841	The meeting came days after the entry into Chernomyrdin's team.	The meeting came days after the entry into Chernomydin's team. 	146956429	1475909295082	1475909295216	NA	83
288262	3093841	The meeting came days after the entry into Chernomyrdin's team.	The meeting came days after the entry into Chernomydin's team. 	146956433	1475909295222	1475909295322	NA	32
288262	3093841	The meeting came days after the entry into Chernomyrdin's team.	The meeting came days after the entry into Chernomydin's team. 	146956492	1475909295624	1475909295775	NA	84
288262	3093841	The meeting came days after the entry into Chernomyrdin's team.	The meeting came days after the entry into Chernomydin's team. 	146956495	1475909295907	1475909296022	NA	69
288262	3093841	The meeting came days after the entry into Chernomyrdin's team.	The meeting came days after the entry into Chernomydin's team. 	146956498	1475909296089	1475909296204	NA	65
288262	3093841	The meeting came days after the entry into Chernomyrdin's team.	The meeting came days after the entry into Chernomydin's team. 	146956501	1475909296232	1475909296355	NA	77
288262	3093841	The meeting came days after the entry into Chernomyrdin's team.	The meeting came days after the entry into Chernomydin's team. 	146956503	1475909296606	1475909296745	NA	190
288262	3093841	The meeting came days after the entry into Chernomyrdin's team.	The meeting came days after the entry into Chernomydin's team. 	146956589	1475909296820	1475909296920	NA	32
288262	3093856	I have already approved and forwarded.	I have already approved and forwarded.	146956687	1475909301927	1475909302063	CAPS_LOCK	20
288262	3093856	I have already approved and forwarded.	I have already approved and forwarded.	146956689	1475909301998	1475909302147	NA	73
288262	3093856	I have already approved and forwarded.	I have already approved and forwarded.	146956691	1475909302174	1475909302270	CAPS_LOCK	20
288262	3093856	I have already approved and forwarded.	I have already approved and forwarded.	146956692	1475909302248	1475909302354	NA	32
288262	3093856	I have already approved and forwarded.	I have already approved and forwarded.	146956693	1475909302453	1475909302577	NA	72
288262	3093856	I have already approved and forwarded.	I have already approved and forwarded.	146956694	1475909302649	1475909302735	NA	65
288262	3093856	I have already approved and forwarded.	I have already approved and forwarded.	146956696	1475909302783	1475909302916	NA	86
288262	3093856	I have already approved and forwarded.	I have already approved and forwarded.	146956715	1475909302923	1475909303038	NA	69
288262	3093856	I have already approved and forwarded.	I have already approved and forwarded.	146956717	1475909303044	1475909303150	NA	32
288262	3093856	I have already approved and forwarded.	I have already approved and forwarded.	146956720	1475909303446	1475909303580	NA	65
288262	3093856	I have already approved and forwarded.	I have already approved and forwarded.	146956723	1475909303583	1475909303694	NA	76
288262	3093856	I have already approved and forwarded.	I have already approved and forwarded.	146956726	1475909303893	1475909304037	NA	82
288262	3093856	I have already approved and forwarded.	I have already approved and forwarded.	146956748	1475909304009	1475909304133	NA	69
288262	3093856	I have already approved and forwarded.	I have already approved and forwarded.	146956749	1475909304175	1475909304318	NA	65
288262	3093856	I have already approved and forwarded.	I have already approved and forwarded.	146956751	1475909304336	1475909304482	NA	68
288262	3093856	I have already approved and forwarded.	I have already approved and forwarded.	146956753	1475909304530	1475909304619	NA	89
288262	3093856	I have already approved and forwarded.	I have already approved and forwarded.	146956755	1475909304684	1475909304775	NA	32
288262	3093856	I have already approved and forwarded.	I have already approved and forwarded.	146956759	1475909304928	1475909305057	NA	65
288262	3093856	I have already approved and forwarded.	I have already approved and forwarded.	146956777	1475909305038	1475909305132	NA	80
288262	3093856	I have already approved and forwarded.	I have already approved and forwarded.	146956778	1475909305231	1475909305301	NA	80
288262	3093856	I have already approved and forwarded.	I have already approved and forwarded.	146956779	1475909305614	1475909305726	NA	82
288262	3093856	I have already approved and forwarded.	I have already approved and forwarded.	146956780	1475909305742	1475909305872	NA	79
288262	3093856	I have already approved and forwarded.	I have already approved and forwarded.	146956782	1475909305953	1475909306074	NA	86
288262	3093856	I have already approved and forwarded.	I have already approved and forwarded.	146956784	1475909306155	1475909306268	NA	69
288262	3093856	I have already approved and forwarded.	I have already approved and forwarded.	146956810	1475909306360	1475909306502	NA	68
288262	3093856	I have already approved and forwarded.	I have already approved and forwarded.	146956812	1475909306515	1475909306630	NA	32
288262	3093856	I have already approved and forwarded.	I have already approved and forwarded.	146956817	1475909306797	1475909306882	NA	65
288262	3093856	I have already approved and forwarded.	I have already approved and forwarded.	146956822	1475909306895	1475909307013	NA	78
288262	3093856	I have already approved and forwarded.	I have already approved and forwarded.	146956946	1475909307032	1475909309331	NA	68
288262	3093856	I have already approved and forwarded.	I have already approved and forwarded.	146956829	1475909307148	1475909307254	NA	32
288262	3093856	I have already approved and forwarded.	I have already approved and forwarded.	146956877	1475909307483	1475909307595	NA	70
288262	3093856	I have already approved and forwarded.	I have already approved and forwarded.	146956879	1475909307629	1475909307762	NA	79
288262	3093856	I have already approved and forwarded.	I have already approved and forwarded.	146956881	1475909307828	1475909307934	NA	82
288262	3093856	I have already approved and forwarded.	I have already approved and forwarded.	146956883	1475909308250	1475909308351	NA	87
288262	3093856	I have already approved and forwarded.	I have already approved and forwarded.	146956885	1475909308465	1475909308634	NA	65
288262	3093856	I have already approved and forwarded.	I have already approved and forwarded.	146956943	1475909308740	1475909308842	NA	82
288262	3093856	I have already approved and forwarded.	I have already approved and forwarded.	146956950	1475909309428	1475909309535	NA	69
288262	3093856	I have already approved and forwarded.	I have already approved and forwarded.	146956954	1475909309655	1475909309764	NA	68
288262	3093856	I have already approved and forwarded.	I have already approved and forwarded.	146956958	1475909310565	1475909310659		8
288262	3093856	I have already approved and forwarded.	I have already approved and forwarded.	146956960	1475909310743	1475909310804		8
288262	3093856	I have already approved and forwarded.	I have already approved and forwarded.	146957008	1475909310873	1475909310958		8
288262	3093856	I have already approved and forwarded.	I have already approved and forwarded.	146957011	1475909311304	1475909311382	NA	82
288262	3093856	I have already approved and forwarded.	I have already approved and forwarded.	146957017	1475909311779	1475909311870	NA	68
288262	3093856	I have already approved and forwarded.	I have already approved and forwarded.	146957019	1475909311939	1475909312090	NA	69
288262	3093856	I have already approved and forwarded.	I have already approved and forwarded.	146957021	1475909312222	1475909312349	NA	68
288262	3093856	I have already approved and forwarded.	I have already approved and forwarded.	146957066	1475909312535	1475909312661	NA	190
288262	3093856	I have already approved and forwarded.	I have already approved and forwarded.	146957068	1475909312745	1475909312827	NA	32
288262	3093856	I have already approved and forwarded.	I have already approved and forwarded.	146957070	1475909313604	1475909313698		8
288262	3093864	If so what was it?	If so what was it?	146957257	1475909318363	1475909318517	CAPS_LOCK	20
288262	3093864	If so what was it?	If so what was it?	146957258	1475909318488	1475909318629	NA	73
288262	3093864	If so what was it?	If so what was it?	146957259	1475909318607	1475909318749	CAPS_LOCK	20
288262	3093864	If so what was it?	If so what was it?	146957260	1475909318893	1475909319011	NA	70
288262	3093864	If so what was it?	If so what was it?	146957261	1475909319226	1475909319332	NA	32
288262	3093864	If so what was it?	If so what was it?	146957262	1475909319482	1475909319588	NA	83
288262	3093864	If so what was it?	If so what was it?	146957263	1475909319613	1475909319697	NA	79
288262	3093864	If so what was it?	If so what was it?	146957295	1475909319770	1475909319861	NA	32
288262	3093864	If so what was it?	If so what was it?	146957296	1475909319989	1475909320090	NA	87
288262	3093864	If so what was it?	If so what was it?	146957297	1475909320153	1475909320271	NA	72
288262	3093864	If so what was it?	If so what was it?	146957299	1475909320394	1475909320549	NA	65
288262	3093864	If so what was it?	If so what was it?	146957301	1475909320761	1475909320849	NA	32
288262	3093864	If so what was it?	If so what was it?	146957330	1475909321429	1475909321544		8
288262	3093864	If so what was it?	If so what was it?	146957334	1475909321664	1475909321761	NA	84
288262	3093864	If so what was it?	If so what was it?	146957341	1475909321852	1475909321945	NA	32
288262	3093864	If so what was it?	If so what was it?	146957347	1475909322137	1475909322255	NA	87
288262	3093864	If so what was it?	If so what was it?	146957351	1475909322384	1475909322519	NA	65
288262	3093864	If so what was it?	If so what was it?	146957429	1475909322509	1475909322667	NA	83
288262	3093864	If so what was it?	If so what was it?	146957430	1475909322742	1475909322830	NA	32
288262	3093864	If so what was it?	If so what was it?	146957432	1475909323084	1475909323211	NA	73
288262	3093864	If so what was it?	If so what was it?	146957434	1475909323227	1475909323332	NA	84
288262	3093864	If so what was it?	If so what was it?	146957437	1475909324194	1475909324414	SHIFT	16
288262	3093864	If so what was it?	If so what was it?	146957440	1475909324315	1475909324519	NA	191
288262	3093864	If so what was it?	If so what was it?	146957443	1475909324749	1475909324779	NA	32
288262	3093864	If so what was it?	If so what was it?	146957474	1475909325363	1475909325487		8
288262	3093874	Then there's the Palm?	Then there's the Palm?	146957643	1475909328243	1475909328400	CAPS_LOCK	20
288262	3093874	Then there's the Palm?	Then there's the Palm?	146957645	1475909328404	1475909328554	NA	84
288262	3093874	Then there's the Palm?	Then there's the Palm?	146957648	1475909328520	1475909328674	CAPS_LOCK	20
288262	3093874	Then there's the Palm?	Then there's the Palm?	146957653	1475909328624	1475909328734	NA	72
288262	3093874	Then there's the Palm?	Then there's the Palm?	146957657	1475909328764	1475909328843	NA	69
288262	3093874	Then there's the Palm?	Then there's the Palm?	146957661	1475909328927	1475909329033	NA	78
288262	3093874	Then there's the Palm?	Then there's the Palm?	146957663	1475909329108	1475909329208	NA	32
288262	3093874	Then there's the Palm?	Then there's the Palm?	146957676	1475909329397	1475909329522	NA	84
288262	3093874	Then there's the Palm?	Then there's the Palm?	146957680	1475909329509	1475909329628	NA	72
288262	3093874	Then there's the Palm?	Then there's the Palm?	146957683	1475909329643	1475909329817	NA	69
288262	3093874	Then there's the Palm?	Then there's the Palm?	146957686	1475909329804	1475909329948	NA	82
288262	3093874	Then there's the Palm?	Then there's the Palm?	146957736	1475909329939	1475909330059	NA	69
288262	3093874	Then there's the Palm?	Then there's the Palm?	146957737	1475909330378	1475909330466	NA	222
288262	3093874	Then there's the Palm?	Then there's the Palm?	146957738	1475909331068	1475909331217	NA	83
288262	3093874	Then there's the Palm?	Then there's the Palm?	146957739	1475909331283	1475909331377	NA	32
288262	3093874	Then there's the Palm?	Then there's the Palm?	146957740	1475909331583	1475909331695	NA	84
288262	3093874	Then there's the Palm?	Then there's the Palm?	146957742	1475909331717	1475909331834	NA	72
288262	3093874	Then there's the Palm?	Then there's the Palm?	146957814	1475909331824	1475909331923	NA	69
288262	3093874	Then there's the Palm?	Then there's the Palm?	146957815	1475909331948	1475909332045	NA	32
288262	3093874	Then there's the Palm?	Then there's the Palm?	146957816	1475909332305	1475909332455	CAPS_LOCK	20
288262	3093874	Then there's the Palm?	Then there's the Palm?	146957818	1475909332418	1475909332515	NA	80
288262	3093874	Then there's the Palm?	Then there's the Palm?	146957820	1475909332573	1475909332696	CAPS_LOCK	20
288262	3093874	Then there's the Palm?	Then there's the Palm?	146957822	1475909332891	1475909333021	NA	65
288262	3093874	Then there's the Palm?	Then there's the Palm?	146957824	1475909333043	1475909333146	NA	76
288262	3093874	Then there's the Palm?	Then there's the Palm?	146957826	1475909333337	1475909333494	NA	77
288262	3093874	Then there's the Palm?	Then there's the Palm?	146957912	1475909334474	1475909335086	SHIFT	16
288262	3093874	Then there's the Palm?	Then there's the Palm?	146957909	1475909334873	1475909335008	NA	191
288262	3093883	Clinton on the other hand, had backed a plan to convince Europe.	Clinton on the other hand, had backed a plan to convince Europe.	146958027	1475909338525	1475909338752	CAPS_LOCK	20
288262	3093883	Clinton on the other hand, had backed a plan to convince Europe.	Clinton on the other hand, had backed a plan to convince Europe.	146958028	1475909338768	1475909338927	NA	67
288262	3093883	Clinton on the other hand, had backed a plan to convince Europe.	Clinton on the other hand, had backed a plan to convince Europe.	146958029	1475909338893	1475909339060	CAPS_LOCK	20
288262	3093883	Clinton on the other hand, had backed a plan to convince Europe.	Clinton on the other hand, had backed a plan to convince Europe.	146958031	1475909339081	1475909339166	NA	76
288262	3093883	Clinton on the other hand, had backed a plan to convince Europe.	Clinton on the other hand, had backed a plan to convince Europe.	146958034	1475909339253	1475909339380	NA	73
288262	3093883	Clinton on the other hand, had backed a plan to convince Europe.	Clinton on the other hand, had backed a plan to convince Europe.	146958037	1475909339497	1475909339606	NA	78
288262	3093883	Clinton on the other hand, had backed a plan to convince Europe.	Clinton on the other hand, had backed a plan to convince Europe.	146958039	1475909339678	1475909339804	NA	84
288262	3093883	Clinton on the other hand, had backed a plan to convince Europe.	Clinton on the other hand, had backed a plan to convince Europe.	146958071	1475909339794	1475909339912	NA	79
288262	3093883	Clinton on the other hand, had backed a plan to convince Europe.	Clinton on the other hand, had backed a plan to convince Europe.	146958075	1475909340025	1475909340114	NA	78
288262	3093883	Clinton on the other hand, had backed a plan to convince Europe.	Clinton on the other hand, had backed a plan to convince Europe.	146958077	1475909340207	1475909340283	NA	32
288262	3093883	Clinton on the other hand, had backed a plan to convince Europe.	Clinton on the other hand, had backed a plan to convince Europe.	146958078	1475909340355	1475909340479	NA	79
288262	3093883	Clinton on the other hand, had backed a plan to convince Europe.	Clinton on the other hand, had backed a plan to convince Europe.	146958080	1475909340641	1475909340728	NA	78
288262	3093883	Clinton on the other hand, had backed a plan to convince Europe.	Clinton on the other hand, had backed a plan to convince Europe.	146958082	1475909340894	1475909340993	NA	32
288262	3093883	Clinton on the other hand, had backed a plan to convince Europe.	Clinton on the other hand, had backed a plan to convince Europe.	146958114	1475909341074	1475909341168	NA	84
288262	3093883	Clinton on the other hand, had backed a plan to convince Europe.	Clinton on the other hand, had backed a plan to convince Europe.	146958120	1475909341171	1475909341281	NA	72
288262	3093883	Clinton on the other hand, had backed a plan to convince Europe.	Clinton on the other hand, had backed a plan to convince Europe.	146958125	1475909341290	1475909341378	NA	69
288262	3093883	Clinton on the other hand, had backed a plan to convince Europe.	Clinton on the other hand, had backed a plan to convince Europe.	146958131	1475909341403	1475909341494	NA	32
288262	3093883	Clinton on the other hand, had backed a plan to convince Europe.	Clinton on the other hand, had backed a plan to convince Europe.	146958138	1475909341632	1475909341741	NA	79
288262	3093883	Clinton on the other hand, had backed a plan to convince Europe.	Clinton on the other hand, had backed a plan to convince Europe.	146958161	1475909341813	1475909341899	NA	84
288262	3093883	Clinton on the other hand, had backed a plan to convince Europe.	Clinton on the other hand, had backed a plan to convince Europe.	146958164	1475909341911	1475909342022	NA	72
288262	3093883	Clinton on the other hand, had backed a plan to convince Europe.	Clinton on the other hand, had backed a plan to convince Europe.	146958167	1475909342032	1475909342180	NA	69
288262	3093883	Clinton on the other hand, had backed a plan to convince Europe.	Clinton on the other hand, had backed a plan to convince Europe.	146958170	1475909342184	1475909342272	NA	82
288262	3093883	Clinton on the other hand, had backed a plan to convince Europe.	Clinton on the other hand, had backed a plan to convince Europe.	146958175	1475909342305	1475909342354	NA	32
288262	3093883	Clinton on the other hand, had backed a plan to convince Europe.	Clinton on the other hand, had backed a plan to convince Europe.	146958219	1475909342486	1475909342598	NA	72
288262	3093883	Clinton on the other hand, had backed a plan to convince Europe.	Clinton on the other hand, had backed a plan to convince Europe.	146958222	1475909342617	1475909342720	NA	65
288262	3093883	Clinton on the other hand, had backed a plan to convince Europe.	Clinton on the other hand, had backed a plan to convince Europe.	146958228	1475909342796	1475909342904	NA	78
288262	3093883	Clinton on the other hand, had backed a plan to convince Europe.	Clinton on the other hand, had backed a plan to convince Europe.	146958232	1475909343057	1475909343169	NA	68
288262	3093883	Clinton on the other hand, had backed a plan to convince Europe.	Clinton on the other hand, had backed a plan to convince Europe.	146958235	1475909343552	1475909343659	NA	77
288262	3093883	Clinton on the other hand, had backed a plan to convince Europe.	Clinton on the other hand, had backed a plan to convince Europe.	146958311	1475909343749	1475909343834	NA	32
288262	3093883	Clinton on the other hand, had backed a plan to convince Europe.	Clinton on the other hand, had backed a plan to convince Europe.	146958314	1475909344314	1475909344402		8
288262	3093883	Clinton on the other hand, had backed a plan to convince Europe.	Clinton on the other hand, had backed a plan to convince Europe.	146958315	1475909344468	1475909344556		8
288262	3093883	Clinton on the other hand, had backed a plan to convince Europe.	Clinton on the other hand, had backed a plan to convince Europe.	146958317	1475909345306	1475909345388	NA	188
288262	3093883	Clinton on the other hand, had backed a plan to convince Europe.	Clinton on the other hand, had backed a plan to convince Europe.	146958319	1475909345467	1475909345560	NA	32
288262	3093883	Clinton on the other hand, had backed a plan to convince Europe.	Clinton on the other hand, had backed a plan to convince Europe.	146958368	1475909345868	1475909345962	NA	72
288262	3093883	Clinton on the other hand, had backed a plan to convince Europe.	Clinton on the other hand, had backed a plan to convince Europe.	146958372	1475909345998	1475909346141	NA	65
288262	3093883	Clinton on the other hand, had backed a plan to convince Europe.	Clinton on the other hand, had backed a plan to convince Europe.	146958375	1475909346234	1475909346349	NA	68
288262	3093883	Clinton on the other hand, had backed a plan to convince Europe.	Clinton on the other hand, had backed a plan to convince Europe.	146958378	1475909346373	1475909346455	NA	32
288262	3093883	Clinton on the other hand, had backed a plan to convince Europe.	Clinton on the other hand, had backed a plan to convince Europe.	146958380	1475909346834	1475909346865	NA	78
288262	3093883	Clinton on the other hand, had backed a plan to convince Europe.	Clinton on the other hand, had backed a plan to convince Europe.	146958429	1475909347371	1475909347489		8
288262	3093883	Clinton on the other hand, had backed a plan to convince Europe.	Clinton on the other hand, had backed a plan to convince Europe.	146958430	1475909348784	1475909348902	NA	66
288262	3093883	Clinton on the other hand, had backed a plan to convince Europe.	Clinton on the other hand, had backed a plan to convince Europe.	146958431	1475909348921	1475909349063	NA	65
288262	3093883	Clinton on the other hand, had backed a plan to convince Europe.	Clinton on the other hand, had backed a plan to convince Europe.	146958432	1475909349210	1475909349354	NA	67
288262	3093883	Clinton on the other hand, had backed a plan to convince Europe.	Clinton on the other hand, had backed a plan to convince Europe.	146958463	1475909349314	1475909349444	NA	75
288262	3093883	Clinton on the other hand, had backed a plan to convince Europe.	Clinton on the other hand, had backed a plan to convince Europe.	146958466	1475909349478	1475909349575	NA	69
288262	3093883	Clinton on the other hand, had backed a plan to convince Europe.	Clinton on the other hand, had backed a plan to convince Europe.	146958469	1475909349677	1475909349801	NA	68
288262	3093883	Clinton on the other hand, had backed a plan to convince Europe.	Clinton on the other hand, had backed a plan to convince Europe.	146958474	1475909349813	1475909349901	NA	32
288262	3093883	Clinton on the other hand, had backed a plan to convince Europe.	Clinton on the other hand, had backed a plan to convince Europe.	146958476	1475909350024	1475909350158	NA	65
288262	3093883	Clinton on the other hand, had backed a plan to convince Europe.	Clinton on the other hand, had backed a plan to convince Europe.	146958478	1475909350218	1475909350333	NA	32
288262	3093883	Clinton on the other hand, had backed a plan to convince Europe.	Clinton on the other hand, had backed a plan to convince Europe.	146958506	1475909350509	1475909350624	NA	80
288262	3093883	Clinton on the other hand, had backed a plan to convince Europe.	Clinton on the other hand, had backed a plan to convince Europe.	146958508	1475909350756	1475909350883	NA	76
288262	3093883	Clinton on the other hand, had backed a plan to convince Europe.	Clinton on the other hand, had backed a plan to convince Europe.	146958510	1475909350901	1475909351015	NA	65
288262	3093883	Clinton on the other hand, had backed a plan to convince Europe.	Clinton on the other hand, had backed a plan to convince Europe.	146958513	1475909351156	1475909351204	NA	78
288262	3093883	Clinton on the other hand, had backed a plan to convince Europe.	Clinton on the other hand, had backed a plan to convince Europe.	146958518	1475909351300	1475909351391	NA	32
288262	3093883	Clinton on the other hand, had backed a plan to convince Europe.	Clinton on the other hand, had backed a plan to convince Europe.	146958545	1475909351526	1475909351660	NA	84
288262	3093883	Clinton on the other hand, had backed a plan to convince Europe.	Clinton on the other hand, had backed a plan to convince Europe.	146958548	1475909351633	1475909351748	NA	79
288262	3093883	Clinton on the other hand, had backed a plan to convince Europe.	Clinton on the other hand, had backed a plan to convince Europe.	146958550	1475909351800	1475909351891	NA	32
288262	3093883	Clinton on the other hand, had backed a plan to convince Europe.	Clinton on the other hand, had backed a plan to convince Europe.	146958555	1475909352019	1475909352158	NA	67
288262	3093883	Clinton on the other hand, had backed a plan to convince Europe.	Clinton on the other hand, had backed a plan to convince Europe.	146958617	1475909352126	1475909352229	NA	79
288262	3093883	Clinton on the other hand, had backed a plan to convince Europe.	Clinton on the other hand, had backed a plan to convince Europe.	146958619	1475909352363	1475909352443	NA	78
288262	3093883	Clinton on the other hand, had backed a plan to convince Europe.	Clinton on the other hand, had backed a plan to convince Europe.	146958622	1475909352701	1475909352830	NA	86
288262	3093883	Clinton on the other hand, had backed a plan to convince Europe.	Clinton on the other hand, had backed a plan to convince Europe.	146958626	1475909352845	1475909352963	NA	73
288262	3093883	Clinton on the other hand, had backed a plan to convince Europe.	Clinton on the other hand, had backed a plan to convince Europe.	146958630	1475909353166	1475909353251	NA	78
288262	3093883	Clinton on the other hand, had backed a plan to convince Europe.	Clinton on the other hand, had backed a plan to convince Europe.	146958632	1475909353621	1475909353793	NA	67
288262	3093883	Clinton on the other hand, had backed a plan to convince Europe.	Clinton on the other hand, had backed a plan to convince Europe.	146958706	1475909353785	1475909353897	NA	69
288262	3093883	Clinton on the other hand, had backed a plan to convince Europe.	Clinton on the other hand, had backed a plan to convince Europe.	146958709	1475909353996	1475909354090	NA	32
288262	3093883	Clinton on the other hand, had backed a plan to convince Europe.	Clinton on the other hand, had backed a plan to convince Europe.	146958711	1475909354694	1475909354873	CAPS_LOCK	20
288262	3093883	Clinton on the other hand, had backed a plan to convince Europe.	Clinton on the other hand, had backed a plan to convince Europe.	146958712	1475909354916	1475909355053	NA	69
288262	3093883	Clinton on the other hand, had backed a plan to convince Europe.	Clinton on the other hand, had backed a plan to convince Europe.	146958713	1475909355041	1475909355216	CAPS_LOCK	20
288262	3093883	Clinton on the other hand, had backed a plan to convince Europe.	Clinton on the other hand, had backed a plan to convince Europe.	146958714	1475909355535	1475909355644	NA	85
288262	3093883	Clinton on the other hand, had backed a plan to convince Europe.	Clinton on the other hand, had backed a plan to convince Europe.	146958715	1475909355987	1475909356096	NA	82
288262	3093883	Clinton on the other hand, had backed a plan to convince Europe.	Clinton on the other hand, had backed a plan to convince Europe.	146958716	1475909356510	1475909356690	NA	79
288262	3093883	Clinton on the other hand, had backed a plan to convince Europe.	Clinton on the other hand, had backed a plan to convince Europe.	146958785	1475909356671	1475909356792	NA	80
288262	3093883	Clinton on the other hand, had backed a plan to convince Europe.	Clinton on the other hand, had backed a plan to convince Europe.	146958787	1475909357058	1475909357182	NA	69
288262	3093883	Clinton on the other hand, had backed a plan to convince Europe.	Clinton on the other hand, had backed a plan to convince Europe.	146958791	1475909357347	1475909357470	NA	190
288262	3093883	Clinton on the other hand, had backed a plan to convince Europe.	Clinton on the other hand, had backed a plan to convince Europe.	146958793	1475909357534	1475909357609	NA	32
288262	3093883	Clinton on the other hand, had backed a plan to convince Europe.	Clinton on the other hand, had backed a plan to convince Europe.	146958794	1475909358203	1475909358317		8
288262	3093903	Is this the only time available?	Is this the only time available?	146958924	1475909361342	1475909361449	CAPS_LOCK	20
288262	3093903	Is this the only time available?	Is this the only time available?	146958926	1475909361483	1475909361624	NA	73
288262	3093903	Is this the only time available?	Is this the only time available?	146958930	1475909361548	1475909361763	CAPS_LOCK	20
288262	3093903	Is this the only time available?	Is this the only time available?	146958935	1475909361960	1475909362091	NA	83
288262	3093903	Is this the only time available?	Is this the only time available?	146958938	1475909362124	1475909362230	NA	32
288262	3093903	Is this the only time available?	Is this the only time available?	146958942	1475909362317	1475909362405	NA	84
288262	3093903	Is this the only time available?	Is this the only time available?	146958944	1475909362409	1475909362503	NA	72
288262	3093903	Is this the only time available?	Is this the only time available?	146958963	1475909362557	1475909362668	NA	73
288262	3093903	Is this the only time available?	Is this the only time available?	146958965	1475909362649	1475909362771	NA	83
288262	3093903	Is this the only time available?	Is this the only time available?	146958966	1475909362780	1475909362877	NA	32
288262	3093903	Is this the only time available?	Is this the only time available?	146958967	1475909363301	1475909363411	NA	84
288262	3093903	Is this the only time available?	Is this the only time available?	146958988	1475909363405	1475909363507	NA	72
288262	3093903	Is this the only time available?	Is this the only time available?	146958989	1475909363535	1475909363620	NA	69
288262	3093903	Is this the only time available?	Is this the only time available?	146958990	1475909363654	1475909363739	NA	32
288262	3093903	Is this the only time available?	Is this the only time available?	146958991	1475909363855	1475909363952	NA	79
288262	3093903	Is this the only time available?	Is this the only time available?	146958992	1475909364084	1475909364175	NA	78
288262	3093903	Is this the only time available?	Is this the only time available?	146958993	1475909364235	1475909364353	NA	76
288262	3093903	Is this the only time available?	Is this the only time available?	146959014	1475909364456	1475909364540	NA	89
288262	3093903	Is this the only time available?	Is this the only time available?	146959019	1475909364603	1475909364715	NA	32
288262	3093903	Is this the only time available?	Is this the only time available?	146959025	1475909364906	1475909365024	NA	84
288262	3093903	Is this the only time available?	Is this the only time available?	146959029	1475909365010	1475909365089	NA	73
288262	3093903	Is this the only time available?	Is this the only time available?	146959032	1475909365224	1475909365321	NA	77
288262	3093903	Is this the only time available?	Is this the only time available?	146959061	1475909365328	1475909365422	NA	69
288262	3093903	Is this the only time available?	Is this the only time available?	146959063	1475909365434	1475909365540	NA	32
288262	3093903	Is this the only time available?	Is this the only time available?	146959064	1475909365753	1475909365868	NA	65
288262	3093903	Is this the only time available?	Is this the only time available?	146959067	1475909365993	1475909366102	NA	86
288262	3093903	Is this the only time available?	Is this the only time available?	146959068	1475909366109	1475909366241	NA	65
288262	3093903	Is this the only time available?	Is this the only time available?	146959078	1475909366220	1475909366332	NA	73
288262	3093903	Is this the only time available?	Is this the only time available?	146959080	1475909366431	1475909366519	NA	76
288262	3093903	Is this the only time available?	Is this the only time available?	146959082	1475909366570	1475909366676	NA	65
288262	3093903	Is this the only time available?	Is this the only time available?	146959083	1475909366686	1475909366798	NA	66
288262	3093903	Is this the only time available?	Is this the only time available?	146959084	1475909366921	1475909366979	NA	76
288262	3093903	Is this the only time available?	Is this the only time available?	146959085	1475909367075	1475909367169	NA	69
288262	3093903	Is this the only time available?	Is this the only time available?	146959143	1475909368020	1475909368870	SHIFT	16
288262	3093903	Is this the only time available?	Is this the only time available?	146959141	1475909368676	1475909368789	NA	191
288262	3093912	Last year I made some mistakes here.	Last year I made some mistakes here.	146959250	1475909371864	1475909371987	CAPS_LOCK	20
288262	3093912	Last year I made some mistakes here.	Last year I made some mistakes here.	146959252	1475909371959	1475909372065	NA	76
288262	3093912	Last year I made some mistakes here.	Last year I made some mistakes here.	146959257	1475909372105	1475909372300	CAPS_LOCK	20
288262	3093912	Last year I made some mistakes here.	Last year I made some mistakes here.	146959261	1475909372266	1475909372385	NA	65
288262	3093912	Last year I made some mistakes here.	Last year I made some mistakes here.	146959267	1475909372847	1475909373020	NA	83
288262	3093912	Last year I made some mistakes here.	Last year I made some mistakes here.	146959272	1475909373164	1475909373279	NA	84
288262	3093912	Last year I made some mistakes here.	Last year I made some mistakes here.	146959275	1475909373339	1475909373418	NA	32
288262	3093912	Last year I made some mistakes here.	Last year I made some mistakes here.	146959308	1475909373633	1475909373733	NA	89
288262	3093912	Last year I made some mistakes here.	Last year I made some mistakes here.	146959310	1475909373772	1475909373875	NA	69
288262	3093912	Last year I made some mistakes here.	Last year I made some mistakes here.	146959312	1475909373929	1475909374075	NA	65
288262	3093912	Last year I made some mistakes here.	Last year I made some mistakes here.	146959315	1475909374332	1475909374426	NA	82
288262	3093912	Last year I made some mistakes here.	Last year I made some mistakes here.	146959318	1475909374560	1475909374642	NA	32
288262	3093912	Last year I made some mistakes here.	Last year I made some mistakes here.	146959339	1475909374765	1475909374868	CAPS_LOCK	20
288262	3093912	Last year I made some mistakes here.	Last year I made some mistakes here.	146959341	1475909374877	1475909374991	NA	73
288262	3093912	Last year I made some mistakes here.	Last year I made some mistakes here.	146959343	1475909374979	1475909375086	CAPS_LOCK	20
288262	3093912	Last year I made some mistakes here.	Last year I made some mistakes here.	146959349	1475909375058	1475909375155	NA	32
288262	3093912	Last year I made some mistakes here.	Last year I made some mistakes here.	146959351	1475909375261	1475909375374	NA	77
288262	3093912	Last year I made some mistakes here.	Last year I made some mistakes here.	146959356	1475909375424	1475909375503	NA	65
288262	3093912	Last year I made some mistakes here.	Last year I made some mistakes here.	146959360	1475909375602	1475909375723	NA	68
288262	3093912	Last year I made some mistakes here.	Last year I made some mistakes here.	146959396	1475909376048	1475909376157	NA	69
288262	3093912	Last year I made some mistakes here.	Last year I made some mistakes here.	146959399	1475909376274	1475909376390	NA	32
288262	3093912	Last year I made some mistakes here.	Last year I made some mistakes here.	146959406	1475909376554	1475909376679	NA	83
288262	3093912	Last year I made some mistakes here.	Last year I made some mistakes here.	146959410	1475909376670	1475909376749	NA	79
288262	3093912	Last year I made some mistakes here.	Last year I made some mistakes here.	146959412	1475909376887	1475909376971	NA	77
288262	3093912	Last year I made some mistakes here.	Last year I made some mistakes here.	146959431	1475909376990	1475909377087	NA	69
288262	3093912	Last year I made some mistakes here.	Last year I made some mistakes here.	146959433	1475909377129	1475909377214	NA	32
288262	3093912	Last year I made some mistakes here.	Last year I made some mistakes here.	146959436	1475909377349	1475909377433	NA	77
288262	3093912	Last year I made some mistakes here.	Last year I made some mistakes here.	146959438	1475909377509	1475909377639	NA	73
288262	3093912	Last year I made some mistakes here.	Last year I made some mistakes here.	146959442	1475909377651	1475909377767	NA	83
288262	3093912	Last year I made some mistakes here.	Last year I made some mistakes here.	146959471	1475909377917	1475909378026	NA	84
288262	3093912	Last year I made some mistakes here.	Last year I made some mistakes here.	146959472	1475909378047	1475909378196	NA	65
288262	3093912	Last year I made some mistakes here.	Last year I made some mistakes here.	146959473	1475909378230	1475909378338	NA	75
288262	3093912	Last year I made some mistakes here.	Last year I made some mistakes here.	146959474	1475909378387	1475909378467	NA	69
288262	3093912	Last year I made some mistakes here.	Last year I made some mistakes here.	146959475	1475909378815	1475909378954	NA	83
288262	3093912	Last year I made some mistakes here.	Last year I made some mistakes here.	146959502	1475909378982	1475909379067	NA	32
288262	3093912	Last year I made some mistakes here.	Last year I made some mistakes here.	146959503	1475909379347	1475909379447	NA	72
288262	3093912	Last year I made some mistakes here.	Last year I made some mistakes here.	146959504	1475909379451	1475909379626	NA	69
288262	3093912	Last year I made some mistakes here.	Last year I made some mistakes here.	146959505	1475909379615	1475909379736	NA	82
288262	3093912	Last year I made some mistakes here.	Last year I made some mistakes here.	146959506	1475909379756	1475909379867	NA	69
288262	3093912	Last year I made some mistakes here.	Last year I made some mistakes here.	146959534	1475909380133	1475909380262	NA	190
288262	3093912	Last year I made some mistakes here.	Last year I made some mistakes here.	146959535	1475909380326	1475909380426	NA	32
288262	3093912	Last year I made some mistakes here.	Last year I made some mistakes here.	146959537	1475909380932	1475909381060		8
288262	3093920	Please make sure Bob Kelley is on the list.	Please make sure Bob Kelley is on the list.	146959658	1475909383746	1475909383885	CAPS_LOCK	20
288262	3093920	Please make sure Bob Kelley is on the list.	Please make sure Bob Kelley is on the list.	146959661	1475909383835	1475909383920	NA	80
288262	3093920	Please make sure Bob Kelley is on the list.	Please make sure Bob Kelley is on the list.	146959665	1475909383993	1475909384095	CAPS_LOCK	20
288262	3093920	Please make sure Bob Kelley is on the list.	Please make sure Bob Kelley is on the list.	146959671	1475909384067	1475909384200	NA	76
288262	3093920	Please make sure Bob Kelley is on the list.	Please make sure Bob Kelley is on the list.	146959676	1475909384221	1475909384330	NA	69
288262	3093920	Please make sure Bob Kelley is on the list.	Please make sure Bob Kelley is on the list.	146959678	1475909384367	1475909384548	NA	65
288262	3093920	Please make sure Bob Kelley is on the list.	Please make sure Bob Kelley is on the list.	146959709	1475909384523	1475909384710	NA	83
288262	3093920	Please make sure Bob Kelley is on the list.	Please make sure Bob Kelley is on the list.	146959711	1475909384673	1475909384794	NA	69
288262	3093920	Please make sure Bob Kelley is on the list.	Please make sure Bob Kelley is on the list.	146959714	1475909384813	1475909384898	NA	32
288262	3093920	Please make sure Bob Kelley is on the list.	Please make sure Bob Kelley is on the list.	146959718	1475909385065	1475909385180	NA	77
288262	3093920	Please make sure Bob Kelley is on the list.	Please make sure Bob Kelley is on the list.	146959721	1475909385179	1475909385294	NA	65
288262	3093920	Please make sure Bob Kelley is on the list.	Please make sure Bob Kelley is on the list.	146959724	1475909385307	1475909385437	NA	75
288262	3093920	Please make sure Bob Kelley is on the list.	Please make sure Bob Kelley is on the list.	146959749	1475909385439	1475909385525	NA	69
288262	3093920	Please make sure Bob Kelley is on the list.	Please make sure Bob Kelley is on the list.	146959750	1475909385559	1475909385638	NA	32
288262	3093920	Please make sure Bob Kelley is on the list.	Please make sure Bob Kelley is on the list.	146959751	1475909385901	1475909386024	NA	83
288262	3093920	Please make sure Bob Kelley is on the list.	Please make sure Bob Kelley is on the list.	146959752	1475909385993	1475909386108	NA	85
288262	3093920	Please make sure Bob Kelley is on the list.	Please make sure Bob Kelley is on the list.	146959753	1475909386350	1475909386479	NA	82
288262	3093920	Please make sure Bob Kelley is on the list.	Please make sure Bob Kelley is on the list.	146959788	1475909386472	1475909386584	NA	69
288262	3093920	Please make sure Bob Kelley is on the list.	Please make sure Bob Kelley is on the list.	146959791	1475909386629	1475909386702	NA	32
288262	3093920	Please make sure Bob Kelley is on the list.	Please make sure Bob Kelley is on the list.	146959793	1475909386991	1475909387115	CAPS_LOCK	20
288262	3093920	Please make sure Bob Kelley is on the list.	Please make sure Bob Kelley is on the list.	146959795	1475909387059	1475909387145	NA	66
288262	3093920	Please make sure Bob Kelley is on the list.	Please make sure Bob Kelley is on the list.	146959797	1475909387220	1475909387344	CAPS_LOCK	20
288262	3093920	Please make sure Bob Kelley is on the list.	Please make sure Bob Kelley is on the list.	146959800	1475909387282	1475909387410	NA	79
288262	3093920	Please make sure Bob Kelley is on the list.	Please make sure Bob Kelley is on the list.	146959803	1475909387583	1475909387683	NA	66
288262	3093920	Please make sure Bob Kelley is on the list.	Please make sure Bob Kelley is on the list.	146959806	1475909387809	1475909387857	NA	32
288262	3093920	Please make sure Bob Kelley is on the list.	Please make sure Bob Kelley is on the list.	146959828	1475909388013	1475909388124	CAPS_LOCK	20
288262	3093920	Please make sure Bob Kelley is on the list.	Please make sure Bob Kelley is on the list.	146959830	1475909388084	1475909388202	NA	75
288262	3093920	Please make sure Bob Kelley is on the list.	Please make sure Bob Kelley is on the list.	146959834	1475909388227	1475909388359	CAPS_LOCK	20
288262	3093920	Please make sure Bob Kelley is on the list.	Please make sure Bob Kelley is on the list.	146959837	1475909388331	1475909388446	NA	69
288262	3093920	Please make sure Bob Kelley is on the list.	Please make sure Bob Kelley is on the list.	146959841	1475909388448	1475909388511	NA	76
288262	3093920	Please make sure Bob Kelley is on the list.	Please make sure Bob Kelley is on the list.	146959844	1475909388625	1475909388679	NA	76
288262	3093920	Please make sure Bob Kelley is on the list.	Please make sure Bob Kelley is on the list.	146959849	1475909388793	1475909388914	NA	69
288262	3093920	Please make sure Bob Kelley is on the list.	Please make sure Bob Kelley is on the list.	146959878	1475909389013	1475909389134	NA	89
288262	3093920	Please make sure Bob Kelley is on the list.	Please make sure Bob Kelley is on the list.	146959881	1475909389221	1475909389306	NA	32
288262	3093920	Please make sure Bob Kelley is on the list.	Please make sure Bob Kelley is on the list.	146959884	1475909389563	1475909389682	NA	73
288262	3093920	Please make sure Bob Kelley is on the list.	Please make sure Bob Kelley is on the list.	146959885	1475909389675	1475909389797	NA	83
288262	3093920	Please make sure Bob Kelley is on the list.	Please make sure Bob Kelley is on the list.	146959886	1475909389828	1475909389904	NA	32
288262	3093920	Please make sure Bob Kelley is on the list.	Please make sure Bob Kelley is on the list.	146959911	1475909390041	1475909390117	NA	79
288262	3093920	Please make sure Bob Kelley is on the list.	Please make sure Bob Kelley is on the list.	146959912	1475909390234	1475909390322	NA	78
288262	3093920	Please make sure Bob Kelley is on the list.	Please make sure Bob Kelley is on the list.	146959915	1475909390388	1475909390482	NA	32
288262	3093920	Please make sure Bob Kelley is on the list.	Please make sure Bob Kelley is on the list.	146959917	1475909390572	1475909390672	NA	84
288262	3093920	Please make sure Bob Kelley is on the list.	Please make sure Bob Kelley is on the list.	146959921	1475909390771	1475909390859	NA	69
288262	3093920	Please make sure Bob Kelley is on the list.	Please make sure Bob Kelley is on the list.	146959992	1475909390946	1475909390995	NA	32
288262	3093920	Please make sure Bob Kelley is on the list.	Please make sure Bob Kelley is on the list.	146959996	1475909391516	1475909391598		8
288262	3093920	Please make sure Bob Kelley is on the list.	Please make sure Bob Kelley is on the list.	146959999	1475909391670	1475909391749		8
288262	3093920	Please make sure Bob Kelley is on the list.	Please make sure Bob Kelley is on the list.	146960002	1475909391920	1475909392033	NA	72
288262	3093920	Please make sure Bob Kelley is on the list.	Please make sure Bob Kelley is on the list.	146960032	1475909392020	1475909392124	NA	69
288262	3093920	Please make sure Bob Kelley is on the list.	Please make sure Bob Kelley is on the list.	146960033	1475909392127	1475909392206	NA	32
288262	3093920	Please make sure Bob Kelley is on the list.	Please make sure Bob Kelley is on the list.	146960034	1475909392341	1475909392468	NA	76
288262	3093920	Please make sure Bob Kelley is on the list.	Please make sure Bob Kelley is on the list.	146960036	1475909392576	1475909392655	NA	73
288262	3093920	Please make sure Bob Kelley is on the list.	Please make sure Bob Kelley is on the list.	146960040	1475909392659	1475909392765	NA	83
288262	3093920	Please make sure Bob Kelley is on the list.	Please make sure Bob Kelley is on the list.	146960045	1475909392846	1475909392958	NA	84
288262	3093920	Please make sure Bob Kelley is on the list.	Please make sure Bob Kelley is on the list.	146960079	1475909393179	1475909393288	NA	190
288262	3093929	Call me if you have any questions.	Call me if you have any questions.	146960223	1475909396365	1475909396504	CAPS_LOCK	20
288262	3093929	Call me if you have any questions.	Call me if you have any questions.	146960227	1475909396577	1475909396729	NA	67
288262	3093929	Call me if you have any questions.	Call me if you have any questions.	146960232	1475909396708	1475909396956	CAPS_LOCK	20
288262	3093929	Call me if you have any questions.	Call me if you have any questions.	146960234	1475909397001	1475909397123	NA	65
288262	3093929	Call me if you have any questions.	Call me if you have any questions.	146960238	1475909397148	1475909397223	NA	76
288262	3093929	Call me if you have any questions.	Call me if you have any questions.	146960243	1475909397313	1475909397377	NA	76
288262	3093929	Call me if you have any questions.	Call me if you have any questions.	146960245	1475909397634	1475909397764	NA	77
288262	3093929	Call me if you have any questions.	Call me if you have any questions.	146960326	1475909398201	1475909398311		8
288262	3093929	Call me if you have any questions.	Call me if you have any questions.	146960329	1475909398362	1475909398483	NA	32
288262	3093929	Call me if you have any questions.	Call me if you have any questions.	146960333	1475909399671	1475909399776	NA	77
288262	3093929	Call me if you have any questions.	Call me if you have any questions.	146960336	1475909399751	1475909399845	NA	69
288262	3093929	Call me if you have any questions.	Call me if you have any questions.	146960339	1475909399893	1475909399978	NA	32
288262	3093929	Call me if you have any questions.	Call me if you have any questions.	146960373	1475909400411	1475909400489	NA	73
288262	3093929	Call me if you have any questions.	Call me if you have any questions.	146960375	1475909400538	1475909400665	NA	70
288262	3093929	Call me if you have any questions.	Call me if you have any questions.	146960377	1475909400672	1475909400750	NA	32
288262	3093929	Call me if you have any questions.	Call me if you have any questions.	146960378	1475909401079	1475909401203	NA	89
288262	3093929	Call me if you have any questions.	Call me if you have any questions.	146960379	1475909401263	1475909401440	NA	79
288262	3093929	Call me if you have any questions.	Call me if you have any questions.	146960384	1475909401412	1475909401524	NA	85
288262	3093929	Call me if you have any questions.	Call me if you have any questions.	146960386	1475909401618	1475909401681	NA	32
288262	3093929	Call me if you have any questions.	Call me if you have any questions.	146960388	1475909401875	1475909401975	NA	72
288262	3093929	Call me if you have any questions.	Call me if you have any questions.	146960389	1475909402023	1475909402145	NA	65
288262	3093929	Call me if you have any questions.	Call me if you have any questions.	146960390	1475909402158	1475909402312	NA	86
288262	3093929	Call me if you have any questions.	Call me if you have any questions.	146960392	1475909402319	1475909402426	NA	69
288262	3093929	Call me if you have any questions.	Call me if you have any questions.	146960418	1475909402417	1475909402501	NA	32
288262	3093929	Call me if you have any questions.	Call me if you have any questions.	146960422	1475909402633	1475909402769	NA	65
288262	3093929	Call me if you have any questions.	Call me if you have any questions.	146960425	1475909402728	1475909402835	NA	78
288262	3093929	Call me if you have any questions.	Call me if you have any questions.	146960430	1475909402967	1475909403072	NA	89
288262	3093929	Call me if you have any questions.	Call me if you have any questions.	146960437	1475909403136	1475909403245	NA	32
288262	3093929	Call me if you have any questions.	Call me if you have any questions.	146960440	1475909404138	1475909404269	NA	81
288262	3093929	Call me if you have any questions.	Call me if you have any questions.	146960454	1475909404347	1475909404432	NA	85
288262	3093929	Call me if you have any questions.	Call me if you have any questions.	146960456	1475909404563	1475909404666	NA	69
288262	3093929	Call me if you have any questions.	Call me if you have any questions.	146960458	1475909404739	1475909404903	NA	83
288262	3093929	Call me if you have any questions.	Call me if you have any questions.	146960462	1475909404963	1475909405083	NA	84
288262	3093929	Call me if you have any questions.	Call me if you have any questions.	146960544	1475909405070	1475909405250	NA	73
288262	3093929	Call me if you have any questions.	Call me if you have any questions.	146960546	1475909405240	1475909405355	NA	79
288262	3093929	Call me if you have any questions.	Call me if you have any questions.	146960549	1475909405478	1475909405593	NA	78
288262	3093929	Call me if you have any questions.	Call me if you have any questions.	146960551	1475909405671	1475909405802	NA	83
288262	3093929	Call me if you have any questions.	Call me if you have any questions.	146960553	1475909406231	1475909406316	NA	190
288262	3093943	He refused to elaborate on the delay.	He refused to elaborate on the delay.	146960674	1475909409372	1475909409480	CAPS_LOCK	20
288262	3093943	He refused to elaborate on the delay.	He refused to elaborate on the delay.	146960676	1475909409445	1475909409549	NA	72
288262	3093943	He refused to elaborate on the delay.	He refused to elaborate on the delay.	146960678	1475909409609	1475909409802	CAPS_LOCK	20
288262	3093943	He refused to elaborate on the delay.	He refused to elaborate on the delay.	146960681	1475909409747	1475909409882	NA	69
288262	3093943	He refused to elaborate on the delay.	He refused to elaborate on the delay.	146960683	1475909409872	1475909409963	NA	32
288262	3093943	He refused to elaborate on the delay.	He refused to elaborate on the delay.	146960684	1475909410262	1475909410385	NA	82
288262	3093943	He refused to elaborate on the delay.	He refused to elaborate on the delay.	146960685	1475909410388	1475909410468	NA	69
288262	3093943	He refused to elaborate on the delay.	He refused to elaborate on the delay.	146960724	1475909410656	1475909410803	NA	70
288262	3093943	He refused to elaborate on the delay.	He refused to elaborate on the delay.	146960725	1475909410779	1475909410875	NA	85
288262	3093943	He refused to elaborate on the delay.	He refused to elaborate on the delay.	146960726	1475909411052	1475909411197	NA	83
288262	3093943	He refused to elaborate on the delay.	He refused to elaborate on the delay.	146960727	1475909411210	1475909411328	NA	69
288262	3093943	He refused to elaborate on the delay.	He refused to elaborate on the delay.	146960728	1475909411463	1475909411605	NA	68
288262	3093943	He refused to elaborate on the delay.	He refused to elaborate on the delay.	146960754	1475909411648	1475909411729	NA	32
288262	3093943	He refused to elaborate on the delay.	He refused to elaborate on the delay.	146960758	1475909411950	1475909412074	NA	84
288262	3093943	He refused to elaborate on the delay.	He refused to elaborate on the delay.	146960764	1475909412078	1475909412172	NA	79
288262	3093943	He refused to elaborate on the delay.	He refused to elaborate on the delay.	146960771	1475909412223	1475909412320	NA	32
288262	3093943	He refused to elaborate on the delay.	He refused to elaborate on the delay.	146960778	1475909412399	1475909412514	NA	69
288262	3093943	He refused to elaborate on the delay.	He refused to elaborate on the delay.	146960825	1475909412516	1475909412629	NA	76
288262	3093943	He refused to elaborate on the delay.	He refused to elaborate on the delay.	146960828	1475909412657	1475909412784	NA	65
288262	3093943	He refused to elaborate on the delay.	He refused to elaborate on the delay.	146960832	1475909413017	1475909413120	NA	66
288262	3093943	He refused to elaborate on the delay.	He refused to elaborate on the delay.	146960835	1475909413202	1475909413361	NA	79
288262	3093943	He refused to elaborate on the delay.	He refused to elaborate on the delay.	146960838	1475909413455	1475909413576	NA	82
288262	3093943	He refused to elaborate on the delay.	He refused to elaborate on the delay.	146960871	1475909413583	1475909413664	NA	69
288262	3093943	He refused to elaborate on the delay.	He refused to elaborate on the delay.	146960873	1475909414224	1475909414337		8
288262	3093943	He refused to elaborate on the delay.	He refused to elaborate on the delay.	146960874	1475909414322	1475909414477	NA	65
288262	3093943	He refused to elaborate on the delay.	He refused to elaborate on the delay.	146960876	1475909414519	1475909414688	NA	84
288262	3093943	He refused to elaborate on the delay.	He refused to elaborate on the delay.	146960910	1475909414678	1475909414807	NA	69
288262	3093943	He refused to elaborate on the delay.	He refused to elaborate on the delay.	146960911	1475909414886	1475909414967	NA	32
288262	3093943	He refused to elaborate on the delay.	He refused to elaborate on the delay.	146960912	1475909415205	1475909415309	NA	79
288262	3093943	He refused to elaborate on the delay.	He refused to elaborate on the delay.	146960913	1475909415408	1475909415490	NA	78
288262	3093943	He refused to elaborate on the delay.	He refused to elaborate on the delay.	146960914	1475909415542	1475909415636	NA	32
288262	3093943	He refused to elaborate on the delay.	He refused to elaborate on the delay.	146960917	1475909415669	1475909415775	NA	84
288262	3093943	He refused to elaborate on the delay.	He refused to elaborate on the delay.	146960936	1475909415797	1475909415865	NA	72
288262	3093943	He refused to elaborate on the delay.	He refused to elaborate on the delay.	146960939	1475909415849	1475909415953	NA	69
288262	3093943	He refused to elaborate on the delay.	He refused to elaborate on the delay.	146960944	1475909415989	1475909416065	NA	32
288262	3093943	He refused to elaborate on the delay.	He refused to elaborate on the delay.	146960948	1475909416262	1475909416401	NA	68
288262	3093943	He refused to elaborate on the delay.	He refused to elaborate on the delay.	146960952	1475909416515	1475909416621	NA	69
288262	3093943	He refused to elaborate on the delay.	He refused to elaborate on the delay.	146960972	1475909416753	1475909416868	NA	65
288262	3093943	He refused to elaborate on the delay.	He refused to elaborate on the delay.	146960977	1475909416871	1475909416963	NA	76
288262	3093943	He refused to elaborate on the delay.	He refused to elaborate on the delay.	146960980	1475909417139	1475909417218	NA	89
288262	3093943	He refused to elaborate on the delay.	He refused to elaborate on the delay.	146960984	1475909417448	1475909417521		8
288262	3093943	He refused to elaborate on the delay.	He refused to elaborate on the delay.	146960986	1475909417593	1475909417669		8
288262	3093943	He refused to elaborate on the delay.	He refused to elaborate on the delay.	146961060	1475909417732	1475909417808		8
288262	3093943	He refused to elaborate on the delay.	He refused to elaborate on the delay.	146961061	1475909418071	1475909418146	NA	75
288262	3093943	He refused to elaborate on the delay.	He refused to elaborate on the delay.	146961064	1475909418628	1475909418713		8
288262	3093943	He refused to elaborate on the delay.	He refused to elaborate on the delay.	146961065	1475909418771	1475909418861		8
288262	3093943	He refused to elaborate on the delay.	He refused to elaborate on the delay.	146961137	1475909419440	1475909419527	NA	76
288262	3093943	He refused to elaborate on the delay.	He refused to elaborate on the delay.	146961138	1475909419683	1475909419832	NA	65
288262	3093943	He refused to elaborate on the delay.	He refused to elaborate on the delay.	146961139	1475909420154	1475909420248	NA	89
288262	3093943	He refused to elaborate on the delay.	He refused to elaborate on the delay.	146961141	1475909420662	1475909420786	NA	190
288262	3093954	Can you do the Gallup contracts as well?	Can you do the Gallup contracts as well?	146961258	1475909423994	1475909424169	CAPS_LOCK	20
288262	3093954	Can you do the Gallup contracts as well?	Can you do the Gallup contracts as well?	146961260	1475909424247	1475909424443	NA	67
288262	3093954	Can you do the Gallup contracts as well?	Can you do the Gallup contracts as well?	146961262	1475909424392	1475909424635	CAPS_LOCK	20
288262	3093954	Can you do the Gallup contracts as well?	Can you do the Gallup contracts as well?	146961266	1475909424616	1475909424768	NA	65
288262	3093954	Can you do the Gallup contracts as well?	Can you do the Gallup contracts as well?	146961270	1475909424804	1475909424931	NA	78
288262	3093954	Can you do the Gallup contracts as well?	Can you do the Gallup contracts as well?	146961273	1475909425179	1475909425288	NA	32
288262	3093954	Can you do the Gallup contracts as well?	Can you do the Gallup contracts as well?	146961276	1475909425494	1475909425615	NA	89
288262	3093954	Can you do the Gallup contracts as well?	Can you do the Gallup contracts as well?	146961286	1475909425678	1475909425841	NA	79
288262	3093954	Can you do the Gallup contracts as well?	Can you do the Gallup contracts as well?	146961288	1475909425819	1475909425940	NA	85
288262	3093954	Can you do the Gallup contracts as well?	Can you do the Gallup contracts as well?	146961290	1475909425991	1475909426082	NA	32
288262	3093954	Can you do the Gallup contracts as well?	Can you do the Gallup contracts as well?	146961291	1475909426223	1475909426332	NA	68
288262	3093954	Can you do the Gallup contracts as well?	Can you do the Gallup contracts as well?	146961301	1475909426324	1475909426429	NA	79
288262	3093954	Can you do the Gallup contracts as well?	Can you do the Gallup contracts as well?	146961303	1475909426499	1475909426589	NA	32
288262	3093954	Can you do the Gallup contracts as well?	Can you do the Gallup contracts as well?	146961306	1475909426817	1475909426924	NA	84
288262	3093954	Can you do the Gallup contracts as well?	Can you do the Gallup contracts as well?	146961310	1475909426887	1475909427009	NA	72
288262	3093954	Can you do the Gallup contracts as well?	Can you do the Gallup contracts as well?	146961314	1475909427027	1475909427116	NA	69
288262	3093954	Can you do the Gallup contracts as well?	Can you do the Gallup contracts as well?	146961318	1475909427118	1475909427198	NA	32
288262	3093954	Can you do the Gallup contracts as well?	Can you do the Gallup contracts as well?	146961337	1475909427377	1475909427510	CAPS_LOCK	20
288262	3093954	Can you do the Gallup contracts as well?	Can you do the Gallup contracts as well?	146961339	1475909427553	1475909427721	NA	71
288262	3093954	Can you do the Gallup contracts as well?	Can you do the Gallup contracts as well?	146961343	1475909427693	1475909427890	CAPS_LOCK	20
288262	3093954	Can you do the Gallup contracts as well?	Can you do the Gallup contracts as well?	146961345	1475909427893	1475909428016	NA	65
288262	3093954	Can you do the Gallup contracts as well?	Can you do the Gallup contracts as well?	146961347	1475909428022	1475909428086	NA	76
288262	3093954	Can you do the Gallup contracts as well?	Can you do the Gallup contracts as well?	146961348	1475909428179	1475909428261	NA	76
288262	3093954	Can you do the Gallup contracts as well?	Can you do the Gallup contracts as well?	146961349	1475909428389	1475909428535	NA	85
288262	3093954	Can you do the Gallup contracts as well?	Can you do the Gallup contracts as well?	146961370	1475909428559	1475909428674	NA	80
288262	3093954	Can you do the Gallup contracts as well?	Can you do the Gallup contracts as well?	146961371	1475909428779	1475909428879	NA	32
288262	3093954	Can you do the Gallup contracts as well?	Can you do the Gallup contracts as well?	146961372	1475909429336	1475909429444	NA	67
288262	3093954	Can you do the Gallup contracts as well?	Can you do the Gallup contracts as well?	146961373	1475909429448	1475909429554	NA	79
288262	3093954	Can you do the Gallup contracts as well?	Can you do the Gallup contracts as well?	146961374	1475909429665	1475909429756	NA	78
288262	3093954	Can you do the Gallup contracts as well?	Can you do the Gallup contracts as well?	146961396	1475909429935	1475909430053	NA	84
288262	3093954	Can you do the Gallup contracts as well?	Can you do the Gallup contracts as well?	146961398	1475909430152	1475909430235	NA	69
288262	3093954	Can you do the Gallup contracts as well?	Can you do the Gallup contracts as well?	146961401	1475909430633	1475909430724		8
288262	3093954	Can you do the Gallup contracts as well?	Can you do the Gallup contracts as well?	146961405	1475909430773	1475909430879	NA	82
288262	3093954	Can you do the Gallup contracts as well?	Can you do the Gallup contracts as well?	146961408	1475909431001	1475909431142	NA	65
288262	3093954	Can you do the Gallup contracts as well?	Can you do the Gallup contracts as well?	146961429	1475909431255	1475909431328	NA	67
288262	3093954	Can you do the Gallup contracts as well?	Can you do the Gallup contracts as well?	146961432	1475909431611	1475909431711	NA	84
288262	3093954	Can you do the Gallup contracts as well?	Can you do the Gallup contracts as well?	146961434	1475909431855	1475909431973	NA	83
288262	3093954	Can you do the Gallup contracts as well?	Can you do the Gallup contracts as well?	146961437	1475909432132	1475909432214	NA	32
288262	3093954	Can you do the Gallup contracts as well?	Can you do the Gallup contracts as well?	146961440	1475909432398	1475909432493	NA	65
288262	3093954	Can you do the Gallup contracts as well?	Can you do the Gallup contracts as well?	146961481	1475909432530	1475909432669	NA	83
288262	3093954	Can you do the Gallup contracts as well?	Can you do the Gallup contracts as well?	146961484	1475909432715	1475909432794	NA	32
288262	3093954	Can you do the Gallup contracts as well?	Can you do the Gallup contracts as well?	146961486	1475909433065	1475909433184	NA	87
288262	3093954	Can you do the Gallup contracts as well?	Can you do the Gallup contracts as well?	146961488	1475909433241	1475909433362	NA	69
288262	3093954	Can you do the Gallup contracts as well?	Can you do the Gallup contracts as well?	146961491	1475909433521	1475909433587	NA	76
288262	3093954	Can you do the Gallup contracts as well?	Can you do the Gallup contracts as well?	146961533	1475909433677	1475909433759	NA	76
288262	3093954	Can you do the Gallup contracts as well?	Can you do the Gallup contracts as well?	146961538	1475909434067	1475909434597	SHIFT	16
288262	3093954	Can you do the Gallup contracts as well?	Can you do the Gallup contracts as well?	146961535	1475909434360	1475909434496	NA	191
288262	3093964	The spokesman said its role would be to supervise the organisation.	The spokesman said its role would be to supervise the organisation.	146961603	1475909437433	1475909437584	CAPS_LOCK	20
288262	3093964	The spokesman said its role would be to supervise the organisation.	The spokesman said its role would be to supervise the organisation.	146961605	1475909437752	1475909437932	CAPS_LOCK	20
288262	3093964	The spokesman said its role would be to supervise the organisation.	The spokesman said its role would be to supervise the organisation.	146961607	1475909437913	1475909437977	NA	84
288262	3093964	The spokesman said its role would be to supervise the organisation.	The spokesman said its role would be to supervise the organisation.	146961612	1475909438617	1475909438745		8
288262	3093964	The spokesman said its role would be to supervise the organisation.	The spokesman said its role would be to supervise the organisation.	146961615	1475909438763	1475909438983	CAPS_LOCK	20
288262	3093964	The spokesman said its role would be to supervise the organisation.	The spokesman said its role would be to supervise the organisation.	146961619	1475909438952	1475909439089	NA	84
288262	3093964	The spokesman said its role would be to supervise the organisation.	The spokesman said its role would be to supervise the organisation.	146961624	1475909439098	1475909439295	CAPS_LOCK	20
288262	3093964	The spokesman said its role would be to supervise the organisation.	The spokesman said its role would be to supervise the organisation.	146961627	1475909439198	1475909439334	NA	72
288262	3093964	The spokesman said its role would be to supervise the organisation.	The spokesman said its role would be to supervise the organisation.	146961629	1475909439430	1475909439551	NA	69
288262	3093964	The spokesman said its role would be to supervise the organisation.	The spokesman said its role would be to supervise the organisation.	146961660	1475909439556	1475909439640	NA	32
288262	3093964	The spokesman said its role would be to supervise the organisation.	The spokesman said its role would be to supervise the organisation.	146961662	1475909440081	1475909440202	NA	83
288262	3093964	The spokesman said its role would be to supervise the organisation.	The spokesman said its role would be to supervise the organisation.	146961665	1475909440254	1475909440377	NA	80
288262	3093964	The spokesman said its role would be to supervise the organisation.	The spokesman said its role would be to supervise the organisation.	146961669	1475909440524	1475909440648	NA	79
288262	3093964	The spokesman said its role would be to supervise the organisation.	The spokesman said its role would be to supervise the organisation.	146961673	1475909441128	1475909441255	NA	75
288262	3093964	The spokesman said its role would be to supervise the organisation.	The spokesman said its role would be to supervise the organisation.	146961711	1475909441280	1475909441398	NA	69
288262	3093964	The spokesman said its role would be to supervise the organisation.	The spokesman said its role would be to supervise the organisation.	146961712	1475909441440	1475909441525	NA	32
288262	3093964	The spokesman said its role would be to supervise the organisation.	The spokesman said its role would be to supervise the organisation.	146961713	1475909442020	1475909442126		8
288262	3093964	The spokesman said its role would be to supervise the organisation.	The spokesman said its role would be to supervise the organisation.	146961715	1475909442225	1475909442361	NA	83
288262	3093964	The spokesman said its role would be to supervise the organisation.	The spokesman said its role would be to supervise the organisation.	146961717	1475909442532	1475909442674	NA	77
288262	3093964	The spokesman said its role would be to supervise the organisation.	The spokesman said its role would be to supervise the organisation.	146961730	1475909442699	1475909442822	NA	65
288262	3093964	The spokesman said its role would be to supervise the organisation.	The spokesman said its role would be to supervise the organisation.	146961732	1475909442806	1475909442903	NA	78
288262	3093964	The spokesman said its role would be to supervise the organisation.	The spokesman said its role would be to supervise the organisation.	146961733	1475909442984	1475909443075	NA	32
288262	3093964	The spokesman said its role would be to supervise the organisation.	The spokesman said its role would be to supervise the organisation.	146961735	1475909443224	1475909443370	NA	83
288262	3093964	The spokesman said its role would be to supervise the organisation.	The spokesman said its role would be to supervise the organisation.	146961736	1475909443443	1475909443564	NA	65
288262	3093964	The spokesman said its role would be to supervise the organisation.	The spokesman said its role would be to supervise the organisation.	146961753	1475909443580	1475909443713	NA	73
288262	3093964	The spokesman said its role would be to supervise the organisation.	The spokesman said its role would be to supervise the organisation.	146961754	1475909443743	1475909443855	NA	68
288262	3093964	The spokesman said its role would be to supervise the organisation.	The spokesman said its role would be to supervise the organisation.	146961755	1475909443871	1475909443974	NA	32
288262	3093964	The spokesman said its role would be to supervise the organisation.	The spokesman said its role would be to supervise the organisation.	146961756	1475909444228	1475909444340	NA	73
288262	3093964	The spokesman said its role would be to supervise the organisation.	The spokesman said its role would be to supervise the organisation.	146961757	1475909444528	1475909444640	NA	84
288262	3093964	The spokesman said its role would be to supervise the organisation.	The spokesman said its role would be to supervise the organisation.	146961764	1475909444721	1475909444852	NA	83
288262	3093964	The spokesman said its role would be to supervise the organisation.	The spokesman said its role would be to supervise the organisation.	146961765	1475909444882	1475909444973	NA	32
288262	3093964	The spokesman said its role would be to supervise the organisation.	The spokesman said its role would be to supervise the organisation.	146961766	1475909445319	1475909445421	NA	82
288262	3093964	The spokesman said its role would be to supervise the organisation.	The spokesman said its role would be to supervise the organisation.	146961767	1475909445393	1475909445514	NA	79
288262	3093964	The spokesman said its role would be to supervise the organisation.	The spokesman said its role would be to supervise the organisation.	146961768	1475909445655	1475909445791	NA	76
288262	3093964	The spokesman said its role would be to supervise the organisation.	The spokesman said its role would be to supervise the organisation.	146961782	1475909445848	1475909445948	NA	69
288262	3093964	The spokesman said its role would be to supervise the organisation.	The spokesman said its role would be to supervise the organisation.	146961783	1475909445979	1475909446067	NA	32
288262	3093964	The spokesman said its role would be to supervise the organisation.	The spokesman said its role would be to supervise the organisation.	146961784	1475909446448	1475909446564	NA	87
288262	3093964	The spokesman said its role would be to supervise the organisation.	The spokesman said its role would be to supervise the organisation.	146961785	1475909446576	1475909446703	NA	79
288262	3093964	The spokesman said its role would be to supervise the organisation.	The spokesman said its role would be to supervise the organisation.	146961786	1475909446770	1475909446870	NA	85
288262	3093964	The spokesman said its role would be to supervise the organisation.	The spokesman said its role would be to supervise the organisation.	146961803	1475909446969	1475909447090	NA	76
288262	3093964	The spokesman said its role would be to supervise the organisation.	The spokesman said its role would be to supervise the organisation.	146961804	1475909447284	1475909447390	NA	32
288262	3093964	The spokesman said its role would be to supervise the organisation.	The spokesman said its role would be to supervise the organisation.	146961805	1475909447629	1475909447717	NA	66
288262	3093964	The spokesman said its role would be to supervise the organisation.	The spokesman said its role would be to supervise the organisation.	146961806	1475909447732	1475909447844	NA	69
288262	3093964	The spokesman said its role would be to supervise the organisation.	The spokesman said its role would be to supervise the organisation.	146961834	1475909447890	1475909447990	NA	32
288262	3093964	The spokesman said its role would be to supervise the organisation.	The spokesman said its role would be to supervise the organisation.	146961835	1475909448233	1475909448363	NA	84
288262	3093964	The spokesman said its role would be to supervise the organisation.	The spokesman said its role would be to supervise the organisation.	146961836	1475909448347	1475909448471	NA	79
288262	3093964	The spokesman said its role would be to supervise the organisation.	The spokesman said its role would be to supervise the organisation.	146961838	1475909448526	1475909448632	NA	32
288262	3093964	The spokesman said its role would be to supervise the organisation.	The spokesman said its role would be to supervise the organisation.	146961840	1475909448883	1475909449013	NA	83
288262	3093964	The spokesman said its role would be to supervise the organisation.	The spokesman said its role would be to supervise the organisation.	146961856	1475909449082	1475909449170	NA	85
288262	3093964	The spokesman said its role would be to supervise the organisation.	The spokesman said its role would be to supervise the organisation.	146961857	1475909449436	1475909449539	NA	80
288262	3093964	The spokesman said its role would be to supervise the organisation.	The spokesman said its role would be to supervise the organisation.	146961858	1475909449662	1475909449818	NA	69
288262	3093964	The spokesman said its role would be to supervise the organisation.	The spokesman said its role would be to supervise the organisation.	146961859	1475909449802	1475909449893	NA	82
288262	3093964	The spokesman said its role would be to supervise the organisation.	The spokesman said its role would be to supervise the organisation.	146961860	1475909450209	1475909450315	NA	86
288262	3093964	The spokesman said its role would be to supervise the organisation.	The spokesman said its role would be to supervise the organisation.	146961881	1475909450292	1475909450428	NA	73
288262	3093964	The spokesman said its role would be to supervise the organisation.	The spokesman said its role would be to supervise the organisation.	146961882	1475909450625	1475909450794	NA	83
288262	3093964	The spokesman said its role would be to supervise the organisation.	The spokesman said its role would be to supervise the organisation.	146961883	1475909450764	1475909450888	NA	69
288262	3093964	The spokesman said its role would be to supervise the organisation.	The spokesman said its role would be to supervise the organisation.	146961884	1475909450956	1475909451047	NA	32
288262	3093964	The spokesman said its role would be to supervise the organisation.	The spokesman said its role would be to supervise the organisation.	146961885	1475909451191	1475909451300	NA	84
288262	3093964	The spokesman said its role would be to supervise the organisation.	The spokesman said its role would be to supervise the organisation.	146961886	1475909451339	1475909451438	NA	72
288262	3093964	The spokesman said its role would be to supervise the organisation.	The spokesman said its role would be to supervise the organisation.	146961909	1475909451422	1475909451551	NA	69
288262	3093964	The spokesman said its role would be to supervise the organisation.	The spokesman said its role would be to supervise the organisation.	146961910	1475909451523	1475909451636	NA	32
288262	3093964	The spokesman said its role would be to supervise the organisation.	The spokesman said its role would be to supervise the organisation.	146961911	1475909451785	1475909451897	NA	79
288262	3093964	The spokesman said its role would be to supervise the organisation.	The spokesman said its role would be to supervise the organisation.	146961912	1475909451955	1475909452051	NA	82
288262	3093964	The spokesman said its role would be to supervise the organisation.	The spokesman said its role would be to supervise the organisation.	146961913	1475909452737	1475909452872	NA	71
288262	3093964	The spokesman said its role would be to supervise the organisation.	The spokesman said its role would be to supervise the organisation.	146961914	1475909452894	1475909453028	NA	65
288262	3093964	The spokesman said its role would be to supervise the organisation.	The spokesman said its role would be to supervise the organisation.	146961939	1475909453058	1475909453146	NA	78
288262	3093964	The spokesman said its role would be to supervise the organisation.	The spokesman said its role would be to supervise the organisation.	146961940	1475909453233	1475909453333	NA	73
288262	3093964	The spokesman said its role would be to supervise the organisation.	The spokesman said its role would be to supervise the organisation.	146961941	1475909453411	1475909453578	NA	83
288262	3093964	The spokesman said its role would be to supervise the organisation.	The spokesman said its role would be to supervise the organisation.	146961942	1475909453758	1475909453890	NA	84
288262	3093964	The spokesman said its role would be to supervise the organisation.	The spokesman said its role would be to supervise the organisation.	146961967	1475909453865	1475909454035	NA	65
288262	3093964	The spokesman said its role would be to supervise the organisation.	The spokesman said its role would be to supervise the organisation.	146961969	1475909454446	1475909454537		8
288262	3093964	The spokesman said its role would be to supervise the organisation.	The spokesman said its role would be to supervise the organisation.	146961971	1475909454609	1475909454693		8
288262	3093964	The spokesman said its role would be to supervise the organisation.	The spokesman said its role would be to supervise the organisation.	146961973	1475909454667	1475909454833	NA	65
288262	3093964	The spokesman said its role would be to supervise the organisation.	The spokesman said its role would be to supervise the organisation.	146961974	1475909454804	1475909454941	NA	84
288262	3093964	The spokesman said its role would be to supervise the organisation.	The spokesman said its role would be to supervise the organisation.	146961986	1475909454934	1475909455063	NA	73
288262	3093964	The spokesman said its role would be to supervise the organisation.	The spokesman said its role would be to supervise the organisation.	146961988	1475909455047	1475909455171	NA	79
288262	3093964	The spokesman said its role would be to supervise the organisation.	The spokesman said its role would be to supervise the organisation.	146961990	1475909455309	1475909455406	NA	78
288262	3093964	The spokesman said its role would be to supervise the organisation.	The spokesman said its role would be to supervise the organisation.	146961992	1475909455689	1475909455789	NA	190
288262	3093973	New switches can also be added to the Paging System.	New switches can also be added to the Paging System.	146962078	1475909460514	1475909460640	CAPS_LOCK	20
288262	3093973	New switches can also be added to the Paging System.	New switches can also be added to the Paging System.	146962079	1475909460630	1475909460718	NA	78
288262	3093973	New switches can also be added to the Paging System.	New switches can also be added to the Paging System.	146962080	1475909460740	1475909460893	CAPS_LOCK	20
288262	3093973	New switches can also be added to the Paging System.	New switches can also be added to the Paging System.	146962081	1475909460868	1475909461007	NA	69
288262	3093973	New switches can also be added to the Paging System.	New switches can also be added to the Paging System.	146962082	1475909461017	1475909461101	NA	32
288262	3093973	New switches can also be added to the Paging System.	New switches can also be added to the Paging System.	146962083	1475909461064	1475909461229	NA	87
288262	3093973	New switches can also be added to the Paging System.	New switches can also be added to the Paging System.	146962085	1475909461636	1475909461715		8
288262	3093973	New switches can also be added to the Paging System.	New switches can also be added to the Paging System.	146962112	1475909461790	1475909461884		8
288262	3093973	New switches can also be added to the Paging System.	New switches can also be added to the Paging System.	146962114	1475909461909	1475909462036	NA	87
288262	3093973	New switches can also be added to the Paging System.	New switches can also be added to the Paging System.	146962116	1475909462049	1475909462140	NA	32
288262	3093973	New switches can also be added to the Paging System.	New switches can also be added to the Paging System.	146962118	1475909462391	1475909462527	NA	83
288262	3093973	New switches can also be added to the Paging System.	New switches can also be added to the Paging System.	146962119	1475909463007	1475909463153	NA	87
288262	3093973	New switches can also be added to the Paging System.	New switches can also be added to the Paging System.	146962126	1475909463198	1475909463325	NA	73
288262	3093973	New switches can also be added to the Paging System.	New switches can also be added to the Paging System.	146962128	1475909463538	1475909463649	NA	84
288262	3093973	New switches can also be added to the Paging System.	New switches can also be added to the Paging System.	146962130	1475909463835	1475909463973	NA	67
288262	3093973	New switches can also be added to the Paging System.	New switches can also be added to the Paging System.	146962133	1475909463939	1475909464033	NA	72
288262	3093973	New switches can also be added to the Paging System.	New switches can also be added to the Paging System.	146962137	1475909464075	1475909464230	NA	69
288262	3093973	New switches can also be added to the Paging System.	New switches can also be added to the Paging System.	146962143	1475909464203	1475909464309	NA	82
288262	3093973	New switches can also be added to the Paging System.	New switches can also be added to the Paging System.	146962144	1475909464623	1475909464787	NA	83
288262	3093973	New switches can also be added to the Paging System.	New switches can also be added to the Paging System.	146962145	1475909465115	1475909465198		8
288262	3093973	New switches can also be added to the Paging System.	New switches can also be added to the Paging System.	146962146	1475909465267	1475909465367		8
288262	3093973	New switches can also be added to the Paging System.	New switches can also be added to the Paging System.	146962147	1475909465413	1475909465558	NA	83
288262	3093973	New switches can also be added to the Paging System.	New switches can also be added to the Paging System.	146962148	1475909465580	1475909465678	NA	32
288262	3093973	New switches can also be added to the Paging System.	New switches can also be added to the Paging System.	146962187	1475909466109	1475909466283	NA	67
288262	3093973	New switches can also be added to the Paging System.	New switches can also be added to the Paging System.	146962188	1475909466276	1475909466439	NA	65
288262	3093973	New switches can also be added to the Paging System.	New switches can also be added to the Paging System.	146962190	1475909466405	1475909466505	NA	78
288262	3093973	New switches can also be added to the Paging System.	New switches can also be added to the Paging System.	146962192	1475909466575	1475909466656	NA	32
288262	3093973	New switches can also be added to the Paging System.	New switches can also be added to the Paging System.	146962194	1475909466815	1475909466938	NA	65
288262	3093973	New switches can also be added to the Paging System.	New switches can also be added to the Paging System.	146962212	1475909466919	1475909467035	NA	76
288262	3093973	New switches can also be added to the Paging System.	New switches can also be added to the Paging System.	146962213	1475909467037	1475909467178	NA	83
288262	3093973	New switches can also be added to the Paging System.	New switches can also be added to the Paging System.	146962214	1475909467194	1475909467330	NA	79
288262	3093973	New switches can also be added to the Paging System.	New switches can also be added to the Paging System.	146962215	1475909467402	1475909467499	NA	32
288262	3093973	New switches can also be added to the Paging System.	New switches can also be added to the Paging System.	146962217	1475909467711	1475909467802	NA	66
288262	3093973	New switches can also be added to the Paging System.	New switches can also be added to the Paging System.	146962219	1475909467811	1475909467912	NA	69
288262	3093973	New switches can also be added to the Paging System.	New switches can also be added to the Paging System.	146962263	1475909467963	1475909468048	NA	32
288262	3093973	New switches can also be added to the Paging System.	New switches can also be added to the Paging System.	146962264	1475909468293	1475909468432	NA	65
288262	3093973	New switches can also be added to the Paging System.	New switches can also be added to the Paging System.	146962268	1475909468902	1475909468957	NA	68
288262	3093973	New switches can also be added to the Paging System.	New switches can also be added to the Paging System.	146962270	1475909469458	1475909469550		8
288262	3093973	New switches can also be added to the Paging System.	New switches can also be added to the Paging System.	146962272	1475909469618	1475909469709		8
288262	3093973	New switches can also be added to the Paging System.	New switches can also be added to the Paging System.	146962306	1475909469900	1475909470055	NA	65
288262	3093973	New switches can also be added to the Paging System.	New switches can also be added to the Paging System.	146962308	1475909470214	1475909470332	NA	70
288262	3093973	New switches can also be added to the Paging System.	New switches can also be added to the Paging System.	146962311	1475909470434	1475909470530	NA	70
288262	3093973	New switches can also be added to the Paging System.	New switches can also be added to the Paging System.	146962314	1475909471025	1475909471125		8
288262	3093973	New switches can also be added to the Paging System.	New switches can also be added to the Paging System.	146962317	1475909471191	1475909471285		8
288262	3093973	New switches can also be added to the Paging System.	New switches can also be added to the Paging System.	146962351	1475909471387	1475909471511	NA	68
288262	3093973	New switches can also be added to the Paging System.	New switches can also be added to the Paging System.	146962352	1475909471602	1475909471668	NA	68
288262	3093973	New switches can also be added to the Paging System.	New switches can also be added to the Paging System.	146962354	1475909471952	1475909472054	NA	69
288262	3093973	New switches can also be added to the Paging System.	New switches can also be added to the Paging System.	146962356	1475909472171	1475909472338	NA	83
288262	3093973	New switches can also be added to the Paging System.	New switches can also be added to the Paging System.	146962358	1475909472768	1475909472873		8
288262	3093973	New switches can also be added to the Paging System.	New switches can also be added to the Paging System.	146962370	1475909472880	1475909473016	NA	68
288262	3093973	New switches can also be added to the Paging System.	New switches can also be added to the Paging System.	146962372	1475909473023	1475909473147	NA	32
288262	3093973	New switches can also be added to the Paging System.	New switches can also be added to the Paging System.	146962376	1475909473264	1475909473396	NA	84
288262	3093973	New switches can also be added to the Paging System.	New switches can also be added to the Paging System.	146962379	1475909473356	1475909473480	NA	79
288262	3093973	New switches can also be added to the Paging System.	New switches can also be added to the Paging System.	146962381	1475909473538	1475909473628	NA	32
288262	3093973	New switches can also be added to the Paging System.	New switches can also be added to the Paging System.	146962402	1475909473829	1475909473944	NA	84
288262	3093973	New switches can also be added to the Paging System.	New switches can also be added to the Paging System.	146962404	1475909473946	1475909474056	NA	72
288262	3093973	New switches can also be added to the Paging System.	New switches can also be added to the Paging System.	146962408	1475909474037	1475909474157	NA	69
288262	3093973	New switches can also be added to the Paging System.	New switches can also be added to the Paging System.	146962413	1475909474186	1475909474258	NA	32
288262	3093973	New switches can also be added to the Paging System.	New switches can also be added to the Paging System.	146962416	1475909474488	1475909474629	CAPS_LOCK	20
288262	3093973	New switches can also be added to the Paging System.	New switches can also be added to the Paging System.	146962428	1475909474592	1475909474710	NA	80
288262	3093973	New switches can also be added to the Paging System.	New switches can also be added to the Paging System.	146962429	1475909474732	1475909474895	CAPS_LOCK	20
288262	3093973	New switches can also be added to the Paging System.	New switches can also be added to the Paging System.	146962430	1475909475027	1475909475170	NA	65
288262	3093973	New switches can also be added to the Paging System.	New switches can also be added to the Paging System.	146962431	1475909475263	1475909475357	NA	71
288262	3093973	New switches can also be added to the Paging System.	New switches can also be added to the Paging System.	146962432	1475909475366	1475909475478	NA	73
288262	3093973	New switches can also be added to the Paging System.	New switches can also be added to the Paging System.	146962433	1475909475590	1475909475686	NA	78
288262	3093973	New switches can also be added to the Paging System.	New switches can also be added to the Paging System.	146962435	1475909475729	1475909475847	NA	70
288262	3093973	New switches can also be added to the Paging System.	New switches can also be added to the Paging System.	146962463	1475909475904	1475909476001	NA	32
288262	3093973	New switches can also be added to the Paging System.	New switches can also be added to the Paging System.	146962465	1475909476519	1475909476586		8
288262	3093973	New switches can also be added to the Paging System.	New switches can also be added to the Paging System.	146962469	1475909476650	1475909476733		8
288262	3093973	New switches can also be added to the Paging System.	New switches can also be added to the Paging System.	146962474	1475909476789	1475909476862		8
288262	3093973	New switches can also be added to the Paging System.	New switches can also be added to the Paging System.	146962477	1475909477695	1475909477798	NA	78
288262	3093973	New switches can also be added to the Paging System.	New switches can also be added to the Paging System.	146962531	1475909477903	1475909478018	NA	71
288262	3093973	New switches can also be added to the Paging System.	New switches can also be added to the Paging System.	146962533	1475909478025	1475909478116	NA	32
288262	3093973	New switches can also be added to the Paging System.	New switches can also be added to the Paging System.	146962535	1475909478861	1475909479033	CAPS_LOCK	20
288262	3093973	New switches can also be added to the Paging System.	New switches can also be added to the Paging System.	146962537	1475909479094	1475909479283	NA	83
288262	3093973	New switches can also be added to the Paging System.	New switches can also be added to the Paging System.	146962539	1475909479248	1475909479418	CAPS_LOCK	20
288262	3093973	New switches can also be added to the Paging System.	New switches can also be added to the Paging System.	146962541	1475909479405	1475909479517	NA	89
288262	3093973	New switches can also be added to the Paging System.	New switches can also be added to the Paging System.	146962543	1475909479768	1475909479901	NA	83
288262	3093973	New switches can also be added to the Paging System.	New switches can also be added to the Paging System.	146962565	1475909480110	1475909480204	NA	84
288262	3093973	New switches can also be added to the Paging System.	New switches can also be added to the Paging System.	146962568	1475909480217	1475909480329	NA	69
288262	3093973	New switches can also be added to the Paging System.	New switches can also be added to the Paging System.	146962572	1475909480363	1475909480469	NA	77
288262	3093973	New switches can also be added to the Paging System.	New switches can also be added to the Paging System.	146962576	1475909480693	1475909480838	NA	190
288262	3093985	One of the Hottest Gifts for Holiday 2001.	One of the Hottest Gifts for Holiday 2001.	146962652	1475909483434	1475909483523	CAPS_LOCK	20
288262	3093985	One of the Hottest Gifts for Holiday 2001.	One of the Hottest Gifts for Holiday 2001.	146962653	1475909483575	1475909483716	NA	79
288262	3093985	One of the Hottest Gifts for Holiday 2001.	One of the Hottest Gifts for Holiday 2001.	146962654	1475909483667	1475909483797	CAPS_LOCK	20
288262	3093985	One of the Hottest Gifts for Holiday 2001.	One of the Hottest Gifts for Holiday 2001.	146962655	1475909483811	1475909483898	NA	78
288262	3093985	One of the Hottest Gifts for Holiday 2001.	One of the Hottest Gifts for Holiday 2001.	146962657	1475909483991	1475909484079	NA	69
288262	3093985	One of the Hottest Gifts for Holiday 2001.	One of the Hottest Gifts for Holiday 2001.	146962659	1475909484151	1475909484234	NA	32
288262	3093985	One of the Hottest Gifts for Holiday 2001.	One of the Hottest Gifts for Holiday 2001.	146962661	1475909484347	1475909484448	NA	79
288262	3093985	One of the Hottest Gifts for Holiday 2001.	One of the Hottest Gifts for Holiday 2001.	146962678	1475909484460	1475909484584	NA	70
288262	3093985	One of the Hottest Gifts for Holiday 2001.	One of the Hottest Gifts for Holiday 2001.	146962679	1475909484617	1475909484705	NA	32
288262	3093985	One of the Hottest Gifts for Holiday 2001.	One of the Hottest Gifts for Holiday 2001.	146962680	1475909484846	1475909484966	NA	84
288262	3093985	One of the Hottest Gifts for Holiday 2001.	One of the Hottest Gifts for Holiday 2001.	146962681	1475909484938	1475909485035	NA	72
288262	3093985	One of the Hottest Gifts for Holiday 2001.	One of the Hottest Gifts for Holiday 2001.	146962682	1475909485057	1475909485166	NA	69
288262	3093985	One of the Hottest Gifts for Holiday 2001.	One of the Hottest Gifts for Holiday 2001.	146962699	1475909485173	1475909485248	NA	32
288262	3093985	One of the Hottest Gifts for Holiday 2001.	One of the Hottest Gifts for Holiday 2001.	146962701	1475909485535	1475909485652	CAPS_LOCK	20
288262	3093985	One of the Hottest Gifts for Holiday 2001.	One of the Hottest Gifts for Holiday 2001.	146962702	1475909485637	1475909485739	NA	72
288262	3093985	One of the Hottest Gifts for Holiday 2001.	One of the Hottest Gifts for Holiday 2001.	146962703	1475909485758	1475909485882	CAPS_LOCK	20
288262	3093985	One of the Hottest Gifts for Holiday 2001.	One of the Hottest Gifts for Holiday 2001.	146962704	1475909485871	1475909485991	NA	79
288262	3093985	One of the Hottest Gifts for Holiday 2001.	One of the Hottest Gifts for Holiday 2001.	146962706	1475909486287	1475909486365	NA	84
288262	3093985	One of the Hottest Gifts for Holiday 2001.	One of the Hottest Gifts for Holiday 2001.	146962710	1475909486462	1475909486571	NA	84
288262	3093985	One of the Hottest Gifts for Holiday 2001.	One of the Hottest Gifts for Holiday 2001.	146962729	1475909486622	1475909486812	NA	69
288262	3093985	One of the Hottest Gifts for Holiday 2001.	One of the Hottest Gifts for Holiday 2001.	146962732	1475909486905	1475909487078	NA	83
288262	3093985	One of the Hottest Gifts for Holiday 2001.	One of the Hottest Gifts for Holiday 2001.	146962735	1475909487160	1475909487271	NA	84
288262	3093985	One of the Hottest Gifts for Holiday 2001.	One of the Hottest Gifts for Holiday 2001.	146962737	1475909487284	1475909487381	NA	32
288262	3093985	One of the Hottest Gifts for Holiday 2001.	One of the Hottest Gifts for Holiday 2001.	146962738	1475909487602	1475909487754	CAPS_LOCK	20
288262	3093985	One of the Hottest Gifts for Holiday 2001.	One of the Hottest Gifts for Holiday 2001.	146962739	1475909487756	1475909487878	NA	71
288262	3093985	One of the Hottest Gifts for Holiday 2001.	One of the Hottest Gifts for Holiday 2001.	146962767	1475909487885	1475909488029	CAPS_LOCK	20
288262	3093985	One of the Hottest Gifts for Holiday 2001.	One of the Hottest Gifts for Holiday 2001.	146962772	1475909488013	1475909488140	NA	73
288262	3093985	One of the Hottest Gifts for Holiday 2001.	One of the Hottest Gifts for Holiday 2001.	146962776	1475909488290	1475909488411	NA	70
288262	3093985	One of the Hottest Gifts for Holiday 2001.	One of the Hottest Gifts for Holiday 2001.	146962781	1475909488670	1475909488810	NA	84
288262	3093985	One of the Hottest Gifts for Holiday 2001.	One of the Hottest Gifts for Holiday 2001.	146962785	1475909489030	1475909489128	NA	83
288262	3093985	One of the Hottest Gifts for Holiday 2001.	One of the Hottest Gifts for Holiday 2001.	146962790	1475909489251	1475909489356	NA	32
288262	3093985	One of the Hottest Gifts for Holiday 2001.	One of the Hottest Gifts for Holiday 2001.	146962815	1475909489824	1475909489968	NA	70
288262	3093985	One of the Hottest Gifts for Holiday 2001.	One of the Hottest Gifts for Holiday 2001.	146962816	1475909489955	1475909490100	NA	79
288262	3093985	One of the Hottest Gifts for Holiday 2001.	One of the Hottest Gifts for Holiday 2001.	146962818	1475909490202	1475909490281	NA	82
288262	3093985	One of the Hottest Gifts for Holiday 2001.	One of the Hottest Gifts for Holiday 2001.	146962820	1475909490343	1475909490406	NA	32
288262	3093985	One of the Hottest Gifts for Holiday 2001.	One of the Hottest Gifts for Holiday 2001.	146962822	1475909490678	1475909490786	CAPS_LOCK	20
288262	3093985	One of the Hottest Gifts for Holiday 2001.	One of the Hottest Gifts for Holiday 2001.	146962839	1475909490739	1475909490876	NA	72
288262	3093985	One of the Hottest Gifts for Holiday 2001.	One of the Hottest Gifts for Holiday 2001.	146962840	1475909490886	1475909491024	CAPS_LOCK	20
288262	3093985	One of the Hottest Gifts for Holiday 2001.	One of the Hottest Gifts for Holiday 2001.	146962841	1475909491002	1475909491123	NA	79
288262	3093985	One of the Hottest Gifts for Holiday 2001.	One of the Hottest Gifts for Holiday 2001.	146962842	1475909491216	1475909491358	NA	76
288262	3093985	One of the Hottest Gifts for Holiday 2001.	One of the Hottest Gifts for Holiday 2001.	146962843	1475909491403	1475909491527	NA	73
288262	3093985	One of the Hottest Gifts for Holiday 2001.	One of the Hottest Gifts for Holiday 2001.	146962844	1475909491620	1475909491750	NA	68
288262	3093985	One of the Hottest Gifts for Holiday 2001.	One of the Hottest Gifts for Holiday 2001.	146962846	1475909491829	1475909491980	NA	65
288262	3093985	One of the Hottest Gifts for Holiday 2001.	One of the Hottest Gifts for Holiday 2001.	146962891	1475909492067	1475909492173	NA	89
288262	3093985	One of the Hottest Gifts for Holiday 2001.	One of the Hottest Gifts for Holiday 2001.	146962893	1475909492259	1475909492351	NA	32
288262	3093985	One of the Hottest Gifts for Holiday 2001.	One of the Hottest Gifts for Holiday 2001.	146962896	1475909493129	1475909493293	NA	50
288262	3093985	One of the Hottest Gifts for Holiday 2001.	One of the Hottest Gifts for Holiday 2001.	146962899	1475909493395	1475909493455	NA	48
288262	3093985	One of the Hottest Gifts for Holiday 2001.	One of the Hottest Gifts for Holiday 2001.	146962900	1475909493537	1475909493618	NA	48
288262	3093985	One of the Hottest Gifts for Holiday 2001.	One of the Hottest Gifts for Holiday 2001.	146962969	1475909493691	1475909493821	NA	49
288262	3093985	One of the Hottest Gifts for Holiday 2001.	One of the Hottest Gifts for Holiday 2001.	146962971	1475909493956	1475909494071	NA	188
288262	3093985	One of the Hottest Gifts for Holiday 2001.	One of the Hottest Gifts for Holiday 2001.	146962973	1475909494614	1475909494743		8
288262	3093985	One of the Hottest Gifts for Holiday 2001.	One of the Hottest Gifts for Holiday 2001.	146962975	1475909495851	1475909495987	NA	190
288262	3093993	We would have waited up all night to see them.	We would have waited up all night to see them.	146963076	1475909499129	1475909499283	CAPS_LOCK	20
288262	3093993	We would have waited up all night to see them.	We would have waited up all night to see them.	146963079	1475909499537	1475909499689	NA	87
288262	3093993	We would have waited up all night to see them.	We would have waited up all night to see them.	146963081	1475909499726	1475909499949	CAPS_LOCK	20
288262	3093993	We would have waited up all night to see them.	We would have waited up all night to see them.	146963083	1475909499894	1475909500018	NA	69
288262	3093993	We would have waited up all night to see them.	We would have waited up all night to see them.	146963085	1475909500141	1475909500238	NA	32
288262	3093993	We would have waited up all night to see them.	We would have waited up all night to see them.	146963087	1475909500519	1475909500628	NA	87
288262	3093993	We would have waited up all night to see them.	We would have waited up all night to see them.	146963088	1475909500671	1475909500797	NA	79
288262	3093993	We would have waited up all night to see them.	We would have waited up all night to see them.	146963092	1475909500858	1475909500961	NA	85
288262	3093993	We would have waited up all night to see them.	We would have waited up all night to see them.	146963094	1475909501051	1475909501169	NA	76
288262	3093993	We would have waited up all night to see them.	We would have waited up all night to see them.	146963096	1475909501214	1475909501331	NA	68
288262	3093993	We would have waited up all night to see them.	We would have waited up all night to see them.	146963098	1475909501318	1475909501388	NA	32
288262	3093993	We would have waited up all night to see them.	We would have waited up all night to see them.	146963099	1475909501556	1475909501652	NA	72
288262	3093993	We would have waited up all night to see them.	We would have waited up all night to see them.	146963123	1475909501861	1475909501976	NA	86
288262	3093993	We would have waited up all night to see them.	We would have waited up all night to see them.	146963125	1475909501935	1475909502003	NA	65
288262	3093993	We would have waited up all night to see them.	We would have waited up all night to see them.	146963127	1475909502518	1475909502594		8
288262	3093993	We would have waited up all night to see them.	We would have waited up all night to see them.	146963129	1475909502678	1475909502742		8
288262	3093993	We would have waited up all night to see them.	We would have waited up all night to see them.	146963131	1475909502749	1475909502918	NA	65
288262	3093993	We would have waited up all night to see them.	We would have waited up all night to see them.	146963149	1475909502896	1475909503044	NA	86
288262	3093993	We would have waited up all night to see them.	We would have waited up all night to see them.	146963152	1475909503066	1475909503170	NA	69
288262	3093993	We would have waited up all night to see them.	We would have waited up all night to see them.	146963155	1475909503163	1475909503248	NA	32
288262	3093993	We would have waited up all night to see them.	We would have waited up all night to see them.	146963158	1475909503505	1475909503668	NA	87
288262	3093993	We would have waited up all night to see them.	We would have waited up all night to see them.	146963161	1475909503652	1475909503782	NA	69
288262	3093993	We would have waited up all night to see them.	We would have waited up all night to see them.	146963164	1475909504202	1475909504302		8
288262	3093993	We would have waited up all night to see them.	We would have waited up all night to see them.	146963182	1475909504327	1475909504485	NA	65
288262	3093993	We would have waited up all night to see them.	We would have waited up all night to see them.	146963183	1475909504545	1475909504681	NA	73
288262	3093993	We would have waited up all night to see them.	We would have waited up all night to see them.	146963184	1475909504715	1475909504802	NA	84
288262	3093993	We would have waited up all night to see them.	We would have waited up all night to see them.	146963185	1475909505021	1475909505084	NA	69
288262	3093993	We would have waited up all night to see them.	We would have waited up all night to see them.	146963187	1475909505228	1475909505337	NA	68
288262	3093993	We would have waited up all night to see them.	We would have waited up all night to see them.	146963225	1475909505371	1475909505451	NA	32
288262	3093993	We would have waited up all night to see them.	We would have waited up all night to see them.	146963229	1475909506069	1475909506211	NA	85
288262	3093993	We would have waited up all night to see them.	We would have waited up all night to see them.	146963233	1475909506227	1475909506351	NA	80
288262	3093993	We would have waited up all night to see them.	We would have waited up all night to see them.	146963234	1475909506402	1475909506493	NA	32
288262	3093993	We would have waited up all night to see them.	We would have waited up all night to see them.	146963238	1475909506589	1475909506737	NA	65
288262	3093993	We would have waited up all night to see them.	We would have waited up all night to see them.	146963262	1475909506712	1475909506794	NA	76
288262	3093993	We would have waited up all night to see them.	We would have waited up all night to see them.	146963264	1475909506872	1475909506951	NA	76
288262	3093993	We would have waited up all night to see them.	We would have waited up all night to see them.	146963266	1475909507002	1475909507096	NA	32
288262	3093993	We would have waited up all night to see them.	We would have waited up all night to see them.	146963267	1475909507189	1475909507277	NA	78
288262	3093993	We would have waited up all night to see them.	We would have waited up all night to see them.	146963268	1475909507671	1475909507732	NA	73
288262	3093993	We would have waited up all night to see them.	We would have waited up all night to see them.	146963269	1475909507857	1475909507981	NA	71
288262	3093993	We would have waited up all night to see them.	We would have waited up all night to see them.	146963291	1475909508027	1475909508139	NA	72
288262	3093993	We would have waited up all night to see them.	We would have waited up all night to see them.	146963292	1475909508259	1475909508353	NA	84
288262	3093993	We would have waited up all night to see them.	We would have waited up all night to see them.	146963293	1475909508395	1475909508480	NA	32
288262	3093993	We would have waited up all night to see them.	We would have waited up all night to see them.	146963294	1475909508862	1475909508944	NA	84
288262	3093993	We would have waited up all night to see them.	We would have waited up all night to see them.	146963295	1475909508946	1475909509044	NA	79
288262	3093993	We would have waited up all night to see them.	We would have waited up all night to see them.	146963314	1475909509116	1475909509219	NA	32
288262	3093993	We would have waited up all night to see them.	We would have waited up all night to see them.	146963315	1475909509345	1475909509461	NA	83
288262	3093993	We would have waited up all night to see them.	We would have waited up all night to see them.	146963316	1475909509490	1475909509576	NA	69
288262	3093993	We would have waited up all night to see them.	We would have waited up all night to see them.	146963317	1475909509682	1475909509766	NA	69
288262	3093993	We would have waited up all night to see them.	We would have waited up all night to see them.	146963318	1475909509913	1475909510010	NA	32
288262	3093993	We would have waited up all night to see them.	We would have waited up all night to see them.	146963329	1475909510269	1475909510377	NA	84
288262	3093993	We would have waited up all night to see them.	We would have waited up all night to see them.	146963330	1475909510349	1475909510446	NA	72
288262	3093993	We would have waited up all night to see them.	We would have waited up all night to see them.	146963331	1475909510515	1475909510624	NA	69
288262	3093993	We would have waited up all night to see them.	We would have waited up all night to see them.	146963332	1475909510691	1475909510739	NA	77
288262	3093993	We would have waited up all night to see them.	We would have waited up all night to see them.	146963333	1475909511184	1475909511293	NA	190
