PARTICIPANT_ID	TEST_SECTION_ID	SENTENCE	USER_INPUT	KEYSTROKE_ID	PRESS_TIME	RELEASE_TIME	LETTER	KEYCODE
288890	3100208	Please feel free to add to it if I missed something.	Please feel free to add to it if I missed something.	147263965	1475925050770	1475925051280	SHIFT	16
288890	3100208	Please feel free to add to it if I missed something.	Please feel free to add to it if I missed something.	147263964	1475925051048	1475925051169	P	80
288890	3100208	Please feel free to add to it if I missed something.	Please feel free to add to it if I missed something.	147263966	1475925051257	1475925051376	L	76
288890	3100208	Please feel free to add to it if I missed something.	Please feel free to add to it if I missed something.	147263967	1475925051393	1475925051477	e	69
288890	3100208	Please feel free to add to it if I missed something.	Please feel free to add to it if I missed something.	147263968	1475925051623	1475925051723	a	65
288890	3100208	Please feel free to add to it if I missed something.	Please feel free to add to it if I missed something.	147263969	1475925051939	1475925052032	s	83
288890	3100208	Please feel free to add to it if I missed something.	Please feel free to add to it if I missed something.	147263986	1475925052211	1475925052305	BKSP	8
288890	3100208	Please feel free to add to it if I missed something.	Please feel free to add to it if I missed something.	147263987	1475925052375	1475925052444	BKSP	8
288890	3100208	Please feel free to add to it if I missed something.	Please feel free to add to it if I missed something.	147263988	1475925052524	1475925052590	BKSP	8
288890	3100208	Please feel free to add to it if I missed something.	Please feel free to add to it if I missed something.	147263989	1475925052646	1475925052683	BKSP	8
288890	3100208	Please feel free to add to it if I missed something.	Please feel free to add to it if I missed something.	147263990	1475925052748	1475925052819	BKSP	8
288890	3100208	Please feel free to add to it if I missed something.	Please feel free to add to it if I missed something.	147263991	1475925053559	1475925053864	SHIFT	16
288890	3100208	Please feel free to add to it if I missed something.	Please feel free to add to it if I missed something.	147263992	1475925053794	1475925053902	P	80
288890	3100208	Please feel free to add to it if I missed something.	Please feel free to add to it if I missed something.	147263993	1475925054015	1475925054083	l	76
288890	3100208	Please feel free to add to it if I missed something.	Please feel free to add to it if I missed something.	147263994	1475925054380	1475925054449	e	69
288890	3100208	Please feel free to add to it if I missed something.	Please feel free to add to it if I missed something.	147263995	1475925054461	1475925054520	a	65
288890	3100208	Please feel free to add to it if I missed something.	Please feel free to add to it if I missed something.	147263996	1475925054631	1475925054685	s	83
288890	3100208	Please feel free to add to it if I missed something.	Please feel free to add to it if I missed something.	147263997	1475925054792	1475925054846	e	69
288890	3100208	Please feel free to add to it if I missed something.	Please feel free to add to it if I missed something.	147263998	1475925054889	1475925054965	 	32
288890	3100208	Please feel free to add to it if I missed something.	Please feel free to add to it if I missed something.	147263999	1475925055034	1475925055091	f	70
288890	3100208	Please feel free to add to it if I missed something.	Please feel free to add to it if I missed something.	147264000	1475925055156	1475925055219	e	69
288890	3100208	Please feel free to add to it if I missed something.	Please feel free to add to it if I missed something.	147264001	1475925055338	1475925055392	e	69
288890	3100208	Please feel free to add to it if I missed something.	Please feel free to add to it if I missed something.	147264002	1475925055534	1475925055601	l	76
288890	3100208	Please feel free to add to it if I missed something.	Please feel free to add to it if I missed something.	147264003	1475925055639	1475925055703	 	32
288890	3100208	Please feel free to add to it if I missed something.	Please feel free to add to it if I missed something.	147264004	1475925056157	1475925056299	f	70
288890	3100208	Please feel free to add to it if I missed something.	Please feel free to add to it if I missed something.	147264005	1475925056274	1475925056368	r	82
288890	3100208	Please feel free to add to it if I missed something.	Please feel free to add to it if I missed something.	147264018	1475925056360	1475925056416	e	69
288890	3100208	Please feel free to add to it if I missed something.	Please feel free to add to it if I missed something.	147264019	1475925056498	1475925056566	e	69
288890	3100208	Please feel free to add to it if I missed something.	Please feel free to add to it if I missed something.	147264020	1475925056614	1475925056696	 	32
288890	3100208	Please feel free to add to it if I missed something.	Please feel free to add to it if I missed something.	147264021	1475925057400	1475925057465	t	84
288890	3100208	Please feel free to add to it if I missed something.	Please feel free to add to it if I missed something.	147264022	1475925057493	1475925057562	o	79
288890	3100208	Please feel free to add to it if I missed something.	Please feel free to add to it if I missed something.	147264023	1475925057632	1475925057719	 	32
288890	3100208	Please feel free to add to it if I missed something.	Please feel free to add to it if I missed something.	147264024	1475925057806	1475925057885	a	65
288890	3100208	Please feel free to add to it if I missed something.	Please feel free to add to it if I missed something.	147264025	1475925058009	1475925058063	d	68
288890	3100208	Please feel free to add to it if I missed something.	Please feel free to add to it if I missed something.	147264026	1475925058140	1475925058213	d	68
288890	3100208	Please feel free to add to it if I missed something.	Please feel free to add to it if I missed something.	147264027	1475925058246	1475925058318	 	32
288890	3100208	Please feel free to add to it if I missed something.	Please feel free to add to it if I missed something.	147264028	1475925058360	1475925058418	t	84
288890	3100208	Please feel free to add to it if I missed something.	Please feel free to add to it if I missed something.	147264029	1475925058430	1475925058493	o	79
288890	3100208	Please feel free to add to it if I missed something.	Please feel free to add to it if I missed something.	147264030	1475925058574	1475925058644	 	32
288890	3100208	Please feel free to add to it if I missed something.	Please feel free to add to it if I missed something.	147264031	1475925058716	1475925058794	i	73
288890	3100208	Please feel free to add to it if I missed something.	Please feel free to add to it if I missed something.	147264032	1475925058806	1475925058868	t	84
288890	3100208	Please feel free to add to it if I missed something.	Please feel free to add to it if I missed something.	147264033	1475925058915	1475925058987	 	32
288890	3100208	Please feel free to add to it if I missed something.	Please feel free to add to it if I missed something.	147264034	1475925059217	1475925059284	i	73
288890	3100208	Please feel free to add to it if I missed something.	Please feel free to add to it if I missed something.	147264035	1475925059356	1475925059421	f	70
288890	3100208	Please feel free to add to it if I missed something.	Please feel free to add to it if I missed something.	147264036	1475925059442	1475925059510	 	32
288890	3100208	Please feel free to add to it if I missed something.	Please feel free to add to it if I missed something.	147264037	1475925059676	1475925059754	CAPS_LOCK	20
288890	3100208	Please feel free to add to it if I missed something.	Please feel free to add to it if I missed something.	147264038	1475925059764	1475925059833	I	73
288890	3100208	Please feel free to add to it if I missed something.	Please feel free to add to it if I missed something.	147264039	1475925059850	1475925059935	CAPS_LOCK	20
288890	3100208	Please feel free to add to it if I missed something.	Please feel free to add to it if I missed something.	147264041	1475925059942	1475925060019	 	32
288890	3100208	Please feel free to add to it if I missed something.	Please feel free to add to it if I missed something.	147264046	1475925060135	1475925060265	m	77
288890	3100208	Please feel free to add to it if I missed something.	Please feel free to add to it if I missed something.	147264048	1475925060247	1475925060324	i	73
288890	3100208	Please feel free to add to it if I missed something.	Please feel free to add to it if I missed something.	147264050	1475925060337	1475925060391	s	83
288890	3100208	Please feel free to add to it if I missed something.	Please feel free to add to it if I missed something.	147264052	1475925060474	1475925060547	s	83
288890	3100208	Please feel free to add to it if I missed something.	Please feel free to add to it if I missed something.	147264054	1475925060712	1475925060762	e	69
288890	3100208	Please feel free to add to it if I missed something.	Please feel free to add to it if I missed something.	147264057	1475925060889	1475925060954	d	68
288890	3100208	Please feel free to add to it if I missed something.	Please feel free to add to it if I missed something.	147264058	1475925060994	1475925061061	 	32
288890	3100208	Please feel free to add to it if I missed something.	Please feel free to add to it if I missed something.	147264059	1475925061120	1475925061194	s	83
288890	3100208	Please feel free to add to it if I missed something.	Please feel free to add to it if I missed something.	147264060	1475925061231	1475925061389	o	79
288890	3100208	Please feel free to add to it if I missed something.	Please feel free to add to it if I missed something.	147264061	1475925061338	1475925061477	m	77
288890	3100208	Please feel free to add to it if I missed something.	Please feel free to add to it if I missed something.	147264062	1475925061421	1475925061497	e	69
288890	3100208	Please feel free to add to it if I missed something.	Please feel free to add to it if I missed something.	147264063	1475925061721	1475925061777	t	84
288890	3100208	Please feel free to add to it if I missed something.	Please feel free to add to it if I missed something.	147264064	1475925061771	1475925061890	h	72
288890	3100208	Please feel free to add to it if I missed something.	Please feel free to add to it if I missed something.	147264065	1475925061858	1475925062011	i	73
288890	3100208	Please feel free to add to it if I missed something.	Please feel free to add to it if I missed something.	147264073	1475925061986	1475925062078	n	78
288890	3100208	Please feel free to add to it if I missed something.	Please feel free to add to it if I missed something.	147264075	1475925062047	1475925062120	g	71
288890	3100208	Please feel free to add to it if I missed something.	Please feel free to add to it if I missed something.	147264077	1475925062557	1475925062628	.	190
288890	3100211	Thanks I needed that today!	Thanks I needed that today!	147264103	1475925066792	1475925066890	CAPS_LOCK	20
288890	3100211	Thanks I needed that today!	Thanks I needed that today!	147264105	1475925066874	1475925066959	T	84
288890	3100211	Thanks I needed that today!	Thanks I needed that today!	147264106	1475925066970	1475925067071	CAPS_LOCK	20
288890	3100211	Thanks I needed that today!	Thanks I needed that today!	147264107	1475925067127	1475925067198	h	72
288890	3100211	Thanks I needed that today!	Thanks I needed that today!	147264108	1475925067215	1475925067295	a	65
288890	3100211	Thanks I needed that today!	Thanks I needed that today!	147264109	1475925067376	1475925067519	n	78
288890	3100211	Thanks I needed that today!	Thanks I needed that today!	147264110	1475925067469	1475925067618	k	75
288890	3100211	Thanks I needed that today!	Thanks I needed that today!	147264111	1475925067557	1475925067639	s	83
288890	3100211	Thanks I needed that today!	Thanks I needed that today!	147264113	1475925067681	1475925067770	 	32
288890	3100211	Thanks I needed that today!	Thanks I needed that today!	147264115	1475925068174	1475925068251	CAPS_LOCK	20
288890	3100211	Thanks I needed that today!	Thanks I needed that today!	147264117	1475925068231	1475925068298	I	73
288890	3100211	Thanks I needed that today!	Thanks I needed that today!	147264119	1475925068360	1475925068442	CAPS_LOCK	20
288890	3100211	Thanks I needed that today!	Thanks I needed that today!	147264121	1475925068481	1475925068555	 	32
288890	3100211	Thanks I needed that today!	Thanks I needed that today!	147264122	1475925068667	1475925068751	n	78
288890	3100211	Thanks I needed that today!	Thanks I needed that today!	147264133	1475925068815	1475925068868	e	69
288890	3100211	Thanks I needed that today!	Thanks I needed that today!	147264134	1475925068928	1475925069002	e	69
288890	3100211	Thanks I needed that today!	Thanks I needed that today!	147264135	1475925069116	1475925069193	d	68
288890	3100211	Thanks I needed that today!	Thanks I needed that today!	147264136	1475925069607	1475925069685	e	69
288890	3100211	Thanks I needed that today!	Thanks I needed that today!	147264137	1475925069799	1475925069876	d	68
288890	3100211	Thanks I needed that today!	Thanks I needed that today!	147264143	1475925069951	1475925070046	 	32
288890	3100211	Thanks I needed that today!	Thanks I needed that today!	147264144	1475925070089	1475925070166	t	84
288890	3100211	Thanks I needed that today!	Thanks I needed that today!	147264145	1475925070214	1475925070307	h	72
288890	3100211	Thanks I needed that today!	Thanks I needed that today!	147264146	1475925070550	1475925070631	a	65
288890	3100211	Thanks I needed that today!	Thanks I needed that today!	147264147	1475925070642	1475925070690	t	84
288890	3100211	Thanks I needed that today!	Thanks I needed that today!	147264153	1475925070809	1475925070858	 	32
288890	3100211	Thanks I needed that today!	Thanks I needed that today!	147264154	1475925070896	1475925070950	t	84
288890	3100211	Thanks I needed that today!	Thanks I needed that today!	147264155	1475925071024	1475925071088	o	79
288890	3100211	Thanks I needed that today!	Thanks I needed that today!	147264156	1475925071209	1475925071266	d	68
288890	3100211	Thanks I needed that today!	Thanks I needed that today!	147264157	1475925071407	1475925071519	a	65
288890	3100211	Thanks I needed that today!	Thanks I needed that today!	147264163	1475925071501	1475925071562	y	89
288890	3100211	Thanks I needed that today!	Thanks I needed that today!	147264165	1475925071839	1475925072080	SHIFT	16
288890	3100211	Thanks I needed that today!	Thanks I needed that today!	147264164	1475925071944	1475925072035	!	49
288890	3100213	Both have also promised higher salaries.	Both have also promised higher salaries.	147264199	1475925075859	1475925075982	CAPS_LOCK	20
288890	3100213	Both have also promised higher salaries.	Both have also promised higher salaries.	147264200	1475925075959	1475925076016	N	78
288890	3100213	Both have also promised higher salaries.	Both have also promised higher salaries.	147264201	1475925076078	1475925076149	CAPS_LOCK	20
288890	3100213	Both have also promised higher salaries.	Both have also promised higher salaries.	147264202	1475925076454	1475925076544	BKSP	8
288890	3100213	Both have also promised higher salaries.	Both have also promised higher salaries.	147264203	1475925076835	1475925076927	CAPS_LOCK	20
288890	3100213	Both have also promised higher salaries.	Both have also promised higher salaries.	147264204	1475925076970	1475925077035	B	66
288890	3100213	Both have also promised higher salaries.	Both have also promised higher salaries.	147264205	1475925077026	1475925077111	CAPS_LOCK	20
288890	3100213	Both have also promised higher salaries.	Both have also promised higher salaries.	147264206	1475925077167	1475925077247	o	79
288890	3100213	Both have also promised higher salaries.	Both have also promised higher salaries.	147264207	1475925077384	1475925077451	t	84
288890	3100213	Both have also promised higher salaries.	Both have also promised higher salaries.	147264208	1475925077465	1475925077559	h	72
288890	3100213	Both have also promised higher salaries.	Both have also promised higher salaries.	147264209	1475925077539	1475925077631	 	32
288890	3100213	Both have also promised higher salaries.	Both have also promised higher salaries.	147264210	1475925077685	1475925077758	h	72
288890	3100213	Both have also promised higher salaries.	Both have also promised higher salaries.	147264212	1475925077803	1475925077886	a	65
288890	3100213	Both have also promised higher salaries.	Both have also promised higher salaries.	147264214	1475925077940	1475925077997	v	86
288890	3100213	Both have also promised higher salaries.	Both have also promised higher salaries.	147264216	1475925078044	1475925078107	e	69
288890	3100213	Both have also promised higher salaries.	Both have also promised higher salaries.	147264218	1475925078144	1475925078221	 	32
288890	3100213	Both have also promised higher salaries.	Both have also promised higher salaries.	147264219	1475925078265	1475925078363	a	65
288890	3100213	Both have also promised higher salaries.	Both have also promised higher salaries.	147264220	1475925078371	1475925078442	l	76
288890	3100213	Both have also promised higher salaries.	Both have also promised higher salaries.	147264221	1475925078484	1475925078533	s	83
288890	3100213	Both have also promised higher salaries.	Both have also promised higher salaries.	147264222	1475925078559	1475925078610	o	79
288890	3100213	Both have also promised higher salaries.	Both have also promised higher salaries.	147264223	1475925078707	1475925078782	 	32
288890	3100213	Both have also promised higher salaries.	Both have also promised higher salaries.	147264228	1475925079554	1475925079622	p	80
288890	3100213	Both have also promised higher salaries.	Both have also promised higher salaries.	147264230	1475925079724	1475925079793	r	82
288890	3100213	Both have also promised higher salaries.	Both have also promised higher salaries.	147264231	1475925079861	1475925080004	o	79
288890	3100213	Both have also promised higher salaries.	Both have also promised higher salaries.	147264232	1475925079984	1475925080088	m	77
288890	3100213	Both have also promised higher salaries.	Both have also promised higher salaries.	147264234	1475925080441	1475925080484	i	73
288890	3100213	Both have also promised higher salaries.	Both have also promised higher salaries.	147264245	1475925080573	1475925080734	s	83
288890	3100213	Both have also promised higher salaries.	Both have also promised higher salaries.	147264246	1475925080776	1475925080954	e	69
288890	3100213	Both have also promised higher salaries.	Both have also promised higher salaries.	147264247	1475925080886	1475925081034	d	68
288890	3100213	Both have also promised higher salaries.	Both have also promised higher salaries.	147264248	1475925081072	1475925081146	 	32
288890	3100213	Both have also promised higher salaries.	Both have also promised higher salaries.	147264249	1475925081413	1475925081518	h	72
288890	3100213	Both have also promised higher salaries.	Both have also promised higher salaries.	147264251	1475925081493	1475925081665	i	73
288890	3100213	Both have also promised higher salaries.	Both have also promised higher salaries.	147264250	1475925081594	1475925081649	g	71
288890	3100213	Both have also promised higher salaries.	Both have also promised higher salaries.	147264252	1475925081652	1475925081734	h	72
288890	3100213	Both have also promised higher salaries.	Both have also promised higher salaries.	147264253	1475925081877	1475925081941	e	69
288890	3100213	Both have also promised higher salaries.	Both have also promised higher salaries.	147264254	1475925082041	1475925082107	r	82
288890	3100213	Both have also promised higher salaries.	Both have also promised higher salaries.	147264255	1475925082192	1475925082278	 	32
288890	3100213	Both have also promised higher salaries.	Both have also promised higher salaries.	147264266	1475925082332	1475925082385	s	83
288890	3100213	Both have also promised higher salaries.	Both have also promised higher salaries.	147264267	1475925082566	1475925082622	a	65
288890	3100213	Both have also promised higher salaries.	Both have also promised higher salaries.	147264268	1475925082762	1475925082852	l	76
288890	3100213	Both have also promised higher salaries.	Both have also promised higher salaries.	147264269	1475925082894	1475925082962	a	65
288890	3100213	Both have also promised higher salaries.	Both have also promised higher salaries.	147264270	1475925083224	1475925083268	r	82
288890	3100213	Both have also promised higher salaries.	Both have also promised higher salaries.	147264272	1475925083339	1475925083412	i	73
288890	3100213	Both have also promised higher salaries.	Both have also promised higher salaries.	147264273	1475925083426	1475925083481	e	69
288890	3100213	Both have also promised higher salaries.	Both have also promised higher salaries.	147264274	1475925083603	1475925083677	s	83
288890	3100213	Both have also promised higher salaries.	Both have also promised higher salaries.	147264275	1475925084141	1475925084239	.	190
288890	3100216	How can we get these answers?	How can we get these answers?	147264295	1475925088310	1475925088407	CAPS_LOCK	20
288890	3100216	How can we get these answers?	How can we get these answers?	147264296	1475925088429	1475925088497	H	72
288890	3100216	How can we get these answers?	How can we get these answers?	147264297	1475925088488	1475925088589	CAPS_LOCK	20
288890	3100216	How can we get these answers?	How can we get these answers?	147264298	1475925088609	1475925088673	o	79
288890	3100216	How can we get these answers?	How can we get these answers?	147264299	1475925088743	1475925088798	w	87
288890	3100216	How can we get these answers?	How can we get these answers?	147264300	1475925088828	1475925088896	 	32
288890	3100216	How can we get these answers?	How can we get these answers?	147264301	1475925089030	1475925089089	c	67
288890	3100216	How can we get these answers?	How can we get these answers?	147264302	1475925089148	1475925089218	a	65
288890	3100216	How can we get these answers?	How can we get these answers?	147264303	1475925089267	1475925089416	n	78
288890	3100216	How can we get these answers?	How can we get these answers?	147264304	1475925089385	1475925089490	 	32
288890	3100216	How can we get these answers?	How can we get these answers?	147264305	1475925089631	1475925089693	w	87
288890	3100216	How can we get these answers?	How can we get these answers?	147264306	1475925089800	1475925089854	e	69
288890	3100216	How can we get these answers?	How can we get these answers?	147264307	1475925089897	1475925089974	 	32
288890	3100216	How can we get these answers?	How can we get these answers?	147264308	1475925090085	1475925090148	g	71
288890	3100216	How can we get these answers?	How can we get these answers?	147264309	1475925090141	1475925090205	e	69
288890	3100216	How can we get these answers?	How can we get these answers?	147264310	1475925090340	1475925090390	t	84
288890	3100216	How can we get these answers?	How can we get these answers?	147264311	1475925090478	1475925090543	 	32
288890	3100216	How can we get these answers?	How can we get these answers?	147264312	1475925090569	1475925090616	t	84
288890	3100216	How can we get these answers?	How can we get these answers?	147264313	1475925090654	1475925090717	h	72
288890	3100216	How can we get these answers?	How can we get these answers?	147264314	1475925090806	1475925090871	e	69
288890	3100216	How can we get these answers?	How can we get these answers?	147264315	1475925091020	1475925091072	s	83
288890	3100216	How can we get these answers?	How can we get these answers?	147264316	1475925091203	1475925091235	r	82
288890	3100216	How can we get these answers?	How can we get these answers?	147264337	1475925091330	1475925091414	 	32
288890	3100216	How can we get these answers?	How can we get these answers?	147264338	1475925091878	1475925091946	BKSP	8
288890	3100216	How can we get these answers?	How can we get these answers?	147264339	1475925092029	1475925092099	BKSP	8
288890	3100216	How can we get these answers?	How can we get these answers?	147264340	1475925092888	1475925092953	e	69
288890	3100216	How can we get these answers?	How can we get these answers?	147264341	1475925093024	1475925093111	 	32
288890	3100216	How can we get these answers?	How can we get these answers?	147264342	1475925093135	1475925093205	a	65
288890	3100216	How can we get these answers?	How can we get these answers?	147264343	1475925093306	1475925093424	n	78
288890	3100216	How can we get these answers?	How can we get these answers?	147264344	1475925093754	1475925093801	s	83
288890	3100216	How can we get these answers?	How can we get these answers?	147264345	1475925093921	1475925093985	w	87
288890	3100216	How can we get these answers?	How can we get these answers?	147264346	1475925094091	1475925094133	e	69
288890	3100216	How can we get these answers?	How can we get these answers?	147264347	1475925094177	1475925094244	r	82
288890	3100216	How can we get these answers?	How can we get these answers?	147264348	1475925094296	1475925094356	s	83
288890	3100216	How can we get these answers?	How can we get these answers?	147264349	1475925094673	1475925095148	SHIFT	16
288890	3100216	How can we get these answers?	How can we get these answers?	147264350	1475925095104	1475925095218	?	191
288890	3100217	Most contenders here use his Ford-Cosworth engines.	Most contenders here use his Ford-Cosworth egines.	147264368	1475925098833	1475925098960	CAPS_LOCK	20
288890	3100217	Most contenders here use his Ford-Cosworth engines.	Most contenders here use his Ford-Cosworth egines.	147264369	1475925098942	1475925099018	M	77
288890	3100217	Most contenders here use his Ford-Cosworth engines.	Most contenders here use his Ford-Cosworth egines.	147264370	1475925099064	1475925099150	CAPS_LOCK	20
288890	3100217	Most contenders here use his Ford-Cosworth engines.	Most contenders here use his Ford-Cosworth egines.	147264371	1475925099208	1475925099280	o	79
288890	3100217	Most contenders here use his Ford-Cosworth engines.	Most contenders here use his Ford-Cosworth egines.	147264372	1475925099457	1475925099523	s	83
288890	3100217	Most contenders here use his Ford-Cosworth engines.	Most contenders here use his Ford-Cosworth egines.	147264373	1475925099526	1475925099594	t	84
288890	3100217	Most contenders here use his Ford-Cosworth engines.	Most contenders here use his Ford-Cosworth egines.	147264374	1475925099678	1475925099741	 	32
288890	3100217	Most contenders here use his Ford-Cosworth engines.	Most contenders here use his Ford-Cosworth egines.	147264386	1475925099801	1475925099861	c	67
288890	3100217	Most contenders here use his Ford-Cosworth engines.	Most contenders here use his Ford-Cosworth egines.	147264387	1475925099898	1475925100034	o	79
288890	3100217	Most contenders here use his Ford-Cosworth engines.	Most contenders here use his Ford-Cosworth egines.	147264388	1475925100026	1475925100110	n	78
288890	3100217	Most contenders here use his Ford-Cosworth engines.	Most contenders here use his Ford-Cosworth egines.	147264389	1475925100256	1475925100319	t	84
288890	3100217	Most contenders here use his Ford-Cosworth engines.	Most contenders here use his Ford-Cosworth egines.	147264390	1475925100354	1475925100432	e	69
288890	3100217	Most contenders here use his Ford-Cosworth engines.	Most contenders here use his Ford-Cosworth egines.	147264391	1475925100524	1475925100607	n	78
288890	3100217	Most contenders here use his Ford-Cosworth engines.	Most contenders here use his Ford-Cosworth egines.	147264392	1475925100615	1475925100741	d	68
288890	3100217	Most contenders here use his Ford-Cosworth engines.	Most contenders here use his Ford-Cosworth egines.	147264393	1475925100986	1475925101155	e	69
288890	3100217	Most contenders here use his Ford-Cosworth engines.	Most contenders here use his Ford-Cosworth egines.	147264394	1475925101086	1475925101184	r	82
288890	3100217	Most contenders here use his Ford-Cosworth engines.	Most contenders here use his Ford-Cosworth egines.	147264395	1475925101392	1475925101468	s	83
288890	3100217	Most contenders here use his Ford-Cosworth engines.	Most contenders here use his Ford-Cosworth egines.	147264396	1475925101589	1475925101682	 	32
288890	3100217	Most contenders here use his Ford-Cosworth engines.	Most contenders here use his Ford-Cosworth egines.	147264397	1475925101879	1475925101959	h	72
288890	3100217	Most contenders here use his Ford-Cosworth engines.	Most contenders here use his Ford-Cosworth egines.	147264398	1475925101979	1475925102043	e	69
288890	3100217	Most contenders here use his Ford-Cosworth engines.	Most contenders here use his Ford-Cosworth egines.	147264399	1475925102112	1475925102189	r	82
288890	3100217	Most contenders here use his Ford-Cosworth engines.	Most contenders here use his Ford-Cosworth egines.	147264400	1475925102222	1475925102306	e	69
288890	3100217	Most contenders here use his Ford-Cosworth engines.	Most contenders here use his Ford-Cosworth egines.	147264401	1475925102374	1475925102455	 	32
288890	3100217	Most contenders here use his Ford-Cosworth engines.	Most contenders here use his Ford-Cosworth egines.	147264402	1475925103214	1475925103281	u	85
288890	3100217	Most contenders here use his Ford-Cosworth engines.	Most contenders here use his Ford-Cosworth egines.	147264403	1475925103362	1475925103423	s	83
288890	3100217	Most contenders here use his Ford-Cosworth engines.	Most contenders here use his Ford-Cosworth egines.	147264404	1475925103687	1475925103781	 	32
288890	3100217	Most contenders here use his Ford-Cosworth engines.	Most contenders here use his Ford-Cosworth egines.	147264405	1475925104340	1475925104429	BKSP	8
288890	3100217	Most contenders here use his Ford-Cosworth engines.	Most contenders here use his Ford-Cosworth egines.	147264406	1475925104530	1475925104616	e	69
288890	3100217	Most contenders here use his Ford-Cosworth engines.	Most contenders here use his Ford-Cosworth egines.	147264418	1475925104641	1475925104699	 	32
288890	3100217	Most contenders here use his Ford-Cosworth engines.	Most contenders here use his Ford-Cosworth egines.	147264419	1475925105152	1475925105295	h	72
288890	3100217	Most contenders here use his Ford-Cosworth engines.	Most contenders here use his Ford-Cosworth egines.	147264421	1475925105253	1475925105375	i	73
288890	3100217	Most contenders here use his Ford-Cosworth engines.	Most contenders here use his Ford-Cosworth egines.	147264423	1475925105377	1475925105500	s	83
288890	3100217	Most contenders here use his Ford-Cosworth engines.	Most contenders here use his Ford-Cosworth egines.	147264430	1475925105493	1475925105586	 	32
288890	3100217	Most contenders here use his Ford-Cosworth engines.	Most contenders here use his Ford-Cosworth egines.	147264431	1475925105684	1475925105771	CAPS_LOCK	20
288890	3100217	Most contenders here use his Ford-Cosworth engines.	Most contenders here use his Ford-Cosworth egines.	147264432	1475925105762	1475925105826	F	70
288890	3100217	Most contenders here use his Ford-Cosworth engines.	Most contenders here use his Ford-Cosworth egines.	147264433	1475925105849	1475925105954	CAPS_LOCK	20
288890	3100217	Most contenders here use his Ford-Cosworth engines.	Most contenders here use his Ford-Cosworth egines.	147264434	1475925106016	1475925106087	o	79
288890	3100217	Most contenders here use his Ford-Cosworth engines.	Most contenders here use his Ford-Cosworth egines.	147264435	1475925106188	1475925106271	d	68
288890	3100217	Most contenders here use his Ford-Cosworth engines.	Most contenders here use his Ford-Cosworth egines.	147264436	1475925106494	1475925106551	-	189
288890	3100217	Most contenders here use his Ford-Cosworth engines.	Most contenders here use his Ford-Cosworth egines.	147264437	1475925107060	1475925107141	BKSP	8
288890	3100217	Most contenders here use his Ford-Cosworth engines.	Most contenders here use his Ford-Cosworth egines.	147264438	1475925107371	1475925107445	BKSP	8
288890	3100217	Most contenders here use his Ford-Cosworth engines.	Most contenders here use his Ford-Cosworth egines.	147264439	1475925108003	1475925108064	r	82
288890	3100217	Most contenders here use his Ford-Cosworth engines.	Most contenders here use his Ford-Cosworth egines.	147264460	1475925108112	1475925108171	d	68
288890	3100217	Most contenders here use his Ford-Cosworth engines.	Most contenders here use his Ford-Cosworth egines.	147264461	1475925108818	1475925108922	-	189
288890	3100217	Most contenders here use his Ford-Cosworth engines.	Most contenders here use his Ford-Cosworth egines.	147264462	1475925109911	1475925110016	CAPS_LOCK	20
288890	3100217	Most contenders here use his Ford-Cosworth engines.	Most contenders here use his Ford-Cosworth egines.	147264463	1475925109998	1475925110071	C	67
288890	3100217	Most contenders here use his Ford-Cosworth engines.	Most contenders here use his Ford-Cosworth egines.	147264464	1475925110092	1475925110174	CAPS_LOCK	20
288890	3100217	Most contenders here use his Ford-Cosworth engines.	Most contenders here use his Ford-Cosworth egines.	147264465	1475925110250	1475925110330	o	79
288890	3100217	Most contenders here use his Ford-Cosworth engines.	Most contenders here use his Ford-Cosworth egines.	147264466	1475925110416	1475925110471	s	83
288890	3100217	Most contenders here use his Ford-Cosworth engines.	Most contenders here use his Ford-Cosworth egines.	147264467	1475925110609	1475925110666	w	87
288890	3100217	Most contenders here use his Ford-Cosworth engines.	Most contenders here use his Ford-Cosworth egines.	147264468	1475925110746	1475925110820	o	79
288890	3100217	Most contenders here use his Ford-Cosworth engines.	Most contenders here use his Ford-Cosworth egines.	147264469	1475925111046	1475925111144	r	82
288890	3100217	Most contenders here use his Ford-Cosworth engines.	Most contenders here use his Ford-Cosworth egines.	147264471	1475925111269	1475925111328	t	84
288890	3100217	Most contenders here use his Ford-Cosworth engines.	Most contenders here use his Ford-Cosworth egines.	147264473	1475925111397	1475925111562	h	72
288890	3100217	Most contenders here use his Ford-Cosworth engines.	Most contenders here use his Ford-Cosworth egines.	147264477	1475925111540	1475925111657	 	32
288890	3100217	Most contenders here use his Ford-Cosworth engines.	Most contenders here use his Ford-Cosworth egines.	147264478	1475925112022	1475925112110	e	69
288890	3100217	Most contenders here use his Ford-Cosworth engines.	Most contenders here use his Ford-Cosworth egines.	147264479	1475925112300	1475925112360	g	71
288890	3100217	Most contenders here use his Ford-Cosworth engines.	Most contenders here use his Ford-Cosworth egines.	147264480	1475925112390	1475925112530	i	73
288890	3100217	Most contenders here use his Ford-Cosworth engines.	Most contenders here use his Ford-Cosworth egines.	147264481	1475925112492	1475925112596	n	78
288890	3100217	Most contenders here use his Ford-Cosworth engines.	Most contenders here use his Ford-Cosworth egines.	147264482	1475925112601	1475925112653	e	69
288890	3100217	Most contenders here use his Ford-Cosworth engines.	Most contenders here use his Ford-Cosworth egines.	147264487	1475925112766	1475925112841	s	83
288890	3100217	Most contenders here use his Ford-Cosworth engines.	Most contenders here use his Ford-Cosworth egines.	147264489	1475925113079	1475925113132	.	190
288890	3100218	Hopefully this can wait until Monday.	Hopefully this can wait until Monday.	147264506	1475925118537	1475925118605	CAPS_LOCK	20
288890	3100218	Hopefully this can wait until Monday.	Hopefully this can wait until Monday.	147264507	1475925118633	1475925118706	H	72
288890	3100218	Hopefully this can wait until Monday.	Hopefully this can wait until Monday.	147264508	1475925118697	1475925118776	CAPS_LOCK	20
288890	3100218	Hopefully this can wait until Monday.	Hopefully this can wait until Monday.	147264509	1475925118917	1475925119075	o	79
288890	3100218	Hopefully this can wait until Monday.	Hopefully this can wait until Monday.	147264510	1475925119013	1475925119163	p	80
288890	3100218	Hopefully this can wait until Monday.	Hopefully this can wait until Monday.	147264511	1475925119147	1475925119217	e	69
288890	3100218	Hopefully this can wait until Monday.	Hopefully this can wait until Monday.	147264512	1475925119316	1475925119383	f	70
288890	3100218	Hopefully this can wait until Monday.	Hopefully this can wait until Monday.	147264513	1475925119399	1475925119453	u	85
288890	3100218	Hopefully this can wait until Monday.	Hopefully this can wait until Monday.	147264514	1475925119592	1475925119656	l	76
288890	3100218	Hopefully this can wait until Monday.	Hopefully this can wait until Monday.	147264515	1475925119711	1475925119796	l	76
288890	3100218	Hopefully this can wait until Monday.	Hopefully this can wait until Monday.	147264516	1475925119798	1475925119863	y	89
288890	3100218	Hopefully this can wait until Monday.	Hopefully this can wait until Monday.	147264517	1475925119950	1475925120065	 	32
288890	3100218	Hopefully this can wait until Monday.	Hopefully this can wait until Monday.	147264518	1475925120452	1475925120513	t	84
288890	3100218	Hopefully this can wait until Monday.	Hopefully this can wait until Monday.	147264519	1475925120552	1475925120687	h	72
288890	3100218	Hopefully this can wait until Monday.	Hopefully this can wait until Monday.	147264521	1475925120651	1475925120775	i	73
288890	3100218	Hopefully this can wait until Monday.	Hopefully this can wait until Monday.	147264523	1475925120767	1475925120819	s	83
288890	3100218	Hopefully this can wait until Monday.	Hopefully this can wait until Monday.	147264525	1475925120850	1475925120921	 	32
288890	3100218	Hopefully this can wait until Monday.	Hopefully this can wait until Monday.	147264528	1475925121017	1475925121078	c	67
288890	3100218	Hopefully this can wait until Monday.	Hopefully this can wait until Monday.	147264529	1475925121157	1475925121214	a	65
288890	3100218	Hopefully this can wait until Monday.	Hopefully this can wait until Monday.	147264530	1475925121254	1475925121371	n	78
288890	3100218	Hopefully this can wait until Monday.	Hopefully this can wait until Monday.	147264532	1475925121315	1475925121456	 	32
288890	3100218	Hopefully this can wait until Monday.	Hopefully this can wait until Monday.	147264531	1475925121400	1475925121450	w	87
288890	3100218	Hopefully this can wait until Monday.	Hopefully this can wait until Monday.	147264533	1475925121581	1475925121646	a	65
288890	3100218	Hopefully this can wait until Monday.	Hopefully this can wait until Monday.	147264534	1475925121649	1475925121738	i	73
288890	3100218	Hopefully this can wait until Monday.	Hopefully this can wait until Monday.	147264535	1475925121838	1475925121893	t	84
288890	3100218	Hopefully this can wait until Monday.	Hopefully this can wait until Monday.	147264537	1475925121941	1475925122014	 	32
288890	3100218	Hopefully this can wait until Monday.	Hopefully this can wait until Monday.	147264539	1475925122092	1475925122209	u	85
288890	3100218	Hopefully this can wait until Monday.	Hopefully this can wait until Monday.	147264545	1475925122178	1475925122299	n	78
288890	3100218	Hopefully this can wait until Monday.	Hopefully this can wait until Monday.	147264546	1475925122280	1475925122344	t	84
288890	3100218	Hopefully this can wait until Monday.	Hopefully this can wait until Monday.	147264547	1475925122378	1475925122456	i	73
288890	3100218	Hopefully this can wait until Monday.	Hopefully this can wait until Monday.	147264548	1475925122571	1475925122659	l	76
288890	3100218	Hopefully this can wait until Monday.	Hopefully this can wait until Monday.	147264549	1475925122691	1475925122764	 	32
288890	3100218	Hopefully this can wait until Monday.	Hopefully this can wait until Monday.	147264550	1475925123176	1475925123250	CAPS_LOCK	20
288890	3100218	Hopefully this can wait until Monday.	Hopefully this can wait until Monday.	147264551	1475925123255	1475925123346	M	77
288890	3100218	Hopefully this can wait until Monday.	Hopefully this can wait until Monday.	147264552	1475925123353	1475925123425	CAPS_LOCK	20
288890	3100218	Hopefully this can wait until Monday.	Hopefully this can wait until Monday.	147264553	1475925123441	1475925123585	o	79
288890	3100218	Hopefully this can wait until Monday.	Hopefully this can wait until Monday.	147264554	1475925123547	1475925123685	n	78
288890	3100218	Hopefully this can wait until Monday.	Hopefully this can wait until Monday.	147264555	1475925123706	1475925123761	d	68
288890	3100218	Hopefully this can wait until Monday.	Hopefully this can wait until Monday.	147264556	1475925123891	1475925123954	a	65
288890	3100218	Hopefully this can wait until Monday.	Hopefully this can wait until Monday.	147264557	1475925123967	1475925124034	y	89
288890	3100218	Hopefully this can wait until Monday.	Hopefully this can wait until Monday.	147264558	1475925124370	1475925124450	.	190
288890	3100219	It would be wise to keep him inactive until he is effective in a game.	It would be wise to keep him inactive until her is effective in a game.	147264571	1475925129389	1475925129455	CAPS_LOCK	20
288890	3100219	It would be wise to keep him inactive until he is effective in a game.	It would be wise to keep him inactive until her is effective in a game.	147264572	1475925129485	1475925129568	I	73
288890	3100219	It would be wise to keep him inactive until he is effective in a game.	It would be wise to keep him inactive until her is effective in a game.	147264573	1475925129553	1475925129626	CAPS_LOCK	20
288890	3100219	It would be wise to keep him inactive until he is effective in a game.	It would be wise to keep him inactive until her is effective in a game.	147264574	1475925129842	1475925129897	t	84
288890	3100219	It would be wise to keep him inactive until he is effective in a game.	It would be wise to keep him inactive until her is effective in a game.	147264575	1475925129961	1475925130033	 	32
288890	3100219	It would be wise to keep him inactive until he is effective in a game.	It would be wise to keep him inactive until her is effective in a game.	147264576	1475925130161	1475925130211	w	87
288890	3100219	It would be wise to keep him inactive until he is effective in a game.	It would be wise to keep him inactive until her is effective in a game.	147264577	1475925130275	1475925130348	o	79
288890	3100219	It would be wise to keep him inactive until he is effective in a game.	It would be wise to keep him inactive until her is effective in a game.	147264583	1475925130461	1475925130522	u	85
288890	3100219	It would be wise to keep him inactive until he is effective in a game.	It would be wise to keep him inactive until her is effective in a game.	147264584	1475925130699	1475925130733	l	76
288890	3100219	It would be wise to keep him inactive until he is effective in a game.	It would be wise to keep him inactive until her is effective in a game.	147264585	1475925130826	1475925130873	d	68
288890	3100219	It would be wise to keep him inactive until he is effective in a game.	It would be wise to keep him inactive until her is effective in a game.	147264586	1475925130987	1475925131069	 	32
288890	3100219	It would be wise to keep him inactive until he is effective in a game.	It would be wise to keep him inactive until her is effective in a game.	147264587	1475925131896	1475925131969	b	66
288890	3100219	It would be wise to keep him inactive until he is effective in a game.	It would be wise to keep him inactive until her is effective in a game.	147264588	1475925132005	1475925132065	e	69
288890	3100219	It would be wise to keep him inactive until he is effective in a game.	It would be wise to keep him inactive until her is effective in a game.	147264589	1475925132112	1475925132171	 	32
288890	3100219	It would be wise to keep him inactive until he is effective in a game.	It would be wise to keep him inactive until her is effective in a game.	147264590	1475925132270	1475925132324	w	87
288890	3100219	It would be wise to keep him inactive until he is effective in a game.	It would be wise to keep him inactive until her is effective in a game.	147264591	1475925132376	1475925132451	i	73
288890	3100219	It would be wise to keep him inactive until he is effective in a game.	It would be wise to keep him inactive until her is effective in a game.	147264592	1475925132497	1475925132553	s	83
288890	3100219	It would be wise to keep him inactive until he is effective in a game.	It would be wise to keep him inactive until her is effective in a game.	147264597	1475925132668	1475925132731	e	69
288890	3100219	It would be wise to keep him inactive until he is effective in a game.	It would be wise to keep him inactive until her is effective in a game.	147264599	1475925132798	1475925132865	 	32
288890	3100219	It would be wise to keep him inactive until he is effective in a game.	It would be wise to keep him inactive until her is effective in a game.	147264601	1475925132897	1475925132954	t	84
288890	3100219	It would be wise to keep him inactive until he is effective in a game.	It would be wise to keep him inactive until her is effective in a game.	147264602	1475925132993	1475925133072	o	79
288890	3100219	It would be wise to keep him inactive until he is effective in a game.	It would be wise to keep him inactive until her is effective in a game.	147264603	1475925133193	1475925133255	 	32
288890	3100219	It would be wise to keep him inactive until he is effective in a game.	It would be wise to keep him inactive until her is effective in a game.	147264604	1475925133326	1475925133398	k	75
288890	3100219	It would be wise to keep him inactive until he is effective in a game.	It would be wise to keep him inactive until her is effective in a game.	147264605	1475925133454	1475925133516	e	69
288890	3100219	It would be wise to keep him inactive until he is effective in a game.	It would be wise to keep him inactive until her is effective in a game.	147264606	1475925133606	1475925133666	e	69
288890	3100219	It would be wise to keep him inactive until he is effective in a game.	It would be wise to keep him inactive until her is effective in a game.	147264607	1475925133718	1475925133779	p	80
288890	3100219	It would be wise to keep him inactive until he is effective in a game.	It would be wise to keep him inactive until her is effective in a game.	147264608	1475925133867	1475925133935	 	32
288890	3100219	It would be wise to keep him inactive until he is effective in a game.	It would be wise to keep him inactive until her is effective in a game.	147264617	1475925134073	1475925134152	h	72
288890	3100219	It would be wise to keep him inactive until he is effective in a game.	It would be wise to keep him inactive until her is effective in a game.	147264618	1475925134175	1475925134308	i	73
288890	3100219	It would be wise to keep him inactive until he is effective in a game.	It would be wise to keep him inactive until her is effective in a game.	147264619	1475925134333	1475925134450	m	77
288890	3100219	It would be wise to keep him inactive until he is effective in a game.	It would be wise to keep him inactive until her is effective in a game.	147264620	1475925134479	1475925134530	 	32
288890	3100219	It would be wise to keep him inactive until he is effective in a game.	It would be wise to keep him inactive until her is effective in a game.	147264621	1475925134797	1475925134863	n	78
288890	3100219	It would be wise to keep him inactive until he is effective in a game.	It would be wise to keep him inactive until her is effective in a game.	147264627	1475925135265	1475925135380	BKSP	8
288890	3100219	It would be wise to keep him inactive until he is effective in a game.	It would be wise to keep him inactive until her is effective in a game.	147264628	1475925135805	1475925135939	i	73
288890	3100219	It would be wise to keep him inactive until he is effective in a game.	It would be wise to keep him inactive until her is effective in a game.	147264629	1475925135897	1475925136025	n	78
288890	3100219	It would be wise to keep him inactive until he is effective in a game.	It would be wise to keep him inactive until her is effective in a game.	147264630	1475925136004	1475925136084	a	65
288890	3100219	It would be wise to keep him inactive until he is effective in a game.	It would be wise to keep him inactive until her is effective in a game.	147264631	1475925136300	1475925136375	c	67
288890	3100219	It would be wise to keep him inactive until he is effective in a game.	It would be wise to keep him inactive until her is effective in a game.	147264657	1475925136339	1475925136440	t	84
288890	3100219	It would be wise to keep him inactive until he is effective in a game.	It would be wise to keep him inactive until her is effective in a game.	147264658	1475925136598	1475925136682	i	73
288890	3100219	It would be wise to keep him inactive until he is effective in a game.	It would be wise to keep him inactive until her is effective in a game.	147264659	1475925136707	1475925136802	c	67
288890	3100219	It would be wise to keep him inactive until he is effective in a game.	It would be wise to keep him inactive until her is effective in a game.	147264660	1475925136897	1475925137032	e	69
288890	3100219	It would be wise to keep him inactive until he is effective in a game.	It would be wise to keep him inactive until her is effective in a game.	147264661	1475925137077	1475925137166	 	32
288890	3100219	It would be wise to keep him inactive until he is effective in a game.	It would be wise to keep him inactive until her is effective in a game.	147264662	1475925137736	1475925137830	BKSP	8
288890	3100219	It would be wise to keep him inactive until he is effective in a game.	It would be wise to keep him inactive until her is effective in a game.	147264663	1475925137905	1475925137984	BKSP	8
288890	3100219	It would be wise to keep him inactive until he is effective in a game.	It would be wise to keep him inactive until her is effective in a game.	147264664	1475925138054	1475925138134	BKSP	8
288890	3100219	It would be wise to keep him inactive until he is effective in a game.	It would be wise to keep him inactive until her is effective in a game.	147264665	1475925138201	1475925138318	BKSP	8
288890	3100219	It would be wise to keep him inactive until he is effective in a game.	It would be wise to keep him inactive until her is effective in a game.	147264666	1475925138566	1475925138724	BKSP	8
288890	3100219	It would be wise to keep him inactive until he is effective in a game.	It would be wise to keep him inactive until her is effective in a game.	147264667	1475925138984	1475925139162	BKSP	8
288890	3100219	It would be wise to keep him inactive until he is effective in a game.	It would be wise to keep him inactive until her is effective in a game.	147264668	1475925139421	1475925139550	BKSP	8
288890	3100219	It would be wise to keep him inactive until he is effective in a game.	It would be wise to keep him inactive until her is effective in a game.	147264669	1475925140266	1475925140358	a	65
288890	3100219	It would be wise to keep him inactive until he is effective in a game.	It would be wise to keep him inactive until her is effective in a game.	147264670	1475925140447	1475925140523	c	67
288890	3100219	It would be wise to keep him inactive until he is effective in a game.	It would be wise to keep him inactive until her is effective in a game.	147264671	1475925140808	1475925140897	i	73
288890	3100219	It would be wise to keep him inactive until he is effective in a game.	It would be wise to keep him inactive until her is effective in a game.	147264673	1475925141001	1475925141046	v	86
288890	3100219	It would be wise to keep him inactive until he is effective in a game.	It would be wise to keep him inactive until her is effective in a game.	147264675	1475925141318	1475925141419	e	69
288890	3100219	It would be wise to keep him inactive until he is effective in a game.	It would be wise to keep him inactive until her is effective in a game.	147264677	1475925141609	1475925141714	 	32
288890	3100219	It would be wise to keep him inactive until he is effective in a game.	It would be wise to keep him inactive until her is effective in a game.	147264691	1475925142377	1475925142458	BKSP	8
288890	3100219	It would be wise to keep him inactive until he is effective in a game.	It would be wise to keep him inactive until her is effective in a game.	147264692	1475925142541	1475925142614	BKSP	8
288890	3100219	It would be wise to keep him inactive until he is effective in a game.	It would be wise to keep him inactive until her is effective in a game.	147264693	1475925142708	1475925142800	BKSP	8
288890	3100219	It would be wise to keep him inactive until he is effective in a game.	It would be wise to keep him inactive until her is effective in a game.	147264694	1475925143007	1475925143109	BKSP	8
288890	3100219	It would be wise to keep him inactive until he is effective in a game.	It would be wise to keep him inactive until her is effective in a game.	147264695	1475925143360	1475925143433	BKSP	8
288890	3100219	It would be wise to keep him inactive until he is effective in a game.	It would be wise to keep him inactive until her is effective in a game.	147264696	1475925144436	1475925144525	c	67
288890	3100219	It would be wise to keep him inactive until he is effective in a game.	It would be wise to keep him inactive until her is effective in a game.	147264697	1475925144647	1475925144718	t	84
288890	3100219	It would be wise to keep him inactive until he is effective in a game.	It would be wise to keep him inactive until her is effective in a game.	147264698	1475925144786	1475925144869	i	73
288890	3100219	It would be wise to keep him inactive until he is effective in a game.	It would be wise to keep him inactive until her is effective in a game.	147264699	1475925144986	1475925145062	v	86
288890	3100219	It would be wise to keep him inactive until he is effective in a game.	It would be wise to keep him inactive until her is effective in a game.	147264700	1475925145082	1475925145155	e	69
288890	3100219	It would be wise to keep him inactive until he is effective in a game.	It would be wise to keep him inactive until her is effective in a game.	147264706	1475925145209	1475925145278	 	32
288890	3100219	It would be wise to keep him inactive until he is effective in a game.	It would be wise to keep him inactive until her is effective in a game.	147264707	1475925145603	1475925145692	u	85
288890	3100219	It would be wise to keep him inactive until he is effective in a game.	It would be wise to keep him inactive until her is effective in a game.	147264708	1475925145672	1475925145795	n	78
288890	3100219	It would be wise to keep him inactive until he is effective in a game.	It would be wise to keep him inactive until her is effective in a game.	147264709	1475925145798	1475925145866	t	84
288890	3100219	It would be wise to keep him inactive until he is effective in a game.	It would be wise to keep him inactive until her is effective in a game.	147264710	1475925145839	1475925145923	i	73
288890	3100219	It would be wise to keep him inactive until he is effective in a game.	It would be wise to keep him inactive until her is effective in a game.	147264711	1475925146092	1475925146165	l	76
288890	3100219	It would be wise to keep him inactive until he is effective in a game.	It would be wise to keep him inactive until her is effective in a game.	147264712	1475925146224	1475925146285	 	32
288890	3100219	It would be wise to keep him inactive until he is effective in a game.	It would be wise to keep him inactive until her is effective in a game.	147264713	1475925147218	1475925147296	h	72
288890	3100219	It would be wise to keep him inactive until he is effective in a game.	It would be wise to keep him inactive until her is effective in a game.	147264714	1475925147278	1475925147354	e	69
288890	3100219	It would be wise to keep him inactive until he is effective in a game.	It would be wise to keep him inactive until her is effective in a game.	147264715	1475925147442	1475925147508	r	82
288890	3100219	It would be wise to keep him inactive until he is effective in a game.	It would be wise to keep him inactive until her is effective in a game.	147264731	1475925147523	1475925147589	 	32
288890	3100219	It would be wise to keep him inactive until he is effective in a game.	It would be wise to keep him inactive until her is effective in a game.	147264732	1475925147690	1475925147762	i	73
288890	3100219	It would be wise to keep him inactive until he is effective in a game.	It would be wise to keep him inactive until her is effective in a game.	147264733	1475925147790	1475925147862	s	83
288890	3100219	It would be wise to keep him inactive until he is effective in a game.	It would be wise to keep him inactive until her is effective in a game.	147264734	1475925148094	1475925148188	 	32
288890	3100219	It would be wise to keep him inactive until he is effective in a game.	It would be wise to keep him inactive until her is effective in a game.	147264735	1475925149101	1475925149223	e	69
288890	3100219	It would be wise to keep him inactive until he is effective in a game.	It would be wise to keep him inactive until her is effective in a game.	147264736	1475925149642	1475925149725	f	70
288890	3100219	It would be wise to keep him inactive until he is effective in a game.	It would be wise to keep him inactive until her is effective in a game.	147264737	1475925149797	1475925149891	f	70
288890	3100219	It would be wise to keep him inactive until he is effective in a game.	It would be wise to keep him inactive until her is effective in a game.	147264738	1475925149899	1475925149990	e	69
288890	3100219	It would be wise to keep him inactive until he is effective in a game.	It would be wise to keep him inactive until her is effective in a game.	147264739	1475925150018	1475925150096	c	67
288890	3100219	It would be wise to keep him inactive until he is effective in a game.	It would be wise to keep him inactive until her is effective in a game.	147264740	1475925150246	1475925150331	t	84
288890	3100219	It would be wise to keep him inactive until he is effective in a game.	It would be wise to keep him inactive until her is effective in a game.	147264742	1475925150735	1475925150808	i	73
288890	3100219	It would be wise to keep him inactive until he is effective in a game.	It would be wise to keep him inactive until her is effective in a game.	147264743	1475925150896	1475925150962	v	86
288890	3100219	It would be wise to keep him inactive until he is effective in a game.	It would be wise to keep him inactive until her is effective in a game.	147264744	1475925151123	1475925151190	e	69
288890	3100219	It would be wise to keep him inactive until he is effective in a game.	It would be wise to keep him inactive until her is effective in a game.	147264745	1475925151211	1475925151268	 	32
288890	3100219	It would be wise to keep him inactive until he is effective in a game.	It would be wise to keep him inactive until her is effective in a game.	147264746	1475925151372	1475925151505	i	73
288890	3100219	It would be wise to keep him inactive until he is effective in a game.	It would be wise to keep him inactive until her is effective in a game.	147264747	1475925151470	1475925151584	n	78
288890	3100219	It would be wise to keep him inactive until he is effective in a game.	It would be wise to keep him inactive until her is effective in a game.	147264748	1475925151673	1475925151766	 	32
288890	3100219	It would be wise to keep him inactive until he is effective in a game.	It would be wise to keep him inactive until her is effective in a game.	147264749	1475925152151	1475925152226	a	65
288890	3100219	It would be wise to keep him inactive until he is effective in a game.	It would be wise to keep him inactive until her is effective in a game.	147264750	1475925152267	1475925152351	 	32
288890	3100219	It would be wise to keep him inactive until he is effective in a game.	It would be wise to keep him inactive until her is effective in a game.	147264751	1475925152465	1475925152516	g	71
288890	3100219	It would be wise to keep him inactive until he is effective in a game.	It would be wise to keep him inactive until her is effective in a game.	147264752	1475925152577	1475925152651	a	65
288890	3100219	It would be wise to keep him inactive until he is effective in a game.	It would be wise to keep him inactive until her is effective in a game.	147264759	1475925152859	1475925152906	e	69
288890	3100219	It would be wise to keep him inactive until he is effective in a game.	It would be wise to keep him inactive until her is effective in a game.	147264760	1475925153272	1475925153356	BKSP	8
288890	3100219	It would be wise to keep him inactive until he is effective in a game.	It would be wise to keep him inactive until her is effective in a game.	147264762	1475925153900	1475925153968	m	77
288890	3100219	It would be wise to keep him inactive until he is effective in a game.	It would be wise to keep him inactive until her is effective in a game.	147264764	1475925154054	1475925154121	e	69
288890	3100219	It would be wise to keep him inactive until he is effective in a game.	It would be wise to keep him inactive until her is effective in a game.	147264766	1475925154505	1475925154573	.	190
288890	3100226	I'm trying to get them billed before the holidays.	I'm trying to get them billed before the holidays.	147264786	1475925159006	1475925159103	CAPS_LOCK	20
288890	3100226	I'm trying to get them billed before the holidays.	I'm trying to get them billed before the holidays.	147264788	1475925159117	1475925159203	I	73
288890	3100226	I'm trying to get them billed before the holidays.	I'm trying to get them billed before the holidays.	147264790	1475925159208	1475925159313	CAPS_LOCK	20
288890	3100226	I'm trying to get them billed before the holidays.	I'm trying to get them billed before the holidays.	147264792	1475925159738	1475925159815	'	192
288890	3100226	I'm trying to get them billed before the holidays.	I'm trying to get them billed before the holidays.	147264794	1475925160023	1475925160087	m	77
288890	3100226	I'm trying to get them billed before the holidays.	I'm trying to get them billed before the holidays.	147264796	1475925160140	1475925160202	 	32
288890	3100226	I'm trying to get them billed before the holidays.	I'm trying to get them billed before the holidays.	147264797	1475925160418	1475925160469	t	84
288890	3100226	I'm trying to get them billed before the holidays.	I'm trying to get them billed before the holidays.	147264804	1475925160537	1475925160605	r	82
288890	3100226	I'm trying to get them billed before the holidays.	I'm trying to get them billed before the holidays.	147264806	1475925160762	1475925160818	y	89
288890	3100226	I'm trying to get them billed before the holidays.	I'm trying to get them billed before the holidays.	147264808	1475925160928	1475925161064	i	73
288890	3100226	I'm trying to get them billed before the holidays.	I'm trying to get them billed before the holidays.	147264810	1475925161025	1475925161171	n	78
288890	3100226	I'm trying to get them billed before the holidays.	I'm trying to get them billed before the holidays.	147264812	1475925161195	1475925161263	g	71
288890	3100226	I'm trying to get them billed before the holidays.	I'm trying to get them billed before the holidays.	147264821	1475925161298	1475925161385	 	32
288890	3100226	I'm trying to get them billed before the holidays.	I'm trying to get them billed before the holidays.	147264822	1475925161467	1475925161537	t	84
288890	3100226	I'm trying to get them billed before the holidays.	I'm trying to get them billed before the holidays.	147264823	1475925161576	1475925161661	o	79
288890	3100226	I'm trying to get them billed before the holidays.	I'm trying to get them billed before the holidays.	147264824	1475925161761	1475925161840	 	32
288890	3100226	I'm trying to get them billed before the holidays.	I'm trying to get them billed before the holidays.	147264825	1475925162216	1475925162282	g	71
288890	3100226	I'm trying to get them billed before the holidays.	I'm trying to get them billed before the holidays.	147264836	1475925162290	1475925162342	e	69
288890	3100226	I'm trying to get them billed before the holidays.	I'm trying to get them billed before the holidays.	147264837	1475925162483	1475925162538	t	84
288890	3100226	I'm trying to get them billed before the holidays.	I'm trying to get them billed before the holidays.	147264838	1475925162607	1475925162683	 	32
288890	3100226	I'm trying to get them billed before the holidays.	I'm trying to get them billed before the holidays.	147264839	1475925162686	1475925162741	t	84
288890	3100226	I'm trying to get them billed before the holidays.	I'm trying to get them billed before the holidays.	147264840	1475925162794	1475925162872	h	72
288890	3100226	I'm trying to get them billed before the holidays.	I'm trying to get them billed before the holidays.	147264849	1475925164382	1475925164469	e	69
288890	3100226	I'm trying to get them billed before the holidays.	I'm trying to get them billed before the holidays.	147264850	1475925164562	1475925164646	m	77
288890	3100226	I'm trying to get them billed before the holidays.	I'm trying to get them billed before the holidays.	147264851	1475925164677	1475925164749	 	32
288890	3100226	I'm trying to get them billed before the holidays.	I'm trying to get them billed before the holidays.	147264852	1475925164833	1475925164906	b	66
288890	3100226	I'm trying to get them billed before the holidays.	I'm trying to get them billed before the holidays.	147264853	1475925164991	1475925165064	i	73
288890	3100226	I'm trying to get them billed before the holidays.	I'm trying to get them billed before the holidays.	147264862	1475925165250	1475925165310	l	76
288890	3100226	I'm trying to get them billed before the holidays.	I'm trying to get them billed before the holidays.	147264863	1475925165381	1475925165455	l	76
288890	3100226	I'm trying to get them billed before the holidays.	I'm trying to get them billed before the holidays.	147264864	1475925165463	1475925165541	e	69
288890	3100226	I'm trying to get them billed before the holidays.	I'm trying to get them billed before the holidays.	147264865	1475925165660	1475925165749	d	68
288890	3100226	I'm trying to get them billed before the holidays.	I'm trying to get them billed before the holidays.	147264866	1475925165793	1475925165839	 	32
288890	3100226	I'm trying to get them billed before the holidays.	I'm trying to get them billed before the holidays.	147264872	1475925166008	1475925166058	b	66
288890	3100226	I'm trying to get them billed before the holidays.	I'm trying to get them billed before the holidays.	147264873	1475925166752	1475925166913	f	70
288890	3100226	I'm trying to get them billed before the holidays.	I'm trying to get them billed before the holidays.	147264874	1475925167466	1475925167628	BKSP	8
288890	3100226	I'm trying to get them billed before the holidays.	I'm trying to get them billed before the holidays.	147264875	1475925167714	1475925167887	e	69
288890	3100226	I'm trying to get them billed before the holidays.	I'm trying to get them billed before the holidays.	147264876	1475925167852	1475925167978	f	70
288890	3100226	I'm trying to get them billed before the holidays.	I'm trying to get them billed before the holidays.	147264877	1475925168579	1475925168649	o	79
288890	3100226	I'm trying to get them billed before the holidays.	I'm trying to get them billed before the holidays.	147264887	1475925168672	1475925168754	r	82
288890	3100226	I'm trying to get them billed before the holidays.	I'm trying to get them billed before the holidays.	147264888	1475925168897	1475925168986	e	69
288890	3100226	I'm trying to get them billed before the holidays.	I'm trying to get them billed before the holidays.	147264889	1475925169098	1475925169190	 	32
288890	3100226	I'm trying to get them billed before the holidays.	I'm trying to get them billed before the holidays.	147264890	1475925169375	1475925169441	t	84
288890	3100226	I'm trying to get them billed before the holidays.	I'm trying to get them billed before the holidays.	147264891	1475925169467	1475925169544	h	72
288890	3100226	I'm trying to get them billed before the holidays.	I'm trying to get them billed before the holidays.	147264905	1475925169744	1475925169789	e	69
288890	3100226	I'm trying to get them billed before the holidays.	I'm trying to get them billed before the holidays.	147264907	1475925169892	1475925169968	 	32
288890	3100226	I'm trying to get them billed before the holidays.	I'm trying to get them billed before the holidays.	147264910	1475925170081	1475925170140	h	72
288890	3100226	I'm trying to get them billed before the holidays.	I'm trying to get them billed before the holidays.	147264912	1475925170687	1475925170901	o	79
288890	3100226	I'm trying to get them billed before the holidays.	I'm trying to get them billed before the holidays.	147264923	1475925170861	1475925170977	l	76
288890	3100226	I'm trying to get them billed before the holidays.	I'm trying to get them billed before the holidays.	147264924	1475925171177	1475925171264	i	73
288890	3100226	I'm trying to get them billed before the holidays.	I'm trying to get them billed before the holidays.	147264925	1475925171380	1475925171435	d	68
288890	3100226	I'm trying to get them billed before the holidays.	I'm trying to get them billed before the holidays.	147264926	1475925171626	1475925171690	a	65
288890	3100226	I'm trying to get them billed before the holidays.	I'm trying to get them billed before the holidays.	147264927	1475925171747	1475925171820	y	89
288890	3100226	I'm trying to get them billed before the holidays.	I'm trying to get them billed before the holidays.	147264928	1475925172483	1475925172607	s	83
288890	3100226	I'm trying to get them billed before the holidays.	I'm trying to get them billed before the holidays.	147264934	1475925173055	1475925173107	.	190
288890	3100230	Ladies, here's the revised September purchase.	Ladies, here's the revised September purchase.	147264968	1475925177346	1475925177435	CAPS_LOCK	20
288890	3100230	Ladies, here's the revised September purchase.	Ladies, here's the revised September purchase.	147264971	1475925177475	1475925177543	L	76
288890	3100230	Ladies, here's the revised September purchase.	Ladies, here's the revised September purchase.	147264973	1475925177536	1475925177641	CAPS_LOCK	20
288890	3100230	Ladies, here's the revised September purchase.	Ladies, here's the revised September purchase.	147264977	1475925178068	1475925178145	a	65
288890	3100230	Ladies, here's the revised September purchase.	Ladies, here's the revised September purchase.	147264978	1475925178310	1475925178425	d	68
288890	3100230	Ladies, here's the revised September purchase.	Ladies, here's the revised September purchase.	147264979	1475925178613	1475925178726	i	73
288890	3100230	Ladies, here's the revised September purchase.	Ladies, here's the revised September purchase.	147264985	1475925178705	1475925178783	e	69
288890	3100230	Ladies, here's the revised September purchase.	Ladies, here's the revised September purchase.	147264986	1475925178903	1475925179004	s	83
288890	3100230	Ladies, here's the revised September purchase.	Ladies, here's the revised September purchase.	147264987	1475925179664	1475925179750	,	188
288890	3100230	Ladies, here's the revised September purchase.	Ladies, here's the revised September purchase.	147264988	1475925179741	1475925179797	 	32
288890	3100230	Ladies, here's the revised September purchase.	Ladies, here's the revised September purchase.	147264989	1475925179990	1475925180069	h	72
288890	3100230	Ladies, here's the revised September purchase.	Ladies, here's the revised September purchase.	147264990	1475925180120	1475925180191	e	69
288890	3100230	Ladies, here's the revised September purchase.	Ladies, here's the revised September purchase.	147264993	1475925180211	1475925180281	r	82
288890	3100230	Ladies, here's the revised September purchase.	Ladies, here's the revised September purchase.	147264994	1475925180342	1475925180411	e	69
288890	3100230	Ladies, here's the revised September purchase.	Ladies, here's the revised September purchase.	147264995	1475925180475	1475925180562	 	32
288890	3100230	Ladies, here's the revised September purchase.	Ladies, here's the revised September purchase.	147264996	1475925180967	1475925181070	BKSP	8
288890	3100230	Ladies, here's the revised September purchase.	Ladies, here's the revised September purchase.	147264997	1475925181667	1475925181737	'	192
288890	3100230	Ladies, here's the revised September purchase.	Ladies, here's the revised September purchase.	147264998	1475925181810	1475925181887	s	83
288890	3100230	Ladies, here's the revised September purchase.	Ladies, here's the revised September purchase.	147265004	1475925181975	1475925182047	 	32
288890	3100230	Ladies, here's the revised September purchase.	Ladies, here's the revised September purchase.	147265005	1475925182513	1475925182576	t	84
288890	3100230	Ladies, here's the revised September purchase.	Ladies, here's the revised September purchase.	147265006	1475925182925	1475925183007	e	69
288890	3100230	Ladies, here's the revised September purchase.	Ladies, here's the revised September purchase.	147265007	1475925183067	1475925183151	 	32
288890	3100230	Ladies, here's the revised September purchase.	Ladies, here's the revised September purchase.	147265008	1475925183153	1475925183217	r	82
288890	3100230	Ladies, here's the revised September purchase.	Ladies, here's the revised September purchase.	147265009	1475925183346	1475925183419	e	69
288890	3100230	Ladies, here's the revised September purchase.	Ladies, here's the revised September purchase.	147265010	1475925183444	1475925183499	v	86
288890	3100230	Ladies, here's the revised September purchase.	Ladies, here's the revised September purchase.	147265011	1475925183594	1475925183676	i	73
288890	3100230	Ladies, here's the revised September purchase.	Ladies, here's the revised September purchase.	147265012	1475925183714	1475925183771	s	83
288890	3100230	Ladies, here's the revised September purchase.	Ladies, here's the revised September purchase.	147265013	1475925183877	1475925183931	e	69
288890	3100230	Ladies, here's the revised September purchase.	Ladies, here's the revised September purchase.	147265031	1475925184042	1475925184120	d	68
288890	3100230	Ladies, here's the revised September purchase.	Ladies, here's the revised September purchase.	147265032	1475925184211	1475925184280	 	32
288890	3100230	Ladies, here's the revised September purchase.	Ladies, here's the revised September purchase.	147265033	1475925184577	1475925185415	BKSP	8
288890	3100230	Ladies, here's the revised September purchase.	Ladies, here's the revised September purchase.	147265034	1475925186054	1475925186137	h	72
288890	3100230	Ladies, here's the revised September purchase.	Ladies, here's the revised September purchase.	147265035	1475925186151	1475925186215	e	69
288890	3100230	Ladies, here's the revised September purchase.	Ladies, here's the revised September purchase.	147265036	1475925186278	1475925186365	 	32
288890	3100230	Ladies, here's the revised September purchase.	Ladies, here's the revised September purchase.	147265037	1475925186470	1475925186522	r	82
288890	3100230	Ladies, here's the revised September purchase.	Ladies, here's the revised September purchase.	147265038	1475925186577	1475925186652	e	69
288890	3100230	Ladies, here's the revised September purchase.	Ladies, here's the revised September purchase.	147265039	1475925186708	1475925186749	v	86
288890	3100230	Ladies, here's the revised September purchase.	Ladies, here's the revised September purchase.	147265041	1475925186909	1475925186981	i	73
288890	3100230	Ladies, here's the revised September purchase.	Ladies, here's the revised September purchase.	147265043	1475925186997	1475925187079	s	83
288890	3100230	Ladies, here's the revised September purchase.	Ladies, here's the revised September purchase.	147265064	1475925187205	1475925187303	e	69
288890	3100230	Ladies, here's the revised September purchase.	Ladies, here's the revised September purchase.	147265065	1475925187419	1475925187497	d	68
288890	3100230	Ladies, here's the revised September purchase.	Ladies, here's the revised September purchase.	147265066	1475925187553	1475925187653	 	32
288890	3100230	Ladies, here's the revised September purchase.	Ladies, here's the revised September purchase.	147265067	1475925187803	1475925187885	CAPS_LOCK	20
288890	3100230	Ladies, here's the revised September purchase.	Ladies, here's the revised September purchase.	147265068	1475925187888	1475925187961	S	83
288890	3100230	Ladies, here's the revised September purchase.	Ladies, here's the revised September purchase.	147265070	1475925187994	1475925188144	CAPS_LOCK	20
288890	3100230	Ladies, here's the revised September purchase.	Ladies, here's the revised September purchase.	147265095	1475925188125	1475925188181	e	69
288890	3100230	Ladies, here's the revised September purchase.	Ladies, here's the revised September purchase.	147265097	1475925188479	1475925188555	p	80
288890	3100230	Ladies, here's the revised September purchase.	Ladies, here's the revised September purchase.	147265100	1475925188666	1475925188742	t	84
288890	3100230	Ladies, here's the revised September purchase.	Ladies, here's the revised September purchase.	147265103	1475925188913	1475925188982	e	69
288890	3100230	Ladies, here's the revised September purchase.	Ladies, here's the revised September purchase.	147265106	1475925189108	1475925189327	m	77
288890	3100230	Ladies, here's the revised September purchase.	Ladies, here's the revised September purchase.	147265109	1475925190154	1475925190252	b	66
288890	3100230	Ladies, here's the revised September purchase.	Ladies, here's the revised September purchase.	147265117	1475925190199	1475925190299	e	69
288890	3100230	Ladies, here's the revised September purchase.	Ladies, here's the revised September purchase.	147265119	1475925190391	1475925190490	r	82
288890	3100230	Ladies, here's the revised September purchase.	Ladies, here's the revised September purchase.	147265121	1475925190520	1475925190602	 	32
288890	3100230	Ladies, here's the revised September purchase.	Ladies, here's the revised September purchase.	147265123	1475925190737	1475925190859	p	80
288890	3100230	Ladies, here's the revised September purchase.	Ladies, here's the revised September purchase.	147265125	1475925191273	1475925191337	u	85
288890	3100230	Ladies, here's the revised September purchase.	Ladies, here's the revised September purchase.	147265127	1475925191411	1475925191494	r	82
288890	3100230	Ladies, here's the revised September purchase.	Ladies, here's the revised September purchase.	147265147	1475925191633	1475925191694	c	67
288890	3100230	Ladies, here's the revised September purchase.	Ladies, here's the revised September purchase.	147265149	1475925191835	1475925191897	h	72
288890	3100230	Ladies, here's the revised September purchase.	Ladies, here's the revised September purchase.	147265150	1475925191927	1475925191992	a	65
288890	3100230	Ladies, here's the revised September purchase.	Ladies, here's the revised September purchase.	147265151	1475925192104	1475925192169	s	83
288890	3100230	Ladies, here's the revised September purchase.	Ladies, here's the revised September purchase.	147265152	1475925193331	1475925193429	e	69
288890	3100230	Ladies, here's the revised September purchase.	Ladies, here's the revised September purchase.	147265153	1475925193712	1475925193806	.	190
288890	3100234	You'll have to forward that home for dad to see.	You'll have to forward that home for dad to see.	147265194	1475925196841	1475925196908	CAPS_LOCK	20
288890	3100234	You'll have to forward that home for dad to see.	You'll have to forward that home for dad to see.	147265195	1475925196946	1475925197039	Y	89
288890	3100234	You'll have to forward that home for dad to see.	You'll have to forward that home for dad to see.	147265196	1475925197043	1475925197132	CAPS_LOCK	20
288890	3100234	You'll have to forward that home for dad to see.	You'll have to forward that home for dad to see.	147265197	1475925197212	1475925197431	o	79
288890	3100234	You'll have to forward that home for dad to see.	You'll have to forward that home for dad to see.	147265198	1475925197386	1475925197517	u	85
288890	3100234	You'll have to forward that home for dad to see.	You'll have to forward that home for dad to see.	147265199	1475925198121	1475925198196	'	192
288890	3100234	You'll have to forward that home for dad to see.	You'll have to forward that home for dad to see.	147265200	1475925198349	1475925198401	l	76
288890	3100234	You'll have to forward that home for dad to see.	You'll have to forward that home for dad to see.	147265201	1475925198478	1475925198550	l	76
288890	3100234	You'll have to forward that home for dad to see.	You'll have to forward that home for dad to see.	147265202	1475925198648	1475925198735	 	32
288890	3100234	You'll have to forward that home for dad to see.	You'll have to forward that home for dad to see.	147265203	1475925199085	1475925199172	h	72
288890	3100234	You'll have to forward that home for dad to see.	You'll have to forward that home for dad to see.	147265204	1475925199192	1475925199290	a	65
288890	3100234	You'll have to forward that home for dad to see.	You'll have to forward that home for dad to see.	147265205	1475925199315	1475925199370	v	86
288890	3100234	You'll have to forward that home for dad to see.	You'll have to forward that home for dad to see.	147265207	1475925199430	1475925199491	e	69
288890	3100234	You'll have to forward that home for dad to see.	You'll have to forward that home for dad to see.	147265208	1475925199549	1475925199622	 	32
288890	3100234	You'll have to forward that home for dad to see.	You'll have to forward that home for dad to see.	147265209	1475925199668	1475925199739	t	84
288890	3100234	You'll have to forward that home for dad to see.	You'll have to forward that home for dad to see.	147265210	1475925199810	1475925199899	o	79
288890	3100234	You'll have to forward that home for dad to see.	You'll have to forward that home for dad to see.	147265211	1475925200011	1475925200084	 	32
288890	3100234	You'll have to forward that home for dad to see.	You'll have to forward that home for dad to see.	147265212	1475925200442	1475925200503	f	70
288890	3100234	You'll have to forward that home for dad to see.	You'll have to forward that home for dad to see.	147265213	1475925200536	1475925200613	o	79
288890	3100234	You'll have to forward that home for dad to see.	You'll have to forward that home for dad to see.	147265214	1475925200639	1475925200696	r	82
288890	3100234	You'll have to forward that home for dad to see.	You'll have to forward that home for dad to see.	147265215	1475925200879	1475925200932	w	87
288890	3100234	You'll have to forward that home for dad to see.	You'll have to forward that home for dad to see.	147265216	1475925201073	1475925201147	a	65
288890	3100234	You'll have to forward that home for dad to see.	You'll have to forward that home for dad to see.	147265229	1475925201194	1475925201261	r	82
288890	3100234	You'll have to forward that home for dad to see.	You'll have to forward that home for dad to see.	147265230	1475925201316	1475925201377	d	68
288890	3100234	You'll have to forward that home for dad to see.	You'll have to forward that home for dad to see.	147265231	1475925201461	1475925201526	 	32
288890	3100234	You'll have to forward that home for dad to see.	You'll have to forward that home for dad to see.	147265232	1475925201580	1475925201635	t	84
288890	3100234	You'll have to forward that home for dad to see.	You'll have to forward that home for dad to see.	147265234	1475925201787	1475925201844	h	72
288890	3100234	You'll have to forward that home for dad to see.	You'll have to forward that home for dad to see.	147265246	1475925201914	1475925201973	a	65
288890	3100234	You'll have to forward that home for dad to see.	You'll have to forward that home for dad to see.	147265248	1475925201996	1475925202071	t	84
288890	3100234	You'll have to forward that home for dad to see.	You'll have to forward that home for dad to see.	147265250	1475925202160	1475925202230	 	32
288890	3100234	You'll have to forward that home for dad to see.	You'll have to forward that home for dad to see.	147265252	1475925202325	1475925202372	h	72
288890	3100234	You'll have to forward that home for dad to see.	You'll have to forward that home for dad to see.	147265254	1475925202435	1475925202604	o	79
288890	3100234	You'll have to forward that home for dad to see.	You'll have to forward that home for dad to see.	147265256	1475925202565	1475925202678	m	77
288890	3100234	You'll have to forward that home for dad to see.	You'll have to forward that home for dad to see.	147265257	1475925202681	1475925202747	e	69
288890	3100234	You'll have to forward that home for dad to see.	You'll have to forward that home for dad to see.	147265258	1475925202806	1475925202870	 	32
288890	3100234	You'll have to forward that home for dad to see.	You'll have to forward that home for dad to see.	147265259	1475925203017	1475925203086	f	70
288890	3100234	You'll have to forward that home for dad to see.	You'll have to forward that home for dad to see.	147265260	1475925203100	1475925203175	o	79
288890	3100234	You'll have to forward that home for dad to see.	You'll have to forward that home for dad to see.	147265261	1475925203199	1475925203265	r	82
288890	3100234	You'll have to forward that home for dad to see.	You'll have to forward that home for dad to see.	147265278	1475925203306	1475925203408	 	32
288890	3100234	You'll have to forward that home for dad to see.	You'll have to forward that home for dad to see.	147265279	1475925204149	1475925204217	d	68
288890	3100234	You'll have to forward that home for dad to see.	You'll have to forward that home for dad to see.	147265280	1475925204282	1475925204335	a	65
288890	3100234	You'll have to forward that home for dad to see.	You'll have to forward that home for dad to see.	147265281	1475925204381	1475925204462	d	68
288890	3100234	You'll have to forward that home for dad to see.	You'll have to forward that home for dad to see.	147265282	1475925204663	1475925204737	 	32
288890	3100234	You'll have to forward that home for dad to see.	You'll have to forward that home for dad to see.	147265288	1475925204793	1475925204851	t	84
288890	3100234	You'll have to forward that home for dad to see.	You'll have to forward that home for dad to see.	147265292	1475925204908	1475925204987	o	79
288890	3100234	You'll have to forward that home for dad to see.	You'll have to forward that home for dad to see.	147265295	1475925205068	1475925205141	 	32
288890	3100234	You'll have to forward that home for dad to see.	You'll have to forward that home for dad to see.	147265299	1475925205144	1475925205214	s	83
288890	3100234	You'll have to forward that home for dad to see.	You'll have to forward that home for dad to see.	147265301	1475925205317	1475925205378	e	69
288890	3100234	You'll have to forward that home for dad to see.	You'll have to forward that home for dad to see.	147265314	1475925205451	1475925205521	e	69
288890	3100234	You'll have to forward that home for dad to see.	You'll have to forward that home for dad to see.	147265315	1475925205835	1475925205889	.	190
288890	3100239	There's been a shortage of blood in this area.	There's been a shortage of blood in this area.	147265373	1475925209922	1475925209994	CAPS_LOCK	20
288890	3100239	There's been a shortage of blood in this area.	There's been a shortage of blood in this area.	147265374	1475925210019	1475925210103	T	84
288890	3100239	There's been a shortage of blood in this area.	There's been a shortage of blood in this area.	147265375	1475925210094	1475925210176	CAPS_LOCK	20
288890	3100239	There's been a shortage of blood in this area.	There's been a shortage of blood in this area.	147265376	1475925210291	1475925210378	h	72
288890	3100239	There's been a shortage of blood in this area.	There's been a shortage of blood in this area.	147265377	1475925210509	1475925210676	r	82
288890	3100239	There's been a shortage of blood in this area.	There's been a shortage of blood in this area.	147265378	1475925210728	1475925210785	r	82
288890	3100239	There's been a shortage of blood in this area.	There's been a shortage of blood in this area.	147265379	1475925211732	1475925211797	'	192
288890	3100239	There's been a shortage of blood in this area.	There's been a shortage of blood in this area.	147265380	1475925211822	1475925211901	s	83
288890	3100239	There's been a shortage of blood in this area.	There's been a shortage of blood in this area.	147265381	1475925211999	1475925212079	 	32
288890	3100239	There's been a shortage of blood in this area.	There's been a shortage of blood in this area.	147265382	1475925212327	1475925212393	b	66
288890	3100239	There's been a shortage of blood in this area.	There's been a shortage of blood in this area.	147265383	1475925212431	1475925212482	e	69
288890	3100239	There's been a shortage of blood in this area.	There's been a shortage of blood in this area.	147265385	1475925212641	1475925212795	n	78
288890	3100239	There's been a shortage of blood in this area.	There's been a shortage of blood in this area.	147265434	1475925212758	1475925212874	 	32
288890	3100239	There's been a shortage of blood in this area.	There's been a shortage of blood in this area.	147265435	1475925213168	1475925213246	BKSP	8
288890	3100239	There's been a shortage of blood in this area.	There's been a shortage of blood in this area.	147265437	1475925213329	1475925213398	BKSP	8
288890	3100239	There's been a shortage of blood in this area.	There's been a shortage of blood in this area.	147265439	1475925213451	1475925214129	BKSP	8
288890	3100239	There's been a shortage of blood in this area.	There's been a shortage of blood in this area.	147265441	1475925214478	1475925214509	BKSP	8
288890	3100239	There's been a shortage of blood in this area.	There's been a shortage of blood in this area.	147265443	1475925214718	1475925214791	BKSP	8
288890	3100239	There's been a shortage of blood in this area.	There's been a shortage of blood in this area.	147265445	1475925215266	1475925215349	e	69
288890	3100239	There's been a shortage of blood in this area.	There's been a shortage of blood in this area.	147265447	1475925215358	1475925215419	r	82
288890	3100239	There's been a shortage of blood in this area.	There's been a shortage of blood in this area.	147265450	1475925215449	1475925215509	e	69
288890	3100239	There's been a shortage of blood in this area.	There's been a shortage of blood in this area.	147265453	1475925216003	1475925216083	'	192
288890	3100239	There's been a shortage of blood in this area.	There's been a shortage of blood in this area.	147265454	1475925216104	1475925216176	s	83
288890	3100239	There's been a shortage of blood in this area.	There's been a shortage of blood in this area.	147265455	1475925216239	1475925216317	 	32
288890	3100239	There's been a shortage of blood in this area.	There's been a shortage of blood in this area.	147265456	1475925216413	1475925216481	b	66
288890	3100239	There's been a shortage of blood in this area.	There's been a shortage of blood in this area.	147265457	1475925216516	1475925216580	e	69
288890	3100239	There's been a shortage of blood in this area.	There's been a shortage of blood in this area.	147265458	1475925216656	1475925216701	e	69
288890	3100239	There's been a shortage of blood in this area.	There's been a shortage of blood in this area.	147265459	1475925216747	1475925216890	n	78
288890	3100239	There's been a shortage of blood in this area.	There's been a shortage of blood in this area.	147265465	1475925216855	1475925216945	 	32
288890	3100239	There's been a shortage of blood in this area.	There's been a shortage of blood in this area.	147265466	1475925216960	1475925217022	a	65
288890	3100239	There's been a shortage of blood in this area.	There's been a shortage of blood in this area.	147265467	1475925217067	1475925217155	 	32
288890	3100239	There's been a shortage of blood in this area.	There's been a shortage of blood in this area.	147265468	1475925217194	1475925217258	s	83
288890	3100239	There's been a shortage of blood in this area.	There's been a shortage of blood in this area.	147265469	1475925217357	1475925217477	h	72
288890	3100239	There's been a shortage of blood in this area.	There's been a shortage of blood in this area.	147265470	1475925217425	1475925217536	o	79
288890	3100239	There's been a shortage of blood in this area.	There's been a shortage of blood in this area.	147265471	1475925217570	1475925217629	r	82
288890	3100239	There's been a shortage of blood in this area.	There's been a shortage of blood in this area.	147265472	1475925217740	1475925217810	t	84
288890	3100239	There's been a shortage of blood in this area.	There's been a shortage of blood in this area.	147265473	1475925217884	1475925217950	a	65
288890	3100239	There's been a shortage of blood in this area.	There's been a shortage of blood in this area.	147265474	1475925218008	1475925218080	g	71
288890	3100239	There's been a shortage of blood in this area.	There's been a shortage of blood in this area.	147265475	1475925218148	1475925218192	e	69
288890	3100239	There's been a shortage of blood in this area.	There's been a shortage of blood in this area.	147265491	1475925218265	1475925218341	 	32
288890	3100239	There's been a shortage of blood in this area.	There's been a shortage of blood in this area.	147265492	1475925218651	1475925218813	o	79
288890	3100239	There's been a shortage of blood in this area.	There's been a shortage of blood in this area.	147265493	1475925219280	1475925219334	f	70
288890	3100239	There's been a shortage of blood in this area.	There's been a shortage of blood in this area.	147265494	1475925219394	1475925219476	 	32
288890	3100239	There's been a shortage of blood in this area.	There's been a shortage of blood in this area.	147265495	1475925219557	1475925219623	b	66
288890	3100239	There's been a shortage of blood in this area.	There's been a shortage of blood in this area.	147265501	1475925219811	1475925219946	l	76
288890	3100239	There's been a shortage of blood in this area.	There's been a shortage of blood in this area.	147265502	1475925219903	1475925219989	o	79
288890	3100239	There's been a shortage of blood in this area.	There's been a shortage of blood in this area.	147265503	1475925220088	1475925220199	o	79
288890	3100239	There's been a shortage of blood in this area.	There's been a shortage of blood in this area.	147265504	1475925220533	1475925220614	d	68
288890	3100239	There's been a shortage of blood in this area.	There's been a shortage of blood in this area.	147265505	1475925220623	1475925220674	 	32
288890	3100239	There's been a shortage of blood in this area.	There's been a shortage of blood in this area.	147265516	1475925220820	1475925220899	i	73
288890	3100239	There's been a shortage of blood in this area.	There's been a shortage of blood in this area.	147265517	1475925220876	1475925220966	n	78
288890	3100239	There's been a shortage of blood in this area.	There's been a shortage of blood in this area.	147265519	1475925220987	1475925221043	 	32
288890	3100239	There's been a shortage of blood in this area.	There's been a shortage of blood in this area.	147265521	1475925221145	1475925221188	t	84
288890	3100239	There's been a shortage of blood in this area.	There's been a shortage of blood in this area.	147265523	1475925221341	1475925221466	h	72
288890	3100239	There's been a shortage of blood in this area.	There's been a shortage of blood in this area.	147265526	1475925221448	1475925221539	i	73
288890	3100239	There's been a shortage of blood in this area.	There's been a shortage of blood in this area.	147265528	1475925221520	1475925221598	s	83
288890	3100239	There's been a shortage of blood in this area.	There's been a shortage of blood in this area.	147265530	1475925221646	1475925221726	 	32
288890	3100239	There's been a shortage of blood in this area.	There's been a shortage of blood in this area.	147265532	1475925221851	1475925221939	a	65
288890	3100239	There's been a shortage of blood in this area.	There's been a shortage of blood in this area.	147265534	1475925221964	1475925222030	r	82
288890	3100239	There's been a shortage of blood in this area.	There's been a shortage of blood in this area.	147265536	1475925222061	1475925222130	e	69
288890	3100239	There's been a shortage of blood in this area.	There's been a shortage of blood in this area.	147265542	1475925222346	1475925222444	a	65
288890	3100239	There's been a shortage of blood in this area.	There's been a shortage of blood in this area.	147265543	1475925222699	1475925222851	.	190
288890	3100244	Rookie Kevin Swayne will move into the starting lineup.	Rookie Kevin Swayne will move into the starting lineup.	147265625	1475925227251	1475925227314	CAPS_LOCK	20
288890	3100244	Rookie Kevin Swayne will move into the starting lineup.	Rookie Kevin Swayne will move into the starting lineup.	147265626	1475925227394	1475925227450	R	82
288890	3100244	Rookie Kevin Swayne will move into the starting lineup.	Rookie Kevin Swayne will move into the starting lineup.	147265627	1475925227482	1475925227578	CAPS_LOCK	20
288890	3100244	Rookie Kevin Swayne will move into the starting lineup.	Rookie Kevin Swayne will move into the starting lineup.	147265628	1475925227821	1475925227854	o	79
288890	3100244	Rookie Kevin Swayne will move into the starting lineup.	Rookie Kevin Swayne will move into the starting lineup.	147265629	1475925227946	1475925228034	o	79
288890	3100244	Rookie Kevin Swayne will move into the starting lineup.	Rookie Kevin Swayne will move into the starting lineup.	147265631	1475925228166	1475925228246	k	75
288890	3100244	Rookie Kevin Swayne will move into the starting lineup.	Rookie Kevin Swayne will move into the starting lineup.	147265633	1475925228325	1475925228385	i	73
288890	3100244	Rookie Kevin Swayne will move into the starting lineup.	Rookie Kevin Swayne will move into the starting lineup.	147265656	1475925228428	1475925228510	e	69
288890	3100244	Rookie Kevin Swayne will move into the starting lineup.	Rookie Kevin Swayne will move into the starting lineup.	147265658	1475925228599	1475925228685	 	32
288890	3100244	Rookie Kevin Swayne will move into the starting lineup.	Rookie Kevin Swayne will move into the starting lineup.	147265662	1475925229013	1475925229122	CAPS_LOCK	20
288890	3100244	Rookie Kevin Swayne will move into the starting lineup.	Rookie Kevin Swayne will move into the starting lineup.	147265665	1475925229233	1475925229314	K	75
288890	3100244	Rookie Kevin Swayne will move into the starting lineup.	Rookie Kevin Swayne will move into the starting lineup.	147265668	1475925229272	1475925229382	CAPS_LOCK	20
288890	3100244	Rookie Kevin Swayne will move into the starting lineup.	Rookie Kevin Swayne will move into the starting lineup.	147265669	1475925229564	1475925229638	e	69
288890	3100244	Rookie Kevin Swayne will move into the starting lineup.	Rookie Kevin Swayne will move into the starting lineup.	147265670	1475925229663	1475925229734	v	86
288890	3100244	Rookie Kevin Swayne will move into the starting lineup.	Rookie Kevin Swayne will move into the starting lineup.	147265689	1475925229846	1475925230003	i	73
288890	3100244	Rookie Kevin Swayne will move into the starting lineup.	Rookie Kevin Swayne will move into the starting lineup.	147265690	1475925229957	1475925230077	n	78
288890	3100244	Rookie Kevin Swayne will move into the starting lineup.	Rookie Kevin Swayne will move into the starting lineup.	147265691	1475925230168	1475925230262	 	32
288890	3100244	Rookie Kevin Swayne will move into the starting lineup.	Rookie Kevin Swayne will move into the starting lineup.	147265692	1475925230267	1475925230354	CAPS_LOCK	20
288890	3100244	Rookie Kevin Swayne will move into the starting lineup.	Rookie Kevin Swayne will move into the starting lineup.	147265693	1475925231030	1475925231109	S	83
288890	3100244	Rookie Kevin Swayne will move into the starting lineup.	Rookie Kevin Swayne will move into the starting lineup.	147265695	1475925231126	1475925231218	CAPS_LOCK	20
288890	3100244	Rookie Kevin Swayne will move into the starting lineup.	Rookie Kevin Swayne will move into the starting lineup.	147265697	1475925231253	1475925231308	w	87
288890	3100244	Rookie Kevin Swayne will move into the starting lineup.	Rookie Kevin Swayne will move into the starting lineup.	147265710	1475925231637	1475925231671	y	89
288890	3100244	Rookie Kevin Swayne will move into the starting lineup.	Rookie Kevin Swayne will move into the starting lineup.	147265712	1475925231714	1475925231798	a	65
288890	3100244	Rookie Kevin Swayne will move into the starting lineup.	Rookie Kevin Swayne will move into the starting lineup.	147265714	1475925231876	1475925231950	n	78
288890	3100244	Rookie Kevin Swayne will move into the starting lineup.	Rookie Kevin Swayne will move into the starting lineup.	147265718	1475925231985	1475925232042	e	69
288890	3100244	Rookie Kevin Swayne will move into the starting lineup.	Rookie Kevin Swayne will move into the starting lineup.	147265720	1475925232099	1475925232187	 	32
288890	3100244	Rookie Kevin Swayne will move into the starting lineup.	Rookie Kevin Swayne will move into the starting lineup.	147265798	1475925232886	1475925232982	BKSP	8
288890	3100244	Rookie Kevin Swayne will move into the starting lineup.	Rookie Kevin Swayne will move into the starting lineup.	147265799	1475925233048	1475925233144	BKSP	8
288890	3100244	Rookie Kevin Swayne will move into the starting lineup.	Rookie Kevin Swayne will move into the starting lineup.	147265800	1475925233266	1475925233357	BKSP	8
288890	3100244	Rookie Kevin Swayne will move into the starting lineup.	Rookie Kevin Swayne will move into the starting lineup.	147265801	1475925234786	1475925234887	BKSP	8
288890	3100244	Rookie Kevin Swayne will move into the starting lineup.	Rookie Kevin Swayne will move into the starting lineup.	147265802	1475925235057	1475925235133	BKSP	8
288890	3100244	Rookie Kevin Swayne will move into the starting lineup.	Rookie Kevin Swayne will move into the starting lineup.	147265803	1475925235693	1475925235790	a	65
288890	3100244	Rookie Kevin Swayne will move into the starting lineup.	Rookie Kevin Swayne will move into the starting lineup.	147265804	1475925235809	1475925235875	y	89
288890	3100244	Rookie Kevin Swayne will move into the starting lineup.	Rookie Kevin Swayne will move into the starting lineup.	147265805	1475925235999	1475925236074	n	78
288890	3100244	Rookie Kevin Swayne will move into the starting lineup.	Rookie Kevin Swayne will move into the starting lineup.	147265806	1475925236110	1475925236177	e	69
288890	3100244	Rookie Kevin Swayne will move into the starting lineup.	Rookie Kevin Swayne will move into the starting lineup.	147265807	1475925236228	1475925236309	 	32
288890	3100244	Rookie Kevin Swayne will move into the starting lineup.	Rookie Kevin Swayne will move into the starting lineup.	147265808	1475925236442	1475925236516	w	87
288890	3100244	Rookie Kevin Swayne will move into the starting lineup.	Rookie Kevin Swayne will move into the starting lineup.	147265809	1475925236519	1475925236585	i	73
288890	3100244	Rookie Kevin Swayne will move into the starting lineup.	Rookie Kevin Swayne will move into the starting lineup.	147265810	1475925236716	1475925236788	l	76
288890	3100244	Rookie Kevin Swayne will move into the starting lineup.	Rookie Kevin Swayne will move into the starting lineup.	147265811	1475925236849	1475925236924	l	76
288890	3100244	Rookie Kevin Swayne will move into the starting lineup.	Rookie Kevin Swayne will move into the starting lineup.	147265812	1475925236945	1475925237016	 	32
288890	3100244	Rookie Kevin Swayne will move into the starting lineup.	Rookie Kevin Swayne will move into the starting lineup.	147265826	1475925237154	1475925237312	m	77
288890	3100244	Rookie Kevin Swayne will move into the starting lineup.	Rookie Kevin Swayne will move into the starting lineup.	147265828	1475925237270	1475925237409	o	79
288890	3100244	Rookie Kevin Swayne will move into the starting lineup.	Rookie Kevin Swayne will move into the starting lineup.	147265831	1475925238222	1475925238299	v	86
288890	3100244	Rookie Kevin Swayne will move into the starting lineup.	Rookie Kevin Swayne will move into the starting lineup.	147265834	1475925238340	1475925238420	e	69
288890	3100244	Rookie Kevin Swayne will move into the starting lineup.	Rookie Kevin Swayne will move into the starting lineup.	147265837	1475925238471	1475925238529	 	32
288890	3100244	Rookie Kevin Swayne will move into the starting lineup.	Rookie Kevin Swayne will move into the starting lineup.	147265849	1475925238651	1475925238797	i	73
288890	3100244	Rookie Kevin Swayne will move into the starting lineup.	Rookie Kevin Swayne will move into the starting lineup.	147265851	1475925238755	1475925238882	n	78
288890	3100244	Rookie Kevin Swayne will move into the starting lineup.	Rookie Kevin Swayne will move into the starting lineup.	147265853	1475925238833	1475925238916	t	84
288890	3100244	Rookie Kevin Swayne will move into the starting lineup.	Rookie Kevin Swayne will move into the starting lineup.	147265855	1475925238948	1475925239051	o	79
288890	3100244	Rookie Kevin Swayne will move into the starting lineup.	Rookie Kevin Swayne will move into the starting lineup.	147265856	1475925239091	1475925239185	 	32
288890	3100244	Rookie Kevin Swayne will move into the starting lineup.	Rookie Kevin Swayne will move into the starting lineup.	147265869	1475925239208	1475925239277	t	84
288890	3100244	Rookie Kevin Swayne will move into the starting lineup.	Rookie Kevin Swayne will move into the starting lineup.	147265871	1475925239321	1475925239399	h	72
288890	3100244	Rookie Kevin Swayne will move into the starting lineup.	Rookie Kevin Swayne will move into the starting lineup.	147265873	1475925239430	1475925239519	e	69
288890	3100244	Rookie Kevin Swayne will move into the starting lineup.	Rookie Kevin Swayne will move into the starting lineup.	147265876	1475925239580	1475925239649	 	32
288890	3100244	Rookie Kevin Swayne will move into the starting lineup.	Rookie Kevin Swayne will move into the starting lineup.	147265879	1475925239835	1475925239903	s	83
288890	3100244	Rookie Kevin Swayne will move into the starting lineup.	Rookie Kevin Swayne will move into the starting lineup.	147265896	1475925239954	1475925240023	t	84
288890	3100244	Rookie Kevin Swayne will move into the starting lineup.	Rookie Kevin Swayne will move into the starting lineup.	147265897	1475925240089	1475925240159	a	65
288890	3100244	Rookie Kevin Swayne will move into the starting lineup.	Rookie Kevin Swayne will move into the starting lineup.	147265899	1475925240206	1475925240308	r	82
288890	3100244	Rookie Kevin Swayne will move into the starting lineup.	Rookie Kevin Swayne will move into the starting lineup.	147265902	1475925240311	1475925240417	t	84
288890	3100244	Rookie Kevin Swayne will move into the starting lineup.	Rookie Kevin Swayne will move into the starting lineup.	147265905	1475925240642	1475925240758	i	73
288890	3100244	Rookie Kevin Swayne will move into the starting lineup.	Rookie Kevin Swayne will move into the starting lineup.	147265914	1475925240723	1475925240851	n	78
288890	3100244	Rookie Kevin Swayne will move into the starting lineup.	Rookie Kevin Swayne will move into the starting lineup.	147265917	1475925240878	1475925240948	g	71
288890	3100244	Rookie Kevin Swayne will move into the starting lineup.	Rookie Kevin Swayne will move into the starting lineup.	147265920	1475925240965	1475925241044	 	32
288890	3100244	Rookie Kevin Swayne will move into the starting lineup.	Rookie Kevin Swayne will move into the starting lineup.	147265923	1475925241145	1475925241221	l	76
288890	3100244	Rookie Kevin Swayne will move into the starting lineup.	Rookie Kevin Swayne will move into the starting lineup.	147265925	1475925241349	1475925241482	i	73
288890	3100244	Rookie Kevin Swayne will move into the starting lineup.	Rookie Kevin Swayne will move into the starting lineup.	147265977	1475925241461	1475925241561	n	78
288890	3100244	Rookie Kevin Swayne will move into the starting lineup.	Rookie Kevin Swayne will move into the starting lineup.	147265978	1475925241528	1475925241606	e	69
288890	3100244	Rookie Kevin Swayne will move into the starting lineup.	Rookie Kevin Swayne will move into the starting lineup.	147265979	1475925241792	1475925241847	u	85
288890	3100244	Rookie Kevin Swayne will move into the starting lineup.	Rookie Kevin Swayne will move into the starting lineup.	147265980	1475925241893	1475925241985	p	80
288890	3100244	Rookie Kevin Swayne will move into the starting lineup.	Rookie Kevin Swayne will move into the starting lineup.	147265981	1475925243260	1475925243439	7	103
288890	3100244	Rookie Kevin Swayne will move into the starting lineup.	Rookie Kevin Swayne will move into the starting lineup.	147265982	1475925244249	1475925244346	BKSP	8
288890	3100253	We know this is a big time at the speedway.	We know this is a big time at the speedway	147266070	1475925249887	1475925249933	CAPS_LOCK	20
288890	3100253	We know this is a big time at the speedway.	We know this is a big time at the speedway	147266071	1475925249981	1475925250058	W	87
288890	3100253	We know this is a big time at the speedway.	We know this is a big time at the speedway	147266073	1475925250062	1475925250140	CAPS_LOCK	20
288890	3100253	We know this is a big time at the speedway.	We know this is a big time at the speedway	147266076	1475925250197	1475925250255	e	69
288890	3100253	We know this is a big time at the speedway.	We know this is a big time at the speedway	147266080	1475925250423	1475925250496	 	32
288890	3100253	We know this is a big time at the speedway.	We know this is a big time at the speedway	147266083	1475925250679	1475925250792	k	75
288890	3100253	We know this is a big time at the speedway.	We know this is a big time at the speedway	147266102	1475925250761	1475925250942	n	78
288890	3100253	We know this is a big time at the speedway.	We know this is a big time at the speedway	147266103	1475925250921	1475925251033	o	79
288890	3100253	We know this is a big time at the speedway.	We know this is a big time at the speedway	147266104	1475925251025	1475925251123	w	87
288890	3100253	We know this is a big time at the speedway.	We know this is a big time at the speedway	147266105	1475925251134	1475925251230	 	32
288890	3100253	We know this is a big time at the speedway.	We know this is a big time at the speedway	147266107	1475925251496	1475925251558	t	84
288890	3100253	We know this is a big time at the speedway.	We know this is a big time at the speedway	147266109	1475925251633	1475925251737	h	72
288890	3100253	We know this is a big time at the speedway.	We know this is a big time at the speedway	147266125	1475925251705	1475925251858	i	73
288890	3100253	We know this is a big time at the speedway.	We know this is a big time at the speedway	147266128	1475925251879	1475925251936	s	83
288890	3100253	We know this is a big time at the speedway.	We know this is a big time at the speedway	147266131	1475925252168	1475925252232	 	32
288890	3100253	We know this is a big time at the speedway.	We know this is a big time at the speedway	147266133	1475925252386	1475925252454	i	73
288890	3100253	We know this is a big time at the speedway.	We know this is a big time at the speedway	147266135	1475925252514	1475925252586	s	83
288890	3100253	We know this is a big time at the speedway.	We know this is a big time at the speedway	147266138	1475925252616	1475925252693	 	32
288890	3100253	We know this is a big time at the speedway.	We know this is a big time at the speedway	147266152	1475925252763	1475925252824	a	65
288890	3100253	We know this is a big time at the speedway.	We know this is a big time at the speedway	147266153	1475925252888	1475925252955	 	32
288890	3100253	We know this is a big time at the speedway.	We know this is a big time at the speedway	147266154	1475925253066	1475925253222	b	66
288890	3100253	We know this is a big time at the speedway.	We know this is a big time at the speedway	147266155	1475925253179	1475925253323	i	73
288890	3100253	We know this is a big time at the speedway.	We know this is a big time at the speedway	147266167	1475925253295	1475925253376	g	71
288890	3100253	We know this is a big time at the speedway.	We know this is a big time at the speedway	147266169	1475925253417	1475925253505	 	32
288890	3100253	We know this is a big time at the speedway.	We know this is a big time at the speedway	147266171	1475925253525	1475925253596	t	84
288890	3100253	We know this is a big time at the speedway.	We know this is a big time at the speedway	147266174	1475925253638	1475925253820	i	73
288890	3100253	We know this is a big time at the speedway.	We know this is a big time at the speedway	147266177	1475925253779	1475925253933	m	77
288890	3100253	We know this is a big time at the speedway.	We know this is a big time at the speedway	147266188	1475925253914	1475925253992	e	69
288890	3100253	We know this is a big time at the speedway.	We know this is a big time at the speedway	147266189	1475925254081	1475925254168	 	32
288890	3100253	We know this is a big time at the speedway.	We know this is a big time at the speedway	147266190	1475925254247	1475925254332	a	65
288890	3100253	We know this is a big time at the speedway.	We know this is a big time at the speedway	147266191	1475925254435	1475925254498	t	84
288890	3100253	We know this is a big time at the speedway.	We know this is a big time at the speedway	147266192	1475925254581	1475925254639	 	32
288890	3100253	We know this is a big time at the speedway.	We know this is a big time at the speedway	147266194	1475925254670	1475925254733	t	84
288890	3100253	We know this is a big time at the speedway.	We know this is a big time at the speedway	147266217	1475925254861	1475925254942	h	72
288890	3100253	We know this is a big time at the speedway.	We know this is a big time at the speedway	147266218	1475925254969	1475925255054	e	69
288890	3100253	We know this is a big time at the speedway.	We know this is a big time at the speedway	147266220	1475925255086	1475925255170	 	32
288890	3100253	We know this is a big time at the speedway.	We know this is a big time at the speedway	147266222	1475925255221	1475925255297	s	83
288890	3100253	We know this is a big time at the speedway.	We know this is a big time at the speedway	147266223	1475925255755	1475925255832	p	80
288890	3100253	We know this is a big time at the speedway.	We know this is a big time at the speedway	147266231	1475925255875	1475925255938	e	69
288890	3100253	We know this is a big time at the speedway.	We know this is a big time at the speedway	147266233	1475925256001	1475925256078	e	69
288890	3100253	We know this is a big time at the speedway.	We know this is a big time at the speedway	147266235	1475925256194	1475925256266	d	68
288890	3100253	We know this is a big time at the speedway.	We know this is a big time at the speedway	147266237	1475925256420	1475925256483	w	87
288890	3100253	We know this is a big time at the speedway.	We know this is a big time at the speedway	147266238	1475925256650	1475925256720	a	65
288890	3100253	We know this is a big time at the speedway.	We know this is a big time at the speedway	147266245	1475925256756	1475925256823	y	89
288890	3100257	Also it appears no payment is required tomorrow.	Also it appears no payment is required tomorrow.	147266315	1475925261113	1475925261220	CAPS_LOCK	20
288890	3100257	Also it appears no payment is required tomorrow.	Also it appears no payment is required tomorrow.	147266316	1475925261238	1475925261307	A	65
288890	3100257	Also it appears no payment is required tomorrow.	Also it appears no payment is required tomorrow.	147266317	1475925261346	1475925261477	CAPS_LOCK	20
288890	3100257	Also it appears no payment is required tomorrow.	Also it appears no payment is required tomorrow.	147266318	1475925261646	1475925261737	l	76
288890	3100257	Also it appears no payment is required tomorrow.	Also it appears no payment is required tomorrow.	147266319	1475925261803	1475925261875	s	83
288890	3100257	Also it appears no payment is required tomorrow.	Also it appears no payment is required tomorrow.	147266320	1475925261906	1475925261965	o	79
288890	3100257	Also it appears no payment is required tomorrow.	Also it appears no payment is required tomorrow.	147266321	1475925262050	1475925262122	 	32
288890	3100257	Also it appears no payment is required tomorrow.	Also it appears no payment is required tomorrow.	147266338	1475925262236	1475925262297	i	73
288890	3100257	Also it appears no payment is required tomorrow.	Also it appears no payment is required tomorrow.	147266339	1475925262343	1475925262447	t	84
288890	3100257	Also it appears no payment is required tomorrow.	Also it appears no payment is required tomorrow.	147266341	1475925262490	1475925262570	 	32
288890	3100257	Also it appears no payment is required tomorrow.	Also it appears no payment is required tomorrow.	147266343	1475925263143	1475925263253	a	65
288890	3100257	Also it appears no payment is required tomorrow.	Also it appears no payment is required tomorrow.	147266345	1475925263321	1475925263392	p	80
288890	3100257	Also it appears no payment is required tomorrow.	Also it appears no payment is required tomorrow.	147266354	1475925263470	1475925263530	p	80
288890	3100257	Also it appears no payment is required tomorrow.	Also it appears no payment is required tomorrow.	147266356	1475925263598	1475925263653	e	69
288890	3100257	Also it appears no payment is required tomorrow.	Also it appears no payment is required tomorrow.	147266358	1475925263808	1475925263881	a	65
288890	3100257	Also it appears no payment is required tomorrow.	Also it appears no payment is required tomorrow.	147266360	1475925263907	1475925263971	r	82
288890	3100257	Also it appears no payment is required tomorrow.	Also it appears no payment is required tomorrow.	147266362	1475925264023	1475925264098	s	83
288890	3100257	Also it appears no payment is required tomorrow.	Also it appears no payment is required tomorrow.	147266387	1475925264197	1475925264257	 	32
288890	3100257	Also it appears no payment is required tomorrow.	Also it appears no payment is required tomorrow.	147266389	1475925264504	1475925264648	n	78
288890	3100257	Also it appears no payment is required tomorrow.	Also it appears no payment is required tomorrow.	147266391	1475925264604	1475925264741	o	79
288890	3100257	Also it appears no payment is required tomorrow.	Also it appears no payment is required tomorrow.	147266393	1475925264759	1475925264821	 	32
288890	3100257	Also it appears no payment is required tomorrow.	Also it appears no payment is required tomorrow.	147266396	1475925265548	1475925265616	p	80
288890	3100257	Also it appears no payment is required tomorrow.	Also it appears no payment is required tomorrow.	147266398	1475925265678	1475925265757	a	65
288890	3100257	Also it appears no payment is required tomorrow.	Also it appears no payment is required tomorrow.	147266399	1475925265821	1475925265879	y	89
288890	3100257	Also it appears no payment is required tomorrow.	Also it appears no payment is required tomorrow.	147266400	1475925266052	1475925266131	m	77
288890	3100257	Also it appears no payment is required tomorrow.	Also it appears no payment is required tomorrow.	147266402	1475925266152	1475925266221	e	69
288890	3100257	Also it appears no payment is required tomorrow.	Also it appears no payment is required tomorrow.	147266404	1475925266272	1475925266355	n	78
288890	3100257	Also it appears no payment is required tomorrow.	Also it appears no payment is required tomorrow.	147266410	1475925266402	1475925266461	t	84
288890	3100257	Also it appears no payment is required tomorrow.	Also it appears no payment is required tomorrow.	147266411	1475925266511	1475925266586	 	32
288890	3100257	Also it appears no payment is required tomorrow.	Also it appears no payment is required tomorrow.	147266412	1475925266916	1475925267002	i	73
288890	3100257	Also it appears no payment is required tomorrow.	Also it appears no payment is required tomorrow.	147266413	1475925267101	1475925267170	s	83
288890	3100257	Also it appears no payment is required tomorrow.	Also it appears no payment is required tomorrow.	147266414	1475925267240	1475925267326	 	32
288890	3100257	Also it appears no payment is required tomorrow.	Also it appears no payment is required tomorrow.	147266450	1475925267544	1475925267619	r	82
288890	3100257	Also it appears no payment is required tomorrow.	Also it appears no payment is required tomorrow.	147266452	1475925267788	1475925267861	e	69
288890	3100257	Also it appears no payment is required tomorrow.	Also it appears no payment is required tomorrow.	147266454	1475925268140	1475925268210	q	81
288890	3100257	Also it appears no payment is required tomorrow.	Also it appears no payment is required tomorrow.	147266456	1475925269070	1475925269218	u	85
288890	3100257	Also it appears no payment is required tomorrow.	Also it appears no payment is required tomorrow.	147266470	1475925269159	1475925269322	i	73
288890	3100257	Also it appears no payment is required tomorrow.	Also it appears no payment is required tomorrow.	147266472	1475925269584	1475925269657	r	82
288890	3100257	Also it appears no payment is required tomorrow.	Also it appears no payment is required tomorrow.	147266474	1475925269711	1475925269784	e	69
288890	3100257	Also it appears no payment is required tomorrow.	Also it appears no payment is required tomorrow.	147266475	1475925269895	1475925269967	d	68
288890	3100257	Also it appears no payment is required tomorrow.	Also it appears no payment is required tomorrow.	147266476	1475925270028	1475925270105	 	32
288890	3100257	Also it appears no payment is required tomorrow.	Also it appears no payment is required tomorrow.	147266477	1475925270395	1475925270470	t	84
288890	3100257	Also it appears no payment is required tomorrow.	Also it appears no payment is required tomorrow.	147266492	1475925270486	1475925270533	o	79
288890	3100257	Also it appears no payment is required tomorrow.	Also it appears no payment is required tomorrow.	147266494	1475925270785	1475925270867	m	77
288890	3100257	Also it appears no payment is required tomorrow.	Also it appears no payment is required tomorrow.	147266496	1475925271152	1475925271251	o	79
288890	3100257	Also it appears no payment is required tomorrow.	Also it appears no payment is required tomorrow.	147266497	1475925271353	1475925271425	r	82
288890	3100257	Also it appears no payment is required tomorrow.	Also it appears no payment is required tomorrow.	147266498	1475925271512	1475925271578	r	82
288890	3100257	Also it appears no payment is required tomorrow.	Also it appears no payment is required tomorrow.	147266515	1475925271634	1475925271701	o	79
288890	3100257	Also it appears no payment is required tomorrow.	Also it appears no payment is required tomorrow.	147266516	1475925271763	1475925271829	w	87
288890	3100266	Miller might have to wait until Sunday.	Miller might have to wait until Sunday.	147266593	1475925276400	1475925276494	CAPS_LOCK	20
288890	3100266	Miller might have to wait until Sunday.	Miller might have to wait until Sunday.	147266594	1475925276512	1475925276630	M	77
288890	3100266	Miller might have to wait until Sunday.	Miller might have to wait until Sunday.	147266595	1475925276609	1475925276733	CAPS_LOCK	20
288890	3100266	Miller might have to wait until Sunday.	Miller might have to wait until Sunday.	147266596	1475925276702	1475925276782	i	73
288890	3100266	Miller might have to wait until Sunday.	Miller might have to wait until Sunday.	147266597	1475925276926	1475925276995	l	76
288890	3100266	Miller might have to wait until Sunday.	Miller might have to wait until Sunday.	147266598	1475925277066	1475925277161	l	76
288890	3100266	Miller might have to wait until Sunday.	Miller might have to wait until Sunday.	147266599	1475925277222	1475925277284	e	69
288890	3100266	Miller might have to wait until Sunday.	Miller might have to wait until Sunday.	147266600	1475925277375	1475925277422	r	82
288890	3100266	Miller might have to wait until Sunday.	Miller might have to wait until Sunday.	147266601	1475925277535	1475925277623	 	32
288890	3100266	Miller might have to wait until Sunday.	Miller might have to wait until Sunday.	147266602	1475925277971	1475925278082	m	77
288890	3100266	Miller might have to wait until Sunday.	Miller might have to wait until Sunday.	147266603	1475925278046	1475925278174	i	73
288890	3100266	Miller might have to wait until Sunday.	Miller might have to wait until Sunday.	147266605	1475925278149	1475925278214	g	71
288890	3100266	Miller might have to wait until Sunday.	Miller might have to wait until Sunday.	147266607	1475925278247	1475925278324	h	72
288890	3100266	Miller might have to wait until Sunday.	Miller might have to wait until Sunday.	147266609	1475925278350	1475925278414	t	84
288890	3100266	Miller might have to wait until Sunday.	Miller might have to wait until Sunday.	147266612	1475925278471	1475925278546	 	32
288890	3100266	Miller might have to wait until Sunday.	Miller might have to wait until Sunday.	147266615	1475925278619	1475925278689	h	72
288890	3100266	Miller might have to wait until Sunday.	Miller might have to wait until Sunday.	147266618	1475925278749	1475925278795	a	65
288890	3100266	Miller might have to wait until Sunday.	Miller might have to wait until Sunday.	147266625	1475925278847	1475925278916	v	86
288890	3100266	Miller might have to wait until Sunday.	Miller might have to wait until Sunday.	147266627	1475925278981	1475925279008	e	69
288890	3100266	Miller might have to wait until Sunday.	Miller might have to wait until Sunday.	147266630	1475925279104	1475925279175	 	32
288890	3100266	Miller might have to wait until Sunday.	Miller might have to wait until Sunday.	147266632	1475925279261	1475925279304	t	84
288890	3100266	Miller might have to wait until Sunday.	Miller might have to wait until Sunday.	147266636	1475925279411	1475925279489	o	79
288890	3100266	Miller might have to wait until Sunday.	Miller might have to wait until Sunday.	147266682	1475925279657	1475925279724	 	32
288890	3100266	Miller might have to wait until Sunday.	Miller might have to wait until Sunday.	147266683	1475925281588	1475925281620	w	87
288890	3100266	Miller might have to wait until Sunday.	Miller might have to wait until Sunday.	147266684	1475925281739	1475925281819	a	65
288890	3100266	Miller might have to wait until Sunday.	Miller might have to wait until Sunday.	147266685	1475925281969	1475925282059	i	73
288890	3100266	Miller might have to wait until Sunday.	Miller might have to wait until Sunday.	147266688	1475925282120	1475925282193	t	84
288890	3100266	Miller might have to wait until Sunday.	Miller might have to wait until Sunday.	147266700	1475925282242	1475925282323	 	32
288890	3100266	Miller might have to wait until Sunday.	Miller might have to wait until Sunday.	147266701	1475925283132	1475925283223	n	78
288890	3100266	Miller might have to wait until Sunday.	Miller might have to wait until Sunday.	147266702	1475925283253	1475925283329	t	84
288890	3100266	Miller might have to wait until Sunday.	Miller might have to wait until Sunday.	147266703	1475925283368	1475925283422	i	73
288890	3100266	Miller might have to wait until Sunday.	Miller might have to wait until Sunday.	147266704	1475925283583	1475925283695	l	76
288890	3100266	Miller might have to wait until Sunday.	Miller might have to wait until Sunday.	147266779	1475925283942	1475925284015	BKSP	8
288890	3100266	Miller might have to wait until Sunday.	Miller might have to wait until Sunday.	147266780	1475925284102	1475925284188	BKSP	8
288890	3100266	Miller might have to wait until Sunday.	Miller might have to wait until Sunday.	147266781	1475925284305	1475925284369	BKSP	8
288890	3100266	Miller might have to wait until Sunday.	Miller might have to wait until Sunday.	147266782	1475925284465	1475925284561	BKSP	8
288890	3100266	Miller might have to wait until Sunday.	Miller might have to wait until Sunday.	147266783	1475925285062	1475925285187	i	73
288890	3100266	Miller might have to wait until Sunday.	Miller might have to wait until Sunday.	147266784	1475925285495	1475925285588	BKSP	8
288890	3100266	Miller might have to wait until Sunday.	Miller might have to wait until Sunday.	147266785	1475925285822	1475925285933	u	85
288890	3100266	Miller might have to wait until Sunday.	Miller might have to wait until Sunday.	147266786	1475925286049	1475925286132	t	84
288890	3100266	Miller might have to wait until Sunday.	Miller might have to wait until Sunday.	147266787	1475925286635	1475925286741	BKSP	8
288890	3100266	Miller might have to wait until Sunday.	Miller might have to wait until Sunday.	147266788	1475925287042	1475925287101	n	78
288890	3100266	Miller might have to wait until Sunday.	Miller might have to wait until Sunday.	147266789	1475925287568	1475925287642	t	84
288890	3100266	Miller might have to wait until Sunday.	Miller might have to wait until Sunday.	147266816	1475925287711	1475925287789	i	73
288890	3100266	Miller might have to wait until Sunday.	Miller might have to wait until Sunday.	147266818	1475925287938	1475925288014	l	76
288890	3100266	Miller might have to wait until Sunday.	Miller might have to wait until Sunday.	147266820	1475925288066	1475925288135	 	32
288890	3100266	Miller might have to wait until Sunday.	Miller might have to wait until Sunday.	147266822	1475925288514	1475925288603	CAPS_LOCK	20
288890	3100266	Miller might have to wait until Sunday.	Miller might have to wait until Sunday.	147266824	1475925288612	1475925288680	S	83
288890	3100266	Miller might have to wait until Sunday.	Miller might have to wait until Sunday.	147266826	1475925288728	1475925288830	CAPS_LOCK	20
288890	3100266	Miller might have to wait until Sunday.	Miller might have to wait until Sunday.	147266828	1475925288992	1475925289204	u	85
288890	3100266	Miller might have to wait until Sunday.	Miller might have to wait until Sunday.	147266851	1475925289158	1475925289288	n	78
288890	3100266	Miller might have to wait until Sunday.	Miller might have to wait until Sunday.	147266852	1475925289217	1475925289318	d	68
288890	3100266	Miller might have to wait until Sunday.	Miller might have to wait until Sunday.	147266853	1475925289472	1475925289565	a	65
288890	3100266	Miller might have to wait until Sunday.	Miller might have to wait until Sunday.	147266854	1475925289607	1475925289676	y	89
