PARTICIPANT_ID	TEST_SECTION_ID	SENTENCE	USER_INPUT	KEYSTROKE_ID	PRESS_TIME	RELEASE_TIME	LETTER	KEYCODE
290266	3115967	The move is also against our law.	The move is also against our law.	148018139	1475956479415	1475956479684	SHIFT	16
290266	3115967	The move is also against our law.	The move is also against our law.	148018142	1475956479548	1475956479704	T	84
290266	3115967	The move is also against our law.	The move is also against our law.	148018145	1475956479716	1475956479746	h	72
290266	3115967	The move is also against our law.	The move is also against our law.	148018149	1475956479752	1475956479857	e	69
290266	3115967	The move is also against our law.	The move is also against our law.	148018152	1475956479867	1475956479933	 	32
290266	3115967	The move is also against our law.	The move is also against our law.	148018155	1475956479937	1475956479996	m	77
290266	3115967	The move is also against our law.	The move is also against our law.	148018162	1475956480028	1475956480110	o	79
290266	3115967	The move is also against our law.	The move is also against our law.	148018163	1475956480130	1475956480189	v	86
290266	3115967	The move is also against our law.	The move is also against our law.	148018164	1475956480199	1475956480246	e	69
290266	3115967	The move is also against our law.	The move is also against our law.	148018165	1475956480256	1475956480335	 	32
290266	3115967	The move is also against our law.	The move is also against our law.	148018167	1475956480345	1475956480452	i	73
290266	3115967	The move is also against our law.	The move is also against our law.	148018182	1475956480472	1475956480526	s	83
290266	3115967	The move is also against our law.	The move is also against our law.	148018184	1475956480550	1475956480631	 	32
290266	3115967	The move is also against our law.	The move is also against our law.	148018185	1475956480671	1475956480789	a	65
290266	3115967	The move is also against our law.	The move is also against our law.	148018188	1475956480799	1475956480860	l	76
290266	3115967	The move is also against our law.	The move is also against our law.	148018190	1475956480860	1475956480930	s	83
290266	3115967	The move is also against our law.	The move is also against our law.	148018200	1475956480930	1475956481010	o	79
290266	3115967	The move is also against our law.	The move is also against our law.	148018202	1475956481060	1475956481169	 	32
290266	3115967	The move is also against our law.	The move is also against our law.	148018204	1475956481179	1475956481286	a	65
290266	3115967	The move is also against our law.	The move is also against our law.	148018206	1475956481306	1475956481365	g	71
290266	3115967	The move is also against our law.	The move is also against our law.	148018208	1475956481375	1475956481489	a	65
290266	3115967	The move is also against our law.	The move is also against our law.	148018210	1475956481453	1475956481522	i	73
290266	3115967	The move is also against our law.	The move is also against our law.	148018211	1475956481541	1475956481647	n	78
290266	3115967	The move is also against our law.	The move is also against our law.	148018213	1475956481605	1475956481661	s	83
290266	3115967	The move is also against our law.	The move is also against our law.	148018215	1475956481684	1475956481761	t	84
290266	3115967	The move is also against our law.	The move is also against our law.	148018218	1475956481761	1475956481885	 	32
290266	3115967	The move is also against our law.	The move is also against our law.	148018222	1475956481887	1475956482032	o	79
290266	3115967	The move is also against our law.	The move is also against our law.	148018232	1475956481987	1475956482066	u	85
290266	3115967	The move is also against our law.	The move is also against our law.	148018233	1475956482076	1475956482142	r	82
290266	3115967	The move is also against our law.	The move is also against our law.	148018234	1475956482152	1475956482248	 	32
290266	3115967	The move is also against our law.	The move is also against our law.	148018235	1475956482268	1475956482322	l	76
290266	3115967	The move is also against our law.	The move is also against our law.	148018237	1475956482326	1475956482434	a	65
290266	3115967	The move is also against our law.	The move is also against our law.	148018239	1475956482444	1475956482510	w	87
290266	3115967	The move is also against our law.	The move is also against our law.	148018250	1475956482520	1475956482594	.	190
290266	3115973	I will try to make sure I'm in good shape.	I will try to make sure I'm in good shape.	148018338	1475956484992	1475956485175	SHIFT	16
290266	3115973	I will try to make sure I'm in good shape.	I will try to make sure I'm in good shape.	148018333	1475956485102	1475956485141	I	73
290266	3115973	I will try to make sure I'm in good shape.	I will try to make sure I'm in good shape.	148018342	1475956485186	1475956485300	 	32
290266	3115973	I will try to make sure I'm in good shape.	I will try to make sure I'm in good shape.	148018345	1475956485320	1475956485378	w	87
290266	3115973	I will try to make sure I'm in good shape.	I will try to make sure I'm in good shape.	148018348	1475956485387	1475956485446	i	73
290266	3115973	I will try to make sure I'm in good shape.	I will try to make sure I'm in good shape.	148018350	1475956485516	1475956485602	l	76
290266	3115973	I will try to make sure I'm in good shape.	I will try to make sure I'm in good shape.	148018356	1475956485634	1475956485705	l	76
290266	3115973	I will try to make sure I'm in good shape.	I will try to make sure I'm in good shape.	148018358	1475956485715	1475956485838	 	32
290266	3115973	I will try to make sure I'm in good shape.	I will try to make sure I'm in good shape.	148018359	1475956485781	1475956485858	t	84
290266	3115973	I will try to make sure I'm in good shape.	I will try to make sure I'm in good shape.	148018361	1475956485858	1475956485911	r	82
290266	3115973	I will try to make sure I'm in good shape.	I will try to make sure I'm in good shape.	148018362	1475956485961	1475956486037	y	89
290266	3115973	I will try to make sure I'm in good shape.	I will try to make sure I'm in good shape.	148018374	1475956486037	1475956486115	 	32
290266	3115973	I will try to make sure I'm in good shape.	I will try to make sure I'm in good shape.	148018378	1475956486128	1475956486247	t	84
290266	3115973	I will try to make sure I'm in good shape.	I will try to make sure I'm in good shape.	148018384	1475956486200	1475956486261	o	79
290266	3115973	I will try to make sure I'm in good shape.	I will try to make sure I'm in good shape.	148018389	1475956486271	1475956486326	 	32
290266	3115973	I will try to make sure I'm in good shape.	I will try to make sure I'm in good shape.	148018392	1475956486366	1475956486446	m	77
290266	3115973	I will try to make sure I'm in good shape.	I will try to make sure I'm in good shape.	148018402	1475956486456	1475956486509	a	65
290266	3115973	I will try to make sure I'm in good shape.	I will try to make sure I'm in good shape.	148018405	1475956486539	1475956486609	k	75
290266	3115973	I will try to make sure I'm in good shape.	I will try to make sure I'm in good shape.	148018407	1475956486619	1475956486682	e	69
290266	3115973	I will try to make sure I'm in good shape.	I will try to make sure I'm in good shape.	148018411	1475956486692	1475956486761	 	32
290266	3115973	I will try to make sure I'm in good shape.	I will try to make sure I'm in good shape.	148018415	1475956486771	1475956486861	t	84
290266	3115973	I will try to make sure I'm in good shape.	I will try to make sure I'm in good shape.	148018477	1475956486871	1475956486941	h	72
290266	3115973	I will try to make sure I'm in good shape.	I will try to make sure I'm in good shape.	148018480	1475956486941	1475956487021	e	69
290266	3115973	I will try to make sure I'm in good shape.	I will try to make sure I'm in good shape.	148018483	1475956487030	1475956487107	 	32
290266	3115973	I will try to make sure I'm in good shape.	I will try to make sure I'm in good shape.	148018487	1475956487597	1475956487665	BKSP	8
290266	3115973	I will try to make sure I'm in good shape.	I will try to make sure I'm in good shape.	148018490	1475956487735	1475956487811	BKSP	8
290266	3115973	I will try to make sure I'm in good shape.	I will try to make sure I'm in good shape.	148018493	1475956487881	1475956487947	BKSP	8
290266	3115973	I will try to make sure I'm in good shape.	I will try to make sure I'm in good shape.	148018495	1475956487987	1475956488109	BKSP	8
290266	3115973	I will try to make sure I'm in good shape.	I will try to make sure I'm in good shape.	148018498	1475956488135	1475956488233	s	83
290266	3115973	I will try to make sure I'm in good shape.	I will try to make sure I'm in good shape.	148018502	1475956488253	1475956488339	u	85
290266	3115973	I will try to make sure I'm in good shape.	I will try to make sure I'm in good shape.	148018514	1475956488349	1475956488446	r	82
290266	3115973	I will try to make sure I'm in good shape.	I will try to make sure I'm in good shape.	148018518	1475956488398	1475956488489	e	69
290266	3115973	I will try to make sure I'm in good shape.	I will try to make sure I'm in good shape.	148018523	1475956488456	1475956488512	 	32
290266	3115973	I will try to make sure I'm in good shape.	I will try to make sure I'm in good shape.	148018527	1475956488620	1475956488827	SHIFT	16
290266	3115973	I will try to make sure I'm in good shape.	I will try to make sure I'm in good shape.	148018531	1475956488685	1475956488847	I	73
290266	3115973	I will try to make sure I'm in good shape.	I will try to make sure I'm in good shape.	148018535	1475956488847	1475956488877	'	222
290266	3115973	I will try to make sure I'm in good shape.	I will try to make sure I'm in good shape.	148018540	1475956488952	1475956489040	m	77
290266	3115973	I will try to make sure I'm in good shape.	I will try to make sure I'm in good shape.	148018542	1475956489080	1475956489199	 	32
290266	3115973	I will try to make sure I'm in good shape.	I will try to make sure I'm in good shape.	148018544	1475956489209	1475956489238	i	73
290266	3115973	I will try to make sure I'm in good shape.	I will try to make sure I'm in good shape.	148018547	1475956489250	1475956489316	n	78
290266	3115973	I will try to make sure I'm in good shape.	I will try to make sure I'm in good shape.	148018550	1475956489366	1475956489472	 	32
290266	3115973	I will try to make sure I'm in good shape.	I will try to make sure I'm in good shape.	148018571	1475956489472	1475956489582	g	71
290266	3115973	I will try to make sure I'm in good shape.	I will try to make sure I'm in good shape.	148018573	1475956489592	1475956489616	o	79
290266	3115973	I will try to make sure I'm in good shape.	I will try to make sure I'm in good shape.	148018576	1475956489685	1475956489763	o	79
290266	3115973	I will try to make sure I'm in good shape.	I will try to make sure I'm in good shape.	148018578	1475956489763	1475956489824	d	68
290266	3115973	I will try to make sure I'm in good shape.	I will try to make sure I'm in good shape.	148018579	1475956489844	1475956489917	 	32
290266	3115973	I will try to make sure I'm in good shape.	I will try to make sure I'm in good shape.	148018581	1475956489929	1475956490037	s	83
290266	3115973	I will try to make sure I'm in good shape.	I will try to make sure I'm in good shape.	148018583	1475956490037	1475956490110	h	72
290266	3115973	I will try to make sure I'm in good shape.	I will try to make sure I'm in good shape.	148018585	1475956490120	1475956490233	a	65
290266	3115973	I will try to make sure I'm in good shape.	I will try to make sure I'm in good shape.	148018587	1475956490236	1475956490302	p	80
290266	3115973	I will try to make sure I'm in good shape.	I will try to make sure I'm in good shape.	148018590	1475956490312	1475956490377	e	69
290266	3115973	I will try to make sure I'm in good shape.	I will try to make sure I'm in good shape.	148018592	1475956490382	1475956490446	.	190
290266	3115978	That calendar was enough to put me on a diet.	That calencer was enough to put me on a diet.	148018670	1475956492064	1475956492283	SHIFT	16
290266	3115978	That calendar was enough to put me on a diet.	That calencer was enough to put me on a diet.	148018672	1475956492207	1475956492283	T	84
290266	3115978	That calendar was enough to put me on a diet.	That calencer was enough to put me on a diet.	148018674	1475956492293	1475956492359	h	72
290266	3115978	That calendar was enough to put me on a diet.	That calencer was enough to put me on a diet.	148018676	1475956492369	1475956492445	a	65
290266	3115978	That calendar was enough to put me on a diet.	That calencer was enough to put me on a diet.	148018679	1475956492482	1475956492552	t	84
290266	3115978	That calendar was enough to put me on a diet.	That calencer was enough to put me on a diet.	148018681	1475956492552	1475956492612	 	32
290266	3115978	That calendar was enough to put me on a diet.	That calencer was enough to put me on a diet.	148018691	1475956492681	1475956492755	c	67
290266	3115978	That calendar was enough to put me on a diet.	That calencer was enough to put me on a diet.	148018693	1475956492795	1475956492904	a	65
290266	3115978	That calendar was enough to put me on a diet.	That calencer was enough to put me on a diet.	148018695	1475956492860	1475956492934	l	76
290266	3115978	That calendar was enough to put me on a diet.	That calencer was enough to put me on a diet.	148018698	1475956493014	1475956493087	e	69
290266	3115978	That calendar was enough to put me on a diet.	That calencer was enough to put me on a diet.	148018701	1475956493137	1475956493206	n	78
290266	3115978	That calendar was enough to put me on a diet.	That calencer was enough to put me on a diet.	148018719	1475956493216	1475956493297	c	67
290266	3115978	That calendar was enough to put me on a diet.	That calencer was enough to put me on a diet.	148018721	1475956493377	1475956493479	e	69
290266	3115978	That calendar was enough to put me on a diet.	That calencer was enough to put me on a diet.	148018724	1475956493519	1475956493592	r	82
290266	3115978	That calendar was enough to put me on a diet.	That calencer was enough to put me on a diet.	148018727	1475956493642	1475956493710	 	32
290266	3115978	That calendar was enough to put me on a diet.	That calencer was enough to put me on a diet.	148018732	1475956493740	1475956493844	w	87
290266	3115978	That calendar was enough to put me on a diet.	That calencer was enough to put me on a diet.	148018759	1475956493864	1475956493974	a	65
290266	3115978	That calendar was enough to put me on a diet.	That calencer was enough to put me on a diet.	148018762	1475956493937	1475956494055	s	83
290266	3115978	That calendar was enough to put me on a diet.	That calencer was enough to put me on a diet.	148018765	1475956494058	1475956494120	 	32
290266	3115978	That calendar was enough to put me on a diet.	That calencer was enough to put me on a diet.	148018767	1475956494180	1475956494257	e	69
290266	3115978	That calendar was enough to put me on a diet.	That calencer was enough to put me on a diet.	148018769	1475956494262	1475956494319	n	78
290266	3115978	That calendar was enough to put me on a diet.	That calencer was enough to put me on a diet.	148018776	1475956494380	1475956494505	o	79
290266	3115978	That calendar was enough to put me on a diet.	That calencer was enough to put me on a diet.	148018778	1475956494452	1475956494535	u	85
290266	3115978	That calendar was enough to put me on a diet.	That calencer was enough to put me on a diet.	148018781	1475956494565	1475956494635	g	71
290266	3115978	That calendar was enough to put me on a diet.	That calencer was enough to put me on a diet.	148018784	1475956494655	1475956494705	h	72
290266	3115978	That calendar was enough to put me on a diet.	That calencer was enough to put me on a diet.	148018786	1475956494725	1475956494805	 	32
290266	3115978	That calendar was enough to put me on a diet.	That calencer was enough to put me on a diet.	148018802	1475956494815	1475956494847	t	84
290266	3115978	That calendar was enough to put me on a diet.	That calencer was enough to put me on a diet.	148018805	1475956494865	1475956494924	o	79
290266	3115978	That calendar was enough to put me on a diet.	That calencer was enough to put me on a diet.	148018807	1475956494934	1475956495027	 	32
290266	3115978	That calendar was enough to put me on a diet.	That calencer was enough to put me on a diet.	148018808	1475956495047	1475956495143	p	80
290266	3115978	That calendar was enough to put me on a diet.	That calencer was enough to put me on a diet.	148018809	1475956495153	1475956495246	u	85
290266	3115978	That calendar was enough to put me on a diet.	That calencer was enough to put me on a diet.	148018828	1475956495256	1475956495318	t	84
290266	3115978	That calendar was enough to put me on a diet.	That calencer was enough to put me on a diet.	148018830	1475956495319	1475956495427	 	32
290266	3115978	That calendar was enough to put me on a diet.	That calencer was enough to put me on a diet.	148018831	1475956495457	1475956495562	m	77
290266	3115978	That calendar was enough to put me on a diet.	That calencer was enough to put me on a diet.	148018832	1475956495572	1475956495661	e	69
290266	3115978	That calendar was enough to put me on a diet.	That calencer was enough to put me on a diet.	148018833	1475956495671	1475956495741	 	32
290266	3115978	That calendar was enough to put me on a diet.	That calencer was enough to put me on a diet.	148018851	1475956495863	1475956495937	o	79
290266	3115978	That calendar was enough to put me on a diet.	That calencer was enough to put me on a diet.	148018854	1475956496007	1475956496087	n	78
290266	3115978	That calendar was enough to put me on a diet.	That calencer was enough to put me on a diet.	148018857	1475956496117	1475956496206	 	32
290266	3115978	That calendar was enough to put me on a diet.	That calencer was enough to put me on a diet.	148018860	1475956496565	1475956496668	a	65
290266	3115978	That calendar was enough to put me on a diet.	That calencer was enough to put me on a diet.	148018863	1475956496684	1475956496751	 	32
290266	3115978	That calendar was enough to put me on a diet.	That calencer was enough to put me on a diet.	148018880	1475956496783	1475956496857	d	68
290266	3115978	That calendar was enough to put me on a diet.	That calencer was enough to put me on a diet.	148018881	1475956496927	1475956496990	i	73
290266	3115978	That calendar was enough to put me on a diet.	That calencer was enough to put me on a diet.	148018882	1475956497050	1475956497150	e	69
290266	3115978	That calendar was enough to put me on a diet.	That calencer was enough to put me on a diet.	148018883	1475956497220	1475956497332	t	84
290266	3115978	That calendar was enough to put me on a diet.	That calencer was enough to put me on a diet.	148018885	1475956497841	1475956497914	/	191
290266	3115978	That calendar was enough to put me on a diet.	That calencer was enough to put me on a diet.	148018913	1475956498396	1475956498472	BKSP	8
290266	3115978	That calendar was enough to put me on a diet.	That calencer was enough to put me on a diet.	148018915	1475956498772	1475956498874	.	190
290266	3115985	My husband Jeff and I are planning on attending.	My husband Jeff and I are planning on attending.	148019039	1475956500605	1475956501140	SHIFT	16
290266	3115985	My husband Jeff and I are planning on attending.	My husband Jeff and I are planning on attending.	148019036	1475956500998	1475956501070	M	77
290266	3115985	My husband Jeff and I are planning on attending.	My husband Jeff and I are planning on attending.	148019041	1475956501412	1475956501505	y	89
290266	3115985	My husband Jeff and I are planning on attending.	My husband Jeff and I are planning on attending.	148019042	1475956501558	1475956501625	 	32
290266	3115985	My husband Jeff and I are planning on attending.	My husband Jeff and I are planning on attending.	148019043	1475956501885	1475956501970	h	72
290266	3115985	My husband Jeff and I are planning on attending.	My husband Jeff and I are planning on attending.	148019044	1475956502000	1475956502097	u	85
290266	3115985	My husband Jeff and I are planning on attending.	My husband Jeff and I are planning on attending.	148019052	1475956502107	1475956502219	s	83
290266	3115985	My husband Jeff and I are planning on attending.	My husband Jeff and I are planning on attending.	148019054	1475956502249	1475956502326	b	66
290266	3115985	My husband Jeff and I are planning on attending.	My husband Jeff and I are planning on attending.	148019056	1475956502350	1475956502462	a	65
290266	3115985	My husband Jeff and I are planning on attending.	My husband Jeff and I are planning on attending.	148019058	1475956502472	1475956502538	n	78
290266	3115985	My husband Jeff and I are planning on attending.	My husband Jeff and I are planning on attending.	148019060	1475956502548	1475956502615	d	68
290266	3115985	My husband Jeff and I are planning on attending.	My husband Jeff and I are planning on attending.	148019076	1475956502625	1475956502738	 	32
290266	3115985	My husband Jeff and I are planning on attending.	My husband Jeff and I are planning on attending.	148019079	1475956502758	1475956502907	SHIFT	16
290266	3115985	My husband Jeff and I are planning on attending.	My husband Jeff and I are planning on attending.	148019083	1475956502838	1475956502917	J	74
290266	3115985	My husband Jeff and I are planning on attending.	My husband Jeff and I are planning on attending.	148019085	1475956502937	1475956503003	e	69
290266	3115985	My husband Jeff and I are planning on attending.	My husband Jeff and I are planning on attending.	148019089	1475956503103	1475956503176	f	70
290266	3115985	My husband Jeff and I are planning on attending.	My husband Jeff and I are planning on attending.	148019092	1475956503236	1475956503312	f	70
290266	3115985	My husband Jeff and I are planning on attending.	My husband Jeff and I are planning on attending.	148019099	1475956503322	1475956503379	 	32
290266	3115985	My husband Jeff and I are planning on attending.	My husband Jeff and I are planning on attending.	148019102	1475956503389	1475956503465	a	65
290266	3115985	My husband Jeff and I are planning on attending.	My husband Jeff and I are planning on attending.	148019105	1475956503475	1475956503545	n	78
290266	3115985	My husband Jeff and I are planning on attending.	My husband Jeff and I are planning on attending.	148019107	1475956503545	1475956503611	d	68
290266	3115985	My husband Jeff and I are planning on attending.	My husband Jeff and I are planning on attending.	148019109	1475956503621	1475956503688	 	32
290266	3115985	My husband Jeff and I are planning on attending.	My husband Jeff and I are planning on attending.	148019120	1475956503698	1475956503871	SHIFT	16
290266	3115985	My husband Jeff and I are planning on attending.	My husband Jeff and I are planning on attending.	148019121	1475956503804	1475956503882	I	73
290266	3115985	My husband Jeff and I are planning on attending.	My husband Jeff and I are planning on attending.	148019122	1475956503902	1475956504013	 	32
290266	3115985	My husband Jeff and I are planning on attending.	My husband Jeff and I are planning on attending.	148019123	1475956504023	1475956504087	a	65
290266	3115985	My husband Jeff and I are planning on attending.	My husband Jeff and I are planning on attending.	148019124	1475956504127	1475956504243	r	82
290266	3115985	My husband Jeff and I are planning on attending.	My husband Jeff and I are planning on attending.	148019125	1475956504253	1475956504322	e	69
290266	3115985	My husband Jeff and I are planning on attending.	My husband Jeff and I are planning on attending.	148019128	1475956504284	1475956504384	 	32
290266	3115985	My husband Jeff and I are planning on attending.	My husband Jeff and I are planning on attending.	148019134	1475956504394	1475956504464	p	80
290266	3115985	My husband Jeff and I are planning on attending.	My husband Jeff and I are planning on attending.	148019139	1475956504426	1475956504530	l	76
290266	3115985	My husband Jeff and I are planning on attending.	My husband Jeff and I are planning on attending.	148019144	1475956504571	1475956504641	a	65
290266	3115985	My husband Jeff and I are planning on attending.	My husband Jeff and I are planning on attending.	148019151	1475956504671	1475956504734	n	78
290266	3115985	My husband Jeff and I are planning on attending.	My husband Jeff and I are planning on attending.	148019156	1475956504791	1475956504861	n	78
290266	3115985	My husband Jeff and I are planning on attending.	My husband Jeff and I are planning on attending.	148019164	1475956504943	1475956505007	i	73
290266	3115985	My husband Jeff and I are planning on attending.	My husband Jeff and I are planning on attending.	148019165	1475956505067	1475956505140	n	78
290266	3115985	My husband Jeff and I are planning on attending.	My husband Jeff and I are planning on attending.	148019167	1475956505160	1475956505233	g	71
290266	3115985	My husband Jeff and I are planning on attending.	My husband Jeff and I are planning on attending.	148019168	1475956505233	1475956505306	 	32
290266	3115985	My husband Jeff and I are planning on attending.	My husband Jeff and I are planning on attending.	148019170	1475956505306	1475956505340	o	79
290266	3115985	My husband Jeff and I are planning on attending.	My husband Jeff and I are planning on attending.	148019179	1475956505395	1475956505492	n	78
290266	3115985	My husband Jeff and I are planning on attending.	My husband Jeff and I are planning on attending.	148019182	1475956505532	1475956505638	 	32
290266	3115985	My husband Jeff and I are planning on attending.	My husband Jeff and I are planning on attending.	148019184	1475956505780	1475956505857	a	65
290266	3115985	My husband Jeff and I are planning on attending.	My husband Jeff and I are planning on attending.	148019186	1475956505937	1475956506010	t	84
290266	3115985	My husband Jeff and I are planning on attending.	My husband Jeff and I are planning on attending.	148019189	1475956506080	1475956506146	t	84
290266	3115985	My husband Jeff and I are planning on attending.	My husband Jeff and I are planning on attending.	148019202	1475956506189	1475956506266	e	69
290266	3115985	My husband Jeff and I are planning on attending.	My husband Jeff and I are planning on attending.	148019204	1475956506266	1475956506329	n	78
290266	3115985	My husband Jeff and I are planning on attending.	My husband Jeff and I are planning on attending.	148019208	1475956506349	1475956506425	d	68
290266	3115985	My husband Jeff and I are planning on attending.	My husband Jeff and I are planning on attending.	148019210	1475956506425	1475956506492	i	73
290266	3115985	My husband Jeff and I are planning on attending.	My husband Jeff and I are planning on attending.	148019213	1475956506552	1475956506642	n	78
290266	3115985	My husband Jeff and I are planning on attending.	My husband Jeff and I are planning on attending.	148019217	1475956506643	1475956506706	g	71
290266	3115985	My husband Jeff and I are planning on attending.	My husband Jeff and I are planning on attending.	148019219	1475956506728	1475956506831	.	190
290266	3115992	I'll take them one at a time.	I'll take them one at a time.	148019286	1475956508478	1475956508671	SHIFT	16
290266	3115992	I'll take them one at a time.	I'll take them one at a time.	148019289	1475956508585	1475956508701	I	73
290266	3115992	I'll take them one at a time.	I'll take them one at a time.	148019292	1475956508711	1475956508788	'	222
290266	3115992	I'll take them one at a time.	I'll take them one at a time.	148019296	1475956508980	1475956509065	l	76
290266	3115992	I'll take them one at a time.	I'll take them one at a time.	148019299	1475956509095	1475956509219	l	76
290266	3115992	I'll take them one at a time.	I'll take them one at a time.	148019301	1475956509319	1475956509399	 	32
290266	3115992	I'll take them one at a time.	I'll take them one at a time.	148019312	1475956509438	1475956509502	t	84
290266	3115992	I'll take them one at a time.	I'll take them one at a time.	148019316	1475956509552	1475956509635	a	65
290266	3115992	I'll take them one at a time.	I'll take them one at a time.	148019319	1475956509638	1475956509701	k	75
290266	3115992	I'll take them one at a time.	I'll take them one at a time.	148019323	1475956509731	1475956509807	e	69
290266	3115992	I'll take them one at a time.	I'll take them one at a time.	148019325	1475956509807	1475956509874	 	32
290266	3115992	I'll take them one at a time.	I'll take them one at a time.	148019332	1475956509884	1475956509957	t	84
290266	3115992	I'll take them one at a time.	I'll take them one at a time.	148019334	1475956509967	1475956510043	h	72
290266	3115992	I'll take them one at a time.	I'll take them one at a time.	148019337	1475956510053	1475956510103	e	69
290266	3115992	I'll take them one at a time.	I'll take them one at a time.	148019340	1475956510123	1475956510203	m	77
290266	3115992	I'll take them one at a time.	I'll take them one at a time.	148019344	1475956510220	1475956510292	 	32
290266	3115992	I'll take them one at a time.	I'll take them one at a time.	148019355	1475956510302	1475956510372	o	79
290266	3115992	I'll take them one at a time.	I'll take them one at a time.	148019357	1475956510412	1475956510515	n	78
290266	3115992	I'll take them one at a time.	I'll take them one at a time.	148019359	1475956510515	1475956510581	e	69
290266	3115992	I'll take them one at a time.	I'll take them one at a time.	148019361	1475956510601	1475956510678	 	32
290266	3115992	I'll take them one at a time.	I'll take them one at a time.	148019363	1475956510678	1475956510754	a	65
290266	3115992	I'll take them one at a time.	I'll take them one at a time.	148019371	1475956510800	1475956510874	t	84
290266	3115992	I'll take them one at a time.	I'll take them one at a time.	148019374	1475956510874	1475956510909	 	32
290266	3115992	I'll take them one at a time.	I'll take them one at a time.	148019376	1475956510957	1475956511035	a	65
290266	3115992	I'll take them one at a time.	I'll take them one at a time.	148019379	1475956511041	1475956511103	 	32
290266	3115992	I'll take them one at a time.	I'll take them one at a time.	148019381	1475956511103	1475956511176	t	84
290266	3115992	I'll take them one at a time.	I'll take them one at a time.	148019392	1475956511176	1475956511246	i	73
290266	3115992	I'll take them one at a time.	I'll take them one at a time.	148019394	1475956511269	1475956511380	m	77
290266	3115992	I'll take them one at a time.	I'll take them one at a time.	148019396	1475956511337	1475956511412	e	69
290266	3115992	I'll take them one at a time.	I'll take them one at a time.	148019397	1475956511412	1475956511475	.	190
290266	3115997	He was very close to achieving his life's goal.	He was very close to achieving his life's goal	148019485	1475956513439	1475956513642	SHIFT	16
290266	3115997	He was very close to achieving his life's goal.	He was very close to achieving his life's goal	148019486	1475956513585	1475956513662	H	72
290266	3115997	He was very close to achieving his life's goal.	He was very close to achieving his life's goal	148019487	1475956513666	1475956513767	e	69
290266	3115997	He was very close to achieving his life's goal.	He was very close to achieving his life's goal	148019488	1475956513777	1475956513840	 	32
290266	3115997	He was very close to achieving his life's goal.	He was very close to achieving his life's goal	148019489	1475956513850	1475956513970	w	87
290266	3115997	He was very close to achieving his life's goal.	He was very close to achieving his life's goal	148019492	1475956513980	1475956514114	a	65
290266	3115997	He was very close to achieving his life's goal.	He was very close to achieving his life's goal	148019505	1475956514063	1475956514187	s	83
290266	3115997	He was very close to achieving his life's goal.	He was very close to achieving his life's goal	148019509	1475956514197	1475956514256	 	32
290266	3115997	He was very close to achieving his life's goal.	He was very close to achieving his life's goal	148019512	1475956514272	1475956514372	v	86
290266	3115997	He was very close to achieving his life's goal.	He was very close to achieving his life's goal	148019516	1475956514382	1475956514458	e	69
290266	3115997	He was very close to achieving his life's goal.	He was very close to achieving his life's goal	148019520	1475956514460	1475956514538	r	82
290266	3115997	He was very close to achieving his life's goal.	He was very close to achieving his life's goal	148019535	1475956514498	1475956514579	y	89
290266	3115997	He was very close to achieving his life's goal.	He was very close to achieving his life's goal	148019537	1475956514599	1475956514714	 	32
290266	3115997	He was very close to achieving his life's goal.	He was very close to achieving his life's goal	148019539	1475956514839	1475956514940	c	67
290266	3115997	He was very close to achieving his life's goal.	He was very close to achieving his life's goal	148019541	1475956514940	1475956514996	l	76
290266	3115997	He was very close to achieving his life's goal.	He was very close to achieving his life's goal	148019543	1475956515026	1475956515116	o	79
290266	3115997	He was very close to achieving his life's goal.	He was very close to achieving his life's goal	148019544	1475956515126	1475956515186	s	83
290266	3115997	He was very close to achieving his life's goal.	He was very close to achieving his life's goal	148019581	1475956515196	1475956515322	e	69
290266	3115997	He was very close to achieving his life's goal.	He was very close to achieving his life's goal	148019583	1475956515332	1475956515388	 	32
290266	3115997	He was very close to achieving his life's goal.	He was very close to achieving his life's goal	148019587	1475956515678	1475956515759	t	84
290266	3115997	He was very close to achieving his life's goal.	He was very close to achieving his life's goal	148019589	1475956516060	1475956516173	o	79
290266	3115997	He was very close to achieving his life's goal.	He was very close to achieving his life's goal	148019593	1475956516183	1475956516302	 	32
290266	3115997	He was very close to achieving his life's goal.	He was very close to achieving his life's goal	148019612	1475956516444	1475956516511	a	65
290266	3115997	He was very close to achieving his life's goal.	He was very close to achieving his life's goal	148019616	1475956516663	1475956516771	c	67
290266	3115997	He was very close to achieving his life's goal.	He was very close to achieving his life's goal	148019620	1475956516771	1475956516840	h	72
290266	3115997	He was very close to achieving his life's goal.	He was very close to achieving his life's goal	148019624	1475956516870	1475956516940	i	73
290266	3115997	He was very close to achieving his life's goal.	He was very close to achieving his life's goal	148019627	1475956516980	1475956517050	e	69
290266	3115997	He was very close to achieving his life's goal.	He was very close to achieving his life's goal	148019641	1475956517192	1475956517269	v	86
290266	3115997	He was very close to achieving his life's goal.	He was very close to achieving his life's goal	148019644	1475956517289	1475956517369	i	73
290266	3115997	He was very close to achieving his life's goal.	He was very close to achieving his life's goal	148019646	1475956517429	1475956517501	n	78
290266	3115997	He was very close to achieving his life's goal.	He was very close to achieving his life's goal	148019651	1475956517511	1475956517621	g	71
290266	3115997	He was very close to achieving his life's goal.	He was very close to achieving his life's goal	148019656	1475956517651	1475956517721	 	32
290266	3115997	He was very close to achieving his life's goal.	He was very close to achieving his life's goal	148019686	1475956517972	1475956518046	h	72
290266	3115997	He was very close to achieving his life's goal.	He was very close to achieving his life's goal	148019688	1475956518086	1475956518206	i	73
290266	3115997	He was very close to achieving his life's goal.	He was very close to achieving his life's goal	148019690	1475956518216	1475956518289	s	83
290266	3115997	He was very close to achieving his life's goal.	He was very close to achieving his life's goal	148019693	1475956518311	1475956518372	 	32
290266	3115997	He was very close to achieving his life's goal.	He was very close to achieving his life's goal	148019696	1475956518392	1475956518461	l	76
290266	3115997	He was very close to achieving his life's goal.	He was very close to achieving his life's goal	148019742	1475956518518	1475956518598	i	73
290266	3115997	He was very close to achieving his life's goal.	He was very close to achieving his life's goal	148019746	1475956518608	1475956518707	f	70
290266	3115997	He was very close to achieving his life's goal.	He was very close to achieving his life's goal	148019750	1475956518717	1475956518777	e	69
290266	3115997	He was very close to achieving his life's goal.	He was very close to achieving his life's goal	148019754	1475956518817	1475956518943	 	32
290266	3115997	He was very close to achieving his life's goal.	He was very close to achieving his life's goal	148019759	1475956519259	1475956519334	BKSP	8
290266	3115997	He was very close to achieving his life's goal.	He was very close to achieving his life's goal	148019762	1475956519468	1475956519535	'	222
290266	3115997	He was very close to achieving his life's goal.	He was very close to achieving his life's goal	148019795	1475956519577	1475956519687	s	83
290266	3115997	He was very close to achieving his life's goal.	He was very close to achieving his life's goal	148019797	1475956519687	1475956519758	 	32
290266	3115997	He was very close to achieving his life's goal.	He was very close to achieving his life's goal	148019798	1475956520202	1475956520277	g	71
290266	3115997	He was very close to achieving his life's goal.	He was very close to achieving his life's goal	148019801	1475956520327	1475956520428	o	79
290266	3115997	He was very close to achieving his life's goal.	He was very close to achieving his life's goal	148019806	1475956520428	1475956520518	a	65
290266	3115997	He was very close to achieving his life's goal.	He was very close to achieving his life's goal	148019819	1475956520539	1475956520604	k	76
290266	3115997	He was very close to achieving his life's goal.	He was very close to achieving his life's goal	148019822	1475956521030	1475956521103	BKSP	8
290266	3116003	How can we get these answers?	How can we get these answers?	148019914	1475956522883	1475956523329	SHIFT	16
290266	3116003	How can we get these answers?	How can we get these answers?	148019912	1475956523212	1475956523299	H	72
290266	3116003	How can we get these answers?	How can we get these answers?	148019916	1475956523329	1475956523391	o	79
290266	3116003	How can we get these answers?	How can we get these answers?	148019917	1475956523401	1475956523528	w	87
290266	3116003	How can we get these answers?	How can we get these answers?	148019918	1475956523478	1475956523548	 	32
290266	3116003	How can we get these answers?	How can we get these answers?	148019919	1475956523588	1475956523674	c	67
290266	3116003	How can we get these answers?	How can we get these answers?	148019920	1475956523684	1475956523797	a	65
290266	3116003	How can we get these answers?	How can we get these answers?	148019922	1475956523716	1475956523807	n	78
290266	3116003	How can we get these answers?	How can we get these answers?	148019925	1475956523837	1475956523910	 	32
290266	3116003	How can we get these answers?	How can we get these answers?	148019928	1475956523920	1475956524029	w	87
290266	3116003	How can we get these answers?	How can we get these answers?	148019933	1475956524039	1475956524149	e	69
290266	3116003	How can we get these answers?	How can we get these answers?	148019943	1475956524159	1475956524214	 	32
290266	3116003	How can we get these answers?	How can we get these answers?	148019946	1475956524231	1475956524328	g	71
290266	3116003	How can we get these answers?	How can we get these answers?	148019951	1475956524358	1475956524428	e	69
290266	3116003	How can we get these answers?	How can we get these answers?	148019956	1475956524448	1475956524554	t	84
290266	3116003	How can we get these answers?	How can we get these answers?	148019961	1475956524554	1475956524624	 	32
290266	3116003	How can we get these answers?	How can we get these answers?	148019971	1475956524624	1475956524697	t	84
290266	3116003	How can we get these answers?	How can we get these answers?	148019974	1475956524707	1475956524803	h	72
290266	3116003	How can we get these answers?	How can we get these answers?	148019978	1475956524997	1475956525056	e	69
290266	3116003	How can we get these answers?	How can we get these answers?	148019981	1475956525131	1475956525195	s	83
290266	3116003	How can we get these answers?	How can we get these answers?	148019983	1475956525255	1475956525362	e	69
290266	3116003	How can we get these answers?	How can we get these answers?	148019996	1475956525372	1475956525428	 	32
290266	3116003	How can we get these answers?	How can we get these answers?	148019999	1475956525438	1475956525551	a	65
290266	3116003	How can we get these answers?	How can we get these answers?	148020002	1475956525551	1475956525617	n	78
290266	3116003	How can we get these answers?	How can we get these answers?	148020004	1475956525627	1475956525704	s	83
290266	3116003	How can we get these answers?	How can we get these answers?	148020008	1475956525754	1475956525867	w	87
290266	3116003	How can we get these answers?	How can we get these answers?	148020035	1475956525867	1475956525977	e	69
290266	3116003	How can we get these answers?	How can we get these answers?	148020039	1475956525933	1475956526083	r	82
290266	3116003	How can we get these answers?	How can we get these answers?	148020042	1475956526083	1475956526183	s	83
290266	3116003	How can we get these answers?	How can we get these answers?	148020050	1475956526193	1475956526474	SHIFT	16
290266	3116003	How can we get these answers?	How can we get these answers?	148020048	1475956526223	1475956526409	?	191
290266	3116007	You can have all the horsepower and it won't matter.	You can have all the horsepower and it won't matter	148020141	1475956528202	1475956528528	SHIFT	16
290266	3116007	You can have all the horsepower and it won't matter.	You can have all the horsepower and it won't matter	148020138	1475956528452	1475956528493	Y	89
290266	3116007	You can have all the horsepower and it won't matter.	You can have all the horsepower and it won't matter	148020142	1475956528558	1475956528666	o	79
290266	3116007	You can have all the horsepower and it won't matter.	You can have all the horsepower and it won't matter	148020144	1475956528631	1475956528737	u	85
290266	3116007	You can have all the horsepower and it won't matter.	You can have all the horsepower and it won't matter	148020146	1475956528694	1475956528807	 	32
290266	3116007	You can have all the horsepower and it won't matter.	You can have all the horsepower and it won't matter	148020152	1475956528768	1475956528840	c	67
290266	3116007	You can have all the horsepower and it won't matter.	You can have all the horsepower and it won't matter	148020153	1475956528880	1475956528949	a	65
290266	3116007	You can have all the horsepower and it won't matter.	You can have all the horsepower and it won't matter	148020155	1475956528959	1475956528985	n	78
290266	3116007	You can have all the horsepower and it won't matter.	You can have all the horsepower and it won't matter	148020157	1475956529049	1475956529139	 	32
290266	3116007	You can have all the horsepower and it won't matter.	You can have all the horsepower and it won't matter	148020164	1475956529096	1475956529225	h	72
290266	3116007	You can have all the horsepower and it won't matter.	You can have all the horsepower and it won't matter	148020159	1475956529169	1475956529215	a	65
290266	3116007	You can have all the horsepower and it won't matter.	You can have all the horsepower and it won't matter	148020166	1475956529253	1475956529375	v	86
290266	3116007	You can have all the horsepower and it won't matter.	You can have all the horsepower and it won't matter	148020169	1475956529385	1475956529418	e	69
290266	3116007	You can have all the horsepower and it won't matter.	You can have all the horsepower and it won't matter	148020174	1475956529424	1475956529446	 	32
290266	3116007	You can have all the horsepower and it won't matter.	You can have all the horsepower and it won't matter	148020177	1475956529491	1475956529601	a	65
290266	3116007	You can have all the horsepower and it won't matter.	You can have all the horsepower and it won't matter	148020192	1475956529564	1475956529619	l	76
290266	3116007	You can have all the horsepower and it won't matter.	You can have all the horsepower and it won't matter	148020197	1475956529667	1475956529789	l	76
290266	3116007	You can have all the horsepower and it won't matter.	You can have all the horsepower and it won't matter	148020201	1475956529800	1475956529825	 	32
290266	3116007	You can have all the horsepower and it won't matter.	You can have all the horsepower and it won't matter	148020205	1475956529836	1475956529900	t	84
290266	3116007	You can have all the horsepower and it won't matter.	You can have all the horsepower and it won't matter	148020209	1475956529910	1475956529979	h	72
290266	3116007	You can have all the horsepower and it won't matter.	You can have all the horsepower and it won't matter	148020213	1475956529989	1475956530056	e	69
290266	3116007	You can have all the horsepower and it won't matter.	You can have all the horsepower and it won't matter	148020242	1475956530066	1475956530172	 	32
290266	3116007	You can have all the horsepower and it won't matter.	You can have all the horsepower and it won't matter	148020245	1475956530122	1475956530202	h	72
290266	3116007	You can have all the horsepower and it won't matter.	You can have all the horsepower and it won't matter	148020250	1475956530342	1475956530461	o	79
290266	3116007	You can have all the horsepower and it won't matter.	You can have all the horsepower and it won't matter	148020254	1475956530491	1475956530551	r	82
290266	3116007	You can have all the horsepower and it won't matter.	You can have all the horsepower and it won't matter	148020257	1475956530591	1475956530717	s	83
290266	3116007	You can have all the horsepower and it won't matter.	You can have all the horsepower and it won't matter	148020282	1475956530727	1475956530797	e	69
290266	3116007	You can have all the horsepower and it won't matter.	You can have all the horsepower and it won't matter	148020284	1475956530839	1475956531029	p	80
290266	3116007	You can have all the horsepower and it won't matter.	You can have all the horsepower and it won't matter	148020286	1475956530983	1475956531122	o	79
290266	3116007	You can have all the horsepower and it won't matter.	You can have all the horsepower and it won't matter	148020288	1475956531132	1475956531197	w	87
290266	3116007	You can have all the horsepower and it won't matter.	You can have all the horsepower and it won't matter	148020292	1475956531197	1475956531307	e	69
290266	3116007	You can have all the horsepower and it won't matter.	You can have all the horsepower and it won't matter	148020295	1475956531265	1475956531340	r	82
290266	3116007	You can have all the horsepower and it won't matter.	You can have all the horsepower and it won't matter	148020296	1475956531350	1475956531421	 	32
290266	3116007	You can have all the horsepower and it won't matter.	You can have all the horsepower and it won't matter	148020301	1475956531421	1475956531531	a	65
290266	3116007	You can have all the horsepower and it won't matter.	You can have all the horsepower and it won't matter	148020304	1475956531541	1475956531607	n	78
290266	3116007	You can have all the horsepower and it won't matter.	You can have all the horsepower and it won't matter	148020307	1475956531607	1475956531725	d	68
290266	3116007	You can have all the horsepower and it won't matter.	You can have all the horsepower and it won't matter	148020316	1475956531677	1475956531757	 	32
290266	3116007	You can have all the horsepower and it won't matter.	You can have all the horsepower and it won't matter	148020319	1475956531731	1475956531821	i	73
290266	3116007	You can have all the horsepower and it won't matter.	You can have all the horsepower and it won't matter	148020322	1475956531831	1475956531895	t	84
290266	3116007	You can have all the horsepower and it won't matter.	You can have all the horsepower and it won't matter	148020324	1475956531895	1475956531959	 	32
290266	3116007	You can have all the horsepower and it won't matter.	You can have all the horsepower and it won't matter	148020326	1475956531969	1475956532078	w	87
290266	3116007	You can have all the horsepower and it won't matter.	You can have all the horsepower and it won't matter	148020331	1475956532040	1475956532111	o	79
290266	3116007	You can have all the horsepower and it won't matter.	You can have all the horsepower and it won't matter	148020333	1475956532131	1475956532246	n	78
290266	3116007	You can have all the horsepower and it won't matter.	You can have all the horsepower and it won't matter	148020337	1475956532251	1475956532345	'	222
290266	3116007	You can have all the horsepower and it won't matter.	You can have all the horsepower and it won't matter	148020341	1475956532355	1475956532422	t	84
290266	3116007	You can have all the horsepower and it won't matter.	You can have all the horsepower and it won't matter	148020347	1475956532385	1475956532488	 	32
290266	3116007	You can have all the horsepower and it won't matter.	You can have all the horsepower and it won't matter	148020352	1475956532498	1475956532607	m	77
290266	3116007	You can have all the horsepower and it won't matter.	You can have all the horsepower and it won't matter	148020367	1475956532574	1475956532640	a	65
290266	3116007	You can have all the horsepower and it won't matter.	You can have all the horsepower and it won't matter	148020369	1475956532710	1475956532801	t	84
290266	3116007	You can have all the horsepower and it won't matter.	You can have all the horsepower and it won't matter	148020371	1475956532853	1475956532939	t	84
290266	3116007	You can have all the horsepower and it won't matter.	You can have all the horsepower and it won't matter	148020373	1475956532939	1475956533105	e	69
290266	3116007	You can have all the horsepower and it won't matter.	You can have all the horsepower and it won't matter	148020375	1475956533056	1475956533168	r	82
290266	3116014	He was professor emeritus of human development and psychiatry.	He was professor emertius of human development and psychiatry	148020441	1475956534847	1475956535089	SHIFT	16
290266	3116014	He was professor emeritus of human development and psychiatry.	He was professor emertius of human development and psychiatry	148020442	1475956534986	1475956535099	H	72
290266	3116014	He was professor emeritus of human development and psychiatry.	He was professor emertius of human development and psychiatry	148020444	1475956535109	1475956535182	e	69
290266	3116014	He was professor emeritus of human development and psychiatry.	He was professor emertius of human development and psychiatry	148020446	1475956535212	1475956535290	 	32
290266	3116014	He was professor emeritus of human development and psychiatry.	He was professor emertius of human development and psychiatry	148020448	1475956535301	1475956535415	w	87
290266	3116014	He was professor emeritus of human development and psychiatry.	He was professor emertius of human development and psychiatry	148020450	1475956535425	1475956535564	a	65
290266	3116014	He was professor emeritus of human development and psychiatry.	He was professor emertius of human development and psychiatry	148020478	1475956535511	1475956535639	s	83
290266	3116014	He was professor emeritus of human development and psychiatry.	He was professor emertius of human development and psychiatry	148020479	1475956535649	1475956535703	 	32
290266	3116014	He was professor emeritus of human development and psychiatry.	He was professor emertius of human development and psychiatry	148020480	1475956535713	1475956535828	a	65
290266	3116014	He was professor emeritus of human development and psychiatry.	He was professor emertius of human development and psychiatry	148020482	1475956536179	1475956536252	BKSP	8
290266	3116014	He was professor emeritus of human development and psychiatry.	He was professor emertius of human development and psychiatry	148020484	1475956536398	1475956536504	p	80
290266	3116014	He was professor emeritus of human development and psychiatry.	He was professor emertius of human development and psychiatry	148020488	1475956536524	1475956536634	r	82
290266	3116014	He was professor emeritus of human development and psychiatry.	He was professor emertius of human development and psychiatry	148020496	1475956536674	1475956536753	o	79
290266	3116014	He was professor emeritus of human development and psychiatry.	He was professor emertius of human development and psychiatry	148020521	1475956536775	1475956536840	f	70
290266	3116014	He was professor emeritus of human development and psychiatry.	He was professor emertius of human development and psychiatry	148020524	1475956536933	1475956537006	e	69
290266	3116014	He was professor emeritus of human development and psychiatry.	He was professor emertius of human development and psychiatry	148020529	1475956537066	1475956537142	s	83
290266	3116014	He was professor emeritus of human development and psychiatry.	He was professor emertius of human development and psychiatry	148020534	1475956537215	1475956537321	s	83
290266	3116014	He was professor emeritus of human development and psychiatry.	He was professor emertius of human development and psychiatry	148020538	1475956537340	1475956537418	o	79
290266	3116014	He was professor emeritus of human development and psychiatry.	He was professor emertius of human development and psychiatry	148020566	1475956537428	1475956537527	r	82
290266	3116014	He was professor emeritus of human development and psychiatry.	He was professor emertius of human development and psychiatry	148020571	1475956537537	1475956537647	 	32
290266	3116014	He was professor emeritus of human development and psychiatry.	He was professor emertius of human development and psychiatry	148020575	1475956537983	1475956538086	e	69
290266	3116014	He was professor emeritus of human development and psychiatry.	He was professor emertius of human development and psychiatry	148020579	1475956538156	1475956538262	m	77
290266	3116014	He was professor emeritus of human development and psychiatry.	He was professor emertius of human development and psychiatry	148020584	1475956538282	1475956538361	e	69
290266	3116014	He was professor emeritus of human development and psychiatry.	He was professor emertius of human development and psychiatry	148020616	1475956538403	1475956538471	r	82
290266	3116014	He was professor emeritus of human development and psychiatry.	He was professor emertius of human development and psychiatry	148020617	1475956538576	1475956538654	t	84
290266	3116014	He was professor emeritus of human development and psychiatry.	He was professor emertius of human development and psychiatry	148020618	1475956538850	1475956538979	i	73
290266	3116014	He was professor emeritus of human development and psychiatry.	He was professor emertius of human development and psychiatry	148020620	1475956539119	1475956539185	s	83
290266	3116014	He was professor emeritus of human development and psychiatry.	He was professor emertius of human development and psychiatry	148020622	1475956539265	1475956539358	u	85
290266	3116014	He was professor emeritus of human development and psychiatry.	He was professor emertius of human development and psychiatry	148020693	1475956539767	1475956539875	BKSP	8
290266	3116014	He was professor emeritus of human development and psychiatry.	He was professor emertius of human development and psychiatry	148020697	1475956540346	1475956540414	BKSP	8
290266	3116014	He was professor emeritus of human development and psychiatry.	He was professor emertius of human development and psychiatry	148020703	1475956540564	1475956540637	u	85
290266	3116014	He was professor emeritus of human development and psychiatry.	He was professor emertius of human development and psychiatry	148020706	1475956540657	1475956540770	s	83
290266	3116014	He was professor emeritus of human development and psychiatry.	He was professor emertius of human development and psychiatry	148020709	1475956540770	1475956540836	 	32
290266	3116014	He was professor emeritus of human development and psychiatry.	He was professor emertius of human development and psychiatry	148020712	1475956540846	1475956540919	o	79
290266	3116014	He was professor emeritus of human development and psychiatry.	He was professor emertius of human development and psychiatry	148020715	1475956540919	1475956540986	f	70
290266	3116014	He was professor emeritus of human development and psychiatry.	He was professor emertius of human development and psychiatry	148020724	1475956540996	1475956541119	 	32
290266	3116014	He was professor emeritus of human development and psychiatry.	He was professor emertius of human development and psychiatry	148020727	1475956541069	1475956541195	h	72
290266	3116014	He was professor emeritus of human development and psychiatry.	He was professor emertius of human development and psychiatry	148020730	1475956541205	1475956541258	u	85
290266	3116014	He was professor emeritus of human development and psychiatry.	He was professor emertius of human development and psychiatry	148020733	1475956541351	1475956541428	m	77
290266	3116014	He was professor emeritus of human development and psychiatry.	He was professor emertius of human development and psychiatry	148020736	1475956541478	1475956541593	a	65
290266	3116014	He was professor emeritus of human development and psychiatry.	He was professor emertius of human development and psychiatry	148020755	1475956541541	1475956541617	n	78
290266	3116014	He was professor emeritus of human development and psychiatry.	He was professor emertius of human development and psychiatry	148020757	1475956541678	1475956541760	 	32
290266	3116014	He was professor emeritus of human development and psychiatry.	He was professor emertius of human development and psychiatry	148020758	1475956541769	1475956541826	d	68
290266	3116014	He was professor emeritus of human development and psychiatry.	He was professor emertius of human development and psychiatry	148020760	1475956541856	1475956541949	e	69
290266	3116014	He was professor emeritus of human development and psychiatry.	He was professor emertius of human development and psychiatry	148020761	1475956541982	1475956542131	v	86
290266	3116014	He was professor emeritus of human development and psychiatry.	He was professor emertius of human development and psychiatry	148020763	1475956542131	1475956542198	e	69
290266	3116014	He was professor emeritus of human development and psychiatry.	He was professor emertius of human development and psychiatry	148020773	1475956542208	1475956542265	l	76
290266	3116014	He was professor emeritus of human development and psychiatry.	He was professor emertius of human development and psychiatry	148020776	1475956542355	1475956542531	o	79
290266	3116014	He was professor emeritus of human development and psychiatry.	He was professor emertius of human development and psychiatry	148020778	1475956542464	1475956542570	p	80
290266	3116014	He was professor emeritus of human development and psychiatry.	He was professor emertius of human development and psychiatry	148020780	1475956542670	1475956542748	m	77
290266	3116014	He was professor emeritus of human development and psychiatry.	He was professor emertius of human development and psychiatry	148020783	1475956542768	1475956542829	e	69
290266	3116014	He was professor emeritus of human development and psychiatry.	He was professor emertius of human development and psychiatry	148020785	1475956542861	1475956542929	n	78
290266	3116014	He was professor emeritus of human development and psychiatry.	He was professor emertius of human development and psychiatry	148020786	1475956542939	1475956543006	t	84
290266	3116014	He was professor emeritus of human development and psychiatry.	He was professor emertius of human development and psychiatry	148020787	1475956543036	1475956543105	 	32
290266	3116014	He was professor emeritus of human development and psychiatry.	He was professor emertius of human development and psychiatry	148020788	1475956543115	1475956543168	a	65
290266	3116014	He was professor emeritus of human development and psychiatry.	He was professor emertius of human development and psychiatry	148020790	1475956543188	1475956543268	n	78
290266	3116014	He was professor emeritus of human development and psychiatry.	He was professor emertius of human development and psychiatry	148020799	1475956543268	1475956543374	d	68
290266	3116014	He was professor emeritus of human development and psychiatry.	He was professor emertius of human development and psychiatry	148020802	1475956543374	1475956543444	 	32
290266	3116014	He was professor emeritus of human development and psychiatry.	He was professor emertius of human development and psychiatry	148020805	1475956543514	1475956543630	p	80
290266	3116014	He was professor emeritus of human development and psychiatry.	He was professor emertius of human development and psychiatry	148020808	1475956543640	1475956543756	s	83
290266	3116014	He was professor emeritus of human development and psychiatry.	He was professor emertius of human development and psychiatry	148020812	1475956543766	1475956543846	y	89
290266	3116014	He was professor emeritus of human development and psychiatry.	He was professor emertius of human development and psychiatry	148020823	1475956543856	1475956543965	c	67
290266	3116014	He was professor emeritus of human development and psychiatry.	He was professor emertius of human development and psychiatry	148020826	1475956543965	1475956544026	h	72
290266	3116014	He was professor emeritus of human development and psychiatry.	He was professor emertius of human development and psychiatry	148020829	1475956544066	1475956544136	i	73
290266	3116014	He was professor emeritus of human development and psychiatry.	He was professor emertius of human development and psychiatry	148020831	1475956544146	1475956544216	a	65
290266	3116014	He was professor emeritus of human development and psychiatry.	He was professor emertius of human development and psychiatry	148020833	1475956544266	1475956544386	t	84
290266	3116014	He was professor emeritus of human development and psychiatry.	He was professor emertius of human development and psychiatry	148020835	1475956544388	1475956544478	r	82
290266	3116014	He was professor emeritus of human development and psychiatry.	He was professor emertius of human development and psychiatry	148020838	1475956544498	1475956544588	y	89
290266	3116025	I was a bit rusty but I didn't want to miss the elections back home.	I was a bit rusty but i didn't want to miss the elections back home	148020904	1475956546176	1475956546375	SHIFT	16
290266	3116025	I was a bit rusty but I didn't want to miss the elections back home.	I was a bit rusty but i didn't want to miss the elections back home	148020905	1475956546276	1475956546395	I	73
290266	3116025	I was a bit rusty but I didn't want to miss the elections back home.	I was a bit rusty but i didn't want to miss the elections back home	148020906	1475956546405	1475956546468	 	32
290266	3116025	I was a bit rusty but I didn't want to miss the elections back home.	I was a bit rusty but i didn't want to miss the elections back home	148020907	1475956546488	1475956546541	w	87
290266	3116025	I was a bit rusty but I didn't want to miss the elections back home.	I was a bit rusty but i didn't want to miss the elections back home	148020908	1475956546551	1475956546710	a	65
290266	3116025	I was a bit rusty but I didn't want to miss the elections back home.	I was a bit rusty but i didn't want to miss the elections back home	148020926	1475956546674	1475956546793	s	83
290266	3116025	I was a bit rusty but I didn't want to miss the elections back home.	I was a bit rusty but i didn't want to miss the elections back home	148020928	1475956546743	1475956546828	 	32
290266	3116025	I was a bit rusty but I didn't want to miss the elections back home.	I was a bit rusty but i didn't want to miss the elections back home	148020932	1475956546918	1475956547040	a	65
290266	3116025	I was a bit rusty but I didn't want to miss the elections back home.	I was a bit rusty but i didn't want to miss the elections back home	148020934	1475956547040	1475956547129	 	32
290266	3116025	I was a bit rusty but I didn't want to miss the elections back home.	I was a bit rusty but i didn't want to miss the elections back home	148020937	1475956547149	1475956547232	b	66
290266	3116025	I was a bit rusty but I didn't want to miss the elections back home.	I was a bit rusty but i didn't want to miss the elections back home	148020941	1475956547282	1475956547369	i	73
290266	3116025	I was a bit rusty but I didn't want to miss the elections back home.	I was a bit rusty but i didn't want to miss the elections back home	148020950	1475956547379	1475956547428	t	84
290266	3116025	I was a bit rusty but I didn't want to miss the elections back home.	I was a bit rusty but i didn't want to miss the elections back home	148020954	1475956547458	1475956547535	 	32
290266	3116025	I was a bit rusty but I didn't want to miss the elections back home.	I was a bit rusty but i didn't want to miss the elections back home	148020958	1475956547555	1475956547638	r	82
290266	3116025	I was a bit rusty but I didn't want to miss the elections back home.	I was a bit rusty but i didn't want to miss the elections back home	148020962	1475956547658	1475956547751	u	85
290266	3116025	I was a bit rusty but I didn't want to miss the elections back home.	I was a bit rusty but i didn't want to miss the elections back home	148020965	1475956547761	1475956547824	s	83
290266	3116025	I was a bit rusty but I didn't want to miss the elections back home.	I was a bit rusty but i didn't want to miss the elections back home	148020989	1475956547896	1475956548007	t	84
290266	3116025	I was a bit rusty but I didn't want to miss the elections back home.	I was a bit rusty but i didn't want to miss the elections back home	148020990	1475956548388	1475956548472	y	89
290266	3116025	I was a bit rusty but I didn't want to miss the elections back home.	I was a bit rusty but i didn't want to miss the elections back home	148020991	1475956548572	1475956548674	 	32
290266	3116025	I was a bit rusty but I didn't want to miss the elections back home.	I was a bit rusty but i didn't want to miss the elections back home	148020992	1475956548684	1475956548805	b	66
290266	3116025	I was a bit rusty but I didn't want to miss the elections back home.	I was a bit rusty but i didn't want to miss the elections back home	148020993	1475956548815	1475956548893	u	85
290266	3116025	I was a bit rusty but I didn't want to miss the elections back home.	I was a bit rusty but i didn't want to miss the elections back home	148021004	1475956548913	1475956548977	t	84
290266	3116025	I was a bit rusty but I didn't want to miss the elections back home.	I was a bit rusty but i didn't want to miss the elections back home	148021008	1475956548987	1475956549040	 	32
290266	3116025	I was a bit rusty but I didn't want to miss the elections back home.	I was a bit rusty but i didn't want to miss the elections back home	148021013	1475956549050	1475956549116	i	73
290266	3116025	I was a bit rusty but I didn't want to miss the elections back home.	I was a bit rusty but i didn't want to miss the elections back home	148021016	1475956549146	1475956549231	 	32
290266	3116025	I was a bit rusty but I didn't want to miss the elections back home.	I was a bit rusty but i didn't want to miss the elections back home	148021019	1475956549259	1475956549335	d	68
290266	3116025	I was a bit rusty but I didn't want to miss the elections back home.	I was a bit rusty but i didn't want to miss the elections back home	148021029	1475956549368	1475956549452	i	73
290266	3116025	I was a bit rusty but I didn't want to miss the elections back home.	I was a bit rusty but i didn't want to miss the elections back home	148021030	1475956549462	1475956549525	d	68
290266	3116025	I was a bit rusty but I didn't want to miss the elections back home.	I was a bit rusty but i didn't want to miss the elections back home	148021032	1475956549535	1475956549598	n	78
290266	3116025	I was a bit rusty but I didn't want to miss the elections back home.	I was a bit rusty but i didn't want to miss the elections back home	148021034	1475956549608	1475956549678	'	222
290266	3116025	I was a bit rusty but I didn't want to miss the elections back home.	I was a bit rusty but i didn't want to miss the elections back home	148021037	1475956549688	1475956549757	t	84
290266	3116025	I was a bit rusty but I didn't want to miss the elections back home.	I was a bit rusty but i didn't want to miss the elections back home	148021042	1475956549767	1475956549827	 	32
290266	3116025	I was a bit rusty but I didn't want to miss the elections back home.	I was a bit rusty but i didn't want to miss the elections back home	148021043	1475956549858	1475956549940	w	87
290266	3116025	I was a bit rusty but I didn't want to miss the elections back home.	I was a bit rusty but i didn't want to miss the elections back home	148021045	1475956549940	1475956550012	a	65
290266	3116025	I was a bit rusty but I didn't want to miss the elections back home.	I was a bit rusty but i didn't want to miss the elections back home	148021048	1475956550023	1475956550073	n	78
290266	3116025	I was a bit rusty but I didn't want to miss the elections back home.	I was a bit rusty but i didn't want to miss the elections back home	148021051	1475956550083	1475956550156	t	84
290266	3116025	I was a bit rusty but I didn't want to miss the elections back home.	I was a bit rusty but i didn't want to miss the elections back home	148021061	1475956550156	1475956550229	 	32
290266	3116025	I was a bit rusty but I didn't want to miss the elections back home.	I was a bit rusty but i didn't want to miss the elections back home	148021064	1475956550239	1475956550317	t	84
290266	3116025	I was a bit rusty but I didn't want to miss the elections back home.	I was a bit rusty but i didn't want to miss the elections back home	148021067	1475956550279	1475956550349	o	79
290266	3116025	I was a bit rusty but I didn't want to miss the elections back home.	I was a bit rusty but i didn't want to miss the elections back home	148021068	1475956550359	1475956550422	 	32
290266	3116025	I was a bit rusty but I didn't want to miss the elections back home.	I was a bit rusty but i didn't want to miss the elections back home	148021070	1475956550462	1475956550561	m	77
290266	3116025	I was a bit rusty but I didn't want to miss the elections back home.	I was a bit rusty but i didn't want to miss the elections back home	148021079	1475956550592	1475956550661	i	73
290266	3116025	I was a bit rusty but I didn't want to miss the elections back home.	I was a bit rusty but i didn't want to miss the elections back home	148021081	1475956550661	1475956550727	s	83
290266	3116025	I was a bit rusty but I didn't want to miss the elections back home.	I was a bit rusty but i didn't want to miss the elections back home	148021084	1475956550757	1475956550833	s	83
290266	3116025	I was a bit rusty but I didn't want to miss the elections back home.	I was a bit rusty but i didn't want to miss the elections back home	148021088	1475956550870	1475956550947	 	32
290266	3116025	I was a bit rusty but I didn't want to miss the elections back home.	I was a bit rusty but i didn't want to miss the elections back home	148021092	1475956550947	1475956551013	t	84
290266	3116025	I was a bit rusty but I didn't want to miss the elections back home.	I was a bit rusty but i didn't want to miss the elections back home	148021109	1475956551032	1475956551113	h	72
290266	3116025	I was a bit rusty but I didn't want to miss the elections back home.	I was a bit rusty but i didn't want to miss the elections back home	148021113	1475956551113	1475956551179	e	69
290266	3116025	I was a bit rusty but I didn't want to miss the elections back home.	I was a bit rusty but i didn't want to miss the elections back home	148021116	1475956551189	1475956551299	 	32
290266	3116025	I was a bit rusty but I didn't want to miss the elections back home.	I was a bit rusty but i didn't want to miss the elections back home	148021118	1475956551299	1475956551369	e	69
290266	3116025	I was a bit rusty but I didn't want to miss the elections back home.	I was a bit rusty but i didn't want to miss the elections back home	148021119	1475956551422	1475956551525	l	76
290266	3116025	I was a bit rusty but I didn't want to miss the elections back home.	I was a bit rusty but i didn't want to miss the elections back home	148021131	1475956551525	1475956551591	e	69
290266	3116025	I was a bit rusty but I didn't want to miss the elections back home.	I was a bit rusty but i didn't want to miss the elections back home	148021133	1475956551667	1475956551744	c	67
290266	3116025	I was a bit rusty but I didn't want to miss the elections back home.	I was a bit rusty but i didn't want to miss the elections back home	148021135	1475956551864	1475956551937	t	84
290266	3116025	I was a bit rusty but I didn't want to miss the elections back home.	I was a bit rusty but i didn't want to miss the elections back home	148021137	1475956551937	1475956552046	i	73
290266	3116025	I was a bit rusty but I didn't want to miss the elections back home.	I was a bit rusty but i didn't want to miss the elections back home	148021139	1475956552046	1475956552116	o	79
290266	3116025	I was a bit rusty but I didn't want to miss the elections back home.	I was a bit rusty but i didn't want to miss the elections back home	148021153	1475956552158	1475956552225	n	78
290266	3116025	I was a bit rusty but I didn't want to miss the elections back home.	I was a bit rusty but i didn't want to miss the elections back home	148021155	1475956552255	1475956552362	s	83
290266	3116025	I was a bit rusty but I didn't want to miss the elections back home.	I was a bit rusty but i didn't want to miss the elections back home	148021157	1475956552372	1475956552452	 	32
290266	3116025	I was a bit rusty but I didn't want to miss the elections back home.	I was a bit rusty but i didn't want to miss the elections back home	148021159	1475956552491	1475956552564	b	66
290266	3116025	I was a bit rusty but I didn't want to miss the elections back home.	I was a bit rusty but i didn't want to miss the elections back home	148021161	1475956552574	1475956552631	a	65
290266	3116025	I was a bit rusty but I didn't want to miss the elections back home.	I was a bit rusty but i didn't want to miss the elections back home	148021176	1475956552703	1475956552820	c	67
290266	3116025	I was a bit rusty but I didn't want to miss the elections back home.	I was a bit rusty but i didn't want to miss the elections back home	148021180	1475956552820	1475956552890	k	75
290266	3116025	I was a bit rusty but I didn't want to miss the elections back home.	I was a bit rusty but i didn't want to miss the elections back home	148021184	1475956552910	1475956553034	 	32
290266	3116025	I was a bit rusty but I didn't want to miss the elections back home.	I was a bit rusty but i didn't want to miss the elections back home	148021189	1475956553043	1475956553076	h	72
290266	3116025	I was a bit rusty but I didn't want to miss the elections back home.	I was a bit rusty but i didn't want to miss the elections back home	148021194	1475956553126	1475956553196	o	79
290266	3116025	I was a bit rusty but I didn't want to miss the elections back home.	I was a bit rusty but i didn't want to miss the elections back home	148021193	1475956553216	1475956553319	m	77
290266	3116025	I was a bit rusty but I didn't want to miss the elections back home.	I was a bit rusty but i didn't want to miss the elections back home	148021198	1475956553339	1475956553365	e	69
290266	3116028	Mike Anderson will retain the starting job for now.	mike anderstand will retain the starting job for now	148021297	1475956555073	1475956555176	m	77
290266	3116028	Mike Anderson will retain the starting job for now.	mike anderstand will retain the starting job for now	148021299	1475956555226	1475956555289	i	73
290266	3116028	Mike Anderson will retain the starting job for now.	mike anderstand will retain the starting job for now	148021301	1475956555379	1475956555453	k	75
290266	3116028	Mike Anderson will retain the starting job for now.	mike anderstand will retain the starting job for now	148021303	1475956555459	1475956555528	e	69
290266	3116028	Mike Anderson will retain the starting job for now.	mike anderstand will retain the starting job for now	148021305	1475956555558	1475956555632	 	32
290266	3116028	Mike Anderson will retain the starting job for now.	mike anderstand will retain the starting job for now	148021336	1475956555663	1475956555770	a	65
290266	3116028	Mike Anderson will retain the starting job for now.	mike anderstand will retain the starting job for now	148021337	1475956555770	1475956555833	n	78
290266	3116028	Mike Anderson will retain the starting job for now.	mike anderstand will retain the starting job for now	148021338	1475956555843	1475956555903	d	68
290266	3116028	Mike Anderson will retain the starting job for now.	mike anderstand will retain the starting job for now	148021339	1475956556103	1475956556249	e	69
290266	3116028	Mike Anderson will retain the starting job for now.	mike anderstand will retain the starting job for now	148021340	1475956556285	1475956556352	r	82
290266	3116028	Mike Anderson will retain the starting job for now.	mike anderstand will retain the starting job for now	148021354	1475956556394	1475956556477	s	83
290266	3116028	Mike Anderson will retain the starting job for now.	mike anderstand will retain the starting job for now	148021358	1475956556518	1475956556591	t	84
290266	3116028	Mike Anderson will retain the starting job for now.	mike anderstand will retain the starting job for now	148021362	1475956556651	1475956556757	a	65
290266	3116028	Mike Anderson will retain the starting job for now.	mike anderstand will retain the starting job for now	148021366	1475956556797	1475956556907	n	78
290266	3116028	Mike Anderson will retain the starting job for now.	mike anderstand will retain the starting job for now	148021370	1475956556907	1475956556973	d	68
290266	3116028	Mike Anderson will retain the starting job for now.	mike anderstand will retain the starting job for now	148021395	1475956557136	1475956557235	 	32
290266	3116028	Mike Anderson will retain the starting job for now.	mike anderstand will retain the starting job for now	148021399	1475956557507	1475956557581	w	87
290266	3116028	Mike Anderson will retain the starting job for now.	mike anderstand will retain the starting job for now	148021403	1475956557581	1475956557654	i	73
290266	3116028	Mike Anderson will retain the starting job for now.	mike anderstand will retain the starting job for now	148021406	1475956557744	1475956557823	l	76
290266	3116028	Mike Anderson will retain the starting job for now.	mike anderstand will retain the starting job for now	148021410	1475956557877	1475956557940	l	76
290266	3116028	Mike Anderson will retain the starting job for now.	mike anderstand will retain the starting job for now	148021426	1475956557961	1475956558053	 	32
290266	3116028	Mike Anderson will retain the starting job for now.	mike anderstand will retain the starting job for now	148021430	1475956558266	1475956558414	r	82
290266	3116028	Mike Anderson will retain the starting job for now.	mike anderstand will retain the starting job for now	148021435	1475956558378	1475956558481	e	69
290266	3116028	Mike Anderson will retain the starting job for now.	mike anderstand will retain the starting job for now	148021439	1475956558561	1475956558627	t	84
290266	3116028	Mike Anderson will retain the starting job for now.	mike anderstand will retain the starting job for now	148021443	1475956558717	1475956558797	a	65
290266	3116028	Mike Anderson will retain the starting job for now.	mike anderstand will retain the starting job for now	148021460	1475956558807	1475956558906	i	73
290266	3116028	Mike Anderson will retain the starting job for now.	mike anderstand will retain the starting job for now	148021461	1475956558976	1475956559049	n	78
290266	3116028	Mike Anderson will retain the starting job for now.	mike anderstand will retain the starting job for now	148021462	1475956559140	1475956559221	 	32
290266	3116028	Mike Anderson will retain the starting job for now.	mike anderstand will retain the starting job for now	148021463	1475956559183	1475956559242	t	84
290266	3116028	Mike Anderson will retain the starting job for now.	mike anderstand will retain the starting job for now	148021464	1475956559284	1475956559358	h	72
290266	3116028	Mike Anderson will retain the starting job for now.	mike anderstand will retain the starting job for now	148021472	1475956559368	1475956559431	e	69
290266	3116028	Mike Anderson will retain the starting job for now.	mike anderstand will retain the starting job for now	148021474	1475956559451	1475956559576	 	32
290266	3116028	Mike Anderson will retain the starting job for now.	mike anderstand will retain the starting job for now	148021476	1475956559541	1475956559587	s	83
290266	3116028	Mike Anderson will retain the starting job for now.	mike anderstand will retain the starting job for now	148021479	1475956559597	1475956559687	t	84
290266	3116028	Mike Anderson will retain the starting job for now.	mike anderstand will retain the starting job for now	148021480	1475956559721	1475956559804	a	65
290266	3116028	Mike Anderson will retain the starting job for now.	mike anderstand will retain the starting job for now	148021508	1475956559826	1475956559940	r	82
290266	3116028	Mike Anderson will retain the starting job for now.	mike anderstand will retain the starting job for now	148021512	1475956559990	1475956560066	t	84
290266	3116028	Mike Anderson will retain the starting job for now.	mike anderstand will retain the starting job for now	148021515	1475956560106	1475956560182	b	66
290266	3116028	Mike Anderson will retain the starting job for now.	mike anderstand will retain the starting job for now	148021517	1475956560232	1475956560328	i	73
290266	3116028	Mike Anderson will retain the starting job for now.	mike anderstand will retain the starting job for now	148021518	1475956560358	1475956560478	n	78
290266	3116028	Mike Anderson will retain the starting job for now.	mike anderstand will retain the starting job for now	148021523	1475956560488	1475956560522	g	71
290266	3116028	Mike Anderson will retain the starting job for now.	mike anderstand will retain the starting job for now	148021526	1475956560577	1475956560654	 	32
290266	3116028	Mike Anderson will retain the starting job for now.	mike anderstand will retain the starting job for now	148021531	1475956560664	1475956560767	f	70
290266	3116028	Mike Anderson will retain the starting job for now.	mike anderstand will retain the starting job for now	148021535	1475956560777	1475956560837	o	79
290266	3116028	Mike Anderson will retain the starting job for now.	mike anderstand will retain the starting job for now	148021540	1475956560847	1475956560910	r	82
290266	3116028	Mike Anderson will retain the starting job for now.	mike anderstand will retain the starting job for now	148021658	1475956561445	1475956561521	BKSP	8
290266	3116028	Mike Anderson will retain the starting job for now.	mike anderstand will retain the starting job for now	148021661	1475956561591	1475956561661	BKSP	8
290266	3116028	Mike Anderson will retain the starting job for now.	mike anderstand will retain the starting job for now	148021664	1475956561721	1475956561830	BKSP	8
290266	3116028	Mike Anderson will retain the starting job for now.	mike anderstand will retain the starting job for now	148021668	1475956562179	1475956562255	BKSP	8
290266	3116028	Mike Anderson will retain the starting job for now.	mike anderstand will retain the starting job for now	148021673	1475956562340	1475956562408	BKSP	8
290266	3116028	Mike Anderson will retain the starting job for now.	mike anderstand will retain the starting job for now	148021679	1475956562458	1475956562544	BKSP	8
290266	3116028	Mike Anderson will retain the starting job for now.	mike anderstand will retain the starting job for now	148021683	1475956562594	1475956562704	BKSP	8
290266	3116028	Mike Anderson will retain the starting job for now.	mike anderstand will retain the starting job for now	148021685	1475956563117	1475956563185	BKSP	8
290266	3116028	Mike Anderson will retain the starting job for now.	mike anderstand will retain the starting job for now	148021687	1475956563315	1475956563378	i	73
290266	3116028	Mike Anderson will retain the starting job for now.	mike anderstand will retain the starting job for now	148021689	1475956563448	1475956563552	n	78
290266	3116028	Mike Anderson will retain the starting job for now.	mike anderstand will retain the starting job for now	148021691	1475956563556	1475956563621	g	71
290266	3116028	Mike Anderson will retain the starting job for now.	mike anderstand will retain the starting job for now	148021697	1475956563631	1475956563730	 	32
290266	3116028	Mike Anderson will retain the starting job for now.	mike anderstand will retain the starting job for now	148021701	1475956563763	1475956563867	j	74
290266	3116028	Mike Anderson will retain the starting job for now.	mike anderstand will retain the starting job for now	148021692	1475956563889	1475956563999	o	79
290266	3116028	Mike Anderson will retain the starting job for now.	mike anderstand will retain the starting job for now	148021696	1475956564029	1475956564102	b	66
290266	3116028	Mike Anderson will retain the starting job for now.	mike anderstand will retain the starting job for now	148021700	1475956564192	1475956564268	 	32
290266	3116028	Mike Anderson will retain the starting job for now.	mike anderstand will retain the starting job for now	148021707	1475956564278	1475956564338	f	70
290266	3116028	Mike Anderson will retain the starting job for now.	mike anderstand will retain the starting job for now	148021711	1475956564348	1475956564425	o	79
290266	3116028	Mike Anderson will retain the starting job for now.	mike anderstand will retain the starting job for now	148021724	1475956564445	1475956564514	r	82
290266	3116028	Mike Anderson will retain the starting job for now.	mike anderstand will retain the starting job for now	148021727	1475956564474	1475956564621	 	32
290266	3116028	Mike Anderson will retain the starting job for now.	mike anderstand will retain the starting job for now	148021729	1475956564586	1475956564701	n	78
290266	3116028	Mike Anderson will retain the starting job for now.	mike anderstand will retain the starting job for now	148021730	1475956564731	1475956564817	o	79
290266	3116028	Mike Anderson will retain the starting job for now.	mike anderstand will retain the starting job for now	148021731	1475956564847	1475956564927	w	87
290266	3116041	Two-thirds of our tickets have been sold in the United States.	two-thirdds of our tickets have been sold int the united states.	148021824	1475956567249	1475956567338	t	84
290266	3116041	Two-thirds of our tickets have been sold in the United States.	two-thirdds of our tickets have been sold int the united states.	148021827	1475956567368	1475956567497	w	87
290266	3116041	Two-thirds of our tickets have been sold in the United States.	two-thirdds of our tickets have been sold int the united states.	148021830	1475956567507	1475956567555	o	79
290266	3116041	Two-thirds of our tickets have been sold in the United States.	two-thirdds of our tickets have been sold int the united states.	148021833	1475956567591	1475956567674	 	32
290266	3116041	Two-thirds of our tickets have been sold in the United States.	two-thirdds of our tickets have been sold int the united states.	148021836	1475956567953	1475956568062	BKSP	8
290266	3116041	Two-thirds of our tickets have been sold in the United States.	two-thirdds of our tickets have been sold int the united states.	148021838	1475956568294	1475956568381	p	80
290266	3116041	Two-thirds of our tickets have been sold in the United States.	two-thirdds of our tickets have been sold int the united states.	148021898	1475956568872	1475956568946	BKSP	8
290266	3116041	Two-thirds of our tickets have been sold in the United States.	two-thirdds of our tickets have been sold int the united states.	148021901	1475956569106	1475956569182	-	189
290266	3116041	Two-thirds of our tickets have been sold in the United States.	two-thirdds of our tickets have been sold int the united states.	148021903	1475956569491	1475956569567	t	84
290266	3116041	Two-thirds of our tickets have been sold in the United States.	two-thirdds of our tickets have been sold int the united states.	148021906	1475956569577	1475956569647	h	72
290266	3116041	Two-thirds of our tickets have been sold in the United States.	two-thirdds of our tickets have been sold int the united states.	148021909	1475956569677	1475956569760	i	73
290266	3116041	Two-thirds of our tickets have been sold in the United States.	two-thirdds of our tickets have been sold int the united states.	148021912	1475956569770	1475956569830	r	82
290266	3116041	Two-thirds of our tickets have been sold in the United States.	two-thirdds of our tickets have been sold int the united states.	148021923	1475956569903	1475956570023	d	68
290266	3116041	Two-thirds of our tickets have been sold in the United States.	two-thirdds of our tickets have been sold int the united states.	148021925	1475956570044	1475956570115	d	68
290266	3116041	Two-thirds of our tickets have been sold in the United States.	two-thirdds of our tickets have been sold int the united states.	148021927	1475956570125	1475956570189	s	83
290266	3116041	Two-thirds of our tickets have been sold in the United States.	two-thirdds of our tickets have been sold int the united states.	148021932	1475956570199	1475956570308	 	32
290266	3116041	Two-thirds of our tickets have been sold in the United States.	two-thirdds of our tickets have been sold int the united states.	148021936	1475956570318	1475956570353	o	79
290266	3116041	Two-thirds of our tickets have been sold in the United States.	two-thirdds of our tickets have been sold int the united states.	148021949	1475956570364	1475956570488	f	70
290266	3116041	Two-thirds of our tickets have been sold in the United States.	two-thirdds of our tickets have been sold int the united states.	148021954	1475956570498	1475956570547	 	32
290266	3116041	Two-thirds of our tickets have been sold in the United States.	two-thirdds of our tickets have been sold int the united states.	148021959	1475956570590	1475956570740	o	79
290266	3116041	Two-thirds of our tickets have been sold in the United States.	two-thirdds of our tickets have been sold int the united states.	148021964	1475956570694	1475956570820	u	85
290266	3116041	Two-thirds of our tickets have been sold in the United States.	two-thirdds of our tickets have been sold int the united states.	148021967	1475956570830	1475956570890	r	82
290266	3116041	Two-thirds of our tickets have been sold in the United States.	two-thirdds of our tickets have been sold int the united states.	148021979	1475956570901	1475956570979	 	32
290266	3116041	Two-thirds of our tickets have been sold in the United States.	two-thirdds of our tickets have been sold int the united states.	148021980	1475956570989	1475956571056	t	84
290266	3116041	Two-thirds of our tickets have been sold in the United States.	two-thirdds of our tickets have been sold int the united states.	148021981	1475956571092	1475956571169	i	73
290266	3116041	Two-thirds of our tickets have been sold in the United States.	two-thirdds of our tickets have been sold int the united states.	148021984	1475956571239	1475956571311	c	67
290266	3116041	Two-thirds of our tickets have been sold in the United States.	two-thirdds of our tickets have been sold int the united states.	148021987	1475956571331	1475956571415	k	75
290266	3116041	Two-thirds of our tickets have been sold in the United States.	two-thirdds of our tickets have been sold int the united states.	148021997	1475956571425	1475956571491	e	69
290266	3116041	Two-thirds of our tickets have been sold in the United States.	two-thirdds of our tickets have been sold int the united states.	148022000	1475956571531	1475956571594	t	84
290266	3116041	Two-thirds of our tickets have been sold in the United States.	two-thirdds of our tickets have been sold int the united states.	148022002	1475956571614	1475956571760	s	83
290266	3116041	Two-thirds of our tickets have been sold in the United States.	two-thirdds of our tickets have been sold int the united states.	148022003	1475956571700	1475956571794	 	32
290266	3116041	Two-thirds of our tickets have been sold in the United States.	two-thirdds of our tickets have been sold int the united states.	148022005	1475956571763	1475956571872	h	72
290266	3116041	Two-thirds of our tickets have been sold in the United States.	two-thirdds of our tickets have been sold int the united states.	148022007	1475956571879	1475956571902	a	65
290266	3116041	Two-thirds of our tickets have been sold in the United States.	two-thirdds of our tickets have been sold int the united states.	148022009	1475956571925	1475956572077	v	86
290266	3116041	Two-thirds of our tickets have been sold in the United States.	two-thirdds of our tickets have been sold int the united states.	148022012	1475956572033	1475956572115	e	69
290266	3116041	Two-thirds of our tickets have been sold in the United States.	two-thirdds of our tickets have been sold int the united states.	148022015	1475956572079	1475956572188	 	32
290266	3116041	Two-thirds of our tickets have been sold in the United States.	two-thirdds of our tickets have been sold int the united states.	148022025	1475956572139	1475956572210	b	66
290266	3116041	Two-thirds of our tickets have been sold in the United States.	two-thirdds of our tickets have been sold int the united states.	148022027	1475956572240	1475956572315	e	69
290266	3116041	Two-thirds of our tickets have been sold in the United States.	two-thirdds of our tickets have been sold int the united states.	148022029	1475956572375	1475956572468	e	69
290266	3116041	Two-thirds of our tickets have been sold in the United States.	two-thirdds of our tickets have been sold int the united states.	148022031	1475956572423	1475956572488	n	78
290266	3116041	Two-thirds of our tickets have been sold in the United States.	two-thirdds of our tickets have been sold int the united states.	148022033	1475956572534	1475956572624	 	32
290266	3116041	Two-thirds of our tickets have been sold in the United States.	two-thirdds of our tickets have been sold int the united states.	148022034	1475956572634	1475956572693	s	83
290266	3116041	Two-thirds of our tickets have been sold in the United States.	two-thirdds of our tickets have been sold int the united states.	148022039	1475956572703	1475956572793	o	79
290266	3116041	Two-thirds of our tickets have been sold in the United States.	two-thirdds of our tickets have been sold int the united states.	148022040	1475956572843	1475956572923	l	76
290266	3116041	Two-thirds of our tickets have been sold in the United States.	two-thirdds of our tickets have been sold int the united states.	148022041	1475956572933	1475956573006	d	68
290266	3116041	Two-thirds of our tickets have been sold in the United States.	two-thirdds of our tickets have been sold int the united states.	148022042	1475956573016	1475956573141	 	32
290266	3116041	Two-thirds of our tickets have been sold in the United States.	two-thirdds of our tickets have been sold int the united states.	148022063	1475956573099	1475956573184	i	73
290266	3116041	Two-thirds of our tickets have been sold in the United States.	two-thirdds of our tickets have been sold int the united states.	148022064	1475956573224	1475956573332	n	78
290266	3116041	Two-thirds of our tickets have been sold in the United States.	two-thirdds of our tickets have been sold int the united states.	148022065	1475956573362	1475956573445	t	84
290266	3116041	Two-thirds of our tickets have been sold in the United States.	two-thirdds of our tickets have been sold int the united states.	148022066	1475956573401	1475956573478	 	32
290266	3116041	Two-thirds of our tickets have been sold in the United States.	two-thirdds of our tickets have been sold int the united states.	148022067	1475956573571	1475956573684	h	72
290266	3116041	Two-thirds of our tickets have been sold in the United States.	two-thirdds of our tickets have been sold int the united states.	148022069	1475956573990	1475956574064	e	69
290266	3116041	Two-thirds of our tickets have been sold in the United States.	two-thirdds of our tickets have been sold int the united states.	148022099	1475956574315	1475956574384	BKSP	8
290266	3116041	Two-thirds of our tickets have been sold in the United States.	two-thirdds of our tickets have been sold int the united states.	148022101	1475956574434	1475956574501	BKSP	8
290266	3116041	Two-thirds of our tickets have been sold in the United States.	two-thirdds of our tickets have been sold int the united states.	148022102	1475956574531	1475956574597	t	84
290266	3116041	Two-thirds of our tickets have been sold in the United States.	two-thirdds of our tickets have been sold int the united states.	148022104	1475956574637	1475956574700	h	72
290266	3116041	Two-thirds of our tickets have been sold in the United States.	two-thirdds of our tickets have been sold int the united states.	148022105	1475956574730	1475956574800	e	69
290266	3116041	Two-thirds of our tickets have been sold in the United States.	two-thirdds of our tickets have been sold int the united states.	148022107	1475956574820	1475956574893	 	32
290266	3116041	Two-thirds of our tickets have been sold in the United States.	two-thirdds of our tickets have been sold int the united states.	148022108	1475956574973	1475956575045	u	85
290266	3116041	Two-thirds of our tickets have been sold in the United States.	two-thirdds of our tickets have been sold int the united states.	148022134	1475956575109	1475956575212	n	78
290266	3116041	Two-thirds of our tickets have been sold in the United States.	two-thirdds of our tickets have been sold int the united states.	148022136	1475956575262	1475956575331	i	73
290266	3116041	Two-thirds of our tickets have been sold in the United States.	two-thirdds of our tickets have been sold int the united states.	148022140	1475956575341	1475956575424	t	84
290266	3116041	Two-thirds of our tickets have been sold in the United States.	two-thirdds of our tickets have been sold int the united states.	148022144	1475956575474	1475956575547	e	69
290266	3116041	Two-thirds of our tickets have been sold in the United States.	two-thirdds of our tickets have been sold int the united states.	148022149	1475956575627	1475956575716	d	68
290266	3116041	Two-thirds of our tickets have been sold in the United States.	two-thirdds of our tickets have been sold int the united states.	148022163	1475956575726	1475956575796	 	32
290266	3116041	Two-thirds of our tickets have been sold in the United States.	two-thirdds of our tickets have been sold int the united states.	148022165	1475956575806	1475956575894	s	83
290266	3116041	Two-thirds of our tickets have been sold in the United States.	two-thirdds of our tickets have been sold int the united states.	148022169	1475956575903	1475956575982	t	84
290266	3116041	Two-thirds of our tickets have been sold in the United States.	two-thirdds of our tickets have been sold int the united states.	148022173	1475956576002	1475956576085	a	65
290266	3116041	Two-thirds of our tickets have been sold in the United States.	two-thirdds of our tickets have been sold int the united states.	148022177	1475956576115	1475956576231	t	84
290266	3116041	Two-thirds of our tickets have been sold in the United States.	two-thirdds of our tickets have been sold int the united states.	148022178	1475956576198	1475956576307	e	69
290266	3116041	Two-thirds of our tickets have been sold in the United States.	two-thirdds of our tickets have been sold int the united states.	148022180	1475956576273	1475956576364	s	83
290266	3116041	Two-thirds of our tickets have been sold in the United States.	two-thirdds of our tickets have been sold int the united states.	148022183	1475956576331	1475956576364	.	190
290266	3116051	This upgrade may take up to 2 hours.	This upgrade may take up to 2 hours	148022257	1475956578272	1475956578457	SHIFT	16
290266	3116051	This upgrade may take up to 2 hours.	This upgrade may take up to 2 hours	148022260	1475956578418	1475956578537	T	84
290266	3116051	This upgrade may take up to 2 hours.	This upgrade may take up to 2 hours	148022263	1475956578557	1475956578600	h	72
290266	3116051	This upgrade may take up to 2 hours.	This upgrade may take up to 2 hours	148022266	1475956578620	1475956578717	i	73
290266	3116051	This upgrade may take up to 2 hours.	This upgrade may take up to 2 hours	148022268	1475956578727	1475956578813	s	83
290266	3116051	This upgrade may take up to 2 hours.	This upgrade may take up to 2 hours	148022269	1475956578833	1475956578937	 	32
290266	3116051	This upgrade may take up to 2 hours.	This upgrade may take up to 2 hours	148022347	1475956579288	1475956579374	BKSP	8
290266	3116051	This upgrade may take up to 2 hours.	This upgrade may take up to 2 hours	148022350	1475956579624	1475956579736	u	85
290266	3116051	This upgrade may take up to 2 hours.	This upgrade may take up to 2 hours	148022353	1475956579850	1475956580056	 	32
290266	3116051	This upgrade may take up to 2 hours.	This upgrade may take up to 2 hours	148022358	1475956580386	1475956580463	BKSP	8
290266	3116051	This upgrade may take up to 2 hours.	This upgrade may take up to 2 hours	148022363	1475956580664	1475956580773	BKSP	8
290266	3116051	This upgrade may take up to 2 hours.	This upgrade may take up to 2 hours	148022366	1475956580853	1475956580974	 	32
290266	3116051	This upgrade may take up to 2 hours.	This upgrade may take up to 2 hours	148022369	1475956581014	1475956581125	u	85
290266	3116051	This upgrade may take up to 2 hours.	This upgrade may take up to 2 hours	148022371	1475956581125	1475956581255	p	80
290266	3116051	This upgrade may take up to 2 hours.	This upgrade may take up to 2 hours	148022382	1475956581265	1475956581344	s	83
290266	3116051	This upgrade may take up to 2 hours.	This upgrade may take up to 2 hours	148022384	1475956581586	1475956581694	BKSP	8
290266	3116051	This upgrade may take up to 2 hours.	This upgrade may take up to 2 hours	148022385	1475956581704	1475956581773	g	71
290266	3116051	This upgrade may take up to 2 hours.	This upgrade may take up to 2 hours	148022387	1475956581862	1475956581946	r	82
290266	3116051	This upgrade may take up to 2 hours.	This upgrade may take up to 2 hours	148022389	1475956581976	1475956582072	a	65
290266	3116051	This upgrade may take up to 2 hours.	This upgrade may take up to 2 hours	148022390	1475956582082	1475956582221	d	68
290266	3116051	This upgrade may take up to 2 hours.	This upgrade may take up to 2 hours	148022405	1475956582183	1475956582253	e	69
290266	3116051	This upgrade may take up to 2 hours.	This upgrade may take up to 2 hours	148022407	1475956582253	1475956582354	 	32
290266	3116051	This upgrade may take up to 2 hours.	This upgrade may take up to 2 hours	148022409	1475956582380	1475956582451	m	77
290266	3116051	This upgrade may take up to 2 hours.	This upgrade may take up to 2 hours	148022410	1475956582471	1475956582580	a	65
290266	3116051	This upgrade may take up to 2 hours.	This upgrade may take up to 2 hours	148022411	1475956582580	1475956582617	y	89
290266	3116051	This upgrade may take up to 2 hours.	This upgrade may take up to 2 hours	148022412	1475956582687	1475956582813	 	32
290266	3116051	This upgrade may take up to 2 hours.	This upgrade may take up to 2 hours	148022413	1475956582823	1475956582889	t	84
290266	3116051	This upgrade may take up to 2 hours.	This upgrade may take up to 2 hours	148022415	1475956582929	1475956583042	a	65
290266	3116051	This upgrade may take up to 2 hours.	This upgrade may take up to 2 hours	148022417	1475956583003	1475956583092	k	75
290266	3116051	This upgrade may take up to 2 hours.	This upgrade may take up to 2 hours	148022421	1475956583102	1475956583180	e	69
290266	3116051	This upgrade may take up to 2 hours.	This upgrade may take up to 2 hours	148022448	1475956583138	1475956583254	 	32
290266	3116051	This upgrade may take up to 2 hours.	This upgrade may take up to 2 hours	148022449	1475956583204	1475956583318	u	85
290266	3116051	This upgrade may take up to 2 hours.	This upgrade may take up to 2 hours	148022451	1475956583328	1475956583424	p	80
290266	3116051	This upgrade may take up to 2 hours.	This upgrade may take up to 2 hours	148022453	1475956583434	1475956583534	 	32
290266	3116051	This upgrade may take up to 2 hours.	This upgrade may take up to 2 hours	148022455	1475956583544	1475956583576	t	84
290266	3116051	This upgrade may take up to 2 hours.	This upgrade may take up to 2 hours	148022458	1475956583650	1475956583760	o	79
290266	3116051	This upgrade may take up to 2 hours.	This upgrade may take up to 2 hours	148022496	1475956583846	1475956583956	 	32
290266	3116051	This upgrade may take up to 2 hours.	This upgrade may take up to 2 hours	148022498	1475956584362	1475956584464	2	50
290266	3116051	This upgrade may take up to 2 hours.	This upgrade may take up to 2 hours	148022500	1475956584524	1475956584650	 	32
290266	3116051	This upgrade may take up to 2 hours.	This upgrade may take up to 2 hours	148022502	1475956584660	1475956584753	h	72
290266	3116051	This upgrade may take up to 2 hours.	This upgrade may take up to 2 hours	148022504	1475956584783	1475956584895	o	79
290266	3116051	This upgrade may take up to 2 hours.	This upgrade may take up to 2 hours	148022503	1475956584846	1475956584938	u	85
290266	3116051	This upgrade may take up to 2 hours.	This upgrade may take up to 2 hours	148022505	1475956584958	1475956584978	r	82
290266	3116056	Hope you had a good weekend.	Hope you had a good weekend.	148022597	1475956586783	1475956586988	SHIFT	16
290266	3116056	Hope you had a good weekend.	Hope you had a good weekend.	148022600	1475956586933	1475956587008	H	72
290266	3116056	Hope you had a good weekend.	Hope you had a good weekend.	148022603	1475956587075	1475956587261	o	79
290266	3116056	Hope you had a good weekend.	Hope you had a good weekend.	148022609	1475956587182	1475956587311	p	80
290266	3116056	Hope you had a good weekend.	Hope you had a good weekend.	148022613	1475956587331	1475956587391	e	69
290266	3116056	Hope you had a good weekend.	Hope you had a good weekend.	148022618	1475956587401	1475956587494	 	32
290266	3116056	Hope you had a good weekend.	Hope you had a good weekend.	148022626	1475956587504	1475956587532	y	89
290266	3116056	Hope you had a good weekend.	Hope you had a good weekend.	148022630	1475956587570	1475956587693	o	79
290266	3116056	Hope you had a good weekend.	Hope you had a good weekend.	148022635	1475956587650	1475956587733	u	85
290266	3116056	Hope you had a good weekend.	Hope you had a good weekend.	148022642	1475956587743	1475956587842	 	32
290266	3116056	Hope you had a good weekend.	Hope you had a good weekend.	148022647	1475956587852	1475956587909	h	72
290266	3116056	Hope you had a good weekend.	Hope you had a good weekend.	148022671	1475956588088	1475956588235	a	65
290266	3116056	Hope you had a good weekend.	Hope you had a good weekend.	148022674	1475956588255	1475956588377	d	68
290266	3116056	Hope you had a good weekend.	Hope you had a good weekend.	148022675	1475956588387	1475956588444	 	32
290266	3116056	Hope you had a good weekend.	Hope you had a good weekend.	148022677	1475956588484	1475956588590	a	65
290266	3116056	Hope you had a good weekend.	Hope you had a good weekend.	148022678	1475956588600	1475956588666	 	32
290266	3116056	Hope you had a good weekend.	Hope you had a good weekend.	148022695	1475956588738	1475956588876	g	71
290266	3116056	Hope you had a good weekend.	Hope you had a good weekend.	148022697	1475956588876	1475956588949	o	79
290266	3116056	Hope you had a good weekend.	Hope you had a good weekend.	148022700	1475956588999	1475956589068	o	79
290266	3116056	Hope you had a good weekend.	Hope you had a good weekend.	148022703	1475956589098	1475956589205	d	68
290266	3116056	Hope you had a good weekend.	Hope you had a good weekend.	148022704	1475956589215	1475956589316	 	32
290266	3116056	Hope you had a good weekend.	Hope you had a good weekend.	148022736	1475956589510	1475956589604	w	87
290266	3116056	Hope you had a good weekend.	Hope you had a good weekend.	148022738	1475956589680	1475956589821	i	73
290266	3116056	Hope you had a good weekend.	Hope you had a good weekend.	148022741	1475956590031	1475956590118	BKSP	8
290266	3116056	Hope you had a good weekend.	Hope you had a good weekend.	148022746	1475956590278	1475956590354	e	69
290266	3116056	Hope you had a good weekend.	Hope you had a good weekend.	148022751	1475956590424	1475956590514	e	69
290266	3116056	Hope you had a good weekend.	Hope you had a good weekend.	148022753	1475956590524	1475956590583	k	75
290266	3116056	Hope you had a good weekend.	Hope you had a good weekend.	148022758	1475956590655	1475956590719	e	69
290266	3116056	Hope you had a good weekend.	Hope you had a good weekend.	148022760	1475956590759	1475956590836	n	78
290266	3116056	Hope you had a good weekend.	Hope you had a good weekend.	148022762	1475956590866	1475956590935	d	68
290266	3116056	Hope you had a good weekend.	Hope you had a good weekend.	148022764	1475956590945	1475956590985	.	190
290266	3116063	Good to know it exists.	Good to know it exsts.	148022820	1475956592819	1475956593201	SHIFT	16
290266	3116063	Good to know it exists.	Good to know it exsts.	148022823	1475956593105	1475956593223	G	71
290266	3116063	Good to know it exists.	Good to know it exsts.	148022825	1475956593232	1475956593301	o	79
290266	3116063	Good to know it exists.	Good to know it exsts.	148022828	1475956593331	1475956593414	o	79
290266	3116063	Good to know it exists.	Good to know it exsts.	148022831	1475956593414	1475956593494	d	68
290266	3116063	Good to know it exists.	Good to know it exsts.	148022833	1475956593523	1475956593607	 	32
290266	3116063	Good to know it exists.	Good to know it exsts.	148022839	1475956593617	1475956593686	t	84
290266	3116063	Good to know it exists.	Good to know it exsts.	148022842	1475956593697	1475956593759	o	79
290266	3116063	Good to know it exists.	Good to know it exsts.	148022847	1475956593769	1475956593862	 	32
290266	3116063	Good to know it exists.	Good to know it exsts.	148022853	1475956593872	1475956593935	k	75
290266	3116063	Good to know it exists.	Good to know it exsts.	148022858	1475956593955	1475956594001	n	78
290266	3116063	Good to know it exists.	Good to know it exsts.	148022881	1475956594034	1475956594108	o	79
290266	3116063	Good to know it exists.	Good to know it exsts.	148022883	1475956594118	1475956594221	w	87
290266	3116063	Good to know it exists.	Good to know it exsts.	148022884	1475956594221	1475956594337	 	32
290266	3116063	Good to know it exists.	Good to know it exsts.	148022886	1475956594363	1475956594434	i	73
290266	3116063	Good to know it exists.	Good to know it exsts.	148022888	1475956594444	1475956594507	t	84
290266	3116063	Good to know it exists.	Good to know it exsts.	148022906	1475956594563	1475956594643	 	32
290266	3116063	Good to know it exists.	Good to know it exsts.	148022908	1475956594863	1475956594942	e	69
290266	3116063	Good to know it exists.	Good to know it exsts.	148022912	1475956595035	1475956595151	x	88
290266	3116063	Good to know it exists.	Good to know it exsts.	148022915	1475956595161	1475956595231	i	73
290266	3116063	Good to know it exists.	Good to know it exsts.	148022917	1475956595371	1475956595434	t	84
290266	3116063	Good to know it exists.	Good to know it exsts.	148022918	1475956595456	1475956595560	s	83
290266	3116063	Good to know it exists.	Good to know it exsts.	148022919	1475956595500	1475956595570	.	190
