PARTICIPANT_ID	TEST_SECTION_ID	SENTENCE	USER_INPUT	KEYSTROKE_ID	PRESS_TIME	RELEASE_TIME	LETTER	KEYCODE
290522	3118603	He also ruled out extending the safe areas.	HE also ruled out extending the sage ares.	148145004	1475961739537	1475961739822	SHIFT	16
290522	3118603	He also ruled out extending the safe areas.	HE also ruled out extending the sage ares.	148145003	1475961739651	1475961739778	H	72
290522	3118603	He also ruled out extending the safe areas.	HE also ruled out extending the sage ares.	148145005	1475961739785	1475961739964	E	69
290522	3118603	He also ruled out extending the safe areas.	HE also ruled out extending the sage ares.	148145006	1475961739935	1475961740022	 	32
290522	3118603	He also ruled out extending the safe areas.	HE also ruled out extending the sage ares.	148145007	1475961740066	1475961740158	a	65
290522	3118603	He also ruled out extending the safe areas.	HE also ruled out extending the sage ares.	148145008	1475961740185	1475961740283	l	76
290522	3118603	He also ruled out extending the safe areas.	HE also ruled out extending the sage ares.	148145015	1475961740334	1475961740425	s	83
290522	3118603	He also ruled out extending the safe areas.	HE also ruled out extending the sage ares.	148145018	1475961740444	1475961740577	o	79
290522	3118603	He also ruled out extending the safe areas.	HE also ruled out extending the sage ares.	148145021	1475961740553	1475961740676	 	32
290522	3118603	He also ruled out extending the safe areas.	HE also ruled out extending the sage ares.	148145024	1475961740874	1475961740987	r	82
290522	3118603	He also ruled out extending the safe areas.	HE also ruled out extending the sage ares.	148145027	1475961740995	1475961741102	u	85
290522	3118603	He also ruled out extending the safe areas.	HE also ruled out extending the sage ares.	148145045	1475961741195	1475961741291	l	76
290522	3118603	He also ruled out extending the safe areas.	HE also ruled out extending the sage ares.	148145046	1475961741326	1475961741424	e	69
290522	3118603	He also ruled out extending the safe areas.	HE also ruled out extending the sage ares.	148145048	1475961741502	1475961741597	d	68
290522	3118603	He also ruled out extending the safe areas.	HE also ruled out extending the sage ares.	148145050	1475961741574	1475961741655	 	32
290522	3118603	He also ruled out extending the safe areas.	HE also ruled out extending the sage ares.	148145053	1475961741664	1475961741831	o	79
290522	3118603	He also ruled out extending the safe areas.	HE also ruled out extending the sage ares.	148145079	1475961741758	1475961741886	u	85
290522	3118603	He also ruled out extending the safe areas.	HE also ruled out extending the sage ares.	148145081	1475961741924	1475961742015	t	84
290522	3118603	He also ruled out extending the safe areas.	HE also ruled out extending the sage ares.	148145083	1475961742028	1475961742101	 	32
290522	3118603	He also ruled out extending the safe areas.	HE also ruled out extending the sage ares.	148145085	1475961742309	1475961742410	e	69
290522	3118603	He also ruled out extending the safe areas.	HE also ruled out extending the sage ares.	148145088	1475961742567	1475961742648	x	88
290522	3118603	He also ruled out extending the safe areas.	HE also ruled out extending the sage ares.	148145091	1475961742896	1475961742979	t	84
290522	3118603	He also ruled out extending the safe areas.	HE also ruled out extending the sage ares.	148145100	1475961743103	1475961743189	e	69
290522	3118603	He also ruled out extending the safe areas.	HE also ruled out extending the sage ares.	148145101	1475961743229	1475961743344	n	78
290522	3118603	He also ruled out extending the safe areas.	HE also ruled out extending the sage ares.	148145102	1475961743366	1475961743453	d	68
290522	3118603	He also ruled out extending the safe areas.	HE also ruled out extending the sage ares.	148145103	1475961743460	1475961743533	i	73
290522	3118603	He also ruled out extending the safe areas.	HE also ruled out extending the sage ares.	148145104	1475961743652	1475961743734	n	78
290522	3118603	He also ruled out extending the safe areas.	HE also ruled out extending the sage ares.	148145124	1475961743802	1475961743874	g	71
290522	3118603	He also ruled out extending the safe areas.	HE also ruled out extending the sage ares.	148145126	1475961743897	1475961743985	 	32
290522	3118603	He also ruled out extending the safe areas.	HE also ruled out extending the sage ares.	148145128	1475961744133	1475961744240	t	84
290522	3118603	He also ruled out extending the safe areas.	HE also ruled out extending the sage ares.	148145129	1475961744228	1475961744324	h	72
290522	3118603	He also ruled out extending the safe areas.	HE also ruled out extending the sage ares.	148145130	1475961744361	1475961744468	e	69
290522	3118603	He also ruled out extending the safe areas.	HE also ruled out extending the sage ares.	148145143	1475961744476	1475961744548	 	32
290522	3118603	He also ruled out extending the safe areas.	HE also ruled out extending the sage ares.	148145145	1475961744597	1475961744718	s	83
290522	3118603	He also ruled out extending the safe areas.	HE also ruled out extending the sage ares.	148145146	1475961744748	1475961744881	a	65
290522	3118603	He also ruled out extending the safe areas.	HE also ruled out extending the sage ares.	148145147	1475961744899	1475961745027	g	71
290522	3118603	He also ruled out extending the safe areas.	HE also ruled out extending the sage ares.	148145148	1475961745230	1475961745326	e	69
290522	3118603	He also ruled out extending the safe areas.	HE also ruled out extending the sage ares.	148145169	1475961745866	1475961745944	 	32
290522	3118603	He also ruled out extending the safe areas.	HE also ruled out extending the sage ares.	148145170	1475961746097	1475961746184	a	65
290522	3118603	He also ruled out extending the safe areas.	HE also ruled out extending the sage ares.	148145171	1475961746327	1475961746425	r	82
290522	3118603	He also ruled out extending the safe areas.	HE also ruled out extending the sage ares.	148145172	1475961746514	1475961746646	e	69
290522	3118603	He also ruled out extending the safe areas.	HE also ruled out extending the sage ares.	148145173	1475961746724	1475961746851	s	83
290522	3118607	How's the share price?	HOw;s the share price?	148145326	1475961752488	1475961752740	SHIFT	16
290522	3118607	How's the share price?	HOw;s the share price?	148145325	1475961752579	1475961752730	H	72
290522	3118607	How's the share price?	HOw;s the share price?	148145327	1475961752689	1475961752810	O	79
290522	3118607	How's the share price?	HOw;s the share price?	148145328	1475961752899	1475961752996	w	87
290522	3118607	How's the share price?	HOw;s the share price?	148145330	1475961753204	1475961753316	;	186
290522	3118607	How's the share price?	HOw;s the share price?	148145333	1475961753365	1475961753438	s	83
290522	3118607	How's the share price?	HOw;s the share price?	148145344	1475961753446	1475961753523	 	32
290522	3118607	How's the share price?	HOw;s the share price?	148145346	1475961753577	1475961753659	t	84
290522	3118607	How's the share price?	HOw;s the share price?	148145347	1475961753668	1475961753766	h	72
290522	3118607	How's the share price?	HOw;s the share price?	148145349	1475961753814	1475961753895	e	69
290522	3118607	How's the share price?	HOw;s the share price?	148145350	1475961753905	1475961753976	 	32
290522	3118607	How's the share price?	HOw;s the share price?	148145383	1475961754235	1475961754352	s	83
290522	3118607	How's the share price?	HOw;s the share price?	148145385	1475961754339	1475961754433	h	72
290522	3118607	How's the share price?	HOw;s the share price?	148145387	1475961754416	1475961754538	a	65
290522	3118607	How's the share price?	HOw;s the share price?	148145388	1475961755136	1475961755224	r	82
290522	3118607	How's the share price?	HOw;s the share price?	148145390	1475961755293	1475961755392	e	69
290522	3118607	How's the share price?	HOw;s the share price?	148145396	1475961755430	1475961755512	 	32
290522	3118607	How's the share price?	HOw;s the share price?	148145397	1475961755661	1475961755757	p	80
290522	3118607	How's the share price?	HOw;s the share price?	148145398	1475961755780	1475961755887	r	82
290522	3118607	How's the share price?	HOw;s the share price?	148145399	1475961755895	1475961756013	i	73
290522	3118607	How's the share price?	HOw;s the share price?	148145400	1475961756075	1475961756163	c	67
290522	3118607	How's the share price?	HOw;s the share price?	148145421	1475961756276	1475961756358	e	69
290522	3118607	How's the share price?	HOw;s the share price?	148145422	1475961756802	1475961756990	SHIFT	16
290522	3118611	Are you back in town?	Are you back in town>	148145491	1475961759758	1475961759965	SHIFT	16
290522	3118611	Are you back in town?	Are you back in town>	148145492	1475961759868	1475961760055	A	65
290522	3118611	Are you back in town?	Are you back in town>	148145493	1475961760259	1475961760399	r	82
290522	3118611	Are you back in town?	Are you back in town>	148145494	1475961760442	1475961760560	e	69
290522	3118611	Are you back in town?	Are you back in town>	148145495	1475961760598	1475961760699	 	32
290522	3118611	Are you back in town?	Are you back in town>	148145496	1475961760758	1475961760881	y	89
290522	3118611	Are you back in town?	Are you back in town>	148145502	1475961760813	1475961760981	o	79
290522	3118611	Are you back in town?	Are you back in town>	148145503	1475961760919	1475961761050	u	85
290522	3118611	Are you back in town?	Are you back in town>	148145504	1475961760989	1475961761081	 	32
290522	3118611	Are you back in town?	Are you back in town>	148145505	1475961761174	1475961761301	b	66
290522	3118611	Are you back in town?	Are you back in town>	148145507	1475961761324	1475961761415	a	65
290522	3118611	Are you back in town?	Are you back in town>	148145510	1475961761538	1475961761641	c	67
290522	3118611	Are you back in town?	Are you back in town>	148145537	1475961761654	1475961761797	k	75
290522	3118611	Are you back in town?	Are you back in town>	148145540	1475961761773	1475961761866	 	32
290522	3118611	Are you back in town?	Are you back in town>	148145543	1475961761905	1475961762107	i	73
290522	3118611	Are you back in town?	Are you back in town>	148145546	1475961762035	1475961762202	n	78
290522	3118611	Are you back in town?	Are you back in town>	148145574	1475961762130	1475961762292	 	32
290522	3118611	Are you back in town?	Are you back in town>	148145575	1475961762437	1475961762524	t	84
290522	3118611	Are you back in town?	Are you back in town>	148145576	1475961762597	1475961762704	o	79
290522	3118611	Are you back in town?	Are you back in town>	148145577	1475961762793	1475961762881	w	87
290522	3118611	Are you back in town?	Are you back in town>	148145578	1475961762918	1475961763066	n	78
290522	3118611	Are you back in town?	Are you back in town>	148145579	1475961763319	1475961763670	SHIFT	16
290522	3118613	The letters of credit were to cover three agreements.	The letters of credit were to cover three agreements.	148145701	1475961769158	1475961769385	SHIFT	16
290522	3118613	The letters of credit were to cover three agreements.	The letters of credit were to cover three agreements.	148145703	1475961769273	1475961769442	T	84
290522	3118613	The letters of credit were to cover three agreements.	The letters of credit were to cover three agreements.	148145706	1475961769431	1475961769557	h	72
290522	3118613	The letters of credit were to cover three agreements.	The letters of credit were to cover three agreements.	148145710	1475961769564	1475961769658	e	69
290522	3118613	The letters of credit were to cover three agreements.	The letters of credit were to cover three agreements.	148145713	1475961769665	1475961769742	 	32
290522	3118613	The letters of credit were to cover three agreements.	The letters of credit were to cover three agreements.	148145717	1475961769857	1475961769949	l	76
290522	3118613	The letters of credit were to cover three agreements.	The letters of credit were to cover three agreements.	148145732	1475961769967	1475961770044	e	69
290522	3118613	The letters of credit were to cover three agreements.	The letters of credit were to cover three agreements.	148145734	1475961770128	1475961770205	t	84
290522	3118613	The letters of credit were to cover three agreements.	The letters of credit were to cover three agreements.	148145736	1475961770289	1475961770361	t	84
290522	3118613	The letters of credit were to cover three agreements.	The letters of credit were to cover three agreements.	148145739	1475961770443	1475961770594	e	69
290522	3118613	The letters of credit were to cover three agreements.	The letters of credit were to cover three agreements.	148145744	1475961770537	1475961770680	r	82
290522	3118613	The letters of credit were to cover three agreements.	The letters of credit were to cover three agreements.	148145745	1475961770812	1475961770904	s	83
290522	3118613	The letters of credit were to cover three agreements.	The letters of credit were to cover three agreements.	148145747	1475961770912	1475961771015	 	32
290522	3118613	The letters of credit were to cover three agreements.	The letters of credit were to cover three agreements.	148145749	1475961771119	1475961771216	o	79
290522	3118613	The letters of credit were to cover three agreements.	The letters of credit were to cover three agreements.	148145751	1475961771229	1475961771316	f	70
290522	3118613	The letters of credit were to cover three agreements.	The letters of credit were to cover three agreements.	148145755	1475961771324	1475961771406	 	32
290522	3118613	The letters of credit were to cover three agreements.	The letters of credit were to cover three agreements.	148145785	1475961771473	1475961771580	c	67
290522	3118613	The letters of credit were to cover three agreements.	The letters of credit were to cover three agreements.	148145788	1475961771728	1475961771836	r	82
290522	3118613	The letters of credit were to cover three agreements.	The letters of credit were to cover three agreements.	148145789	1475961771868	1475961771981	e	69
290522	3118613	The letters of credit were to cover three agreements.	The letters of credit were to cover three agreements.	148145791	1475961772264	1475961772361	d	68
290522	3118613	The letters of credit were to cover three agreements.	The letters of credit were to cover three agreements.	148145792	1475961772374	1475961772489	i	73
290522	3118613	The letters of credit were to cover three agreements.	The letters of credit were to cover three agreements.	148145798	1475961772547	1475961772634	t	84
290522	3118613	The letters of credit were to cover three agreements.	The letters of credit were to cover three agreements.	148145799	1475961772654	1475961772745	 	32
290522	3118613	The letters of credit were to cover three agreements.	The letters of credit were to cover three agreements.	148145800	1475961772814	1475961772962	w	87
290522	3118613	The letters of credit were to cover three agreements.	The letters of credit were to cover three agreements.	148145801	1475961772925	1475961773056	e	69
290522	3118613	The letters of credit were to cover three agreements.	The letters of credit were to cover three agreements.	148145816	1475961772985	1475961773131	r	82
290522	3118613	The letters of credit were to cover three agreements.	The letters of credit were to cover three agreements.	148145818	1475961773226	1475961773312	e	69
290522	3118613	The letters of credit were to cover three agreements.	The letters of credit were to cover three agreements.	148145820	1475961773341	1475961773456	 	32
290522	3118613	The letters of credit were to cover three agreements.	The letters of credit were to cover three agreements.	148145821	1475961773462	1475961773564	t	84
290522	3118613	The letters of credit were to cover three agreements.	The letters of credit were to cover three agreements.	148145822	1475961773583	1475961773701	o	79
290522	3118613	The letters of credit were to cover three agreements.	The letters of credit were to cover three agreements.	148145839	1475961773664	1475961773766	 	32
290522	3118613	The letters of credit were to cover three agreements.	The letters of credit were to cover three agreements.	148145842	1475961773879	1475961773981	c	67
290522	3118613	The letters of credit were to cover three agreements.	The letters of credit were to cover three agreements.	148145845	1475961774040	1475961774137	o	79
290522	3118613	The letters of credit were to cover three agreements.	The letters of credit were to cover three agreements.	148145848	1475961774215	1475961774307	v	86
290522	3118613	The letters of credit were to cover three agreements.	The letters of credit were to cover three agreements.	148145850	1475961774479	1475961774621	e	69
290522	3118613	The letters of credit were to cover three agreements.	The letters of credit were to cover three agreements.	148145866	1475961774573	1475961774707	r	82
290522	3118613	The letters of credit were to cover three agreements.	The letters of credit were to cover three agreements.	148145868	1475961774720	1475961774815	 	32
290522	3118613	The letters of credit were to cover three agreements.	The letters of credit were to cover three agreements.	148145869	1475961774840	1475961774931	t	84
290522	3118613	The letters of credit were to cover three agreements.	The letters of credit were to cover three agreements.	148145870	1475961774939	1475961775042	h	72
290522	3118613	The letters of credit were to cover three agreements.	The letters of credit were to cover three agreements.	148145871	1475961775149	1475961775232	r	82
290522	3118613	The letters of credit were to cover three agreements.	The letters of credit were to cover three agreements.	148145872	1475961775385	1475961775448	e	69
290522	3118613	The letters of credit were to cover three agreements.	The letters of credit were to cover three agreements.	148145878	1475961775517	1475961775619	e	69
290522	3118613	The letters of credit were to cover three agreements.	The letters of credit were to cover three agreements.	148145879	1475961775669	1475961775760	 	32
290522	3118613	The letters of credit were to cover three agreements.	The letters of credit were to cover three agreements.	148145880	1475961775829	1475961775945	a	65
290522	3118613	The letters of credit were to cover three agreements.	The letters of credit were to cover three agreements.	148145881	1475961776214	1475961776306	g	71
290522	3118613	The letters of credit were to cover three agreements.	The letters of credit were to cover three agreements.	148145882	1475961776606	1475961776695	r	82
290522	3118613	The letters of credit were to cover three agreements.	The letters of credit were to cover three agreements.	148145901	1475961776847	1475961776909	e	69
290522	3118613	The letters of credit were to cover three agreements.	The letters of credit were to cover three agreements.	148145902	1475961776976	1475961777059	e	69
290522	3118613	The letters of credit were to cover three agreements.	The letters of credit were to cover three agreements.	148145903	1475961777112	1475961777224	m	77
290522	3118613	The letters of credit were to cover three agreements.	The letters of credit were to cover three agreements.	148145904	1475961777247	1475961777355	e	69
290522	3118613	The letters of credit were to cover three agreements.	The letters of credit were to cover three agreements.	148145905	1475961777363	1475961777452	n	78
290522	3118613	The letters of credit were to cover three agreements.	The letters of credit were to cover three agreements.	148145926	1475961777621	1475961777729	t	84
290522	3118613	The letters of credit were to cover three agreements.	The letters of credit were to cover three agreements.	148145928	1475961777866	1475961777973	s	83
290522	3118623	The blasts rocked prominent commercial landmarks.	The blasts rocked prominent commercial landmarks.	148146300	1475961778207	1475961793430	.	190
290522	3118623	The blasts rocked prominent commercial landmarks.	The blasts rocked prominent commercial landmarks.	148146083	1475961784568	1475961784825	SHIFT	16
290522	3118623	The blasts rocked prominent commercial landmarks.	The blasts rocked prominent commercial landmarks.	148146084	1475961784749	1475961784855	T	84
290522	3118623	The blasts rocked prominent commercial landmarks.	The blasts rocked prominent commercial landmarks.	148146085	1475961784863	1475961784981	h	72
290522	3118623	The blasts rocked prominent commercial landmarks.	The blasts rocked prominent commercial landmarks.	148146086	1475961785029	1475961785136	e	69
290522	3118623	The blasts rocked prominent commercial landmarks.	The blasts rocked prominent commercial landmarks.	148146087	1475961785119	1475961785176	 	32
290522	3118623	The blasts rocked prominent commercial landmarks.	The blasts rocked prominent commercial landmarks.	148146088	1475961785329	1475961785441	b	66
290522	3118623	The blasts rocked prominent commercial landmarks.	The blasts rocked prominent commercial landmarks.	148146115	1475961785517	1475961785629	l	76
290522	3118623	The blasts rocked prominent commercial landmarks.	The blasts rocked prominent commercial landmarks.	148146119	1475961785637	1475961785731	a	65
290522	3118623	The blasts rocked prominent commercial landmarks.	The blasts rocked prominent commercial landmarks.	148146123	1475961785869	1475961785956	s	83
290522	3118623	The blasts rocked prominent commercial landmarks.	The blasts rocked prominent commercial landmarks.	148146128	1475961786040	1475961786137	t	84
290522	3118623	The blasts rocked prominent commercial landmarks.	The blasts rocked prominent commercial landmarks.	148146133	1475961786225	1475961786333	s	83
290522	3118623	The blasts rocked prominent commercial landmarks.	The blasts rocked prominent commercial landmarks.	148146147	1475961786371	1475961786468	 	32
290522	3118623	The blasts rocked prominent commercial landmarks.	The blasts rocked prominent commercial landmarks.	148146152	1475961786614	1475961786691	r	82
290522	3118623	The blasts rocked prominent commercial landmarks.	The blasts rocked prominent commercial landmarks.	148146156	1475961786730	1475961786811	o	79
290522	3118623	The blasts rocked prominent commercial landmarks.	The blasts rocked prominent commercial landmarks.	148146161	1475961786885	1475961786973	c	67
290522	3118623	The blasts rocked prominent commercial landmarks.	The blasts rocked prominent commercial landmarks.	148146163	1475961786980	1475961787083	k	75
290522	3118623	The blasts rocked prominent commercial landmarks.	The blasts rocked prominent commercial landmarks.	148146170	1475961787136	1475961787238	e	69
290522	3118623	The blasts rocked prominent commercial landmarks.	The blasts rocked prominent commercial landmarks.	148146171	1475961787351	1475961787439	d	68
290522	3118623	The blasts rocked prominent commercial landmarks.	The blasts rocked prominent commercial landmarks.	148146172	1475961787447	1475961787507	 	32
290522	3118623	The blasts rocked prominent commercial landmarks.	The blasts rocked prominent commercial landmarks.	148146174	1475961787669	1475961787758	p	80
290522	3118623	The blasts rocked prominent commercial landmarks.	The blasts rocked prominent commercial landmarks.	148146175	1475961787795	1475961787898	r	82
290522	3118623	The blasts rocked prominent commercial landmarks.	The blasts rocked prominent commercial landmarks.	148146190	1475961787905	1475961788007	o	79
290522	3118623	The blasts rocked prominent commercial landmarks.	The blasts rocked prominent commercial landmarks.	148146192	1475961788110	1475961788262	m	77
290522	3118623	The blasts rocked prominent commercial landmarks.	The blasts rocked prominent commercial landmarks.	148146193	1475961788241	1475961788373	i	73
290522	3118623	The blasts rocked prominent commercial landmarks.	The blasts rocked prominent commercial landmarks.	148146195	1475961788436	1475961788555	n	78
290522	3118623	The blasts rocked prominent commercial landmarks.	The blasts rocked prominent commercial landmarks.	148146198	1475961788628	1475961788711	e	69
290522	3118623	The blasts rocked prominent commercial landmarks.	The blasts rocked prominent commercial landmarks.	148146211	1475961788830	1475961788937	n	78
290522	3118623	The blasts rocked prominent commercial landmarks.	The blasts rocked prominent commercial landmarks.	148146212	1475961788996	1475961789108	t	84
290522	3118623	The blasts rocked prominent commercial landmarks.	The blasts rocked prominent commercial landmarks.	148146213	1475961789086	1475961789193	 	32
290522	3118623	The blasts rocked prominent commercial landmarks.	The blasts rocked prominent commercial landmarks.	148146214	1475961789337	1475961789448	c	67
290522	3118623	The blasts rocked prominent commercial landmarks.	The blasts rocked prominent commercial landmarks.	148146217	1475961789482	1475961789592	o	79
290522	3118623	The blasts rocked prominent commercial landmarks.	The blasts rocked prominent commercial landmarks.	148146231	1475961789686	1475961789741	m	77
290522	3118623	The blasts rocked prominent commercial landmarks.	The blasts rocked prominent commercial landmarks.	148146232	1475961789825	1475961789918	m	77
290522	3118623	The blasts rocked prominent commercial landmarks.	The blasts rocked prominent commercial landmarks.	148146233	1475961790015	1475961790177	e	69
290522	3118623	The blasts rocked prominent commercial landmarks.	The blasts rocked prominent commercial landmarks.	148146234	1475961790125	1475961790247	r	82
290522	3118623	The blasts rocked prominent commercial landmarks.	The blasts rocked prominent commercial landmarks.	148146235	1475961790568	1475961790675	c	67
290522	3118623	The blasts rocked prominent commercial landmarks.	The blasts rocked prominent commercial landmarks.	148146251	1475961790824	1475961790925	i	73
290522	3118623	The blasts rocked prominent commercial landmarks.	The blasts rocked prominent commercial landmarks.	148146252	1475961790953	1475961791020	a	65
290522	3118623	The blasts rocked prominent commercial landmarks.	The blasts rocked prominent commercial landmarks.	148146253	1475961791074	1475961791282	l	76
290522	3118623	The blasts rocked prominent commercial landmarks.	The blasts rocked prominent commercial landmarks.	148146254	1475961791194	1475961791326	 	32
290522	3118623	The blasts rocked prominent commercial landmarks.	The blasts rocked prominent commercial landmarks.	148146255	1475961791455	1475961791574	l	76
290522	3118623	The blasts rocked prominent commercial landmarks.	The blasts rocked prominent commercial landmarks.	148146283	1475961791557	1475961791654	a	65
290522	3118623	The blasts rocked prominent commercial landmarks.	The blasts rocked prominent commercial landmarks.	148146285	1475961791702	1475961791791	n	78
290522	3118623	The blasts rocked prominent commercial landmarks.	The blasts rocked prominent commercial landmarks.	148146286	1475961792057	1475961792124	d	68
290522	3118623	The blasts rocked prominent commercial landmarks.	The blasts rocked prominent commercial landmarks.	148146287	1475961792452	1475961792591	m	77
290522	3118623	The blasts rocked prominent commercial landmarks.	The blasts rocked prominent commercial landmarks.	148146288	1475961792600	1475961792663	a	65
290522	3118623	The blasts rocked prominent commercial landmarks.	The blasts rocked prominent commercial landmarks.	148146289	1475961792712	1475961792858	r	82
290522	3118623	The blasts rocked prominent commercial landmarks.	The blasts rocked prominent commercial landmarks.	148146296	1475961792891	1475961793028	k	75
290522	3118623	The blasts rocked prominent commercial landmarks.	The blasts rocked prominent commercial landmarks.	148146298	1475961793057	1475961793149	s	83
290522	3118628	Bob,I'll take Denver to Win.	BObm Ill take Denver to Win,	148146409	1475961797371	1475961797630	SHIFT	16
290522	3118628	Bob,I'll take Denver to Win.	BObm Ill take Denver to Win,	148146411	1475961797486	1475961797650	B	66
290522	3118628	Bob,I'll take Denver to Win.	BObm Ill take Denver to Win,	148146413	1475961797603	1475961797710	O	79
290522	3118628	Bob,I'll take Denver to Win.	BObm Ill take Denver to Win,	148146416	1475961798025	1475961798111	b	66
290522	3118628	Bob,I'll take Denver to Win.	BObm Ill take Denver to Win,	148146419	1475961798384	1475961798589	m	77
290522	3118628	Bob,I'll take Denver to Win.	BObm Ill take Denver to Win,	148146462	1475961798529	1475961798678	 	32
290522	3118628	Bob,I'll take Denver to Win.	BObm Ill take Denver to Win,	148146468	1475961799102	1475961799429	SHIFT	16
290522	3118628	Bob,I'll take Denver to Win.	BObm Ill take Denver to Win,	148146466	1475961799293	1475961799393	I	73
290522	3118628	Bob,I'll take Denver to Win.	BObm Ill take Denver to Win,	148146471	1475961799560	1475961799616	l	76
290522	3118628	Bob,I'll take Denver to Win.	BObm Ill take Denver to Win,	148146474	1475961799701	1475961799846	l	76
290522	3118628	Bob,I'll take Denver to Win.	BObm Ill take Denver to Win,	148146478	1475961799802	1475961799930	 	32
290522	3118628	Bob,I'll take Denver to Win.	BObm Ill take Denver to Win,	148146483	1475961800060	1475961800182	t	84
290522	3118628	Bob,I'll take Denver to Win.	BObm Ill take Denver to Win,	148146490	1475961800195	1475961800317	a	65
290522	3118628	Bob,I'll take Denver to Win.	BObm Ill take Denver to Win,	148146492	1475961800360	1475961800453	k	75
290522	3118628	Bob,I'll take Denver to Win.	BObm Ill take Denver to Win,	148146493	1475961800506	1475961800605	e	69
290522	3118628	Bob,I'll take Denver to Win.	BObm Ill take Denver to Win,	148146495	1475961800563	1475961800640	 	32
290522	3118628	Bob,I'll take Denver to Win.	BObm Ill take Denver to Win,	148146496	1475961800733	1475961800809	d	68
290522	3118628	Bob,I'll take Denver to Win.	BObm Ill take Denver to Win,	148146536	1475961801080	1475961801182	BKSP	8
290522	3118628	Bob,I'll take Denver to Win.	BObm Ill take Denver to Win,	148146538	1475961801241	1475961801473	SHIFT	16
290522	3118628	Bob,I'll take Denver to Win.	BObm Ill take Denver to Win,	148146544	1475961801366	1475961801528	D	68
290522	3118628	Bob,I'll take Denver to Win.	BObm Ill take Denver to Win,	148146548	1475961801644	1475961801736	e	69
290522	3118628	Bob,I'll take Denver to Win.	BObm Ill take Denver to Win,	148146550	1475961801832	1475961801906	n	78
290522	3118628	Bob,I'll take Denver to Win.	BObm Ill take Denver to Win,	148146551	1475961801995	1475961802101	v	86
290522	3118628	Bob,I'll take Denver to Win.	BObm Ill take Denver to Win,	148146552	1475961802255	1475961802393	e	69
290522	3118628	Bob,I'll take Denver to Win.	BObm Ill take Denver to Win,	148146564	1475961802340	1475961802478	r	82
290522	3118628	Bob,I'll take Denver to Win.	BObm Ill take Denver to Win,	148146565	1475961802496	1475961802581	 	32
290522	3118628	Bob,I'll take Denver to Win.	BObm Ill take Denver to Win,	148146566	1475961802654	1475961802746	t	84
290522	3118628	Bob,I'll take Denver to Win.	BObm Ill take Denver to Win,	148146567	1475961802754	1475961802880	o	79
290522	3118628	Bob,I'll take Denver to Win.	BObm Ill take Denver to Win,	148146568	1475961802835	1475961802951	 	32
290522	3118628	Bob,I'll take Denver to Win.	BObm Ill take Denver to Win,	148146569	1475961803226	1475961803473	SHIFT	16
290522	3118628	Bob,I'll take Denver to Win.	BObm Ill take Denver to Win,	148146582	1475961803415	1475961803562	W	87
290522	3118628	Bob,I'll take Denver to Win.	BObm Ill take Denver to Win,	148146584	1475961803638	1475961803812	i	73
290522	3118628	Bob,I'll take Denver to Win.	BObm Ill take Denver to Win,	148146585	1475961803763	1475961803928	n	78
290522	3118635	The law enforcement has responsibility for the safety of the public.	The law enforcement has responsibility for the sagety of the public,	148146676	1475961809454	1475961809692	SHIFT	16
290522	3118635	The law enforcement has responsibility for the safety of the public.	The law enforcement has responsibility for the sagety of the public,	148146677	1475961809611	1475961809747	T	84
290522	3118635	The law enforcement has responsibility for the safety of the public.	The law enforcement has responsibility for the sagety of the public,	148146678	1475961809710	1475961809829	h	72
290522	3118635	The law enforcement has responsibility for the safety of the public.	The law enforcement has responsibility for the sagety of the public,	148146679	1475961809879	1475961809990	e	69
290522	3118635	The law enforcement has responsibility for the safety of the public.	The law enforcement has responsibility for the sagety of the public,	148146680	1475961809954	1475961810040	 	32
290522	3118635	The law enforcement has responsibility for the safety of the public.	The law enforcement has responsibility for the sagety of the public,	148146681	1475961810144	1475961810246	l	76
290522	3118635	The law enforcement has responsibility for the safety of the public.	The law enforcement has responsibility for the sagety of the public,	148146697	1475961810255	1475961810356	a	65
290522	3118635	The law enforcement has responsibility for the safety of the public.	The law enforcement has responsibility for the sagety of the public,	148146700	1475961810585	1475961810684	w	87
290522	3118635	The law enforcement has responsibility for the safety of the public.	The law enforcement has responsibility for the sagety of the public,	148146705	1475961810787	1475961810851	 	32
290522	3118635	The law enforcement has responsibility for the safety of the public.	The law enforcement has responsibility for the sagety of the public,	148146708	1475961811094	1475961811180	e	69
290522	3118635	The law enforcement has responsibility for the safety of the public.	The law enforcement has responsibility for the sagety of the public,	148146710	1475961811243	1475961811361	n	78
290522	3118635	The law enforcement has responsibility for the safety of the public.	The law enforcement has responsibility for the sagety of the public,	148146730	1475961811495	1475961811582	f	70
290522	3118635	The law enforcement has responsibility for the safety of the public.	The law enforcement has responsibility for the sagety of the public,	148146732	1475961811611	1475961811713	o	79
290522	3118635	The law enforcement has responsibility for the safety of the public.	The law enforcement has responsibility for the sagety of the public,	148146735	1475961811721	1475961811809	r	82
290522	3118635	The law enforcement has responsibility for the safety of the public.	The law enforcement has responsibility for the sagety of the public,	148146738	1475961811994	1475961812100	c	67
290522	3118635	The law enforcement has responsibility for the safety of the public.	The law enforcement has responsibility for the sagety of the public,	148146739	1475961812230	1475961812311	e	69
290522	3118635	The law enforcement has responsibility for the safety of the public.	The law enforcement has responsibility for the sagety of the public,	148146748	1475961812395	1475961812467	m	77
290522	3118635	The law enforcement has responsibility for the safety of the public.	The law enforcement has responsibility for the sagety of the public,	148146749	1475961812561	1475961812680	e	69
290522	3118635	The law enforcement has responsibility for the safety of the public.	The law enforcement has responsibility for the sagety of the public,	148146750	1475961812688	1475961812805	n	78
290522	3118635	The law enforcement has responsibility for the safety of the public.	The law enforcement has responsibility for the sagety of the public,	148146751	1475961812839	1475961812951	t	84
290522	3118635	The law enforcement has responsibility for the safety of the public.	The law enforcement has responsibility for the sagety of the public,	148146752	1475961812963	1475961813065	 	32
290522	3118635	The law enforcement has responsibility for the safety of the public.	The law enforcement has responsibility for the sagety of the public,	148146797	1475961813189	1475961813286	h	72
290522	3118635	The law enforcement has responsibility for the safety of the public.	The law enforcement has responsibility for the sagety of the public,	148146799	1475961813299	1475961813471	a	65
290522	3118635	The law enforcement has responsibility for the safety of the public.	The law enforcement has responsibility for the sagety of the public,	148146800	1475961813480	1475961813592	s	83
290522	3118635	The law enforcement has responsibility for the safety of the public.	The law enforcement has responsibility for the sagety of the public,	148146801	1475961814279	1475961814355	 	32
290522	3118635	The law enforcement has responsibility for the safety of the public.	The law enforcement has responsibility for the sagety of the public,	148146802	1475961814434	1475961814576	r	82
290522	3118635	The law enforcement has responsibility for the safety of the public.	The law enforcement has responsibility for the sagety of the public,	148146817	1475961814564	1475961814692	e	69
290522	3118635	The law enforcement has responsibility for the safety of the public.	The law enforcement has responsibility for the sagety of the public,	148146819	1475961814811	1475961814907	s	83
290522	3118635	The law enforcement has responsibility for the safety of the public.	The law enforcement has responsibility for the sagety of the public,	148146822	1475961814924	1475961815027	p	80
290522	3118635	The law enforcement has responsibility for the safety of the public.	The law enforcement has responsibility for the sagety of the public,	148146826	1475961815110	1475961815216	o	79
290522	3118635	The law enforcement has responsibility for the safety of the public.	The law enforcement has responsibility for the sagety of the public,	148146829	1475961815290	1475961815422	n	78
290522	3118635	The law enforcement has responsibility for the safety of the public.	The law enforcement has responsibility for the sagety of the public,	148146832	1475961815560	1475961815651	s	83
290522	3118635	The law enforcement has responsibility for the safety of the public.	The law enforcement has responsibility for the sagety of the public,	148146858	1475961815683	1475961815780	i	73
290522	3118635	The law enforcement has responsibility for the safety of the public.	The law enforcement has responsibility for the sagety of the public,	148146859	1475961815975	1475961816067	b	66
290522	3118635	The law enforcement has responsibility for the safety of the public.	The law enforcement has responsibility for the sagety of the public,	148146860	1475961816121	1475961816288	i	73
290522	3118635	The law enforcement has responsibility for the safety of the public.	The law enforcement has responsibility for the sagety of the public,	148146861	1475961816260	1475961816463	l	76
290522	3118635	The law enforcement has responsibility for the safety of the public.	The law enforcement has responsibility for the sagety of the public,	148146872	1475961816426	1475961816578	i	73
290522	3118635	The law enforcement has responsibility for the safety of the public.	The law enforcement has responsibility for the sagety of the public,	148146874	1475961816698	1475961816790	t	84
290522	3118635	The law enforcement has responsibility for the safety of the public.	The law enforcement has responsibility for the sagety of the public,	148146878	1475961816899	1475961816981	y	89
290522	3118635	The law enforcement has responsibility for the safety of the public.	The law enforcement has responsibility for the sagety of the public,	148146881	1475961817024	1475961817096	 	32
290522	3118635	The law enforcement has responsibility for the safety of the public.	The law enforcement has responsibility for the sagety of the public,	148146883	1475961817290	1475961817376	f	70
290522	3118635	The law enforcement has responsibility for the safety of the public.	The law enforcement has responsibility for the sagety of the public,	148146886	1475961817410	1475961817492	o	79
290522	3118635	The law enforcement has responsibility for the safety of the public.	The law enforcement has responsibility for the sagety of the public,	148146896	1475961817526	1475961817639	r	82
290522	3118635	The law enforcement has responsibility for the safety of the public.	The law enforcement has responsibility for the sagety of the public,	148146897	1475961817649	1475961817714	 	32
290522	3118635	The law enforcement has responsibility for the safety of the public.	The law enforcement has responsibility for the sagety of the public,	148146898	1475961817773	1475961817861	t	84
290522	3118635	The law enforcement has responsibility for the safety of the public.	The law enforcement has responsibility for the sagety of the public,	148146899	1475961817848	1475961817955	h	72
290522	3118635	The law enforcement has responsibility for the safety of the public.	The law enforcement has responsibility for the sagety of the public,	148146900	1475961817984	1475961818081	e	69
290522	3118635	The law enforcement has responsibility for the safety of the public.	The law enforcement has responsibility for the sagety of the public,	148146916	1475961818103	1475961818176	 	32
290522	3118635	The law enforcement has responsibility for the safety of the public.	The law enforcement has responsibility for the sagety of the public,	148146917	1475961818344	1475961818467	s	83
290522	3118635	The law enforcement has responsibility for the safety of the public.	The law enforcement has responsibility for the sagety of the public,	148146919	1475961818551	1475961818670	a	65
290522	3118635	The law enforcement has responsibility for the safety of the public.	The law enforcement has responsibility for the sagety of the public,	148146921	1475961818743	1475961818829	g	71
290522	3118635	The law enforcement has responsibility for the safety of the public.	The law enforcement has responsibility for the sagety of the public,	148146926	1475961819052	1475961819134	e	69
290522	3118635	The law enforcement has responsibility for the safety of the public.	The law enforcement has responsibility for the sagety of the public,	148146938	1475961819258	1475961819346	t	84
290522	3118635	The law enforcement has responsibility for the safety of the public.	The law enforcement has responsibility for the sagety of the public,	148146941	1475961819499	1475961819589	y	89
290522	3118635	The law enforcement has responsibility for the safety of the public.	The law enforcement has responsibility for the sagety of the public,	148146944	1475961819658	1475961819724	 	32
290522	3118635	The law enforcement has responsibility for the safety of the public.	The law enforcement has responsibility for the sagety of the public,	148146945	1475961819879	1475961819959	o	79
290522	3118635	The law enforcement has responsibility for the safety of the public.	The law enforcement has responsibility for the sagety of the public,	148146946	1475961819983	1475961820070	f	70
290522	3118635	The law enforcement has responsibility for the safety of the public.	The law enforcement has responsibility for the sagety of the public,	148146961	1475961820077	1475961820169	 	32
290522	3118635	The law enforcement has responsibility for the safety of the public.	The law enforcement has responsibility for the sagety of the public,	148146963	1475961820218	1475961820315	t	84
290522	3118635	The law enforcement has responsibility for the safety of the public.	The law enforcement has responsibility for the sagety of the public,	148146965	1475961820303	1475961820375	h	72
290522	3118635	The law enforcement has responsibility for the safety of the public.	The law enforcement has responsibility for the sagety of the public,	148146967	1475961820429	1475961820517	e	69
290522	3118635	The law enforcement has responsibility for the safety of the public.	The law enforcement has responsibility for the sagety of the public,	148146969	1475961820525	1475961820607	 	32
290522	3118635	The law enforcement has responsibility for the safety of the public.	The law enforcement has responsibility for the sagety of the public,	148146997	1475961820819	1475961820937	p	80
290522	3118635	The law enforcement has responsibility for the safety of the public.	The law enforcement has responsibility for the sagety of the public,	148146998	1475961820945	1475961821082	u	85
290522	3118635	The law enforcement has responsibility for the safety of the public.	The law enforcement has responsibility for the sagety of the public,	148146999	1475961821244	1475961821326	b	66
290522	3118635	The law enforcement has responsibility for the safety of the public.	The law enforcement has responsibility for the sagety of the public,	148147001	1475961821470	1475961821637	l	76
290522	3118635	The law enforcement has responsibility for the safety of the public.	The law enforcement has responsibility for the sagety of the public,	148147016	1475961821575	1475961821724	i	73
290522	3118635	The law enforcement has responsibility for the safety of the public.	The law enforcement has responsibility for the sagety of the public,	148147019	1475961822042	1475961822124	c	67
290522	3118644	Here's the new one.	Here;s the new one.	148147113	1475961825518	1475961825742	SHIFT	16
290522	3118644	Here's the new one.	Here;s the new one.	148147115	1475961825664	1475961825772	H	72
290522	3118644	Here's the new one.	Here;s the new one.	148147117	1475961825780	1475961825938	e	69
290522	3118644	Here's the new one.	Here;s the new one.	148147119	1475961825880	1475961826057	r	82
290522	3118644	Here's the new one.	Here;s the new one.	148147121	1475961826194	1475961826297	e	69
290522	3118644	Here's the new one.	Here;s the new one.	148147127	1475961826360	1475961826462	;	186
290522	3118644	Here's the new one.	Here;s the new one.	148147148	1475961826495	1475961826592	s	83
290522	3118644	Here's the new one.	Here;s the new one.	148147151	1475961826600	1475961826699	 	32
290522	3118644	Here's the new one.	Here;s the new one.	148147155	1475961826783	1475961826892	t	84
290522	3118644	Here's the new one.	Here;s the new one.	148147159	1475961826868	1475961826985	h	72
290522	3118644	Here's the new one.	Here;s the new one.	148147163	1475961827018	1475961827095	e	69
290522	3118644	Here's the new one.	Here;s the new one.	148147172	1475961827120	1475961827187	 	32
290522	3118644	Here's the new one.	Here;s the new one.	148147173	1475961827284	1475961827391	n	78
290522	3118644	Here's the new one.	Here;s the new one.	148147174	1475961827405	1475961827547	e	69
290522	3118644	Here's the new one.	Here;s the new one.	148147175	1475961827534	1475961827647	w	87
290522	3118644	Here's the new one.	Here;s the new one.	148147177	1475961827671	1475961827739	 	32
290522	3118644	Here's the new one.	Here;s the new one.	148147219	1475961827868	1475961828035	o	79
290522	3118644	Here's the new one.	Here;s the new one.	148147220	1475961827988	1475961828130	n	78
290522	3118644	Here's the new one.	Here;s the new one.	148147222	1475961828299	1475961828381	e	69
290522	3118647	Jan, sorry for the inconvenience.	Jan, sorry for the inconbenience.	148147321	1475961832230	1475961832401	SHIFT	16
290522	3118647	Jan, sorry for the inconvenience.	Jan, sorry for the inconbenience.	148147323	1475961832355	1475961832441	J	74
290522	3118647	Jan, sorry for the inconvenience.	Jan, sorry for the inconbenience.	148147325	1475961832510	1475961832602	a	65
290522	3118647	Jan, sorry for the inconvenience.	Jan, sorry for the inconbenience.	148147327	1475961832560	1475961832642	n	78
290522	3118647	Jan, sorry for the inconvenience.	Jan, sorry for the inconbenience.	148147329	1475961832988	1475961833125	 	32
290522	3118647	Jan, sorry for the inconvenience.	Jan, sorry for the inconbenience.	148147330	1475961833519	1475961833610	s	83
290522	3118647	Jan, sorry for the inconvenience.	Jan, sorry for the inconbenience.	148147336	1475961833618	1475961833701	o	79
290522	3118647	Jan, sorry for the inconvenience.	Jan, sorry for the inconbenience.	148147338	1475961833756	1475961833818	r	82
290522	3118647	Jan, sorry for the inconvenience.	Jan, sorry for the inconbenience.	148147341	1475961833896	1475961833989	r	82
290522	3118647	Jan, sorry for the inconvenience.	Jan, sorry for the inconbenience.	148147344	1475961834097	1475961834184	y	89
290522	3118647	Jan, sorry for the inconvenience.	Jan, sorry for the inconbenience.	148147345	1475961834213	1475961834324	 	32
290522	3118647	Jan, sorry for the inconvenience.	Jan, sorry for the inconbenience.	148147356	1475961834427	1475961834519	f	70
290522	3118647	Jan, sorry for the inconvenience.	Jan, sorry for the inconbenience.	148147358	1475961834538	1475961834640	o	79
290522	3118647	Jan, sorry for the inconvenience.	Jan, sorry for the inconbenience.	148147360	1475961834648	1475961834722	r	82
290522	3118647	Jan, sorry for the inconvenience.	Jan, sorry for the inconbenience.	148147362	1475961834740	1475961834798	 	32
290522	3118647	Jan, sorry for the inconvenience.	Jan, sorry for the inconbenience.	148147366	1475961834841	1475961834930	t	84
290522	3118647	Jan, sorry for the inconvenience.	Jan, sorry for the inconbenience.	148147391	1475961834937	1475961835033	h	72
290522	3118647	Jan, sorry for the inconvenience.	Jan, sorry for the inconbenience.	148147392	1475961835062	1475961835169	e	69
290522	3118647	Jan, sorry for the inconvenience.	Jan, sorry for the inconbenience.	148147395	1475961835187	1475961835239	 	32
290522	3118647	Jan, sorry for the inconvenience.	Jan, sorry for the inconbenience.	148147397	1475961835308	1475961835480	i	73
290522	3118647	Jan, sorry for the inconvenience.	Jan, sorry for the inconbenience.	148147419	1475961835433	1475961835555	n	78
290522	3118647	Jan, sorry for the inconvenience.	Jan, sorry for the inconbenience.	148147421	1475961835664	1475961835732	c	67
290522	3118647	Jan, sorry for the inconvenience.	Jan, sorry for the inconbenience.	148147423	1475961835746	1475961835970	o	79
290522	3118647	Jan, sorry for the inconvenience.	Jan, sorry for the inconbenience.	148147429	1475961835942	1475961836038	n	78
290522	3118647	Jan, sorry for the inconvenience.	Jan, sorry for the inconbenience.	148147433	1475961836686	1475961836755	b	66
290522	3118647	Jan, sorry for the inconvenience.	Jan, sorry for the inconbenience.	148147435	1475961837109	1475961837180	e	69
290522	3118647	Jan, sorry for the inconvenience.	Jan, sorry for the inconbenience.	148147464	1475961837203	1475961837305	n	78
290522	3118647	Jan, sorry for the inconvenience.	Jan, sorry for the inconbenience.	148147466	1475961837379	1475961837525	i	73
290522	3118647	Jan, sorry for the inconvenience.	Jan, sorry for the inconbenience.	148147468	1475961837539	1475961837590	n	78
290522	3118647	Jan, sorry for the inconvenience.	Jan, sorry for the inconbenience.	148147470	1475961838056	1475961838158	BKSP	8
290522	3118647	Jan, sorry for the inconvenience.	Jan, sorry for the inconbenience.	148147472	1475961838216	1475961838304	e	69
290522	3118647	Jan, sorry for the inconvenience.	Jan, sorry for the inconbenience.	148147474	1475961838357	1475961838523	n	78
290522	3118647	Jan, sorry for the inconvenience.	Jan, sorry for the inconbenience.	148147496	1475961839129	1475961839211	c	67
290522	3118647	Jan, sorry for the inconvenience.	Jan, sorry for the inconbenience.	148147497	1475961839354	1475961839441	e	69
290522	3118654	Shouldn't be too hard though.	Shoult's be too hard though.	148147606	1475961844493	1475961844752	SHIFT	16
290522	3118654	Shouldn't be too hard though.	Shoult's be too hard though.	148147607	1475961844653	1475961844822	S	83
290522	3118654	Shouldn't be too hard though.	Shoult's be too hard though.	148147608	1475961844810	1475961844927	h	72
290522	3118654	Shouldn't be too hard though.	Shoult's be too hard though.	148147609	1475961844915	1475961845102	o	79
290522	3118654	Shouldn't be too hard though.	Shoult's be too hard though.	148147610	1475961845040	1475961845147	u	85
290522	3118654	Shouldn't be too hard though.	Shoult's be too hard though.	148147611	1475961845236	1475961845353	l	76
290522	3118654	Shouldn't be too hard though.	Shoult's be too hard though.	148147652	1475961845421	1475961845473	y	84
290522	3118654	Shouldn't be too hard though.	Shoult's be too hard though.	148147653	1475961846110	1475961846227	BKSP	8
290522	3118654	Shouldn't be too hard though.	Shoult's be too hard though.	148147654	1475961846656	1475961846730	'	222
290522	3118654	Shouldn't be too hard though.	Shoult's be too hard though.	148147655	1475961846779	1475961846866	s	83
290522	3118654	Shouldn't be too hard though.	Shoult's be too hard though.	148147671	1475961846849	1475961846935	 	32
290522	3118654	Shouldn't be too hard though.	Shoult's be too hard though.	148147673	1475961847079	1475961847162	b	66
290522	3118654	Shouldn't be too hard though.	Shoult's be too hard though.	148147678	1475961847305	1475961847387	e	69
290522	3118654	Shouldn't be too hard though.	Shoult's be too hard though.	148147681	1475961847406	1475961847483	 	32
290522	3118654	Shouldn't be too hard though.	Shoult's be too hard though.	148147683	1475961847577	1475961847669	t	84
290522	3118654	Shouldn't be too hard though.	Shoult's be too hard though.	148147684	1475961847706	1475961847776	o	79
290522	3118654	Shouldn't be too hard though.	Shoult's be too hard though.	148147691	1475961847850	1475961847963	o	79
290522	3118654	Shouldn't be too hard though.	Shoult's be too hard though.	148147693	1475961847905	1475961848044	 	32
290522	3118654	Shouldn't be too hard though.	Shoult's be too hard though.	148147695	1475961848102	1475961848175	a	72
290522	3118654	Shouldn't be too hard though.	Shoult's be too hard though.	148147697	1475961848273	1475961848401	r	82
290522	3118654	Shouldn't be too hard though.	Shoult's be too hard though.	148147705	1475961848644	1475961848731	d	68
290522	3118654	Shouldn't be too hard though.	Shoult's be too hard though.	148147706	1475961848741	1475961848830	 	32
290522	3118654	Shouldn't be too hard though.	Shoult's be too hard though.	148147707	1475961848912	1475961849001	t	84
290522	3118654	Shouldn't be too hard though.	Shoult's be too hard though.	148147709	1475961848978	1475961849094	h	72
290522	3118654	Shouldn't be too hard though.	Shoult's be too hard though.	148147711	1475961849102	1475961849280	o	79
290522	3118654	Shouldn't be too hard though.	Shoult's be too hard though.	148147732	1475961849218	1475961849340	u	85
290522	3118654	Shouldn't be too hard though.	Shoult's be too hard though.	148147733	1475961849358	1475961849459	g	71
290522	3118654	Shouldn't be too hard though.	Shoult's be too hard though.	148147734	1475961849447	1475961849519	h	72
290522	3118660	Ladies, here's the revised September purchase.	Ladiesm Here;s the revised September purchase.	148147800	1475961851919	1475961852105	SHIFT	16
290522	3118660	Ladies, here's the revised September purchase.	Ladiesm Here;s the revised September purchase.	148147803	1475961852094	1475961852186	L	76
290522	3118660	Ladies, here's the revised September purchase.	Ladiesm Here;s the revised September purchase.	148147807	1475961852215	1475961852331	a	65
290522	3118660	Ladies, here's the revised September purchase.	Ladiesm Here;s the revised September purchase.	148147809	1475961852516	1475961852607	d	68
290522	3118660	Ladies, here's the revised September purchase.	Ladiesm Here;s the revised September purchase.	148147811	1475961852873	1475961852974	i	73
290522	3118660	Ladies, here's the revised September purchase.	Ladiesm Here;s the revised September purchase.	148147815	1475961852988	1475961853120	e	69
290522	3118660	Ladies, here's the revised September purchase.	Ladiesm Here;s the revised September purchase.	148147828	1475961853248	1475961853325	s	83
290522	3118660	Ladies, here's the revised September purchase.	Ladiesm Here;s the revised September purchase.	148147829	1475961853398	1475961853596	m	77
290522	3118660	Ladies, here's the revised September purchase.	Ladiesm Here;s the revised September purchase.	148147830	1475961853548	1475961853710	 	32
290522	3118660	Ladies, here's the revised September purchase.	Ladiesm Here;s the revised September purchase.	148147832	1475961853744	1475961853996	SHIFT	16
290522	3118660	Ladies, here's the revised September purchase.	Ladiesm Here;s the revised September purchase.	148147834	1475961853897	1475961854005	H	72
290522	3118660	Ladies, here's the revised September purchase.	Ladiesm Here;s the revised September purchase.	148147836	1475961854129	1475961854276	e	69
290522	3118660	Ladies, here's the revised September purchase.	Ladiesm Here;s the revised September purchase.	148147860	1475961854224	1475961854386	r	82
290522	3118660	Ladies, here's the revised September purchase.	Ladiesm Here;s the revised September purchase.	148147863	1475961854579	1475961854672	e	69
290522	3118660	Ladies, here's the revised September purchase.	Ladiesm Here;s the revised September purchase.	148147866	1475961854952	1475961855066	;	186
290522	3118660	Ladies, here's the revised September purchase.	Ladiesm Here;s the revised September purchase.	148147869	1475961855118	1475961855196	s	83
290522	3118660	Ladies, here's the revised September purchase.	Ladiesm Here;s the revised September purchase.	148147871	1475961855214	1475961855286	 	32
290522	3118660	Ladies, here's the revised September purchase.	Ladiesm Here;s the revised September purchase.	148147873	1475961855355	1475961855463	t	84
290522	3118660	Ladies, here's the revised September purchase.	Ladiesm Here;s the revised September purchase.	148147897	1475961855451	1475961855553	h	72
290522	3118660	Ladies, here's the revised September purchase.	Ladiesm Here;s the revised September purchase.	148147898	1475961855602	1475961855688	e	69
290522	3118660	Ladies, here's the revised September purchase.	Ladiesm Here;s the revised September purchase.	148147900	1475961855707	1475961855775	 	32
290522	3118660	Ladies, here's the revised September purchase.	Ladiesm Here;s the revised September purchase.	148147903	1475961856325	1475961856442	r	82
290522	3118660	Ladies, here's the revised September purchase.	Ladiesm Here;s the revised September purchase.	148147906	1475961856455	1475961856577	e	69
290522	3118660	Ladies, here's the revised September purchase.	Ladiesm Here;s the revised September purchase.	148147909	1475961856721	1475961856826	v	86
290522	3118660	Ladies, here's the revised September purchase.	Ladiesm Here;s the revised September purchase.	148147923	1475961856849	1475961856946	i	73
290522	3118660	Ladies, here's the revised September purchase.	Ladiesm Here;s the revised September purchase.	148147925	1475961857206	1475961857308	s	83
290522	3118660	Ladies, here's the revised September purchase.	Ladiesm Here;s the revised September purchase.	148147927	1475961857445	1475961857553	e	69
290522	3118660	Ladies, here's the revised September purchase.	Ladiesm Here;s the revised September purchase.	148147929	1475961857721	1475961857825	d	68
290522	3118660	Ladies, here's the revised September purchase.	Ladiesm Here;s the revised September purchase.	148147931	1475961857884	1475961857966	 	32
290522	3118660	Ladies, here's the revised September purchase.	Ladiesm Here;s the revised September purchase.	148147967	1475961858030	1475961858293	SHIFT	16
290522	3118660	Ladies, here's the revised September purchase.	Ladiesm Here;s the revised September purchase.	148147969	1475961858206	1475961858327	S	83
290522	3118660	Ladies, here's the revised September purchase.	Ladiesm Here;s the revised September purchase.	148147971	1475961858530	1475961858658	e	69
290522	3118660	Ladies, here's the revised September purchase.	Ladiesm Here;s the revised September purchase.	148147974	1475961858706	1475961858804	p	80
290522	3118660	Ladies, here's the revised September purchase.	Ladiesm Here;s the revised September purchase.	148147976	1475961858948	1475961859052	t	84
290522	3118660	Ladies, here's the revised September purchase.	Ladiesm Here;s the revised September purchase.	148147979	1475961859457	1475961859554	e	69
290522	3118660	Ladies, here's the revised September purchase.	Ladiesm Here;s the revised September purchase.	148147991	1475961859608	1475961859705	m	77
290522	3118660	Ladies, here's the revised September purchase.	Ladiesm Here;s the revised September purchase.	148147993	1475961859859	1475961859983	b	66
290522	3118660	Ladies, here's the revised September purchase.	Ladiesm Here;s the revised September purchase.	148147995	1475961860117	1475961860269	e	69
290522	3118660	Ladies, here's the revised September purchase.	Ladiesm Here;s the revised September purchase.	148147997	1475961860227	1475961860354	r	82
290522	3118660	Ladies, here's the revised September purchase.	Ladiesm Here;s the revised September purchase.	148147998	1475961860363	1475961860444	 	32
290522	3118660	Ladies, here's the revised September purchase.	Ladiesm Here;s the revised September purchase.	148148033	1475961860637	1475961860769	p	80
290522	3118660	Ladies, here's the revised September purchase.	Ladiesm Here;s the revised September purchase.	148148034	1475961860777	1475961860901	u	85
290522	3118660	Ladies, here's the revised September purchase.	Ladiesm Here;s the revised September purchase.	148148035	1475961861165	1475961861246	r	82
290522	3118660	Ladies, here's the revised September purchase.	Ladiesm Here;s the revised September purchase.	148148036	1475961861495	1475961861632	c	67
290522	3118660	Ladies, here's the revised September purchase.	Ladiesm Here;s the revised September purchase.	148148059	1475961861620	1475961861702	h	72
290522	3118660	Ladies, here's the revised September purchase.	Ladiesm Here;s the revised September purchase.	148148062	1475961861726	1475961861821	a	65
290522	3118660	Ladies, here's the revised September purchase.	Ladiesm Here;s the revised September purchase.	148148067	1475961861993	1475961862078	s	83
290522	3118660	Ladies, here's the revised September purchase.	Ladiesm Here;s the revised September purchase.	148148070	1475961862218	1475961862291	e	69
290522	3118668	We shall try to find a common agenda.	We shall try to find a common agenda	148148158	1475961866098	1475961866333	SHIFT	16
290522	3118668	We shall try to find a common agenda.	We shall try to find a common agenda	148148160	1475961866266	1475961866409	W	87
290522	3118668	We shall try to find a common agenda.	We shall try to find a common agenda	148148161	1475961866662	1475961866779	e	69
290522	3118668	We shall try to find a common agenda.	We shall try to find a common agenda	148148162	1475961866787	1475961866881	 	32
290522	3118668	We shall try to find a common agenda.	We shall try to find a common agenda	148148163	1475961866919	1475961867016	s	83
290522	3118668	We shall try to find a common agenda.	We shall try to find a common agenda	148148176	1475961867005	1475961867105	h	72
290522	3118668	We shall try to find a common agenda.	We shall try to find a common agenda	148148177	1475961867118	1475961867208	a	65
290522	3118668	We shall try to find a common agenda.	We shall try to find a common agenda	148148178	1475961867253	1475961867316	l	76
290522	3118668	We shall try to find a common agenda.	We shall try to find a common agenda	148148179	1475961867404	1475961867537	l	76
290522	3118668	We shall try to find a common agenda.	We shall try to find a common agenda	148148180	1475961867509	1475961867612	 	32
290522	3118668	We shall try to find a common agenda.	We shall try to find a common agenda	148148181	1475961867766	1475961867856	t	84
290522	3118668	We shall try to find a common agenda.	We shall try to find a common agenda	148148198	1475961867988	1475961868060	r	82
290522	3118668	We shall try to find a common agenda.	We shall try to find a common agenda	148148199	1475961868169	1475961868270	y	89
290522	3118668	We shall try to find a common agenda.	We shall try to find a common agenda	148148200	1475961868364	1475961868476	 	32
290522	3118668	We shall try to find a common agenda.	We shall try to find a common agenda	148148202	1475961868605	1475961868717	t	84
290522	3118668	We shall try to find a common agenda.	We shall try to find a common agenda	148148220	1475961868705	1475961868839	o	79
290522	3118668	We shall try to find a common agenda.	We shall try to find a common agenda	148148224	1475961868795	1475961868910	 	32
290522	3118668	We shall try to find a common agenda.	We shall try to find a common agenda	148148229	1475961869069	1475961869160	f	70
290522	3118668	We shall try to find a common agenda.	We shall try to find a common agenda	148148234	1475961869194	1475961869271	i	73
290522	3118668	We shall try to find a common agenda.	We shall try to find a common agenda	148148238	1475961869395	1475961869472	n	78
290522	3118668	We shall try to find a common agenda.	We shall try to find a common agenda	148148239	1475961869540	1475961869623	d	68
290522	3118668	We shall try to find a common agenda.	We shall try to find a common agenda	148148247	1475961869710	1475961869802	 	32
290522	3118668	We shall try to find a common agenda.	We shall try to find a common agenda	148148249	1475961869864	1475961869940	a	65
290522	3118668	We shall try to find a common agenda.	We shall try to find a common agenda	148148251	1475961869983	1475961870072	 	32
290522	3118668	We shall try to find a common agenda.	We shall try to find a common agenda	148148253	1475961870153	1475961870300	m	77
290522	3118668	We shall try to find a common agenda.	We shall try to find a common agenda	148148277	1475961870268	1475961870365	o	79
290522	3118668	We shall try to find a common agenda.	We shall try to find a common agenda	148148278	1475961870553	1475961870640	BKSP	8
290522	3118668	We shall try to find a common agenda.	We shall try to find a common agenda	148148279	1475961870703	1475961870795	BKSP	8
290522	3118668	We shall try to find a common agenda.	We shall try to find a common agenda	148148280	1475961870966	1475961871053	c	67
290522	3118668	We shall try to find a common agenda.	We shall try to find a common agenda	148148281	1475961871103	1475961871205	o	79
290522	3118668	We shall try to find a common agenda.	We shall try to find a common agenda	148148282	1475961871318	1475961871375	m	77
290522	3118668	We shall try to find a common agenda.	We shall try to find a common agenda	148148284	1475961871444	1475961871556	m	77
290522	3118668	We shall try to find a common agenda.	We shall try to find a common agenda	148148286	1475961871589	1475961871853	o	79
290522	3118668	We shall try to find a common agenda.	We shall try to find a common agenda	148148296	1475961871750	1475961871933	n	78
290522	3118668	We shall try to find a common agenda.	We shall try to find a common agenda	148148298	1475961871886	1475961872013	 	32
290522	3118668	We shall try to find a common agenda.	We shall try to find a common agenda	148148301	1475961872052	1475961872165	a	65
290522	3118668	We shall try to find a common agenda.	We shall try to find a common agenda	148148304	1475961872193	1475961872295	g	71
290522	3118668	We shall try to find a common agenda.	We shall try to find a common agenda	148148307	1475961872428	1475961872505	e	69
290522	3118668	We shall try to find a common agenda.	We shall try to find a common agenda	148148310	1475961872538	1475961872655	n	78
290522	3118668	We shall try to find a common agenda.	We shall try to find a common agenda	148148313	1475961872679	1475961872841	d	68
290522	3118668	We shall try to find a common agenda.	We shall try to find a common agenda	148148314	1475961872809	1475961872924	a	65
290522	3118674	Opposition leaders have urged him to call off the visit.	Opposition leaders have urged him to call off the visit.	148148401	1475961875427	1475961875775	SHIFT	16
290522	3118674	Opposition leaders have urged him to call off the visit.	Opposition leaders have urged him to call off the visit.	148148399	1475961875642	1475961875755	P	80
290522	3118674	Opposition leaders have urged him to call off the visit.	Opposition leaders have urged him to call off the visit.	148148403	1475961875975	1475961876022	[	219
290522	3118674	Opposition leaders have urged him to call off the visit.	Opposition leaders have urged him to call off the visit.	148148405	1475961876102	1475961876213	[	219
290522	3118674	Opposition leaders have urged him to call off the visit.	Opposition leaders have urged him to call off the visit.	148148407	1475961876422	1475961876494	BKSP	8
290522	3118674	Opposition leaders have urged him to call off the visit.	Opposition leaders have urged him to call off the visit.	148148413	1475961877140	1475961877196	BKSP	8
290522	3118674	Opposition leaders have urged him to call off the visit.	Opposition leaders have urged him to call off the visit.	148148417	1475961877265	1475961877341	BKSP	8
290522	3118674	Opposition leaders have urged him to call off the visit.	Opposition leaders have urged him to call off the visit.	148148420	1475961877425	1475961877502	BKSP	8
290522	3118674	Opposition leaders have urged him to call off the visit.	Opposition leaders have urged him to call off the visit.	148148429	1475961877665	1475961877994	SHIFT	16
290522	3118674	Opposition leaders have urged him to call off the visit.	Opposition leaders have urged him to call off the visit.	148148425	1475961877867	1475961877949	O	79
290522	3118674	Opposition leaders have urged him to call off the visit.	Opposition leaders have urged him to call off the visit.	148148431	1475961878094	1475961878145	p	80
290522	3118674	Opposition leaders have urged him to call off the visit.	Opposition leaders have urged him to call off the visit.	148148438	1475961878213	1475961878305	p	80
290522	3118674	Opposition leaders have urged him to call off the visit.	Opposition leaders have urged him to call off the visit.	148148440	1475961878583	1475961878701	o	79
290522	3118674	Opposition leaders have urged him to call off the visit.	Opposition leaders have urged him to call off the visit.	148148443	1475961878725	1475961878817	s	83
290522	3118674	Opposition leaders have urged him to call off the visit.	Opposition leaders have urged him to call off the visit.	148148446	1475961879133	1475961879215	i	73
290522	3118674	Opposition leaders have urged him to call off the visit.	Opposition leaders have urged him to call off the visit.	148148449	1475961879258	1475961879345	t	84
290522	3118674	Opposition leaders have urged him to call off the visit.	Opposition leaders have urged him to call off the visit.	148148460	1475961879354	1475961879546	i	73
290522	3118674	Opposition leaders have urged him to call off the visit.	Opposition leaders have urged him to call off the visit.	148148463	1475961879454	1475961879706	o	79
290522	3118674	Opposition leaders have urged him to call off the visit.	Opposition leaders have urged him to call off the visit.	148148465	1475961879589	1475961879841	n	78
290522	3118674	Opposition leaders have urged him to call off the visit.	Opposition leaders have urged him to call off the visit.	148148467	1475961879779	1475961879908	 	32
290522	3118674	Opposition leaders have urged him to call off the visit.	Opposition leaders have urged him to call off the visit.	148148469	1475961880042	1475961880141	l	76
290522	3118674	Opposition leaders have urged him to call off the visit.	Opposition leaders have urged him to call off the visit.	148148482	1475961880179	1475961880320	e	69
290522	3118674	Opposition leaders have urged him to call off the visit.	Opposition leaders have urged him to call off the visit.	148148483	1475961880278	1475961880470	a	65
290522	3118674	Opposition leaders have urged him to call off the visit.	Opposition leaders have urged him to call off the visit.	148148484	1475961880560	1475961880640	d	68
290522	3118674	Opposition leaders have urged him to call off the visit.	Opposition leaders have urged him to call off the visit.	148148485	1475961880774	1475961880928	e	69
290522	3118674	Opposition leaders have urged him to call off the visit.	Opposition leaders have urged him to call off the visit.	148148496	1475961880865	1475961881004	r	82
290522	3118674	Opposition leaders have urged him to call off the visit.	Opposition leaders have urged him to call off the visit.	148148498	1475961881128	1475961881224	s	83
290522	3118674	Opposition leaders have urged him to call off the visit.	Opposition leaders have urged him to call off the visit.	148148502	1475961881232	1475961881338	 	32
290522	3118674	Opposition leaders have urged him to call off the visit.	Opposition leaders have urged him to call off the visit.	148148505	1475961881418	1475961881515	a	72
290522	3118674	Opposition leaders have urged him to call off the visit.	Opposition leaders have urged him to call off the visit.	148148529	1475961881553	1475961881695	v	86
290522	3118674	Opposition leaders have urged him to call off the visit.	Opposition leaders have urged him to call off the visit.	148148531	1475961881789	1475961881892	e	69
290522	3118674	Opposition leaders have urged him to call off the visit.	Opposition leaders have urged him to call off the visit.	148148533	1475961881926	1475961881973	 	32
290522	3118674	Opposition leaders have urged him to call off the visit.	Opposition leaders have urged him to call off the visit.	148148534	1475961882517	1475961882639	u	85
290522	3118674	Opposition leaders have urged him to call off the visit.	Opposition leaders have urged him to call off the visit.	148148535	1475961882668	1475961882764	r	82
290522	3118674	Opposition leaders have urged him to call off the visit.	Opposition leaders have urged him to call off the visit.	148148536	1475961882925	1475961883007	g	71
290522	3118674	Opposition leaders have urged him to call off the visit.	Opposition leaders have urged him to call off the visit.	148148548	1475961883171	1475961883243	e	69
290522	3118674	Opposition leaders have urged him to call off the visit.	Opposition leaders have urged him to call off the visit.	148148550	1475961883366	1475961883467	d	68
290522	3118674	Opposition leaders have urged him to call off the visit.	Opposition leaders have urged him to call off the visit.	148148551	1475961883481	1475961883569	 	32
290522	3118674	Opposition leaders have urged him to call off the visit.	Opposition leaders have urged him to call off the visit.	148148552	1475961883663	1475961883830	h	72
290522	3118674	Opposition leaders have urged him to call off the visit.	Opposition leaders have urged him to call off the visit.	148148558	1475961883798	1475961883913	i	73
290522	3118674	Opposition leaders have urged him to call off the visit.	Opposition leaders have urged him to call off the visit.	148148560	1475961884030	1475961884203	m	77
290522	3118674	Opposition leaders have urged him to call off the visit.	Opposition leaders have urged him to call off the visit.	148148562	1475961884131	1475961884257	 	32
290522	3118674	Opposition leaders have urged him to call off the visit.	Opposition leaders have urged him to call off the visit.	148148564	1475961884302	1475961884409	t	84
290522	3118674	Opposition leaders have urged him to call off the visit.	Opposition leaders have urged him to call off the visit.	148148565	1475961884396	1475961884524	o	79
290522	3118674	Opposition leaders have urged him to call off the visit.	Opposition leaders have urged him to call off the visit.	148148582	1475961884482	1475961884594	 	32
290522	3118674	Opposition leaders have urged him to call off the visit.	Opposition leaders have urged him to call off the visit.	148148584	1475961884713	1475961884825	c	67
290522	3118674	Opposition leaders have urged him to call off the visit.	Opposition leaders have urged him to call off the visit.	148148586	1475961884878	1475961884973	a	65
290522	3118674	Opposition leaders have urged him to call off the visit.	Opposition leaders have urged him to call off the visit.	148148588	1475961884980	1475961885038	l	76
290522	3118674	Opposition leaders have urged him to call off the visit.	Opposition leaders have urged him to call off the visit.	148148590	1475961885121	1475961885253	l	76
290522	3118674	Opposition leaders have urged him to call off the visit.	Opposition leaders have urged him to call off the visit.	148148592	1475961885216	1475961885318	 	32
290522	3118674	Opposition leaders have urged him to call off the visit.	Opposition leaders have urged him to call off the visit.	148148594	1475961885422	1475961885499	o	79
290522	3118674	Opposition leaders have urged him to call off the visit.	Opposition leaders have urged him to call off the visit.	148148598	1475961885598	1475961885665	f	70
290522	3118674	Opposition leaders have urged him to call off the visit.	Opposition leaders have urged him to call off the visit.	148148601	1475961885708	1475961885814	f	70
290522	3118674	Opposition leaders have urged him to call off the visit.	Opposition leaders have urged him to call off the visit.	148148604	1475961885822	1475961885947	 	32
290522	3118674	Opposition leaders have urged him to call off the visit.	Opposition leaders have urged him to call off the visit.	148148607	1475961885955	1475961886058	t	84
290522	3118674	Opposition leaders have urged him to call off the visit.	Opposition leaders have urged him to call off the visit.	148148633	1475961886046	1475961886144	h	72
290522	3118674	Opposition leaders have urged him to call off the visit.	Opposition leaders have urged him to call off the visit.	148148634	1475961886182	1475961886283	e	69
290522	3118674	Opposition leaders have urged him to call off the visit.	Opposition leaders have urged him to call off the visit.	148148635	1475961886291	1475961886363	 	32
290522	3118674	Opposition leaders have urged him to call off the visit.	Opposition leaders have urged him to call off the visit.	148148636	1475961886717	1475961886804	c	67
290522	3118674	Opposition leaders have urged him to call off the visit.	Opposition leaders have urged him to call off the visit.	148148637	1475961886822	1475961886904	i	73
290522	3118674	Opposition leaders have urged him to call off the visit.	Opposition leaders have urged him to call off the visit.	148148638	1475961887393	1475961887456	BKSP	8
290522	3118674	Opposition leaders have urged him to call off the visit.	Opposition leaders have urged him to call off the visit.	148148639	1475961887525	1475961887612	BKSP	8
290522	3118674	Opposition leaders have urged him to call off the visit.	Opposition leaders have urged him to call off the visit.	148148640	1475961887987	1475961888100	v	86
290522	3118674	Opposition leaders have urged him to call off the visit.	Opposition leaders have urged him to call off the visit.	148148646	1475961888087	1475961888171	i	73
290522	3118674	Opposition leaders have urged him to call off the visit.	Opposition leaders have urged him to call off the visit.	148148647	1475961888233	1475961888310	s	83
290522	3118674	Opposition leaders have urged him to call off the visit.	Opposition leaders have urged him to call off the visit.	148148648	1475961888329	1475961888450	i	73
290522	3118674	Opposition leaders have urged him to call off the visit.	Opposition leaders have urged him to call off the visit.	148148649	1475961888855	1475961888935	t	84
290522	3118679	I would like to attend if so.	I would like to attend if so.	148148714	1475961892432	1475961892625	SHIFT	16
290522	3118679	I would like to attend if so.	I would like to attend if so.	148148715	1475961892553	1475961892709	I	73
290522	3118679	I would like to attend if so.	I would like to attend if so.	148148716	1475961892633	1475961892744	 	32
290522	3118679	I would like to attend if so.	I would like to attend if so.	148148717	1475961892772	1475961892865	w	87
290522	3118679	I would like to attend if so.	I would like to attend if so.	148148719	1475961892818	1475961892953	o	79
290522	3118679	I would like to attend if so.	I would like to attend if so.	148148731	1475961892903	1475961892997	u	85
290522	3118679	I would like to attend if so.	I would like to attend if so.	148148733	1475961893101	1475961893189	l	76
290522	3118679	I would like to attend if so.	I would like to attend if so.	148148737	1475961893245	1475961893328	d	68
290522	3118679	I would like to attend if so.	I would like to attend if so.	148148742	1475961893311	1475961893393	 	32
290522	3118679	I would like to attend if so.	I would like to attend if so.	148148747	1475961893426	1475961893584	l	76
290522	3118679	I would like to attend if so.	I would like to attend if so.	148148757	1475961893537	1475961893634	i	73
290522	3118679	I would like to attend if so.	I would like to attend if so.	148148758	1475961893737	1475961893809	k	75
290522	3118679	I would like to attend if so.	I would like to attend if so.	148148759	1475961893848	1475961893931	e	69
290522	3118679	I would like to attend if so.	I would like to attend if so.	148148760	1475961893951	1475961894002	 	32
290522	3118679	I would like to attend if so.	I would like to attend if so.	148148761	1475961894060	1475961894152	t	84
290522	3118679	I would like to attend if so.	I would like to attend if so.	148148762	1475961894161	1475961894282	o	79
290522	3118679	I would like to attend if so.	I would like to attend if so.	148148799	1475961894245	1475961894332	 	32
290522	3118679	I would like to attend if so.	I would like to attend if so.	148148802	1475961894366	1475961894462	a	65
290522	3118679	I would like to attend if so.	I would like to attend if so.	148148804	1475961894596	1475961894638	t	84
290522	3118679	I would like to attend if so.	I would like to attend if so.	148148806	1475961894682	1475961894785	t	84
290522	3118679	I would like to attend if so.	I would like to attend if so.	148148808	1475961894932	1475961895011	e	69
290522	3118679	I would like to attend if so.	I would like to attend if so.	148148810	1475961895865	1475961895944	n	78
290522	3118679	I would like to attend if so.	I would like to attend if so.	148148813	1475961895968	1475961896059	d	68
290522	3118679	I would like to attend if so.	I would like to attend if so.	148148816	1475961896067	1475961896160	 	32
290522	3118679	I would like to attend if so.	I would like to attend if so.	148148818	1475961896253	1475961896346	i	73
290522	3118679	I would like to attend if so.	I would like to attend if so.	148148819	1475961896399	1475961896496	f	70
290522	3118679	I would like to attend if so.	I would like to attend if so.	148148825	1475961896474	1475961896545	 	32
290522	3118679	I would like to attend if so.	I would like to attend if so.	148148826	1475961896619	1475961896702	s	83
290522	3118679	I would like to attend if so.	I would like to attend if so.	148148827	1475961896654	1475961896776	o	79
290522	3118684	Will follow up today.	Will follow up today.	148148871	1475961899888	1475961900067	SHIFT	16
290522	3118684	Will follow up today.	Will follow up today.	148148874	1475961900029	1475961900166	W	87
290522	3118684	Will follow up today.	Will follow up today.	148148877	1475961900154	1475961900238	i	73
290522	3118684	Will follow up today.	Will follow up today.	148148880	1475961900340	1475961900404	l	76
290522	3118684	Will follow up today.	Will follow up today.	148148882	1475961900472	1475961900629	l	76
290522	3118684	Will follow up today.	Will follow up today.	148148895	1475961900592	1475961900689	 	32
290522	3118684	Will follow up today.	Will follow up today.	148148897	1475961900817	1475961900889	f	70
290522	3118684	Will follow up today.	Will follow up today.	148148901	1475961900932	1475961901007	o	79
290522	3118684	Will follow up today.	Will follow up today.	148148904	1475961901114	1475961901182	l	76
290522	3118684	Will follow up today.	Will follow up today.	148148906	1475961901241	1475961901327	l	76
290522	3118684	Will follow up today.	Will follow up today.	148148908	1475961901435	1475961901542	o	79
290522	3118684	Will follow up today.	Will follow up today.	148148916	1475961901630	1475961901718	w	87
290522	3118684	Will follow up today.	Will follow up today.	148148918	1475961901731	1475961901804	 	32
290522	3118684	Will follow up today.	Will follow up today.	148148920	1475961901901	1475961902011	u	85
290522	3118684	Will follow up today.	Will follow up today.	148148924	1475961902069	1475961902238	p	80
290522	3118684	Will follow up today.	Will follow up today.	148148941	1475961902206	1475961902276	 	32
290522	3118684	Will follow up today.	Will follow up today.	148148943	1475961902360	1475961902448	t	84
290522	3118684	Will follow up today.	Will follow up today.	148148945	1475961902435	1475961902572	o	79
290522	3118684	Will follow up today.	Will follow up today.	148148947	1475961902596	1475961902733	d	68
290522	3118684	Will follow up today.	Will follow up today.	148148951	1475961902742	1475961902865	a	65
290522	3118684	Will follow up today.	Will follow up today.	148148954	1475961902913	1475961902998	y	89
