PARTICIPANT_ID	TEST_SECTION_ID	SENTENCE	USER_INPUT	KEYSTROKE_ID	PRESS_TIME	RELEASE_TIME	LETTER	KEYCODE
290850	3122576	I was planning to attend.	I was planning to attend.	148332948	1475967590442	1475967590553	SHIFT	16
290850	3122576	I was planning to attend.	I was planning to attend.	148332949	1475967590505	1475967590606	I	73
290850	3122576	I was planning to attend.	I was planning to attend.	148332950	1475967590558	1475967590657	 	32
290850	3122576	I was planning to attend.	I was planning to attend.	148332951	1475967590683	1475967590761	w	87
290850	3122576	I was planning to attend.	I was planning to attend.	148332954	1475967590775	1475967590878	a	65
290850	3122576	I was planning to attend.	I was planning to attend.	148332984	1475967590846	1475967590963	s	83
290850	3122576	I was planning to attend.	I was planning to attend.	148332986	1475967590917	1475967591041	 	32
290850	3122576	I was planning to attend.	I was planning to attend.	148332988	1475967591105	1475967591195	p	80
290850	3122576	I was planning to attend.	I was planning to attend.	148332991	1475967591184	1475967591293	l	76
290850	3122576	I was planning to attend.	I was planning to attend.	148332995	1475967591296	1475967591403	a	65
290850	3122576	I was planning to attend.	I was planning to attend.	148333006	1475967591369	1475967591445	n	78
290850	3122576	I was planning to attend.	I was planning to attend.	148333008	1475967591481	1475967591598	n	78
290850	3122576	I was planning to attend.	I was planning to attend.	148333010	1475967591585	1475967591681	i	73
290850	3122576	I was planning to attend.	I was planning to attend.	148333012	1475967591621	1475967591774	n	78
290850	3122576	I was planning to attend.	I was planning to attend.	148333027	1475967591697	1475967591859	g	71
290850	3122576	I was planning to attend.	I was planning to attend.	148333029	1475967591747	1475967591881	 	32
290850	3122576	I was planning to attend.	I was planning to attend.	148333031	1475967591977	1475967592083	t	84
290850	3122576	I was planning to attend.	I was planning to attend.	148333033	1475967592081	1475967592180	o	79
290850	3122576	I was planning to attend.	I was planning to attend.	148333035	1475967592168	1475967592281	 	32
290850	3122576	I was planning to attend.	I was planning to attend.	148333037	1475967592301	1475967592394	a	65
290850	3122576	I was planning to attend.	I was planning to attend.	148333060	1475967592391	1475967592458	t	84
290850	3122576	I was planning to attend.	I was planning to attend.	148333063	1475967592502	1475967592590	t	84
290850	3122576	I was planning to attend.	I was planning to attend.	148333064	1475967592585	1475967592682	e	69
290850	3122576	I was planning to attend.	I was planning to attend.	148333065	1475967592661	1475967592783	n	78
290850	3122576	I was planning to attend.	I was planning to attend.	148333066	1475967592725	1475967592852	d	68
290850	3122576	I was planning to attend.	I was planning to attend.	148333070	1475967592837	1475967592938	.	190
290850	3122583	It must be accompanied by increased productivity.	It must be accompanied by increased productivity.	148333395	1475967601236	1475967601382	SHIFT	16
290850	3122583	It must be accompanied by increased productivity.	It must be accompanied by increased productivity.	148333397	1475967601344	1475967601435	I	73
290850	3122583	It must be accompanied by increased productivity.	It must be accompanied by increased productivity.	148333399	1475967601413	1475967601509	t	84
290850	3122583	It must be accompanied by increased productivity.	It must be accompanied by increased productivity.	148333400	1475967601459	1475967601598	 	32
290850	3122583	It must be accompanied by increased productivity.	It must be accompanied by increased productivity.	148333402	1475967601635	1475967601741	m	77
290850	3122583	It must be accompanied by increased productivity.	It must be accompanied by increased productivity.	148333404	1475967601747	1475967601834	u	85
290850	3122583	It must be accompanied by increased productivity.	It must be accompanied by increased productivity.	148333416	1475967601831	1475967601946	s	83
290850	3122583	It must be accompanied by increased productivity.	It must be accompanied by increased productivity.	148333417	1475967601931	1475967601963	 	32
290850	3122583	It must be accompanied by increased productivity.	It must be accompanied by increased productivity.	148333420	1475967601970	1475967602116	t	84
290850	3122583	It must be accompanied by increased productivity.	It must be accompanied by increased productivity.	148333423	1475967602062	1475967602153	 	32
290850	3122583	It must be accompanied by increased productivity.	It must be accompanied by increased productivity.	148333426	1475967602194	1475967602296	b	66
290850	3122583	It must be accompanied by increased productivity.	It must be accompanied by increased productivity.	148333465	1475967602286	1475967602375	e	69
290850	3122583	It must be accompanied by increased productivity.	It must be accompanied by increased productivity.	148333467	1475967602445	1475967602508	BKSP	8
290850	3122583	It must be accompanied by increased productivity.	It must be accompanied by increased productivity.	148333469	1475967602551	1475967602625	BKSP	8
290850	3122583	It must be accompanied by increased productivity.	It must be accompanied by increased productivity.	148333473	1475967602658	1475967602729	BKSP	8
290850	3122583	It must be accompanied by increased productivity.	It must be accompanied by increased productivity.	148333477	1475967602759	1475967602836	BKSP	8
290850	3122583	It must be accompanied by increased productivity.	It must be accompanied by increased productivity.	148333483	1475967602859	1475967602940	BKSP	8
290850	3122583	It must be accompanied by increased productivity.	It must be accompanied by increased productivity.	148333488	1475967603035	1475967603149	t	84
290850	3122583	It must be accompanied by increased productivity.	It must be accompanied by increased productivity.	148333494	1475967603083	1475967603195	 	32
290850	3122583	It must be accompanied by increased productivity.	It must be accompanied by increased productivity.	148333497	1475967603229	1475967603312	b	66
290850	3122583	It must be accompanied by increased productivity.	It must be accompanied by increased productivity.	148333505	1475967603292	1475967603395	e	69
290850	3122583	It must be accompanied by increased productivity.	It must be accompanied by increased productivity.	148333511	1475967603375	1475967603465	 	32
290850	3122583	It must be accompanied by increased productivity.	It must be accompanied by increased productivity.	148333515	1475967603535	1475967603645	a	65
290850	3122583	It must be accompanied by increased productivity.	It must be accompanied by increased productivity.	148333519	1475967603631	1475967603719	c	67
290850	3122583	It must be accompanied by increased productivity.	It must be accompanied by increased productivity.	148333525	1475967603746	1475967603854	c	67
290850	3122583	It must be accompanied by increased productivity.	It must be accompanied by increased productivity.	148333528	1475967603840	1475967603945	o	79
290850	3122583	It must be accompanied by increased productivity.	It must be accompanied by increased productivity.	148333542	1475967603940	1475967604063	m	77
290850	3122583	It must be accompanied by increased productivity.	It must be accompanied by increased productivity.	148333544	1475967604044	1475967604144	p	80
290850	3122583	It must be accompanied by increased productivity.	It must be accompanied by increased productivity.	148333548	1475967604128	1475967604245	a	65
290850	3122583	It must be accompanied by increased productivity.	It must be accompanied by increased productivity.	148333552	1475967604230	1475967604315	n	78
290850	3122583	It must be accompanied by increased productivity.	It must be accompanied by increased productivity.	148333557	1475967604368	1475967604465	i	73
290850	3122583	It must be accompanied by increased productivity.	It must be accompanied by increased productivity.	148333561	1475967604466	1475967604603	e	69
290850	3122583	It must be accompanied by increased productivity.	It must be accompanied by increased productivity.	148333573	1475967604623	1475967604735	d	68
290850	3122583	It must be accompanied by increased productivity.	It must be accompanied by increased productivity.	148333575	1475967604677	1475967604773	 	32
290850	3122583	It must be accompanied by increased productivity.	It must be accompanied by increased productivity.	148333577	1475967604813	1475967604894	b	66
290850	3122583	It must be accompanied by increased productivity.	It must be accompanied by increased productivity.	148333580	1475967604890	1475967604971	y	89
290850	3122583	It must be accompanied by increased productivity.	It must be accompanied by increased productivity.	148333582	1475967604974	1475967605065	 	32
290850	3122583	It must be accompanied by increased productivity.	It must be accompanied by increased productivity.	148333593	1475967605133	1475967605225	i	73
290850	3122583	It must be accompanied by increased productivity.	It must be accompanied by increased productivity.	148333595	1475967605191	1475967605265	n	78
290850	3122583	It must be accompanied by increased productivity.	It must be accompanied by increased productivity.	148333597	1475967605348	1475967605425	c	67
290850	3122583	It must be accompanied by increased productivity.	It must be accompanied by increased productivity.	148333599	1475967605486	1475967605567	r	82
290850	3122583	It must be accompanied by increased productivity.	It must be accompanied by increased productivity.	148333613	1475967605549	1475967605695	e	69
290850	3122583	It must be accompanied by increased productivity.	It must be accompanied by increased productivity.	148333616	1475967605633	1475967605750	a	65
290850	3122583	It must be accompanied by increased productivity.	It must be accompanied by increased productivity.	148333620	1475967605696	1475967605791	s	83
290850	3122583	It must be accompanied by increased productivity.	It must be accompanied by increased productivity.	148333623	1475967605834	1475967605951	e	69
290850	3122583	It must be accompanied by increased productivity.	It must be accompanied by increased productivity.	148333627	1475967605919	1475967606049	d	68
290850	3122583	It must be accompanied by increased productivity.	It must be accompanied by increased productivity.	148333630	1475967605971	1475967606078	 	32
290850	3122583	It must be accompanied by increased productivity.	It must be accompanied by increased productivity.	148333631	1475967606102	1475967606181	p	80
290850	3122583	It must be accompanied by increased productivity.	It must be accompanied by increased productivity.	148333633	1475967606161	1475967606258	r	82
290850	3122583	It must be accompanied by increased productivity.	It must be accompanied by increased productivity.	148333635	1475967606245	1475967606349	o	79
290850	3122583	It must be accompanied by increased productivity.	It must be accompanied by increased productivity.	148333637	1475967606352	1475967606450	d	68
290850	3122583	It must be accompanied by increased productivity.	It must be accompanied by increased productivity.	148333646	1475967606441	1475967606533	u	85
290850	3122583	It must be accompanied by increased productivity.	It must be accompanied by increased productivity.	148333648	1475967606542	1475967606631	c	67
290850	3122583	It must be accompanied by increased productivity.	It must be accompanied by increased productivity.	148333650	1475967606698	1475967606784	t	84
290850	3122583	It must be accompanied by increased productivity.	It must be accompanied by increased productivity.	148333653	1475967606775	1475967606871	i	73
290850	3122583	It must be accompanied by increased productivity.	It must be accompanied by increased productivity.	148333657	1475967606869	1475967606970	v	86
290850	3122583	It must be accompanied by increased productivity.	It must be accompanied by increased productivity.	148333669	1475967606967	1475967607061	i	73
290850	3122583	It must be accompanied by increased productivity.	It must be accompanied by increased productivity.	148333670	1475967607057	1475967607169	t	84
290850	3122583	It must be accompanied by increased productivity.	It must be accompanied by increased productivity.	148333671	1475967607194	1475967607278	y	89
290850	3122594	When things get speculative the language always gets scary.	When things get speculative the language always gets scary.	148333942	1475967615065	1475967615216	SHIFT	16
290850	3122594	When things get speculative the language always gets scary.	When things get speculative the language always gets scary.	148333944	1475967615147	1475967615237	W	87
290850	3122594	When things get speculative the language always gets scary.	When things get speculative the language always gets scary.	148333947	1475967615279	1475967615374	h	72
290850	3122594	When things get speculative the language always gets scary.	When things get speculative the language always gets scary.	148333949	1475967615361	1475967615472	e	69
290850	3122594	When things get speculative the language always gets scary.	When things get speculative the language always gets scary.	148333952	1475967615432	1475967615574	n	78
290850	3122594	When things get speculative the language always gets scary.	When things get speculative the language always gets scary.	148333970	1475967615502	1475967615626	 	32
290850	3122594	When things get speculative the language always gets scary.	When things get speculative the language always gets scary.	148333972	1475967615675	1475967615765	t	84
290850	3122594	When things get speculative the language always gets scary.	When things get speculative the language always gets scary.	148333973	1475967615711	1475967615801	h	72
290850	3122594	When things get speculative the language always gets scary.	When things get speculative the language always gets scary.	148333975	1475967615799	1475967615883	i	73
290850	3122594	When things get speculative the language always gets scary.	When things get speculative the language always gets scary.	148333976	1475967615841	1475967615943	n	78
290850	3122594	When things get speculative the language always gets scary.	When things get speculative the language always gets scary.	148333978	1475967616058	1475967616182	g	71
290850	3122594	When things get speculative the language always gets scary.	When things get speculative the language always gets scary.	148334001	1475967616313	1475967616439	s	83
290850	3122594	When things get speculative the language always gets scary.	When things get speculative the language always gets scary.	148334003	1475967616369	1475967616513	 	32
290850	3122594	When things get speculative the language always gets scary.	When things get speculative the language always gets scary.	148334006	1475967616691	1475967616783	g	71
290850	3122594	When things get speculative the language always gets scary.	When things get speculative the language always gets scary.	148334008	1475967616779	1475967616892	e	69
290850	3122594	When things get speculative the language always gets scary.	When things get speculative the language always gets scary.	148334017	1475967616863	1475967616967	t	84
290850	3122594	When things get speculative the language always gets scary.	When things get speculative the language always gets scary.	148334021	1475967616918	1475967617020	 	32
290850	3122594	When things get speculative the language always gets scary.	When things get speculative the language always gets scary.	148334026	1475967617057	1475967617156	s	83
290850	3122594	When things get speculative the language always gets scary.	When things get speculative the language always gets scary.	148334031	1475967617169	1475967617280	p	80
290850	3122594	When things get speculative the language always gets scary.	When things get speculative the language always gets scary.	148334035	1475967617227	1475967617362	e	69
290850	3122594	When things get speculative the language always gets scary.	When things get speculative the language always gets scary.	148334052	1475967617335	1475967617468	c	67
290850	3122594	When things get speculative the language always gets scary.	When things get speculative the language always gets scary.	148334054	1475967617474	1475967617575	a	65
290850	3122594	When things get speculative the language always gets scary.	When things get speculative the language always gets scary.	148334056	1475967617752	1475967617822	BKSP	8
290850	3122594	When things get speculative the language always gets scary.	When things get speculative the language always gets scary.	148334058	1475967617861	1475967617948	u	85
290850	3122594	When things get speculative the language always gets scary.	When things get speculative the language always gets scary.	148334061	1475967618100	1475967618190	l	76
290850	3122594	When things get speculative the language always gets scary.	When things get speculative the language always gets scary.	148334065	1475967618201	1475967618306	a	65
290850	3122594	When things get speculative the language always gets scary.	When things get speculative the language always gets scary.	148334086	1475967618266	1475967618381	t	84
290850	3122594	When things get speculative the language always gets scary.	When things get speculative the language always gets scary.	148334088	1475967618397	1475967618487	i	73
290850	3122594	When things get speculative the language always gets scary.	When things get speculative the language always gets scary.	148334090	1475967618459	1475967618545	v	86
290850	3122594	When things get speculative the language always gets scary.	When things get speculative the language always gets scary.	148334092	1475967618545	1475967618633	e	69
290850	3122594	When things get speculative the language always gets scary.	When things get speculative the language always gets scary.	148334094	1475967618714	1475967618768	,	188
290850	3122594	When things get speculative the language always gets scary.	When things get speculative the language always gets scary.	148334095	1475967619006	1475967619093	BKSP	8
290850	3122594	When things get speculative the language always gets scary.	When things get speculative the language always gets scary.	148334105	1475967619071	1475967619187	 	32
290850	3122594	When things get speculative the language always gets scary.	When things get speculative the language always gets scary.	148334108	1475967619243	1475967619363	t	84
290850	3122594	When things get speculative the language always gets scary.	When things get speculative the language always gets scary.	148334110	1475967619295	1475967619423	h	72
290850	3122594	When things get speculative the language always gets scary.	When things get speculative the language always gets scary.	148334112	1475967619355	1475967619464	e	69
290850	3122594	When things get speculative the language always gets scary.	When things get speculative the language always gets scary.	148334113	1475967619456	1475967619528	 	32
290850	3122594	When things get speculative the language always gets scary.	When things get speculative the language always gets scary.	148334116	1475967619541	1475967619649	l	76
290850	3122594	When things get speculative the language always gets scary.	When things get speculative the language always gets scary.	148334134	1475967619621	1475967619726	a	65
290850	3122594	When things get speculative the language always gets scary.	When things get speculative the language always gets scary.	148334135	1475967619704	1475967619819	n	78
290850	3122594	When things get speculative the language always gets scary.	When things get speculative the language always gets scary.	148334137	1475967619789	1475967619889	g	71
290850	3122594	When things get speculative the language always gets scary.	When things get speculative the language always gets scary.	148334138	1475967619874	1475967619976	u	85
290850	3122594	When things get speculative the language always gets scary.	When things get speculative the language always gets scary.	148334139	1475967619962	1475967620077	a	65
290850	3122594	When things get speculative the language always gets scary.	When things get speculative the language always gets scary.	148334140	1475967620164	1475967620277	g	71
290850	3122594	When things get speculative the language always gets scary.	When things get speculative the language always gets scary.	148334163	1475967620254	1475967620381	e	69
290850	3122594	When things get speculative the language always gets scary.	When things get speculative the language always gets scary.	148334165	1475967620361	1475967620457	 	32
290850	3122594	When things get speculative the language always gets scary.	When things get speculative the language always gets scary.	148334167	1475967620473	1475967620580	a	65
290850	3122594	When things get speculative the language always gets scary.	When things get speculative the language always gets scary.	148334169	1475967620532	1475967620603	l	76
290850	3122594	When things get speculative the language always gets scary.	When things get speculative the language always gets scary.	148334171	1475967620722	1475967620835	w	87
290850	3122594	When things get speculative the language always gets scary.	When things get speculative the language always gets scary.	148334174	1475967620879	1475967620995	a	65
290850	3122594	When things get speculative the language always gets scary.	When things get speculative the language always gets scary.	148334188	1475967621103	1475967621198	y	89
290850	3122594	When things get speculative the language always gets scary.	When things get speculative the language always gets scary.	148334190	1475967621431	1475967621558	s	83
290850	3122594	When things get speculative the language always gets scary.	When things get speculative the language always gets scary.	148334193	1475967621506	1475967621608	 	32
290850	3122594	When things get speculative the language always gets scary.	When things get speculative the language always gets scary.	148334195	1475967621689	1475967621780	g	71
290850	3122594	When things get speculative the language always gets scary.	When things get speculative the language always gets scary.	148334211	1475967621775	1475967621884	e	69
290850	3122594	When things get speculative the language always gets scary.	When things get speculative the language always gets scary.	148334213	1475967621843	1475967621942	t	84
290850	3122594	When things get speculative the language always gets scary.	When things get speculative the language always gets scary.	148334215	1475967621906	1475967621999	 	32
290850	3122594	When things get speculative the language always gets scary.	When things get speculative the language always gets scary.	148334217	1475967622006	1475967622101	s	83
290850	3122594	When things get speculative the language always gets scary.	When things get speculative the language always gets scary.	148334219	1475967622495	1475967622561	BKSP	8
290850	3122594	When things get speculative the language always gets scary.	When things get speculative the language always gets scary.	148334221	1475967622611	1475967622693	BKSP	8
290850	3122594	When things get speculative the language always gets scary.	When things get speculative the language always gets scary.	148334223	1475967622805	1475967622927	s	83
290850	3122594	When things get speculative the language always gets scary.	When things get speculative the language always gets scary.	148334244	1475967622867	1475967622978	 	32
290850	3122594	When things get speculative the language always gets scary.	When things get speculative the language always gets scary.	148334245	1475967623028	1475967623127	s	83
290850	3122594	When things get speculative the language always gets scary.	When things get speculative the language always gets scary.	148334246	1475967623191	1475967623261	c	67
290850	3122594	When things get speculative the language always gets scary.	When things get speculative the language always gets scary.	148334249	1475967623284	1475967623376	a	65
290850	3122594	When things get speculative the language always gets scary.	When things get speculative the language always gets scary.	148334252	1475967623346	1475967623453	r	82
290850	3122594	When things get speculative the language always gets scary.	When things get speculative the language always gets scary.	148334255	1475967623523	1475967623613	y	89
290850	3122607	England star Paul Gascoigne was one of the recipients of the loans.	England star Paul Gascoigne was one of the recipients of the loans.	148334492	1475967629314	1475967629474	SHIFT	16
290850	3122607	England star Paul Gascoigne was one of the recipients of the loans.	England star Paul Gascoigne was one of the recipients of the loans.	148334496	1475967629418	1475967629536	E	69
290850	3122607	England star Paul Gascoigne was one of the recipients of the loans.	England star Paul Gascoigne was one of the recipients of the loans.	148334500	1475967629512	1475967629585	n	78
290850	3122607	England star Paul Gascoigne was one of the recipients of the loans.	England star Paul Gascoigne was one of the recipients of the loans.	148334503	1475967629638	1475967629729	g	71
290850	3122607	England star Paul Gascoigne was one of the recipients of the loans.	England star Paul Gascoigne was one of the recipients of the loans.	148334506	1475967629799	1475967629903	l	76
290850	3122607	England star Paul Gascoigne was one of the recipients of the loans.	England star Paul Gascoigne was one of the recipients of the loans.	148334508	1475967629905	1475967630029	a	65
290850	3122607	England star Paul Gascoigne was one of the recipients of the loans.	England star Paul Gascoigne was one of the recipients of the loans.	148334511	1475967629978	1475967630103	n	78
290850	3122607	England star Paul Gascoigne was one of the recipients of the loans.	England star Paul Gascoigne was one of the recipients of the loans.	148334513	1475967630025	1475967630159	d	68
290850	3122607	England star Paul Gascoigne was one of the recipients of the loans.	England star Paul Gascoigne was one of the recipients of the loans.	148334515	1475967630068	1475967630207	 	32
290850	3122607	England star Paul Gascoigne was one of the recipients of the loans.	England star Paul Gascoigne was one of the recipients of the loans.	148334517	1475967630233	1475967630329	s	83
290850	3122607	England star Paul Gascoigne was one of the recipients of the loans.	England star Paul Gascoigne was one of the recipients of the loans.	148334519	1475967630387	1475967630471	t	84
290850	3122607	England star Paul Gascoigne was one of the recipients of the loans.	England star Paul Gascoigne was one of the recipients of the loans.	148334520	1475967630502	1475967630610	a	65
290850	3122607	England star Paul Gascoigne was one of the recipients of the loans.	England star Paul Gascoigne was one of the recipients of the loans.	148334532	1475967630555	1475967630697	r	82
290850	3122607	England star Paul Gascoigne was one of the recipients of the loans.	England star Paul Gascoigne was one of the recipients of the loans.	148334533	1475967630637	1475967630761	 	32
290850	3122607	England star Paul Gascoigne was one of the recipients of the loans.	England star Paul Gascoigne was one of the recipients of the loans.	148334534	1475967630879	1475967630993	SHIFT	16
290850	3122607	England star Paul Gascoigne was one of the recipients of the loans.	England star Paul Gascoigne was one of the recipients of the loans.	148334535	1475967630934	1475967631040	P	80
290850	3122607	England star Paul Gascoigne was one of the recipients of the loans.	England star Paul Gascoigne was one of the recipients of the loans.	148334536	1475967631123	1475967631234	a	65
290850	3122607	England star Paul Gascoigne was one of the recipients of the loans.	England star Paul Gascoigne was one of the recipients of the loans.	148334537	1475967631231	1475967631337	u	85
290850	3122607	England star Paul Gascoigne was one of the recipients of the loans.	England star Paul Gascoigne was one of the recipients of the loans.	148334538	1475967631353	1475967631486	l	76
290850	3122607	England star Paul Gascoigne was one of the recipients of the loans.	England star Paul Gascoigne was one of the recipients of the loans.	148334569	1475967631438	1475967631552	 	32
290850	3122607	England star Paul Gascoigne was one of the recipients of the loans.	England star Paul Gascoigne was one of the recipients of the loans.	148334572	1475967631649	1475967631783	SHIFT	16
290850	3122607	England star Paul Gascoigne was one of the recipients of the loans.	England star Paul Gascoigne was one of the recipients of the loans.	148334574	1475967631723	1475967631824	G	71
290850	3122607	England star Paul Gascoigne was one of the recipients of the loans.	England star Paul Gascoigne was one of the recipients of the loans.	148334577	1475967631885	1475967631965	l	76
290850	3122607	England star Paul Gascoigne was one of the recipients of the loans.	England star Paul Gascoigne was one of the recipients of the loans.	148334580	1475967632001	1475967632095	a	65
290850	3122607	England star Paul Gascoigne was one of the recipients of the loans.	England star Paul Gascoigne was one of the recipients of the loans.	148334582	1475967632074	1475967632209	s	83
290850	3122607	England star Paul Gascoigne was one of the recipients of the loans.	England star Paul Gascoigne was one of the recipients of the loans.	148334583	1475967632353	1475967632456	c	67
290850	3122607	England star Paul Gascoigne was one of the recipients of the loans.	England star Paul Gascoigne was one of the recipients of the loans.	148334635	1475967632518	1475967632627	o	79
290850	3122607	England star Paul Gascoigne was one of the recipients of the loans.	England star Paul Gascoigne was one of the recipients of the loans.	148334638	1475967633321	1475967633396	BKSP	8
290850	3122607	England star Paul Gascoigne was one of the recipients of the loans.	England star Paul Gascoigne was one of the recipients of the loans.	148334640	1475967633450	1475967633525	BKSP	8
290850	3122607	England star Paul Gascoigne was one of the recipients of the loans.	England star Paul Gascoigne was one of the recipients of the loans.	148334642	1475967633575	1475967633643	BKSP	8
290850	3122607	England star Paul Gascoigne was one of the recipients of the loans.	England star Paul Gascoigne was one of the recipients of the loans.	148334643	1475967633686	1475967633768	BKSP	8
290850	3122607	England star Paul Gascoigne was one of the recipients of the loans.	England star Paul Gascoigne was one of the recipients of the loans.	148334644	1475967634007	1475967634127	s	83
290850	3122607	England star Paul Gascoigne was one of the recipients of the loans.	England star Paul Gascoigne was one of the recipients of the loans.	148334645	1475967634463	1475967634523	BKSP	8
290850	3122607	England star Paul Gascoigne was one of the recipients of the loans.	England star Paul Gascoigne was one of the recipients of the loans.	148334646	1475967634574	1475967634659	BKSP	8
290850	3122607	England star Paul Gascoigne was one of the recipients of the loans.	England star Paul Gascoigne was one of the recipients of the loans.	148334647	1475967634669	1475967634761	a	65
290850	3122607	England star Paul Gascoigne was one of the recipients of the loans.	England star Paul Gascoigne was one of the recipients of the loans.	148334648	1475967634747	1475967634875	s	83
290850	3122607	England star Paul Gascoigne was one of the recipients of the loans.	England star Paul Gascoigne was one of the recipients of the loans.	148334649	1475967635120	1475967635221	c	67
290850	3122607	England star Paul Gascoigne was one of the recipients of the loans.	England star Paul Gascoigne was one of the recipients of the loans.	148334667	1475967635231	1475967635341	o	79
290850	3122607	England star Paul Gascoigne was one of the recipients of the loans.	England star Paul Gascoigne was one of the recipients of the loans.	148334668	1475967635411	1475967635500	i	73
290850	3122607	England star Paul Gascoigne was one of the recipients of the loans.	England star Paul Gascoigne was one of the recipients of the loans.	148334670	1475967635488	1475967635580	n	78
290850	3122607	England star Paul Gascoigne was one of the recipients of the loans.	England star Paul Gascoigne was one of the recipients of the loans.	148334672	1475967636015	1475967636111	g	71
290850	3122607	England star Paul Gascoigne was one of the recipients of the loans.	England star Paul Gascoigne was one of the recipients of the loans.	148334674	1475967636261	1475967636317	BKSP	8
290850	3122607	England star Paul Gascoigne was one of the recipients of the loans.	England star Paul Gascoigne was one of the recipients of the loans.	148334676	1475967636365	1475967636440	BKSP	8
290850	3122607	England star Paul Gascoigne was one of the recipients of the loans.	England star Paul Gascoigne was one of the recipients of the loans.	148334678	1475967636513	1475967636582	g	71
290850	3122607	England star Paul Gascoigne was one of the recipients of the loans.	England star Paul Gascoigne was one of the recipients of the loans.	148334682	1475967636656	1475967636745	n	78
290850	3122607	England star Paul Gascoigne was one of the recipients of the loans.	England star Paul Gascoigne was one of the recipients of the loans.	148334684	1475967636750	1475967636850	e	69
290850	3122607	England star Paul Gascoigne was one of the recipients of the loans.	England star Paul Gascoigne was one of the recipients of the loans.	148334686	1475967636827	1475967636917	 	32
290850	3122607	England star Paul Gascoigne was one of the recipients of the loans.	England star Paul Gascoigne was one of the recipients of the loans.	148334688	1475967636958	1475967637025	w	87
290850	3122607	England star Paul Gascoigne was one of the recipients of the loans.	England star Paul Gascoigne was one of the recipients of the loans.	148334711	1475967637023	1475967637141	a	65
290850	3122607	England star Paul Gascoigne was one of the recipients of the loans.	England star Paul Gascoigne was one of the recipients of the loans.	148334712	1475967637081	1475967637195	s	83
290850	3122607	England star Paul Gascoigne was one of the recipients of the loans.	England star Paul Gascoigne was one of the recipients of the loans.	148334713	1475967637144	1475967637263	 	32
290850	3122607	England star Paul Gascoigne was one of the recipients of the loans.	England star Paul Gascoigne was one of the recipients of the loans.	148334714	1475967637422	1475967637531	o	79
290850	3122607	England star Paul Gascoigne was one of the recipients of the loans.	England star Paul Gascoigne was one of the recipients of the loans.	148334715	1475967637508	1475967637610	n	78
290850	3122607	England star Paul Gascoigne was one of the recipients of the loans.	England star Paul Gascoigne was one of the recipients of the loans.	148334718	1475967637602	1475967637695	e	69
290850	3122607	England star Paul Gascoigne was one of the recipients of the loans.	England star Paul Gascoigne was one of the recipients of the loans.	148334721	1475967637667	1475967637782	 	32
290850	3122607	England star Paul Gascoigne was one of the recipients of the loans.	England star Paul Gascoigne was one of the recipients of the loans.	148334724	1475967637775	1475967637903	o	79
290850	3122607	England star Paul Gascoigne was one of the recipients of the loans.	England star Paul Gascoigne was one of the recipients of the loans.	148334727	1475967637855	1475967637949	f	70
290850	3122607	England star Paul Gascoigne was one of the recipients of the loans.	England star Paul Gascoigne was one of the recipients of the loans.	148334728	1475967637929	1475967638017	 	32
290850	3122607	England star Paul Gascoigne was one of the recipients of the loans.	England star Paul Gascoigne was one of the recipients of the loans.	148334737	1475967637977	1475967638123	t	84
290850	3122607	England star Paul Gascoigne was one of the recipients of the loans.	England star Paul Gascoigne was one of the recipients of the loans.	148334739	1475967638028	1475967638181	h	72
290850	3122607	England star Paul Gascoigne was one of the recipients of the loans.	England star Paul Gascoigne was one of the recipients of the loans.	148334742	1475967638062	1475967638186	e	69
290850	3122607	England star Paul Gascoigne was one of the recipients of the loans.	England star Paul Gascoigne was one of the recipients of the loans.	148334747	1475967638131	1475967638218	 	32
290850	3122607	England star Paul Gascoigne was one of the recipients of the loans.	England star Paul Gascoigne was one of the recipients of the loans.	148334751	1475967638275	1475967638409	r	82
290850	3122607	England star Paul Gascoigne was one of the recipients of the loans.	England star Paul Gascoigne was one of the recipients of the loans.	148334768	1475967638381	1475967638492	e	69
290850	3122607	England star Paul Gascoigne was one of the recipients of the loans.	England star Paul Gascoigne was one of the recipients of the loans.	148334771	1475967638513	1475967638647	c	67
290850	3122607	England star Paul Gascoigne was one of the recipients of the loans.	England star Paul Gascoigne was one of the recipients of the loans.	148334772	1475967638629	1475967638726	i	73
290850	3122607	England star Paul Gascoigne was one of the recipients of the loans.	England star Paul Gascoigne was one of the recipients of the loans.	148334775	1475967638855	1475967638963	p	80
290850	3122607	England star Paul Gascoigne was one of the recipients of the loans.	England star Paul Gascoigne was one of the recipients of the loans.	148334776	1475967639044	1475967639138	i	73
290850	3122607	England star Paul Gascoigne was one of the recipients of the loans.	England star Paul Gascoigne was one of the recipients of the loans.	148334779	1475967639149	1475967639271	e	69
290850	3122607	England star Paul Gascoigne was one of the recipients of the loans.	England star Paul Gascoigne was one of the recipients of the loans.	148334794	1475967639237	1475967639343	n	78
290850	3122607	England star Paul Gascoigne was one of the recipients of the loans.	England star Paul Gascoigne was one of the recipients of the loans.	148334797	1475967639378	1475967639466	t	84
290850	3122607	England star Paul Gascoigne was one of the recipients of the loans.	England star Paul Gascoigne was one of the recipients of the loans.	148334799	1475967639513	1475967639640	s	83
290850	3122607	England star Paul Gascoigne was one of the recipients of the loans.	England star Paul Gascoigne was one of the recipients of the loans.	148334801	1475967639595	1475967639679	 	32
290850	3122607	England star Paul Gascoigne was one of the recipients of the loans.	England star Paul Gascoigne was one of the recipients of the loans.	148334804	1475967639638	1475967639751	o	79
290850	3122607	England star Paul Gascoigne was one of the recipients of the loans.	England star Paul Gascoigne was one of the recipients of the loans.	148334808	1475967639795	1475967639886	f	70
290850	3122607	England star Paul Gascoigne was one of the recipients of the loans.	England star Paul Gascoigne was one of the recipients of the loans.	148334820	1475967639883	1475967639975	 	32
290850	3122607	England star Paul Gascoigne was one of the recipients of the loans.	England star Paul Gascoigne was one of the recipients of the loans.	148334821	1475967639982	1475967640115	t	84
290850	3122607	England star Paul Gascoigne was one of the recipients of the loans.	England star Paul Gascoigne was one of the recipients of the loans.	148334822	1475967640012	1475967640172	h	72
290850	3122607	England star Paul Gascoigne was one of the recipients of the loans.	England star Paul Gascoigne was one of the recipients of the loans.	148334823	1475967640048	1475967640173	e	69
290850	3122607	England star Paul Gascoigne was one of the recipients of the loans.	England star Paul Gascoigne was one of the recipients of the loans.	148334824	1475967640128	1475967640229	 	32
290850	3122607	England star Paul Gascoigne was one of the recipients of the loans.	England star Paul Gascoigne was one of the recipients of the loans.	148334825	1475967640287	1475967640395	l	76
290850	3122607	England star Paul Gascoigne was one of the recipients of the loans.	England star Paul Gascoigne was one of the recipients of the loans.	148334846	1475967640369	1475967640449	o	79
290850	3122607	England star Paul Gascoigne was one of the recipients of the loans.	England star Paul Gascoigne was one of the recipients of the loans.	148334849	1475967640651	1475967640748	a	65
290850	3122607	England star Paul Gascoigne was one of the recipients of the loans.	England star Paul Gascoigne was one of the recipients of the loans.	148334852	1475967640762	1475967640847	n	78
290850	3122607	England star Paul Gascoigne was one of the recipients of the loans.	England star Paul Gascoigne was one of the recipients of the loans.	148334856	1475967640911	1475967641001	s	83
290850	3122619	Call me if you have any questions.	Call me if you have any questions.	148334942	1475967644026	1475967644219	SHIFT	16
290850	3122619	Call me if you have any questions.	Call me if you have any questions.	148334944	1475967644151	1475967644251	C	67
290850	3122619	Call me if you have any questions.	Call me if you have any questions.	148334946	1475967644307	1475967644409	a	65
290850	3122619	Call me if you have any questions.	Call me if you have any questions.	148334949	1475967644349	1475967644425	l	76
290850	3122619	Call me if you have any questions.	Call me if you have any questions.	148334954	1475967644457	1475967644562	l	76
290850	3122619	Call me if you have any questions.	Call me if you have any questions.	148334965	1475967644505	1475967644596	 	32
290850	3122619	Call me if you have any questions.	Call me if you have any questions.	148334967	1475967644623	1475967644723	m	77
290850	3122619	Call me if you have any questions.	Call me if you have any questions.	148334969	1475967644686	1475967644788	e	69
290850	3122619	Call me if you have any questions.	Call me if you have any questions.	148334971	1475967644754	1475967644863	 	32
290850	3122619	Call me if you have any questions.	Call me if you have any questions.	148334974	1475967644899	1475967644974	i	73
290850	3122619	Call me if you have any questions.	Call me if you have any questions.	148334977	1475967645109	1475967645198	f	70
290850	3122619	Call me if you have any questions.	Call me if you have any questions.	148334983	1475967645207	1475967645321	 	32
290850	3122619	Call me if you have any questions.	Call me if you have any questions.	148334986	1475967645323	1475967645419	y	89
290850	3122619	Call me if you have any questions.	Call me if you have any questions.	148334988	1475967645407	1475967645521	o	79
290850	3122619	Call me if you have any questions.	Call me if you have any questions.	148334991	1475967645483	1475967645597	u	85
290850	3122619	Call me if you have any questions.	Call me if you have any questions.	148335006	1475967645579	1475967645678	 	32
290850	3122619	Call me if you have any questions.	Call me if you have any questions.	148335010	1475967645715	1475967645815	h	72
290850	3122619	Call me if you have any questions.	Call me if you have any questions.	148335014	1475967645801	1475967645895	a	65
290850	3122619	Call me if you have any questions.	Call me if you have any questions.	148335016	1475967645881	1475967645971	v	86
290850	3122619	Call me if you have any questions.	Call me if you have any questions.	148335019	1475967645956	1475967646054	e	69
290850	3122619	Call me if you have any questions.	Call me if you have any questions.	148335031	1475967646033	1475967646120	 	32
290850	3122619	Call me if you have any questions.	Call me if you have any questions.	148335033	1475967646113	1475967646224	a	65
290850	3122619	Call me if you have any questions.	Call me if you have any questions.	148335036	1475967646185	1475967646286	n	78
290850	3122619	Call me if you have any questions.	Call me if you have any questions.	148335039	1475967646294	1475967646382	y	89
290850	3122619	Call me if you have any questions.	Call me if you have any questions.	148335043	1475967646372	1475967646493	 	32
290850	3122619	Call me if you have any questions.	Call me if you have any questions.	148335047	1475967646545	1475967646651	q	81
290850	3122619	Call me if you have any questions.	Call me if you have any questions.	148335053	1475967646695	1475967646847	u	85
290850	3122619	Call me if you have any questions.	Call me if you have any questions.	148335054	1475967646829	1475967646948	e	69
290850	3122619	Call me if you have any questions.	Call me if you have any questions.	148335055	1475967646930	1475967647028	s	83
290850	3122619	Call me if you have any questions.	Call me if you have any questions.	148335056	1475967647075	1475967647186	t	84
290850	3122619	Call me if you have any questions.	Call me if you have any questions.	148335072	1475967647177	1475967647301	i	73
290850	3122619	Call me if you have any questions.	Call me if you have any questions.	148335074	1475967647233	1475967647330	o	79
290850	3122619	Call me if you have any questions.	Call me if you have any questions.	148335076	1475967647269	1475967647374	n	78
290850	3122619	Call me if you have any questions.	Call me if you have any questions.	148335078	1475967647399	1475967647493	s	83
290850	3122619	Call me if you have any questions.	Call me if you have any questions.	148335080	1475967647466	1475967647562	.	190
290850	3122623	We don't seem to have any positive income there.	We don't seem to have any positive income there.	148335167	1475967650008	1475967650216	SHIFT	16
290850	3122623	We don't seem to have any positive income there.	We don't seem to have any positive income there.	148335168	1475967650150	1475967650237	W	87
290850	3122623	We don't seem to have any positive income there.	We don't seem to have any positive income there.	148335169	1475967650273	1475967650375	e	69
290850	3122623	We don't seem to have any positive income there.	We don't seem to have any positive income there.	148335170	1475967650516	1475967650626	 	32
290850	3122623	We don't seem to have any positive income there.	We don't seem to have any positive income there.	148335171	1475967650695	1475967650784	d	68
290850	3122623	We don't seem to have any positive income there.	We don't seem to have any positive income there.	148335175	1475967650767	1475967650865	o	79
290850	3122623	We don't seem to have any positive income there.	We don't seem to have any positive income there.	148335177	1475967650842	1475967650961	n	78
290850	3122623	We don't seem to have any positive income there.	We don't seem to have any positive income there.	148335181	1475967650943	1475967651037	'	222
290850	3122623	We don't seem to have any positive income there.	We don't seem to have any positive income there.	148335184	1475967651031	1475967651153	t	84
290850	3122623	We don't seem to have any positive income there.	We don't seem to have any positive income there.	148335188	1475967651095	1475967651209	 	32
290850	3122623	We don't seem to have any positive income there.	We don't seem to have any positive income there.	148335191	1475967651210	1475967651301	s	83
290850	3122623	We don't seem to have any positive income there.	We don't seem to have any positive income there.	148335199	1475967651326	1475967651409	e	69
290850	3122623	We don't seem to have any positive income there.	We don't seem to have any positive income there.	148335202	1475967651455	1475967651558	e	69
290850	3122623	We don't seem to have any positive income there.	We don't seem to have any positive income there.	148335206	1475967651524	1475967651638	m	77
290850	3122623	We don't seem to have any positive income there.	We don't seem to have any positive income there.	148335209	1475967651573	1475967651672	 	32
290850	3122623	We don't seem to have any positive income there.	We don't seem to have any positive income there.	148335212	1475967651681	1475967651779	t	84
290850	3122623	We don't seem to have any positive income there.	We don't seem to have any positive income there.	148335223	1475967651771	1475967651869	o	79
290850	3122623	We don't seem to have any positive income there.	We don't seem to have any positive income there.	148335226	1475967651834	1475967651909	 	32
290850	3122623	We don't seem to have any positive income there.	We don't seem to have any positive income there.	148335229	1475967651936	1475967652027	h	72
290850	3122623	We don't seem to have any positive income there.	We don't seem to have any positive income there.	148335232	1475967651997	1475967652099	a	65
290850	3122623	We don't seem to have any positive income there.	We don't seem to have any positive income there.	148335235	1475967652079	1475967652166	v	86
290850	3122623	We don't seem to have any positive income there.	We don't seem to have any positive income there.	148335237	1475967652149	1475967652237	e	69
290850	3122623	We don't seem to have any positive income there.	We don't seem to have any positive income there.	148335239	1475967652221	1475967652312	 	32
290850	3122623	We don't seem to have any positive income there.	We don't seem to have any positive income there.	148335241	1475967652303	1475967652413	a	65
290850	3122623	We don't seem to have any positive income there.	We don't seem to have any positive income there.	148335243	1475967652363	1475967652490	n	78
290850	3122623	We don't seem to have any positive income there.	We don't seem to have any positive income there.	148335246	1475967652463	1475967652551	y	89
290850	3122623	We don't seem to have any positive income there.	We don't seem to have any positive income there.	148335252	1475967652541	1475967652668	 	32
290850	3122623	We don't seem to have any positive income there.	We don't seem to have any positive income there.	148335254	1475967652643	1475967652747	p	80
290850	3122623	We don't seem to have any positive income there.	We don't seem to have any positive income there.	148335256	1475967652728	1475967652843	o	79
290850	3122623	We don't seem to have any positive income there.	We don't seem to have any positive income there.	148335258	1475967652804	1475967652901	s	83
290850	3122623	We don't seem to have any positive income there.	We don't seem to have any positive income there.	148335260	1475967652927	1475967653009	i	73
290850	3122623	We don't seem to have any positive income there.	We don't seem to have any positive income there.	148335273	1475967653003	1475967653123	t	84
290850	3122623	We don't seem to have any positive income there.	We don't seem to have any positive income there.	148335277	1475967653082	1475967653182	i	73
290850	3122623	We don't seem to have any positive income there.	We don't seem to have any positive income there.	148335280	1475967653165	1475967653278	v	86
290850	3122623	We don't seem to have any positive income there.	We don't seem to have any positive income there.	148335283	1475967653250	1475967653359	e	69
290850	3122623	We don't seem to have any positive income there.	We don't seem to have any positive income there.	148335285	1475967653399	1475967653504	 	32
290850	3122623	We don't seem to have any positive income there.	We don't seem to have any positive income there.	148335286	1475967653531	1475967653627	i	73
290850	3122623	We don't seem to have any positive income there.	We don't seem to have any positive income there.	148335287	1475967653597	1475967653687	n	78
290850	3122623	We don't seem to have any positive income there.	We don't seem to have any positive income there.	148335288	1475967653746	1475967653828	c	67
290850	3122623	We don't seem to have any positive income there.	We don't seem to have any positive income there.	148335289	1475967653828	1475967653919	o	79
290850	3122623	We don't seem to have any positive income there.	We don't seem to have any positive income there.	148335290	1475967653913	1475967654004	m	77
290850	3122623	We don't seem to have any positive income there.	We don't seem to have any positive income there.	148335291	1475967653971	1475967654064	e	69
290850	3122623	We don't seem to have any positive income there.	We don't seem to have any positive income there.	148335297	1475967654045	1475967654153	 	32
290850	3122623	We don't seem to have any positive income there.	We don't seem to have any positive income there.	148335300	1475967654082	1475967654218	t	84
290850	3122623	We don't seem to have any positive income there.	We don't seem to have any positive income there.	148335302	1475967654157	1475967654272	h	72
290850	3122623	We don't seem to have any positive income there.	We don't seem to have any positive income there.	148335305	1475967654222	1475967654317	e	69
290850	3122623	We don't seem to have any positive income there.	We don't seem to have any positive income there.	148335308	1475967654298	1475967654402	r	82
290850	3122623	We don't seem to have any positive income there.	We don't seem to have any positive income there.	148335306	1475967654363	1475967654442	e	69
290850	3122630	This is good I think.	This is good I think.	148335387	1475967657068	1475967657227	SHIFT	16
290850	3122630	This is good I think.	This is good I think.	148335392	1475967657140	1475967657232	T	84
290850	3122630	This is good I think.	This is good I think.	148335397	1475967657257	1475967657347	h	72
290850	3122630	This is good I think.	This is good I think.	148335401	1475967657352	1475967657445	i	73
290850	3122630	This is good I think.	This is good I think.	148335404	1475967657391	1475967657529	s	83
290850	3122630	This is good I think.	This is good I think.	148335423	1475967657466	1475967657585	 	32
290850	3122630	This is good I think.	This is good I think.	148335426	1475967657578	1475967657685	i	73
290850	3122630	This is good I think.	This is good I think.	148335428	1475967657762	1475967657895	s	83
290850	3122630	This is good I think.	This is good I think.	148335431	1475967657791	1475967657910	 	32
290850	3122630	This is good I think.	This is good I think.	148335432	1475967657975	1475967658052	g	71
290850	3122630	This is good I think.	This is good I think.	148335434	1475967658054	1475967658131	o	79
290850	3122630	This is good I think.	This is good I think.	148335438	1475967658176	1475967658255	o	79
290850	3122630	This is good I think.	This is good I think.	148335440	1475967658237	1475967658377	d	68
290850	3122630	This is good I think.	This is good I think.	148335442	1475967658297	1475967658431	 	32
290850	3122630	This is good I think.	This is good I think.	148335445	1475967658602	1475967658718	SHIFT	16
290850	3122630	This is good I think.	This is good I think.	148335463	1475967658659	1475967658752	I	73
290850	3122630	This is good I think.	This is good I think.	148335465	1475967658709	1475967658802	 	32
290850	3122630	This is good I think.	This is good I think.	148335467	1475967658871	1475967658981	t	84
290850	3122630	This is good I think.	This is good I think.	148335470	1475967658917	1475967659039	h	72
290850	3122630	This is good I think.	This is good I think.	148335475	1475967658989	1475967659082	i	73
290850	3122630	This is good I think.	This is good I think.	148335479	1475967659065	1475967659157	n	78
290850	3122630	This is good I think.	This is good I think.	148335484	1475967659168	1475967659246	k	75
290850	3122635	Samantha would need around-the-clock care.	Samantha would need around-the-clock care.	148335647	1475967662461	1475967662761	SHIFT	16
290850	3122635	Samantha would need around-the-clock care.	Samantha would need around-the-clock care.	148335646	1475967662626	1475967662743	S	83
290850	3122635	Samantha would need around-the-clock care.	Samantha would need around-the-clock care.	148335651	1475967662850	1475967662936	a	65
290850	3122635	Samantha would need around-the-clock care.	Samantha would need around-the-clock care.	148335654	1475967662905	1475967663025	m	77
290850	3122635	Samantha would need around-the-clock care.	Samantha would need around-the-clock care.	148335657	1475967662999	1475967663111	a	65
290850	3122635	Samantha would need around-the-clock care.	Samantha would need around-the-clock care.	148335671	1475967663088	1475967663187	n	78
290850	3122635	Samantha would need around-the-clock care.	Samantha would need around-the-clock care.	148335673	1475967663305	1475967663449	t	84
290850	3122635	Samantha would need around-the-clock care.	Samantha would need around-the-clock care.	148335675	1475967663357	1475967663541	h	72
290850	3122635	Samantha would need around-the-clock care.	Samantha would need around-the-clock care.	148335677	1475967663515	1475967663621	a	65
290850	3122635	Samantha would need around-the-clock care.	Samantha would need around-the-clock care.	148335679	1475967663603	1475967663727	 	32
290850	3122635	Samantha would need around-the-clock care.	Samantha would need around-the-clock care.	148335680	1475967663794	1475967663877	w	87
290850	3122635	Samantha would need around-the-clock care.	Samantha would need around-the-clock care.	148335685	1475967663875	1475967663977	o	79
290850	3122635	Samantha would need around-the-clock care.	Samantha would need around-the-clock care.	148335687	1475967663933	1475967664046	l	85
290850	3122635	Samantha would need around-the-clock care.	Samantha would need around-the-clock care.	148335689	1475967664009	1475967664156	d	68
290850	3122635	Samantha would need around-the-clock care.	Samantha would need around-the-clock care.	148335692	1475967664063	1475967664188	 	32
290850	3122635	Samantha would need around-the-clock care.	Samantha would need around-the-clock care.	148335697	1475967664203	1475967664301	s	83
290850	3122635	Samantha would need around-the-clock care.	Samantha would need around-the-clock care.	148335733	1475967664323	1475967664408	e	69
290850	3122635	Samantha would need around-the-clock care.	Samantha would need around-the-clock care.	148335736	1475967664463	1475967664574	e	69
290850	3122635	Samantha would need around-the-clock care.	Samantha would need around-the-clock care.	148335739	1475967664552	1475967664711	d	68
290850	3122635	Samantha would need around-the-clock care.	Samantha would need around-the-clock care.	148335740	1475967664641	1475967664767	 	32
290850	3122635	Samantha would need around-the-clock care.	Samantha would need around-the-clock care.	148335742	1475967664898	1475967664956	BKSP	8
290850	3122635	Samantha would need around-the-clock care.	Samantha would need around-the-clock care.	148335743	1475967665002	1475967665078	BKSP	8
290850	3122635	Samantha would need around-the-clock care.	Samantha would need around-the-clock care.	148335745	1475967665121	1475967665188	BKSP	8
290850	3122635	Samantha would need around-the-clock care.	Samantha would need around-the-clock care.	148335746	1475967665232	1475967665303	BKSP	8
290850	3122635	Samantha would need around-the-clock care.	Samantha would need around-the-clock care.	148335748	1475967665343	1475967665409	BKSP	8
290850	3122635	Samantha would need around-the-clock care.	Samantha would need around-the-clock care.	148335749	1475967665704	1475967665775	n	78
290850	3122635	Samantha would need around-the-clock care.	Samantha would need around-the-clock care.	148335763	1475967665788	1475967665868	e	69
290850	3122635	Samantha would need around-the-clock care.	Samantha would need around-the-clock care.	148335764	1475967665910	1475967666034	e	69
290850	3122635	Samantha would need around-the-clock care.	Samantha would need around-the-clock care.	148335765	1475967665985	1475967666129	d	68
290850	3122635	Samantha would need around-the-clock care.	Samantha would need around-the-clock care.	148335767	1475967666036	1475967666185	 	32
290850	3122635	Samantha would need around-the-clock care.	Samantha would need around-the-clock care.	148335771	1475967666207	1475967666317	a	65
290850	3122635	Samantha would need around-the-clock care.	Samantha would need around-the-clock care.	148335786	1475967666270	1475967666384	r	82
290850	3122635	Samantha would need around-the-clock care.	Samantha would need around-the-clock care.	148335789	1475967666392	1475967666526	o	79
290850	3122635	Samantha would need around-the-clock care.	Samantha would need around-the-clock care.	148335794	1475967666513	1475967666619	u	85
290850	3122635	Samantha would need around-the-clock care.	Samantha would need around-the-clock care.	148335797	1475967666551	1475967666698	n	78
290850	3122635	Samantha would need around-the-clock care.	Samantha would need around-the-clock care.	148335798	1475967666622	1475967666792	d	68
290850	3122635	Samantha would need around-the-clock care.	Samantha would need around-the-clock care.	148335800	1475967666866	1475967666957	 	32
290850	3122635	Samantha would need around-the-clock care.	Samantha would need around-the-clock care.	148335840	1475967667015	1475967667113	-	189
290850	3122635	Samantha would need around-the-clock care.	Samantha would need around-the-clock care.	148335841	1475967667278	1475967667344	BKSP	8
290850	3122635	Samantha would need around-the-clock care.	Samantha would need around-the-clock care.	148335842	1475967667383	1475967667455	BKSP	8
290850	3122635	Samantha would need around-the-clock care.	Samantha would need around-the-clock care.	148335843	1475967667557	1475967667628	-	189
290850	3122635	Samantha would need around-the-clock care.	Samantha would need around-the-clock care.	148335845	1475967668066	1475967668205	t	84
290850	3122635	Samantha would need around-the-clock care.	Samantha would need around-the-clock care.	148335867	1475967668137	1475967668267	h	72
290850	3122635	Samantha would need around-the-clock care.	Samantha would need around-the-clock care.	148335870	1475967668203	1475967668331	e	69
290850	3122635	Samantha would need around-the-clock care.	Samantha would need around-the-clock care.	148335873	1475967668441	1475967668550	-	189
290850	3122635	Samantha would need around-the-clock care.	Samantha would need around-the-clock care.	148335875	1475967668706	1475967668786	c	67
290850	3122635	Samantha would need around-the-clock care.	Samantha would need around-the-clock care.	148335878	1475967668869	1475967668967	l	76
290850	3122635	Samantha would need around-the-clock care.	Samantha would need around-the-clock care.	148335881	1475967668989	1475967669076	o	79
290850	3122635	Samantha would need around-the-clock care.	Samantha would need around-the-clock care.	148335916	1475967669072	1475967669178	c	67
290850	3122635	Samantha would need around-the-clock care.	Samantha would need around-the-clock care.	148335918	1475967669171	1475967669265	k	75
290850	3122635	Samantha would need around-the-clock care.	Samantha would need around-the-clock care.	148335919	1475967669348	1475967669468	-	189
290850	3122635	Samantha would need around-the-clock care.	Samantha would need around-the-clock care.	148335922	1475967669659	1475967669755	c	67
290850	3122635	Samantha would need around-the-clock care.	Samantha would need around-the-clock care.	148335923	1475967669769	1475967669887	a	65
290850	3122635	Samantha would need around-the-clock care.	Samantha would need around-the-clock care.	148335926	1475967670041	1475967670099	BKSP	8
290850	3122635	Samantha would need around-the-clock care.	Samantha would need around-the-clock care.	148335931	1475967670146	1475967670225	BKSP	8
290850	3122635	Samantha would need around-the-clock care.	Samantha would need around-the-clock care.	148335934	1475967670248	1475967670366	BKSP	8
290850	3122635	Samantha would need around-the-clock care.	Samantha would need around-the-clock care.	148335945	1475967670334	1475967670455	 	32
290850	3122635	Samantha would need around-the-clock care.	Samantha would need around-the-clock care.	148335946	1475967670541	1475967670624	c	67
290850	3122635	Samantha would need around-the-clock care.	Samantha would need around-the-clock care.	148335947	1475967670640	1475967670735	a	65
290850	3122635	Samantha would need around-the-clock care.	Samantha would need around-the-clock care.	148335948	1475967670729	1475967670809	r	82
290850	3122635	Samantha would need around-the-clock care.	Samantha would need around-the-clock care.	148335949	1475967670807	1475967670884	e	69
290850	3122646	The ceremony was followed by the premiere of the opening film.	The ceremony was followed by the premiere of the opening film.	148336065	1475967673239	1475967673910	SHIFT	16
290850	3122646	The ceremony was followed by the premiere of the opening film.	The ceremony was followed by the premiere of the opening film.	148336069	1475967674507	1475967674690	SHIFT	16
290850	3122646	The ceremony was followed by the premiere of the opening film.	The ceremony was followed by the premiere of the opening film.	148336073	1475967674622	1475967674708	T	84
290850	3122646	The ceremony was followed by the premiere of the opening film.	The ceremony was followed by the premiere of the opening film.	148336077	1475967674765	1475967674849	h	72
290850	3122646	The ceremony was followed by the premiere of the opening film.	The ceremony was followed by the premiere of the opening film.	148336081	1475967674823	1475967674936	e	69
290850	3122646	The ceremony was followed by the premiere of the opening film.	The ceremony was followed by the premiere of the opening film.	148336084	1475967674940	1475967675049	 	32
290850	3122646	The ceremony was followed by the premiere of the opening film.	The ceremony was followed by the premiere of the opening film.	148336087	1475967675130	1475967675223	c	67
290850	3122646	The ceremony was followed by the premiere of the opening film.	The ceremony was followed by the premiere of the opening film.	148336090	1475967675225	1475967675317	e	69
290850	3122646	The ceremony was followed by the premiere of the opening film.	The ceremony was followed by the premiere of the opening film.	148336091	1475967675284	1475967675393	r	82
290850	3122646	The ceremony was followed by the premiere of the opening film.	The ceremony was followed by the premiere of the opening film.	148336092	1475967675381	1475967675499	e	69
290850	3122646	The ceremony was followed by the premiere of the opening film.	The ceremony was followed by the premiere of the opening film.	148336094	1475967675488	1475967675597	m	77
290850	3122646	The ceremony was followed by the premiere of the opening film.	The ceremony was followed by the premiere of the opening film.	148336101	1475967675589	1475967675691	o	79
290850	3122646	The ceremony was followed by the premiere of the opening film.	The ceremony was followed by the premiere of the opening film.	148336104	1475967675651	1475967675781	n	78
290850	3122646	The ceremony was followed by the premiere of the opening film.	The ceremony was followed by the premiere of the opening film.	148336108	1475967675765	1475967675860	e	69
290850	3122646	The ceremony was followed by the premiere of the opening film.	The ceremony was followed by the premiere of the opening film.	148336113	1475967675913	1475967675991	y	89
290850	3122646	The ceremony was followed by the premiere of the opening film.	The ceremony was followed by the premiere of the opening film.	148336117	1475967675951	1475967676057	 	32
290850	3122646	The ceremony was followed by the premiere of the opening film.	The ceremony was followed by the premiere of the opening film.	148336122	1475967676105	1475967676211	w	87
290850	3122646	The ceremony was followed by the premiere of the opening film.	The ceremony was followed by the premiere of the opening film.	148336149	1475967676352	1475967676411	BKSP	8
290850	3122646	The ceremony was followed by the premiere of the opening film.	The ceremony was followed by the premiere of the opening film.	148336150	1475967676461	1475967676535	BKSP	8
290850	3122646	The ceremony was followed by the premiere of the opening film.	The ceremony was followed by the premiere of the opening film.	148336151	1475967676581	1475967676638	BKSP	8
290850	3122646	The ceremony was followed by the premiere of the opening film.	The ceremony was followed by the premiere of the opening film.	148336152	1475967676682	1475967676765	BKSP	8
290850	3122646	The ceremony was followed by the premiere of the opening film.	The ceremony was followed by the premiere of the opening film.	148336154	1475967676768	1475967676859	y	89
290850	3122646	The ceremony was followed by the premiere of the opening film.	The ceremony was followed by the premiere of the opening film.	148336156	1475967676793	1475967676898	 	32
290850	3122646	The ceremony was followed by the premiere of the opening film.	The ceremony was followed by the premiere of the opening film.	148336160	1475967676935	1475967677008	w	87
290850	3122646	The ceremony was followed by the premiere of the opening film.	The ceremony was followed by the premiere of the opening film.	148336164	1475967676997	1475967677100	a	65
290850	3122646	The ceremony was followed by the premiere of the opening film.	The ceremony was followed by the premiere of the opening film.	148336171	1475967677046	1475967677183	s	83
290850	3122646	The ceremony was followed by the premiere of the opening film.	The ceremony was followed by the premiere of the opening film.	148336172	1475967677110	1475967677239	 	32
290850	3122646	The ceremony was followed by the premiere of the opening film.	The ceremony was followed by the premiere of the opening film.	148336173	1475967677252	1475967677345	f	70
290850	3122646	The ceremony was followed by the premiere of the opening film.	The ceremony was followed by the premiere of the opening film.	148336174	1475967677428	1475967677527	o	79
290850	3122646	The ceremony was followed by the premiere of the opening film.	The ceremony was followed by the premiere of the opening film.	148336175	1475967677517	1475967677585	l	76
290850	3122646	The ceremony was followed by the premiere of the opening film.	The ceremony was followed by the premiere of the opening film.	148336177	1475967677631	1475967677720	l	76
290850	3122646	The ceremony was followed by the premiere of the opening film.	The ceremony was followed by the premiere of the opening film.	148336188	1475967677718	1475967677816	o	79
290850	3122646	The ceremony was followed by the premiere of the opening film.	The ceremony was followed by the premiere of the opening film.	148336191	1475967677800	1475967677897	w	87
290850	3122646	The ceremony was followed by the premiere of the opening film.	The ceremony was followed by the premiere of the opening film.	148336195	1475967677895	1475967678023	e	69
290850	3122646	The ceremony was followed by the premiere of the opening film.	The ceremony was followed by the premiere of the opening film.	148336197	1475967677991	1475967678101	d	68
290850	3122646	The ceremony was followed by the premiere of the opening film.	The ceremony was followed by the premiere of the opening film.	148336199	1475967678035	1475967678133	 	32
290850	3122646	The ceremony was followed by the premiere of the opening film.	The ceremony was followed by the premiere of the opening film.	148336201	1475967678165	1475967678266	b	66
290850	3122646	The ceremony was followed by the premiere of the opening film.	The ceremony was followed by the premiere of the opening film.	148336209	1475967678251	1475967678332	y	89
290850	3122646	The ceremony was followed by the premiere of the opening film.	The ceremony was followed by the premiere of the opening film.	148336212	1475967678327	1475967678422	 	32
290850	3122646	The ceremony was followed by the premiere of the opening film.	The ceremony was followed by the premiere of the opening film.	148336216	1475967678413	1475967678541	t	84
290850	3122646	The ceremony was followed by the premiere of the opening film.	The ceremony was followed by the premiere of the opening film.	148336219	1475967678446	1475967678587	h	72
290850	3122646	The ceremony was followed by the premiere of the opening film.	The ceremony was followed by the premiere of the opening film.	148336223	1475967678500	1475967678623	e	69
290850	3122646	The ceremony was followed by the premiere of the opening film.	The ceremony was followed by the premiere of the opening film.	148336239	1475967678587	1475967678703	 	32
290850	3122646	The ceremony was followed by the premiere of the opening film.	The ceremony was followed by the premiere of the opening film.	148336243	1475967678729	1475967678812	p	80
290850	3122646	The ceremony was followed by the premiere of the opening film.	The ceremony was followed by the premiere of the opening film.	148336245	1475967678783	1475967678911	r	82
290850	3122646	The ceremony was followed by the premiere of the opening film.	The ceremony was followed by the premiere of the opening film.	148336248	1475967678883	1475967679015	e	69
290850	3122646	The ceremony was followed by the premiere of the opening film.	The ceremony was followed by the premiere of the opening film.	148336249	1475967679009	1475967679129	m	77
290850	3122646	The ceremony was followed by the premiere of the opening film.	The ceremony was followed by the premiere of the opening film.	148336285	1475967679099	1475967679187	i	73
290850	3122646	The ceremony was followed by the premiere of the opening film.	The ceremony was followed by the premiere of the opening film.	148336287	1475967679159	1475967679291	e	69
290850	3122646	The ceremony was followed by the premiere of the opening film.	The ceremony was followed by the premiere of the opening film.	148336289	1475967679304	1475967679419	r	82
290850	3122646	The ceremony was followed by the premiere of the opening film.	The ceremony was followed by the premiere of the opening film.	148336292	1475967679399	1475967679519	e	69
290850	3122646	The ceremony was followed by the premiere of the opening film.	The ceremony was followed by the premiere of the opening film.	148336296	1475967679599	1475967679687	 	32
290850	3122646	The ceremony was followed by the premiere of the opening film.	The ceremony was followed by the premiere of the opening film.	148336302	1475967680151	1475967680270	o	79
290850	3122646	The ceremony was followed by the premiere of the opening film.	The ceremony was followed by the premiere of the opening film.	148336297	1475967680271	1475967680354	f	70
290850	3122646	The ceremony was followed by the premiere of the opening film.	The ceremony was followed by the premiere of the opening film.	148336303	1475967680295	1475967680361	 	32
290850	3122646	The ceremony was followed by the premiere of the opening film.	The ceremony was followed by the premiere of the opening film.	148336307	1475967680385	1475967680511	t	84
290850	3122646	The ceremony was followed by the premiere of the opening film.	The ceremony was followed by the premiere of the opening film.	148336319	1475967680434	1475967680584	h	72
290850	3122646	The ceremony was followed by the premiere of the opening film.	The ceremony was followed by the premiere of the opening film.	148336322	1475967680481	1475967680588	e	69
290850	3122646	The ceremony was followed by the premiere of the opening film.	The ceremony was followed by the premiere of the opening film.	148336323	1475967680533	1475967680627	 	32
290850	3122646	The ceremony was followed by the premiere of the opening film.	The ceremony was followed by the premiere of the opening film.	148336326	1475967680680	1475967680773	o	79
290850	3122646	The ceremony was followed by the premiere of the opening film.	The ceremony was followed by the premiere of the opening film.	148336327	1475967680795	1475967680825	m	77
290850	3122646	The ceremony was followed by the premiere of the opening film.	The ceremony was followed by the premiere of the opening film.	148336330	1475967680888	1475967681002	p	80
290850	3122646	The ceremony was followed by the premiere of the opening film.	The ceremony was followed by the premiere of the opening film.	148336362	1475967680953	1475967681089	e	69
290850	3122646	The ceremony was followed by the premiere of the opening film.	The ceremony was followed by the premiere of the opening film.	148336364	1475967681064	1475967681189	n	78
290850	3122646	The ceremony was followed by the premiere of the opening film.	The ceremony was followed by the premiere of the opening film.	148336366	1475967681359	1475967681407	BKSP	8
290850	3122646	The ceremony was followed by the premiere of the opening film.	The ceremony was followed by the premiere of the opening film.	148336368	1475967681459	1475967681531	BKSP	8
290850	3122646	The ceremony was followed by the premiere of the opening film.	The ceremony was followed by the premiere of the opening film.	148336370	1475967681578	1475967681635	BKSP	8
290850	3122646	The ceremony was followed by the premiere of the opening film.	The ceremony was followed by the premiere of the opening film.	148336373	1475967681679	1475967681758	BKSP	8
290850	3122646	The ceremony was followed by the premiere of the opening film.	The ceremony was followed by the premiere of the opening film.	148336375	1475967681700	1475967681821	p	80
290850	3122646	The ceremony was followed by the premiere of the opening film.	The ceremony was followed by the premiere of the opening film.	148336377	1475967681758	1475967681884	e	69
290850	3122646	The ceremony was followed by the premiere of the opening film.	The ceremony was followed by the premiere of the opening film.	148336379	1475967681894	1475967682005	n	78
290850	3122646	The ceremony was followed by the premiere of the opening film.	The ceremony was followed by the premiere of the opening film.	148336381	1475967682017	1475967682106	i	73
290850	3122646	The ceremony was followed by the premiere of the opening film.	The ceremony was followed by the premiere of the opening film.	148336384	1475967682080	1475967682208	n	78
290850	3122646	The ceremony was followed by the premiere of the opening film.	The ceremony was followed by the premiere of the opening film.	148336386	1475967682139	1475967682285	g	71
290850	3122646	The ceremony was followed by the premiere of the opening film.	The ceremony was followed by the premiere of the opening film.	148336388	1475967682188	1475967682337	 	32
290850	3122646	The ceremony was followed by the premiere of the opening film.	The ceremony was followed by the premiere of the opening film.	148336390	1475967682342	1475967682432	f	70
290850	3122646	The ceremony was followed by the premiere of the opening film.	The ceremony was followed by the premiere of the opening film.	148336391	1475967682503	1475967682592	i	73
290850	3122646	The ceremony was followed by the premiere of the opening film.	The ceremony was followed by the premiere of the opening film.	148336394	1475967682560	1475967682637	l	76
290850	3122646	The ceremony was followed by the premiere of the opening film.	The ceremony was followed by the premiere of the opening film.	148336396	1475967682638	1475967682697	m	77
290850	3122652	I was out Thurs.	I was out Thurs	148336450	1475967685141	1475967685277	SHIFT	16
290850	3122652	I was out Thurs.	I was out Thurs	148336451	1475967685225	1475967685323	I	73
290850	3122652	I was out Thurs.	I was out Thurs	148336452	1475967685278	1475967685379	 	32
290850	3122652	I was out Thurs.	I was out Thurs	148336453	1475967685399	1475967685505	w	87
290850	3122652	I was out Thurs.	I was out Thurs	148336454	1475967685505	1475967685621	a	65
290850	3122652	I was out Thurs.	I was out Thurs	148336472	1475967685539	1475967685678	s	83
290850	3122652	I was out Thurs.	I was out Thurs	148336473	1475967685613	1475967685738	 	32
290850	3122652	I was out Thurs.	I was out Thurs	148336474	1475967685759	1475967685832	o	79
290850	3122652	I was out Thurs.	I was out Thurs	148336476	1475967685901	1475967685964	o	85
290850	3122652	I was out Thurs.	I was out Thurs	148336478	1475967686263	1475967686309	BKSP	8
290850	3122652	I was out Thurs.	I was out Thurs	148336484	1475967686339	1475967686414	BKSP	8
290850	3122652	I was out Thurs.	I was out Thurs	148336487	1475967686401	1475967686505	u	85
290850	3122652	I was out Thurs.	I was out Thurs	148336502	1475967686494	1475967686630	t	84
290850	3122652	I was out Thurs.	I was out Thurs	148336504	1475967686549	1475967686680	 	32
290850	3122652	I was out Thurs.	I was out Thurs	148336506	1475967686910	1475967687046	SHIFT	16
290850	3122652	I was out Thurs.	I was out Thurs	148336509	1475967686995	1475967687077	T	84
290850	3122652	I was out Thurs.	I was out Thurs	148336514	1475967687131	1475967687223	h	72
290850	3122652	I was out Thurs.	I was out Thurs	148336518	1475967687225	1475967687321	u	85
290850	3122652	I was out Thurs.	I was out Thurs	148336520	1475967687303	1475967687389	r	82
290850	3122652	I was out Thurs.	I was out Thurs	148336523	1475967687429	1475967687511	s	83
290850	3122658	Let me know if you need anything else.	Let me know if you need anything eles.	148336651	1475967690159	1475967690353	SHIFT	16
290850	3122658	Let me know if you need anything else.	Let me know if you need anything eles.	148336654	1475967690296	1475967690375	R	76
290850	3122658	Let me know if you need anything else.	Let me know if you need anything eles.	148336658	1475967690406	1475967690516	e	69
290850	3122658	Let me know if you need anything else.	Let me know if you need anything eles.	148336726	1475967690459	1475967690581	t	84
290850	3122658	Let me know if you need anything else.	Let me know if you need anything eles.	148336728	1475967690511	1475967690624	 	32
290850	3122658	Let me know if you need anything else.	Let me know if you need anything eles.	148336732	1475967690639	1475967690741	m	77
290850	3122658	Let me know if you need anything else.	Let me know if you need anything eles.	148336735	1475967690877	1475967690941	BKSP	8
290850	3122658	Let me know if you need anything else.	Let me know if you need anything eles.	148336737	1475967690989	1475967691057	BKSP	8
290850	3122658	Let me know if you need anything else.	Let me know if you need anything eles.	148336741	1475967691105	1475967691175	BKSP	8
290850	3122658	Let me know if you need anything else.	Let me know if you need anything eles.	148336744	1475967691223	1475967691290	BKSP	8
290850	3122658	Let me know if you need anything else.	Let me know if you need anything eles.	148336747	1475967691332	1475967691403	BKSP	8
290850	3122658	Let me know if you need anything else.	Let me know if you need anything eles.	148336753	1475967691429	1475967691543	e	69
290850	3122658	Let me know if you need anything else.	Let me know if you need anything eles.	148336757	1475967691506	1475967691626	l	76
290850	3122658	Let me know if you need anything else.	Let me know if you need anything eles.	148336761	1475967691579	1475967691688	 	32
290850	3122658	Let me know if you need anything else.	Let me know if you need anything eles.	148336764	1475967691901	1475967691965	BKSP	8
290850	3122658	Let me know if you need anything else.	Let me know if you need anything eles.	148336767	1475967692008	1475967692087	BKSP	8
290850	3122658	Let me know if you need anything else.	Let me know if you need anything eles.	148336770	1475967692220	1475967692341	t	84
290850	3122658	Let me know if you need anything else.	Let me know if you need anything eles.	148336762	1475967692289	1475967692385	 	32
290850	3122658	Let me know if you need anything else.	Let me know if you need anything eles.	148336765	1475967692406	1475967692488	m	77
290850	3122658	Let me know if you need anything else.	Let me know if you need anything eles.	148336768	1475967692480	1475967692586	e	69
290850	3122658	Let me know if you need anything else.	Let me know if you need anything eles.	148336771	1475967692560	1475967692675	 	32
290850	3122658	Let me know if you need anything else.	Let me know if you need anything eles.	148336773	1475967692739	1475967692841	k	75
290850	3122658	Let me know if you need anything else.	Let me know if you need anything eles.	148336777	1475967692801	1475967692890	n	78
290850	3122658	Let me know if you need anything else.	Let me know if you need anything eles.	148336779	1475967692881	1475967692982	o	79
290850	3122658	Let me know if you need anything else.	Let me know if you need anything eles.	148336782	1475967692949	1475967693072	w	87
290850	3122658	Let me know if you need anything else.	Let me know if you need anything eles.	148336786	1475967693013	1475967693137	 	32
290850	3122658	Let me know if you need anything else.	Let me know if you need anything eles.	148336792	1475967693122	1475967693198	i	73
290850	3122658	Let me know if you need anything else.	Let me know if you need anything eles.	148336800	1475967693267	1475967693344	f	70
290850	3122658	Let me know if you need anything else.	Let me know if you need anything eles.	148336817	1475967693343	1475967693457	 	32
290850	3122658	Let me know if you need anything else.	Let me know if you need anything eles.	148336818	1475967693431	1475967693521	y	89
290850	3122658	Let me know if you need anything else.	Let me know if you need anything eles.	148336819	1475967693501	1475967693607	o	79
290850	3122658	Let me know if you need anything else.	Let me know if you need anything eles.	148336820	1475967693583	1475967693691	u	85
290850	3122658	Let me know if you need anything else.	Let me know if you need anything eles.	148336821	1475967693663	1475967693765	 	32
290850	3122658	Let me know if you need anything else.	Let me know if you need anything eles.	148336822	1475967693783	1475967693875	n	78
290850	3122658	Let me know if you need anything else.	Let me know if you need anything eles.	148336834	1475967693876	1475967693967	e	69
290850	3122658	Let me know if you need anything else.	Let me know if you need anything eles.	148336838	1475967694003	1475967694119	e	69
290850	3122658	Let me know if you need anything else.	Let me know if you need anything eles.	148336843	1475967694068	1475967694179	d	68
290850	3122658	Let me know if you need anything else.	Let me know if you need anything eles.	148336848	1475967694122	1475967694229	 	32
290850	3122658	Let me know if you need anything else.	Let me know if you need anything eles.	148336852	1475967694234	1475967694354	a	65
290850	3122658	Let me know if you need anything else.	Let me know if you need anything eles.	148336858	1475967694307	1475967694402	n	78
290850	3122658	Let me know if you need anything else.	Let me know if you need anything eles.	148336862	1475967694453	1475967694538	y	89
290850	3122658	Let me know if you need anything else.	Let me know if you need anything eles.	148336866	1475967694534	1475967694635	t	84
290850	3122658	Let me know if you need anything else.	Let me know if you need anything eles.	148336871	1475967694572	1475967694665	h	72
290850	3122658	Let me know if you need anything else.	Let me know if you need anything eles.	148336876	1475967694638	1475967694747	i	73
290850	3122658	Let me know if you need anything else.	Let me know if you need anything eles.	148336888	1475967694686	1475967694830	n	78
290850	3122658	Let me know if you need anything else.	Let me know if you need anything eles.	148336890	1475967694754	1475967694855	g	71
290850	3122658	Let me know if you need anything else.	Let me know if you need anything eles.	148336891	1475967694797	1475967694903	 	32
290850	3122658	Let me know if you need anything else.	Let me know if you need anything eles.	148336893	1475967694903	1475967695005	e	69
290850	3122658	Let me know if you need anything else.	Let me know if you need anything eles.	148336894	1475967694978	1475967695056	l	76
290850	3122658	Let me know if you need anything else.	Let me know if you need anything eles.	148336895	1475967695097	1475967695174	e	69
290850	3122658	Let me know if you need anything else.	Let me know if you need anything eles.	148336897	1475967695129	1475967695203	s	83
290850	3122661	Officials said Thursday that visit would take place on May 26 to 29.	Officials said Thursday that visit would take place on May 26 to 29	148337030	1475967698590	1475967698729	SHIFT	16
290850	3122661	Officials said Thursday that visit would take place on May 26 to 29.	Officials said Thursday that visit would take place on May 26 to 29	148337031	1475967698665	1475967698772	O	79
290850	3122661	Officials said Thursday that visit would take place on May 26 to 29.	Officials said Thursday that visit would take place on May 26 to 29	148337032	1475967698812	1475967698901	f	70
290850	3122661	Officials said Thursday that visit would take place on May 26 to 29.	Officials said Thursday that visit would take place on May 26 to 29	148337035	1475967698991	1475967699074	i	73
290850	3122661	Officials said Thursday that visit would take place on May 26 to 29.	Officials said Thursday that visit would take place on May 26 to 29	148337039	1475967699336	1475967699412	BKSP	8
290850	3122661	Officials said Thursday that visit would take place on May 26 to 29.	Officials said Thursday that visit would take place on May 26 to 29	148337043	1475967699439	1475967699522	f	70
290850	3122661	Officials said Thursday that visit would take place on May 26 to 29.	Officials said Thursday that visit would take place on May 26 to 29	148337047	1475967699604	1475967699671	i	73
290850	3122661	Officials said Thursday that visit would take place on May 26 to 29.	Officials said Thursday that visit would take place on May 26 to 29	148337058	1475967699678	1475967699791	c	67
290850	3122661	Officials said Thursday that visit would take place on May 26 to 29.	Officials said Thursday that visit would take place on May 26 to 29	148337061	1475967699768	1475967699885	i	73
290850	3122661	Officials said Thursday that visit would take place on May 26 to 29.	Officials said Thursday that visit would take place on May 26 to 29	148337067	1475967700035	1475967700136	a	65
290850	3122661	Officials said Thursday that visit would take place on May 26 to 29.	Officials said Thursday that visit would take place on May 26 to 29	148337072	1475967700120	1475967700195	l	76
290850	3122661	Officials said Thursday that visit would take place on May 26 to 29.	Officials said Thursday that visit would take place on May 26 to 29	148337076	1475967700274	1475967700406	s	83
290850	3122661	Officials said Thursday that visit would take place on May 26 to 29.	Officials said Thursday that visit would take place on May 26 to 29	148337094	1475967700353	1475967700483	 	32
290850	3122661	Officials said Thursday that visit would take place on May 26 to 29.	Officials said Thursday that visit would take place on May 26 to 29	148337096	1475967700545	1475967700652	s	83
290850	3122661	Officials said Thursday that visit would take place on May 26 to 29.	Officials said Thursday that visit would take place on May 26 to 29	148337098	1475967700678	1475967700787	a	65
290850	3122661	Officials said Thursday that visit would take place on May 26 to 29.	Officials said Thursday that visit would take place on May 26 to 29	148337100	1475967700889	1475967700991	i	73
290850	3122661	Officials said Thursday that visit would take place on May 26 to 29.	Officials said Thursday that visit would take place on May 26 to 29	148337101	1475967700969	1475967701095	d	68
290850	3122661	Officials said Thursday that visit would take place on May 26 to 29.	Officials said Thursday that visit would take place on May 26 to 29	148337123	1475967701009	1475967701149	 	32
290850	3122661	Officials said Thursday that visit would take place on May 26 to 29.	Officials said Thursday that visit would take place on May 26 to 29	148337125	1475967701223	1475967701361	SHIFT	16
290850	3122661	Officials said Thursday that visit would take place on May 26 to 29.	Officials said Thursday that visit would take place on May 26 to 29	148337127	1475967701283	1475967701374	T	84
290850	3122661	Officials said Thursday that visit would take place on May 26 to 29.	Officials said Thursday that visit would take place on May 26 to 29	148337129	1475967701509	1475967701623	h	72
290850	3122661	Officials said Thursday that visit would take place on May 26 to 29.	Officials said Thursday that visit would take place on May 26 to 29	148337132	1475967701635	1475967701718	u	85
290850	3122661	Officials said Thursday that visit would take place on May 26 to 29.	Officials said Thursday that visit would take place on May 26 to 29	148337136	1475967701668	1475967701769	r	82
290850	3122661	Officials said Thursday that visit would take place on May 26 to 29.	Officials said Thursday that visit would take place on May 26 to 29	148337139	1475967701827	1475967701969	s	83
290850	3122661	Officials said Thursday that visit would take place on May 26 to 29.	Officials said Thursday that visit would take place on May 26 to 29	148337149	1475967702074	1475967702183	d	68
290850	3122661	Officials said Thursday that visit would take place on May 26 to 29.	Officials said Thursday that visit would take place on May 26 to 29	148337151	1475967702121	1475967702251	a	65
290850	3122661	Officials said Thursday that visit would take place on May 26 to 29.	Officials said Thursday that visit would take place on May 26 to 29	148337152	1475967702213	1475967702317	y	89
290850	3122661	Officials said Thursday that visit would take place on May 26 to 29.	Officials said Thursday that visit would take place on May 26 to 29	148337154	1475967702289	1475967702395	 	32
290850	3122661	Officials said Thursday that visit would take place on May 26 to 29.	Officials said Thursday that visit would take place on May 26 to 29	148337157	1475967702382	1475967702498	t	84
290850	3122661	Officials said Thursday that visit would take place on May 26 to 29.	Officials said Thursday that visit would take place on May 26 to 29	148337159	1475967702438	1475967702573	h	72
290850	3122661	Officials said Thursday that visit would take place on May 26 to 29.	Officials said Thursday that visit would take place on May 26 to 29	148337161	1475967702506	1475967702610	a	65
290850	3122661	Officials said Thursday that visit would take place on May 26 to 29.	Officials said Thursday that visit would take place on May 26 to 29	148337163	1475967702576	1475967702704	t	84
290850	3122661	Officials said Thursday that visit would take place on May 26 to 29.	Officials said Thursday that visit would take place on May 26 to 29	148337167	1475967702635	1475967702746	 	32
290850	3122661	Officials said Thursday that visit would take place on May 26 to 29.	Officials said Thursday that visit would take place on May 26 to 29	148337170	1475967702787	1475967702871	v	86
290850	3122661	Officials said Thursday that visit would take place on May 26 to 29.	Officials said Thursday that visit would take place on May 26 to 29	148337184	1475967702878	1475967702966	i	73
290850	3122661	Officials said Thursday that visit would take place on May 26 to 29.	Officials said Thursday that visit would take place on May 26 to 29	148337186	1475967702959	1475967703063	s	83
290850	3122661	Officials said Thursday that visit would take place on May 26 to 29.	Officials said Thursday that visit would take place on May 26 to 29	148337188	1475967703061	1475967703161	i	73
290850	3122661	Officials said Thursday that visit would take place on May 26 to 29.	Officials said Thursday that visit would take place on May 26 to 29	148337190	1475967703218	1475967703338	t	84
290850	3122661	Officials said Thursday that visit would take place on May 26 to 29.	Officials said Thursday that visit would take place on May 26 to 29	148337196	1475967703283	1475967703389	 	32
290850	3122661	Officials said Thursday that visit would take place on May 26 to 29.	Officials said Thursday that visit would take place on May 26 to 29	148337199	1475967703420	1475967703497	w	87
290850	3122661	Officials said Thursday that visit would take place on May 26 to 29.	Officials said Thursday that visit would take place on May 26 to 29	148337202	1475967703493	1475967703584	o	79
290850	3122661	Officials said Thursday that visit would take place on May 26 to 29.	Officials said Thursday that visit would take place on May 26 to 29	148337205	1475967703558	1475967703653	l	85
290850	3122661	Officials said Thursday that visit would take place on May 26 to 29.	Officials said Thursday that visit would take place on May 26 to 29	148337220	1475967703643	1475967703756	d	68
290850	3122661	Officials said Thursday that visit would take place on May 26 to 29.	Officials said Thursday that visit would take place on May 26 to 29	148337223	1475967703685	1475967703771	 	32
290850	3122661	Officials said Thursday that visit would take place on May 26 to 29.	Officials said Thursday that visit would take place on May 26 to 29	148337225	1475967703855	1475967703957	t	84
290850	3122661	Officials said Thursday that visit would take place on May 26 to 29.	Officials said Thursday that visit would take place on May 26 to 29	148337227	1475967703931	1475967704038	a	65
290850	3122661	Officials said Thursday that visit would take place on May 26 to 29.	Officials said Thursday that visit would take place on May 26 to 29	148337230	1475967704033	1475967704135	k	75
290850	3122661	Officials said Thursday that visit would take place on May 26 to 29.	Officials said Thursday that visit would take place on May 26 to 29	148337249	1475967704085	1475967704194	e	69
290850	3122661	Officials said Thursday that visit would take place on May 26 to 29.	Officials said Thursday that visit would take place on May 26 to 29	148337251	1475967704189	1475967704303	 	32
290850	3122661	Officials said Thursday that visit would take place on May 26 to 29.	Officials said Thursday that visit would take place on May 26 to 29	148337252	1475967704401	1475967704487	p	80
290850	3122661	Officials said Thursday that visit would take place on May 26 to 29.	Officials said Thursday that visit would take place on May 26 to 29	148337253	1475967704500	1475967704594	l	76
290850	3122661	Officials said Thursday that visit would take place on May 26 to 29.	Officials said Thursday that visit would take place on May 26 to 29	148337254	1475967704554	1475967704638	a	65
290850	3122661	Officials said Thursday that visit would take place on May 26 to 29.	Officials said Thursday that visit would take place on May 26 to 29	148337255	1475967704669	1475967704778	c	67
290850	3122661	Officials said Thursday that visit would take place on May 26 to 29.	Officials said Thursday that visit would take place on May 26 to 29	148337263	1475967704774	1475967704874	e	69
290850	3122661	Officials said Thursday that visit would take place on May 26 to 29.	Officials said Thursday that visit would take place on May 26 to 29	148337264	1475967704863	1475967704983	 	32
290850	3122661	Officials said Thursday that visit would take place on May 26 to 29.	Officials said Thursday that visit would take place on May 26 to 29	148337267	1475967705069	1475967705181	o	79
290850	3122661	Officials said Thursday that visit would take place on May 26 to 29.	Officials said Thursday that visit would take place on May 26 to 29	148337270	1475967705155	1475967705254	n	78
290850	3122661	Officials said Thursday that visit would take place on May 26 to 29.	Officials said Thursday that visit would take place on May 26 to 29	148337274	1475967705191	1475967705296	 	32
290850	3122661	Officials said Thursday that visit would take place on May 26 to 29.	Officials said Thursday that visit would take place on May 26 to 29	148337278	1475967705293	1475967705414	SHIFT	16
290850	3122661	Officials said Thursday that visit would take place on May 26 to 29.	Officials said Thursday that visit would take place on May 26 to 29	148337295	1475967705363	1475967705491	M	77
290850	3122661	Officials said Thursday that visit would take place on May 26 to 29.	Officials said Thursday that visit would take place on May 26 to 29	148337296	1475967705492	1475967705601	a	65
290850	3122661	Officials said Thursday that visit would take place on May 26 to 29.	Officials said Thursday that visit would take place on May 26 to 29	148337298	1475967705595	1475967705670	p	89
290850	3122661	Officials said Thursday that visit would take place on May 26 to 29.	Officials said Thursday that visit would take place on May 26 to 29	148337299	1475967706073	1475967706161	BKSP	8
290850	3122661	Officials said Thursday that visit would take place on May 26 to 29.	Officials said Thursday that visit would take place on May 26 to 29	148337301	1475967706251	1475967706358	 	32
290850	3122661	Officials said Thursday that visit would take place on May 26 to 29.	Officials said Thursday that visit would take place on May 26 to 29	148337321	1475967706343	1475967706461	2	50
290850	3122661	Officials said Thursday that visit would take place on May 26 to 29.	Officials said Thursday that visit would take place on May 26 to 29	148337322	1475967706605	1475967706731	6	54
290850	3122661	Officials said Thursday that visit would take place on May 26 to 29.	Officials said Thursday that visit would take place on May 26 to 29	148337324	1475967706896	1475967706998	 	32
290850	3122661	Officials said Thursday that visit would take place on May 26 to 29.	Officials said Thursday that visit would take place on May 26 to 29	148337326	1475967707033	1475967707137	t	84
290850	3122661	Officials said Thursday that visit would take place on May 26 to 29.	Officials said Thursday that visit would take place on May 26 to 29	148337328	1475967707104	1475967707182	o	79
290850	3122661	Officials said Thursday that visit would take place on May 26 to 29.	Officials said Thursday that visit would take place on May 26 to 29	148337330	1475967707190	1475967707301	 	32
290850	3122661	Officials said Thursday that visit would take place on May 26 to 29.	Officials said Thursday that visit would take place on May 26 to 29	148337354	1475967707368	1475967707468	2	50
290850	3122661	Officials said Thursday that visit would take place on May 26 to 29.	Officials said Thursday that visit would take place on May 26 to 29	148337355	1475967707667	1475967707761	8	57
290850	3122661	Officials said Thursday that visit would take place on May 26 to 29.	Officials said Thursday that visit would take place on May 26 to 29	148337356	1475967708059	1475967708140	BKSP	8
290850	3122672	Has Dynegy made a specific request?	Has Dynegy made a specific request?	148337443	1475967710444	1475967710978	SHIFT	16
290850	3122672	Has Dynegy made a specific request?	Has Dynegy made a specific request?	148337446	1475967710901	1475967711023	H	72
290850	3122672	Has Dynegy made a specific request?	Has Dynegy made a specific request?	148337449	1475967711055	1475967711168	a	65
290850	3122672	Has Dynegy made a specific request?	Has Dynegy made a specific request?	148337452	1475967711095	1475967711223	s	83
290850	3122672	Has Dynegy made a specific request?	Has Dynegy made a specific request?	148337455	1475967711158	1475967711261	 	32
290850	3122672	Has Dynegy made a specific request?	Has Dynegy made a specific request?	148337458	1475967711340	1475967711526	SHIFT	16
290850	3122672	Has Dynegy made a specific request?	Has Dynegy made a specific request?	148337465	1475967711438	1475967711564	D	68
290850	3122672	Has Dynegy made a specific request?	Has Dynegy made a specific request?	148337466	1475967711588	1475967711669	y	89
290850	3122672	Has Dynegy made a specific request?	Has Dynegy made a specific request?	148337467	1475967711701	1475967711840	n	78
290850	3122672	Has Dynegy made a specific request?	Has Dynegy made a specific request?	148337468	1475967711883	1475967712004	e	69
290850	3122672	Has Dynegy made a specific request?	Has Dynegy made a specific request?	148337469	1475967712051	1475967712198	g	71
290850	3122672	Has Dynegy made a specific request?	Has Dynegy made a specific request?	148337470	1475967712227	1475967712336	y	89
290850	3122672	Has Dynegy made a specific request?	Has Dynegy made a specific request?	148337476	1475967712343	1475967712443	 	32
290850	3122672	Has Dynegy made a specific request?	Has Dynegy made a specific request?	148337477	1475967712491	1475967712576	m	77
290850	3122672	Has Dynegy made a specific request?	Has Dynegy made a specific request?	148337478	1475967712562	1475967712657	a	65
290850	3122672	Has Dynegy made a specific request?	Has Dynegy made a specific request?	148337479	1475967712677	1475967712756	d	68
290850	3122672	Has Dynegy made a specific request?	Has Dynegy made a specific request?	148337491	1475967712746	1475967712835	e	69
290850	3122672	Has Dynegy made a specific request?	Has Dynegy made a specific request?	148337493	1475967712840	1475967712904	 	32
290850	3122672	Has Dynegy made a specific request?	Has Dynegy made a specific request?	148337496	1475967712901	1475967713013	a	65
290850	3122672	Has Dynegy made a specific request?	Has Dynegy made a specific request?	148337499	1475967712981	1475967713081	 	32
290850	3122672	Has Dynegy made a specific request?	Has Dynegy made a specific request?	148337501	1475967713145	1475967713224	s	83
290850	3122672	Has Dynegy made a specific request?	Has Dynegy made a specific request?	148337521	1475967713188	1475967713327	p	80
290850	3122672	Has Dynegy made a specific request?	Has Dynegy made a specific request?	148337525	1475967713257	1475967713415	e	69
290850	3122672	Has Dynegy made a specific request?	Has Dynegy made a specific request?	148337529	1475967713671	1475967713783	c	67
290850	3122672	Has Dynegy made a specific request?	Has Dynegy made a specific request?	148337533	1475967713807	1475967713891	i	73
290850	3122672	Has Dynegy made a specific request?	Has Dynegy made a specific request?	148337534	1475967713975	1475967714059	f	70
290850	3122672	Has Dynegy made a specific request?	Has Dynegy made a specific request?	148337536	1475967714133	1475967714222	i	73
290850	3122672	Has Dynegy made a specific request?	Has Dynegy made a specific request?	148337549	1475967714207	1475967714346	c	67
290850	3122672	Has Dynegy made a specific request?	Has Dynegy made a specific request?	148337550	1475967714267	1475967714389	 	32
290850	3122672	Has Dynegy made a specific request?	Has Dynegy made a specific request?	148337552	1475967714443	1475967714558	r	82
290850	3122672	Has Dynegy made a specific request?	Has Dynegy made a specific request?	148337554	1475967714541	1475967714642	e	69
290850	3122672	Has Dynegy made a specific request?	Has Dynegy made a specific request?	148337556	1475967714728	1475967714825	q	81
290850	3122672	Has Dynegy made a specific request?	Has Dynegy made a specific request?	148337559	1475967714836	1475967714977	u	85
290850	3122672	Has Dynegy made a specific request?	Has Dynegy made a specific request?	148337574	1475967714918	1475967715021	e	69
290850	3122672	Has Dynegy made a specific request?	Has Dynegy made a specific request?	148337576	1475967714986	1475967715088	s	83
290850	3122672	Has Dynegy made a specific request?	Has Dynegy made a specific request?	148337579	1475967715106	1475967715210	t	84
290850	3122672	Has Dynegy made a specific request?	Has Dynegy made a specific request?	148337581	1475967715359	1475967715452	SHIFT	16
290850	3122672	Has Dynegy made a specific request?	Has Dynegy made a specific request?	148337583	1475967715396	1475967715488	?	191
290850	3122675	Do you have a number for him?	Do you have a number for him?	148337680	1475967718293	1475967718481	SHIFT	16
290850	3122675	Do you have a number for him?	Do you have a number for him?	148337683	1475967718435	1475967718541	D	68
290850	3122675	Do you have a number for him?	Do you have a number for him?	148337686	1475967718539	1475967718629	o	79
290850	3122675	Do you have a number for him?	Do you have a number for him?	148337688	1475967718605	1475967718741	 	32
290850	3122675	Do you have a number for him?	Do you have a number for him?	148337690	1475967718721	1475967718815	y	89
290850	3122675	Do you have a number for him?	Do you have a number for him?	148337692	1475967718799	1475967718903	o	79
290850	3122675	Do you have a number for him?	Do you have a number for him?	148337694	1475967718877	1475967718974	u	85
290850	3122675	Do you have a number for him?	Do you have a number for him?	148337696	1475967718925	1475967719019	 	32
290850	3122675	Do you have a number for him?	Do you have a number for him?	148337698	1475967719027	1475967719118	h	72
290850	3122675	Do you have a number for him?	Do you have a number for him?	148337701	1475967719105	1475967719203	a	65
290850	3122675	Do you have a number for him?	Do you have a number for him?	148337713	1475967719165	1475967719262	v	86
290850	3122675	Do you have a number for him?	Do you have a number for him?	148337714	1475967719258	1475967719351	e	69
290850	3122675	Do you have a number for him?	Do you have a number for him?	148337715	1475967719319	1475967719406	 	32
290850	3122675	Do you have a number for him?	Do you have a number for him?	148337716	1475967719410	1475967719518	a	65
290850	3122675	Do you have a number for him?	Do you have a number for him?	148337717	1475967719481	1475967719561	 	32
290850	3122675	Do you have a number for him?	Do you have a number for him?	148337718	1475967719575	1475967719688	n	78
290850	3122675	Do you have a number for him?	Do you have a number for him?	148337719	1475967719689	1475967719777	u	85
290850	3122675	Do you have a number for him?	Do you have a number for him?	148337721	1475967719741	1475967719831	m	77
290850	3122675	Do you have a number for him?	Do you have a number for him?	148337725	1475967719905	1475967719997	b	66
290850	3122675	Do you have a number for him?	Do you have a number for him?	148337729	1475967720063	1475967720179	e	69
290850	3122675	Do you have a number for him?	Do you have a number for him?	148337748	1475967720140	1475967720275	r	82
290850	3122675	Do you have a number for him?	Do you have a number for him?	148337750	1475967720215	1475967720339	 	32
290850	3122675	Do you have a number for him?	Do you have a number for him?	148337752	1475967720530	1475967720612	f	70
290850	3122675	Do you have a number for him?	Do you have a number for him?	148337753	1475967720648	1475967720734	o	79
290850	3122675	Do you have a number for him?	Do you have a number for him?	148337754	1475967720722	1475967720827	r	82
290850	3122675	Do you have a number for him?	Do you have a number for him?	148337773	1475967720747	1475967720860	 	32
290850	3122675	Do you have a number for him?	Do you have a number for him?	148337776	1475967720875	1475967720980	h	72
290850	3122675	Do you have a number for him?	Do you have a number for him?	148337779	1475967721032	1475967721081	i	73
290850	3122675	Do you have a number for him?	Do you have a number for him?	148337781	1475967721217	1475967721301	m	77
290850	3122675	Do you have a number for him?	Do you have a number for him?	148337783	1475967721488	1475967721601	SHIFT	16
290850	3122675	Do you have a number for him?	Do you have a number for him?	148337785	1475967721555	1475967721642	?	191
290850	3122681	But they played down the prospect of a repeat performance.	But they played down the prospect of a repeat performance.	148337881	1475967724224	1475967725043	SHIFT	16
290850	3122681	But they played down the prospect of a repeat performance.	But they played down the prospect of a repeat performance.	148337883	1475967725355	1475967725714	SHIFT	16
290850	3122681	But they played down the prospect of a repeat performance.	But they played down the prospect of a repeat performance.	148337882	1475967725595	1475967725703	B	66
290850	3122681	But they played down the prospect of a repeat performance.	But they played down the prospect of a repeat performance.	148337884	1475967725690	1475967725786	U	85
290850	3122681	But they played down the prospect of a repeat performance.	But they played down the prospect of a repeat performance.	148337886	1475967725801	1475967725939	t	84
290850	3122681	But they played down the prospect of a repeat performance.	But they played down the prospect of a repeat performance.	148337888	1475967725860	1475967725993	 	32
290850	3122681	But they played down the prospect of a repeat performance.	But they played down the prospect of a repeat performance.	148337890	1475967726013	1475967726124	t	84
290850	3122681	But they played down the prospect of a repeat performance.	But they played down the prospect of a repeat performance.	148337927	1475967726055	1475967726203	h	72
290850	3122681	But they played down the prospect of a repeat performance.	But they played down the prospect of a repeat performance.	148337930	1475967726311	1475967726380	BKSP	8
290850	3122681	But they played down the prospect of a repeat performance.	But they played down the prospect of a repeat performance.	148337934	1475967726419	1475967726493	BKSP	8
290850	3122681	But they played down the prospect of a repeat performance.	But they played down the prospect of a repeat performance.	148337938	1475967726539	1475967726606	BKSP	8
290850	3122681	But they played down the prospect of a repeat performance.	But they played down the prospect of a repeat performance.	148337941	1475967726638	1475967726710	BKSP	8
290850	3122681	But they played down the prospect of a repeat performance.	But they played down the prospect of a repeat performance.	148337945	1475967726747	1475967726823	BKSP	8
290850	3122681	But they played down the prospect of a repeat performance.	But they played down the prospect of a repeat performance.	148337948	1475967726821	1475967726921	u	85
290850	3122681	But they played down the prospect of a repeat performance.	But they played down the prospect of a repeat performance.	148337954	1475967726907	1475967727041	t	84
290850	3122681	But they played down the prospect of a repeat performance.	But they played down the prospect of a repeat performance.	148337960	1475967726975	1475967727100	 	32
290850	3122681	But they played down the prospect of a repeat performance.	But they played down the prospect of a repeat performance.	148337965	1475967727239	1475967727359	t	84
290850	3122681	But they played down the prospect of a repeat performance.	But they played down the prospect of a repeat performance.	148337972	1475967727280	1475967727435	h	72
290850	3122681	But they played down the prospect of a repeat performance.	But they played down the prospect of a repeat performance.	148337975	1475967727328	1475967727475	e	69
290850	3122681	But they played down the prospect of a repeat performance.	But they played down the prospect of a repeat performance.	148337977	1475967727428	1475967727553	y	89
290850	3122681	But they played down the prospect of a repeat performance.	But they played down the prospect of a repeat performance.	148337981	1475967727499	1475967727602	 	32
290850	3122681	But they played down the prospect of a repeat performance.	But they played down the prospect of a repeat performance.	148337985	1475967727773	1475967727875	p	80
290850	3122681	But they played down the prospect of a repeat performance.	But they played down the prospect of a repeat performance.	148337987	1475967727856	1475967727979	l	76
290850	3122681	But they played down the prospect of a repeat performance.	But they played down the prospect of a repeat performance.	148337993	1475967727905	1475967728017	a	65
290850	3122681	But they played down the prospect of a repeat performance.	But they played down the prospect of a repeat performance.	148337995	1475967727975	1475967728097	y	89
290850	3122681	But they played down the prospect of a repeat performance.	But they played down the prospect of a repeat performance.	148337997	1475967728059	1475967728184	e	69
290850	3122681	But they played down the prospect of a repeat performance.	But they played down the prospect of a repeat performance.	148337999	1475967728108	1475967728229	d	68
290850	3122681	But they played down the prospect of a repeat performance.	But they played down the prospect of a repeat performance.	148338000	1475967728163	1475967728278	 	32
290850	3122681	But they played down the prospect of a repeat performance.	But they played down the prospect of a repeat performance.	148338002	1475967728290	1475967728401	d	68
290850	3122681	But they played down the prospect of a repeat performance.	But they played down the prospect of a repeat performance.	148338014	1475967728369	1475967728476	o	79
290850	3122681	But they played down the prospect of a repeat performance.	But they played down the prospect of a repeat performance.	148338017	1475967728470	1475967728596	w	87
290850	3122681	But they played down the prospect of a repeat performance.	But they played down the prospect of a repeat performance.	148338020	1475967728575	1475967728719	n	78
290850	3122681	But they played down the prospect of a repeat performance.	But they played down the prospect of a repeat performance.	148338023	1475967728648	1475967728757	 	32
290850	3122681	But they played down the prospect of a repeat performance.	But they played down the prospect of a repeat performance.	148338026	1475967728738	1475967728874	t	84
290850	3122681	But they played down the prospect of a repeat performance.	But they played down the prospect of a repeat performance.	148338027	1475967728793	1475967728919	h	72
290850	3122681	But they played down the prospect of a repeat performance.	But they played down the prospect of a repeat performance.	148338028	1475967728849	1475967728959	e	69
290850	3122681	But they played down the prospect of a repeat performance.	But they played down the prospect of a repeat performance.	148338030	1475967728929	1475967729025	 	32
290850	3122681	But they played down the prospect of a repeat performance.	But they played down the prospect of a repeat performance.	148338031	1475967729006	1475967729097	p	80
290850	3122681	But they played down the prospect of a repeat performance.	But they played down the prospect of a repeat performance.	148338033	1475967729061	1475967729160	r	82
290850	3122681	But they played down the prospect of a repeat performance.	But they played down the prospect of a repeat performance.	148338034	1475967729151	1475967729257	o	79
290850	3122681	But they played down the prospect of a repeat performance.	But they played down the prospect of a repeat performance.	148338081	1475967729209	1475967729311	s	83
290850	3122681	But they played down the prospect of a repeat performance.	But they played down the prospect of a repeat performance.	148338086	1475967729405	1475967729447	e	69
290850	3122681	But they played down the prospect of a repeat performance.	But they played down the prospect of a repeat performance.	148338092	1475967729474	1475967729623	p	80
290850	3122681	But they played down the prospect of a repeat performance.	But they played down the prospect of a repeat performance.	148338096	1475967729567	1475967729688	e	69
290850	3122681	But they played down the prospect of a repeat performance.	But they played down the prospect of a repeat performance.	148338100	1475967729850	1475967729914	BKSP	8
290850	3122681	But they played down the prospect of a repeat performance.	But they played down the prospect of a repeat performance.	148338104	1475967729959	1475967730024	BKSP	8
290850	3122681	But they played down the prospect of a repeat performance.	But they played down the prospect of a repeat performance.	148338105	1475967730064	1475967730148	BKSP	8
290850	3122681	But they played down the prospect of a repeat performance.	But they played down the prospect of a repeat performance.	148338106	1475967730143	1475967730256	p	80
290850	3122681	But they played down the prospect of a repeat performance.	But they played down the prospect of a repeat performance.	148338107	1475967730191	1475967730304	e	69
290850	3122681	But they played down the prospect of a repeat performance.	But they played down the prospect of a repeat performance.	148338108	1475967730252	1475967730353	c	67
290850	3122681	But they played down the prospect of a repeat performance.	But they played down the prospect of a repeat performance.	148338109	1475967730404	1475967730554	t	84
290850	3122681	But they played down the prospect of a repeat performance.	But they played down the prospect of a repeat performance.	148338110	1475967730473	1475967730610	 	32
290850	3122681	But they played down the prospect of a repeat performance.	But they played down the prospect of a repeat performance.	148338111	1475967730601	1475967730700	o	79
290850	3122681	But they played down the prospect of a repeat performance.	But they played down the prospect of a repeat performance.	148338112	1475967730694	1475967730784	f	70
290850	3122681	But they played down the prospect of a repeat performance.	But they played down the prospect of a repeat performance.	148338132	1475967730745	1475967730838	 	32
290850	3122681	But they played down the prospect of a repeat performance.	But they played down the prospect of a repeat performance.	148338133	1475967730833	1475967730901	o	79
290850	3122681	But they played down the prospect of a repeat performance.	But they played down the prospect of a repeat performance.	148338135	1475967730877	1475967730982	a	65
290850	3122681	But they played down the prospect of a repeat performance.	But they played down the prospect of a repeat performance.	148338139	1475967730931	1475967731025	 	32
290850	3122681	But they played down the prospect of a repeat performance.	But they played down the prospect of a repeat performance.	148338143	1475967731259	1475967731301	BKSP	8
290850	3122681	But they played down the prospect of a repeat performance.	But they played down the prospect of a repeat performance.	148338145	1475967731353	1475967731419	BKSP	8
290850	3122681	But they played down the prospect of a repeat performance.	But they played down the prospect of a repeat performance.	148338149	1475967731452	1475967731555	BKSP	8
290850	3122681	But they played down the prospect of a repeat performance.	But they played down the prospect of a repeat performance.	148338151	1475967731559	1475967731674	a	65
290850	3122681	But they played down the prospect of a repeat performance.	But they played down the prospect of a repeat performance.	148338157	1475967731638	1475967731759	 	32
290850	3122681	But they played down the prospect of a repeat performance.	But they played down the prospect of a repeat performance.	148338159	1475967731797	1475967731896	r	82
290850	3122681	But they played down the prospect of a repeat performance.	But they played down the prospect of a repeat performance.	148338161	1475967731893	1475967732002	e	69
290850	3122681	But they played down the prospect of a repeat performance.	But they played down the prospect of a repeat performance.	148338163	1475967731991	1475967732108	p	80
290850	3122681	But they played down the prospect of a repeat performance.	But they played down the prospect of a repeat performance.	148338164	1475967732100	1475967732227	e	69
290850	3122681	But they played down the prospect of a repeat performance.	But they played down the prospect of a repeat performance.	148338182	1475967732208	1475967732353	a	65
290850	3122681	But they played down the prospect of a repeat performance.	But they played down the prospect of a repeat performance.	148338185	1475967732392	1475967732548	t	84
290850	3122681	But they played down the prospect of a repeat performance.	But they played down the prospect of a repeat performance.	148338188	1475967732469	1475967732594	 	32
290850	3122681	But they played down the prospect of a repeat performance.	But they played down the prospect of a repeat performance.	148338192	1475967732659	1475967732762	p	80
290850	3122681	But they played down the prospect of a repeat performance.	But they played down the prospect of a repeat performance.	148338196	1475967732736	1475967732893	e	69
290850	3122681	But they played down the prospect of a repeat performance.	But they played down the prospect of a repeat performance.	148338219	1475967732829	1475967732967	r	82
290850	3122681	But they played down the prospect of a repeat performance.	But they played down the prospect of a repeat performance.	148338222	1475967732977	1475967733093	f	70
290850	3122681	But they played down the prospect of a repeat performance.	But they played down the prospect of a repeat performance.	148338223	1475967733065	1475967733171	o	79
290850	3122681	But they played down the prospect of a repeat performance.	But they played down the prospect of a repeat performance.	148338225	1475967733158	1475967733265	r	82
290850	3122681	But they played down the prospect of a repeat performance.	But they played down the prospect of a repeat performance.	148338226	1475967733362	1475967733466	m	77
290850	3122681	But they played down the prospect of a repeat performance.	But they played down the prospect of a repeat performance.	148338228	1475967733485	1475967733584	a	65
290850	3122681	But they played down the prospect of a repeat performance.	But they played down the prospect of a repeat performance.	148338248	1475967733536	1475967733648	n	78
290850	3122681	But they played down the prospect of a repeat performance.	But they played down the prospect of a repeat performance.	148338250	1475967733755	1475967733864	c	67
290850	3122681	But they played down the prospect of a repeat performance.	But they played down the prospect of a repeat performance.	148338253	1475967733849	1475967733933	e	69
