PARTICIPANT_ID	TEST_SECTION_ID	SENTENCE	USER_INPUT	KEYSTROKE_ID	PRESS_TIME	RELEASE_TIME	LETTER	KEYCODE
29232	313550	I am out of town until Friday.	I am out of town until Friday.	14881135	1472259690015	1472259690323	SHIFT	16
29232	313550	I am out of town until Friday.	I am out of town until Friday.	14881136	1472259690216	1472259690348	I	73
29232	313550	I am out of town until Friday.	I am out of town until Friday.	14881137	1472259690374	1472259690504	 	32
29232	313550	I am out of town until Friday.	I am out of town until Friday.	14881139	1472259690531	1472259690693	a	65
29232	313550	I am out of town until Friday.	I am out of town until Friday.	14881141	1472259690733	1472259690857	m	77
29232	313550	I am out of town until Friday.	I am out of town until Friday.	14881143	1472259690912	1472259691032	 	32
29232	313550	I am out of town until Friday.	I am out of town until Friday.	14881138	1472259691094	1472259691237	o	79
29232	313550	I am out of town until Friday.	I am out of town until Friday.	14881140	1472259691293	1472259691392	u	85
29232	313550	I am out of town until Friday.	I am out of town until Friday.	14881142	1472259691498	1472259691611	t	84
29232	313550	I am out of town until Friday.	I am out of town until Friday.	14881144	1472259691642	1472259691774	 	32
29232	313550	I am out of town until Friday.	I am out of town until Friday.	14881147	1472259691814	1472259691959	o	79
29232	313550	I am out of town until Friday.	I am out of town until Friday.	14881145	1472259691966	1472259692103	f	70
29232	313550	I am out of town until Friday.	I am out of town until Friday.	14881146	1472259692117	1472259692243	 	32
29232	313550	I am out of town until Friday.	I am out of town until Friday.	14881149	1472259692301	1472259692432	t	84
29232	313550	I am out of town until Friday.	I am out of town until Friday.	14881150	1472259692428	1472259692558	o	79
29232	313550	I am out of town until Friday.	I am out of town until Friday.	14881152	1472259693250	1472259693380	w	87
29232	313550	I am out of town until Friday.	I am out of town until Friday.	14881179	1472259693383	1472259693507	n	78
29232	313550	I am out of town until Friday.	I am out of town until Friday.	14881180	1472259693611	1472259693747	 	32
29232	313550	I am out of town until Friday.	I am out of town until Friday.	14881181	1472259694655	1472259694775	u	85
29232	313550	I am out of town until Friday.	I am out of town until Friday.	14881183	1472259694824	1472259694981	n	78
29232	313550	I am out of town until Friday.	I am out of town until Friday.	14881208	1472259694970	1472259695078	t	84
29232	313550	I am out of town until Friday.	I am out of town until Friday.	14881209	1472259695100	1472259695205	i	73
29232	313550	I am out of town until Friday.	I am out of town until Friday.	14881210	1472259695283	1472259695406	l	76
29232	313550	I am out of town until Friday.	I am out of town until Friday.	14881211	1472259695690	1472259695823	 	32
29232	313550	I am out of town until Friday.	I am out of town until Friday.	14881212	1472259695876	1472259696240	SHIFT	16
29232	313550	I am out of town until Friday.	I am out of town until Friday.	14881213	1472259696078	1472259696274	F	70
29232	313550	I am out of town until Friday.	I am out of town until Friday.	14881214	1472259696801	1472259696929	r	82
29232	313550	I am out of town until Friday.	I am out of town until Friday.	14881293	1472259697024	1472259697141	i	73
29232	313550	I am out of town until Friday.	I am out of town until Friday.	14881294	1472259697350	1472259697513	d	68
29232	313550	I am out of town until Friday.	I am out of town until Friday.	14881295	1472259703013	1472259703084	y	89
29232	313550	I am out of town until Friday.	I am out of town until Friday.	14881296	1472259703490	1472259703568	.	190
29232	313556	Tried to call but couldn't reach you.	Tried to all but couldn't reach you	14881340	1472259707260	1472259707543	SHIFT	16
29232	313556	Tried to call but couldn't reach you.	Tried to all but couldn't reach you	14881338	1472259707442	1472259707520	T	84
29232	313556	Tried to call but couldn't reach you.	Tried to all but couldn't reach you	14881342	1472259707605	1472259707741	r	82
29232	313556	Tried to call but couldn't reach you.	Tried to all but couldn't reach you	14881344	1472259707806	1472259707934	i	73
29232	313556	Tried to call but couldn't reach you.	Tried to all but couldn't reach you	14881347	1472259707924	1472259708060	e	69
29232	313556	Tried to call but couldn't reach you.	Tried to all but couldn't reach you	14881349	1472259708182	1472259708338	d	68
29232	313556	Tried to call but couldn't reach you.	Tried to all but couldn't reach you	14881365	1472259708340	1472259708478	 	32
29232	313556	Tried to call but couldn't reach you.	Tried to all but couldn't reach you	14881367	1472259708488	1472259708634	t	84
29232	313556	Tried to call but couldn't reach you.	Tried to all but couldn't reach you	14881369	1472259708602	1472259708755	o	79
29232	313556	Tried to call but couldn't reach you.	Tried to all but couldn't reach you	14881370	1472259708810	1472259708914	 	32
29232	313556	Tried to call but couldn't reach you.	Tried to all but couldn't reach you	14881371	1472259709637	1472259709764	c	67
29232	313556	Tried to call but couldn't reach you.	Tried to all but couldn't reach you	14881380	1472259710014	1472259710102	l	76
29232	313556	Tried to call but couldn't reach you.	Tried to all but couldn't reach you	14881382	1472259710154	1472259710248	l	76
29232	313556	Tried to call but couldn't reach you.	Tried to all but couldn't reach you	14881384	1472259710414	1472259710531	 	32
29232	313556	Tried to call but couldn't reach you.	Tried to all but couldn't reach you	14881386	1472259710847	1472259710981	b	66
29232	313556	Tried to call but couldn't reach you.	Tried to all but couldn't reach you	14881388	1472259711052	1472259711192	u	85
29232	313556	Tried to call but couldn't reach you.	Tried to all but couldn't reach you	14881389	1472259711234	1472259711335	t	84
29232	313556	Tried to call but couldn't reach you.	Tried to all but couldn't reach you	14881390	1472259711413	1472259711537	 	32
29232	313556	Tried to call but couldn't reach you.	Tried to all but couldn't reach you	14881391	1472259712000	1472259712143	c	67
29232	313556	Tried to call but couldn't reach you.	Tried to all but couldn't reach you	14881392	1472259712133	1472259712263	o	79
29232	313556	Tried to call but couldn't reach you.	Tried to all but couldn't reach you	14881393	1472259712338	1472259712407	u	85
29232	313556	Tried to call but couldn't reach you.	Tried to all but couldn't reach you	14881415	1472259712581	1472259712689	l	76
29232	313556	Tried to call but couldn't reach you.	Tried to all but couldn't reach you	14881416	1472259712883	1472259713029	d	68
29232	313556	Tried to call but couldn't reach you.	Tried to all but couldn't reach you	14881417	1472259713362	1472259713430	m	77
29232	313556	Tried to call but couldn't reach you.	Tried to all but couldn't reach you	14881418	1472259713786	1472259713896	BKSP	8
29232	313556	Tried to call but couldn't reach you.	Tried to all but couldn't reach you	14881419	1472259713961	1472259714118	n	78
29232	313556	Tried to call but couldn't reach you.	Tried to all but couldn't reach you	14881420	1472259714583	1472259714697	'	222
29232	313556	Tried to call but couldn't reach you.	Tried to all but couldn't reach you	14881421	1472259715092	1472259715205	t	84
29232	313556	Tried to call but couldn't reach you.	Tried to all but couldn't reach you	14881422	1472259715254	1472259715371	 	32
29232	313556	Tried to call but couldn't reach you.	Tried to all but couldn't reach you	14881423	1472259715705	1472259715842	r	82
29232	313556	Tried to call but couldn't reach you.	Tried to all but couldn't reach you	14881424	1472259715878	1472259715995	e	69
29232	313556	Tried to call but couldn't reach you.	Tried to all but couldn't reach you	14881426	1472259716024	1472259716168	a	65
29232	313556	Tried to call but couldn't reach you.	Tried to all but couldn't reach you	14881431	1472259716255	1472259716412	c	67
29232	313556	Tried to call but couldn't reach you.	Tried to all but couldn't reach you	14881432	1472259716412	1472259716519	h	72
29232	313556	Tried to call but couldn't reach you.	Tried to all but couldn't reach you	14881433	1472259716601	1472259716734	 	32
29232	313556	Tried to call but couldn't reach you.	Tried to all but couldn't reach you	14881434	1472259716741	1472259716880	y	89
29232	313556	Tried to call but couldn't reach you.	Tried to all but couldn't reach you	14881468	1472259716835	1472259716962	p	80
29232	313556	Tried to call but couldn't reach you.	Tried to all but couldn't reach you	14881469	1472259716971	1472259717076	u	85
29232	313556	Tried to call but couldn't reach you.	Tried to all but couldn't reach you	14881470	1472259717772	1472259717911	BKSP	8
29232	313556	Tried to call but couldn't reach you.	Tried to all but couldn't reach you	14881471	1472259717993	1472259718093	BKSP	8
29232	313556	Tried to call but couldn't reach you.	Tried to all but couldn't reach you	14881472	1472259718234	1472259718354	p	80
29232	313556	Tried to call but couldn't reach you.	Tried to all but couldn't reach you	14881473	1472259718357	1472259718455	u	85
29232	313556	Tried to call but couldn't reach you.	Tried to all but couldn't reach you	14881474	1472259718952	1472259719023	BKSP	8
29232	313556	Tried to call but couldn't reach you.	Tried to all but couldn't reach you	14881475	1472259719110	1472259719211	BKSP	8
29232	313556	Tried to call but couldn't reach you.	Tried to all but couldn't reach you	14881476	1472259719673	1472259719748	o	79
29232	313556	Tried to call but couldn't reach you.	Tried to all but couldn't reach you	14881477	1472259719800	1472259719891	u	85
29232	313559	It doesn't match your spreadsheet.	It doesn't match your spreadsheet	14881505	1472259723275	1472259723487	SHIFT	16
29232	313559	It doesn't match your spreadsheet.	It doesn't match your spreadsheet	14881507	1472259723406	1472259723542	I	73
29232	313559	It doesn't match your spreadsheet.	It doesn't match your spreadsheet	14881509	1472259723604	1472259723725	t	84
29232	313559	It doesn't match your spreadsheet.	It doesn't match your spreadsheet	14881511	1472259723764	1472259723904	 	32
29232	313559	It doesn't match your spreadsheet.	It doesn't match your spreadsheet	14881513	1472259724044	1472259724166	d	68
29232	313559	It doesn't match your spreadsheet.	It doesn't match your spreadsheet	14881518	1472259724158	1472259724297	o	79
29232	313559	It doesn't match your spreadsheet.	It doesn't match your spreadsheet	14881520	1472259724288	1472259724415	e	69
29232	313559	It doesn't match your spreadsheet.	It doesn't match your spreadsheet	14881521	1472259724506	1472259724676	s	83
29232	313559	It doesn't match your spreadsheet.	It doesn't match your spreadsheet	14881523	1472259724662	1472259724802	n	78
29232	313559	It doesn't match your spreadsheet.	It doesn't match your spreadsheet	14881524	1472259724838	1472259724971	t	84
29232	313559	It doesn't match your spreadsheet.	It doesn't match your spreadsheet	14881526	1472259724974	1472259725114	 	32
29232	313559	It doesn't match your spreadsheet.	It doesn't match your spreadsheet	14881534	1472259725561	1472259725715	BKSP	8
29232	313559	It doesn't match your spreadsheet.	It doesn't match your spreadsheet	14881535	1472259725766	1472259725876	BKSP	8
29232	313559	It doesn't match your spreadsheet.	It doesn't match your spreadsheet	14881536	1472259726875	1472259726986	'	222
29232	313559	It doesn't match your spreadsheet.	It doesn't match your spreadsheet	14881537	1472259727019	1472259727113	t	84
29232	313559	It doesn't match your spreadsheet.	It doesn't match your spreadsheet	14881538	1472259727278	1472259727415	 	32
29232	313559	It doesn't match your spreadsheet.	It doesn't match your spreadsheet	14881539	1472259727487	1472259727591	m	77
29232	313559	It doesn't match your spreadsheet.	It doesn't match your spreadsheet	14881540	1472259727630	1472259727776	a	65
29232	313559	It doesn't match your spreadsheet.	It doesn't match your spreadsheet	14881541	1472259727838	1472259727942	t	84
29232	313559	It doesn't match your spreadsheet.	It doesn't match your spreadsheet	14881542	1472259728007	1472259728088	t	84
29232	313559	It doesn't match your spreadsheet.	It doesn't match your spreadsheet	14881543	1472259728141	1472259728255	e	69
29232	313559	It doesn't match your spreadsheet.	It doesn't match your spreadsheet	14881544	1472259728330	1472259728427	r	82
29232	313559	It doesn't match your spreadsheet.	It doesn't match your spreadsheet	14881545	1472259728482	1472259728606	 	32
29232	313559	It doesn't match your spreadsheet.	It doesn't match your spreadsheet	14881589	1472259728921	1472259729035	y	89
29232	313559	It doesn't match your spreadsheet.	It doesn't match your spreadsheet	14881591	1472259729574	1472259729691	u	85
29232	313559	It doesn't match your spreadsheet.	It doesn't match your spreadsheet	14881593	1472259730160	1472259730303	BKSP	8
29232	313559	It doesn't match your spreadsheet.	It doesn't match your spreadsheet	14881595	1472259730806	1472259730893	o	79
29232	313559	It doesn't match your spreadsheet.	It doesn't match your spreadsheet	14881597	1472259731053	1472259731137	y	89
29232	313559	It doesn't match your spreadsheet.	It doesn't match your spreadsheet	14881599	1472259731591	1472259731711	BKSP	8
29232	313559	It doesn't match your spreadsheet.	It doesn't match your spreadsheet	14881600	1472259732218	1472259732364	BKSP	8
29232	313559	It doesn't match your spreadsheet.	It doesn't match your spreadsheet	14881601	1472259732439	1472259732534	BKSP	8
29232	313559	It doesn't match your spreadsheet.	It doesn't match your spreadsheet	14881602	1472259732602	1472259732687	BKSP	8
29232	313559	It doesn't match your spreadsheet.	It doesn't match your spreadsheet	14881603	1472259732746	1472259732827	BKSP	8
29232	313559	It doesn't match your spreadsheet.	It doesn't match your spreadsheet	14881605	1472259732896	1472259732996	BKSP	8
29232	313559	It doesn't match your spreadsheet.	It doesn't match your spreadsheet	14881607	1472259733169	1472259733282	BKSP	8
29232	313559	It doesn't match your spreadsheet.	It doesn't match your spreadsheet	14881609	1472259733679	1472259733851	c	67
29232	313559	It doesn't match your spreadsheet.	It doesn't match your spreadsheet	14881613	1472259733862	1472259733952	h	72
29232	313559	It doesn't match your spreadsheet.	It doesn't match your spreadsheet	14881614	1472259734046	1472259734189	 	32
29232	313559	It doesn't match your spreadsheet.	It doesn't match your spreadsheet	14881615	1472259734198	1472259734309	y	89
29232	313559	It doesn't match your spreadsheet.	It doesn't match your spreadsheet	14881616	1472259734896	1472259735026	o	79
29232	313559	It doesn't match your spreadsheet.	It doesn't match your spreadsheet	14881617	1472259735117	1472259735235	u	85
29232	313559	It doesn't match your spreadsheet.	It doesn't match your spreadsheet	14881628	1472259735280	1472259735404	r	82
29232	313559	It doesn't match your spreadsheet.	It doesn't match your spreadsheet	14881629	1472259735668	1472259735785	 	32
29232	313559	It doesn't match your spreadsheet.	It doesn't match your spreadsheet	14881630	1472259736226	1472259736385	s	83
29232	313559	It doesn't match your spreadsheet.	It doesn't match your spreadsheet	14881631	1472259736349	1472259736473	p	80
29232	313559	It doesn't match your spreadsheet.	It doesn't match your spreadsheet	14881632	1472259736544	1472259736678	r	82
29232	313559	It doesn't match your spreadsheet.	It doesn't match your spreadsheet	14881640	1472259736749	1472259736906	e	69
29232	313559	It doesn't match your spreadsheet.	It doesn't match your spreadsheet	14881641	1472259736987	1472259737126	a	65
29232	313559	It doesn't match your spreadsheet.	It doesn't match your spreadsheet	14881642	1472259737260	1472259737404	d	68
29232	313559	It doesn't match your spreadsheet.	It doesn't match your spreadsheet	14881643	1472259737547	1472259737693	s	83
29232	313559	It doesn't match your spreadsheet.	It doesn't match your spreadsheet	14881644	1472259737709	1472259737797	h	72
29232	313559	It doesn't match your spreadsheet.	It doesn't match your spreadsheet	14881645	1472259737843	1472259737940	e	69
29232	313559	It doesn't match your spreadsheet.	It doesn't match your spreadsheet	14881646	1472259737989	1472259738028	e	69
29232	313559	It doesn't match your spreadsheet.	It doesn't match your spreadsheet	14881647	1472259738210	1472259738288	t	84
29232	313565	Just in case we haven't invited any of them.	Just in case we haven't invited any of them.	14881656	1472259740913	1472259741219	SHIFT	16
29232	313565	Just in case we haven't invited any of them.	Just in case we haven't invited any of them.	14881655	1472259741079	1472259741183	J	74
29232	313565	Just in case we haven't invited any of them.	Just in case we haven't invited any of them.	14881657	1472259741251	1472259741356	u	85
29232	313565	Just in case we haven't invited any of them.	Just in case we haven't invited any of them.	14881658	1472259741365	1472259741515	s	83
29232	313565	Just in case we haven't invited any of them.	Just in case we haven't invited any of them.	14881659	1472259741531	1472259741642	t	84
29232	313565	Just in case we haven't invited any of them.	Just in case we haven't invited any of them.	14881660	1472259741789	1472259741932	 	32
29232	313565	Just in case we haven't invited any of them.	Just in case we haven't invited any of them.	14881681	1472259742351	1472259742472	i	73
29232	313565	Just in case we haven't invited any of them.	Just in case we haven't invited any of them.	14881683	1472259742546	1472259742649	n	78
29232	313565	Just in case we haven't invited any of them.	Just in case we haven't invited any of them.	14881685	1472259742715	1472259742847	 	32
29232	313565	Just in case we haven't invited any of them.	Just in case we haven't invited any of them.	14881687	1472259743544	1472259743713	c	67
29232	313565	Just in case we haven't invited any of them.	Just in case we haven't invited any of them.	14881689	1472259743782	1472259743939	a	65
29232	313565	Just in case we haven't invited any of them.	Just in case we haven't invited any of them.	14881696	1472259743990	1472259744133	s	83
29232	313565	Just in case we haven't invited any of them.	Just in case we haven't invited any of them.	14881698	1472259744225	1472259744336	e	69
29232	313565	Just in case we haven't invited any of them.	Just in case we haven't invited any of them.	14881700	1472259744388	1472259744515	 	32
29232	313565	Just in case we haven't invited any of them.	Just in case we haven't invited any of them.	14881702	1472259744784	1472259744934	w	87
29232	313565	Just in case we haven't invited any of them.	Just in case we haven't invited any of them.	14881704	1472259744970	1472259745090	e	69
29232	313565	Just in case we haven't invited any of them.	Just in case we haven't invited any of them.	14881709	1472259745186	1472259745296	 	32
29232	313565	Just in case we haven't invited any of them.	Just in case we haven't invited any of them.	14881710	1472259745763	1472259745854	h	72
29232	313565	Just in case we haven't invited any of them.	Just in case we haven't invited any of them.	14881711	1472259745873	1472259746043	a	65
29232	313565	Just in case we haven't invited any of them.	Just in case we haven't invited any of them.	14881712	1472259746115	1472259746186	v	86
29232	313565	Just in case we haven't invited any of them.	Just in case we haven't invited any of them.	14881713	1472259746284	1472259746434	e	69
29232	313565	Just in case we haven't invited any of them.	Just in case we haven't invited any of them.	14881743	1472259746547	1472259746638	n	78
29232	313565	Just in case we haven't invited any of them.	Just in case we haven't invited any of them.	14881744	1472259747292	1472259747415	'	222
29232	313565	Just in case we haven't invited any of them.	Just in case we haven't invited any of them.	14881745	1472259747513	1472259747639	t	84
29232	313565	Just in case we haven't invited any of them.	Just in case we haven't invited any of them.	14881746	1472259747721	1472259747838	 	32
29232	313565	Just in case we haven't invited any of them.	Just in case we haven't invited any of them.	14881747	1472259748510	1472259748630	i	73
29232	313565	Just in case we haven't invited any of them.	Just in case we haven't invited any of them.	14881764	1472259748711	1472259748809	n	78
29232	313565	Just in case we haven't invited any of them.	Just in case we haven't invited any of them.	14881765	1472259749056	1472259749192	v	86
29232	313565	Just in case we haven't invited any of them.	Just in case we haven't invited any of them.	14881766	1472259749267	1472259749339	i	73
29232	313565	Just in case we haven't invited any of them.	Just in case we haven't invited any of them.	14881767	1472259749506	1472259749627	t	84
29232	313565	Just in case we haven't invited any of them.	Just in case we haven't invited any of them.	14881768	1472259749770	1472259749897	e	69
29232	313565	Just in case we haven't invited any of them.	Just in case we haven't invited any of them.	14881790	1472259750010	1472259750137	d	68
29232	313565	Just in case we haven't invited any of them.	Just in case we haven't invited any of them.	14881791	1472259750303	1472259750433	 	32
29232	313565	Just in case we haven't invited any of them.	Just in case we haven't invited any of them.	14881792	1472259750514	1472259750703	a	65
29232	313565	Just in case we haven't invited any of them.	Just in case we haven't invited any of them.	14881793	1472259750704	1472259750807	n	78
29232	313565	Just in case we haven't invited any of them.	Just in case we haven't invited any of them.	14881795	1472259751071	1472259751155	y	89
29232	313565	Just in case we haven't invited any of them.	Just in case we haven't invited any of them.	14881810	1472259751428	1472259751528	o	79
29232	313565	Just in case we haven't invited any of them.	Just in case we haven't invited any of them.	14881811	1472259751974	1472259752104	BKSP	8
29232	313565	Just in case we haven't invited any of them.	Just in case we haven't invited any of them.	14881812	1472259752173	1472259752300	 	32
29232	313565	Just in case we haven't invited any of them.	Just in case we haven't invited any of them.	14881813	1472259752503	1472259752617	o	79
29232	313565	Just in case we haven't invited any of them.	Just in case we haven't invited any of them.	14881814	1472259752837	1472259752990	f	70
29232	313565	Just in case we haven't invited any of them.	Just in case we haven't invited any of them.	14881815	1472259753032	1472259753162	 	32
29232	313565	Just in case we haven't invited any of them.	Just in case we haven't invited any of them.	14881823	1472259753198	1472259753300	t	84
29232	313565	Just in case we haven't invited any of them.	Just in case we haven't invited any of them.	14881826	1472259753293	1472259753393	h	72
29232	313565	Just in case we haven't invited any of them.	Just in case we haven't invited any of them.	14881829	1472259753462	1472259753598	e	69
29232	313565	Just in case we haven't invited any of them.	Just in case we haven't invited any of them.	14881832	1472259753673	1472259753771	,	188
29232	313565	Just in case we haven't invited any of them.	Just in case we haven't invited any of them.	14881835	1472259754189	1472259754316	BKSP	8
29232	313565	Just in case we haven't invited any of them.	Just in case we haven't invited any of them.	14881838	1472259754347	1472259754450	m	77
29232	313565	Just in case we haven't invited any of them.	Just in case we haven't invited any of them.	14881847	1472259755261	1472259755339	.	190
29232	313568	I'm waiting until she comes home.	I'm waiting until she comes home.	14881890	1472259757429	1472259757705	SHIFT	16
29232	313568	I'm waiting until she comes home.	I'm waiting until she comes home.	14881892	1472259757823	1472259758207	SHIFT	16
29232	313568	I'm waiting until she comes home.	I'm waiting until she comes home.	14881891	1472259757986	1472259758074	I	73
29232	313568	I'm waiting until she comes home.	I'm waiting until she comes home.	14881894	1472259758633	1472259758718	'	222
29232	313568	I'm waiting until she comes home.	I'm waiting until she comes home.	14881896	1472259758997	1472259759111	m	77
29232	313568	I'm waiting until she comes home.	I'm waiting until she comes home.	14881898	1472259759204	1472259759328	 	32
29232	313568	I'm waiting until she comes home.	I'm waiting until she comes home.	14881900	1472259759763	1472259759887	w	87
29232	313568	I'm waiting until she comes home.	I'm waiting until she comes home.	14881902	1472259759987	1472259760161	a	65
29232	313568	I'm waiting until she comes home.	I'm waiting until she comes home.	14881903	1472259760153	1472259760279	i	73
29232	313568	I'm waiting until she comes home.	I'm waiting until she comes home.	14881904	1472259760286	1472259760406	t	84
29232	313568	I'm waiting until she comes home.	I'm waiting until she comes home.	14881905	1472259760491	1472259760614	i	73
29232	313568	I'm waiting until she comes home.	I'm waiting until she comes home.	14881906	1472259760682	1472259760816	n	78
29232	313568	I'm waiting until she comes home.	I'm waiting until she comes home.	14881918	1472259760832	1472259760959	g	71
29232	313568	I'm waiting until she comes home.	I'm waiting until she comes home.	14881919	1472259761031	1472259761155	 	32
29232	313568	I'm waiting until she comes home.	I'm waiting until she comes home.	14881920	1472259761551	1472259761662	u	85
29232	313568	I'm waiting until she comes home.	I'm waiting until she comes home.	14881921	1472259761740	1472259761864	n	78
29232	313568	I'm waiting until she comes home.	I'm waiting until she comes home.	14881922	1472259761877	1472259762004	t	84
29232	313568	I'm waiting until she comes home.	I'm waiting until she comes home.	14881931	1472259762017	1472259762138	i	73
29232	313568	I'm waiting until she comes home.	I'm waiting until she comes home.	14881933	1472259762220	1472259762383	l	76
29232	313568	I'm waiting until she comes home.	I'm waiting until she comes home.	14881935	1472259762475	1472259762592	 	32
29232	313568	I'm waiting until she comes home.	I'm waiting until she comes home.	14881937	1472259762619	1472259762787	s	83
29232	313568	I'm waiting until she comes home.	I'm waiting until she comes home.	14881938	1472259762823	1472259762943	h	72
29232	313568	I'm waiting until she comes home.	I'm waiting until she comes home.	14881946	1472259762982	1472259763115	e	69
29232	313568	I'm waiting until she comes home.	I'm waiting until she comes home.	14881947	1472259763161	1472259763285	 	32
29232	313568	I'm waiting until she comes home.	I'm waiting until she comes home.	14881948	1472259763344	1472259763471	s	83
29232	313568	I'm waiting until she comes home.	I'm waiting until she comes home.	14881949	1472259763735	1472259763904	BKSP	8
29232	313568	I'm waiting until she comes home.	I'm waiting until she comes home.	14881950	1472259763908	1472259764057	c	67
29232	313568	I'm waiting until she comes home.	I'm waiting until she comes home.	14881951	1472259764153	1472259764296	o	79
29232	313568	I'm waiting until she comes home.	I'm waiting until she comes home.	14881963	1472259764364	1472259764462	m	77
29232	313568	I'm waiting until she comes home.	I'm waiting until she comes home.	14881964	1472259764485	1472259764628	e	69
29232	313568	I'm waiting until she comes home.	I'm waiting until she comes home.	14881965	1472259764716	1472259764875	s	83
29232	313568	I'm waiting until she comes home.	I'm waiting until she comes home.	14881966	1472259764905	1472259765049	 	32
29232	313568	I'm waiting until she comes home.	I'm waiting until she comes home.	14881967	1472259765217	1472259765324	h	72
29232	313568	I'm waiting until she comes home.	I'm waiting until she comes home.	14881986	1472259765402	1472259765539	o	79
29232	313568	I'm waiting until she comes home.	I'm waiting until she comes home.	14881988	1472259765627	1472259765731	m	77
29232	313568	I'm waiting until she comes home.	I'm waiting until she comes home.	14881990	1472259765787	1472259765914	e	69
29232	313568	I'm waiting until she comes home.	I'm waiting until she comes home.	14881992	1472259766245	1472259766320	/	191
29232	313568	I'm waiting until she comes home.	I'm waiting until she comes home.	14881994	1472259766553	1472259766713	BKSP	8
29232	313568	I'm waiting until she comes home.	I'm waiting until she comes home.	14881997	1472259766915	1472259767025	.	190
29232	313571	His current status is day to day.	His current status is day to day.	14882045	1472259769335	1472259769664	SHIFT	16
29232	313571	His current status is day to day.	His current status is day to day.	14882044	1472259769543	1472259769647	H	72
29232	313571	His current status is day to day.	His current status is day to day.	14882046	1472259769706	1472259769848	i	73
29232	313571	His current status is day to day.	His current status is day to day.	14882047	1472259769839	1472259770005	s	83
29232	313571	His current status is day to day.	His current status is day to day.	14882048	1472259770031	1472259770152	 	32
29232	313571	His current status is day to day.	His current status is day to day.	14882049	1472259770428	1472259770601	c	67
29232	313571	His current status is day to day.	His current status is day to day.	14882067	1472259770679	1472259770764	u	85
29232	313571	His current status is day to day.	His current status is day to day.	14882068	1472259770825	1472259770942	r	82
29232	313571	His current status is day to day.	His current status is day to day.	14882069	1472259771162	1472259771243	e	69
29232	313571	His current status is day to day.	His current status is day to day.	14882070	1472259771700	1472259771827	BKSP	8
29232	313571	His current status is day to day.	His current status is day to day.	14882071	1472259771902	1472259772009	r	82
29232	313571	His current status is day to day.	His current status is day to day.	14882072	1472259772177	1472259772324	e	69
29232	313571	His current status is day to day.	His current status is day to day.	14882090	1472259773035	1472259773136	n	78
29232	313571	His current status is day to day.	His current status is day to day.	14882091	1472259773153	1472259773260	t	84
29232	313571	His current status is day to day.	His current status is day to day.	14882092	1472259773399	1472259773516	 	32
29232	313571	His current status is day to day.	His current status is day to day.	14882093	1472259773993	1472259774103	s	83
29232	313571	His current status is day to day.	His current status is day to day.	14882094	1472259774359	1472259774476	t	84
29232	313571	His current status is day to day.	His current status is day to day.	14882105	1472259774598	1472259774760	a	65
29232	313571	His current status is day to day.	His current status is day to day.	14882106	1472259774925	1472259775026	t	84
29232	313571	His current status is day to day.	His current status is day to day.	14882107	1472259775435	1472259775529	u	85
29232	313571	His current status is day to day.	His current status is day to day.	14882108	1472259775577	1472259775756	s	83
29232	313571	His current status is day to day.	His current status is day to day.	14882109	1472259775766	1472259775913	 	32
29232	313571	His current status is day to day.	His current status is day to day.	14882128	1472259776459	1472259776592	BKSP	8
29232	313571	His current status is day to day.	His current status is day to day.	14882129	1472259776718	1472259776819	i	73
29232	313571	His current status is day to day.	His current status is day to day.	14882130	1472259776851	1472259777007	s	83
29232	313571	His current status is day to day.	His current status is day to day.	14882131	1472259777040	1472259777167	 	32
29232	313571	His current status is day to day.	His current status is day to day.	14882132	1472259777846	1472259777983	BKSP	8
29232	313571	His current status is day to day.	His current status is day to day.	14882133	1472259778055	1472259778142	BKSP	8
29232	313571	His current status is day to day.	His current status is day to day.	14882134	1472259778205	1472259778318	BKSP	8
29232	313571	His current status is day to day.	His current status is day to day.	14882135	1472259778408	1472259778532	 	32
29232	313571	His current status is day to day.	His current status is day to day.	14882136	1472259778671	1472259778766	i	73
29232	313571	His current status is day to day.	His current status is day to day.	14882143	1472259778874	1472259779025	s	83
29232	313571	His current status is day to day.	His current status is day to day.	14882145	1472259779014	1472259779138	 	32
29232	313571	His current status is day to day.	His current status is day to day.	14882147	1472259779210	1472259779362	d	68
29232	313571	His current status is day to day.	His current status is day to day.	14882149	1472259779479	1472259779671	a	65
29232	313571	His current status is day to day.	His current status is day to day.	14882151	1472259779694	1472259779788	y	89
29232	313571	His current status is day to day.	His current status is day to day.	14882153	1472259779866	1472259780007	 	32
29232	313571	His current status is day to day.	His current status is day to day.	14882154	1472259780030	1472259780149	t	84
29232	313571	His current status is day to day.	His current status is day to day.	14882156	1472259780136	1472259780277	o	79
29232	313571	His current status is day to day.	His current status is day to day.	14882158	1472259780319	1472259780446	 	32
29232	313571	His current status is day to day.	His current status is day to day.	14882160	1472259780563	1472259780709	d	68
29232	313571	His current status is day to day.	His current status is day to day.	14882184	1472259780812	1472259780981	a	65
29232	313571	His current status is day to day.	His current status is day to day.	14882186	1472259780975	1472259781046	y	89
29232	313571	His current status is day to day.	His current status is day to day.	14882188	1472259781568	1472259781669	.	190
29232	313578	Did he get a signing bonus?	Did he get a signing bonus?	14882293	1472259783927	1472259784805	SHIFT	16
29232	313578	Did he get a signing bonus?	Did he get a signing bonus?	14882294	1472259784708	1472259784884	D	68
29232	313578	Did he get a signing bonus?	Did he get a signing bonus?	14882295	1472259784877	1472259784968	i	73
29232	313578	Did he get a signing bonus?	Did he get a signing bonus?	14882296	1472259785083	1472259785246	d	68
29232	313578	Did he get a signing bonus?	Did he get a signing bonus?	14882298	1472259785275	1472259785410	 	32
29232	313578	Did he get a signing bonus?	Did he get a signing bonus?	14882301	1472259785890	1472259785981	h	72
29232	313578	Did he get a signing bonus?	Did he get a signing bonus?	14882321	1472259786020	1472259786144	e	69
29232	313578	Did he get a signing bonus?	Did he get a signing bonus?	14882323	1472259786147	1472259786287	 	32
29232	313578	Did he get a signing bonus?	Did he get a signing bonus?	14882325	1472259786379	1472259786480	g	71
29232	313578	Did he get a signing bonus?	Did he get a signing bonus?	14882328	1472259786548	1472259786652	a	65
29232	313578	Did he get a signing bonus?	Did he get a signing bonus?	14882377	1472259787003	1472259787123	\	8
29232	313578	Did he get a signing bonus?	Did he get a signing bonus?	14882379	1472259787146	1472259787300	e	69
29232	313578	Did he get a signing bonus?	Did he get a signing bonus?	14882380	1472259787342	1472259787465	t	84
29232	313578	Did he get a signing bonus?	Did he get a signing bonus?	14882381	1472259787572	1472259787695	BKSP	8
29232	313578	Did he get a signing bonus?	Did he get a signing bonus?	14882383	1472259787744	1472259787845	BKSP	8
29232	313578	Did he get a signing bonus?	Did he get a signing bonus?	14882385	1472259787950	1472259788025	BKSP	8
29232	313578	Did he get a signing bonus?	Did he get a signing bonus?	14882387	1472259788239	1472259788436	e	69
29232	313578	Did he get a signing bonus?	Did he get a signing bonus?	14882389	1472259788481	1472259788618	t	84
29232	313578	Did he get a signing bonus?	Did he get a signing bonus?	14882391	1472259788667	1472259788800	 	32
29232	313578	Did he get a signing bonus?	Did he get a signing bonus?	14882449	1472259788930	1472259789100	a	65
29232	313578	Did he get a signing bonus?	Did he get a signing bonus?	14882452	1472259789103	1472259789227	 	32
29232	313578	Did he get a signing bonus?	Did he get a signing bonus?	14882457	1472259790117	1472259790267	s	83
29232	313578	Did he get a signing bonus?	Did he get a signing bonus?	14882462	1472259790755	1472259790876	n	78
29232	313578	Did he get a signing bonus?	Did he get a signing bonus?	14882464	1472259791243	1472259791415	BKSP	8
29232	313578	Did he get a signing bonus?	Did he get a signing bonus?	14882468	1472259791425	1472259791549	g	71
29232	313578	Did he get a signing bonus?	Did he get a signing bonus?	14882505	1472259792164	1472259792268	n	78
29232	313578	Did he get a signing bonus?	Did he get a signing bonus?	14882506	1472259792373	1472259792516	i	73
29232	313578	Did he get a signing bonus?	Did he get a signing bonus?	14882507	1472259792848	1472259792984	BKSP	8
29232	313578	Did he get a signing bonus?	Did he get a signing bonus?	14882508	1472259793040	1472259793137	BKSP	8
29232	313578	Did he get a signing bonus?	Did he get a signing bonus?	14882509	1472259793202	1472259793286	BKSP	8
29232	313578	Did he get a signing bonus?	Did he get a signing bonus?	14882510	1472259793787	1472259793911	i	73
29232	313578	Did he get a signing bonus?	Did he get a signing bonus?	14882511	1472259793966	1472259794125	g	71
29232	313578	Did he get a signing bonus?	Did he get a signing bonus?	14882512	1472259794425	1472259794522	n	78
29232	313578	Did he get a signing bonus?	Did he get a signing bonus?	14882534	1472259795128	1472259795252	i	73
29232	313578	Did he get a signing bonus?	Did he get a signing bonus?	14882536	1472259795304	1472259795422	n	78
29232	313578	Did he get a signing bonus?	Did he get a signing bonus?	14882537	1472259795454	1472259795574	g	71
29232	313578	Did he get a signing bonus?	Did he get a signing bonus?	14882538	1472259795575	1472259795708	 	32
29232	313578	Did he get a signing bonus?	Did he get a signing bonus?	14882539	1472259795847	1472259795981	b	66
29232	313578	Did he get a signing bonus?	Did he get a signing bonus?	14882560	1472259796112	1472259796245	o	79
29232	313578	Did he get a signing bonus?	Did he get a signing bonus?	14882561	1472259796341	1472259796442	n	78
29232	313578	Did he get a signing bonus?	Did he get a signing bonus?	14882562	1472259796550	1472259796611	u	85
29232	313578	Did he get a signing bonus?	Did he get a signing bonus?	14882563	1472259796721	1472259796884	s	83
29232	313578	Did he get a signing bonus?	Did he get a signing bonus?	14882565	1472259797176	1472259797755	SHIFT	16
29232	313578	Did he get a signing bonus?	Did he get a signing bonus?	14882564	1472259797583	1472259797681	?	191
29232	313585	Add a Star Trek convention and sports memorabilia show to the mix.	Add a Star Trek convention and sport memorabilia show to the mix.	14882646	1472259799672	1472259799971	SHIFT	16
29232	313585	Add a Star Trek convention and sports memorabilia show to the mix.	Add a Star Trek convention and sport memorabilia show to the mix.	14882647	1472259799906	1472259800091	A	65
29232	313585	Add a Star Trek convention and sports memorabilia show to the mix.	Add a Star Trek convention and sport memorabilia show to the mix.	14882648	1472259800218	1472259800358	d	68
29232	313585	Add a Star Trek convention and sports memorabilia show to the mix.	Add a Star Trek convention and sport memorabilia show to the mix.	14882649	1472259800445	1472259800579	d	68
29232	313585	Add a Star Trek convention and sports memorabilia show to the mix.	Add a Star Trek convention and sport memorabilia show to the mix.	14882650	1472259800698	1472259800815	 	32
29232	313585	Add a Star Trek convention and sports memorabilia show to the mix.	Add a Star Trek convention and sport memorabilia show to the mix.	14882651	1472259800906	1472259801046	a	65
29232	313585	Add a Star Trek convention and sports memorabilia show to the mix.	Add a Star Trek convention and sport memorabilia show to the mix.	14882666	1472259801078	1472259801196	 	32
29232	313585	Add a Star Trek convention and sports memorabilia show to the mix.	Add a Star Trek convention and sport memorabilia show to the mix.	14882670	1472259801325	1472259801605	SHIFT	16
29232	313585	Add a Star Trek convention and sports memorabilia show to the mix.	Add a Star Trek convention and sport memorabilia show to the mix.	14882673	1472259801514	1472259801687	S	83
29232	313585	Add a Star Trek convention and sports memorabilia show to the mix.	Add a Star Trek convention and sport memorabilia show to the mix.	14882675	1472259801683	1472259801778	t	84
29232	313585	Add a Star Trek convention and sports memorabilia show to the mix.	Add a Star Trek convention and sport memorabilia show to the mix.	14882677	1472259801891	1472259801953	r	82
29232	313585	Add a Star Trek convention and sports memorabilia show to the mix.	Add a Star Trek convention and sport memorabilia show to the mix.	14882679	1472259801973	1472259802155	a	65
29232	313585	Add a Star Trek convention and sports memorabilia show to the mix.	Add a Star Trek convention and sport memorabilia show to the mix.	14882701	1472259802375	1472259802446	BKSP	8
29232	313585	Add a Star Trek convention and sports memorabilia show to the mix.	Add a Star Trek convention and sport memorabilia show to the mix.	14882703	1472259802539	1472259802635	BKSP	8
29232	313585	Add a Star Trek convention and sports memorabilia show to the mix.	Add a Star Trek convention and sport memorabilia show to the mix.	14882704	1472259802627	1472259802793	a	65
29232	313585	Add a Star Trek convention and sports memorabilia show to the mix.	Add a Star Trek convention and sport memorabilia show to the mix.	14882705	1472259802842	1472259802985	r	82
29232	313585	Add a Star Trek convention and sports memorabilia show to the mix.	Add a Star Trek convention and sport memorabilia show to the mix.	14882707	1472259803011	1472259803154	 	32
29232	313585	Add a Star Trek convention and sports memorabilia show to the mix.	Add a Star Trek convention and sport memorabilia show to the mix.	14882711	1472259803249	1472259803701	SHIFT	16
29232	313585	Add a Star Trek convention and sports memorabilia show to the mix.	Add a Star Trek convention and sport memorabilia show to the mix.	14882709	1472259803523	1472259803607	T	84
29232	313585	Add a Star Trek convention and sports memorabilia show to the mix.	Add a Star Trek convention and sport memorabilia show to the mix.	14882714	1472259803872	1472259804025	r	82
29232	313585	Add a Star Trek convention and sports memorabilia show to the mix.	Add a Star Trek convention and sport memorabilia show to the mix.	14882764	1472259804077	1472259804250	e	69
29232	313585	Add a Star Trek convention and sports memorabilia show to the mix.	Add a Star Trek convention and sport memorabilia show to the mix.	14882765	1472259804454	1472259804562	j	74
29232	313585	Add a Star Trek convention and sports memorabilia show to the mix.	Add a Star Trek convention and sport memorabilia show to the mix.	14882766	1472259804991	1472259805124	BKSP	8
29232	313585	Add a Star Trek convention and sports memorabilia show to the mix.	Add a Star Trek convention and sport memorabilia show to the mix.	14882767	1472259805431	1472259805525	k	75
29232	313585	Add a Star Trek convention and sports memorabilia show to the mix.	Add a Star Trek convention and sport memorabilia show to the mix.	14882768	1472259805717	1472259805834	 	32
29232	313585	Add a Star Trek convention and sports memorabilia show to the mix.	Add a Star Trek convention and sport memorabilia show to the mix.	14882769	1472259806309	1472259806458	c	67
29232	313585	Add a Star Trek convention and sports memorabilia show to the mix.	Add a Star Trek convention and sport memorabilia show to the mix.	14882797	1472259806494	1472259806628	o	79
29232	313585	Add a Star Trek convention and sports memorabilia show to the mix.	Add a Star Trek convention and sport memorabilia show to the mix.	14882798	1472259806759	1472259806876	n	78
29232	313585	Add a Star Trek convention and sports memorabilia show to the mix.	Add a Star Trek convention and sport memorabilia show to the mix.	14882800	1472259807257	1472259807344	v	86
29232	313585	Add a Star Trek convention and sports memorabilia show to the mix.	Add a Star Trek convention and sport memorabilia show to the mix.	14882802	1472259807410	1472259807599	e	69
29232	313585	Add a Star Trek convention and sports memorabilia show to the mix.	Add a Star Trek convention and sport memorabilia show to the mix.	14882804	1472259807683	1472259807797	n	78
29232	313585	Add a Star Trek convention and sports memorabilia show to the mix.	Add a Star Trek convention and sport memorabilia show to the mix.	14882852	1472259807842	1472259807976	t	84
29232	313585	Add a Star Trek convention and sports memorabilia show to the mix.	Add a Star Trek convention and sport memorabilia show to the mix.	14882855	1472259808262	1472259808376	i	73
29232	313585	Add a Star Trek convention and sports memorabilia show to the mix.	Add a Star Trek convention and sport memorabilia show to the mix.	14882857	1472259808480	1472259808604	o	79
29232	313585	Add a Star Trek convention and sports memorabilia show to the mix.	Add a Star Trek convention and sport memorabilia show to the mix.	14882860	1472259809418	1472259809506	n	78
29232	313585	Add a Star Trek convention and sports memorabilia show to the mix.	Add a Star Trek convention and sport memorabilia show to the mix.	14882865	1472259809587	1472259809704	 	32
29232	313585	Add a Star Trek convention and sports memorabilia show to the mix.	Add a Star Trek convention and sport memorabilia show to the mix.	14882890	1472259809749	1472259809926	a	65
29232	313585	Add a Star Trek convention and sports memorabilia show to the mix.	Add a Star Trek convention and sport memorabilia show to the mix.	14882893	1472259809877	1472259810004	n	78
29232	313585	Add a Star Trek convention and sports memorabilia show to the mix.	Add a Star Trek convention and sport memorabilia show to the mix.	14882896	1472259810109	1472259810278	d	68
29232	313585	Add a Star Trek convention and sports memorabilia show to the mix.	Add a Star Trek convention and sport memorabilia show to the mix.	14882898	1472259810279	1472259810399	 	32
29232	313585	Add a Star Trek convention and sports memorabilia show to the mix.	Add a Star Trek convention and sport memorabilia show to the mix.	14882900	1472259810823	1472259810892	s	83
29232	313585	Add a Star Trek convention and sports memorabilia show to the mix.	Add a Star Trek convention and sport memorabilia show to the mix.	14882929	1472259811073	1472259811200	p	80
29232	313585	Add a Star Trek convention and sports memorabilia show to the mix.	Add a Star Trek convention and sport memorabilia show to the mix.	14882932	1472259811249	1472259811382	o	79
29232	313585	Add a Star Trek convention and sports memorabilia show to the mix.	Add a Star Trek convention and sport memorabilia show to the mix.	14882936	1472259811398	1472259811529	r	82
29232	313585	Add a Star Trek convention and sports memorabilia show to the mix.	Add a Star Trek convention and sport memorabilia show to the mix.	14882939	1472259811637	1472259811744	t	84
29232	313585	Add a Star Trek convention and sports memorabilia show to the mix.	Add a Star Trek convention and sport memorabilia show to the mix.	14882941	1472259811790	1472259811897	 	32
29232	313585	Add a Star Trek convention and sports memorabilia show to the mix.	Add a Star Trek convention and sport memorabilia show to the mix.	14882973	1472259812692	1472259812816	m	77
29232	313585	Add a Star Trek convention and sports memorabilia show to the mix.	Add a Star Trek convention and sport memorabilia show to the mix.	14882975	1472259812852	1472259812979	e	69
29232	313585	Add a Star Trek convention and sports memorabilia show to the mix.	Add a Star Trek convention and sport memorabilia show to the mix.	14882977	1472259813796	1472259813930	m	77
29232	313585	Add a Star Trek convention and sports memorabilia show to the mix.	Add a Star Trek convention and sport memorabilia show to the mix.	14882979	1472259815144	1472259815284	o	79
29232	313585	Add a Star Trek convention and sports memorabilia show to the mix.	Add a Star Trek convention and sport memorabilia show to the mix.	14882981	1472259815323	1472259815469	r	82
29232	313585	Add a Star Trek convention and sports memorabilia show to the mix.	Add a Star Trek convention and sport memorabilia show to the mix.	14883026	1472259816268	1472259816457	a	65
29232	313585	Add a Star Trek convention and sports memorabilia show to the mix.	Add a Star Trek convention and sport memorabilia show to the mix.	14883027	1472259816639	1472259816769	b	66
29232	313585	Add a Star Trek convention and sports memorabilia show to the mix.	Add a Star Trek convention and sport memorabilia show to the mix.	14883028	1472259816855	1472259816994	i	73
29232	313585	Add a Star Trek convention and sports memorabilia show to the mix.	Add a Star Trek convention and sport memorabilia show to the mix.	14883029	1472259817166	1472259817290	l	76
29232	313585	Add a Star Trek convention and sports memorabilia show to the mix.	Add a Star Trek convention and sport memorabilia show to the mix.	14883030	1472259817345	1472259817420	l	76
29232	313585	Add a Star Trek convention and sports memorabilia show to the mix.	Add a Star Trek convention and sport memorabilia show to the mix.	14883096	1472259817492	1472259817661	a	65
29232	313585	Add a Star Trek convention and sports memorabilia show to the mix.	Add a Star Trek convention and sport memorabilia show to the mix.	14883098	1472259818027	1472259818151	BKSP	8
29232	313585	Add a Star Trek convention and sports memorabilia show to the mix.	Add a Star Trek convention and sport memorabilia show to the mix.	14883100	1472259818340	1472259818437	BKSP	8
29232	313585	Add a Star Trek convention and sports memorabilia show to the mix.	Add a Star Trek convention and sport memorabilia show to the mix.	14883105	1472259819015	1472259819106	i	73
29232	313585	Add a Star Trek convention and sports memorabilia show to the mix.	Add a Star Trek convention and sport memorabilia show to the mix.	14883110	1472259819132	1472259819328	a	65
29232	313585	Add a Star Trek convention and sports memorabilia show to the mix.	Add a Star Trek convention and sport memorabilia show to the mix.	14883114	1472259819470	1472259819591	 	32
29232	313585	Add a Star Trek convention and sports memorabilia show to the mix.	Add a Star Trek convention and sport memorabilia show to the mix.	14883117	1472259819948	1472259820124	s	83
29232	313585	Add a Star Trek convention and sports memorabilia show to the mix.	Add a Star Trek convention and sport memorabilia show to the mix.	14883137	1472259820088	1472259820182	h	72
29232	313585	Add a Star Trek convention and sports memorabilia show to the mix.	Add a Star Trek convention and sport memorabilia show to the mix.	14883138	1472259820245	1472259820391	o	79
29232	313585	Add a Star Trek convention and sports memorabilia show to the mix.	Add a Star Trek convention and sport memorabilia show to the mix.	14883139	1472259820446	1472259820596	w	87
29232	313585	Add a Star Trek convention and sports memorabilia show to the mix.	Add a Star Trek convention and sport memorabilia show to the mix.	14883140	1472259820606	1472259820736	 	32
29232	313585	Add a Star Trek convention and sports memorabilia show to the mix.	Add a Star Trek convention and sport memorabilia show to the mix.	14883142	1472259820766	1472259820908	t	84
29232	313585	Add a Star Trek convention and sports memorabilia show to the mix.	Add a Star Trek convention and sport memorabilia show to the mix.	14883161	1472259820879	1472259821032	o	79
29232	313585	Add a Star Trek convention and sports memorabilia show to the mix.	Add a Star Trek convention and sport memorabilia show to the mix.	14883163	1472259821055	1472259821179	 	32
29232	313585	Add a Star Trek convention and sports memorabilia show to the mix.	Add a Star Trek convention and sport memorabilia show to the mix.	14883165	1472259821192	1472259821335	t	84
29232	313585	Add a Star Trek convention and sports memorabilia show to the mix.	Add a Star Trek convention and sport memorabilia show to the mix.	14883166	1472259821312	1472259821439	h	72
29232	313585	Add a Star Trek convention and sports memorabilia show to the mix.	Add a Star Trek convention and sport memorabilia show to the mix.	14883168	1472259821462	1472259821644	e	69
29232	313585	Add a Star Trek convention and sports memorabilia show to the mix.	Add a Star Trek convention and sport memorabilia show to the mix.	14883214	1472259821628	1472259821758	 	32
29232	313585	Add a Star Trek convention and sports memorabilia show to the mix.	Add a Star Trek convention and sport memorabilia show to the mix.	14883215	1472259821843	1472259821999	m	77
29232	313585	Add a Star Trek convention and sports memorabilia show to the mix.	Add a Star Trek convention and sport memorabilia show to the mix.	14883216	1472259822430	1472259822508	i	73
29232	313585	Add a Star Trek convention and sports memorabilia show to the mix.	Add a Star Trek convention and sport memorabilia show to the mix.	14883217	1472259822747	1472259822926	x	88
29232	313585	Add a Star Trek convention and sports memorabilia show to the mix.	Add a Star Trek convention and sport memorabilia show to the mix.	14883218	1472259823613	1472259823724	.	190
29232	313600	Let me know what you want to do.	Let me know what you want to do.	14883271	1472259825788	1472259826181	SHIFT	16
29232	313600	Let me know what you want to do.	Let me know what you want to do.	14883269	1472259826006	1472259826161	L	76
29232	313600	Let me know what you want to do.	Let me know what you want to do.	14883275	1472259826244	1472259826384	e	69
29232	313600	Let me know what you want to do.	Let me know what you want to do.	14883281	1472259826449	1472259826582	t	84
29232	313600	Let me know what you want to do.	Let me know what you want to do.	14883284	1472259826573	1472259826702	 	32
29232	313600	Let me know what you want to do.	Let me know what you want to do.	14883285	1472259826780	1472259826927	m	77
29232	313600	Let me know what you want to do.	Let me know what you want to do.	14883293	1472259826950	1472259827096	e	69
29232	313600	Let me know what you want to do.	Let me know what you want to do.	14883295	1472259827090	1472259827210	 	32
29232	313600	Let me know what you want to do.	Let me know what you want to do.	14883297	1472259827401	1472259827522	k	75
29232	313600	Let me know what you want to do.	Let me know what you want to do.	14883299	1472259827596	1472259827714	n	78
29232	313600	Let me know what you want to do.	Let me know what you want to do.	14883300	1472259827769	1472259827857	o	79
29232	313600	Let me know what you want to do.	Let me know what you want to do.	14883329	1472259827915	1472259828068	w	87
29232	313600	Let me know what you want to do.	Let me know what you want to do.	14883331	1472259828069	1472259828195	 	32
29232	313600	Let me know what you want to do.	Let me know what you want to do.	14883334	1472259828241	1472259828417	w	87
29232	313600	Let me know what you want to do.	Let me know what you want to do.	14883336	1472259828620	1472259828713	h	72
29232	313600	Let me know what you want to do.	Let me know what you want to do.	14883337	1472259828779	1472259828909	a	65
29232	313600	Let me know what you want to do.	Let me know what you want to do.	14883355	1472259829013	1472259829156	t	84
29232	313600	Let me know what you want to do.	Let me know what you want to do.	14883356	1472259829169	1472259829295	 	32
29232	313600	Let me know what you want to do.	Let me know what you want to do.	14883357	1472259829468	1472259829618	y	89
29232	313600	Let me know what you want to do.	Let me know what you want to do.	14883358	1472259829569	1472259829712	o	79
29232	313600	Let me know what you want to do.	Let me know what you want to do.	14883359	1472259829729	1472259829816	u	85
29232	313600	Let me know what you want to do.	Let me know what you want to do.	14883369	1472259829888	1472259830018	 	32
29232	313600	Let me know what you want to do.	Let me know what you want to do.	14883370	1472259830051	1472259830223	w	87
29232	313600	Let me know what you want to do.	Let me know what you want to do.	14883371	1472259830371	1472259830534	a	65
29232	313600	Let me know what you want to do.	Let me know what you want to do.	14883372	1472259830586	1472259830716	n	78
29232	313600	Let me know what you want to do.	Let me know what you want to do.	14883373	1472259830752	1472259830872	t	84
29232	313600	Let me know what you want to do.	Let me know what you want to do.	14883399	1472259830880	1472259831015	 	32
29232	313600	Let me know what you want to do.	Let me know what you want to do.	14883401	1472259831006	1472259831122	t	84
29232	313600	Let me know what you want to do.	Let me know what you want to do.	14883402	1472259831113	1472259831256	o	79
29232	313600	Let me know what you want to do.	Let me know what you want to do.	14883403	1472259831318	1472259831426	 	32
29232	313600	Let me know what you want to do.	Let me know what you want to do.	14883404	1472259831879	1472259832048	d	68
29232	313600	Let me know what you want to do.	Let me know what you want to do.	14883417	1472259831996	1472259832116	o	79
29232	313600	Let me know what you want to do.	Let me know what you want to do.	14883421	1472259832356	1472259832444	.	190
29232	313606	You can have all the horsepower and it won't matter.	You can have all the horsepower and it won't matter	14883501	1472259834615	1472259835019	SHIFT	16
29232	313606	You can have all the horsepower and it won't matter.	You can have all the horsepower and it won't matter	14883498	1472259834869	1472259835019	Y	89
29232	313606	You can have all the horsepower and it won't matter.	You can have all the horsepower and it won't matter	14883505	1472259835116	1472259835269	o	79
29232	313606	You can have all the horsepower and it won't matter.	You can have all the horsepower and it won't matter	14883509	1472259835321	1472259835415	u	85
29232	313606	You can have all the horsepower and it won't matter.	You can have all the horsepower and it won't matter	14883516	1472259835526	1472259835637	 	32
29232	313606	You can have all the horsepower and it won't matter.	You can have all the horsepower and it won't matter	14883519	1472259835908	1472259836067	c	67
29232	313606	You can have all the horsepower and it won't matter.	You can have all the horsepower and it won't matter	14883542	1472259836120	1472259836318	a	65
29232	313606	You can have all the horsepower and it won't matter.	You can have all the horsepower and it won't matter	14883544	1472259836266	1472259836360	n	78
29232	313606	You can have all the horsepower and it won't matter.	You can have all the horsepower and it won't matter	14883548	1472259836734	1472259836880	 	32
29232	313606	You can have all the horsepower and it won't matter.	You can have all the horsepower and it won't matter	14883552	1472259836990	1472259837100	h	72
29232	313606	You can have all the horsepower and it won't matter.	You can have all the horsepower and it won't matter	14883553	1472259837162	1472259837312	a	65
29232	313606	You can have all the horsepower and it won't matter.	You can have all the horsepower and it won't matter	14883579	1472259837364	1472259837494	v	86
29232	313606	You can have all the horsepower and it won't matter.	You can have all the horsepower and it won't matter	14883581	1472259837556	1472259837699	e	69
29232	313606	You can have all the horsepower and it won't matter.	You can have all the horsepower and it won't matter	14883583	1472259837716	1472259837836	 	32
29232	313606	You can have all the horsepower and it won't matter.	You can have all the horsepower and it won't matter	14883585	1472259837966	1472259838142	a	65
29232	313606	You can have all the horsepower and it won't matter.	You can have all the horsepower and it won't matter	14883586	1472259838534	1472259838618	l	76
29232	313606	You can have all the horsepower and it won't matter.	You can have all the horsepower and it won't matter	14883601	1472259838680	1472259838771	l	76
29232	313606	You can have all the horsepower and it won't matter.	You can have all the horsepower and it won't matter	14883603	1472259838860	1472259839016	 	32
29232	313606	You can have all the horsepower and it won't matter.	You can have all the horsepower and it won't matter	14883605	1472259839035	1472259839153	t	84
29232	313606	You can have all the horsepower and it won't matter.	You can have all the horsepower and it won't matter	14883607	1472259839182	1472259839289	h	72
29232	313606	You can have all the horsepower and it won't matter.	You can have all the horsepower and it won't matter	14883611	1472259839317	1472259839455	e	69
29232	313606	You can have all the horsepower and it won't matter.	You can have all the horsepower and it won't matter	14883631	1472259839443	1472259839582	 	32
29232	313606	You can have all the horsepower and it won't matter.	You can have all the horsepower and it won't matter	14883632	1472259839667	1472259839791	h	72
29232	313606	You can have all the horsepower and it won't matter.	You can have all the horsepower and it won't matter	14883633	1472259839856	1472259840022	o	79
29232	313606	You can have all the horsepower and it won't matter.	You can have all the horsepower and it won't matter	14883634	1472259840045	1472259840175	r	82
29232	313606	You can have all the horsepower and it won't matter.	You can have all the horsepower and it won't matter	14883636	1472259840459	1472259840658	s	83
29232	313606	You can have all the horsepower and it won't matter.	You can have all the horsepower and it won't matter	14883638	1472259840726	1472259840837	e	69
29232	313606	You can have all the horsepower and it won't matter.	You can have all the horsepower and it won't matter	14883676	1472259841585	1472259841728	p	80
29232	313606	You can have all the horsepower and it won't matter.	You can have all the horsepower and it won't matter	14883678	1472259841742	1472259841875	o	79
29232	313606	You can have all the horsepower and it won't matter.	You can have all the horsepower and it won't matter	14883680	1472259841940	1472259842038	r	82
29232	313606	You can have all the horsepower and it won't matter.	You can have all the horsepower and it won't matter	14883681	1472259842320	1472259842483	BKSP	8
29232	313606	You can have all the horsepower and it won't matter.	You can have all the horsepower and it won't matter	14883682	1472259842522	1472259842704	w	87
29232	313606	You can have all the horsepower and it won't matter.	You can have all the horsepower and it won't matter	14883683	1472259842727	1472259842867	e	69
29232	313606	You can have all the horsepower and it won't matter.	You can have all the horsepower and it won't matter	14883692	1472259842961	1472259843072	r	82
29232	313606	You can have all the horsepower and it won't matter.	You can have all the horsepower and it won't matter	14883694	1472259843111	1472259843221	 	32
29232	313606	You can have all the horsepower and it won't matter.	You can have all the horsepower and it won't matter	14883696	1472259843568	1472259843679	n	78
29232	313606	You can have all the horsepower and it won't matter.	You can have all the horsepower and it won't matter	14883698	1472259843790	1472259843930	d	68
29232	313606	You can have all the horsepower and it won't matter.	You can have all the horsepower and it won't matter	14883702	1472259843930	1472259844086	 	32
29232	313606	You can have all the horsepower and it won't matter.	You can have all the horsepower and it won't matter	14883757	1472259844164	1472259844288	i	73
29232	313606	You can have all the horsepower and it won't matter.	You can have all the horsepower and it won't matter	14883758	1472259844369	1472259844483	t	84
29232	313606	You can have all the horsepower and it won't matter.	You can have all the horsepower and it won't matter	14883759	1472259844529	1472259844643	 	32
29232	313606	You can have all the horsepower and it won't matter.	You can have all the horsepower and it won't matter	14883760	1472259845576	1472259845693	BKSP	8
29232	313606	You can have all the horsepower and it won't matter.	You can have all the horsepower and it won't matter	14883761	1472259845762	1472259845830	BKSP	8
29232	313606	You can have all the horsepower and it won't matter.	You can have all the horsepower and it won't matter	14883763	1472259845912	1472259846002	BKSP	8
29232	313606	You can have all the horsepower and it won't matter.	You can have all the horsepower and it won't matter	14883765	1472259846081	1472259846159	BKSP	8
29232	313606	You can have all the horsepower and it won't matter.	You can have all the horsepower and it won't matter	14883767	1472259846237	1472259846312	BKSP	8
29232	313606	You can have all the horsepower and it won't matter.	You can have all the horsepower and it won't matter	14883769	1472259846383	1472259846478	BKSP	8
29232	313606	You can have all the horsepower and it won't matter.	You can have all the horsepower and it won't matter	14883771	1472259846717	1472259846896	a	65
29232	313606	You can have all the horsepower and it won't matter.	You can have all the horsepower and it won't matter	14883772	1472259846919	1472259847020	n	78
29232	313606	You can have all the horsepower and it won't matter.	You can have all the horsepower and it won't matter	14883781	1472259847369	1472259847539	d	68
29232	313606	You can have all the horsepower and it won't matter.	You can have all the horsepower and it won't matter	14883785	1472259847781	1472259847921	 	32
29232	313606	You can have all the horsepower and it won't matter.	You can have all the horsepower and it won't matter	14883789	1472259847990	1472259848126	i	73
29232	313606	You can have all the horsepower and it won't matter.	You can have all the horsepower and it won't matter	14883794	1472259848143	1472259848250	t	84
29232	313606	You can have all the horsepower and it won't matter.	You can have all the horsepower and it won't matter	14883798	1472259848276	1472259848409	 	32
29232	313606	You can have all the horsepower and it won't matter.	You can have all the horsepower and it won't matter	14883840	1472259848516	1472259848627	w	87
29232	313606	You can have all the horsepower and it won't matter.	You can have all the horsepower and it won't matter	14883842	1472259848663	1472259848698	o	79
29232	313606	You can have all the horsepower and it won't matter.	You can have all the horsepower and it won't matter	14883844	1472259849533	1472259849640	n	78
29232	313606	You can have all the horsepower and it won't matter.	You can have all the horsepower and it won't matter	14883846	1472259850207	1472259850324	'	222
29232	313606	You can have all the horsepower and it won't matter.	You can have all the horsepower and it won't matter	14883848	1472259850373	1472259850483	t	84
29232	313606	You can have all the horsepower and it won't matter.	You can have all the horsepower and it won't matter	14883865	1472259850499	1472259850607	 	32
29232	313606	You can have all the horsepower and it won't matter.	You can have all the horsepower and it won't matter	14883866	1472259850743	1472259850818	m	77
29232	313606	You can have all the horsepower and it won't matter.	You can have all the horsepower and it won't matter	14883867	1472259850883	1472259851050	a	65
29232	313606	You can have all the horsepower and it won't matter.	You can have all the horsepower and it won't matter	14883868	1472259851066	1472259851170	t	84
29232	313606	You can have all the horsepower and it won't matter.	You can have all the horsepower and it won't matter	14883869	1472259851225	1472259851310	t	84
29232	313606	You can have all the horsepower and it won't matter.	You can have all the horsepower and it won't matter	14883880	1472259851356	1472259851541	e	69
29232	313606	You can have all the horsepower and it won't matter.	You can have all the horsepower and it won't matter	14883883	1472259851508	1472259851635	r	82
29232	313616	Thanks for keeping your eyes out there on our stuff!	Thanks for keeping your eyes out there on our stuff!	14883989	1472259854068	1472259854383	SHIFT	16
29232	313616	Thanks for keeping your eyes out there on our stuff!	Thanks for keeping your eyes out there on our stuff!	14883986	1472259854198	1472259854286	T	84
29232	313616	Thanks for keeping your eyes out there on our stuff!	Thanks for keeping your eyes out there on our stuff!	14883993	1472259854403	1472259854527	h	72
29232	313616	Thanks for keeping your eyes out there on our stuff!	Thanks for keeping your eyes out there on our stuff!	14883996	1472259854747	1472259854917	a	65
29232	313616	Thanks for keeping your eyes out there on our stuff!	Thanks for keeping your eyes out there on our stuff!	14883997	1472259854963	1472259855080	n	78
29232	313616	Thanks for keeping your eyes out there on our stuff!	Thanks for keeping your eyes out there on our stuff!	14883999	1472259855574	1472259855678	k	75
29232	313616	Thanks for keeping your eyes out there on our stuff!	Thanks for keeping your eyes out there on our stuff!	14884045	1472259855919	1472259856101	s	83
29232	313616	Thanks for keeping your eyes out there on our stuff!	Thanks for keeping your eyes out there on our stuff!	14884047	1472259856147	1472259856271	 	32
29232	313616	Thanks for keeping your eyes out there on our stuff!	Thanks for keeping your eyes out there on our stuff!	14884049	1472259856553	1472259856687	f	70
29232	313616	Thanks for keeping your eyes out there on our stuff!	Thanks for keeping your eyes out there on our stuff!	14884050	1472259856820	1472259856960	o	79
29232	313616	Thanks for keeping your eyes out there on our stuff!	Thanks for keeping your eyes out there on our stuff!	14884051	1472259856967	1472259857126	r	82
29232	313616	Thanks for keeping your eyes out there on our stuff!	Thanks for keeping your eyes out there on our stuff!	14884093	1472259857139	1472259857266	 	32
29232	313616	Thanks for keeping your eyes out there on our stuff!	Thanks for keeping your eyes out there on our stuff!	14884094	1472259857739	1472259857856	k	75
29232	313616	Thanks for keeping your eyes out there on our stuff!	Thanks for keeping your eyes out there on our stuff!	14884095	1472259857889	1472259857983	e	69
29232	313616	Thanks for keeping your eyes out there on our stuff!	Thanks for keeping your eyes out there on our stuff!	14884096	1472259858048	1472259858146	e	69
29232	313616	Thanks for keeping your eyes out there on our stuff!	Thanks for keeping your eyes out there on our stuff!	14884097	1472259858261	1472259858359	i	73
29232	313616	Thanks for keeping your eyes out there on our stuff!	Thanks for keeping your eyes out there on our stuff!	14884129	1472259858648	1472259858817	BKSP	8
29232	313616	Thanks for keeping your eyes out there on our stuff!	Thanks for keeping your eyes out there on our stuff!	14884131	1472259858967	1472259859084	p	80
29232	313616	Thanks for keeping your eyes out there on our stuff!	Thanks for keeping your eyes out there on our stuff!	14884133	1472259859198	1472259859305	i	73
29232	313616	Thanks for keeping your eyes out there on our stuff!	Thanks for keeping your eyes out there on our stuff!	14884134	1472259859419	1472259859507	n	78
29232	313616	Thanks for keeping your eyes out there on our stuff!	Thanks for keeping your eyes out there on our stuff!	14884135	1472259859579	1472259859738	g	71
29232	313616	Thanks for keeping your eyes out there on our stuff!	Thanks for keeping your eyes out there on our stuff!	14884157	1472259859712	1472259859852	 	32
29232	313616	Thanks for keeping your eyes out there on our stuff!	Thanks for keeping your eyes out there on our stuff!	14884159	1472259860104	1472259860241	y	89
29232	313616	Thanks for keeping your eyes out there on our stuff!	Thanks for keeping your eyes out there on our stuff!	14884161	1472259860258	1472259860388	o	79
29232	313616	Thanks for keeping your eyes out there on our stuff!	Thanks for keeping your eyes out there on our stuff!	14884163	1472259861060	1472259861174	u	85
29232	313616	Thanks for keeping your eyes out there on our stuff!	Thanks for keeping your eyes out there on our stuff!	14884167	1472259861320	1472259861483	r	82
29232	313616	Thanks for keeping your eyes out there on our stuff!	Thanks for keeping your eyes out there on our stuff!	14884171	1472259861616	1472259861749	 	32
29232	313616	Thanks for keeping your eyes out there on our stuff!	Thanks for keeping your eyes out there on our stuff!	14884204	1472259862397	1472259862547	e	69
29232	313616	Thanks for keeping your eyes out there on our stuff!	Thanks for keeping your eyes out there on our stuff!	14884205	1472259862643	1472259862751	y	89
29232	313616	Thanks for keeping your eyes out there on our stuff!	Thanks for keeping your eyes out there on our stuff!	14884206	1472259862767	1472259862949	e	69
29232	313616	Thanks for keeping your eyes out there on our stuff!	Thanks for keeping your eyes out there on our stuff!	14884207	1472259863028	1472259863220	s	83
29232	313616	Thanks for keeping your eyes out there on our stuff!	Thanks for keeping your eyes out there on our stuff!	14884209	1472259863384	1472259863521	 	32
29232	313616	Thanks for keeping your eyes out there on our stuff!	Thanks for keeping your eyes out there on our stuff!	14884256	1472259863728	1472259863887	o	79
29232	313616	Thanks for keeping your eyes out there on our stuff!	Thanks for keeping your eyes out there on our stuff!	14884257	1472259863946	1472259864080	u	85
29232	313616	Thanks for keeping your eyes out there on our stuff!	Thanks for keeping your eyes out there on our stuff!	14884258	1472259864115	1472259864258	t	84
29232	313616	Thanks for keeping your eyes out there on our stuff!	Thanks for keeping your eyes out there on our stuff!	14884259	1472259864321	1472259864450	 	32
29232	313616	Thanks for keeping your eyes out there on our stuff!	Thanks for keeping your eyes out there on our stuff!	14884261	1472259864914	1472259865040	t	84
29232	313616	Thanks for keeping your eyes out there on our stuff!	Thanks for keeping your eyes out there on our stuff!	14884274	1472259865047	1472259865161	h	72
29232	313616	Thanks for keeping your eyes out there on our stuff!	Thanks for keeping your eyes out there on our stuff!	14884276	1472259865187	1472259865365	e	69
29232	313616	Thanks for keeping your eyes out there on our stuff!	Thanks for keeping your eyes out there on our stuff!	14884278	1472259865346	1472259865489	r	82
29232	313616	Thanks for keeping your eyes out there on our stuff!	Thanks for keeping your eyes out there on our stuff!	14884280	1472259865572	1472259865730	e	69
29232	313616	Thanks for keeping your eyes out there on our stuff!	Thanks for keeping your eyes out there on our stuff!	14884281	1472259865831	1472259865958	 	32
29232	313616	Thanks for keeping your eyes out there on our stuff!	Thanks for keeping your eyes out there on our stuff!	14884334	1472259867046	1472259867156	o	79
29232	313616	Thanks for keeping your eyes out there on our stuff!	Thanks for keeping your eyes out there on our stuff!	14884335	1472259867238	1472259867368	n	78
29232	313616	Thanks for keeping your eyes out there on our stuff!	Thanks for keeping your eyes out there on our stuff!	14884336	1472259867443	1472259867596	 	32
29232	313616	Thanks for keeping your eyes out there on our stuff!	Thanks for keeping your eyes out there on our stuff!	14884337	1472259867635	1472259867769	o	79
29232	313616	Thanks for keeping your eyes out there on our stuff!	Thanks for keeping your eyes out there on our stuff!	14884338	1472259867824	1472259867934	u	85
29232	313616	Thanks for keeping your eyes out there on our stuff!	Thanks for keeping your eyes out there on our stuff!	14884379	1472259868043	1472259868173	r	82
29232	313616	Thanks for keeping your eyes out there on our stuff!	Thanks for keeping your eyes out there on our stuff!	14884380	1472259868187	1472259868303	 	32
29232	313616	Thanks for keeping your eyes out there on our stuff!	Thanks for keeping your eyes out there on our stuff!	14884381	1472259868323	1472259868405	t	84
29232	313616	Thanks for keeping your eyes out there on our stuff!	Thanks for keeping your eyes out there on our stuff!	14884382	1472259868661	1472259868732	=	187
29232	313616	Thanks for keeping your eyes out there on our stuff!	Thanks for keeping your eyes out there on our stuff!	14884383	1472259869134	1472259869271	BKSP	8
29232	313616	Thanks for keeping your eyes out there on our stuff!	Thanks for keeping your eyes out there on our stuff!	14884384	1472259869418	1472259869548	BKSP	8
29232	313616	Thanks for keeping your eyes out there on our stuff!	Thanks for keeping your eyes out there on our stuff!	14884385	1472259869719	1472259869885	s	83
29232	313616	Thanks for keeping your eyes out there on our stuff!	Thanks for keeping your eyes out there on our stuff!	14884421	1472259870110	1472259870244	t	84
29232	313616	Thanks for keeping your eyes out there on our stuff!	Thanks for keeping your eyes out there on our stuff!	14884423	1472259870331	1472259870435	u	85
29232	313616	Thanks for keeping your eyes out there on our stuff!	Thanks for keeping your eyes out there on our stuff!	14884424	1472259870601	1472259870722	f	70
29232	313616	Thanks for keeping your eyes out there on our stuff!	Thanks for keeping your eyes out there on our stuff!	14884425	1472259870784	1472259870904	f	70
29232	313616	Thanks for keeping your eyes out there on our stuff!	Thanks for keeping your eyes out there on our stuff!	14884434	1472259871668	1472259872107	SHIFT	16
29232	313616	Thanks for keeping your eyes out there on our stuff!	Thanks for keeping your eyes out there on our stuff!	14884426	1472259871974	1472259872046	!	49
29232	313627	He cannot be in two places at once.	He cannot be in two places at once.	14884501	1472259874164	1472259874601	SHIFT	16
29232	313627	He cannot be in two places at once.	He cannot be in two places at once.	14884499	1472259874474	1472259874568	H	72
29232	313627	He cannot be in two places at once.	He cannot be in two places at once.	14884503	1472259874690	1472259874827	e	69
29232	313627	He cannot be in two places at once.	He cannot be in two places at once.	14884504	1472259874866	1472259875003	 	32
29232	313627	He cannot be in two places at once.	He cannot be in two places at once.	14884506	1472259875064	1472259875227	c	67
29232	313627	He cannot be in two places at once.	He cannot be in two places at once.	14884508	1472259875347	1472259875438	o	79
29232	313627	He cannot be in two places at once.	He cannot be in two places at once.	14884541	1472259875725	1472259875906	BKSP	8
29232	313627	He cannot be in two places at once.	He cannot be in two places at once.	14884544	1472259875900	1472259876041	a	65
29232	313627	He cannot be in two places at once.	He cannot be in two places at once.	14884546	1472259876115	1472259876226	n	78
29232	313627	He cannot be in two places at once.	He cannot be in two places at once.	14884549	1472259876288	1472259876382	n	78
29232	313627	He cannot be in two places at once.	He cannot be in two places at once.	14884552	1472259876509	1472259876655	o	79
29232	313627	He cannot be in two places at once.	He cannot be in two places at once.	14884554	1472259876790	1472259876944	t	84
29232	313627	He cannot be in two places at once.	He cannot be in two places at once.	14884588	1472259876992	1472259877128	 	32
29232	313627	He cannot be in two places at once.	He cannot be in two places at once.	14884590	1472259877384	1472259877462	b	66
29232	313627	He cannot be in two places at once.	He cannot be in two places at once.	14884592	1472259877534	1472259877670	e	69
29232	313627	He cannot be in two places at once.	He cannot be in two places at once.	14884593	1472259877823	1472259877973	 	32
29232	313627	He cannot be in two places at once.	He cannot be in two places at once.	14884594	1472259878109	1472259878341	i	73
29232	313627	He cannot be in two places at once.	He cannot be in two places at once.	14884621	1472259878409	1472259878552	n	78
29232	313627	He cannot be in two places at once.	He cannot be in two places at once.	14884624	1472259878611	1472259878748	 	32
29232	313627	He cannot be in two places at once.	He cannot be in two places at once.	14884626	1472259878770	1472259878888	t	84
29232	313627	He cannot be in two places at once.	He cannot be in two places at once.	14884627	1472259879102	1472259879187	h	72
29232	313627	He cannot be in two places at once.	He cannot be in two places at once.	14884628	1472259879594	1472259879731	BKSP	8
29232	313627	He cannot be in two places at once.	He cannot be in two places at once.	14884629	1472259879799	1472259879968	w	87
29232	313627	He cannot be in two places at once.	He cannot be in two places at once.	14884673	1472259880139	1472259880181	o	79
29232	313627	He cannot be in two places at once.	He cannot be in two places at once.	14884674	1472259880567	1472259880733	 	32
29232	313627	He cannot be in two places at once.	He cannot be in two places at once.	14884675	1472259880908	1472259880992	p	80
29232	313627	He cannot be in two places at once.	He cannot be in two places at once.	14884676	1472259881322	1472259881475	a	65
29232	313627	He cannot be in two places at once.	He cannot be in two places at once.	14884677	1472259881878	1472259881978	BKSP	8
29232	313627	He cannot be in two places at once.	He cannot be in two places at once.	14884678	1472259882201	1472259882345	l	76
29232	313627	He cannot be in two places at once.	He cannot be in two places at once.	14884709	1472259882393	1472259882562	a	65
29232	313627	He cannot be in two places at once.	He cannot be in two places at once.	14884710	1472259882723	1472259882879	c	67
29232	313627	He cannot be in two places at once.	He cannot be in two places at once.	14884711	1472259883688	1472259883845	e	69
29232	313627	He cannot be in two places at once.	He cannot be in two places at once.	14884712	1472259884025	1472259884217	s	83
29232	313627	He cannot be in two places at once.	He cannot be in two places at once.	14884714	1472259884263	1472259884383	 	32
29232	313627	He cannot be in two places at once.	He cannot be in two places at once.	14884736	1472259884429	1472259884598	a	65
29232	313627	He cannot be in two places at once.	He cannot be in two places at once.	14884739	1472259884647	1472259884800	t	84
29232	313627	He cannot be in two places at once.	He cannot be in two places at once.	14884741	1472259884836	1472259884976	 	32
29232	313627	He cannot be in two places at once.	He cannot be in two places at once.	14884743	1472259885044	1472259885197	o	79
29232	313627	He cannot be in two places at once.	He cannot be in two places at once.	14884746	1472259885581	1472259885682	n	78
29232	313627	He cannot be in two places at once.	He cannot be in two places at once.	14884821	1472259885810	1472259885927	e	69
29232	313627	He cannot be in two places at once.	He cannot be in two places at once.	14884824	1472259886330	1472259886489	BKSP	8
29232	313627	He cannot be in two places at once.	He cannot be in two places at once.	14884826	1472259886567	1472259886704	v	86
29232	313627	He cannot be in two places at once.	He cannot be in two places at once.	14884827	1472259886822	1472259886948	e	69
29232	313627	He cannot be in two places at once.	He cannot be in two places at once.	14884828	1472259887087	1472259887182	=	187
29232	313627	He cannot be in two places at once.	He cannot be in two places at once.	14884829	1472259887351	1472259887432	BKSP	8
29232	313627	He cannot be in two places at once.	He cannot be in two places at once.	14884830	1472259887501	1472259887618	BKSP	8
29232	313627	He cannot be in two places at once.	He cannot be in two places at once.	14884831	1472259887684	1472259887761	BKSP	8
29232	313627	He cannot be in two places at once.	He cannot be in two places at once.	14884833	1472259887771	1472259887951	c	67
29232	313627	He cannot be in two places at once.	He cannot be in two places at once.	14884852	1472259887973	1472259888149	e	69
29232	313627	He cannot be in two places at once.	He cannot be in two places at once.	14884855	1472259888650	1472259888715	.	190
29232	313627	He cannot be in two places at once.	He cannot be in two places at once.	14884858	1472259888929	1472259889046	BKSP	8
29232	313627	He cannot be in two places at once.	He cannot be in two places at once.	14884861	1472259889933	1472259890037	.	190
29232	313634	If not can I call you?	If not can I call you?	14884898	1472259892122	1472259892570	SHIFT	16
29232	313634	If not can I call you?	If not can I call you?	14884899	1472259892434	1472259892571	I	73
29232	313634	If not can I call you?	If not can I call you?	14884900	1472259892644	1472259892801	f	70
29232	313634	If not can I call you?	If not can I call you?	14884901	1472259892818	1472259892951	 	32
29232	313634	If not can I call you?	If not can I call you?	14884902	1472259893721	1472259893848	n	78
29232	313634	If not can I call you?	If not can I call you?	14884903	1472259893881	1472259894043	o	79
29232	313634	If not can I call you?	If not can I call you?	14884930	1472259894050	1472259894164	t	84
29232	313634	If not can I call you?	If not can I call you?	14884931	1472259894216	1472259894356	 	32
29232	313634	If not can I call you?	If not can I call you?	14884932	1472259894683	1472259894813	c	67
29232	313634	If not can I call you?	If not can I call you?	14884933	1472259895605	1472259895762	a	65
29232	313634	If not can I call you?	If not can I call you?	14884961	1472259895759	1472259895879	n	78
29232	313634	If not can I call you?	If not can I call you?	14884963	1472259895972	1472259896128	 	32
29232	313634	If not can I call you?	If not can I call you?	14884965	1472259896255	1472259896381	i	73
29232	313634	If not can I call you?	If not can I call you?	14884967	1472259896628	1472259896787	BKSP	8
29232	313634	If not can I call you?	If not can I call you?	14884969	1472259896823	1472259897054	SHIFT	16
29232	313634	If not can I call you?	If not can I call you?	14884971	1472259896976	1472259897070	I	73
29232	313634	If not can I call you?	If not can I call you?	14884973	1472259897169	1472259897306	 	32
29232	313634	If not can I call you?	If not can I call you?	14884974	1472259897437	1472259897584	c	67
29232	313634	If not can I call you?	If not can I call you?	14884975	1472259897636	1472259897776	a	65
29232	313634	If not can I call you?	If not can I call you?	14884976	1472259897747	1472259897838	l	76
29232	313634	If not can I call you?	If not can I call you?	14884977	1472259897890	1472259897978	l	76
29232	313634	If not can I call you?	If not can I call you?	14884978	1472259898053	1472259898193	 	32
29232	313634	If not can I call you?	If not can I call you?	14884979	1472259898203	1472259898326	y	89
29232	313634	If not can I call you?	If not can I call you?	14885088	1472259898372	1472259898448	p	80
29232	313634	If not can I call you?	If not can I call you?	14885090	1472259898437	1472259898525	u	85
29232	313634	If not can I call you?	If not can I call you?	14885094	1472259898761	1472259899015	SHIFT	16
29232	313634	If not can I call you?	If not can I call you?	14885097	1472259898920	1472259899018	?	191
29232	313634	If not can I call you?	If not can I call you?	14885099	1472259900785	1472259900912	BKSP	8
29232	313634	If not can I call you?	If not can I call you?	14885102	1472259900955	1472259901052	BKSP	8
29232	313634	If not can I call you?	If not can I call you?	14885105	1472259901740	1472259901824	BKSP	8
29232	313634	If not can I call you?	If not can I call you?	14885106	1472259902206	1472259902314	o	79
29232	313634	If not can I call you?	If not can I call you?	14885108	1472259902440	1472259902564	u	85
29232	313634	If not can I call you?	If not can I call you?	14885135	1472259903650	1472259903784	SHIFT	16
29232	313634	If not can I call you?	If not can I call you?	14885136	1472259903745	1472259903845	?	191
29232	313639	In a separate room, next door.	In a separate room, next door.	14885195	1472259906214	1472259906576	SHIFT	16
29232	313639	In a separate room, next door.	In a separate room, next door.	14885194	1472259906439	1472259906576	I	73
29232	313639	In a separate room, next door.	In a separate room, next door.	14885197	1472259906622	1472259906735	n	78
29232	313639	In a separate room, next door.	In a separate room, next door.	14885199	1472259906778	1472259906927	 	32
29232	313639	In a separate room, next door.	In a separate room, next door.	14885201	1472259906963	1472259907136	a	65
29232	313639	In a separate room, next door.	In a separate room, next door.	14885247	1472259907123	1472259907263	 	32
29232	313639	In a separate room, next door.	In a separate room, next door.	14885248	1472259907919	1472259908072	s	83
29232	313639	In a separate room, next door.	In a separate room, next door.	14885249	1472259908124	1472259908254	e	69
29232	313639	In a separate room, next door.	In a separate room, next door.	14885251	1472259908989	1472259909119	p	80
29232	313639	In a separate room, next door.	In a separate room, next door.	14885254	1472259909931	1472259910078	e	69
29232	313639	In a separate room, next door.	In a separate room, next door.	14885258	1472259910323	1472259910391	=	187
29232	313639	In a separate room, next door.	In a separate room, next door.	14885301	1472259910332	1472259910437	BKSP	8
29232	313639	In a separate room, next door.	In a separate room, next door.	14885303	1472259910584	1472259910649	a	65
29232	313639	In a separate room, next door.	In a separate room, next door.	14885305	1472259911148	1472259911284	BKSP	8
29232	313639	In a separate room, next door.	In a separate room, next door.	14885308	1472259911339	1472259911411	BKSP	8
29232	313639	In a separate room, next door.	In a separate room, next door.	14885312	1472259911483	1472259911633	a	65
29232	313639	In a separate room, next door.	In a separate room, next door.	14885317	1472259911662	1472259911792	r	82
29232	313639	In a separate room, next door.	In a separate room, next door.	14885322	1472259912146	1472259912322	a	65
29232	313639	In a separate room, next door.	In a separate room, next door.	14885326	1472259912510	1472259912608	t	84
29232	313639	In a separate room, next door.	In a separate room, next door.	14885348	1472259912647	1472259912793	e	69
29232	313639	In a separate room, next door.	In a separate room, next door.	14885350	1472259912809	1472259912943	 	32
29232	313639	In a separate room, next door.	In a separate room, next door.	14885352	1472259913373	1472259913483	r	82
29232	313639	In a separate room, next door.	In a separate room, next door.	14885354	1472259913584	1472259913678	o	79
29232	313639	In a separate room, next door.	In a separate room, next door.	14885357	1472259913757	1472259913871	o	79
29232	313639	In a separate room, next door.	In a separate room, next door.	14885415	1472259913994	1472259914099	m	77
29232	313639	In a separate room, next door.	In a separate room, next door.	14885419	1472259914943	1472259915028	,	188
29232	313639	In a separate room, next door.	In a separate room, next door.	14885422	1472259915135	1472259915256	 	32
29232	313639	In a separate room, next door.	In a separate room, next door.	14885425	1472259915853	1472259915960	n	78
29232	313639	In a separate room, next door.	In a separate room, next door.	14885428	1472259916012	1472259916146	e	69
29232	313639	In a separate room, next door.	In a separate room, next door.	14885459	1472259916618	1472259916772	x	88
29232	313639	In a separate room, next door.	In a separate room, next door.	14885463	1472259916765	1472259916846	t	84
29232	313639	In a separate room, next door.	In a separate room, next door.	14885466	1472259916962	1472259917095	 	32
29232	313639	In a separate room, next door.	In a separate room, next door.	14885468	1472259917851	1472259917977	d	68
29232	313639	In a separate room, next door.	In a separate room, next door.	14885470	1472259918001	1472259918083	o	79
29232	313639	In a separate room, next door.	In a separate room, next door.	14885477	1472259918135	1472259918222	o	79
29232	313639	In a separate room, next door.	In a separate room, next door.	14885479	1472259918318	1472259918432	r	82
29232	313639	In a separate room, next door.	In a separate room, next door.	14885481	1472259918653	1472259918764	.	190
29232	313649	Also it appears no payment is required tomorrow.	Also it appears no payment is required tomorrow.	14885569	1472259920833	1472259921146	SHIFT	16
29232	313649	Also it appears no payment is required tomorrow.	Also it appears no payment is required tomorrow.	14885573	1472259921061	1472259921236	A	65
29232	313649	Also it appears no payment is required tomorrow.	Also it appears no payment is required tomorrow.	14885576	1472259921227	1472259921377	l	76
29232	313649	Also it appears no payment is required tomorrow.	Also it appears no payment is required tomorrow.	14885581	1472259921384	1472259921517	s	83
29232	313649	Also it appears no payment is required tomorrow.	Also it appears no payment is required tomorrow.	14885583	1472259921556	1472259921742	o	79
29232	313649	Also it appears no payment is required tomorrow.	Also it appears no payment is required tomorrow.	14885585	1472259921816	1472259921937	 	32
29232	313649	Also it appears no payment is required tomorrow.	Also it appears no payment is required tomorrow.	14885608	1472259922217	1472259922338	i	73
29232	313649	Also it appears no payment is required tomorrow.	Also it appears no payment is required tomorrow.	14885613	1472259922364	1472259922491	t	84
29232	313649	Also it appears no payment is required tomorrow.	Also it appears no payment is required tomorrow.	14885617	1472259922514	1472259922631	 	32
29232	313649	Also it appears no payment is required tomorrow.	Also it appears no payment is required tomorrow.	14885621	1472259922723	1472259922876	a	65
29232	313649	Also it appears no payment is required tomorrow.	Also it appears no payment is required tomorrow.	14885624	1472259922893	1472259923003	p	80
29232	313649	Also it appears no payment is required tomorrow.	Also it appears no payment is required tomorrow.	14885669	1472259923081	1472259923163	p	80
29232	313649	Also it appears no payment is required tomorrow.	Also it appears no payment is required tomorrow.	14885672	1472259923273	1472259923429	e	69
29232	313649	Also it appears no payment is required tomorrow.	Also it appears no payment is required tomorrow.	14885675	1472259923514	1472259923680	a	65
29232	313649	Also it appears no payment is required tomorrow.	Also it appears no payment is required tomorrow.	14885677	1472259923787	1472259923943	r	82
29232	313649	Also it appears no payment is required tomorrow.	Also it appears no payment is required tomorrow.	14885679	1472259924108	1472259924294	s	83
29232	313649	Also it appears no payment is required tomorrow.	Also it appears no payment is required tomorrow.	14885728	1472259924372	1472259924505	 	32
29232	313649	Also it appears no payment is required tomorrow.	Also it appears no payment is required tomorrow.	14885730	1472259924705	1472259924835	n	78
29232	313649	Also it appears no payment is required tomorrow.	Also it appears no payment is required tomorrow.	14885734	1472259924890	1472259925017	o	79
29232	313649	Also it appears no payment is required tomorrow.	Also it appears no payment is required tomorrow.	14885736	1472259925394	1472259925514	 	32
29232	313649	Also it appears no payment is required tomorrow.	Also it appears no payment is required tomorrow.	14885739	1472259925959	1472259926099	p	80
29232	313649	Also it appears no payment is required tomorrow.	Also it appears no payment is required tomorrow.	14885752	1472259926197	1472259926382	a	65
29232	313649	Also it appears no payment is required tomorrow.	Also it appears no payment is required tomorrow.	14885755	1472259926506	1472259926574	y	89
29232	313649	Also it appears no payment is required tomorrow.	Also it appears no payment is required tomorrow.	14885758	1472259926767	1472259926907	m	77
29232	313649	Also it appears no payment is required tomorrow.	Also it appears no payment is required tomorrow.	14885760	1472259927009	1472259927162	e	69
29232	313649	Also it appears no payment is required tomorrow.	Also it appears no payment is required tomorrow.	14885762	1472259927246	1472259927340	n	78
29232	313649	Also it appears no payment is required tomorrow.	Also it appears no payment is required tomorrow.	14885779	1472259927454	1472259927561	t	84
29232	313649	Also it appears no payment is required tomorrow.	Also it appears no payment is required tomorrow.	14885780	1472259927629	1472259927786	 	32
29232	313649	Also it appears no payment is required tomorrow.	Also it appears no payment is required tomorrow.	14885781	1472259927915	1472259928045	i	73
29232	313649	Also it appears no payment is required tomorrow.	Also it appears no payment is required tomorrow.	14885782	1472259928173	1472259928332	s	83
29232	313649	Also it appears no payment is required tomorrow.	Also it appears no payment is required tomorrow.	14885783	1472259928336	1472259928456	 	32
29232	313649	Also it appears no payment is required tomorrow.	Also it appears no payment is required tomorrow.	14885846	1472259929070	1472259929233	r	82
29232	313649	Also it appears no payment is required tomorrow.	Also it appears no payment is required tomorrow.	14885848	1472259929269	1472259929458	e	69
29232	313649	Also it appears no payment is required tomorrow.	Also it appears no payment is required tomorrow.	14885850	1472259929972	1472259930131	q	81
29232	313649	Also it appears no payment is required tomorrow.	Also it appears no payment is required tomorrow.	14885852	1472259930221	1472259930319	u	85
29232	313649	Also it appears no payment is required tomorrow.	Also it appears no payment is required tomorrow.	14885853	1472259931341	1472259931439	i	73
29232	313649	Also it appears no payment is required tomorrow.	Also it appears no payment is required tomorrow.	14885889	1472259931776	1472259931886	r	82
29232	313649	Also it appears no payment is required tomorrow.	Also it appears no payment is required tomorrow.	14885890	1472259932155	1472259932256	e	69
29232	313649	Also it appears no payment is required tomorrow.	Also it appears no payment is required tomorrow.	14885891	1472259932373	1472259932506	d	68
29232	313649	Also it appears no payment is required tomorrow.	Also it appears no payment is required tomorrow.	14885892	1472259932555	1472259932701	 	32
29232	313649	Also it appears no payment is required tomorrow.	Also it appears no payment is required tomorrow.	14885893	1472259932904	1472259933015	t	84
29232	313649	Also it appears no payment is required tomorrow.	Also it appears no payment is required tomorrow.	14885938	1472259933054	1472259933184	o	79
29232	313649	Also it appears no payment is required tomorrow.	Also it appears no payment is required tomorrow.	14885940	1472259933321	1472259933451	m	77
29232	313649	Also it appears no payment is required tomorrow.	Also it appears no payment is required tomorrow.	14885942	1472259933608	1472259933709	o	79
29232	313649	Also it appears no payment is required tomorrow.	Also it appears no payment is required tomorrow.	14885945	1472259934122	1472259934222	o	79
29232	313649	Also it appears no payment is required tomorrow.	Also it appears no payment is required tomorrow.	14885947	1472259934362	1472259934460	r	82
29232	313649	Also it appears no payment is required tomorrow.	Also it appears no payment is required tomorrow.	14886004	1472259934716	1472259934839	BKSP	8
29232	313649	Also it appears no payment is required tomorrow.	Also it appears no payment is required tomorrow.	14886005	1472259934921	1472259934985	BKSP	8
29232	313649	Also it appears no payment is required tomorrow.	Also it appears no payment is required tomorrow.	14886006	1472259935140	1472259935264	r	82
29232	313649	Also it appears no payment is required tomorrow.	Also it appears no payment is required tomorrow.	14886008	1472259935528	1472259935632	r	82
29232	313649	Also it appears no payment is required tomorrow.	Also it appears no payment is required tomorrow.	14886010	1472259935813	1472259935933	o	79
29232	313649	Also it appears no payment is required tomorrow.	Also it appears no payment is required tomorrow.	14886012	1472259936006	1472259936149	w	87
29232	313649	Also it appears no payment is required tomorrow.	Also it appears no payment is required tomorrow.	14886014	1472259936179	1472259936312	'	222
29232	313649	Also it appears no payment is required tomorrow.	Also it appears no payment is required tomorrow.	14886061	1472259937036	1472259937133	BKSP	8
29232	313649	Also it appears no payment is required tomorrow.	Also it appears no payment is required tomorrow.	14886064	1472259937443	1472259937534	.	190
