PARTICIPANT_ID	TEST_SECTION_ID	SENTENCE	USER_INPUT	KEYSTROKE_ID	PRESS_TIME	RELEASE_TIME	LETTER	KEYCODE
294904	3169152	Here's the new one.	Here's the new one..	150554761	1476062747553	1476062747774	SHIFT	16
294904	3169152	Here's the new one.	Here's the new one..	150554762	1476062747708	1476062747806	NA	72
294904	3169152	Here's the new one.	Here's the new one..	150554763	1476062747932	1476062748063	NA	69
294904	3169152	Here's the new one.	Here's the new one..	150554764	1476062748150	1476062748246	NA	82
294904	3169152	Here's the new one.	Here's the new one..	150554765	1476062748328	1476062748412	NA	69
294904	3169152	Here's the new one.	Here's the new one..	150554766	1476062748513	1476062748632	NA	222
294904	3169152	Here's the new one.	Here's the new one..	150554775	1476062748683	1476062748790	NA	83
294904	3169152	Here's the new one.	Here's the new one..	150554777	1476062748834	1476062748950	NA	32
294904	3169152	Here's the new one.	Here's the new one..	150554779	1476062748963	1476062749057	NA	84
294904	3169152	Here's the new one.	Here's the new one..	150554781	1476062749079	1476062749175	NA	72
294904	3169152	Here's the new one.	Here's the new one..	150554789	1476062749127	1476062749226	NA	69
294904	3169152	Here's the new one.	Here's the new one..	150554790	1476062749199	1476062749294	NA	32
294904	3169152	Here's the new one.	Here's the new one..	150554792	1476062749365	1476062749451	NA	78
294904	3169152	Here's the new one.	Here's the new one..	150554794	1476062749499	1476062749551	NA	69
294904	3169152	Here's the new one.	Here's the new one..	150554796	1476062749653	1476062749785	NA	87
294904	3169152	Here's the new one.	Here's the new one..	150554798	1476062749790	1476062749928	NA	32
294904	3169152	Here's the new one.	Here's the new one..	150554810	1476062749942	1476062750093	NA	79
294904	3169152	Here's the new one.	Here's the new one..	150554812	1476062750098	1476062750180	NA	78
294904	3169152	Here's the new one.	Here's the new one..	150554815	1476062750149	1476062750248	NA	69
294904	3169152	Here's the new one.	Here's the new one..	150554818	1476062750740	1476062750742	NA	190
294904	3169152	Here's the new one.	Here's the new one..	150554820	1476062750743	1476062750775	NA	190
294904	3169158	She is taking over Global Finance Legal.	She is taking over Global Finance Legal.	150554926	1476062756026	1476062756319	SHIFT	16
294904	3169158	She is taking over Global Finance Legal.	She is taking over Global Finance Legal.	150554929	1476062756228	1476062756352	NA	83
294904	3169158	She is taking over Global Finance Legal.	She is taking over Global Finance Legal.	150554932	1476062756402	1476062756482	NA	72
294904	3169158	She is taking over Global Finance Legal.	She is taking over Global Finance Legal.	150554934	1476062756533	1476062756603	NA	69
294904	3169158	She is taking over Global Finance Legal.	She is taking over Global Finance Legal.	150554937	1476062756615	1476062756740	NA	32
294904	3169158	She is taking over Global Finance Legal.	She is taking over Global Finance Legal.	150554940	1476062756787	1476062756877	NA	73
294904	3169158	She is taking over Global Finance Legal.	She is taking over Global Finance Legal.	150554945	1476062756924	1476062756997	NA	83
294904	3169158	She is taking over Global Finance Legal.	She is taking over Global Finance Legal.	150554947	1476062756969	1476062757068	NA	32
294904	3169158	She is taking over Global Finance Legal.	She is taking over Global Finance Legal.	150554949	1476062757077	1476062757173	NA	84
294904	3169158	She is taking over Global Finance Legal.	She is taking over Global Finance Legal.	150554951	1476062757197	1476062757276	NA	65
294904	3169158	She is taking over Global Finance Legal.	She is taking over Global Finance Legal.	150554952	1476062757281	1476062757357	NA	75
294904	3169158	She is taking over Global Finance Legal.	She is taking over Global Finance Legal.	150554953	1476062757461	1476062757555	NA	73
294904	3169158	She is taking over Global Finance Legal.	She is taking over Global Finance Legal.	150554954	1476062757781	1476062757785	NA	78
294904	3169158	She is taking over Global Finance Legal.	She is taking over Global Finance Legal.	150555001	1476062757784	1476062758715	NA	71
294904	3169158	She is taking over Global Finance Legal.	She is taking over Global Finance Legal.	150554988	1476062757849	1476062757945	NA	79
294904	3169158	She is taking over Global Finance Legal.	She is taking over Global Finance Legal.	150554990	1476062757969	1476062758057	NA	86
294904	3169158	She is taking over Global Finance Legal.	She is taking over Global Finance Legal.	150554991	1476062758132	1476062758220	NA	69
294904	3169158	She is taking over Global Finance Legal.	She is taking over Global Finance Legal.	150554992	1476062758271	1476062758355	NA	82
294904	3169158	She is taking over Global Finance Legal.	She is taking over Global Finance Legal.	150554993	1476062758371	1476062758470	NA	32
294904	3169158	She is taking over Global Finance Legal.	She is taking over Global Finance Legal.	150554994	1476062758475	1476062758666	SHIFT	16
294904	3169158	She is taking over Global Finance Legal.	She is taking over Global Finance Legal.	150555082	1476062758607	1476062761728	NA	71
294904	3169158	She is taking over Global Finance Legal.	She is taking over Global Finance Legal.	150555003	1476062758773	1476062758857	NA	76
294904	3169158	She is taking over Global Finance Legal.	She is taking over Global Finance Legal.	150555005	1476062759004	1476062759076	NA	79
294904	3169158	She is taking over Global Finance Legal.	She is taking over Global Finance Legal.	150555007	1476062759140	1476062759220	NA	66
294904	3169158	She is taking over Global Finance Legal.	She is taking over Global Finance Legal.	150555009	1476062759260	1476062759352	NA	65
294904	3169158	She is taking over Global Finance Legal.	She is taking over Global Finance Legal.	150555012	1476062759370	1476062759461	NA	76
294904	3169158	She is taking over Global Finance Legal.	She is taking over Global Finance Legal.	150555021	1476062759467	1476062759579	NA	32
294904	3169158	She is taking over Global Finance Legal.	She is taking over Global Finance Legal.	150555023	1476062759656	1476062759844	SHIFT	16
294904	3169158	She is taking over Global Finance Legal.	She is taking over Global Finance Legal.	150555025	1476062759756	1476062759860	NA	70
294904	3169158	She is taking over Global Finance Legal.	She is taking over Global Finance Legal.	150555027	1476062759922	1476062760014	NA	73
294904	3169158	She is taking over Global Finance Legal.	She is taking over Global Finance Legal.	150555029	1476062760063	1476062760143	NA	78
294904	3169158	She is taking over Global Finance Legal.	She is taking over Global Finance Legal.	150555033	1476062760449	1476062760533	NA	65
294904	3169158	She is taking over Global Finance Legal.	She is taking over Global Finance Legal.	150555040	1476062760598	1476062760700	NA	78
294904	3169158	She is taking over Global Finance Legal.	She is taking over Global Finance Legal.	150555042	1476062760786	1476062760866	NA	67
294904	3169158	She is taking over Global Finance Legal.	She is taking over Global Finance Legal.	150555044	1476062760947	1476062761015	NA	69
294904	3169158	She is taking over Global Finance Legal.	She is taking over Global Finance Legal.	150555047	1476062761036	1476062761136	NA	32
294904	3169158	She is taking over Global Finance Legal.	She is taking over Global Finance Legal.	150555050	1476062761211	1476062761386	SHIFT	16
294904	3169158	She is taking over Global Finance Legal.	She is taking over Global Finance Legal.	150555078	1476062761307	1476062761398	NA	76
294904	3169158	She is taking over Global Finance Legal.	She is taking over Global Finance Legal.	150555080	1476062761483	1476062761551	NA	69
294904	3169158	She is taking over Global Finance Legal.	She is taking over Global Finance Legal.	150555088	1476062761768	1476062761854	NA	65
294904	3169158	She is taking over Global Finance Legal.	She is taking over Global Finance Legal.	150555093	1476062761955	1476062762030	NA	76
294904	3169158	She is taking over Global Finance Legal.	She is taking over Global Finance Legal.	150555097	1476062762431	1476062762558	NA	190
294904	3169161	Your fax was busy for a while.	Your fax was busy for a while.	150555133	1476062766420	1476062766627	SHIFT	16
294904	3169161	Your fax was busy for a while.	Your fax was busy for a while.	150555135	1476062766600	1476062766643	NA	89
294904	3169161	Your fax was busy for a while.	Your fax was busy for a while.	150555137	1476062766768	1476062766903	NA	79
294904	3169161	Your fax was busy for a while.	Your fax was busy for a while.	150555139	1476062766884	1476062767019	NA	85
294904	3169161	Your fax was busy for a while.	Your fax was busy for a while.	150555141	1476062767038	1476062767128	NA	82
294904	3169161	Your fax was busy for a while.	Your fax was busy for a while.	150555150	1476062767125	1476062767244	NA	32
294904	3169161	Your fax was busy for a while.	Your fax was busy for a while.	150555154	1476062767263	1476062767366	NA	70
294904	3169161	Your fax was busy for a while.	Your fax was busy for a while.	150555156	1476062767392	1476062767484	NA	65
294904	3169161	Your fax was busy for a while.	Your fax was busy for a while.	150555158	1476062767698	1476062767801	NA	88
294904	3169161	Your fax was busy for a while.	Your fax was busy for a while.	150555159	1476062767901	1476062768012	NA	32
294904	3169161	Your fax was busy for a while.	Your fax was busy for a while.	150555160	1476062768067	1476062768162	NA	87
294904	3169161	Your fax was busy for a while.	Your fax was busy for a while.	150555166	1476062768234	1476062768369	NA	65
294904	3169161	Your fax was busy for a while.	Your fax was busy for a while.	150555168	1476062768362	1476062768485	NA	83
294904	3169161	Your fax was busy for a while.	Your fax was busy for a while.	150555170	1476062768446	1476062768537	NA	32
294904	3169161	Your fax was busy for a while.	Your fax was busy for a while.	150555172	1476062768620	1476062768708	NA	66
294904	3169161	Your fax was busy for a while.	Your fax was busy for a while.	150555174	1476062768826	1476062768965	NA	85
294904	3169161	Your fax was busy for a while.	Your fax was busy for a while.	150555185	1476062768926	1476062769037	NA	83
294904	3169161	Your fax was busy for a while.	Your fax was busy for a while.	150555188	1476062769070	1476062769193	NA	89
294904	3169161	Your fax was busy for a while.	Your fax was busy for a while.	150555191	1476062769194	1476062769342	NA	32
294904	3169161	Your fax was busy for a while.	Your fax was busy for a while.	150555194	1476062769334	1476062769433	NA	70
294904	3169161	Your fax was busy for a while.	Your fax was busy for a while.	150555197	1476062769459	1476062769575	NA	79
294904	3169161	Your fax was busy for a while.	Your fax was busy for a while.	150555199	1476062769576	1476062769670	NA	82
294904	3169161	Your fax was busy for a while.	Your fax was busy for a while.	150555204	1476062769639	1476062769738	NA	32
294904	3169161	Your fax was busy for a while.	Your fax was busy for a while.	150555205	1476062769742	1476062769833	NA	65
294904	3169161	Your fax was busy for a while.	Your fax was busy for a while.	150555206	1476062769852	1476062769951	NA	32
294904	3169161	Your fax was busy for a while.	Your fax was busy for a while.	150555207	1476062769992	1476062770097	NA	87
294904	3169161	Your fax was busy for a while.	Your fax was busy for a while.	150555208	1476062770092	1476062770203	NA	72
294904	3169161	Your fax was busy for a while.	Your fax was busy for a while.	150555209	1476062770227	1476062770354	NA	73
294904	3169161	Your fax was busy for a while.	Your fax was busy for a while.	150555235	1476062770423	1476062770526	NA	76
294904	3169161	Your fax was busy for a while.	Your fax was busy for a while.	150555238	1476062770594	1476062770673	NA	69
294904	3169161	Your fax was busy for a while.	Your fax was busy for a while.	150555244	1476062770936	1476062771044	NA	190
294904	3169166	We use this functionality a lot when pathing pools.	We use this functionality a lot when pathing pools.	150555423	1476062778746	1476062779028	SHIFT	16
294904	3169166	We use this functionality a lot when pathing pools.	We use this functionality a lot when pathing pools.	150555424	1476062778924	1476062779028	NA	87
294904	3169166	We use this functionality a lot when pathing pools.	We use this functionality a lot when pathing pools.	150555425	1476062779144	1476062779239	NA	69
294904	3169166	We use this functionality a lot when pathing pools.	We use this functionality a lot when pathing pools.	150555426	1476062779256	1476062779369	NA	32
294904	3169166	We use this functionality a lot when pathing pools.	We use this functionality a lot when pathing pools.	150555427	1476062779472	1476062779574	NA	85
294904	3169166	We use this functionality a lot when pathing pools.	We use this functionality a lot when pathing pools.	150555438	1476062779551	1476062779631	NA	83
294904	3169166	We use this functionality a lot when pathing pools.	We use this functionality a lot when pathing pools.	150555440	1476062779703	1476062779799	NA	69
294904	3169166	We use this functionality a lot when pathing pools.	We use this functionality a lot when pathing pools.	150555442	1476062779811	1476062779919	NA	32
294904	3169166	We use this functionality a lot when pathing pools.	We use this functionality a lot when pathing pools.	150555444	1476062779927	1476062780022	NA	84
294904	3169166	We use this functionality a lot when pathing pools.	We use this functionality a lot when pathing pools.	150555445	1476062780019	1476062780115	NA	72
294904	3169166	We use this functionality a lot when pathing pools.	We use this functionality a lot when pathing pools.	150555446	1476062780260	1476062780360	NA	73
294904	3169166	We use this functionality a lot when pathing pools.	We use this functionality a lot when pathing pools.	150555452	1476062780384	1476062780470	NA	83
294904	3169166	We use this functionality a lot when pathing pools.	We use this functionality a lot when pathing pools.	150555454	1476062780507	1476062780615	NA	32
294904	3169166	We use this functionality a lot when pathing pools.	We use this functionality a lot when pathing pools.	150555456	1476062780599	1476062780691	NA	70
294904	3169166	We use this functionality a lot when pathing pools.	We use this functionality a lot when pathing pools.	150555458	1476062780846	1476062780937	NA	85
294904	3169166	We use this functionality a lot when pathing pools.	We use this functionality a lot when pathing pools.	150555460	1476062781062	1476062781162	NA	78
294904	3169166	We use this functionality a lot when pathing pools.	We use this functionality a lot when pathing pools.	150555476	1476062781159	1476062781246	NA	67
294904	3169166	We use this functionality a lot when pathing pools.	We use this functionality a lot when pathing pools.	150555478	1476062781373	1476062781449	NA	84
294904	3169166	We use this functionality a lot when pathing pools.	We use this functionality a lot when pathing pools.	150555480	1476062781421	1476062781504	NA	73
294904	3169166	We use this functionality a lot when pathing pools.	We use this functionality a lot when pathing pools.	150555483	1476062781594	1476062781697	NA	79
294904	3169166	We use this functionality a lot when pathing pools.	We use this functionality a lot when pathing pools.	150555486	1476062781714	1476062781829	NA	78
294904	3169166	We use this functionality a lot when pathing pools.	We use this functionality a lot when pathing pools.	150555488	1476062781847	1476062781955	NA	65
294904	3169166	We use this functionality a lot when pathing pools.	We use this functionality a lot when pathing pools.	150555495	1476062781943	1476062782027	NA	76
294904	3169166	We use this functionality a lot when pathing pools.	We use this functionality a lot when pathing pools.	150555496	1476062782112	1476062782204	NA	73
294904	3169166	We use this functionality a lot when pathing pools.	We use this functionality a lot when pathing pools.	150555497	1476062782253	1476062782353	NA	84
294904	3169166	We use this functionality a lot when pathing pools.	We use this functionality a lot when pathing pools.	150555498	1476062782353	1476062782469	NA	89
294904	3169166	We use this functionality a lot when pathing pools.	We use this functionality a lot when pathing pools.	150555499	1476062782461	1476062782585	NA	32
294904	3169166	We use this functionality a lot when pathing pools.	We use this functionality a lot when pathing pools.	150555520	1476062782582	1476062782677	NA	65
294904	3169166	We use this functionality a lot when pathing pools.	We use this functionality a lot when pathing pools.	150555521	1476062782682	1476062782792	NA	32
294904	3169166	We use this functionality a lot when pathing pools.	We use this functionality a lot when pathing pools.	150555522	1476062782813	1476062782897	NA	76
294904	3169166	We use this functionality a lot when pathing pools.	We use this functionality a lot when pathing pools.	150555523	1476062783045	1476062783121	NA	79
294904	3169166	We use this functionality a lot when pathing pools.	We use this functionality a lot when pathing pools.	150555524	1476062783186	1476062783277	NA	84
294904	3169166	We use this functionality a lot when pathing pools.	We use this functionality a lot when pathing pools.	150555526	1476062783363	1476062783499	NA	32
294904	3169166	We use this functionality a lot when pathing pools.	We use this functionality a lot when pathing pools.	150555548	1476062783483	1476062783591	NA	87
294904	3169166	We use this functionality a lot when pathing pools.	We use this functionality a lot when pathing pools.	150555550	1476062783614	1476062783710	NA	72
294904	3169166	We use this functionality a lot when pathing pools.	We use this functionality a lot when pathing pools.	150555552	1476062783726	1476062783813	NA	69
294904	3169166	We use this functionality a lot when pathing pools.	We use this functionality a lot when pathing pools.	150555554	1476062783841	1476062783952	NA	78
294904	3169166	We use this functionality a lot when pathing pools.	We use this functionality a lot when pathing pools.	150555555	1476062783956	1476062784077	NA	32
294904	3169166	We use this functionality a lot when pathing pools.	We use this functionality a lot when pathing pools.	150555556	1476062784309	1476062784420	NA	80
294904	3169166	We use this functionality a lot when pathing pools.	We use this functionality a lot when pathing pools.	150555569	1476062784429	1476062784500	NA	65
294904	3169166	We use this functionality a lot when pathing pools.	We use this functionality a lot when pathing pools.	150555573	1476062784537	1476062784639	NA	84
294904	3169166	We use this functionality a lot when pathing pools.	We use this functionality a lot when pathing pools.	150555576	1476062784637	1476062784737	NA	72
294904	3169166	We use this functionality a lot when pathing pools.	We use this functionality a lot when pathing pools.	150555578	1476062784780	1476062784884	NA	73
294904	3169166	We use this functionality a lot when pathing pools.	We use this functionality a lot when pathing pools.	150555581	1476062784930	1476062785039	NA	78
294904	3169166	We use this functionality a lot when pathing pools.	We use this functionality a lot when pathing pools.	150555601	1476062785111	1476062785214	NA	32
294904	3169166	We use this functionality a lot when pathing pools.	We use this functionality a lot when pathing pools.	150555602	1476062785376	1476062785416	NA	80
294904	3169166	We use this functionality a lot when pathing pools.	We use this functionality a lot when pathing pools.	150555605	1476062785522	1476062785606	NA	79
294904	3169166	We use this functionality a lot when pathing pools.	We use this functionality a lot when pathing pools.	150555606	1476062785682	1476062785765	NA	79
294904	3169166	We use this functionality a lot when pathing pools.	We use this functionality a lot when pathing pools.	150555609	1476062785910	1476062786014	NA	76
294904	3169166	We use this functionality a lot when pathing pools.	We use this functionality a lot when pathing pools.	150555616	1476062786018	1476062786114	NA	83
294904	3169166	We use this functionality a lot when pathing pools.	We use this functionality a lot when pathing pools.	150555619	1476062786299	1476062786426	NA	190
294904	3169173	So, we need to get these resolved.	So, we need to get these resolved.	150555724	1476062790705	1476062791023	SHIFT	16
294904	3169173	So, we need to get these resolved.	So, we need to get these resolved.	150555722	1476062790956	1476062791015	NA	83
294904	3169173	So, we need to get these resolved.	So, we need to get these resolved.	150555726	1476062791093	1476062791173	NA	79
294904	3169173	So, we need to get these resolved.	So, we need to get these resolved.	150555728	1476062791323	1476062791438	NA	188
294904	3169173	So, we need to get these resolved.	So, we need to get these resolved.	150555731	1476062791483	1476062791606	NA	32
294904	3169173	So, we need to get these resolved.	So, we need to get these resolved.	150555733	1476062791655	1476062791746	NA	87
294904	3169173	So, we need to get these resolved.	So, we need to get these resolved.	150555738	1476062791855	1476062791946	NA	69
294904	3169173	So, we need to get these resolved.	So, we need to get these resolved.	150555741	1476062791966	1476062792058	NA	32
294904	3169173	So, we need to get these resolved.	So, we need to get these resolved.	150555745	1476062792109	1476062792188	NA	78
294904	3169173	So, we need to get these resolved.	So, we need to get these resolved.	150555750	1476062792207	1476062792286	NA	69
294904	3169173	So, we need to get these resolved.	So, we need to get these resolved.	150555753	1476062792364	1476062792432	NA	69
294904	3169173	So, we need to get these resolved.	So, we need to get these resolved.	150555768	1476062792541	1476062792628	NA	68
294904	3169173	So, we need to get these resolved.	So, we need to get these resolved.	150555770	1476062792706	1476062792814	NA	32
294904	3169173	So, we need to get these resolved.	So, we need to get these resolved.	150555773	1476062792852	1476062792947	NA	84
294904	3169173	So, we need to get these resolved.	So, we need to get these resolved.	150555775	1476062792952	1476062793051	NA	79
294904	3169173	So, we need to get these resolved.	So, we need to get these resolved.	150555793	1476062793036	1476062793175	NA	32
294904	3169173	So, we need to get these resolved.	So, we need to get these resolved.	150555795	1476062793355	1476062793450	NA	69
294904	3169173	So, we need to get these resolved.	So, we need to get these resolved.	150555796	1476062793510	1476062793590	NA	84
294904	3169173	So, we need to get these resolved.	So, we need to get these resolved.	150555797	1476062793591	1476062793705	NA	32
294904	3169173	So, we need to get these resolved.	So, we need to get these resolved.	150555823	1476062793703	1476062793794	NA	84
294904	3169173	So, we need to get these resolved.	So, we need to get these resolved.	150555825	1476062793755	1476062793842	NA	72
294904	3169173	So, we need to get these resolved.	So, we need to get these resolved.	150555828	1476062793859	1476062793966	NA	69
294904	3169173	So, we need to get these resolved.	So, we need to get these resolved.	150555831	1476062794058	1476062794098	NA	83
294904	3169173	So, we need to get these resolved.	So, we need to get these resolved.	150555834	1476062794087	1476062794202	NA	69
294904	3169173	So, we need to get these resolved.	So, we need to get these resolved.	150555837	1476062794702	1476062794826	NA	32
294904	3169173	So, we need to get these resolved.	So, we need to get these resolved.	150555857	1476062794900	1476062794992	NA	82
294904	3169173	So, we need to get these resolved.	So, we need to get these resolved.	150555858	1476062795031	1476062795150	NA	69
294904	3169173	So, we need to get these resolved.	So, we need to get these resolved.	150555859	1476062795190	1476062795266	NA	83
294904	3169173	So, we need to get these resolved.	So, we need to get these resolved.	150555860	1476062795523	1476062795606	NA	79
294904	3169173	So, we need to get these resolved.	So, we need to get these resolved.	150555863	1476062795650	1476062795721	NA	86
294904	3169173	So, we need to get these resolved.	So, we need to get these resolved.	150555891	1476062796211	1476062796282		8
294904	3169173	So, we need to get these resolved.	So, we need to get these resolved.	150555893	1476062796477	1476062796580	NA	76
294904	3169173	So, we need to get these resolved.	So, we need to get these resolved.	150555895	1476062796725	1476062796837	NA	86
294904	3169173	So, we need to get these resolved.	So, we need to get these resolved.	150555897	1476062796897	1476062796997	NA	69
294904	3169173	So, we need to get these resolved.	So, we need to get these resolved.	150555899	1476062797109	1476062797197	NA	68
294904	3169173	So, we need to get these resolved.	So, we need to get these resolved.	150555900	1476062797182	1476062797289	NA	190
294904	3169180	We will be managing our rates and we need to plan on software.	We will be managing our rates and we need to plan on software.	150555982	1476062801764	1476062802004	SHIFT	16
294904	3169180	We will be managing our rates and we need to plan on software.	We will be managing our rates and we need to plan on software.	150555984	1476062801949	1476062802028	NA	87
294904	3169180	We will be managing our rates and we need to plan on software.	We will be managing our rates and we need to plan on software.	150555985	1476062802152	1476062802247	NA	69
294904	3169180	We will be managing our rates and we need to plan on software.	We will be managing our rates and we need to plan on software.	150555986	1476062802309	1476062802424	NA	32
294904	3169180	We will be managing our rates and we need to plan on software.	We will be managing our rates and we need to plan on software.	150555987	1476062802451	1476062802502	NA	76
294904	3169180	We will be managing our rates and we need to plan on software.	We will be managing our rates and we need to plan on software.	150555988	1476062802780	1476062802880		8
294904	3169180	We will be managing our rates and we need to plan on software.	We will be managing our rates and we need to plan on software.	150556002	1476062802933	1476062803025	NA	87
294904	3169180	We will be managing our rates and we need to plan on software.	We will be managing our rates and we need to plan on software.	150556004	1476062803142	1476062803223	NA	73
294904	3169180	We will be managing our rates and we need to plan on software.	We will be managing our rates and we need to plan on software.	150556009	1476062803300	1476062803395	NA	76
294904	3169180	We will be managing our rates and we need to plan on software.	We will be managing our rates and we need to plan on software.	150556014	1476062803427	1476062803495	NA	76
294904	3169180	We will be managing our rates and we need to plan on software.	We will be managing our rates and we need to plan on software.	150556017	1476062803858	1476062803945	NA	32
294904	3169180	We will be managing our rates and we need to plan on software.	We will be managing our rates and we need to plan on software.	150556049	1476062804035	1476062804149	NA	66
294904	3169180	We will be managing our rates and we need to plan on software.	We will be managing our rates and we need to plan on software.	150556055	1476062804142	1476062804237	NA	69
294904	3169180	We will be managing our rates and we need to plan on software.	We will be managing our rates and we need to plan on software.	150556059	1476062804234	1476062804354	NA	32
294904	3169180	We will be managing our rates and we need to plan on software.	We will be managing our rates and we need to plan on software.	150556061	1476062804498	1476062804574	NA	77
294904	3169180	We will be managing our rates and we need to plan on software.	We will be managing our rates and we need to plan on software.	150556063	1476062804852	1476062804955	NA	65
294904	3169180	We will be managing our rates and we need to plan on software.	We will be managing our rates and we need to plan on software.	150556079	1476062805146	1476062805245	NA	78
294904	3169180	We will be managing our rates and we need to plan on software.	We will be managing our rates and we need to plan on software.	150556082	1476062805328	1476062805440	NA	65
294904	3169180	We will be managing our rates and we need to plan on software.	We will be managing our rates and we need to plan on software.	150556091	1476062805578	1476062806132	NA	71
294904	3169180	We will be managing our rates and we need to plan on software.	We will be managing our rates and we need to plan on software.	150556088	1476062805821	1476062805920	NA	73
294904	3169180	We will be managing our rates and we need to plan on software.	We will be managing our rates and we need to plan on software.	150556090	1476062805981	1476062806076	NA	78
294904	3169180	We will be managing our rates and we need to plan on software.	We will be managing our rates and we need to plan on software.	150556092	1476062806117	1476062806226	NA	32
294904	3169180	We will be managing our rates and we need to plan on software.	We will be managing our rates and we need to plan on software.	150556093	1476062806225	1476062806334	NA	79
294904	3169180	We will be managing our rates and we need to plan on software.	We will be managing our rates and we need to plan on software.	150556094	1476062806335	1476062806464	NA	85
294904	3169180	We will be managing our rates and we need to plan on software.	We will be managing our rates and we need to plan on software.	150556095	1476062806468	1476062806559	NA	82
294904	3169180	We will be managing our rates and we need to plan on software.	We will be managing our rates and we need to plan on software.	150556114	1476062806552	1476062806648	NA	32
294904	3169180	We will be managing our rates and we need to plan on software.	We will be managing our rates and we need to plan on software.	150556116	1476062806667	1476062806774	NA	82
294904	3169180	We will be managing our rates and we need to plan on software.	We will be managing our rates and we need to plan on software.	150556120	1476062806818	1476062806918	NA	65
294904	3169180	We will be managing our rates and we need to plan on software.	We will be managing our rates and we need to plan on software.	150556121	1476062806969	1476062807076	NA	84
294904	3169180	We will be managing our rates and we need to plan on software.	We will be managing our rates and we need to plan on software.	150556122	1476062807159	1476062807259	NA	69
294904	3169180	We will be managing our rates and we need to plan on software.	We will be managing our rates and we need to plan on software.	150556123	1476062807310	1476062807386	NA	83
294904	3169180	We will be managing our rates and we need to plan on software.	We will be managing our rates and we need to plan on software.	150556124	1476062807410	1476062807496	NA	32
294904	3169180	We will be managing our rates and we need to plan on software.	We will be managing our rates and we need to plan on software.	150556125	1476062807490	1476062807580	NA	65
294904	3169180	We will be managing our rates and we need to plan on software.	We will be managing our rates and we need to plan on software.	150556126	1476062807590	1476062807685	NA	78
294904	3169180	We will be managing our rates and we need to plan on software.	We will be managing our rates and we need to plan on software.	150556127	1476062807642	1476062807748	NA	68
294904	3169180	We will be managing our rates and we need to plan on software.	We will be managing our rates and we need to plan on software.	150556129	1476062807827	1476062807899	NA	32
294904	3169180	We will be managing our rates and we need to plan on software.	We will be managing our rates and we need to plan on software.	150556151	1476062807875	1476062807983	NA	87
294904	3169180	We will be managing our rates and we need to plan on software.	We will be managing our rates and we need to plan on software.	150556154	1476062808075	1476062808174	NA	69
294904	3169180	We will be managing our rates and we need to plan on software.	We will be managing our rates and we need to plan on software.	150556158	1476062808196	1476062808299	NA	32
294904	3169180	We will be managing our rates and we need to plan on software.	We will be managing our rates and we need to plan on software.	150556163	1476062808372	1476062808448	NA	78
294904	3169180	We will be managing our rates and we need to plan on software.	We will be managing our rates and we need to plan on software.	150556165	1476062808432	1476062808532	NA	69
294904	3169180	We will be managing our rates and we need to plan on software.	We will be managing our rates and we need to plan on software.	150556167	1476062808619	1476062808703	NA	69
294904	3169180	We will be managing our rates and we need to plan on software.	We will be managing our rates and we need to plan on software.	150556172	1476062808803	1476062808894	NA	68
294904	3169180	We will be managing our rates and we need to plan on software.	We will be managing our rates and we need to plan on software.	150556173	1476062808941	1476062809052	NA	32
294904	3169180	We will be managing our rates and we need to plan on software.	We will be managing our rates and we need to plan on software.	150556174	1476062809049	1476062809149	NA	84
294904	3169180	We will be managing our rates and we need to plan on software.	We will be managing our rates and we need to plan on software.	150556175	1476062809145	1476062809260	NA	79
294904	3169180	We will be managing our rates and we need to plan on software.	We will be managing our rates and we need to plan on software.	150556182	1476062809258	1476062809377	NA	32
294904	3169180	We will be managing our rates and we need to plan on software.	We will be managing our rates and we need to plan on software.	150556184	1476062809448	1476062809520	NA	80
294904	3169180	We will be managing our rates and we need to plan on software.	We will be managing our rates and we need to plan on software.	150556187	1476062809613	1476062809718	NA	76
294904	3169180	We will be managing our rates and we need to plan on software.	We will be managing our rates and we need to plan on software.	150556190	1476062809717	1476062809808	NA	65
294904	3169180	We will be managing our rates and we need to plan on software.	We will be managing our rates and we need to plan on software.	150556194	1476062809900	1476062809980	NA	78
294904	3169180	We will be managing our rates and we need to plan on software.	We will be managing our rates and we need to plan on software.	150556198	1476062809984	1476062810123	NA	32
294904	3169180	We will be managing our rates and we need to plan on software.	We will be managing our rates and we need to plan on software.	150556211	1476062810149	1476062810245	NA	79
294904	3169180	We will be managing our rates and we need to plan on software.	We will be managing our rates and we need to plan on software.	150556212	1476062810321	1476062810401	NA	78
294904	3169180	We will be managing our rates and we need to plan on software.	We will be managing our rates and we need to plan on software.	150556213	1476062810409	1476062810538	NA	32
294904	3169180	We will be managing our rates and we need to plan on software.	We will be managing our rates and we need to plan on software.	150556216	1476062810566	1476062810666	NA	83
294904	3169180	We will be managing our rates and we need to plan on software.	We will be managing our rates and we need to plan on software.	150556221	1476062810769	1476062810880	NA	79
294904	3169180	We will be managing our rates and we need to plan on software.	We will be managing our rates and we need to plan on software.	150556238	1476062810935	1476062811039	NA	70
294904	3169180	We will be managing our rates and we need to plan on software.	We will be managing our rates and we need to plan on software.	150556241	1476062811440	1476062811551	NA	84
294904	3169180	We will be managing our rates and we need to plan on software.	We will be managing our rates and we need to plan on software.	150556244	1476062811660	1476062811768	NA	87
294904	3169180	We will be managing our rates and we need to plan on software.	We will be managing our rates and we need to plan on software.	150556246	1476062811841	1476062811913	NA	65
294904	3169180	We will be managing our rates and we need to plan on software.	We will be managing our rates and we need to plan on software.	150556248	1476062811958	1476062812062	NA	82
294904	3169180	We will be managing our rates and we need to plan on software.	We will be managing our rates and we need to plan on software.	150556260	1476062812343	1476062812439	NA	69
294904	3169180	We will be managing our rates and we need to plan on software.	We will be managing our rates and we need to plan on software.	150556262	1476062812496	1476062812583	NA	190
294904	3169185	Could you please let me know as soon as possible.	Could you please let me know as soon as posible.	150556326	1476062815845	1476062816084	SHIFT	16
294904	3169185	Could you please let me know as soon as possible.	Could you please let me know as soon as posible.	150556328	1476062816017	1476062816120	NA	67
294904	3169185	Could you please let me know as soon as possible.	Could you please let me know as soon as posible.	150556330	1476062816133	1476062816257	NA	79
294904	3169185	Could you please let me know as soon as possible.	Could you please let me know as soon as posible.	150556331	1476062816286	1476062816382	NA	85
294904	3169185	Could you please let me know as soon as possible.	Could you please let me know as soon as posible.	150556332	1476062816458	1476062816562	NA	76
294904	3169185	Could you please let me know as soon as possible.	Could you please let me know as soon as posible.	150556333	1476062816583	1476062816686	NA	68
294904	3169185	Could you please let me know as soon as possible.	Could you please let me know as soon as posible.	150556337	1476062816688	1476062816782	NA	32
294904	3169185	Could you please let me know as soon as possible.	Could you please let me know as soon as posible.	150556338	1476062816903	1476062817003	NA	89
294904	3169185	Could you please let me know as soon as possible.	Could you please let me know as soon as posible.	150556339	1476062817026	1476062817146	NA	79
294904	3169185	Could you please let me know as soon as possible.	Could you please let me know as soon as posible.	150556340	1476062817150	1476062817233	NA	85
294904	3169185	Could you please let me know as soon as possible.	Could you please let me know as soon as posible.	150556367	1476062817218	1476062817354	NA	32
294904	3169185	Could you please let me know as soon as possible.	Could you please let me know as soon as posible.	150556368	1476062817427	1476062817496	NA	80
294904	3169185	Could you please let me know as soon as possible.	Could you please let me know as soon as posible.	150556370	1476062817696	1476062817821	NA	76
294904	3169185	Could you please let me know as soon as possible.	Could you please let me know as soon as posible.	150556373	1476062817901	1476062818000	NA	69
294904	3169185	Could you please let me know as soon as possible.	Could you please let me know as soon as posible.	150556375	1476062818404	1476062818560	NA	65
294904	3169185	Could you please let me know as soon as possible.	Could you please let me know as soon as posible.	150556377	1476062818590	1476062818700	NA	83
294904	3169185	Could you please let me know as soon as possible.	Could you please let me know as soon as posible.	150556393	1476062818831	1476062818887	NA	69
294904	3169185	Could you please let me know as soon as possible.	Could you please let me know as soon as posible.	150556394	1476062818885	1476062819006	NA	32
294904	3169185	Could you please let me know as soon as possible.	Could you please let me know as soon as posible.	150556395	1476062819004	1476062819119	NA	76
294904	3169185	Could you please let me know as soon as possible.	Could you please let me know as soon as posible.	150556397	1476062819159	1476062819273	NA	69
294904	3169185	Could you please let me know as soon as possible.	Could you please let me know as soon as posible.	150556401	1476062819346	1476062819447	NA	84
294904	3169185	Could you please let me know as soon as possible.	Could you please let me know as soon as posible.	150556412	1476062819390	1476062819495	NA	32
294904	3169185	Could you please let me know as soon as possible.	Could you please let me know as soon as posible.	150556414	1476062819557	1476062819664	NA	77
294904	3169185	Could you please let me know as soon as possible.	Could you please let me know as soon as posible.	150556417	1476062819657	1476062819745	NA	69
294904	3169185	Could you please let me know as soon as possible.	Could you please let me know as soon as posible.	150556420	1476062819742	1476062819849	NA	32
294904	3169185	Could you please let me know as soon as possible.	Could you please let me know as soon as posible.	150556424	1476062819829	1476062819949	NA	75
294904	3169185	Could you please let me know as soon as possible.	Could you please let me know as soon as posible.	150556426	1476062820004	1476062820104	NA	78
294904	3169185	Could you please let me know as soon as possible.	Could you please let me know as soon as posible.	150556429	1476062820146	1476062820270	NA	79
294904	3169185	Could you please let me know as soon as possible.	Could you please let me know as soon as posible.	150556430	1476062820254	1476062820330	NA	87
294904	3169185	Could you please let me know as soon as possible.	Could you please let me know as soon as posible.	150556432	1476062820375	1476062820451	NA	32
294904	3169185	Could you please let me know as soon as possible.	Could you please let me know as soon as posible.	150556434	1476062820459	1476062820606	NA	65
294904	3169185	Could you please let me know as soon as possible.	Could you please let me know as soon as posible.	150556454	1476062820596	1476062820727	NA	83
294904	3169185	Could you please let me know as soon as possible.	Could you please let me know as soon as posible.	150556455	1476062820784	1476062820839	NA	32
294904	3169185	Could you please let me know as soon as possible.	Could you please let me know as soon as posible.	150556456	1476062820848	1476062820920	NA	83
294904	3169185	Could you please let me know as soon as possible.	Could you please let me know as soon as posible.	150556457	1476062821051	1476062821167	NA	79
294904	3169185	Could you please let me know as soon as possible.	Could you please let me know as soon as posible.	150556459	1476062821272	1476062821360	NA	79
294904	3169185	Could you please let me know as soon as possible.	Could you please let me know as soon as posible.	150556461	1476062821502	1476062821589	NA	78
294904	3169185	Could you please let me know as soon as possible.	Could you please let me know as soon as posible.	150556480	1476062821587	1476062821702	NA	32
294904	3169185	Could you please let me know as soon as possible.	Could you please let me know as soon as posible.	150556481	1476062821671	1476062821776	NA	65
294904	3169185	Could you please let me know as soon as possible.	Could you please let me know as soon as posible.	150556483	1476062821840	1476062821950	NA	83
294904	3169185	Could you please let me know as soon as possible.	Could you please let me know as soon as posible.	150556484	1476062822001	1476062822125	NA	32
294904	3169185	Could you please let me know as soon as possible.	Could you please let me know as soon as posible.	150556485	1476062822215	1476062822275	NA	80
294904	3169185	Could you please let me know as soon as possible.	Could you please let me know as soon as posible.	150556487	1476062822347	1476062822459	NA	79
294904	3169185	Could you please let me know as soon as possible.	Could you please let me know as soon as posible.	150556496	1476062822476	1476062822574	NA	83
294904	3169185	Could you please let me know as soon as possible.	Could you please let me know as soon as posible.	150556499	1476062822592	1476062822683	NA	73
294904	3169185	Could you please let me know as soon as possible.	Could you please let me know as soon as posible.	150556501	1476062822784	1476062822868	NA	66
294904	3169185	Could you please let me know as soon as possible.	Could you please let me know as soon as posible.	150556503	1476062822936	1476062823040	NA	76
294904	3169185	Could you please let me know as soon as possible.	Could you please let me know as soon as posible.	150556505	1476062823061	1476062823168	NA	69
294904	3169185	Could you please let me know as soon as possible.	Could you please let me know as soon as posible.	150556514	1476062823405	1476062823543	NA	190
294904	3169191	Please stay on top of the security issue.	Please stay on top of the security issue.	150556631	1476062826757	1476062826949	SHIFT	16
294904	3169191	Please stay on top of the security issue.	Please stay on top of the security issue.	150556634	1476062826938	1476062827025	NA	80
294904	3169191	Please stay on top of the security issue.	Please stay on top of the security issue.	150556635	1476062827170	1476062827251	NA	76
294904	3169191	Please stay on top of the security issue.	Please stay on top of the security issue.	150556637	1476062827302	1476062827406	NA	69
294904	3169191	Please stay on top of the security issue.	Please stay on top of the security issue.	150556639	1476062827542	1476062827662	NA	65
294904	3169191	Please stay on top of the security issue.	Please stay on top of the security issue.	150556641	1476062827710	1476062827818	NA	83
294904	3169191	Please stay on top of the security issue.	Please stay on top of the security issue.	150556649	1476062827958	1476062828059	NA	69
294904	3169191	Please stay on top of the security issue.	Please stay on top of the security issue.	150556652	1476062828106	1476062828214	NA	32
294904	3169191	Please stay on top of the security issue.	Please stay on top of the security issue.	150556655	1476062828202	1476062828302	NA	83
294904	3169191	Please stay on top of the security issue.	Please stay on top of the security issue.	150556658	1476062828377	1476062828465	NA	84
294904	3169191	Please stay on top of the security issue.	Please stay on top of the security issue.	150556660	1476062828484	1476062828575	NA	65
294904	3169191	Please stay on top of the security issue.	Please stay on top of the security issue.	150556662	1476062828588	1476062828692	NA	89
294904	3169191	Please stay on top of the security issue.	Please stay on top of the security issue.	150556665	1476062828684	1476062828859	NA	32
294904	3169191	Please stay on top of the security issue.	Please stay on top of the security issue.	150556669	1476062828864	1476062828971	NA	79
294904	3169191	Please stay on top of the security issue.	Please stay on top of the security issue.	150556671	1476062829004	1476062829087	NA	78
294904	3169191	Please stay on top of the security issue.	Please stay on top of the security issue.	150556688	1476062829074	1476062829226	NA	32
294904	3169191	Please stay on top of the security issue.	Please stay on top of the security issue.	150556690	1476062829253	1476062829345	NA	79
294904	3169191	Please stay on top of the security issue.	Please stay on top of the security issue.	150556692	1476062829567	1476062829643		8
294904	3169191	Please stay on top of the security issue.	Please stay on top of the security issue.	150556694	1476062829736	1476062829832	NA	84
294904	3169191	Please stay on top of the security issue.	Please stay on top of the security issue.	150556695	1476062829902	1476062830018	NA	79
294904	3169191	Please stay on top of the security issue.	Please stay on top of the security issue.	150556696	1476062830149	1476062830277	NA	80
294904	3169191	Please stay on top of the security issue.	Please stay on top of the security issue.	150556700	1476062830323	1476062830484	NA	32
294904	3169191	Please stay on top of the security issue.	Please stay on top of the security issue.	150556703	1476062830511	1476062830619	NA	79
294904	3169191	Please stay on top of the security issue.	Please stay on top of the security issue.	150556704	1476062830623	1476062830699	NA	70
294904	3169191	Please stay on top of the security issue.	Please stay on top of the security issue.	150556705	1476062830700	1476062830787	NA	32
294904	3169191	Please stay on top of the security issue.	Please stay on top of the security issue.	150556706	1476062830804	1476062830888	NA	84
294904	3169191	Please stay on top of the security issue.	Please stay on top of the security issue.	150556707	1476062830872	1476062830959	NA	72
294904	3169191	Please stay on top of the security issue.	Please stay on top of the security issue.	150556708	1476062830944	1476062831048	NA	69
294904	3169191	Please stay on top of the security issue.	Please stay on top of the security issue.	150556710	1476062831064	1476062831179	NA	32
294904	3169191	Please stay on top of the security issue.	Please stay on top of the security issue.	150556712	1476062831155	1476062831231	NA	83
294904	3169191	Please stay on top of the security issue.	Please stay on top of the security issue.	150556714	1476062831396	1476062831498	NA	69
294904	3169191	Please stay on top of the security issue.	Please stay on top of the security issue.	150556716	1476062831580	1476062831685	NA	67
294904	3169191	Please stay on top of the security issue.	Please stay on top of the security issue.	150556725	1476062831728	1476062831836	NA	85
294904	3169191	Please stay on top of the security issue.	Please stay on top of the security issue.	150556726	1476062831848	1476062831940	NA	82
294904	3169191	Please stay on top of the security issue.	Please stay on top of the security issue.	150556727	1476062831970	1476062832070	NA	73
294904	3169191	Please stay on top of the security issue.	Please stay on top of the security issue.	150556729	1476062832078	1476062832163	NA	84
294904	3169191	Please stay on top of the security issue.	Please stay on top of the security issue.	150556732	1476062832191	1476062832299	NA	89
294904	3169191	Please stay on top of the security issue.	Please stay on top of the security issue.	150556748	1476062832314	1476062832443	NA	32
294904	3169191	Please stay on top of the security issue.	Please stay on top of the security issue.	150556749	1476062832489	1476062832557	NA	73
294904	3169191	Please stay on top of the security issue.	Please stay on top of the security issue.	150556750	1476062832566	1476062832636	NA	83
294904	3169191	Please stay on top of the security issue.	Please stay on top of the security issue.	150556752	1476062832687	1476062832783	NA	83
294904	3169191	Please stay on top of the security issue.	Please stay on top of the security issue.	150556754	1476062832899	1476062832994	NA	85
294904	3169191	Please stay on top of the security issue.	Please stay on top of the security issue.	150556758	1476062833034	1476062833129	NA	69
294904	3169191	Please stay on top of the security issue.	Please stay on top of the security issue.	150556759	1476062833182	1476062833297	NA	190
294904	3169197	Let me know if you do not hear from them in the next couple of days.	Let me know if you do not hear from them in the next couple of days.	150556900	1476062838535	1476062838749	SHIFT	16
294904	3169197	Let me know if you do not hear from them in the next couple of days.	Let me know if you do not hear from them in the next couple of days.	150556902	1476062838677	1476062838777	NA	76
294904	3169197	Let me know if you do not hear from them in the next couple of days.	Let me know if you do not hear from them in the next couple of days.	150556903	1476062838864	1476062838973	NA	69
294904	3169197	Let me know if you do not hear from them in the next couple of days.	Let me know if you do not hear from them in the next couple of days.	150556904	1476062839095	1476062839179	NA	84
294904	3169197	Let me know if you do not hear from them in the next couple of days.	Let me know if you do not hear from them in the next couple of days.	150556905	1476062839475	1476062839591	NA	32
294904	3169197	Let me know if you do not hear from them in the next couple of days.	Let me know if you do not hear from them in the next couple of days.	150556906	1476062839739	1476062839771	NA	77
294904	3169197	Let me know if you do not hear from them in the next couple of days.	Let me know if you do not hear from them in the next couple of days.	150556909	1476062839783	1476062839878	NA	69
294904	3169197	Let me know if you do not hear from them in the next couple of days.	Let me know if you do not hear from them in the next couple of days.	150556911	1476062839902	1476062840022	NA	32
294904	3169197	Let me know if you do not hear from them in the next couple of days.	Let me know if you do not hear from them in the next couple of days.	150556915	1476062839999	1476062840110	NA	75
294904	3169197	Let me know if you do not hear from them in the next couple of days.	Let me know if you do not hear from them in the next couple of days.	150556918	1476062840335	1476062840383	NA	79
294904	3169197	Let me know if you do not hear from them in the next couple of days.	Let me know if you do not hear from them in the next couple of days.	150556921	1476062840656	1476062840732		8
294904	3169197	Let me know if you do not hear from them in the next couple of days.	Let me know if you do not hear from them in the next couple of days.	150556941	1476062840909	1476062841016	NA	78
294904	3169197	Let me know if you do not hear from them in the next couple of days.	Let me know if you do not hear from them in the next couple of days.	150556942	1476062841084	1476062841216	NA	79
294904	3169197	Let me know if you do not hear from them in the next couple of days.	Let me know if you do not hear from them in the next couple of days.	150556943	1476062841217	1476062841303	NA	87
294904	3169197	Let me know if you do not hear from them in the next couple of days.	Let me know if you do not hear from them in the next couple of days.	150556944	1476062841301	1476062841408	NA	32
294904	3169197	Let me know if you do not hear from them in the next couple of days.	Let me know if you do not hear from them in the next couple of days.	150556945	1476062841440	1476062841547	NA	73
294904	3169197	Let me know if you do not hear from them in the next couple of days.	Let me know if you do not hear from them in the next couple of days.	150556952	1476062841583	1476062841663	NA	70
294904	3169197	Let me know if you do not hear from them in the next couple of days.	Let me know if you do not hear from them in the next couple of days.	150556953	1476062841679	1476062841771	NA	32
294904	3169197	Let me know if you do not hear from them in the next couple of days.	Let me know if you do not hear from them in the next couple of days.	150556954	1476062841851	1476062841983	NA	89
294904	3169197	Let me know if you do not hear from them in the next couple of days.	Let me know if you do not hear from them in the next couple of days.	150556955	1476062841999	1476062842122	NA	79
294904	3169197	Let me know if you do not hear from them in the next couple of days.	Let me know if you do not hear from them in the next couple of days.	150556968	1476062842116	1476062842247	NA	85
294904	3169197	Let me know if you do not hear from them in the next couple of days.	Let me know if you do not hear from them in the next couple of days.	150556971	1476062842235	1476062842370	NA	32
294904	3169197	Let me know if you do not hear from them in the next couple of days.	Let me know if you do not hear from them in the next couple of days.	150556974	1476062842375	1476062842474	NA	68
294904	3169197	Let me know if you do not hear from them in the next couple of days.	Let me know if you do not hear from them in the next couple of days.	150556975	1476062842525	1476062842579	NA	79
294904	3169197	Let me know if you do not hear from them in the next couple of days.	Let me know if you do not hear from them in the next couple of days.	150556976	1476062842622	1476062842746	NA	32
294904	3169197	Let me know if you do not hear from them in the next couple of days.	Let me know if you do not hear from them in the next couple of days.	150556977	1476062842839	1476062842931	NA	78
294904	3169197	Let me know if you do not hear from them in the next couple of days.	Let me know if you do not hear from them in the next couple of days.	150556978	1476062842975	1476062843099	NA	79
294904	3169197	Let me know if you do not hear from them in the next couple of days.	Let me know if you do not hear from them in the next couple of days.	150556979	1476062843125	1476062843221	NA	84
294904	3169197	Let me know if you do not hear from them in the next couple of days.	Let me know if you do not hear from them in the next couple of days.	150556980	1476062843197	1476062843297	NA	32
294904	3169197	Let me know if you do not hear from them in the next couple of days.	Let me know if you do not hear from them in the next couple of days.	150556981	1476062843340	1476062843422	NA	72
294904	3169197	Let me know if you do not hear from them in the next couple of days.	Let me know if you do not hear from them in the next couple of days.	150557001	1476062843402	1476062843531	NA	69
294904	3169197	Let me know if you do not hear from them in the next couple of days.	Let me know if you do not hear from them in the next couple of days.	150557002	1476062843562	1476062843650	NA	65
294904	3169197	Let me know if you do not hear from them in the next couple of days.	Let me know if you do not hear from them in the next couple of days.	150557003	1476062843677	1476062843789	NA	82
294904	3169197	Let me know if you do not hear from them in the next couple of days.	Let me know if you do not hear from them in the next couple of days.	150557004	1476062843819	1476062843934	NA	32
294904	3169197	Let me know if you do not hear from them in the next couple of days.	Let me know if you do not hear from them in the next couple of days.	150557005	1476062843950	1476062844066	NA	70
294904	3169197	Let me know if you do not hear from them in the next couple of days.	Let me know if you do not hear from them in the next couple of days.	150557006	1476062844200	1476062844292	NA	82
294904	3169197	Let me know if you do not hear from them in the next couple of days.	Let me know if you do not hear from them in the next couple of days.	150557007	1476062844260	1476062844408	NA	79
294904	3169197	Let me know if you do not hear from them in the next couple of days.	Let me know if you do not hear from them in the next couple of days.	150557008	1476062844420	1476062844496	NA	77
294904	3169197	Let me know if you do not hear from them in the next couple of days.	Let me know if you do not hear from them in the next couple of days.	150557009	1476062844533	1476062844656	NA	32
294904	3169197	Let me know if you do not hear from them in the next couple of days.	Let me know if you do not hear from them in the next couple of days.	150557010	1476062844601	1476062844701	NA	84
294904	3169197	Let me know if you do not hear from them in the next couple of days.	Let me know if you do not hear from them in the next couple of days.	150557011	1476062844728	1476062844807	NA	72
294904	3169197	Let me know if you do not hear from them in the next couple of days.	Let me know if you do not hear from them in the next couple of days.	150557070	1476062844772	1476062844872	NA	69
294904	3169197	Let me know if you do not hear from them in the next couple of days.	Let me know if you do not hear from them in the next couple of days.	150557072	1476062845443	1476062845543	NA	32
294904	3169197	Let me know if you do not hear from them in the next couple of days.	Let me know if you do not hear from them in the next couple of days.	150557074	1476062845763	1476062845814		8
294904	3169197	Let me know if you do not hear from them in the next couple of days.	Let me know if you do not hear from them in the next couple of days.	150557075	1476062846194	1476062846302	NA	77
294904	3169197	Let me know if you do not hear from them in the next couple of days.	Let me know if you do not hear from them in the next couple of days.	150557076	1476062846352	1476062846484	NA	32
294904	3169197	Let me know if you do not hear from them in the next couple of days.	Let me know if you do not hear from them in the next couple of days.	150557078	1476062846502	1476062846634	NA	73
294904	3169197	Let me know if you do not hear from them in the next couple of days.	Let me know if you do not hear from them in the next couple of days.	150557086	1476062846685	1476062846745	NA	78
294904	3169197	Let me know if you do not hear from them in the next couple of days.	Let me know if you do not hear from them in the next couple of days.	150557088	1476062846738	1476062846865	NA	32
294904	3169197	Let me know if you do not hear from them in the next couple of days.	Let me know if you do not hear from them in the next couple of days.	150557091	1476062846849	1476062846940	NA	84
294904	3169197	Let me know if you do not hear from them in the next couple of days.	Let me know if you do not hear from them in the next couple of days.	150557093	1476062846937	1476062847028	NA	72
294904	3169197	Let me know if you do not hear from them in the next couple of days.	Let me know if you do not hear from them in the next couple of days.	150557105	1476062847009	1476062847118	NA	69
294904	3169197	Let me know if you do not hear from them in the next couple of days.	Let me know if you do not hear from them in the next couple of days.	150557107	1476062847113	1476062847189	NA	32
294904	3169197	Let me know if you do not hear from them in the next couple of days.	Let me know if you do not hear from them in the next couple of days.	150557108	1476062847224	1476062847324	NA	78
294904	3169197	Let me know if you do not hear from them in the next couple of days.	Let me know if you do not hear from them in the next couple of days.	150557109	1476062847300	1476062847392	NA	69
294904	3169197	Let me know if you do not hear from them in the next couple of days.	Let me know if you do not hear from them in the next couple of days.	150557110	1476062847527	1476062847635	NA	88
294904	3169197	Let me know if you do not hear from them in the next couple of days.	Let me know if you do not hear from them in the next couple of days.	150557112	1476062847769	1476062847875	NA	84
294904	3169197	Let me know if you do not hear from them in the next couple of days.	Let me know if you do not hear from them in the next couple of days.	150557123	1476062847891	1476062847999	NA	32
294904	3169197	Let me know if you do not hear from them in the next couple of days.	Let me know if you do not hear from them in the next couple of days.	150557124	1476062848030	1476062848138	NA	67
294904	3169197	Let me know if you do not hear from them in the next couple of days.	Let me know if you do not hear from them in the next couple of days.	150557125	1476062848118	1476062848218	NA	79
294904	3169197	Let me know if you do not hear from them in the next couple of days.	Let me know if you do not hear from them in the next couple of days.	150557126	1476062848211	1476062848342	NA	85
294904	3169197	Let me know if you do not hear from them in the next couple of days.	Let me know if you do not hear from them in the next couple of days.	150557128	1476062848515	1476062848579	NA	80
294904	3169197	Let me know if you do not hear from them in the next couple of days.	Let me know if you do not hear from them in the next couple of days.	150557157	1476062849145	1476062849249	NA	76
294904	3169197	Let me know if you do not hear from them in the next couple of days.	Let me know if you do not hear from them in the next couple of days.	150557160	1476062849281	1476062849379	NA	69
294904	3169197	Let me know if you do not hear from them in the next couple of days.	Let me know if you do not hear from them in the next couple of days.	150557164	1476062849355	1476062849456	NA	32
294904	3169197	Let me know if you do not hear from them in the next couple of days.	Let me know if you do not hear from them in the next couple of days.	150557168	1476062849554	1476062849653	NA	79
294904	3169197	Let me know if you do not hear from them in the next couple of days.	Let me know if you do not hear from them in the next couple of days.	150557183	1476062849586	1476062849674	NA	70
294904	3169197	Let me know if you do not hear from them in the next couple of days.	Let me know if you do not hear from them in the next couple of days.	150557184	1476062849697	1476062849816	NA	32
294904	3169197	Let me know if you do not hear from them in the next couple of days.	Let me know if you do not hear from them in the next couple of days.	150557186	1476062849805	1476062849921	NA	68
294904	3169197	Let me know if you do not hear from them in the next couple of days.	Let me know if you do not hear from them in the next couple of days.	150557188	1476062849941	1476062850044	NA	65
294904	3169197	Let me know if you do not hear from them in the next couple of days.	Let me know if you do not hear from them in the next couple of days.	150557190	1476062850053	1476062850156	NA	89
294904	3169197	Let me know if you do not hear from them in the next couple of days.	Let me know if you do not hear from them in the next couple of days.	150557192	1476062850173	1476062850265	NA	83
294904	3169197	Let me know if you do not hear from them in the next couple of days.	Let me know if you do not hear from them in the next couple of days.	150557196	1476062850326	1476062850446	NA	190
294904	3169204	Theresa, I hope he liked it.	Theresa, I hope he liked it.	150557259	1476062853461	1476062853756	SHIFT	16
294904	3169204	Theresa, I hope he liked it.	Theresa, I hope he liked it.	150557261	1476062853705	1476062853785	NA	84
294904	3169204	Theresa, I hope he liked it.	Theresa, I hope he liked it.	150557263	1476062853884	1476062853991	NA	72
294904	3169204	Theresa, I hope he liked it.	Theresa, I hope he liked it.	150557267	1476062853988	1476062854087	NA	69
294904	3169204	Theresa, I hope he liked it.	Theresa, I hope he liked it.	150557270	1476062854170	1476062854251	NA	82
294904	3169204	Theresa, I hope he liked it.	Theresa, I hope he liked it.	150557273	1476062854318	1476062854426	NA	69
294904	3169204	Theresa, I hope he liked it.	Theresa, I hope he liked it.	150557286	1476062854542	1476062854602	NA	83
294904	3169204	Theresa, I hope he liked it.	Theresa, I hope he liked it.	150557287	1476062854754	1476062854822	NA	65
294904	3169204	Theresa, I hope he liked it.	Theresa, I hope he liked it.	150557288	1476062855085	1476062855185	NA	188
294904	3169204	Theresa, I hope he liked it.	Theresa, I hope he liked it.	150557289	1476062855261	1476062855376	NA	32
294904	3169204	Theresa, I hope he liked it.	Theresa, I hope he liked it.	150557290	1476062855514	1476062855705	SHIFT	16
294904	3169204	Theresa, I hope he liked it.	Theresa, I hope he liked it.	150557308	1476062855674	1476062855737	NA	73
294904	3169204	Theresa, I hope he liked it.	Theresa, I hope he liked it.	150557310	1476062855733	1476062855869	NA	32
294904	3169204	Theresa, I hope he liked it.	Theresa, I hope he liked it.	150557311	1476062855907	1476062856015	NA	72
294904	3169204	Theresa, I hope he liked it.	Theresa, I hope he liked it.	150557312	1476062856086	1476062856161	NA	79
294904	3169204	Theresa, I hope he liked it.	Theresa, I hope he liked it.	150557313	1476062856271	1476062856375	NA	80
294904	3169204	Theresa, I hope he liked it.	Theresa, I hope he liked it.	150557314	1476062856407	1476062856514	NA	69
294904	3169204	Theresa, I hope he liked it.	Theresa, I hope he liked it.	150557320	1476062856502	1476062856607	NA	32
294904	3169204	Theresa, I hope he liked it.	Theresa, I hope he liked it.	150557321	1476062856669	1476062856765	NA	72
294904	3169204	Theresa, I hope he liked it.	Theresa, I hope he liked it.	150557322	1476062856724	1476062856831	NA	69
294904	3169204	Theresa, I hope he liked it.	Theresa, I hope he liked it.	150557323	1476062856840	1476062856935	NA	32
294904	3169204	Theresa, I hope he liked it.	Theresa, I hope he liked it.	150557325	1476062856908	1476062857008	NA	76
294904	3169204	Theresa, I hope he liked it.	Theresa, I hope he liked it.	150557327	1476062857119	1476062857162	NA	73
294904	3169204	Theresa, I hope he liked it.	Theresa, I hope he liked it.	150557350	1476062857299	1476062857370	NA	75
294904	3169204	Theresa, I hope he liked it.	Theresa, I hope he liked it.	150557352	1476062857412	1476062857516	NA	69
294904	3169204	Theresa, I hope he liked it.	Theresa, I hope he liked it.	150557354	1476062857623	1476062857699	NA	68
294904	3169204	Theresa, I hope he liked it.	Theresa, I hope he liked it.	150557356	1476062857708	1476062857791	NA	32
294904	3169204	Theresa, I hope he liked it.	Theresa, I hope he liked it.	150557358	1476062857808	1476062857924	NA	73
294904	3169204	Theresa, I hope he liked it.	Theresa, I hope he liked it.	150557378	1476062857926	1476062858020	NA	84
294904	3169204	Theresa, I hope he liked it.	Theresa, I hope he liked it.	150557382	1476062858231	1476062858347	NA	190
294904	3169208	I heard it was at 5?	I heard it was at 5?	150557543	1476062863581	1476062864041	SHIFT	16
294904	3169208	I heard it was at 5?	I heard it was at 5?	150557542	1476062863913	1476062864005	NA	73
294904	3169208	I heard it was at 5?	I heard it was at 5?	150557545	1476062864122	1476062864206	NA	32
294904	3169208	I heard it was at 5?	I heard it was at 5?	150557548	1476062864285	1476062864384	NA	72
294904	3169208	I heard it was at 5?	I heard it was at 5?	150557550	1476062864381	1476062864499	NA	69
294904	3169208	I heard it was at 5?	I heard it was at 5?	150557552	1476062864531	1476062864622	NA	65
294904	3169208	I heard it was at 5?	I heard it was at 5?	150557567	1476062864685	1476062864788	NA	82
294904	3169208	I heard it was at 5?	I heard it was at 5?	150557571	1476062864854	1476062864955	NA	68
294904	3169208	I heard it was at 5?	I heard it was at 5?	150557574	1476062864992	1476062865096	NA	32
294904	3169208	I heard it was at 5?	I heard it was at 5?	150557577	1476062865132	1476062865235	NA	73
294904	3169208	I heard it was at 5?	I heard it was at 5?	150557579	1476062865251	1476062865347	NA	84
294904	3169208	I heard it was at 5?	I heard it was at 5?	150557592	1476062865335	1476062865424	NA	32
294904	3169208	I heard it was at 5?	I heard it was at 5?	150557593	1476062865454	1476062865558	NA	87
294904	3169208	I heard it was at 5?	I heard it was at 5?	150557594	1476062865635	1476062865751	NA	65
294904	3169208	I heard it was at 5?	I heard it was at 5?	150557595	1476062865727	1476062865847	NA	83
294904	3169208	I heard it was at 5?	I heard it was at 5?	150557596	1476062865890	1476062865989	NA	32
294904	3169208	I heard it was at 5?	I heard it was at 5?	150557644	1476062865969	1476062866078	NA	65
294904	3169208	I heard it was at 5?	I heard it was at 5?	150557646	1476062866150	1476062866250	NA	84
294904	3169208	I heard it was at 5?	I heard it was at 5?	150557648	1476062866318	1476062866386	NA	32
294904	3169208	I heard it was at 5?	I heard it was at 5?	150557650	1476062867166	1476062867279	NA	53
294904	3169208	I heard it was at 5?	I heard it was at 5?	150557654	1476062867350	1476062868222	SHIFT	16
294904	3169208	I heard it was at 5?	I heard it was at 5?	150557652	1476062868101	1476062868182	NA	191
294904	3169216	I am in 50M if you need me.	I am in 50M if you need me.	150557764	1476062873691	1476062873906	SHIFT	16
294904	3169216	I am in 50M if you need me.	I am in 50M if you need me.	150557768	1476062873819	1476062873926	NA	73
294904	3169216	I am in 50M if you need me.	I am in 50M if you need me.	150557773	1476062874004	1476062874115	NA	32
294904	3169216	I am in 50M if you need me.	I am in 50M if you need me.	150557776	1476062874103	1476062874215	NA	65
294904	3169216	I am in 50M if you need me.	I am in 50M if you need me.	150557779	1476062874257	1476062874373	NA	77
294904	3169216	I am in 50M if you need me.	I am in 50M if you need me.	150557782	1476062874377	1476062874537	NA	32
294904	3169216	I am in 50M if you need me.	I am in 50M if you need me.	150557811	1476062874549	1476062874653	NA	73
294904	3169216	I am in 50M if you need me.	I am in 50M if you need me.	150557812	1476062874711	1476062874811	NA	78
294904	3169216	I am in 50M if you need me.	I am in 50M if you need me.	150557813	1476062874828	1476062874939	NA	32
294904	3169216	I am in 50M if you need me.	I am in 50M if you need me.	150557816	1476062875611	1476062875703	NA	53
294904	3169216	I am in 50M if you need me.	I am in 50M if you need me.	150557819	1476062875793	1476062875880	NA	48
294904	3169216	I am in 50M if you need me.	I am in 50M if you need me.	150557840	1476062875986	1476062876282	SHIFT	16
294904	3169216	I am in 50M if you need me.	I am in 50M if you need me.	150557839	1476062876162	1476062876262	NA	77
294904	3169216	I am in 50M if you need me.	I am in 50M if you need me.	150557841	1476062876321	1476062876445	NA	32
294904	3169216	I am in 50M if you need me.	I am in 50M if you need me.	150557842	1476062876485	1476062876575	NA	73
294904	3169216	I am in 50M if you need me.	I am in 50M if you need me.	150557843	1476062876616	1476062876711	NA	70
294904	3169216	I am in 50M if you need me.	I am in 50M if you need me.	150557873	1476062876696	1476062876800	NA	32
294904	3169216	I am in 50M if you need me.	I am in 50M if you need me.	150557874	1476062876905	1476062877013	NA	89
294904	3169216	I am in 50M if you need me.	I am in 50M if you need me.	150557875	1476062877045	1476062877166	NA	79
294904	3169216	I am in 50M if you need me.	I am in 50M if you need me.	150557876	1476062877153	1476062877246	NA	85
294904	3169216	I am in 50M if you need me.	I am in 50M if you need me.	150557877	1476062877233	1476062877337	NA	32
294904	3169216	I am in 50M if you need me.	I am in 50M if you need me.	150557878	1476062877402	1476062877494	NA	78
294904	3169216	I am in 50M if you need me.	I am in 50M if you need me.	150557887	1476062877514	1476062877602	NA	69
294904	3169216	I am in 50M if you need me.	I am in 50M if you need me.	150557889	1476062877672	1476062877760	NA	69
294904	3169216	I am in 50M if you need me.	I am in 50M if you need me.	150557891	1476062877869	1476062877965	NA	68
294904	3169216	I am in 50M if you need me.	I am in 50M if you need me.	150557893	1476062877945	1476062878045	NA	32
294904	3169216	I am in 50M if you need me.	I am in 50M if you need me.	150557894	1476062878105	1476062878205	NA	77
294904	3169216	I am in 50M if you need me.	I am in 50M if you need me.	150557897	1476062878209	1476062878313	NA	69
294904	3169216	I am in 50M if you need me.	I am in 50M if you need me.	150557899	1476062878347	1476062878476	NA	190
294904	3169222	The Senate should approve a 14-year-old treaty.	The Senate should approve a 14-year-old treaty.	150558021	1476062882539	1476062882917	SHIFT	16
294904	3169222	The Senate should approve a 14-year-old treaty.	The Senate should approve a 14-year-old treaty.	150558022	1476062882846	1476062882938	NA	84
294904	3169222	The Senate should approve a 14-year-old treaty.	The Senate should approve a 14-year-old treaty.	150558023	1476062883055	1476062883151	NA	72
294904	3169222	The Senate should approve a 14-year-old treaty.	The Senate should approve a 14-year-old treaty.	150558025	1476062883174	1476062883269	NA	69
294904	3169222	The Senate should approve a 14-year-old treaty.	The Senate should approve a 14-year-old treaty.	150558027	1476062883250	1476062883374	NA	32
294904	3169222	The Senate should approve a 14-year-old treaty.	The Senate should approve a 14-year-old treaty.	150558029	1476062883386	1476062883474	NA	83
294904	3169222	The Senate should approve a 14-year-old treaty.	The Senate should approve a 14-year-old treaty.	150558063	1476062883606	1476062883643	NA	69
294904	3169222	The Senate should approve a 14-year-old treaty.	The Senate should approve a 14-year-old treaty.	150558067	1476062883834	1476062883897		8
294904	3169222	The Senate should approve a 14-year-old treaty.	The Senate should approve a 14-year-old treaty.	150558076	1476062883993	1476062884633	SHIFT	16
294904	3169222	The Senate should approve a 14-year-old treaty.	The Senate should approve a 14-year-old treaty.	150558071	1476062884025	1476062884096		8
294904	3169222	The Senate should approve a 14-year-old treaty.	The Senate should approve a 14-year-old treaty.	150558074	1476062884469	1476062884605	NA	83
294904	3169222	The Senate should approve a 14-year-old treaty.	The Senate should approve a 14-year-old treaty.	150558078	1476062884730	1476062884825	NA	69
294904	3169222	The Senate should approve a 14-year-old treaty.	The Senate should approve a 14-year-old treaty.	150558096	1476062884898	1476062884989	NA	78
294904	3169222	The Senate should approve a 14-year-old treaty.	The Senate should approve a 14-year-old treaty.	150558097	1476062885009	1476062885110	NA	65
294904	3169222	The Senate should approve a 14-year-old treaty.	The Senate should approve a 14-year-old treaty.	150558098	1476062885188	1476062885284	NA	84
294904	3169222	The Senate should approve a 14-year-old treaty.	The Senate should approve a 14-year-old treaty.	150558099	1476062885390	1476062885502	NA	69
294904	3169222	The Senate should approve a 14-year-old treaty.	The Senate should approve a 14-year-old treaty.	150558100	1476062885542	1476062885629	NA	32
294904	3169222	The Senate should approve a 14-year-old treaty.	The Senate should approve a 14-year-old treaty.	150558108	1476062885642	1476062885722	NA	83
294904	3169222	The Senate should approve a 14-year-old treaty.	The Senate should approve a 14-year-old treaty.	150558109	1476062885738	1476062885827	NA	72
294904	3169222	The Senate should approve a 14-year-old treaty.	The Senate should approve a 14-year-old treaty.	150558110	1476062885848	1476062885968	NA	79
294904	3169222	The Senate should approve a 14-year-old treaty.	The Senate should approve a 14-year-old treaty.	150558111	1476062885961	1476062886077	NA	85
294904	3169222	The Senate should approve a 14-year-old treaty.	The Senate should approve a 14-year-old treaty.	150558112	1476062886128	1476062886237	NA	76
294904	3169222	The Senate should approve a 14-year-old treaty.	The Senate should approve a 14-year-old treaty.	150558119	1476062886241	1476062886345	NA	68
294904	3169222	The Senate should approve a 14-year-old treaty.	The Senate should approve a 14-year-old treaty.	150558121	1476062886345	1476062886429	NA	32
294904	3169222	The Senate should approve a 14-year-old treaty.	The Senate should approve a 14-year-old treaty.	150558124	1476062886433	1476062886517	NA	65
294904	3169222	The Senate should approve a 14-year-old treaty.	The Senate should approve a 14-year-old treaty.	150558127	1476062886610	1476062886690	NA	80
294904	3169222	The Senate should approve a 14-year-old treaty.	The Senate should approve a 14-year-old treaty.	150558130	1476062886790	1476062886862	NA	80
294904	3169222	The Senate should approve a 14-year-old treaty.	The Senate should approve a 14-year-old treaty.	150558149	1476062886978	1476062887045	NA	79
294904	3169222	The Senate should approve a 14-year-old treaty.	The Senate should approve a 14-year-old treaty.	150558151	1476062887054	1476062887153	NA	82
294904	3169222	The Senate should approve a 14-year-old treaty.	The Senate should approve a 14-year-old treaty.	150558156	1476062887497	1476062887558		8
294904	3169222	The Senate should approve a 14-year-old treaty.	The Senate should approve a 14-year-old treaty.	150558160	1476062887631	1476062887691		8
294904	3169222	The Senate should approve a 14-year-old treaty.	The Senate should approve a 14-year-old treaty.	150558164	1476062887757	1476062887849	NA	82
294904	3169222	The Senate should approve a 14-year-old treaty.	The Senate should approve a 14-year-old treaty.	150558181	1476062888004	1476062888103	NA	79
294904	3169222	The Senate should approve a 14-year-old treaty.	The Senate should approve a 14-year-old treaty.	150558182	1476062888122	1476062888201	NA	86
294904	3169222	The Senate should approve a 14-year-old treaty.	The Senate should approve a 14-year-old treaty.	150558183	1476062888293	1476062888400	NA	69
294904	3169222	The Senate should approve a 14-year-old treaty.	The Senate should approve a 14-year-old treaty.	150558184	1476062888381	1476062888477	NA	32
294904	3169222	The Senate should approve a 14-year-old treaty.	The Senate should approve a 14-year-old treaty.	150558185	1476062888630	1476062888730	NA	65
294904	3169222	The Senate should approve a 14-year-old treaty.	The Senate should approve a 14-year-old treaty.	150558255	1476062888780	1476062888887	NA	32
294904	3169222	The Senate should approve a 14-year-old treaty.	The Senate should approve a 14-year-old treaty.	150558257	1476062889494	1476062889602	NA	49
294904	3169222	The Senate should approve a 14-year-old treaty.	The Senate should approve a 14-year-old treaty.	150558259	1476062889980	1476062890063	NA	52
294904	3169222	The Senate should approve a 14-year-old treaty.	The Senate should approve a 14-year-old treaty.	150558261	1476062890333	1476062890448	NA	48
294904	3169222	The Senate should approve a 14-year-old treaty.	The Senate should approve a 14-year-old treaty.	150558263	1476062890674	1476062890801	NA	89
294904	3169222	The Senate should approve a 14-year-old treaty.	The Senate should approve a 14-year-old treaty.	150558287	1476062890822	1476062890925	NA	69
294904	3169222	The Senate should approve a 14-year-old treaty.	The Senate should approve a 14-year-old treaty.	150558289	1476062890941	1476062891006	NA	65
294904	3169222	The Senate should approve a 14-year-old treaty.	The Senate should approve a 14-year-old treaty.	150558291	1476062891308	1476062891368		8
294904	3169222	The Senate should approve a 14-year-old treaty.	The Senate should approve a 14-year-old treaty.	150558293	1476062891440	1476062891511		8
294904	3169222	The Senate should approve a 14-year-old treaty.	The Senate should approve a 14-year-old treaty.	150558295	1476062891579	1476062891666		8
294904	3169222	The Senate should approve a 14-year-old treaty.	The Senate should approve a 14-year-old treaty.	150558369	1476062891761	1476062891812		8
294904	3169222	The Senate should approve a 14-year-old treaty.	The Senate should approve a 14-year-old treaty.	150558371	1476062892149	1476062892292	SHIFT	16
294904	3169222	The Senate should approve a 14-year-old treaty.	The Senate should approve a 14-year-old treaty.	150558374	1476062892655	1476062892730	NA	173
294904	3169222	The Senate should approve a 14-year-old treaty.	The Senate should approve a 14-year-old treaty.	150558377	1476062893204	1476062893319	NA	89
294904	3169222	The Senate should approve a 14-year-old treaty.	The Senate should approve a 14-year-old treaty.	150558379	1476062893337	1476062893452	NA	69
294904	3169222	The Senate should approve a 14-year-old treaty.	The Senate should approve a 14-year-old treaty.	150558382	1476062893465	1476062893557	NA	65
294904	3169222	The Senate should approve a 14-year-old treaty.	The Senate should approve a 14-year-old treaty.	150558426	1476062893605	1476062893700	NA	82
294904	3169222	The Senate should approve a 14-year-old treaty.	The Senate should approve a 14-year-old treaty.	150558430	1476062894266	1476062894333	NA	173
294904	3169222	The Senate should approve a 14-year-old treaty.	The Senate should approve a 14-year-old treaty.	150558432	1476062894738	1476062894806	NA	79
294904	3169222	The Senate should approve a 14-year-old treaty.	The Senate should approve a 14-year-old treaty.	150558434	1476062895121	1476062895233	NA	76
294904	3169222	The Senate should approve a 14-year-old treaty.	The Senate should approve a 14-year-old treaty.	150558436	1476062895272	1476062895372	NA	68
294904	3169222	The Senate should approve a 14-year-old treaty.	The Senate should approve a 14-year-old treaty.	150558462	1476062895412	1476062895503	NA	32
294904	3169222	The Senate should approve a 14-year-old treaty.	The Senate should approve a 14-year-old treaty.	150558465	1476062895599	1476062895699	NA	84
294904	3169222	The Senate should approve a 14-year-old treaty.	The Senate should approve a 14-year-old treaty.	150558468	1476062895793	1476062895905	NA	82
294904	3169222	The Senate should approve a 14-year-old treaty.	The Senate should approve a 14-year-old treaty.	150558475	1476062895945	1476062896056	NA	69
294904	3169222	The Senate should approve a 14-year-old treaty.	The Senate should approve a 14-year-old treaty.	150558479	1476062896069	1476062896152	NA	65
294904	3169222	The Senate should approve a 14-year-old treaty.	The Senate should approve a 14-year-old treaty.	150558488	1476062896186	1476062896256	NA	84
294904	3169222	The Senate should approve a 14-year-old treaty.	The Senate should approve a 14-year-old treaty.	150558489	1476062896295	1476062896398	NA	89
294904	3169222	The Senate should approve a 14-year-old treaty.	The Senate should approve a 14-year-old treaty.	150558490	1476062896579	1476062896674	NA	190
294904	3169234	I will call in 20 to 30 minutes.	I will call in 20 to 30 minutes.	150558609	1476062900052	1476062900351	SHIFT	16
294904	3169234	I will call in 20 to 30 minutes.	I will call in 20 to 30 minutes.	150558611	1476062900264	1476062900359	NA	73
294904	3169234	I will call in 20 to 30 minutes.	I will call in 20 to 30 minutes.	150558613	1476062900423	1476062900554	NA	32
294904	3169234	I will call in 20 to 30 minutes.	I will call in 20 to 30 minutes.	150558616	1476062900552	1476062900643	NA	87
294904	3169234	I will call in 20 to 30 minutes.	I will call in 20 to 30 minutes.	150558619	1476062900672	1476062900747	NA	73
294904	3169234	I will call in 20 to 30 minutes.	I will call in 20 to 30 minutes.	150558622	1476062900835	1476062900918	NA	76
294904	3169234	I will call in 20 to 30 minutes.	I will call in 20 to 30 minutes.	150558635	1476062900991	1476062901031	NA	76
294904	3169234	I will call in 20 to 30 minutes.	I will call in 20 to 30 minutes.	150558637	1476062901184	1476062901303	NA	32
294904	3169234	I will call in 20 to 30 minutes.	I will call in 20 to 30 minutes.	150558639	1476062901312	1476062901403	NA	67
294904	3169234	I will call in 20 to 30 minutes.	I will call in 20 to 30 minutes.	150558640	1476062901412	1476062901519	NA	65
294904	3169234	I will call in 20 to 30 minutes.	I will call in 20 to 30 minutes.	150558641	1476062901536	1476062901587	NA	76
294904	3169234	I will call in 20 to 30 minutes.	I will call in 20 to 30 minutes.	150558654	1476062901677	1476062901744	NA	76
294904	3169234	I will call in 20 to 30 minutes.	I will call in 20 to 30 minutes.	150558655	1476062901892	1476062902021	NA	32
294904	3169234	I will call in 20 to 30 minutes.	I will call in 20 to 30 minutes.	150558656	1476062902020	1476062902101	NA	73
294904	3169234	I will call in 20 to 30 minutes.	I will call in 20 to 30 minutes.	150558657	1476062902146	1476062902249	NA	78
294904	3169234	I will call in 20 to 30 minutes.	I will call in 20 to 30 minutes.	150558707	1476062902247	1476062902366	NA	32
294904	3169234	I will call in 20 to 30 minutes.	I will call in 20 to 30 minutes.	150558710	1476062902582	1476062902676	NA	50
294904	3169234	I will call in 20 to 30 minutes.	I will call in 20 to 30 minutes.	150558716	1476062903050	1476062903146	NA	48
294904	3169234	I will call in 20 to 30 minutes.	I will call in 20 to 30 minutes.	150558719	1476062903322	1476062903453	NA	32
294904	3169234	I will call in 20 to 30 minutes.	I will call in 20 to 30 minutes.	150558723	1476062903537	1476062903629	NA	84
294904	3169234	I will call in 20 to 30 minutes.	I will call in 20 to 30 minutes.	150558724	1476062903642	1476062903729	NA	79
294904	3169234	I will call in 20 to 30 minutes.	I will call in 20 to 30 minutes.	150558773	1476062903706	1476062903841	NA	32
294904	3169234	I will call in 20 to 30 minutes.	I will call in 20 to 30 minutes.	150558776	1476062904323	1476062904420	NA	51
294904	3169234	I will call in 20 to 30 minutes.	I will call in 20 to 30 minutes.	150558784	1476062904477	1476062904588	NA	48
294904	3169234	I will call in 20 to 30 minutes.	I will call in 20 to 30 minutes.	150558791	1476062904638	1476062904769	NA	32
294904	3169234	I will call in 20 to 30 minutes.	I will call in 20 to 30 minutes.	150558795	1476062904863	1476062904962	NA	77
294904	3169234	I will call in 20 to 30 minutes.	I will call in 20 to 30 minutes.	150558798	1476062905032	1476062905115	NA	73
294904	3169234	I will call in 20 to 30 minutes.	I will call in 20 to 30 minutes.	150558809	1476062905192	1476062905264	NA	78
294904	3169234	I will call in 20 to 30 minutes.	I will call in 20 to 30 minutes.	150558811	1476062905395	1476062905502	NA	85
294904	3169234	I will call in 20 to 30 minutes.	I will call in 20 to 30 minutes.	150558814	1476062905600	1476062905707	NA	84
294904	3169234	I will call in 20 to 30 minutes.	I will call in 20 to 30 minutes.	150558817	1476062905801	1476062905892	NA	69
294904	3169234	I will call in 20 to 30 minutes.	I will call in 20 to 30 minutes.	150558819	1476062905925	1476062906010	NA	83
294904	3169234	I will call in 20 to 30 minutes.	I will call in 20 to 30 minutes.	150558823	1476062906069	1476062906168	NA	190
294904	3169324	Doug Chapman will likely get the start in Bennett s absence.	Doug Chapman will likely get the start in Bennett s absense.	150563220	1476063041083	1476063041383	SHIFT	16
294904	3169324	Doug Chapman will likely get the start in Bennett s absence.	Doug Chapman will likely get the start in Bennett s absense.	150563221	1476063041343	1476063041443	NA	68
294904	3169324	Doug Chapman will likely get the start in Bennett s absence.	Doug Chapman will likely get the start in Bennett s absense.	150563222	1476063041451	1476063041611	SHIFT	16
294904	3169324	Doug Chapman will likely get the start in Bennett s absence.	Doug Chapman will likely get the start in Bennett s absense.	150563224	1476063042081	1476063042209	NA	79
294904	3169324	Doug Chapman will likely get the start in Bennett s absence.	Doug Chapman will likely get the start in Bennett s absense.	150563226	1476063042268	1476063042401	NA	85
294904	3169324	Doug Chapman will likely get the start in Bennett s absence.	Doug Chapman will likely get the start in Bennett s absense.	150563228	1476063042689	1476063042785	NA	71
294904	3169324	Doug Chapman will likely get the start in Bennett s absence.	Doug Chapman will likely get the start in Bennett s absense.	150563230	1476063042831	1476063042912	NA	32
294904	3169324	Doug Chapman will likely get the start in Bennett s absence.	Doug Chapman will likely get the start in Bennett s absense.	150563251	1476063042974	1476063043161	SHIFT	16
294904	3169324	Doug Chapman will likely get the start in Bennett s absence.	Doug Chapman will likely get the start in Bennett s absense.	150563253	1476063043119	1476063043196	NA	67
294904	3169324	Doug Chapman will likely get the start in Bennett s absence.	Doug Chapman will likely get the start in Bennett s absense.	150563254	1476063043261	1476063043334	NA	72
294904	3169324	Doug Chapman will likely get the start in Bennett s absence.	Doug Chapman will likely get the start in Bennett s absense.	150563256	1476063043338	1476063043434	NA	65
294904	3169324	Doug Chapman will likely get the start in Bennett s absence.	Doug Chapman will likely get the start in Bennett s absense.	150563258	1476063043520	1476063043609	NA	80
294904	3169324	Doug Chapman will likely get the start in Bennett s absence.	Doug Chapman will likely get the start in Bennett s absense.	150563263	1476063043741	1476063043828	NA	77
294904	3169324	Doug Chapman will likely get the start in Bennett s absence.	Doug Chapman will likely get the start in Bennett s absense.	150563282	1476063043817	1476063043920	NA	65
294904	3169324	Doug Chapman will likely get the start in Bennett s absence.	Doug Chapman will likely get the start in Bennett s absense.	150563285	1476063043969	1476063044057	NA	78
294904	3169324	Doug Chapman will likely get the start in Bennett s absence.	Doug Chapman will likely get the start in Bennett s absense.	150563289	1476063044045	1476063044176	NA	32
294904	3169324	Doug Chapman will likely get the start in Bennett s absence.	Doug Chapman will likely get the start in Bennett s absense.	150563293	1476063044172	1476063044273	NA	87
294904	3169324	Doug Chapman will likely get the start in Bennett s absence.	Doug Chapman will likely get the start in Bennett s absense.	150563295	1476063044292	1476063044348	NA	73
294904	3169324	Doug Chapman will likely get the start in Bennett s absence.	Doug Chapman will likely get the start in Bennett s absense.	150563297	1476063044443	1476063044531	NA	76
294904	3169324	Doug Chapman will likely get the start in Bennett s absence.	Doug Chapman will likely get the start in Bennett s absense.	150563313	1476063044592	1476063044634	NA	76
294904	3169324	Doug Chapman will likely get the start in Bennett s absence.	Doug Chapman will likely get the start in Bennett s absense.	150563314	1476063044782	1476063044890	NA	32
294904	3169324	Doug Chapman will likely get the start in Bennett s absence.	Doug Chapman will likely get the start in Bennett s absense.	150563316	1476063045000	1476063045100	NA	76
294904	3169324	Doug Chapman will likely get the start in Bennett s absence.	Doug Chapman will likely get the start in Bennett s absense.	150563318	1476063045190	1476063045274	NA	73
294904	3169324	Doug Chapman will likely get the start in Bennett s absence.	Doug Chapman will likely get the start in Bennett s absense.	150563320	1476063045385	1476063045472	NA	75
294904	3169324	Doug Chapman will likely get the start in Bennett s absence.	Doug Chapman will likely get the start in Bennett s absense.	150563328	1476063045458	1476063045554	NA	69
294904	3169324	Doug Chapman will likely get the start in Bennett s absence.	Doug Chapman will likely get the start in Bennett s absense.	150563330	1476063045585	1476063045690	NA	76
294904	3169324	Doug Chapman will likely get the start in Bennett s absence.	Doug Chapman will likely get the start in Bennett s absense.	150563332	1476063045785	1476063045892	NA	89
294904	3169324	Doug Chapman will likely get the start in Bennett s absence.	Doug Chapman will likely get the start in Bennett s absense.	150563334	1476063045920	1476063046048	NA	32
294904	3169324	Doug Chapman will likely get the start in Bennett s absence.	Doug Chapman will likely get the start in Bennett s absense.	150563336	1476063046092	1476063046172	NA	71
294904	3169324	Doug Chapman will likely get the start in Bennett s absence.	Doug Chapman will likely get the start in Bennett s absense.	150563338	1476063046255	1476063046349	NA	69
294904	3169324	Doug Chapman will likely get the start in Bennett s absence.	Doug Chapman will likely get the start in Bennett s absense.	150563339	1476063046434	1476063046505	NA	84
294904	3169324	Doug Chapman will likely get the start in Bennett s absence.	Doug Chapman will likely get the start in Bennett s absense.	150563340	1476063046527	1476063046623	NA	32
294904	3169324	Doug Chapman will likely get the start in Bennett s absence.	Doug Chapman will likely get the start in Bennett s absense.	150563341	1476063046620	1476063046716	NA	84
294904	3169324	Doug Chapman will likely get the start in Bennett s absence.	Doug Chapman will likely get the start in Bennett s absense.	150563342	1476063046704	1476063046797	NA	72
294904	3169324	Doug Chapman will likely get the start in Bennett s absence.	Doug Chapman will likely get the start in Bennett s absense.	150563373	1476063046780	1476063046891	NA	69
294904	3169324	Doug Chapman will likely get the start in Bennett s absence.	Doug Chapman will likely get the start in Bennett s absense.	150563376	1476063046884	1476063046995	NA	32
294904	3169324	Doug Chapman will likely get the start in Bennett s absence.	Doug Chapman will likely get the start in Bennett s absense.	150563379	1476063047012	1476063047108	NA	83
294904	3169324	Doug Chapman will likely get the start in Bennett s absence.	Doug Chapman will likely get the start in Bennett s absense.	150563382	1476063047168	1476063047265	NA	84
294904	3169324	Doug Chapman will likely get the start in Bennett s absence.	Doug Chapman will likely get the start in Bennett s absense.	150563386	1476063047290	1476063047398	NA	65
294904	3169324	Doug Chapman will likely get the start in Bennett s absence.	Doug Chapman will likely get the start in Bennett s absense.	150563388	1476063047446	1476063047541	NA	82
294904	3169324	Doug Chapman will likely get the start in Bennett s absence.	Doug Chapman will likely get the start in Bennett s absense.	150563396	1476063047646	1476063047725	NA	84
294904	3169324	Doug Chapman will likely get the start in Bennett s absence.	Doug Chapman will likely get the start in Bennett s absense.	150563401	1476063047830	1476063047929	NA	32
294904	3169324	Doug Chapman will likely get the start in Bennett s absence.	Doug Chapman will likely get the start in Bennett s absense.	150563406	1476063048171	1476063048254	NA	73
294904	3169324	Doug Chapman will likely get the start in Bennett s absence.	Doug Chapman will likely get the start in Bennett s absense.	150563411	1476063048321	1476063048397	NA	78
294904	3169324	Doug Chapman will likely get the start in Bennett s absence.	Doug Chapman will likely get the start in Bennett s absense.	150563441	1476063048393	1476063048485	NA	32
294904	3169324	Doug Chapman will likely get the start in Bennett s absence.	Doug Chapman will likely get the start in Bennett s absense.	150563444	1476063048529	1476063048720	SHIFT	16
294904	3169324	Doug Chapman will likely get the start in Bennett s absence.	Doug Chapman will likely get the start in Bennett s absense.	150563446	1476063048645	1476063048737	NA	66
294904	3169324	Doug Chapman will likely get the start in Bennett s absence.	Doug Chapman will likely get the start in Bennett s absense.	150563448	1476063048838	1476063048933	NA	69
294904	3169324	Doug Chapman will likely get the start in Bennett s absence.	Doug Chapman will likely get the start in Bennett s absense.	150563450	1476063048974	1476063049043	NA	78
294904	3169324	Doug Chapman will likely get the start in Bennett s absence.	Doug Chapman will likely get the start in Bennett s absense.	150563452	1476063049113	1476063049189	NA	78
294904	3169324	Doug Chapman will likely get the start in Bennett s absence.	Doug Chapman will likely get the start in Bennett s absense.	150563454	1476063049249	1476063049357	NA	69
294904	3169324	Doug Chapman will likely get the start in Bennett s absence.	Doug Chapman will likely get the start in Bennett s absense.	150563490	1476063049495	1476063049554	NA	84
294904	3169324	Doug Chapman will likely get the start in Bennett s absence.	Doug Chapman will likely get the start in Bennett s absense.	150563495	1476063049653	1476063049724	NA	84
294904	3169324	Doug Chapman will likely get the start in Bennett s absence.	Doug Chapman will likely get the start in Bennett s absense.	150563499	1476063049924	1476063050023	NA	32
294904	3169324	Doug Chapman will likely get the start in Bennett s absence.	Doug Chapman will likely get the start in Bennett s absense.	150563502	1476063050106	1476063050174	NA	83
294904	3169324	Doug Chapman will likely get the start in Bennett s absence.	Doug Chapman will likely get the start in Bennett s absense.	150563504	1476063050237	1476063050332	NA	32
294904	3169324	Doug Chapman will likely get the start in Bennett s absence.	Doug Chapman will likely get the start in Bennett s absense.	150563527	1476063050428	1476063050543	NA	65
294904	3169324	Doug Chapman will likely get the start in Bennett s absence.	Doug Chapman will likely get the start in Bennett s absense.	150563528	1476063050654	1476063050753	NA	66
294904	3169324	Doug Chapman will likely get the start in Bennett s absence.	Doug Chapman will likely get the start in Bennett s absense.	150563529	1476063050879	1476063050978	NA	83
294904	3169324	Doug Chapman will likely get the start in Bennett s absence.	Doug Chapman will likely get the start in Bennett s absense.	150563530	1476063051117	1476063051220	NA	69
294904	3169324	Doug Chapman will likely get the start in Bennett s absence.	Doug Chapman will likely get the start in Bennett s absense.	150563531	1476063051229	1476063051324	NA	78
294904	3169324	Doug Chapman will likely get the start in Bennett s absence.	Doug Chapman will likely get the start in Bennett s absense.	150563555	1476063051350	1476063051440	NA	83
294904	3169324	Doug Chapman will likely get the start in Bennett s absence.	Doug Chapman will likely get the start in Bennett s absense.	150563556	1476063051546	1476063051623	NA	69
294904	3169324	Doug Chapman will likely get the start in Bennett s absence.	Doug Chapman will likely get the start in Bennett s absense.	150563557	1476063051781	1476063051880	NA	190
