PARTICIPANT_ID	TEST_SECTION_ID	SENTENCE	USER_INPUT	KEYSTROKE_ID	PRESS_TIME	RELEASE_TIME	LETTER	KEYCODE
296064	3182193	Did we get ours back?	Did we get ours back?	151184687	1476083871441	1476083871834	SHIFT	16
296064	3182193	Did we get ours back?	Did we get ours back?	151184686	1476083871668	1476083871811	D	68
296064	3182193	Did we get ours back?	Did we get ours back?	151184688	1476083871775	1476083871899	O	79
296064	3182193	Did we get ours back?	Did we get ours back?	151184691	1476083872108	1476083872198	 	32
296064	3182193	Did we get ours back?	Did we get ours back?	151184695	1476083872491	1476083872558	BKSP	8
296064	3182193	Did we get ours back?	Did we get ours back?	151184702	1476083872649	1476083872737	BKSP	8
296064	3182193	Did we get ours back?	Did we get ours back?	151184707	1476083872873	1476083873009	i	73
296064	3182193	Did we get ours back?	Did we get ours back?	151184713	1476083873298	1476083873415	 	32
296064	3182193	Did we get ours back?	Did we get ours back?	151184728	1476083873599	1476083873714	w	87
296064	3182193	Did we get ours back?	Did we get ours back?	151184732	1476083873890	1476083873976	BKSP	8
296064	3182193	Did we get ours back?	Did we get ours back?	151184737	1476083874061	1476083874179	BKSP	8
296064	3182193	Did we get ours back?	Did we get ours back?	151184742	1476083874314	1476083874428	d	68
296064	3182193	Did we get ours back?	Did we get ours back?	151184745	1476083874508	1476083874634	 	32
296064	3182193	Did we get ours back?	Did we get ours back?	151184748	1476083874665	1476083874749	e	69
296064	3182193	Did we get ours back?	Did we get ours back?	151184750	1476083874827	1476083874998	w	87
296064	3182193	Did we get ours back?	Did we get ours back?	151184769	1476083875260	1476083875325	BKSP	8
296064	3182193	Did we get ours back?	Did we get ours back?	151184771	1476083875408	1476083875515	BKSP	8
296064	3182193	Did we get ours back?	Did we get ours back?	151184773	1476083875458	1476083875605	w	87
296064	3182193	Did we get ours back?	Did we get ours back?	151184775	1476083875536	1476083875675	e	69
296064	3182193	Did we get ours back?	Did we get ours back?	151184776	1476083875642	1476083875764	 	32
296064	3182193	Did we get ours back?	Did we get ours back?	151184777	1476083876221	1476083876322	g	71
296064	3182193	Did we get ours back?	Did we get ours back?	151184778	1476083876416	1476083876511	e	69
296064	3182193	Did we get ours back?	Did we get ours back?	151184787	1476083876600	1476083876726	t	84
296064	3182193	Did we get ours back?	Did we get ours back?	151184789	1476083876667	1476083876814	 	32
296064	3182193	Did we get ours back?	Did we get ours back?	151184791	1476083876801	1476083876937	o	79
296064	3182193	Did we get ours back?	Did we get ours back?	151184793	1476083876906	1476083877089	u	85
296064	3182193	Did we get ours back?	Did we get ours back?	151184841	1476083877062	1476083877165	r	82
296064	3182193	Did we get ours back?	Did we get ours back?	151184843	1476083877879	1476083878039	s	83
296064	3182193	Did we get ours back?	Did we get ours back?	151184845	1476083878011	1476083878146	 	32
296064	3182193	Did we get ours back?	Did we get ours back?	151184847	1476083878135	1476083878289	b	66
296064	3182193	Did we get ours back?	Did we get ours back?	151184851	1476083878265	1476083878444	a	65
296064	3182193	Did we get ours back?	Did we get ours back?	151184852	1476083878456	1476083878592	c	67
296064	3182193	Did we get ours back?	Did we get ours back?	151184910	1476083878612	1476083878658	l	76
296064	3182193	Did we get ours back?	Did we get ours back?	151184917	1476083878813	1476083879137	SHIFT	16
296064	3182193	Did we get ours back?	Did we get ours back?	151184913	1476083878931	1476083879019	?	191
296064	3182193	Did we get ours back?	Did we get ours back?	151184921	1476083879236	1476083879314	BKSP	8
296064	3182193	Did we get ours back?	Did we get ours back?	151184925	1476083879391	1476083879472	BKSP	8
296064	3182193	Did we get ours back?	Did we get ours back?	151184927	1476083879567	1476083879720	l	76
296064	3182193	Did we get ours back?	Did we get ours back?	151184930	1476083879577	1476083879853	SHIFT	16
296064	3182193	Did we get ours back?	Did we get ours back?	151184932	1476083880053	1476083880155	BKSP	8
296064	3182193	Did we get ours back?	Did we get ours back?	151184934	1476083880286	1476083880434	k	75
296064	3182193	Did we get ours back?	Did we get ours back?	151184936	1476083880524	1476083880969	SHIFT	16
296064	3182193	Did we get ours back?	Did we get ours back?	151184937	1476083880665	1476083880758	?	191
296064	3182202	You'll have to forward that home for dad to see.	You'll have to forwars that home for dad to see.	151185108	1476083884125	1476083884580	SHIFT	16
296064	3182202	You'll have to forward that home for dad to see.	You'll have to forwars that home for dad to see.	151185106	1476083884411	1476083884526	Y	89
296064	3182202	You'll have to forward that home for dad to see.	You'll have to forwars that home for dad to see.	151185111	1476083884678	1476083884819	o	79
296064	3182202	You'll have to forward that home for dad to see.	You'll have to forwars that home for dad to see.	151185114	1476083885688	1476083885742	u	85
296064	3182202	You'll have to forward that home for dad to see.	You'll have to forwars that home for dad to see.	151185117	1476083886073	1476083886265	'	222
296064	3182202	You'll have to forward that home for dad to see.	You'll have to forwars that home for dad to see.	151185120	1476083886666	1476083886753	l	76
296064	3182202	You'll have to forward that home for dad to see.	You'll have to forwars that home for dad to see.	151185135	1476083886827	1476083886937	l	76
296064	3182202	You'll have to forward that home for dad to see.	You'll have to forwars that home for dad to see.	151185136	1476083887030	1476083887157	 	32
296064	3182202	You'll have to forward that home for dad to see.	You'll have to forwars that home for dad to see.	151185137	1476083887242	1476083887373	h	72
296064	3182202	You'll have to forward that home for dad to see.	You'll have to forwars that home for dad to see.	151185138	1476083887376	1476083887545	a	65
296064	3182202	You'll have to forward that home for dad to see.	You'll have to forwars that home for dad to see.	151185155	1476083887468	1476083887577	v	86
296064	3182202	You'll have to forward that home for dad to see.	You'll have to forwars that home for dad to see.	151185157	1476083887525	1476083887669	e	69
296064	3182202	You'll have to forward that home for dad to see.	You'll have to forwars that home for dad to see.	151185161	1476083887658	1476083887747	 	32
296064	3182202	You'll have to forward that home for dad to see.	You'll have to forwars that home for dad to see.	151185164	1476083887805	1476083887910	t	84
296064	3182202	You'll have to forward that home for dad to see.	You'll have to forwars that home for dad to see.	151185167	1476083887856	1476083887978	o	79
296064	3182202	You'll have to forward that home for dad to see.	You'll have to forwars that home for dad to see.	151185171	1476083888055	1476083888168	 	32
296064	3182202	You'll have to forward that home for dad to see.	You'll have to forwars that home for dad to see.	151185203	1476083888133	1476083888230	f	70
296064	3182202	You'll have to forward that home for dad to see.	You'll have to forwars that home for dad to see.	151185204	1476083888318	1476083888431	o	79
296064	3182202	You'll have to forward that home for dad to see.	You'll have to forwars that home for dad to see.	151185205	1476083888395	1476083888515	r	82
296064	3182202	You'll have to forward that home for dad to see.	You'll have to forwars that home for dad to see.	151185206	1476083888676	1476083888834	w	87
296064	3182202	You'll have to forward that home for dad to see.	You'll have to forwars that home for dad to see.	151185207	1476083888788	1476083888957	a	65
296064	3182202	You'll have to forward that home for dad to see.	You'll have to forwars that home for dad to see.	151185208	1476083889154	1476083889230	r	82
296064	3182202	You'll have to forward that home for dad to see.	You'll have to forwars that home for dad to see.	151185232	1476083889256	1476083889365	s	83
296064	3182202	You'll have to forward that home for dad to see.	You'll have to forwars that home for dad to see.	151185234	1476083889607	1476083889726	 	32
296064	3182202	You'll have to forward that home for dad to see.	You'll have to forwars that home for dad to see.	151185239	1476083889764	1476083889876	t	84
296064	3182202	You'll have to forward that home for dad to see.	You'll have to forwars that home for dad to see.	151185242	1476083889933	1476083889995	h	72
296064	3182202	You'll have to forward that home for dad to see.	You'll have to forwars that home for dad to see.	151185245	1476083890086	1476083890204	e	69
296064	3182202	You'll have to forward that home for dad to see.	You'll have to forwars that home for dad to see.	151185304	1476083890656	1476083890763	 	32
296064	3182202	You'll have to forward that home for dad to see.	You'll have to forwars that home for dad to see.	151185309	1476083891085	1476083891147	BKSP	8
296064	3182202	You'll have to forward that home for dad to see.	You'll have to forwars that home for dad to see.	151185313	1476083891220	1476083891321	BKSP	8
296064	3182202	You'll have to forward that home for dad to see.	You'll have to forwars that home for dad to see.	151185317	1476083891337	1476083891451	a	65
296064	3182202	You'll have to forward that home for dad to see.	You'll have to forwars that home for dad to see.	151185319	1476083891634	1476083891741	t	84
296064	3182202	You'll have to forward that home for dad to see.	You'll have to forwars that home for dad to see.	151185321	1476083891833	1476083891908	 	32
296064	3182202	You'll have to forward that home for dad to see.	You'll have to forwars that home for dad to see.	151185322	1476083892023	1476083892155	h	72
296064	3182202	You'll have to forward that home for dad to see.	You'll have to forwars that home for dad to see.	151185347	1476083892267	1476083892413	o	79
296064	3182202	You'll have to forward that home for dad to see.	You'll have to forwars that home for dad to see.	151185348	1476083892396	1476083892515	m	77
296064	3182202	You'll have to forward that home for dad to see.	You'll have to forwars that home for dad to see.	151185349	1476083892579	1476083892670	e	69
296064	3182202	You'll have to forward that home for dad to see.	You'll have to forwars that home for dad to see.	151185350	1476083892712	1476083892807	 	32
296064	3182202	You'll have to forward that home for dad to see.	You'll have to forwars that home for dad to see.	151185351	1476083892880	1476083892991	f	70
296064	3182202	You'll have to forward that home for dad to see.	You'll have to forwars that home for dad to see.	151185374	1476083892966	1476083893110	o	79
296064	3182202	You'll have to forward that home for dad to see.	You'll have to forwars that home for dad to see.	151185375	1476083893345	1476083893460	d	68
296064	3182202	You'll have to forward that home for dad to see.	You'll have to forwars that home for dad to see.	151185376	1476083893760	1476083893840	BKSP	8
296064	3182202	You'll have to forward that home for dad to see.	You'll have to forwars that home for dad to see.	151185377	1476083893840	1476083893965	r	82
296064	3182202	You'll have to forward that home for dad to see.	You'll have to forwars that home for dad to see.	151185379	1476083894028	1476083894127	 	32
296064	3182202	You'll have to forward that home for dad to see.	You'll have to forwars that home for dad to see.	151185381	1476083894108	1476083894233	d	68
296064	3182202	You'll have to forward that home for dad to see.	You'll have to forwars that home for dad to see.	151185406	1476083894200	1476083894347	a	65
296064	3182202	You'll have to forward that home for dad to see.	You'll have to forwars that home for dad to see.	151185407	1476083894362	1476083894466	d	68
296064	3182202	You'll have to forward that home for dad to see.	You'll have to forwars that home for dad to see.	151185409	1476083894458	1476083894582	a	65
296064	3182202	You'll have to forward that home for dad to see.	You'll have to forwars that home for dad to see.	151185411	1476083894613	1476083894715	 	32
296064	3182202	You'll have to forward that home for dad to see.	You'll have to forwars that home for dad to see.	151185413	1476083894746	1476083894860	t	84
296064	3182202	You'll have to forward that home for dad to see.	You'll have to forwars that home for dad to see.	151185414	1476083894876	1476083894984	o	79
296064	3182202	You'll have to forward that home for dad to see.	You'll have to forwars that home for dad to see.	151185468	1476083895499	1476083895560	BKSP	8
296064	3182202	You'll have to forward that home for dad to see.	You'll have to forwars that home for dad to see.	151185469	1476083895648	1476083895724	BKSP	8
296064	3182202	You'll have to forward that home for dad to see.	You'll have to forwars that home for dad to see.	151185470	1476083895827	1476083895911	BKSP	8
296064	3182202	You'll have to forward that home for dad to see.	You'll have to forwars that home for dad to see.	151185471	1476083895983	1476083896080	BKSP	8
296064	3182202	You'll have to forward that home for dad to see.	You'll have to forwars that home for dad to see.	151185472	1476083896126	1476083896260	 	32
296064	3182202	You'll have to forward that home for dad to see.	You'll have to forwars that home for dad to see.	151185473	1476083896275	1476083896383	t	84
296064	3182202	You'll have to forward that home for dad to see.	You'll have to forwars that home for dad to see.	151185474	1476083896341	1476083896469	o	79
296064	3182202	You'll have to forward that home for dad to see.	You'll have to forwars that home for dad to see.	151185475	1476083896764	1476083896873	 	32
296064	3182202	You'll have to forward that home for dad to see.	You'll have to forwars that home for dad to see.	151185476	1476083896942	1476083897053	s	83
296064	3182202	You'll have to forward that home for dad to see.	You'll have to forwars that home for dad to see.	151185503	1476083897007	1476083897082	e	69
296064	3182202	You'll have to forward that home for dad to see.	You'll have to forwars that home for dad to see.	151185504	1476083897170	1476083897279	e	69
296064	3182202	You'll have to forward that home for dad to see.	You'll have to forwars that home for dad to see.	151185507	1476083897311	1476083897479	.	190
296064	3182220	Thanks for your concern.	Thanks for your concern.	151185611	1476083900432	1476083900786	SHIFT	16
296064	3182220	Thanks for your concern.	Thanks for your concern.	151185613	1476083900645	1476083900809	T	84
296064	3182220	Thanks for your concern.	Thanks for your concern.	151185616	1476083900798	1476083900883	h	72
296064	3182220	Thanks for your concern.	Thanks for your concern.	151185619	1476083901045	1476083901104	a	65
296064	3182220	Thanks for your concern.	Thanks for your concern.	151185622	1476083901111	1476083901267	n	78
296064	3182220	Thanks for your concern.	Thanks for your concern.	151185654	1476083901217	1476083901361	k	75
296064	3182220	Thanks for your concern.	Thanks for your concern.	151185657	1476083901763	1476083901875	s	83
296064	3182220	Thanks for your concern.	Thanks for your concern.	151185659	1476083901875	1476083901983	 	32
296064	3182220	Thanks for your concern.	Thanks for your concern.	151185662	1476083902029	1476083902137	f	70
296064	3182220	Thanks for your concern.	Thanks for your concern.	151185665	1476083902100	1476083902241	o	79
296064	3182220	Thanks for your concern.	Thanks for your concern.	151185668	1476083902263	1476083902355	r	82
296064	3182220	Thanks for your concern.	Thanks for your concern.	151185682	1476083902368	1476083902465	 	32
296064	3182220	Thanks for your concern.	Thanks for your concern.	151185683	1476083902496	1476083902560	y	89
296064	3182220	Thanks for your concern.	Thanks for your concern.	151185684	1476083902591	1476083902743	o	79
296064	3182220	Thanks for your concern.	Thanks for your concern.	151185685	1476083902713	1476083902870	u	85
296064	3182220	Thanks for your concern.	Thanks for your concern.	151185686	1476083902880	1476083902968	r	82
296064	3182220	Thanks for your concern.	Thanks for your concern.	151185704	1476083903145	1476083903240	 	32
296064	3182220	Thanks for your concern.	Thanks for your concern.	151185707	1476083903276	1476083903402	c	67
296064	3182220	Thanks for your concern.	Thanks for your concern.	151185711	1476083903383	1476083903562	o	79
296064	3182220	Thanks for your concern.	Thanks for your concern.	151185714	1476083903503	1476083903656	n	78
296064	3182220	Thanks for your concern.	Thanks for your concern.	151185716	1476083903739	1476083903899	c	67
296064	3182220	Thanks for your concern.	Thanks for your concern.	151185787	1476083903948	1476083904049	e	69
296064	3182220	Thanks for your concern.	Thanks for your concern.	151185789	1476083904130	1476083904252	r	82
296064	3182220	Thanks for your concern.	Thanks for your concern.	151185791	1476083904596	1476083904717	,	188
296064	3182220	Thanks for your concern.	Thanks for your concern.	151185795	1476083904945	1476083905010	BKSP	8
296064	3182220	Thanks for your concern.	Thanks for your concern.	151185798	1476083905114	1476083905221	n	78
296064	3182220	Thanks for your concern.	Thanks for your concern.	151185801	1476083905375	1476083905515	,	188
296064	3182220	Thanks for your concern.	Thanks for your concern.	151185813	1476083905911	1476083906017	BKSP	8
296064	3182220	Thanks for your concern.	Thanks for your concern.	151185815	1476083906059	1476083906186	.	190
296064	3182225	Will call later to explain.	Will call later to explain.	151185932	1476083908917	1476083909191	SHIFT	16
296064	3182225	Will call later to explain.	Will call later to explain.	151185933	1476083909078	1476083909228	W	87
296064	3182225	Will call later to explain.	Will call later to explain.	151185934	1476083909210	1476083909267	i	73
296064	3182225	Will call later to explain.	Will call later to explain.	151185935	1476083909395	1476083909469	l	76
296064	3182225	Will call later to explain.	Will call later to explain.	151185937	1476083909548	1476083909618	l	76
296064	3182225	Will call later to explain.	Will call later to explain.	151185939	1476083909714	1476083909844	 	32
296064	3182225	Will call later to explain.	Will call later to explain.	151185971	1476083909789	1476083909906	c	67
296064	3182225	Will call later to explain.	Will call later to explain.	151185972	1476083909871	1476083910048	a	65
296064	3182225	Will call later to explain.	Will call later to explain.	151185973	1476083910076	1476083910156	l	76
296064	3182225	Will call later to explain.	Will call later to explain.	151185974	1476083910238	1476083910306	l	76
296064	3182225	Will call later to explain.	Will call later to explain.	151185975	1476083910390	1476083910504	 	32
296064	3182225	Will call later to explain.	Will call later to explain.	151185976	1476083910592	1476083910708	l	76
296064	3182225	Will call later to explain.	Will call later to explain.	151185996	1476083910687	1476083910797	a	65
296064	3182225	Will call later to explain.	Will call later to explain.	151185998	1476083910863	1476083910931	t	84
296064	3182225	Will call later to explain.	Will call later to explain.	151186001	1476083911048	1476083911131	e	69
296064	3182225	Will call later to explain.	Will call later to explain.	151186004	1476083911211	1476083911303	r	82
296064	3182225	Will call later to explain.	Will call later to explain.	151186007	1476083911366	1476083911466	 	32
296064	3182225	Will call later to explain.	Will call later to explain.	151186011	1476083911481	1476083911573	t	84
296064	3182225	Will call later to explain.	Will call later to explain.	151186063	1476083911556	1476083911676	o	79
296064	3182225	Will call later to explain.	Will call later to explain.	151186064	1476083911742	1476083911837	 	32
296064	3182225	Will call later to explain.	Will call later to explain.	151186065	1476083911868	1476083912021	e	69
296064	3182225	Will call later to explain.	Will call later to explain.	151186066	1476083912008	1476083912152	s	83
296064	3182225	Will call later to explain.	Will call later to explain.	151186067	1476083912306	1476083912400	x	88
296064	3182225	Will call later to explain.	Will call later to explain.	151186068	1476083912528	1476083912591	BKSP	8
296064	3182225	Will call later to explain.	Will call later to explain.	151186069	1476083912668	1476083912724	BKSP	8
296064	3182225	Will call later to explain.	Will call later to explain.	151186070	1476083912739	1476083912832	x	88
296064	3182225	Will call later to explain.	Will call later to explain.	151186115	1476083912879	1476083913119	p	80
296064	3182225	Will call later to explain.	Will call later to explain.	151186116	1476083913091	1476083913215	a	65
296064	3182225	Will call later to explain.	Will call later to explain.	151186120	1476083913441	1476083913505	i	73
296064	3182225	Will call later to explain.	Will call later to explain.	151186127	1476083913719	1476083913774	BKSP	8
296064	3182225	Will call later to explain.	Will call later to explain.	151186131	1476083913837	1476083913905	BKSP	8
296064	3182225	Will call later to explain.	Will call later to explain.	151186134	1476083914109	1476083914251	a	65
296064	3182225	Will call later to explain.	Will call later to explain.	151186135	1476083914491	1476083914565	BKSP	8
296064	3182225	Will call later to explain.	Will call later to explain.	151186165	1476083914630	1476083914746	l	76
296064	3182225	Will call later to explain.	Will call later to explain.	151186136	1476083914672	1476083914738	;	186
296064	3182225	Will call later to explain.	Will call later to explain.	151186166	1476083914825	1476083914982	a	65
296064	3182225	Will call later to explain.	Will call later to explain.	151186167	1476083914997	1476083915052	i	73
296064	3182225	Will call later to explain.	Will call later to explain.	151186168	1476083915235	1476083915306	BKSP	8
296064	3182225	Will call later to explain.	Will call later to explain.	151186169	1476083915384	1476083915466	BKSP	8
296064	3182225	Will call later to explain.	Will call later to explain.	151186170	1476083915541	1476083915632	BKSP	8
296064	3182225	Will call later to explain.	Will call later to explain.	151186171	1476083915664	1476083915802	a	65
296064	3182225	Will call later to explain.	Will call later to explain.	151186172	1476083915820	1476083916017	i	73
296064	3182225	Will call later to explain.	Will call later to explain.	151186210	1476083915973	1476083916118	n	78
296064	3182225	Will call later to explain.	Will call later to explain.	151186212	1476083916352	1476083916511	,	188
296064	3182225	Will call later to explain.	Will call later to explain.	151186219	1476083916834	1476083916915	BKSP	8
296064	3182225	Will call later to explain.	Will call later to explain.	151186224	1476083916951	1476083917106	.	190
296064	3182232	Penske wouldn't come here without a good idea it would hold up.	Penske wouldn't come here without a good idea it would hold up.	151186324	1476083920278	1476083920627	SHIFT	16
296064	3182232	Penske wouldn't come here without a good idea it would hold up.	Penske wouldn't come here without a good idea it would hold up.	151186321	1476083920468	1476083920548	P	80
296064	3182232	Penske wouldn't come here without a good idea it would hold up.	Penske wouldn't come here without a good idea it would hold up.	151186328	1476083920969	1476083921063	e	69
296064	3182232	Penske wouldn't come here without a good idea it would hold up.	Penske wouldn't come here without a good idea it would hold up.	151186331	1476083921068	1476083921211	n	78
296064	3182232	Penske wouldn't come here without a good idea it would hold up.	Penske wouldn't come here without a good idea it would hold up.	151186334	1476083921183	1476083921297	k	75
296064	3182232	Penske wouldn't come here without a good idea it would hold up.	Penske wouldn't come here without a good idea it would hold up.	151186399	1476083921240	1476083921389	s	83
296064	3182232	Penske wouldn't come here without a good idea it would hold up.	Penske wouldn't come here without a good idea it would hold up.	151186403	1476083921921	1476083922020	BKSP	8
296064	3182232	Penske wouldn't come here without a good idea it would hold up.	Penske wouldn't come here without a good idea it would hold up.	151186406	1476083922490	1476083922555	BKSP	8
296064	3182232	Penske wouldn't come here without a good idea it would hold up.	Penske wouldn't come here without a good idea it would hold up.	151186409	1476083922644	1476083922753	s	83
296064	3182232	Penske wouldn't come here without a good idea it would hold up.	Penske wouldn't come here without a good idea it would hold up.	151186412	1476083922928	1476083923030	e	69
296064	3182232	Penske wouldn't come here without a good idea it would hold up.	Penske wouldn't come here without a good idea it would hold up.	151186415	1476083923298	1476083923373	BKSP	8
296064	3182232	Penske wouldn't come here without a good idea it would hold up.	Penske wouldn't come here without a good idea it would hold up.	151186417	1476083923437	1476083923579	k	75
296064	3182232	Penske wouldn't come here without a good idea it would hold up.	Penske wouldn't come here without a good idea it would hold up.	151186420	1476083923560	1476083923648	e	69
296064	3182232	Penske wouldn't come here without a good idea it would hold up.	Penske wouldn't come here without a good idea it would hold up.	151186422	1476083923698	1476083923827	 	32
296064	3182232	Penske wouldn't come here without a good idea it would hold up.	Penske wouldn't come here without a good idea it would hold up.	151186475	1476083923837	1476083923968	w	87
296064	3182232	Penske wouldn't come here without a good idea it would hold up.	Penske wouldn't come here without a good idea it would hold up.	151186477	1476083923968	1476083924115	o	79
296064	3182232	Penske wouldn't come here without a good idea it would hold up.	Penske wouldn't come here without a good idea it would hold up.	151186480	1476083924095	1476083924237	u	85
296064	3182232	Penske wouldn't come here without a good idea it would hold up.	Penske wouldn't come here without a good idea it would hold up.	151186483	1476083924705	1476083924781	BKSP	8
296064	3182232	Penske wouldn't come here without a good idea it would hold up.	Penske wouldn't come here without a good idea it would hold up.	151186486	1476083924883	1476083924975	BKSP	8
296064	3182232	Penske wouldn't come here without a good idea it would hold up.	Penske wouldn't come here without a good idea it would hold up.	151186488	1476083925064	1476083925187	BKSP	8
296064	3182232	Penske wouldn't come here without a good idea it would hold up.	Penske wouldn't come here without a good idea it would hold up.	151186490	1476083925271	1476083925370	BKSP	8
296064	3182232	Penske wouldn't come here without a good idea it would hold up.	Penske wouldn't come here without a good idea it would hold up.	151186491	1476083925448	1476083925578	BKSP	8
296064	3182232	Penske wouldn't come here without a good idea it would hold up.	Penske wouldn't come here without a good idea it would hold up.	151186492	1476083926103	1476083926243	k	75
296064	3182232	Penske wouldn't come here without a good idea it would hold up.	Penske wouldn't come here without a good idea it would hold up.	151186493	1476083926255	1476083926358	e	69
296064	3182232	Penske wouldn't come here without a good idea it would hold up.	Penske wouldn't come here without a good idea it would hold up.	151186530	1476083926524	1476083926634	 	32
296064	3182232	Penske wouldn't come here without a good idea it would hold up.	Penske wouldn't come here without a good idea it would hold up.	151186532	1476083926895	1476083926971	BKSP	8
296064	3182232	Penske wouldn't come here without a good idea it would hold up.	Penske wouldn't come here without a good idea it would hold up.	151186534	1476083927060	1476083927153	BKSP	8
296064	3182232	Penske wouldn't come here without a good idea it would hold up.	Penske wouldn't come here without a good idea it would hold up.	151186536	1476083927229	1476083927361	BKSP	8
296064	3182232	Penske wouldn't come here without a good idea it would hold up.	Penske wouldn't come here without a good idea it would hold up.	151186538	1476083927353	1476083927444	e	69
296064	3182232	Penske wouldn't come here without a good idea it would hold up.	Penske wouldn't come here without a good idea it would hold up.	151186540	1476083927731	1476083927833	 	32
296064	3182232	Penske wouldn't come here without a good idea it would hold up.	Penske wouldn't come here without a good idea it would hold up.	151186541	1476083927961	1476083928129	w	87
296064	3182232	Penske wouldn't come here without a good idea it would hold up.	Penske wouldn't come here without a good idea it would hold up.	151186592	1476083928080	1476083928214	o	79
296064	3182232	Penske wouldn't come here without a good idea it would hold up.	Penske wouldn't come here without a good idea it would hold up.	151186594	1476083928309	1476083928411	u	85
296064	3182232	Penske wouldn't come here without a good idea it would hold up.	Penske wouldn't come here without a good idea it would hold up.	151186595	1476083928518	1476083928622	l	76
296064	3182232	Penske wouldn't come here without a good idea it would hold up.	Penske wouldn't come here without a good idea it would hold up.	151186597	1476083928788	1476083928951	d	68
296064	3182232	Penske wouldn't come here without a good idea it would hold up.	Penske wouldn't come here without a good idea it would hold up.	151186598	1476083929159	1476083929307	n	78
296064	3182232	Penske wouldn't come here without a good idea it would hold up.	Penske wouldn't come here without a good idea it would hold up.	151186599	1476083929813	1476083930002	'	222
296064	3182232	Penske wouldn't come here without a good idea it would hold up.	Penske wouldn't come here without a good idea it would hold up.	151186611	1476083930073	1476083930179	t	84
296064	3182232	Penske wouldn't come here without a good idea it would hold up.	Penske wouldn't come here without a good idea it would hold up.	151186613	1476083930617	1476083930730	 	32
296064	3182232	Penske wouldn't come here without a good idea it would hold up.	Penske wouldn't come here without a good idea it would hold up.	151186617	1476083930759	1476083930860	c	67
296064	3182232	Penske wouldn't come here without a good idea it would hold up.	Penske wouldn't come here without a good idea it would hold up.	151186619	1476083930863	1476083931040	o	79
296064	3182232	Penske wouldn't come here without a good idea it would hold up.	Penske wouldn't come here without a good idea it would hold up.	151186637	1476083930982	1476083931153	m	77
296064	3182232	Penske wouldn't come here without a good idea it would hold up.	Penske wouldn't come here without a good idea it would hold up.	151186639	1476083931157	1476083931271	e	69
296064	3182232	Penske wouldn't come here without a good idea it would hold up.	Penske wouldn't come here without a good idea it would hold up.	151186641	1476083931252	1476083931354	 	32
296064	3182232	Penske wouldn't come here without a good idea it would hold up.	Penske wouldn't come here without a good idea it would hold up.	151186643	1476083931407	1476083931544	h	72
296064	3182232	Penske wouldn't come here without a good idea it would hold up.	Penske wouldn't come here without a good idea it would hold up.	151186645	1476083931517	1476083931588	e	69
296064	3182232	Penske wouldn't come here without a good idea it would hold up.	Penske wouldn't come here without a good idea it would hold up.	151186647	1476083931670	1476083931764	r	82
296064	3182232	Penske wouldn't come here without a good idea it would hold up.	Penske wouldn't come here without a good idea it would hold up.	151186672	1476083931860	1476083931976	e	69
296064	3182232	Penske wouldn't come here without a good idea it would hold up.	Penske wouldn't come here without a good idea it would hold up.	151186674	1476083932042	1476083932150	 	32
296064	3182232	Penske wouldn't come here without a good idea it would hold up.	Penske wouldn't come here without a good idea it would hold up.	151186676	1476083932425	1476083932533	w	87
296064	3182232	Penske wouldn't come here without a good idea it would hold up.	Penske wouldn't come here without a good idea it would hold up.	151186679	1476083932506	1476083932639	i	73
296064	3182232	Penske wouldn't come here without a good idea it would hold up.	Penske wouldn't come here without a good idea it would hold up.	151186682	1476083932649	1476083932762	t	84
296064	3182232	Penske wouldn't come here without a good idea it would hold up.	Penske wouldn't come here without a good idea it would hold up.	151186720	1476083932777	1476083932877	h	72
296064	3182232	Penske wouldn't come here without a good idea it would hold up.	Penske wouldn't come here without a good idea it would hold up.	151186722	1476083932893	1476083933084	o	79
296064	3182232	Penske wouldn't come here without a good idea it would hold up.	Penske wouldn't come here without a good idea it would hold up.	151186724	1476083933164	1476083933337	u	85
296064	3182232	Penske wouldn't come here without a good idea it would hold up.	Penske wouldn't come here without a good idea it would hold up.	151186725	1476083933462	1476083933519	t	84
296064	3182232	Penske wouldn't come here without a good idea it would hold up.	Penske wouldn't come here without a good idea it would hold up.	151186727	1476083933756	1476083933845	 	32
296064	3182232	Penske wouldn't come here without a good idea it would hold up.	Penske wouldn't come here without a good idea it would hold up.	151186739	1476083933968	1476083934106	a	65
296064	3182232	Penske wouldn't come here without a good idea it would hold up.	Penske wouldn't come here without a good idea it would hold up.	151186740	1476083934079	1476083934168	 	32
296064	3182232	Penske wouldn't come here without a good idea it would hold up.	Penske wouldn't come here without a good idea it would hold up.	151186742	1476083934229	1476083934334	g	71
296064	3182232	Penske wouldn't come here without a good idea it would hold up.	Penske wouldn't come here without a good idea it would hold up.	151186744	1476083934362	1476083934424	o	79
296064	3182232	Penske wouldn't come here without a good idea it would hold up.	Penske wouldn't come here without a good idea it would hold up.	151186748	1476083934507	1476083934623	o	79
296064	3182232	Penske wouldn't come here without a good idea it would hold up.	Penske wouldn't come here without a good idea it would hold up.	151186774	1476083934638	1476083934741	d	68
296064	3182232	Penske wouldn't come here without a good idea it would hold up.	Penske wouldn't come here without a good idea it would hold up.	151186776	1476083934759	1476083934880	 	32
296064	3182232	Penske wouldn't come here without a good idea it would hold up.	Penske wouldn't come here without a good idea it would hold up.	151186777	1476083934863	1476083935017	i	73
296064	3182232	Penske wouldn't come here without a good idea it would hold up.	Penske wouldn't come here without a good idea it would hold up.	151186778	1476083934979	1476083935042	d	68
296064	3182232	Penske wouldn't come here without a good idea it would hold up.	Penske wouldn't come here without a good idea it would hold up.	151186779	1476083935132	1476083935256	e	69
296064	3182232	Penske wouldn't come here without a good idea it would hold up.	Penske wouldn't come here without a good idea it would hold up.	151186809	1476083935228	1476083935397	a	65
296064	3182232	Penske wouldn't come here without a good idea it would hold up.	Penske wouldn't come here without a good idea it would hold up.	151186810	1476083935929	1476083936043	 	32
296064	3182232	Penske wouldn't come here without a good idea it would hold up.	Penske wouldn't come here without a good idea it would hold up.	151186811	1476083936173	1476083936305	i	73
296064	3182232	Penske wouldn't come here without a good idea it would hold up.	Penske wouldn't come here without a good idea it would hold up.	151186813	1476083936296	1476083936388	t	84
296064	3182232	Penske wouldn't come here without a good idea it would hold up.	Penske wouldn't come here without a good idea it would hold up.	151186815	1476083936486	1476083936582	w	87
296064	3182232	Penske wouldn't come here without a good idea it would hold up.	Penske wouldn't come here without a good idea it would hold up.	151186817	1476083936640	1476083936753	 	32
296064	3182232	Penske wouldn't come here without a good idea it would hold up.	Penske wouldn't come here without a good idea it would hold up.	151186860	1476083937012	1476083937050	BKSP	8
296064	3182232	Penske wouldn't come here without a good idea it would hold up.	Penske wouldn't come here without a good idea it would hold up.	151186861	1476083937126	1476083937235	BKSP	8
296064	3182232	Penske wouldn't come here without a good idea it would hold up.	Penske wouldn't come here without a good idea it would hold up.	151186862	1476083937282	1476083937426	 	32
296064	3182232	Penske wouldn't come here without a good idea it would hold up.	Penske wouldn't come here without a good idea it would hold up.	151186864	1476083937333	1476083937451	w	87
296064	3182232	Penske wouldn't come here without a good idea it would hold up.	Penske wouldn't come here without a good idea it would hold up.	151186866	1476083937621	1476083937824	i	73
296064	3182232	Penske wouldn't come here without a good idea it would hold up.	Penske wouldn't come here without a good idea it would hold up.	151186868	1476083938158	1476083938247	BKSP	8
296064	3182232	Penske wouldn't come here without a good idea it would hold up.	Penske wouldn't come here without a good idea it would hold up.	151186871	1476083938353	1476083938472	o	79
296064	3182232	Penske wouldn't come here without a good idea it would hold up.	Penske wouldn't come here without a good idea it would hold up.	151186872	1476083938575	1476083938662	u	85
296064	3182232	Penske wouldn't come here without a good idea it would hold up.	Penske wouldn't come here without a good idea it would hold up.	151186891	1476083938774	1476083938882	l	76
296064	3182232	Penske wouldn't come here without a good idea it would hold up.	Penske wouldn't come here without a good idea it would hold up.	151186892	1476083939119	1476083939227	d	68
296064	3182232	Penske wouldn't come here without a good idea it would hold up.	Penske wouldn't come here without a good idea it would hold up.	151186893	1476083939275	1476083939361	 	32
296064	3182232	Penske wouldn't come here without a good idea it would hold up.	Penske wouldn't come here without a good idea it would hold up.	151186894	1476083939614	1476083939731	h	72
296064	3182232	Penske wouldn't come here without a good idea it would hold up.	Penske wouldn't come here without a good idea it would hold up.	151186896	1476083940102	1476083940186	o	79
296064	3182232	Penske wouldn't come here without a good idea it would hold up.	Penske wouldn't come here without a good idea it would hold up.	151186914	1476083940262	1476083940371	l	76
296064	3182232	Penske wouldn't come here without a good idea it would hold up.	Penske wouldn't come here without a good idea it would hold up.	151186917	1476083940415	1476083940496	d	68
296064	3182232	Penske wouldn't come here without a good idea it would hold up.	Penske wouldn't come here without a good idea it would hold up.	151186919	1476083940538	1476083940630	 	32
296064	3182232	Penske wouldn't come here without a good idea it would hold up.	Penske wouldn't come here without a good idea it would hold up.	151186922	1476083940747	1476083940936	u	85
296064	3182232	Penske wouldn't come here without a good idea it would hold up.	Penske wouldn't come here without a good idea it would hold up.	151186937	1476083940871	1476083941031	p	80
296064	3182232	Penske wouldn't come here without a good idea it would hold up.	Penske wouldn't come here without a good idea it would hold up.	151186940	1476083941137	1476083941281	.	190
296064	3182245	He remains a good Fantasy backup when healthy.	He remains a good Fantasy backup when healthy.	151187060	1476083944924	1476083945097	SHIFT	16
296064	3182245	He remains a good Fantasy backup when healthy.	He remains a good Fantasy backup when healthy.	151187058	1476083944972	1476083945063	H	72
296064	3182245	He remains a good Fantasy backup when healthy.	He remains a good Fantasy backup when healthy.	151187063	1476083945134	1476083945258	e	69
296064	3182245	He remains a good Fantasy backup when healthy.	He remains a good Fantasy backup when healthy.	151187065	1476083945334	1476083945435	 	32
296064	3182245	He remains a good Fantasy backup when healthy.	He remains a good Fantasy backup when healthy.	151187066	1476083945450	1476083945539	r	82
296064	3182245	He remains a good Fantasy backup when healthy.	He remains a good Fantasy backup when healthy.	151187068	1476083945625	1476083945779	e	69
296064	3182245	He remains a good Fantasy backup when healthy.	He remains a good Fantasy backup when healthy.	151187082	1476083945848	1476083945989	m	77
296064	3182245	He remains a good Fantasy backup when healthy.	He remains a good Fantasy backup when healthy.	151187086	1476083945978	1476083946098	a	65
296064	3182245	He remains a good Fantasy backup when healthy.	He remains a good Fantasy backup when healthy.	151187089	1476083946098	1476083946292	i	73
296064	3182245	He remains a good Fantasy backup when healthy.	He remains a good Fantasy backup when healthy.	151187094	1476083946242	1476083946398	n	78
296064	3182245	He remains a good Fantasy backup when healthy.	He remains a good Fantasy backup when healthy.	151187098	1476083946415	1476083946520	s	83
296064	3182245	He remains a good Fantasy backup when healthy.	He remains a good Fantasy backup when healthy.	151187114	1476083946654	1476083946765	 	32
296064	3182245	He remains a good Fantasy backup when healthy.	He remains a good Fantasy backup when healthy.	151187115	1476083946783	1476083946921	a	65
296064	3182245	He remains a good Fantasy backup when healthy.	He remains a good Fantasy backup when healthy.	151187116	1476083946940	1476083947052	 	32
296064	3182245	He remains a good Fantasy backup when healthy.	He remains a good Fantasy backup when healthy.	151187117	1476083947098	1476083947216	g	71
296064	3182245	He remains a good Fantasy backup when healthy.	He remains a good Fantasy backup when healthy.	151187118	1476083947237	1476083947315	o	79
296064	3182245	He remains a good Fantasy backup when healthy.	He remains a good Fantasy backup when healthy.	151187149	1476083947391	1476083947532	o	79
296064	3182245	He remains a good Fantasy backup when healthy.	He remains a good Fantasy backup when healthy.	151187151	1476083947532	1476083947647	d	68
296064	3182245	He remains a good Fantasy backup when healthy.	He remains a good Fantasy backup when healthy.	151187153	1476083947836	1476083947969	.	190
296064	3182245	He remains a good Fantasy backup when healthy.	He remains a good Fantasy backup when healthy.	151187155	1476083948215	1476083948304	BKSP	8
296064	3182245	He remains a good Fantasy backup when healthy.	He remains a good Fantasy backup when healthy.	151187159	1476083948367	1476083948483	 	32
296064	3182245	He remains a good Fantasy backup when healthy.	He remains a good Fantasy backup when healthy.	151187162	1476083948423	1476083948684	SHIFT	16
296064	3182245	He remains a good Fantasy backup when healthy.	He remains a good Fantasy backup when healthy.	151187176	1476083948599	1476083948701	F	70
296064	3182245	He remains a good Fantasy backup when healthy.	He remains a good Fantasy backup when healthy.	151187178	1476083948792	1476083948930	a	65
296064	3182245	He remains a good Fantasy backup when healthy.	He remains a good Fantasy backup when healthy.	151187180	1476083948930	1476083949060	n	78
296064	3182245	He remains a good Fantasy backup when healthy.	He remains a good Fantasy backup when healthy.	151187182	1476083949065	1476083949157	t	84
296064	3182245	He remains a good Fantasy backup when healthy.	He remains a good Fantasy backup when healthy.	151187186	1476083949243	1476083949388	a	65
296064	3182245	He remains a good Fantasy backup when healthy.	He remains a good Fantasy backup when healthy.	151187226	1476083949337	1476083949495	s	83
296064	3182245	He remains a good Fantasy backup when healthy.	He remains a good Fantasy backup when healthy.	151187228	1476083949768	1476083949885	y	89
296064	3182245	He remains a good Fantasy backup when healthy.	He remains a good Fantasy backup when healthy.	151187230	1476083950010	1476083950129	 	32
296064	3182245	He remains a good Fantasy backup when healthy.	He remains a good Fantasy backup when healthy.	151187233	1476083950191	1476083950314	v	86
296064	3182245	He remains a good Fantasy backup when healthy.	He remains a good Fantasy backup when healthy.	151187235	1476083950329	1476083950487	a	65
296064	3182245	He remains a good Fantasy backup when healthy.	He remains a good Fantasy backup when healthy.	151187239	1476083950710	1476083950781	BKSP	8
296064	3182245	He remains a good Fantasy backup when healthy.	He remains a good Fantasy backup when healthy.	151187242	1476083950855	1476083950939	BKSP	8
296064	3182245	He remains a good Fantasy backup when healthy.	He remains a good Fantasy backup when healthy.	151187252	1476083950906	1476083951011	b	66
296064	3182245	He remains a good Fantasy backup when healthy.	He remains a good Fantasy backup when healthy.	151187254	1476083950983	1476083951143	a	65
296064	3182245	He remains a good Fantasy backup when healthy.	He remains a good Fantasy backup when healthy.	151187256	1476083951101	1476083951241	c	67
296064	3182245	He remains a good Fantasy backup when healthy.	He remains a good Fantasy backup when healthy.	151187258	1476083951245	1476083951354	k	75
296064	3182245	He remains a good Fantasy backup when healthy.	He remains a good Fantasy backup when healthy.	151187262	1476083951607	1476083951789	u	85
296064	3182245	He remains a good Fantasy backup when healthy.	He remains a good Fantasy backup when healthy.	151187269	1476083951730	1476083951923	p	80
296064	3182245	He remains a good Fantasy backup when healthy.	He remains a good Fantasy backup when healthy.	151187271	1476083951944	1476083952051	 	32
296064	3182245	He remains a good Fantasy backup when healthy.	He remains a good Fantasy backup when healthy.	151187273	1476083952114	1476083952248	w	87
296064	3182245	He remains a good Fantasy backup when healthy.	He remains a good Fantasy backup when healthy.	151187276	1476083952218	1476083952303	h	72
296064	3182245	He remains a good Fantasy backup when healthy.	He remains a good Fantasy backup when healthy.	151187279	1476083952319	1476083952414	e	69
296064	3182245	He remains a good Fantasy backup when healthy.	He remains a good Fantasy backup when healthy.	151187282	1476083952461	1476083952597	n	78
296064	3182245	He remains a good Fantasy backup when healthy.	He remains a good Fantasy backup when healthy.	151187288	1476083952610	1476083952733	 	32
296064	3182245	He remains a good Fantasy backup when healthy.	He remains a good Fantasy backup when healthy.	151187290	1476083952870	1476083952957	r	82
296064	3182245	He remains a good Fantasy backup when healthy.	He remains a good Fantasy backup when healthy.	151187292	1476083953192	1476083953267	BKSP	8
296064	3182245	He remains a good Fantasy backup when healthy.	He remains a good Fantasy backup when healthy.	151187294	1476083953383	1476083953486	h	72
296064	3182245	He remains a good Fantasy backup when healthy.	He remains a good Fantasy backup when healthy.	151187297	1476083953486	1476083953593	e	69
296064	3182245	He remains a good Fantasy backup when healthy.	He remains a good Fantasy backup when healthy.	151187331	1476083953566	1476083953691	a	65
296064	3182245	He remains a good Fantasy backup when healthy.	He remains a good Fantasy backup when healthy.	151187333	1476083953717	1476083953830	l	76
296064	3182245	He remains a good Fantasy backup when healthy.	He remains a good Fantasy backup when healthy.	151187335	1476083953950	1476083954025	t	84
296064	3182245	He remains a good Fantasy backup when healthy.	He remains a good Fantasy backup when healthy.	151187336	1476083954113	1476083954244	h	72
296064	3182245	He remains a good Fantasy backup when healthy.	He remains a good Fantasy backup when healthy.	151187337	1476083954594	1476083954714	y	89
296064	3182245	He remains a good Fantasy backup when healthy.	He remains a good Fantasy backup when healthy.	151187338	1476083954848	1476083954993	.	190
296064	3182253	US ships will also lead a second task force.	Us ships will also lead a second task force.	151187470	1476083957998	1476083958364	SHIFT	16
296064	3182253	US ships will also lead a second task force.	Us ships will also lead a second task force.	151187471	1476083958261	1476083958395	U	85
296064	3182253	US ships will also lead a second task force.	Us ships will also lead a second task force.	151187474	1476083958852	1476083958966	s	83
296064	3182253	US ships will also lead a second task force.	Us ships will also lead a second task force.	151187477	1476083958967	1476083959080	 	32
296064	3182253	US ships will also lead a second task force.	Us ships will also lead a second task force.	151187483	1476083959142	1476083959516	SHIFT	16
296064	3182253	US ships will also lead a second task force.	Us ships will also lead a second task force.	151187480	1476083959371	1476083959454	S	83
296064	3182253	US ships will also lead a second task force.	Us ships will also lead a second task force.	151187486	1476083959735	1476083959821	h	72
296064	3182253	US ships will also lead a second task force.	Us ships will also lead a second task force.	151187517	1476083960308	1476083960362	BKSP	8
296064	3182253	US ships will also lead a second task force.	Us ships will also lead a second task force.	151187520	1476083960432	1476083960513	BKSP	8
296064	3182253	US ships will also lead a second task force.	Us ships will also lead a second task force.	151187523	1476083960561	1476083960675	s	83
296064	3182253	US ships will also lead a second task force.	Us ships will also lead a second task force.	151187525	1476083960675	1476083960814	h	72
296064	3182253	US ships will also lead a second task force.	Us ships will also lead a second task force.	151187528	1476083960940	1476083961126	i	73
296064	3182253	US ships will also lead a second task force.	Us ships will also lead a second task force.	151187531	1476083961115	1476083961318	p	80
296064	3182253	US ships will also lead a second task force.	Us ships will also lead a second task force.	151187532	1476083961359	1476083961472	s	83
296064	3182253	US ships will also lead a second task force.	Us ships will also lead a second task force.	151187545	1476083961514	1476083961620	 	32
296064	3182253	US ships will also lead a second task force.	Us ships will also lead a second task force.	151187546	1476083961635	1476083961723	w	87
296064	3182253	US ships will also lead a second task force.	Us ships will also lead a second task force.	151187547	1476083961694	1476083961770	i	73
296064	3182253	US ships will also lead a second task force.	Us ships will also lead a second task force.	151187548	1476083961897	1476083961954	l	76
296064	3182253	US ships will also lead a second task force.	Us ships will also lead a second task force.	151187549	1476083962041	1476083962104	l	76
296064	3182253	US ships will also lead a second task force.	Us ships will also lead a second task force.	151187557	1476083962118	1476083962253	 	32
296064	3182253	US ships will also lead a second task force.	Us ships will also lead a second task force.	151187560	1476083962284	1476083962438	a	65
296064	3182253	US ships will also lead a second task force.	Us ships will also lead a second task force.	151187561	1476083962393	1476083962516	s	83
296064	3182253	US ships will also lead a second task force.	Us ships will also lead a second task force.	151187562	1476083962549	1476083962622	l	76
296064	3182253	US ships will also lead a second task force.	Us ships will also lead a second task force.	151187563	1476083962707	1476083962832	o	79
296064	3182253	US ships will also lead a second task force.	Us ships will also lead a second task force.	151187565	1476083963083	1476083963181	 	32
296064	3182253	US ships will also lead a second task force.	Us ships will also lead a second task force.	151187567	1476083963196	1476083963311	l	76
296064	3182253	US ships will also lead a second task force.	Us ships will also lead a second task force.	151187569	1476083963295	1476083963413	e	69
296064	3182253	US ships will also lead a second task force.	Us ships will also lead a second task force.	151187573	1476083963397	1476083963554	a	65
296064	3182253	US ships will also lead a second task force.	Us ships will also lead a second task force.	151187623	1476083963532	1476083963643	d	68
296064	3182253	US ships will also lead a second task force.	Us ships will also lead a second task force.	151187626	1476083964442	1476083964507	BKSP	8
296064	3182253	US ships will also lead a second task force.	Us ships will also lead a second task force.	151187630	1476083964582	1476083964663	BKSP	8
296064	3182253	US ships will also lead a second task force.	Us ships will also lead a second task force.	151187634	1476083964763	1476083964839	BKSP	8
296064	3182253	US ships will also lead a second task force.	Us ships will also lead a second task force.	151187636	1476083964924	1476083965003	BKSP	8
296064	3182253	US ships will also lead a second task force.	Us ships will also lead a second task force.	151187638	1476083965082	1476083965184	BKSP	8
296064	3182253	US ships will also lead a second task force.	Us ships will also lead a second task force.	151187641	1476083965257	1476083965333	BKSP	8
296064	3182253	US ships will also lead a second task force.	Us ships will also lead a second task force.	151187644	1476083965429	1476083965500	BKSP	8
296064	3182253	US ships will also lead a second task force.	Us ships will also lead a second task force.	151187647	1476083965575	1476083965646	BKSP	8
296064	3182253	US ships will also lead a second task force.	Us ships will also lead a second task force.	151187649	1476083965778	1476083965901	l	76
296064	3182253	US ships will also lead a second task force.	Us ships will also lead a second task force.	151187651	1476083966222	1476083966334	s	83
296064	3182253	US ships will also lead a second task force.	Us ships will also lead a second task force.	151187652	1476083966477	1476083966609	 	32
296064	3182253	US ships will also lead a second task force.	Us ships will also lead a second task force.	151187653	1476083967018	1476083967083	BKSP	8
296064	3182253	US ships will also lead a second task force.	Us ships will also lead a second task force.	151187654	1476083967167	1476083967284	o	79
296064	3182253	US ships will also lead a second task force.	Us ships will also lead a second task force.	151187655	1476083967350	1476083967463	 	32
296064	3182253	US ships will also lead a second task force.	Us ships will also lead a second task force.	151187659	1476083967876	1476083967995	l	76
296064	3182253	US ships will also lead a second task force.	Us ships will also lead a second task force.	151187661	1476083967987	1476083968122	e	69
296064	3182253	US ships will also lead a second task force.	Us ships will also lead a second task force.	151187663	1476083968086	1476083968250	a	65
296064	3182253	US ships will also lead a second task force.	Us ships will also lead a second task force.	151187665	1476083968217	1476083968336	d	68
296064	3182253	US ships will also lead a second task force.	Us ships will also lead a second task force.	151187666	1476083968376	1476083968483	 	32
296064	3182253	US ships will also lead a second task force.	Us ships will also lead a second task force.	151187678	1476083968695	1476083968832	a	65
296064	3182253	US ships will also lead a second task force.	Us ships will also lead a second task force.	151187679	1476083968798	1476083968926	 	32
296064	3182253	US ships will also lead a second task force.	Us ships will also lead a second task force.	151187680	1476083968955	1476083969116	s	83
296064	3182253	US ships will also lead a second task force.	Us ships will also lead a second task force.	151187681	1476083969116	1476083969168	e	69
296064	3182253	US ships will also lead a second task force.	Us ships will also lead a second task force.	151187717	1476083969144	1476083969260	c	67
296064	3182253	US ships will also lead a second task force.	Us ships will also lead a second task force.	151187720	1476083969627	1476083969760	o	79
296064	3182253	US ships will also lead a second task force.	Us ships will also lead a second task force.	151187721	1476083969776	1476083969898	n	78
296064	3182253	US ships will also lead a second task force.	Us ships will also lead a second task force.	151187723	1476083970109	1476083970197	d	68
296064	3182253	US ships will also lead a second task force.	Us ships will also lead a second task force.	151187725	1476083970308	1476083970409	 	32
296064	3182253	US ships will also lead a second task force.	Us ships will also lead a second task force.	151187730	1476083970517	1476083970629	t	84
296064	3182253	US ships will also lead a second task force.	Us ships will also lead a second task force.	151187743	1476083970629	1476083970784	a	65
296064	3182253	US ships will also lead a second task force.	Us ships will also lead a second task force.	151187745	1476083970733	1476083970872	s	83
296064	3182253	US ships will also lead a second task force.	Us ships will also lead a second task force.	151187748	1476083970825	1476083970950	k	75
296064	3182253	US ships will also lead a second task force.	Us ships will also lead a second task force.	151187752	1476083971013	1476083971125	 	32
296064	3182253	US ships will also lead a second task force.	Us ships will also lead a second task force.	151187756	1476083971143	1476083971219	f	70
296064	3182253	US ships will also lead a second task force.	Us ships will also lead a second task force.	151187782	1476083971314	1476083971435	o	79
296064	3182253	US ships will also lead a second task force.	Us ships will also lead a second task force.	151187781	1476083971335	1476083971389	r	82
296064	3182253	US ships will also lead a second task force.	Us ships will also lead a second task force.	151187783	1476083972013	1476083972128	c	67
296064	3182253	US ships will also lead a second task force.	Us ships will also lead a second task force.	151187785	1476083972118	1476083972225	e	69
296064	3182253	US ships will also lead a second task force.	Us ships will also lead a second task force.	151187789	1476083972241	1476083972364	.	190
296064	3182262	The Portal User IDs and Passwords are created by you.	The Portal User IDs and Passwords are created by you.	151187902	1476083974977	1476083975360	SHIFT	16
296064	3182262	The Portal User IDs and Passwords are created by you.	The Portal User IDs and Passwords are created by you.	151187901	1476083975163	1476083975284	T	84
296064	3182262	The Portal User IDs and Passwords are created by you.	The Portal User IDs and Passwords are created by you.	151187903	1476083975483	1476083975619	h	72
296064	3182262	The Portal User IDs and Passwords are created by you.	The Portal User IDs and Passwords are created by you.	151187904	1476083975672	1476083975737	e	69
296064	3182262	The Portal User IDs and Passwords are created by you.	The Portal User IDs and Passwords are created by you.	151187905	1476083975959	1476083976048	 	32
296064	3182262	The Portal User IDs and Passwords are created by you.	The Portal User IDs and Passwords are created by you.	151187917	1476083976133	1476083976371	SHIFT	16
296064	3182262	The Portal User IDs and Passwords are created by you.	The Portal User IDs and Passwords are created by you.	151187907	1476083976213	1476083976350	P	80
296064	3182262	The Portal User IDs and Passwords are created by you.	The Portal User IDs and Passwords are created by you.	151187918	1476083976543	1476083976677	o	79
296064	3182262	The Portal User IDs and Passwords are created by you.	The Portal User IDs and Passwords are created by you.	151187919	1476083976689	1476083976759	r	82
296064	3182262	The Portal User IDs and Passwords are created by you.	The Portal User IDs and Passwords are created by you.	151187920	1476083976863	1476083976968	t	84
296064	3182262	The Portal User IDs and Passwords are created by you.	The Portal User IDs and Passwords are created by you.	151187921	1476083976983	1476083977133	a	65
296064	3182262	The Portal User IDs and Passwords are created by you.	The Portal User IDs and Passwords are created by you.	151187970	1476083977110	1476083977224	l	76
296064	3182262	The Portal User IDs and Passwords are created by you.	The Portal User IDs and Passwords are created by you.	151187972	1476083977311	1476083977428	 	32
296064	3182262	The Portal User IDs and Passwords are created by you.	The Portal User IDs and Passwords are created by you.	151187974	1476083977476	1476083977645	u	85
296064	3182262	The Portal User IDs and Passwords are created by you.	The Portal User IDs and Passwords are created by you.	151187978	1476083977583	1476083977800	SHIFT	16
296064	3182262	The Portal User IDs and Passwords are created by you.	The Portal User IDs and Passwords are created by you.	151187980	1476083977745	1476083977882	S	83
296064	3182262	The Portal User IDs and Passwords are created by you.	The Portal User IDs and Passwords are created by you.	151187982	1476083977914	1476083978061	e	69
296064	3182262	The Portal User IDs and Passwords are created by you.	The Portal User IDs and Passwords are created by you.	151187984	1476083978648	1476083978729	BKSP	8
296064	3182262	The Portal User IDs and Passwords are created by you.	The Portal User IDs and Passwords are created by you.	151187987	1476083978826	1476083978887	BKSP	8
296064	3182262	The Portal User IDs and Passwords are created by you.	The Portal User IDs and Passwords are created by you.	151187989	1476083978983	1476083979069	BKSP	8
296064	3182262	The Portal User IDs and Passwords are created by you.	The Portal User IDs and Passwords are created by you.	151187991	1476083979192	1476083979512	SHIFT	16
296064	3182262	The Portal User IDs and Passwords are created by you.	The Portal User IDs and Passwords are created by you.	151188011	1476083979683	1476083979905	SHIFT	16
296064	3182262	The Portal User IDs and Passwords are created by you.	The Portal User IDs and Passwords are created by you.	151187993	1476083979777	1476083979875	U	85
296064	3182262	The Portal User IDs and Passwords are created by you.	The Portal User IDs and Passwords are created by you.	151188012	1476083980064	1476083980227	s	83
296064	3182262	The Portal User IDs and Passwords are created by you.	The Portal User IDs and Passwords are created by you.	151188013	1476083980243	1476083980350	e	69
296064	3182262	The Portal User IDs and Passwords are created by you.	The Portal User IDs and Passwords are created by you.	151188014	1476083980626	1476083980732	r	82
296064	3182262	The Portal User IDs and Passwords are created by you.	The Portal User IDs and Passwords are created by you.	151188015	1476083980871	1476083980960	 	32
296064	3182262	The Portal User IDs and Passwords are created by you.	The Portal User IDs and Passwords are created by you.	151188051	1476083980991	1476083982009	SHIFT	16
296064	3182262	The Portal User IDs and Passwords are created by you.	The Portal User IDs and Passwords are created by you.	151188017	1476083981114	1476083981306	I	73
296064	3182262	The Portal User IDs and Passwords are created by you.	The Portal User IDs and Passwords are created by you.	151188050	1476083981398	1476083981469	D	68
296064	3182262	The Portal User IDs and Passwords are created by you.	The Portal User IDs and Passwords are created by you.	151188053	1476083982294	1476083982375	s	83
296064	3182262	The Portal User IDs and Passwords are created by you.	The Portal User IDs and Passwords are created by you.	151188055	1476083982588	1476083982700	 	32
296064	3182262	The Portal User IDs and Passwords are created by you.	The Portal User IDs and Passwords are created by you.	151188057	1476083982760	1476083982935	a	65
296064	3182262	The Portal User IDs and Passwords are created by you.	The Portal User IDs and Passwords are created by you.	151188081	1476083982833	1476083982956	n	78
296064	3182262	The Portal User IDs and Passwords are created by you.	The Portal User IDs and Passwords are created by you.	151188082	1476083982979	1476083983107	d	68
296064	3182262	The Portal User IDs and Passwords are created by you.	The Portal User IDs and Passwords are created by you.	151188083	1476083983148	1476083983220	 	32
296064	3182262	The Portal User IDs and Passwords are created by you.	The Portal User IDs and Passwords are created by you.	151188085	1476083983580	1476083983864	SHIFT	16
296064	3182262	The Portal User IDs and Passwords are created by you.	The Portal User IDs and Passwords are created by you.	151188084	1476083983744	1476083983839	P	80
296064	3182262	The Portal User IDs and Passwords are created by you.	The Portal User IDs and Passwords are created by you.	151188086	1476083983818	1476083983915	A	65
296064	3182262	The Portal User IDs and Passwords are created by you.	The Portal User IDs and Passwords are created by you.	151188087	1476083984125	1476083984183	s	83
296064	3182262	The Portal User IDs and Passwords are created by you.	The Portal User IDs and Passwords are created by you.	151188120	1476083984475	1476083984574	BKSP	8
296064	3182262	The Portal User IDs and Passwords are created by you.	The Portal User IDs and Passwords are created by you.	151188122	1476083984676	1476083984740	BKSP	8
296064	3182262	The Portal User IDs and Passwords are created by you.	The Portal User IDs and Passwords are created by you.	151188124	1476083984752	1476083984985	a	65
296064	3182262	The Portal User IDs and Passwords are created by you.	The Portal User IDs and Passwords are created by you.	151188128	1476083984951	1476083985088	s	83
296064	3182262	The Portal User IDs and Passwords are created by you.	The Portal User IDs and Passwords are created by you.	151188131	1476083985298	1476083985379	s	83
296064	3182262	The Portal User IDs and Passwords are created by you.	The Portal User IDs and Passwords are created by you.	151188134	1476083985567	1476083985681	o	79
296064	3182262	The Portal User IDs and Passwords are created by you.	The Portal User IDs and Passwords are created by you.	151188137	1476083985696	1476083985866	w	87
296064	3182262	The Portal User IDs and Passwords are created by you.	The Portal User IDs and Passwords are created by you.	151188164	1476083985837	1476083985983	r	82
296064	3182262	The Portal User IDs and Passwords are created by you.	The Portal User IDs and Passwords are created by you.	151188165	1476083986322	1476083986388	BKSP	8
296064	3182262	The Portal User IDs and Passwords are created by you.	The Portal User IDs and Passwords are created by you.	151188166	1476083986493	1476083986575	BKSP	8
296064	3182262	The Portal User IDs and Passwords are created by you.	The Portal User IDs and Passwords are created by you.	151188167	1476083986648	1476083986735	BKSP	8
296064	3182262	The Portal User IDs and Passwords are created by you.	The Portal User IDs and Passwords are created by you.	151188168	1476083986735	1476083986881	w	87
296064	3182262	The Portal User IDs and Passwords are created by you.	The Portal User IDs and Passwords are created by you.	151188169	1476083986887	1476083987020	o	79
296064	3182262	The Portal User IDs and Passwords are created by you.	The Portal User IDs and Passwords are created by you.	151188170	1476083986998	1476083987078	r	82
296064	3182262	The Portal User IDs and Passwords are created by you.	The Portal User IDs and Passwords are created by you.	151188171	1476083987214	1476083987265	d	68
296064	3182262	The Portal User IDs and Passwords are created by you.	The Portal User IDs and Passwords are created by you.	151188172	1476083987351	1476083987451	d	68
296064	3182262	The Portal User IDs and Passwords are created by you.	The Portal User IDs and Passwords are created by you.	151188195	1476083987672	1476083987764	s	83
296064	3182262	The Portal User IDs and Passwords are created by you.	The Portal User IDs and Passwords are created by you.	151188196	1476083988251	1476083988315	BKSP	8
296064	3182262	The Portal User IDs and Passwords are created by you.	The Portal User IDs and Passwords are created by you.	151188197	1476083988398	1476083988516	BKSP	8
296064	3182262	The Portal User IDs and Passwords are created by you.	The Portal User IDs and Passwords are created by you.	151188198	1476083988532	1476083988637	d	68
296064	3182262	The Portal User IDs and Passwords are created by you.	The Portal User IDs and Passwords are created by you.	151188199	1476083989041	1476083989096	BKSP	8
296064	3182262	The Portal User IDs and Passwords are created by you.	The Portal User IDs and Passwords are created by you.	151188200	1476083989131	1476083989234	s	83
296064	3182262	The Portal User IDs and Passwords are created by you.	The Portal User IDs and Passwords are created by you.	151188201	1476083989284	1476083989400	 	32
296064	3182262	The Portal User IDs and Passwords are created by you.	The Portal User IDs and Passwords are created by you.	151188217	1476083989359	1476083989514	a	65
296064	3182262	The Portal User IDs and Passwords are created by you.	The Portal User IDs and Passwords are created by you.	151188220	1476083989483	1476083989579	r	82
296064	3182262	The Portal User IDs and Passwords are created by you.	The Portal User IDs and Passwords are created by you.	151188224	1476083989682	1476083989752	e	69
296064	3182262	The Portal User IDs and Passwords are created by you.	The Portal User IDs and Passwords are created by you.	151188228	1476083989768	1476083989849	 	32
296064	3182262	The Portal User IDs and Passwords are created by you.	The Portal User IDs and Passwords are created by you.	151188229	1476083989864	1476083989983	c	67
296064	3182262	The Portal User IDs and Passwords are created by you.	The Portal User IDs and Passwords are created by you.	151188232	1476083990051	1476083990157	r	82
296064	3182262	The Portal User IDs and Passwords are created by you.	The Portal User IDs and Passwords are created by you.	151188245	1476083990453	1476083990558	e	69
296064	3182262	The Portal User IDs and Passwords are created by you.	The Portal User IDs and Passwords are created by you.	151188246	1476083990531	1476083990691	a	65
296064	3182262	The Portal User IDs and Passwords are created by you.	The Portal User IDs and Passwords are created by you.	151188248	1476083990664	1476083990775	t	84
296064	3182262	The Portal User IDs and Passwords are created by you.	The Portal User IDs and Passwords are created by you.	151188250	1476083990878	1476083990945	t	84
296064	3182262	The Portal User IDs and Passwords are created by you.	The Portal User IDs and Passwords are created by you.	151188252	1476083991060	1476083991171	e	69
296064	3182262	The Portal User IDs and Passwords are created by you.	The Portal User IDs and Passwords are created by you.	151188281	1476083991443	1476083991496	BKSP	8
296064	3182262	The Portal User IDs and Passwords are created by you.	The Portal User IDs and Passwords are created by you.	151188282	1476083991583	1476083991700	BKSP	8
296064	3182262	The Portal User IDs and Passwords are created by you.	The Portal User IDs and Passwords are created by you.	151188283	1476083991748	1476083991884	e	69
296064	3182262	The Portal User IDs and Passwords are created by you.	The Portal User IDs and Passwords are created by you.	151188284	1476083992024	1476083992146	d	68
296064	3182262	The Portal User IDs and Passwords are created by you.	The Portal User IDs and Passwords are created by you.	151188285	1476083992360	1476083992470	 	32
296064	3182262	The Portal User IDs and Passwords are created by you.	The Portal User IDs and Passwords are created by you.	151188287	1476083992501	1476083992591	b	66
296064	3182262	The Portal User IDs and Passwords are created by you.	The Portal User IDs and Passwords are created by you.	151188289	1476083992676	1476083992786	y	89
296064	3182262	The Portal User IDs and Passwords are created by you.	The Portal User IDs and Passwords are created by you.	151188317	1476083992875	1476083992981	 	32
296064	3182262	The Portal User IDs and Passwords are created by you.	The Portal User IDs and Passwords are created by you.	151188319	1476083993092	1476083993196	y	89
296064	3182262	The Portal User IDs and Passwords are created by you.	The Portal User IDs and Passwords are created by you.	151188321	1476083993209	1476083993353	o	79
296064	3182262	The Portal User IDs and Passwords are created by you.	The Portal User IDs and Passwords are created by you.	151188323	1476083993333	1476083993494	u	85
296064	3182262	The Portal User IDs and Passwords are created by you.	The Portal User IDs and Passwords are created by you.	151188325	1476083993664	1476083993767	.	190
296064	3182274	Look for him to throw for over 200 yards and a score.	Look for him to throw for over 200 yards and a score.	151188425	1476083996864	1476083997034	SHIFT	16
296064	3182274	Look for him to throw for over 200 yards and a score.	Look for him to throw for over 200 yards and a score.	151188423	1476083996911	1476083997005	L	76
296064	3182274	Look for him to throw for over 200 yards and a score.	Look for him to throw for over 200 yards and a score.	151188427	1476083997091	1476083997171	o	79
296064	3182274	Look for him to throw for over 200 yards and a score.	Look for him to throw for over 200 yards and a score.	151188429	1476083997214	1476083997358	o	79
296064	3182274	Look for him to throw for over 200 yards and a score.	Look for him to throw for over 200 yards and a score.	151188432	1476083997331	1476083997441	k	75
296064	3182274	Look for him to throw for over 200 yards and a score.	Look for him to throw for over 200 yards and a score.	151188435	1476083997513	1476083997636	 	32
296064	3182274	Look for him to throw for over 200 yards and a score.	Look for him to throw for over 200 yards and a score.	151188456	1476083997649	1476083997777	f	70
296064	3182274	Look for him to throw for over 200 yards and a score.	Look for him to throw for over 200 yards and a score.	151188459	1476083998095	1476083998236	o	79
296064	3182274	Look for him to throw for over 200 yards and a score.	Look for him to throw for over 200 yards and a score.	151188462	1476083998282	1476083998388	r	82
296064	3182274	Look for him to throw for over 200 yards and a score.	Look for him to throw for over 200 yards and a score.	151188463	1476083998491	1476083998614	 	32
296064	3182274	Look for him to throw for over 200 yards and a score.	Look for him to throw for over 200 yards and a score.	151188465	1476083998735	1476083998822	h	72
296064	3182274	Look for him to throw for over 200 yards and a score.	Look for him to throw for over 200 yards and a score.	151188480	1476083998778	1476083998957	i	73
296064	3182274	Look for him to throw for over 200 yards and a score.	Look for him to throw for over 200 yards and a score.	151188482	1476083999004	1476083999161	m	77
296064	3182274	Look for him to throw for over 200 yards and a score.	Look for him to throw for over 200 yards and a score.	151188485	1476083999150	1476083999280	 	32
296064	3182274	Look for him to throw for over 200 yards and a score.	Look for him to throw for over 200 yards and a score.	151188486	1476083999295	1476083999394	t	84
296064	3182274	Look for him to throw for over 200 yards and a score.	Look for him to throw for over 200 yards and a score.	151188488	1476083999378	1476083999512	o	79
296064	3182274	Look for him to throw for over 200 yards and a score.	Look for him to throw for over 200 yards and a score.	151188508	1476083999493	1476083999567	 	32
296064	3182274	Look for him to throw for over 200 yards and a score.	Look for him to throw for over 200 yards and a score.	151188510	1476083999583	1476083999684	t	84
296064	3182274	Look for him to throw for over 200 yards and a score.	Look for him to throw for over 200 yards and a score.	151188511	1476083999715	1476083999807	h	72
296064	3182274	Look for him to throw for over 200 yards and a score.	Look for him to throw for over 200 yards and a score.	151188512	1476083999859	1476083999999	r	82
296064	3182274	Look for him to throw for over 200 yards and a score.	Look for him to throw for over 200 yards and a score.	151188513	1476084000046	1476084000209	i	73
296064	3182274	Look for him to throw for over 200 yards and a score.	Look for him to throw for over 200 yards and a score.	151188514	1476084000241	1476084000365	w	87
296064	3182274	Look for him to throw for over 200 yards and a score.	Look for him to throw for over 200 yards and a score.	151188544	1476084000616	1476084000682	BKSP	8
296064	3182274	Look for him to throw for over 200 yards and a score.	Look for him to throw for over 200 yards and a score.	151188546	1476084000762	1476084000834	BKSP	8
296064	3182274	Look for him to throw for over 200 yards and a score.	Look for him to throw for over 200 yards and a score.	151188548	1476084000879	1476084000985	o	79
296064	3182274	Look for him to throw for over 200 yards and a score.	Look for him to throw for over 200 yards and a score.	151188550	1476084000919	1476084001017	w	87
296064	3182274	Look for him to throw for over 200 yards and a score.	Look for him to throw for over 200 yards and a score.	151188552	1476084001079	1476084001181	 	32
296064	3182274	Look for him to throw for over 200 yards and a score.	Look for him to throw for over 200 yards and a score.	151188554	1476084001234	1476084001318	f	70
296064	3182274	Look for him to throw for over 200 yards and a score.	Look for him to throw for over 200 yards and a score.	151188557	1476084001318	1476084001446	o	79
296064	3182274	Look for him to throw for over 200 yards and a score.	Look for him to throw for over 200 yards and a score.	151188567	1476084001446	1476084001561	r	82
296064	3182274	Look for him to throw for over 200 yards and a score.	Look for him to throw for over 200 yards and a score.	151188568	1476084001595	1476084001698	 	32
296064	3182274	Look for him to throw for over 200 yards and a score.	Look for him to throw for over 200 yards and a score.	151188570	1476084001795	1476084001931	o	79
296064	3182274	Look for him to throw for over 200 yards and a score.	Look for him to throw for over 200 yards and a score.	151188572	1476084001949	1476084002076	v	86
296064	3182274	Look for him to throw for over 200 yards and a score.	Look for him to throw for over 200 yards and a score.	151188598	1476084002049	1476084002152	e	69
296064	3182274	Look for him to throw for over 200 yards and a score.	Look for him to throw for over 200 yards and a score.	151188602	1476084002252	1476084002327	r	82
296064	3182274	Look for him to throw for over 200 yards and a score.	Look for him to throw for over 200 yards and a score.	151188606	1476084002368	1476084002465	 	32
296064	3182274	Look for him to throw for over 200 yards and a score.	Look for him to throw for over 200 yards and a score.	151188608	1476084002481	1476084002569	2	50
296064	3182274	Look for him to throw for over 200 yards and a score.	Look for him to throw for over 200 yards and a score.	151188610	1476084002659	1476084002716	2	50
296064	3182274	Look for him to throw for over 200 yards and a score.	Look for him to throw for over 200 yards and a score.	151188611	1476084003224	1476084003321	BKSP	8
296064	3182274	Look for him to throw for over 200 yards and a score.	Look for him to throw for over 200 yards and a score.	151188614	1476084003359	1476084003469	0	48
296064	3182274	Look for him to throw for over 200 yards and a score.	Look for him to throw for over 200 yards and a score.	151188630	1476084003531	1476084003632	0	48
296064	3182274	Look for him to throw for over 200 yards and a score.	Look for him to throw for over 200 yards and a score.	151188631	1476084003741	1476084003832	 	32
296064	3182274	Look for him to throw for over 200 yards and a score.	Look for him to throw for over 200 yards and a score.	151188632	1476084004373	1476084004515	y	89
296064	3182274	Look for him to throw for over 200 yards and a score.	Look for him to throw for over 200 yards and a score.	151188634	1476084004791	1476084004924	a	65
296064	3182274	Look for him to throw for over 200 yards and a score.	Look for him to throw for over 200 yards and a score.	151188645	1476084004880	1476084005000	r	82
296064	3182274	Look for him to throw for over 200 yards and a score.	Look for him to throw for over 200 yards and a score.	151188647	1476084005168	1476084005233	s	83
296064	3182274	Look for him to throw for over 200 yards and a score.	Look for him to throw for over 200 yards and a score.	151188649	1476084005598	1476084005671	BKSP	8
296064	3182274	Look for him to throw for over 200 yards and a score.	Look for him to throw for over 200 yards and a score.	151188651	1476084005652	1476084005779	d	68
296064	3182274	Look for him to throw for over 200 yards and a score.	Look for him to throw for over 200 yards and a score.	151188653	1476084005735	1476084005863	s	83
296064	3182274	Look for him to throw for over 200 yards and a score.	Look for him to throw for over 200 yards and a score.	151188655	1476084005936	1476084006045	 	32
296064	3182274	Look for him to throw for over 200 yards and a score.	Look for him to throw for over 200 yards and a score.	151188672	1476084006027	1476084006183	a	65
296064	3182274	Look for him to throw for over 200 yards and a score.	Look for him to throw for over 200 yards and a score.	151188673	1476084006153	1476084006234	n	78
296064	3182274	Look for him to throw for over 200 yards and a score.	Look for him to throw for over 200 yards and a score.	151188674	1476084006314	1476084006386	d	68
296064	3182274	Look for him to throw for over 200 yards and a score.	Look for him to throw for over 200 yards and a score.	151188675	1476084006774	1476084006875	 	32
296064	3182274	Look for him to throw for over 200 yards and a score.	Look for him to throw for over 200 yards and a score.	151188676	1476084006919	1476084007047	a	65
296064	3182274	Look for him to throw for over 200 yards and a score.	Look for him to throw for over 200 yards and a score.	151188677	1476084007047	1476084007165	 	32
296064	3182274	Look for him to throw for over 200 yards and a score.	Look for him to throw for over 200 yards and a score.	151188700	1476084007170	1476084007251	c	67
296064	3182274	Look for him to throw for over 200 yards and a score.	Look for him to throw for over 200 yards and a score.	151188702	1476084007648	1476084007828	s	83
296064	3182274	Look for him to throw for over 200 yards and a score.	Look for him to throw for over 200 yards and a score.	151188705	1476084007767	1476084007841	c	67
296064	3182274	Look for him to throw for over 200 yards and a score.	Look for him to throw for over 200 yards and a score.	151188708	1476084008015	1476084008086	BKSP	8
296064	3182274	Look for him to throw for over 200 yards and a score.	Look for him to throw for over 200 yards and a score.	151188710	1476084008180	1476084008250	BKSP	8
296064	3182274	Look for him to throw for over 200 yards and a score.	Look for him to throw for over 200 yards and a score.	151188714	1476084008332	1476084008413	BKSP	8
296064	3182274	Look for him to throw for over 200 yards and a score.	Look for him to throw for over 200 yards and a score.	151188718	1476084008385	1476084008564	s	83
296064	3182274	Look for him to throw for over 200 yards and a score.	Look for him to throw for over 200 yards and a score.	151188749	1476084008521	1476084008625	c	67
296064	3182274	Look for him to throw for over 200 yards and a score.	Look for him to throw for over 200 yards and a score.	151188751	1476084008625	1476084008703	r	82
296064	3182274	Look for him to throw for over 200 yards and a score.	Look for him to throw for over 200 yards and a score.	151188752	1476084008928	1476084008980	o	79
296064	3182274	Look for him to throw for over 200 yards and a score.	Look for him to throw for over 200 yards and a score.	151188753	1476084009153	1476084009210	BKSP	8
296064	3182274	Look for him to throw for over 200 yards and a score.	Look for him to throw for over 200 yards and a score.	151188754	1476084009275	1476084009367	BKSP	8
296064	3182274	Look for him to throw for over 200 yards and a score.	Look for him to throw for over 200 yards and a score.	151188755	1476084009407	1476084009477	o	79
296064	3182274	Look for him to throw for over 200 yards and a score.	Look for him to throw for over 200 yards and a score.	151188756	1476084009452	1476084009578	r	82
296064	3182274	Look for him to throw for over 200 yards and a score.	Look for him to throw for over 200 yards and a score.	151188776	1476084009570	1476084009716	e	69
296064	3182274	Look for him to throw for over 200 yards and a score.	Look for him to throw for over 200 yards and a score.	151188778	1476084010077	1476084010195	.	190
296064	3182281	I'm still in Dallas!	I'm still in Dallas!	151188878	1476084012869	1476084013099	SHIFT	16
296064	3182281	I'm still in Dallas!	I'm still in Dallas!	151188879	1476084012916	1476084013106	I	73
296064	3182281	I'm still in Dallas!	I'm still in Dallas!	151188880	1476084013076	1476084013191	M	77
296064	3182281	I'm still in Dallas!	I'm still in Dallas!	151188881	1476084013526	1476084013594	BKSP	8
296064	3182281	I'm still in Dallas!	I'm still in Dallas!	151188882	1476084013679	1476084013782	;	186
296064	3182281	I'm still in Dallas!	I'm still in Dallas!	151188883	1476084014145	1476084014211	m	77
296064	3182281	I'm still in Dallas!	I'm still in Dallas!	151188884	1476084014379	1476084014437	BKSP	8
296064	3182281	I'm still in Dallas!	I'm still in Dallas!	151188885	1476084014514	1476084014624	BKSP	8
296064	3182281	I'm still in Dallas!	I'm still in Dallas!	151188914	1476084014601	1476084014732	'	222
296064	3182281	I'm still in Dallas!	I'm still in Dallas!	151188915	1476084014878	1476084014982	m	77
296064	3182281	I'm still in Dallas!	I'm still in Dallas!	151188916	1476084015119	1476084015214	 	32
296064	3182281	I'm still in Dallas!	I'm still in Dallas!	151188917	1476084015443	1476084015532	t	84
296064	3182281	I'm still in Dallas!	I'm still in Dallas!	151188918	1476084015800	1476084015899	BKSP	8
296064	3182281	I'm still in Dallas!	I'm still in Dallas!	151188919	1476084015877	1476084016007	s	83
296064	3182281	I'm still in Dallas!	I'm still in Dallas!	151188929	1476084015960	1476084016094	t	84
296064	3182281	I'm still in Dallas!	I'm still in Dallas!	151188931	1476084016036	1476084016134	i	73
296064	3182281	I'm still in Dallas!	I'm still in Dallas!	151188934	1476084016243	1476084016318	l	76
296064	3182281	I'm still in Dallas!	I'm still in Dallas!	151188936	1476084016383	1476084016468	l	76
296064	3182281	I'm still in Dallas!	I'm still in Dallas!	151188939	1476084016606	1476084016687	 	32
296064	3182281	I'm still in Dallas!	I'm still in Dallas!	151188943	1476084016734	1476084016879	i	73
296064	3182281	I'm still in Dallas!	I'm still in Dallas!	151188962	1476084016818	1476084016945	n	78
296064	3182281	I'm still in Dallas!	I'm still in Dallas!	151188966	1476084017025	1476084017160	d	68
296064	3182281	I'm still in Dallas!	I'm still in Dallas!	151188972	1476084017127	1476084017227	a	65
296064	3182281	I'm still in Dallas!	I'm still in Dallas!	151188976	1476084017348	1476084017403	BKSP	8
296064	3182281	I'm still in Dallas!	I'm still in Dallas!	151188979	1476084017491	1476084017595	BKSP	8
296064	3182281	I'm still in Dallas!	I'm still in Dallas!	151188983	1476084017783	1476084017884	 	32
296064	3182281	I'm still in Dallas!	I'm still in Dallas!	151188986	1476084017801	1476084017973	SHIFT	16
296064	3182281	I'm still in Dallas!	I'm still in Dallas!	151188988	1476084017899	1476084018035	D	68
296064	3182281	I'm still in Dallas!	I'm still in Dallas!	151188990	1476084018107	1476084018211	a	65
296064	3182281	I'm still in Dallas!	I'm still in Dallas!	151188992	1476084018482	1476084018561	l	76
296064	3182281	I'm still in Dallas!	I'm still in Dallas!	151188993	1476084018639	1476084018764	l	76
296064	3182281	I'm still in Dallas!	I'm still in Dallas!	151188994	1476084018756	1476084018901	a	65
296064	3182281	I'm still in Dallas!	I'm still in Dallas!	151188995	1476084018834	1476084018979	s	83
296064	3182281	I'm still in Dallas!	I'm still in Dallas!	151188996	1476084019098	1476084019231	.	190
296064	3182281	I'm still in Dallas!	I'm still in Dallas!	151188997	1476084019475	1476084019583	BKSP	8
296064	3182281	I'm still in Dallas!	I'm still in Dallas!	151188999	1476084019644	1476084019784	!	49
296064	3182285	Please let me know if you need any additional information.	Please let me know if you need any addtional information	151189084	1476084022446	1476084022574	r	82
296064	3182285	Please let me know if you need any additional information.	Please let me know if you need any addtional information	151189085	1476084022897	1476084022960	BKSP	8
296064	3182285	Please let me know if you need any additional information.	Please let me know if you need any addtional information	151189089	1476084023367	1476084023636	SHIFT	16
296064	3182285	Please let me know if you need any additional information.	Please let me know if you need any addtional information	151189087	1476084023461	1476084023537	BKSP	8
296064	3182285	Please let me know if you need any additional information.	Please let me know if you need any addtional information	151189088	1476084023485	1476084023622	P	80
296064	3182285	Please let me know if you need any additional information.	Please let me know if you need any addtional information	151189090	1476084023783	1476084023991	l	76
296064	3182285	Please let me know if you need any additional information.	Please let me know if you need any addtional information	151189091	1476084024066	1476084024211	e	69
296064	3182285	Please let me know if you need any additional information.	Please let me know if you need any addtional information	151189092	1476084024448	1476084024594	a	65
296064	3182285	Please let me know if you need any additional information.	Please let me know if you need any addtional information	151189112	1476084024527	1476084024666	s	83
296064	3182285	Please let me know if you need any additional information.	Please let me know if you need any addtional information	151189113	1476084024783	1476084024883	s	83
296064	3182285	Please let me know if you need any additional information.	Please let me know if you need any addtional information	151189114	1476084025367	1476084025435	BKSP	8
296064	3182285	Please let me know if you need any additional information.	Please let me know if you need any addtional information	151189115	1476084025450	1476084025580	e	69
296064	3182285	Please let me know if you need any additional information.	Please let me know if you need any addtional information	151189116	1476084025686	1476084025753	 	32
296064	3182285	Please let me know if you need any additional information.	Please let me know if you need any addtional information	151189117	1476084025818	1476084025933	l	76
296064	3182285	Please let me know if you need any additional information.	Please let me know if you need any addtional information	151189118	1476084025948	1476084026040	e	69
296064	3182285	Please let me know if you need any additional information.	Please let me know if you need any addtional information	151189129	1476084026152	1476084026211	t	84
296064	3182285	Please let me know if you need any additional information.	Please let me know if you need any addtional information	151189130	1476084026368	1476084026446	 	32
296064	3182285	Please let me know if you need any additional information.	Please let me know if you need any addtional information	151189131	1476084026548	1476084026665	m	77
296064	3182285	Please let me know if you need any additional information.	Please let me know if you need any addtional information	151189132	1476084026665	1476084026771	e	69
296064	3182285	Please let me know if you need any additional information.	Please let me know if you need any addtional information	151189133	1476084026786	1476084026836	 	32
296064	3182285	Please let me know if you need any additional information.	Please let me know if you need any addtional information	151189134	1476084026898	1476084026999	k	75
296064	3182285	Please let me know if you need any additional information.	Please let me know if you need any addtional information	151189135	1476084026999	1476084027148	n	78
296064	3182285	Please let me know if you need any additional information.	Please let me know if you need any addtional information	151189136	1476084027097	1476084027217	o	79
296064	3182285	Please let me know if you need any additional information.	Please let me know if you need any addtional information	151189137	1476084027217	1476084027353	w	87
296064	3182285	Please let me know if you need any additional information.	Please let me know if you need any addtional information	151189153	1476084027314	1476084027434	 	32
296064	3182285	Please let me know if you need any additional information.	Please let me know if you need any addtional information	151189155	1476084027441	1476084027549	i	73
296064	3182285	Please let me know if you need any additional information.	Please let me know if you need any addtional information	151189157	1476084027527	1476084027609	f	70
296064	3182285	Please let me know if you need any additional information.	Please let me know if you need any addtional information	151189160	1476084027679	1476084027774	 	32
296064	3182285	Please let me know if you need any additional information.	Please let me know if you need any addtional information	151189162	1476084027844	1476084027919	y	89
296064	3182285	Please let me know if you need any additional information.	Please let me know if you need any addtional information	151189166	1476084028029	1476084028179	u	85
296064	3182285	Please let me know if you need any additional information.	Please let me know if you need any addtional information	151189183	1476084028207	1476084028278	 	32
296064	3182285	Please let me know if you need any additional information.	Please let me know if you need any addtional information	151189184	1476084028591	1476084028653	BKSP	8
296064	3182285	Please let me know if you need any additional information.	Please let me know if you need any addtional information	151189185	1476084028702	1476084028794	BKSP	8
296064	3182285	Please let me know if you need any additional information.	Please let me know if you need any addtional information	151189186	1476084028817	1476084028915	p	79
296064	3182285	Please let me know if you need any additional information.	Please let me know if you need any addtional information	151189187	1476084029260	1476084029353	BKSP	8
296064	3182285	Please let me know if you need any additional information.	Please let me know if you need any addtional information	151189188	1476084029502	1476084029605	u	85
296064	3182285	Please let me know if you need any additional information.	Please let me know if you need any addtional information	151189189	1476084029764	1476084029922	 	32
296064	3182285	Please let me know if you need any additional information.	Please let me know if you need any addtional information	151189201	1476084029935	1476084030037	h	72
296064	3182285	Please let me know if you need any additional information.	Please let me know if you need any addtional information	151189203	1476084030002	1476084030189	a	65
296064	3182285	Please let me know if you need any additional information.	Please let me know if you need any addtional information	151189206	1476084030145	1476084030256	v	86
296064	3182285	Please let me know if you need any additional information.	Please let me know if you need any addtional information	151189209	1476084030660	1476084030735	BKSP	8
296064	3182285	Please let me know if you need any additional information.	Please let me know if you need any addtional information	151189212	1476084030815	1476084030885	BKSP	8
296064	3182285	Please let me know if you need any additional information.	Please let me know if you need any addtional information	151189215	1476084030978	1476084031027	BKSP	8
296064	3182285	Please let me know if you need any additional information.	Please let me know if you need any addtional information	151189217	1476084031180	1476084031236	b	66
296064	3182285	Please let me know if you need any additional information.	Please let me know if you need any addtional information	151189218	1476084031311	1476084031385	e	69
296064	3182285	Please let me know if you need any additional information.	Please let me know if you need any addtional information	151189232	1476084031463	1476084031575	e	69
296064	3182285	Please let me know if you need any additional information.	Please let me know if you need any addtional information	151189235	1476084031766	1476084031839	BKSP	8
296064	3182285	Please let me know if you need any additional information.	Please let me know if you need any addtional information	151189238	1476084031906	1476084031987	BKSP	8
296064	3182285	Please let me know if you need any additional information.	Please let me know if you need any addtional information	151189242	1476084032050	1476084032102	BKSP	8
296064	3182285	Please let me know if you need any additional information.	Please let me know if you need any addtional information	151189245	1476084032183	1476084032297	n	78
296064	3182285	Please let me know if you need any additional information.	Please let me know if you need any addtional information	151189249	1476084032317	1476084032398	e	69
296064	3182285	Please let me know if you need any additional information.	Please let me know if you need any addtional information	151189253	1476084032467	1476084032564	e	69
296064	3182285	Please let me know if you need any additional information.	Please let me know if you need any addtional information	151189258	1476084032810	1476084032877	d	68
296064	3182285	Please let me know if you need any additional information.	Please let me know if you need any addtional information	151189270	1476084032935	1476084033034	 	32
296064	3182285	Please let me know if you need any additional information.	Please let me know if you need any addtional information	151189272	1476084033026	1476084033154	a	65
296064	3182285	Please let me know if you need any additional information.	Please let me know if you need any addtional information	151189275	1476084033159	1476084033264	n	78
296064	3182285	Please let me know if you need any additional information.	Please let me know if you need any addtional information	151189277	1476084033264	1476084033351	y	89
296064	3182285	Please let me know if you need any additional information.	Please let me know if you need any addtional information	151189279	1476084033397	1476084033475	 	32
296064	3182285	Please let me know if you need any additional information.	Please let me know if you need any addtional information	151189321	1476084033676	1476084033816	a	65
296064	3182285	Please let me know if you need any additional information.	Please let me know if you need any addtional information	151189323	1476084033867	1476084033907	d	68
296064	3182285	Please let me know if you need any additional information.	Please let me know if you need any addtional information	151189325	1476084033981	1476084034089	d	68
296064	3182285	Please let me know if you need any additional information.	Please let me know if you need any addtional information	151189327	1476084034376	1476084034477	t	84
296064	3182285	Please let me know if you need any additional information.	Please let me know if you need any addtional information	151189328	1476084034510	1476084034711	i	73
296064	3182285	Please let me know if you need any additional information.	Please let me know if you need any addtional information	151189344	1476084035045	1476084035266	o	79
296064	3182285	Please let me know if you need any additional information.	Please let me know if you need any addtional information	151189346	1476084035266	1476084035379	n	78
296064	3182285	Please let me know if you need any additional information.	Please let me know if you need any addtional information	151189348	1476084035395	1476084035525	a	65
296064	3182285	Please let me know if you need any additional information.	Please let me know if you need any addtional information	151189350	1476084035498	1476084035592	l	76
296064	3182285	Please let me know if you need any additional information.	Please let me know if you need any addtional information	151189352	1476084035665	1476084035760	 	32
296064	3182285	Please let me know if you need any additional information.	Please let me know if you need any addtional information	151189384	1476084035906	1476084036093	i	73
296064	3182285	Please let me know if you need any additional information.	Please let me know if you need any addtional information	151189387	1476084036014	1476084036160	n	78
296064	3182285	Please let me know if you need any additional information.	Please let me know if you need any addtional information	151189388	1476084036183	1476084036275	f	70
296064	3182285	Please let me know if you need any additional information.	Please let me know if you need any addtional information	151189389	1476084036464	1476084036583	o	79
296064	3182285	Please let me know if you need any additional information.	Please let me know if you need any addtional information	151189391	1476084036876	1476084036976	r	82
296064	3182285	Please let me know if you need any additional information.	Please let me know if you need any addtional information	151189406	1476084037099	1476084037212	m	77
296064	3182285	Please let me know if you need any additional information.	Please let me know if you need any addtional information	151189407	1476084037495	1476084037647	a	65
296064	3182285	Please let me know if you need any additional information.	Please let me know if you need any addtional information	151189408	1476084037691	1476084037798	t	84
296064	3182285	Please let me know if you need any additional information.	Please let me know if you need any addtional information	151189409	1476084037798	1476084037953	i	73
296064	3182285	Please let me know if you need any additional information.	Please let me know if you need any addtional information	151189421	1476084037899	1476084038087	o	79
296064	3182285	Please let me know if you need any additional information.	Please let me know if you need any addtional information	151189422	1476084038066	1476084038187	n	78
296064	3182291	There are some different rules here.	There are some different rules here.	151189495	1476084041314	1476084041679	SHIFT	16
296064	3182291	There are some different rules here.	There are some different rules here.	151189493	1476084041562	1476084041648	R	82
296064	3182291	There are some different rules here.	There are some different rules here.	151189497	1476084042160	1476084042228	BKSP	8
296064	3182291	There are some different rules here.	There are some different rules here.	151189504	1476084042243	1476084043763	SHIFT	16
296064	3182291	There are some different rules here.	There are some different rules here.	151189499	1476084043067	1476084043166	Y	89
296064	3182291	There are some different rules here.	There are some different rules here.	151189501	1476084043398	1476084043452	BKSP	8
296064	3182291	There are some different rules here.	There are some different rules here.	151189503	1476084043595	1476084043683	T	84
296064	3182291	There are some different rules here.	There are some different rules here.	151189506	1476084043891	1476084043962	h	72
296064	3182291	There are some different rules here.	There are some different rules here.	151189508	1476084044172	1476084044291	e	69
296064	3182291	There are some different rules here.	There are some different rules here.	151189513	1476084044384	1476084044451	r	82
296064	3182291	There are some different rules here.	There are some different rules here.	151189514	1476084044544	1476084044661	e	69
296064	3182291	There are some different rules here.	There are some different rules here.	151189515	1476084044763	1476084044878	 	32
296064	3182291	There are some different rules here.	There are some different rules here.	151189516	1476084044833	1476084044985	a	65
296064	3182291	There are some different rules here.	There are some different rules here.	151189528	1476084044956	1476084045066	r	82
296064	3182291	There are some different rules here.	There are some different rules here.	151189531	1476084045149	1476084045242	e	69
296064	3182291	There are some different rules here.	There are some different rules here.	151189533	1476084045272	1476084045391	 	32
296064	3182291	There are some different rules here.	There are some different rules here.	151189536	1476084045391	1476084045509	s	83
296064	3182291	There are some different rules here.	There are some different rules here.	151189538	1476084045460	1476084045648	o	79
296064	3182291	There are some different rules here.	There are some different rules here.	151189558	1476084045574	1476084045723	m	77
296064	3182291	There are some different rules here.	There are some different rules here.	151189560	1476084045693	1476084045815	e	69
296064	3182291	There are some different rules here.	There are some different rules here.	151189561	1476084045848	1476084045946	 	32
296064	3182291	There are some different rules here.	There are some different rules here.	151189562	1476084046164	1476084046296	i	73
296064	3182291	There are some different rules here.	There are some different rules here.	151189563	1476084046545	1476084046625	BKSP	8
296064	3182291	There are some different rules here.	There are some different rules here.	151189564	1476084046679	1476084046794	d	68
296064	3182291	There are some different rules here.	There are some different rules here.	151189581	1476084046776	1476084046929	i	73
296064	3182291	There are some different rules here.	There are some different rules here.	151189583	1476084046976	1476084047072	f	70
296064	3182291	There are some different rules here.	There are some different rules here.	151189584	1476084047143	1476084047229	f	70
296064	3182291	There are some different rules here.	There are some different rules here.	151189586	1476084047342	1476084047460	e	69
296064	3182291	There are some different rules here.	There are some different rules here.	151189589	1476084047598	1476084047668	r	82
296064	3182291	There are some different rules here.	There are some different rules here.	151189592	1476084047799	1476084047915	n	78
296064	3182291	There are some different rules here.	There are some different rules here.	151189612	1476084048171	1476084048265	e	69
296064	3182291	There are some different rules here.	There are some different rules here.	151189613	1476084048393	1476084048463	BKSP	8
296064	3182291	There are some different rules here.	There are some different rules here.	151189614	1476084048541	1476084048632	BKSP	8
296064	3182291	There are some different rules here.	There are some different rules here.	151189615	1476084048649	1476084048779	e	69
296064	3182291	There are some different rules here.	There are some different rules here.	151189616	1476084048771	1476084048892	n	78
296064	3182291	There are some different rules here.	There are some different rules here.	151189617	1476084049133	1476084049247	t	84
296064	3182291	There are some different rules here.	There are some different rules here.	151189618	1476084049333	1476084049441	 	32
296064	3182291	There are some different rules here.	There are some different rules here.	151189630	1476084049576	1476084049712	r	82
296064	3182291	There are some different rules here.	There are some different rules here.	151189632	1476084049682	1476084049782	u	85
296064	3182291	There are some different rules here.	There are some different rules here.	151189633	1476084049907	1476084049998	l	76
296064	3182291	There are some different rules here.	There are some different rules here.	151189634	1476084050014	1476084050164	e	69
296064	3182291	There are some different rules here.	There are some different rules here.	151189654	1476084050109	1476084050242	s	83
296064	3182291	There are some different rules here.	There are some different rules here.	151189657	1476084050260	1476084050348	 	32
296064	3182291	There are some different rules here.	There are some different rules here.	151189659	1476084050445	1476084050536	h	72
296064	3182291	There are some different rules here.	There are some different rules here.	151189663	1476084050494	1476084050609	e	69
296064	3182291	There are some different rules here.	There are some different rules here.	151189667	1476084050668	1476084050764	r	82
296064	3182291	There are some different rules here.	There are some different rules here.	151189670	1476084050827	1476084050936	e	69
296064	3182291	There are some different rules here.	There are some different rules here.	151189695	1476084050991	1476084051130	/	191
296064	3182291	There are some different rules here.	There are some different rules here.	151189697	1476084051511	1476084051597	BKSP	8
296064	3182291	There are some different rules here.	There are some different rules here.	151189699	1476084051690	1476084051787	.	190
296064	3182301	I'll presume it is dead until I hear otherwise.	I'll presume it is dead until I hear otherewise.	151189822	1476084054460	1476084054759	SHIFT	16
296064	3182301	I'll presume it is dead until I hear otherwise.	I'll presume it is dead until I hear otherewise.	151189819	1476084054548	1476084054663	I	73
296064	3182301	I'll presume it is dead until I hear otherwise.	I'll presume it is dead until I hear otherewise.	151189825	1476084055422	1476084055598	;	186
296064	3182301	I'll presume it is dead until I hear otherwise.	I'll presume it is dead until I hear otherewise.	151189832	1476084055833	1476084055971	BKSP	8
296064	3182301	I'll presume it is dead until I hear otherwise.	I'll presume it is dead until I hear otherewise.	151189835	1476084055935	1476084056096	'	222
296064	3182301	I'll presume it is dead until I hear otherwise.	I'll presume it is dead until I hear otherewise.	151189838	1476084056151	1476084056225	s	83
296064	3182301	I'll presume it is dead until I hear otherwise.	I'll presume it is dead until I hear otherewise.	151189840	1476084056609	1476084056714	BKSP	8
296064	3182301	I'll presume it is dead until I hear otherwise.	I'll presume it is dead until I hear otherewise.	151189841	1476084056776	1476084056904	;	186
296064	3182301	I'll presume it is dead until I hear otherwise.	I'll presume it is dead until I hear otherewise.	151189853	1476084057050	1476084057164	;	186
296064	3182301	I'll presume it is dead until I hear otherwise.	I'll presume it is dead until I hear otherewise.	151189854	1476084057291	1476084057381	BKSP	8
296064	3182301	I'll presume it is dead until I hear otherwise.	I'll presume it is dead until I hear otherewise.	151189858	1476084057445	1476084057528	l	76
296064	3182301	I'll presume it is dead until I hear otherwise.	I'll presume it is dead until I hear otherewise.	151189856	1476084057460	1476084057498	BKSP	8
296064	3182301	I'll presume it is dead until I hear otherwise.	I'll presume it is dead until I hear otherewise.	151189860	1476084057591	1476084057682	l	76
296064	3182301	I'll presume it is dead until I hear otherwise.	I'll presume it is dead until I hear otherewise.	151189862	1476084058006	1476084058067	BKSP	8
296064	3182301	I'll presume it is dead until I hear otherwise.	I'll presume it is dead until I hear otherewise.	151189864	1476084058161	1476084058253	BKSP	8
296064	3182301	I'll presume it is dead until I hear otherwise.	I'll presume it is dead until I hear otherewise.	151189865	1476084058359	1476084058433	l	76
296064	3182301	I'll presume it is dead until I hear otherwise.	I'll presume it is dead until I hear otherewise.	151189866	1476084058495	1476084058604	l	76
296064	3182301	I'll presume it is dead until I hear otherwise.	I'll presume it is dead until I hear otherewise.	151189897	1476084058749	1476084058818	 	32
296064	3182301	I'll presume it is dead until I hear otherwise.	I'll presume it is dead until I hear otherewise.	151189899	1476084059006	1476084059098	r	82
296064	3182301	I'll presume it is dead until I hear otherwise.	I'll presume it is dead until I hear otherewise.	151189902	1476084059375	1476084059482	BKSP	8
296064	3182301	I'll presume it is dead until I hear otherwise.	I'll presume it is dead until I hear otherewise.	151189906	1476084059782	1476084059914	p	80
296064	3182301	I'll presume it is dead until I hear otherwise.	I'll presume it is dead until I hear otherewise.	151189910	1476084060113	1476084060210	r	82
296064	3182301	I'll presume it is dead until I hear otherwise.	I'll presume it is dead until I hear otherewise.	151189913	1476084060335	1476084060426	e	69
296064	3182301	I'll presume it is dead until I hear otherwise.	I'll presume it is dead until I hear otherewise.	151189934	1476084060557	1476084060663	s	83
296064	3182301	I'll presume it is dead until I hear otherwise.	I'll presume it is dead until I hear otherewise.	151189936	1476084060751	1476084060930	u	85
296064	3182301	I'll presume it is dead until I hear otherwise.	I'll presume it is dead until I hear otherewise.	151189938	1476084060930	1476084061069	m	77
296064	3182301	I'll presume it is dead until I hear otherwise.	I'll presume it is dead until I hear otherewise.	151189940	1476084061157	1476084061251	e	69
296064	3182301	I'll presume it is dead until I hear otherwise.	I'll presume it is dead until I hear otherewise.	151189944	1476084061266	1476084061363	 	32
296064	3182301	I'll presume it is dead until I hear otherwise.	I'll presume it is dead until I hear otherewise.	151189960	1476084061411	1476084061586	i	73
296064	3182301	I'll presume it is dead until I hear otherwise.	I'll presume it is dead until I hear otherewise.	151189962	1476084061548	1476084061654	t	84
296064	3182301	I'll presume it is dead until I hear otherwise.	I'll presume it is dead until I hear otherewise.	151189963	1476084061697	1476084061825	 	32
296064	3182301	I'll presume it is dead until I hear otherwise.	I'll presume it is dead until I hear otherewise.	151189964	1476084061841	1476084061966	i	73
296064	3182301	I'll presume it is dead until I hear otherwise.	I'll presume it is dead until I hear otherewise.	151189965	1476084061981	1476084062095	s	83
296064	3182301	I'll presume it is dead until I hear otherwise.	I'll presume it is dead until I hear otherewise.	151189973	1476084062113	1476084062177	 	32
296064	3182301	I'll presume it is dead until I hear otherwise.	I'll presume it is dead until I hear otherewise.	151189975	1476084062232	1476084062316	d	68
296064	3182301	I'll presume it is dead until I hear otherwise.	I'll presume it is dead until I hear otherewise.	151189978	1476084062414	1476084062530	e	69
296064	3182301	I'll presume it is dead until I hear otherwise.	I'll presume it is dead until I hear otherewise.	151189981	1476084062509	1476084062709	a	65
296064	3182301	I'll presume it is dead until I hear otherwise.	I'll presume it is dead until I hear otherewise.	151190004	1476084062663	1476084062779	d	68
296064	3182301	I'll presume it is dead until I hear otherwise.	I'll presume it is dead until I hear otherewise.	151190005	1476084062983	1476084063090	 	32
296064	3182301	I'll presume it is dead until I hear otherwise.	I'll presume it is dead until I hear otherewise.	151190006	1476084063401	1476084063572	u	85
296064	3182301	I'll presume it is dead until I hear otherwise.	I'll presume it is dead until I hear otherewise.	151190007	1476084063531	1476084063683	n	78
296064	3182301	I'll presume it is dead until I hear otherwise.	I'll presume it is dead until I hear otherewise.	151190008	1476084063699	1476084063782	t	84
296064	3182301	I'll presume it is dead until I hear otherwise.	I'll presume it is dead until I hear otherewise.	151190009	1476084063824	1476084063911	i	73
296064	3182301	I'll presume it is dead until I hear otherwise.	I'll presume it is dead until I hear otherewise.	151190060	1476084064515	1476084064626	l	76
296064	3182301	I'll presume it is dead until I hear otherwise.	I'll presume it is dead until I hear otherewise.	151190062	1476084064925	1476084065032	 	32
296064	3182301	I'll presume it is dead until I hear otherwise.	I'll presume it is dead until I hear otherewise.	151190066	1476084065192	1476084065414	SHIFT	16
296064	3182301	I'll presume it is dead until I hear otherwise.	I'll presume it is dead until I hear otherewise.	151190064	1476084065268	1476084065383	I	73
296064	3182301	I'll presume it is dead until I hear otherwise.	I'll presume it is dead until I hear otherewise.	151190067	1476084065497	1476084065600	 	32
296064	3182301	I'll presume it is dead until I hear otherwise.	I'll presume it is dead until I hear otherewise.	151190068	1476084065714	1476084065799	h	72
296064	3182301	I'll presume it is dead until I hear otherwise.	I'll presume it is dead until I hear otherewise.	151190075	1476084065813	1476084065937	e	69
296064	3182301	I'll presume it is dead until I hear otherwise.	I'll presume it is dead until I hear otherewise.	151190078	1476084065926	1476084066062	a	65
296064	3182301	I'll presume it is dead until I hear otherwise.	I'll presume it is dead until I hear otherewise.	151190083	1476084066025	1476084066154	r	82
296064	3182301	I'll presume it is dead until I hear otherwise.	I'll presume it is dead until I hear otherewise.	151190087	1476084066209	1476084066322	 	32
296064	3182301	I'll presume it is dead until I hear otherwise.	I'll presume it is dead until I hear otherewise.	151190093	1476084066561	1476084066691	o	79
296064	3182301	I'll presume it is dead until I hear otherwise.	I'll presume it is dead until I hear otherewise.	151190107	1476084066681	1476084066798	t	84
296064	3182301	I'll presume it is dead until I hear otherwise.	I'll presume it is dead until I hear otherewise.	151190109	1476084066798	1476084066944	h	72
296064	3182301	I'll presume it is dead until I hear otherwise.	I'll presume it is dead until I hear otherewise.	151190113	1476084066923	1476084067049	e	69
296064	3182301	I'll presume it is dead until I hear otherwise.	I'll presume it is dead until I hear otherewise.	151190115	1476084067126	1476084067213	r	82
296064	3182301	I'll presume it is dead until I hear otherwise.	I'll presume it is dead until I hear otherewise.	151190117	1476084067372	1476084067524	e	69
296064	3182301	I'll presume it is dead until I hear otherwise.	I'll presume it is dead until I hear otherewise.	151190150	1476084067482	1476084067629	w	87
296064	3182301	I'll presume it is dead until I hear otherwise.	I'll presume it is dead until I hear otherewise.	151190152	1476084067946	1476084068088	i	73
296064	3182301	I'll presume it is dead until I hear otherwise.	I'll presume it is dead until I hear otherewise.	151190155	1476084068105	1476084068244	s	83
296064	3182301	I'll presume it is dead until I hear otherwise.	I'll presume it is dead until I hear otherewise.	151190158	1476084068192	1476084068306	e	69
296064	3182301	I'll presume it is dead until I hear otherwise.	I'll presume it is dead until I hear otherewise.	151190161	1476084068432	1476084068583	.	190
296064	3182311	Jan has a lot of detail.	Jan has a lot of detail.	151190291	1476084072033	1476084072351	SHIFT	16
296064	3182311	Jan has a lot of detail.	Jan has a lot of detail.	151190292	1476084072300	1476084072413	J	74
296064	3182311	Jan has a lot of detail.	Jan has a lot of detail.	151190293	1476084072480	1476084072644	a	65
296064	3182311	Jan has a lot of detail.	Jan has a lot of detail.	151190294	1476084072796	1476084072867	n	78
296064	3182311	Jan has a lot of detail.	Jan has a lot of detail.	151190295	1476084072991	1476084073045	 	32
296064	3182311	Jan has a lot of detail.	Jan has a lot of detail.	151190296	1476084073133	1476084073251	h	72
296064	3182311	Jan has a lot of detail.	Jan has a lot of detail.	151190349	1476084073226	1476084073359	a	65
296064	3182311	Jan has a lot of detail.	Jan has a lot of detail.	151190351	1476084073288	1476084073441	s	83
296064	3182311	Jan has a lot of detail.	Jan has a lot of detail.	151190354	1476084073416	1476084073499	 	32
296064	3182311	Jan has a lot of detail.	Jan has a lot of detail.	151190357	1476084073578	1476084073701	l	76
296064	3182311	Jan has a lot of detail.	Jan has a lot of detail.	151190359	1476084073767	1476084073913	o	79
296064	3182311	Jan has a lot of detail.	Jan has a lot of detail.	151190360	1476084074194	1476084074259	BKSP	8
296064	3182311	Jan has a lot of detail.	Jan has a lot of detail.	151190361	1476084074343	1476084074409	BKSP	8
296064	3182311	Jan has a lot of detail.	Jan has a lot of detail.	151190362	1476084074578	1476084074696	a	65
296064	3182311	Jan has a lot of detail.	Jan has a lot of detail.	151190367	1476084074756	1476084074817	 	32
296064	3182311	Jan has a lot of detail.	Jan has a lot of detail.	151190368	1476084074883	1476084074983	l	76
296064	3182311	Jan has a lot of detail.	Jan has a lot of detail.	151190369	1476084075074	1476084075190	o	79
296064	3182311	Jan has a lot of detail.	Jan has a lot of detail.	151190370	1476084075280	1476084075380	t	84
296064	3182311	Jan has a lot of detail.	Jan has a lot of detail.	151190371	1476084075447	1476084075502	 	32
296064	3182311	Jan has a lot of detail.	Jan has a lot of detail.	151190399	1476084075548	1476084075668	o	79
296064	3182311	Jan has a lot of detail.	Jan has a lot of detail.	151190400	1476084075781	1476084075865	 	32
296064	3182311	Jan has a lot of detail.	Jan has a lot of detail.	151190402	1476084076367	1476084076525	BKSP	8
296064	3182311	Jan has a lot of detail.	Jan has a lot of detail.	151190404	1476084076938	1476084077032	f	70
296064	3182311	Jan has a lot of detail.	Jan has a lot of detail.	151190406	1476084077094	1476084077185	 	32
296064	3182311	Jan has a lot of detail.	Jan has a lot of detail.	151190410	1476084077210	1476084077314	d	68
296064	3182311	Jan has a lot of detail.	Jan has a lot of detail.	151190458	1476084077396	1476084077502	e	69
296064	3182311	Jan has a lot of detail.	Jan has a lot of detail.	151190460	1476084077615	1476084077714	t	84
296064	3182311	Jan has a lot of detail.	Jan has a lot of detail.	151190461	1476084077787	1476084077901	a	65
296064	3182311	Jan has a lot of detail.	Jan has a lot of detail.	151190462	1476084077906	1476084077993	u	85
296064	3182311	Jan has a lot of detail.	Jan has a lot of detail.	151190463	1476084078398	1476084078475	BKSP	8
296064	3182311	Jan has a lot of detail.	Jan has a lot of detail.	151190512	1476084078583	1476084078678	o	73
296064	3182311	Jan has a lot of detail.	Jan has a lot of detail.	151190513	1476084079172	1476084079258	BKSP	8
296064	3182311	Jan has a lot of detail.	Jan has a lot of detail.	151190514	1476084079303	1476084079414	;	76
296064	3182311	Jan has a lot of detail.	Jan has a lot of detail.	151190515	1476084079985	1476084080067	BKSP	8
296064	3182311	Jan has a lot of detail.	Jan has a lot of detail.	151190516	1476084080133	1476084080266	.	190
296064	3182318	Montpellier won the Cup at their first attempt.	Montpellier won the Cup at their first attempt.	151190633	1476084083345	1476084083648	SHIFT	16
296064	3182318	Montpellier won the Cup at their first attempt.	Montpellier won the Cup at their first attempt.	151190631	1476084083484	1476084083632	N	78
296064	3182318	Montpellier won the Cup at their first attempt.	Montpellier won the Cup at their first attempt.	151190634	1476084083711	1476084083931	o	79
296064	3182318	Montpellier won the Cup at their first attempt.	Montpellier won the Cup at their first attempt.	151190636	1476084084176	1476084084242	BKSP	8
296064	3182318	Montpellier won the Cup at their first attempt.	Montpellier won the Cup at their first attempt.	151190637	1476084084314	1476084084382	BKSP	8
296064	3182318	Montpellier won the Cup at their first attempt.	Montpellier won the Cup at their first attempt.	151190639	1476084084462	1476084084648	SHIFT	16
296064	3182318	Montpellier won the Cup at their first attempt.	Montpellier won the Cup at their first attempt.	151190640	1476084084518	1476084084680	M	77
296064	3182318	Montpellier won the Cup at their first attempt.	Montpellier won the Cup at their first attempt.	151190642	1476084084939	1476084085049	o	79
296064	3182318	Montpellier won the Cup at their first attempt.	Montpellier won the Cup at their first attempt.	151190643	1476084085111	1476084085275	n	78
296064	3182318	Montpellier won the Cup at their first attempt.	Montpellier won the Cup at their first attempt.	151190699	1476084085301	1476084085399	t	84
296064	3182318	Montpellier won the Cup at their first attempt.	Montpellier won the Cup at their first attempt.	151190700	1476084085526	1476084085626	e	69
296064	3182318	Montpellier won the Cup at their first attempt.	Montpellier won the Cup at their first attempt.	151190701	1476084085735	1476084085892	p	80
296064	3182318	Montpellier won the Cup at their first attempt.	Montpellier won the Cup at their first attempt.	151190702	1476084086657	1476084086782	e	69
296064	3182318	Montpellier won the Cup at their first attempt.	Montpellier won the Cup at their first attempt.	151190703	1476084087029	1476084087083	BKSP	8
296064	3182318	Montpellier won the Cup at their first attempt.	Montpellier won the Cup at their first attempt.	151190704	1476084087189	1476084087268	BKSP	8
296064	3182318	Montpellier won the Cup at their first attempt.	Montpellier won the Cup at their first attempt.	151190705	1476084087355	1476084087449	BKSP	8
296064	3182318	Montpellier won the Cup at their first attempt.	Montpellier won the Cup at their first attempt.	151190706	1476084087514	1476084087673	p	80
296064	3182318	Montpellier won the Cup at their first attempt.	Montpellier won the Cup at their first attempt.	151190740	1476084087710	1476084087815	e	69
296064	3182318	Montpellier won the Cup at their first attempt.	Montpellier won the Cup at their first attempt.	151190743	1476084088091	1476084088230	l	76
296064	3182318	Montpellier won the Cup at their first attempt.	Montpellier won the Cup at their first attempt.	151190747	1476084088292	1476084088396	l	76
296064	3182318	Montpellier won the Cup at their first attempt.	Montpellier won the Cup at their first attempt.	151190750	1476084088513	1476084088632	i	73
296064	3182318	Montpellier won the Cup at their first attempt.	Montpellier won the Cup at their first attempt.	151190753	1476084088674	1476084088775	e	69
296064	3182318	Montpellier won the Cup at their first attempt.	Montpellier won the Cup at their first attempt.	151190785	1476084088865	1476084088964	r	82
296064	3182318	Montpellier won the Cup at their first attempt.	Montpellier won the Cup at their first attempt.	151190789	1476084089209	1476084089323	 	32
296064	3182318	Montpellier won the Cup at their first attempt.	Montpellier won the Cup at their first attempt.	151190792	1476084089308	1476084089428	w	87
296064	3182318	Montpellier won the Cup at their first attempt.	Montpellier won the Cup at their first attempt.	151190796	1476084089420	1476084089498	a	65
296064	3182318	Montpellier won the Cup at their first attempt.	Montpellier won the Cup at their first attempt.	151190798	1476084089797	1476084089857	BKSP	8
296064	3182318	Montpellier won the Cup at their first attempt.	Montpellier won the Cup at their first attempt.	151190800	1476084089974	1476084090210	o	79
296064	3182318	Montpellier won the Cup at their first attempt.	Montpellier won the Cup at their first attempt.	151190812	1476084090097	1476084090274	n	78
296064	3182318	Montpellier won the Cup at their first attempt.	Montpellier won the Cup at their first attempt.	151190814	1476084090392	1476084090503	 	32
296064	3182318	Montpellier won the Cup at their first attempt.	Montpellier won the Cup at their first attempt.	151190818	1476084090507	1476084090598	t	84
296064	3182318	Montpellier won the Cup at their first attempt.	Montpellier won the Cup at their first attempt.	151190822	1476084090598	1476084090695	h	72
296064	3182318	Montpellier won the Cup at their first attempt.	Montpellier won the Cup at their first attempt.	151190824	1476084090711	1476084090831	e	69
296064	3182318	Montpellier won the Cup at their first attempt.	Montpellier won the Cup at their first attempt.	151190866	1476084090823	1476084090918	 	32
296064	3182318	Montpellier won the Cup at their first attempt.	Montpellier won the Cup at their first attempt.	151190869	1476084090999	1476084091174	c	67
296064	3182318	Montpellier won the Cup at their first attempt.	Montpellier won the Cup at their first attempt.	151190872	1476084091029	1476084091268	SHIFT	16
296064	3182318	Montpellier won the Cup at their first attempt.	Montpellier won the Cup at their first attempt.	151190875	1476084091583	1476084091665	BKSP	8
296064	3182318	Montpellier won the Cup at their first attempt.	Montpellier won the Cup at their first attempt.	151190881	1476084091650	1476084091849	SHIFT	16
296064	3182318	Montpellier won the Cup at their first attempt.	Montpellier won the Cup at their first attempt.	151190879	1476084091730	1476084091838	C	67
296064	3182318	Montpellier won the Cup at their first attempt.	Montpellier won the Cup at their first attempt.	151190884	1476084091821	1476084091983	U	85
296064	3182318	Montpellier won the Cup at their first attempt.	Montpellier won the Cup at their first attempt.	151190886	1476084092417	1476084092525	BKSP	8
296064	3182318	Montpellier won the Cup at their first attempt.	Montpellier won the Cup at their first attempt.	151190916	1476084092667	1476084092832	i	85
296064	3182318	Montpellier won the Cup at their first attempt.	Montpellier won the Cup at their first attempt.	151190919	1476084093241	1476084093327	BKSP	8
296064	3182318	Montpellier won the Cup at their first attempt.	Montpellier won the Cup at their first attempt.	151190925	1476084093361	1476084093533	p	80
296064	3182318	Montpellier won the Cup at their first attempt.	Montpellier won the Cup at their first attempt.	151190927	1476084093495	1476084093636	 	32
296064	3182318	Montpellier won the Cup at their first attempt.	Montpellier won the Cup at their first attempt.	151190931	1476084094025	1476084094177	a	65
296064	3182318	Montpellier won the Cup at their first attempt.	Montpellier won the Cup at their first attempt.	151190933	1476084094148	1476084094262	 	32
296064	3182318	Montpellier won the Cup at their first attempt.	Montpellier won the Cup at their first attempt.	151190935	1476084094282	1476084094415	t	84
296064	3182318	Montpellier won the Cup at their first attempt.	Montpellier won the Cup at their first attempt.	151190953	1476084094419	1476084094530	h	72
296064	3182318	Montpellier won the Cup at their first attempt.	Montpellier won the Cup at their first attempt.	151190954	1476084094775	1476084094849	BKSP	8
296064	3182318	Montpellier won the Cup at their first attempt.	Montpellier won the Cup at their first attempt.	151190956	1476084094942	1476084095033	BKSP	8
296064	3182318	Montpellier won the Cup at their first attempt.	Montpellier won the Cup at their first attempt.	151190960	1476084095117	1476084095226	BKSP	8
296064	3182318	Montpellier won the Cup at their first attempt.	Montpellier won the Cup at their first attempt.	151190963	1476084095241	1476084095344	t	84
296064	3182318	Montpellier won the Cup at their first attempt.	Montpellier won the Cup at their first attempt.	151190966	1476084095467	1476084095574	 	32
296064	3182318	Montpellier won the Cup at their first attempt.	Montpellier won the Cup at their first attempt.	151190969	1476084095589	1476084095718	t	84
296064	3182318	Montpellier won the Cup at their first attempt.	Montpellier won the Cup at their first attempt.	151191000	1476084095696	1476084095836	h	72
296064	3182318	Montpellier won the Cup at their first attempt.	Montpellier won the Cup at their first attempt.	151191003	1476084095816	1476084095944	e	69
296064	3182318	Montpellier won the Cup at their first attempt.	Montpellier won the Cup at their first attempt.	151191007	1476084095926	1476084096052	i	73
296064	3182318	Montpellier won the Cup at their first attempt.	Montpellier won the Cup at their first attempt.	151191011	1476084096072	1476084096189	r	82
296064	3182318	Montpellier won the Cup at their first attempt.	Montpellier won the Cup at their first attempt.	151191015	1476084096394	1476084096491	 	32
296064	3182318	Montpellier won the Cup at their first attempt.	Montpellier won the Cup at their first attempt.	151191018	1476084096598	1476084096722	f	70
296064	3182318	Montpellier won the Cup at their first attempt.	Montpellier won the Cup at their first attempt.	151191037	1476084096727	1476084096913	i	73
296064	3182318	Montpellier won the Cup at their first attempt.	Montpellier won the Cup at their first attempt.	151191038	1476084096883	1476084097029	r	82
296064	3182318	Montpellier won the Cup at their first attempt.	Montpellier won the Cup at their first attempt.	151191039	1476084097029	1476084097176	s	83
296064	3182318	Montpellier won the Cup at their first attempt.	Montpellier won the Cup at their first attempt.	151191040	1476084097218	1476084097347	t	84
296064	3182318	Montpellier won the Cup at their first attempt.	Montpellier won the Cup at their first attempt.	151191041	1476084097442	1476084097561	 	32
296064	3182318	Montpellier won the Cup at their first attempt.	Montpellier won the Cup at their first attempt.	151191075	1476084097842	1476084098014	a	65
296064	3182318	Montpellier won the Cup at their first attempt.	Montpellier won the Cup at their first attempt.	151191077	1476084098076	1476084098168	t	84
296064	3182318	Montpellier won the Cup at their first attempt.	Montpellier won the Cup at their first attempt.	151191079	1476084098226	1476084098333	t	84
296064	3182318	Montpellier won the Cup at their first attempt.	Montpellier won the Cup at their first attempt.	151191081	1476084098411	1476084098540	e	69
296064	3182318	Montpellier won the Cup at their first attempt.	Montpellier won the Cup at their first attempt.	151191083	1476084098547	1476084098723	m	77
296064	3182318	Montpellier won the Cup at their first attempt.	Montpellier won the Cup at their first attempt.	151191112	1476084098665	1476084098869	o	79
296064	3182318	Montpellier won the Cup at their first attempt.	Montpellier won the Cup at their first attempt.	151191113	1476084099137	1476084099225	BKSP	8
296064	3182318	Montpellier won the Cup at their first attempt.	Montpellier won the Cup at their first attempt.	151191114	1476084099291	1476084099398	p	80
296064	3182318	Montpellier won the Cup at their first attempt.	Montpellier won the Cup at their first attempt.	151191116	1476084099445	1476084099563	t	84
296064	3182318	Montpellier won the Cup at their first attempt.	Montpellier won the Cup at their first attempt.	151191119	1476084099956	1476084100099	.	190
