PARTICIPANT_ID	TEST_SECTION_ID	SENTENCE	USER_INPUT	KEYSTROKE_ID	PRESS_TIME	RELEASE_TIME	LETTER	KEYCODE
30289	324465	Let me know if I can help.	Let me know if I can help.	15402880	1472278437637	1472278437824	SHIFT	16
30289	324465	Let me know if I can help.	Let me know if I can help.	15402884	1472278437767	1472278437941	L	76
30289	324465	Let me know if I can help.	Let me know if I can help.	15402887	1472278437871	1472278438006	e	69
30289	324465	Let me know if I can help.	Let me know if I can help.	15402889	1472278438069	1472278438191	t	84
30289	324465	Let me know if I can help.	Let me know if I can help.	15402891	1472278438269	1472278438620	 	32
30289	324465	Let me know if I can help.	Let me know if I can help.	15402892	1472278438620	1472278438806	e	77
30289	324465	Let me know if I can help.	Let me know if I can help.	15402915	1472278438809	1472278439068	 	32
30289	324465	Let me know if I can help.	Let me know if I can help.	15402917	1472278439069	1472278439073	n	75
30289	324465	Let me know if I can help.	Let me know if I can help.	15402920	1472278439071	1472278439558	o	78
30289	324465	Let me know if I can help.	Let me know if I can help.	15402936	1472278439559	1472278439566	 	87
30289	324465	Let me know if I can help.	Let me know if I can help.	15402944	1472278439564	1472278439894	i	32
30289	324465	Let me know if I can help.	Let me know if I can help.	15402940	1472278439640	1472278439788	f	70
30289	324465	Let me know if I can help.	Let me know if I can help.	15402972	1472278439756	1472278441153	 	32
30289	324465	Let me know if I can help.	Let me know if I can help.	15402947	1472278440099	1472278440257	i	73
30289	324465	Let me know if I can help.	Let me know if I can help.	15402961	1472278440573	1472278440654	BKSP	8
30289	324465	Let me know if I can help.	Let me know if I can help.	15402964	1472278440773	1472278440958	SHIFT	16
30289	324465	Let me know if I can help.	Let me know if I can help.	15402967	1472278440827	1472278441019	I	73
30289	324465	Let me know if I can help.	Let me know if I can help.	15403004	1472278440974	1472278441697	 	32
30289	324465	Let me know if I can help.	Let me know if I can help.	15402979	1472278441146	1472278441293	c	67
30289	324465	Let me know if I can help.	Let me know if I can help.	15402984	1472278441312	1472278441478	a	65
30289	324465	Let me know if I can help.	Let me know if I can help.	15403002	1472278441428	1472278441585	n	78
30289	324465	Let me know if I can help.	Let me know if I can help.	15403007	1472278441760	1472278441911	h	72
30289	324465	Let me know if I can help.	Let me know if I can help.	15403010	1472278441897	1472278442042	e	69
30289	324465	Let me know if I can help.	Let me know if I can help.	15403012	1472278442013	1472278442126	l	76
30289	324465	Let me know if I can help.	Let me know if I can help.	15403014	1472278442398	1472278442530	p	80
30289	324465	Let me know if I can help.	Let me know if I can help.	15403018	1472278442713	1472278442844	.	190
30289	324468	We will get you a copy.	We will get you a copy.	15403098	1472278445203	1472278445434	SHIFT	16
30289	324468	We will get you a copy.	We will get you a copy.	15403100	1472278445325	1472278445450	W	87
30289	324468	We will get you a copy.	We will get you a copy.	15403104	1472278445603	1472278445734	e	69
30289	324468	We will get you a copy.	We will get you a copy.	15403138	1472278445850	1472278447001	 	32
30289	324468	We will get you a copy.	We will get you a copy.	15403110	1472278446004	1472278446151	w	87
30289	324468	We will get you a copy.	We will get you a copy.	15403131	1472278446120	1472278446250	i	73
30289	324468	We will get you a copy.	We will get you a copy.	15403133	1472278446482	1472278446587	l	76
30289	324468	We will get you a copy.	We will get you a copy.	15403135	1472278446682	1472278446787	l	76
30289	324468	We will get you a copy.	We will get you a copy.	15403168	1472278446851	1472278447920	 	32
30289	324468	We will get you a copy.	We will get you a copy.	15403141	1472278447036	1472278447167	g	71
30289	324468	We will get you a copy.	We will get you a copy.	15403143	1472278447223	1472278447351	e	69
30289	324468	We will get you a copy.	We will get you a copy.	15403166	1472278447436	1472278447567	t	84
30289	324468	We will get you a copy.	We will get you a copy.	15403195	1472278447782	1472278448421	 	32
30289	324468	We will get you a copy.	We will get you a copy.	15403170	1472278447951	1472278448129	y	89
30289	324468	We will get you a copy.	We will get you a copy.	15403171	1472278448082	1472278448323	o	79
30289	324468	We will get you a copy.	We will get you a copy.	15403194	1472278448205	1472278448357	u	85
30289	324468	We will get you a copy.	We will get you a copy.	15403197	1472278448290	1472278448752	 	32
30289	324468	We will get you a copy.	We will get you a copy.	15403196	1472278448421	1472278448537	a	65
30289	324468	We will get you a copy.	We will get you a copy.	15403198	1472278449105	1472278449289	c	67
30289	324468	We will get you a copy.	We will get you a copy.	15403199	1472278449173	1472278449323	o	79
30289	324468	We will get you a copy.	We will get you a copy.	15403200	1472278449455	1472278449586	p	80
30289	324468	We will get you a copy.	We will get you a copy.	15403214	1472278449597	1472278449708	y	89
30289	324468	We will get you a copy.	We will get you a copy.	15403217	1472278449855	1472278449987	.	190
30289	324472	Tried to call but couldn't reach you.	Tried to call but couldn't reach you.	15403330	1472278454693	1472278454893	SHIFT	16
30289	324472	Tried to call but couldn't reach you.	Tried to call but couldn't reach you.	15403331	1472278454777	1472278454911	T	84
30289	324472	Tried to call but couldn't reach you.	Tried to call but couldn't reach you.	15403332	1472278454993	1472278455121	r	82
30289	324472	Tried to call but couldn't reach you.	Tried to call but couldn't reach you.	15403333	1472278455073	1472278455233	i	73
30289	324472	Tried to call but couldn't reach you.	Tried to call but couldn't reach you.	15403334	1472278455215	1472278455347	e	69
30289	324472	Tried to call but couldn't reach you.	Tried to call but couldn't reach you.	15403335	1472278455415	1472278455551	d	68
30289	324472	Tried to call but couldn't reach you.	Tried to call but couldn't reach you.	15403360	1472278455531	1472278455994	 	32
30289	324472	Tried to call but couldn't reach you.	Tried to call but couldn't reach you.	15403356	1472278455678	1472278455825	t	84
30289	324472	Tried to call but couldn't reach you.	Tried to call but couldn't reach you.	15403358	1472278455777	1472278455916	o	79
30289	324472	Tried to call but couldn't reach you.	Tried to call but couldn't reach you.	15403380	1472278455841	1472278456815	 	32
30289	324472	Tried to call but couldn't reach you.	Tried to call but couldn't reach you.	15403361	1472278456079	1472278456232	c	67
30289	324472	Tried to call but couldn't reach you.	Tried to call but couldn't reach you.	15403362	1472278456310	1472278456470	a	65
30289	324472	Tried to call but couldn't reach you.	Tried to call but couldn't reach you.	15403374	1472278456417	1472278456517	l	76
30289	324472	Tried to call but couldn't reach you.	Tried to call but couldn't reach you.	15403377	1472278456579	1472278456692	l	76
30289	324472	Tried to call but couldn't reach you.	Tried to call but couldn't reach you.	15403417	1472278456633	1472278457280	 	32
30289	324472	Tried to call but couldn't reach you.	Tried to call but couldn't reach you.	15403382	1472278456812	1472278456928	b	66
30289	324472	Tried to call but couldn't reach you.	Tried to call but couldn't reach you.	15403384	1472278456909	1472278457033	u	85
30289	324472	Tried to call but couldn't reach you.	Tried to call but couldn't reach you.	15403386	1472278457048	1472278457159	t	84
30289	324472	Tried to call but couldn't reach you.	Tried to call but couldn't reach you.	15403448	1472278457133	1472278458482	 	32
30289	324472	Tried to call but couldn't reach you.	Tried to call but couldn't reach you.	15403419	1472278457380	1472278457558	c	67
30289	324472	Tried to call but couldn't reach you.	Tried to call but couldn't reach you.	15403422	1472278457426	1472278457589	o	79
30289	324472	Tried to call but couldn't reach you.	Tried to call but couldn't reach you.	15403425	1472278457510	1472278457617	u	85
30289	324472	Tried to call but couldn't reach you.	Tried to call but couldn't reach you.	15403427	1472278457718	1472278457805	l	76
30289	324472	Tried to call but couldn't reach you.	Tried to call but couldn't reach you.	15403429	1472278457818	1472278457949	d	68
30289	324472	Tried to call but couldn't reach you.	Tried to call but couldn't reach you.	15403439	1472278457962	1472278458066	n	78
30289	324472	Tried to call but couldn't reach you.	Tried to call but couldn't reach you.	15403441	1472278458097	1472278458269	'	222
30289	324472	Tried to call but couldn't reach you.	Tried to call but couldn't reach you.	15403443	1472278458219	1472278458335	t	84
30289	324472	Tried to call but couldn't reach you.	Tried to call but couldn't reach you.	15403502	1472278458350	1472278459735	 	32
30289	324472	Tried to call but couldn't reach you.	Tried to call but couldn't reach you.	15403454	1472278458798	1472278458974	r	82
30289	324472	Tried to call but couldn't reach you.	Tried to call but couldn't reach you.	15403492	1472278458911	1472278459091	e	69
30289	324472	Tried to call but couldn't reach you.	Tried to call but couldn't reach you.	15403496	1472278459035	1472278459218	a	65
30289	324472	Tried to call but couldn't reach you.	Tried to call but couldn't reach you.	15403498	1472278459297	1472278459456	c	67
30289	324472	Tried to call but couldn't reach you.	Tried to call but couldn't reach you.	15403501	1472278459419	1472278459577	h	72
30289	324472	Tried to call but couldn't reach you.	Tried to call but couldn't reach you.	15403503	1472278459750	1472278459941	y	89
30289	324472	Tried to call but couldn't reach you.	Tried to call but couldn't reach you.	15403504	1472278459882	1472278460090	o	79
30289	324472	Tried to call but couldn't reach you.	Tried to call but couldn't reach you.	15403509	1472278460020	1472278460120	u	85
30289	324472	Tried to call but couldn't reach you.	Tried to call but couldn't reach you.	15403512	1472278460220	1472278460351	.	190
30289	324482	We can work with it either way.	We can work with it either way.	15403686	1472278464630	1472278464730	w	87
30289	324482	We can work with it either way.	We can work with it either way.	15403689	1472278465228	1472278465307	BKSP	8
30289	324482	We can work with it either way.	We can work with it either way.	15403691	1472278465827	1472278466031	SHIFT	16
30289	324482	We can work with it either way.	We can work with it either way.	15403694	1472278465909	1472278466047	W	87
30289	324482	We can work with it either way.	We can work with it either way.	15403698	1472278466128	1472278466262	e	69
30289	324482	We can work with it either way.	We can work with it either way.	15403735	1472278466332	1472278467182	 	32
30289	324482	We can work with it either way.	We can work with it either way.	15403725	1472278466432	1472278466580	c	67
30289	324482	We can work with it either way.	We can work with it either way.	15403729	1472278466611	1472278466785	a	65
30289	324482	We can work with it either way.	We can work with it either way.	15403732	1472278466766	1472278466897	n	78
30289	324482	We can work with it either way.	We can work with it either way.	15403754	1472278467035	1472278468022	 	32
30289	324482	We can work with it either way.	We can work with it either way.	15403739	1472278467335	1472278467473	w	87
30289	324482	We can work with it either way.	We can work with it either way.	15403748	1472278467435	1472278467535	o	79
30289	324482	We can work with it either way.	We can work with it either way.	15403750	1472278467566	1472278467731	r	82
30289	324482	We can work with it either way.	We can work with it either way.	15403752	1472278467697	1472278467829	k	75
30289	324482	We can work with it either way.	We can work with it either way.	15403766	1472278467851	1472278468604	 	32
30289	324482	We can work with it either way.	We can work with it either way.	15403757	1472278468013	1472278468159	w	87
30289	324482	We can work with it either way.	We can work with it either way.	15403763	1472278468091	1472278468250	i	73
30289	324482	We can work with it either way.	We can work with it either way.	15403764	1472278468217	1472278468355	t	84
30289	324482	We can work with it either way.	We can work with it either way.	15403765	1472278468324	1472278468460	h	72
30289	324482	We can work with it either way.	We can work with it either way.	15403779	1472278468431	1472278468914	 	32
30289	324482	We can work with it either way.	We can work with it either way.	15403767	1472278468567	1472278468735	i	73
30289	324482	We can work with it either way.	We can work with it either way.	15403777	1472278468667	1472278468809	t	84
30289	324482	We can work with it either way.	We can work with it either way.	15403797	1472278468770	1472278469702	 	32
30289	324482	We can work with it either way.	We can work with it either way.	15403781	1472278468933	1472278469054	e	69
30289	324482	We can work with it either way.	We can work with it either way.	15403782	1472278469031	1472278469136	i	73
30289	324482	We can work with it either way.	We can work with it either way.	15403783	1472278469136	1472278469259	t	84
30289	324482	We can work with it either way.	We can work with it either way.	15403792	1472278469207	1472278469357	h	72
30289	324482	We can work with it either way.	We can work with it either way.	15403793	1472278469333	1472278469507	e	69
30289	324482	We can work with it either way.	We can work with it either way.	15403795	1472278469407	1472278469589	r	82
30289	324482	We can work with it either way.	We can work with it either way.	15403800	1472278469699	1472278469924	w	87
30289	324482	We can work with it either way.	We can work with it either way.	15403823	1472278469837	1472278469993	a	65
30289	324482	We can work with it either way.	We can work with it either way.	15403827	1472278469953	1472278470069	y	89
30289	324482	We can work with it either way.	We can work with it either way.	15403830	1472278470215	1472278470290	.	190
30289	324489	We're not aware of any possible changes at Stanford Stadium.	We're not aware of any possible changes at Stanford Stadium.	15404005	1472278476043	1472278476274	SHIFT	16
30289	324489	We're not aware of any possible changes at Stanford Stadium.	We're not aware of any possible changes at Stanford Stadium.	15404004	1472278476121	1472278476259	W	87
30289	324489	We're not aware of any possible changes at Stanford Stadium.	We're not aware of any possible changes at Stanford Stadium.	15404006	1472278476321	1472278476459	e	69
30289	324489	We're not aware of any possible changes at Stanford Stadium.	We're not aware of any possible changes at Stanford Stadium.	15404007	1472278476674	1472278476875	'	222
30289	324489	We're not aware of any possible changes at Stanford Stadium.	We're not aware of any possible changes at Stanford Stadium.	15404008	1472278477143	1472278477307	r	82
30289	324489	We're not aware of any possible changes at Stanford Stadium.	We're not aware of any possible changes at Stanford Stadium.	15404018	1472278477275	1472278477406	e	69
30289	324489	We're not aware of any possible changes at Stanford Stadium.	We're not aware of any possible changes at Stanford Stadium.	15404057	1472278477444	1472278478091	 	32
30289	324489	We're not aware of any possible changes at Stanford Stadium.	We're not aware of any possible changes at Stanford Stadium.	15404023	1472278477622	1472278477792	n	78
30289	324489	We're not aware of any possible changes at Stanford Stadium.	We're not aware of any possible changes at Stanford Stadium.	15404026	1472278477723	1472278477877	o	79
30289	324489	We're not aware of any possible changes at Stanford Stadium.	We're not aware of any possible changes at Stanford Stadium.	15404028	1472278477823	1472278477967	t	84
30289	324489	We're not aware of any possible changes at Stanford Stadium.	We're not aware of any possible changes at Stanford Stadium.	15404082	1472278477960	1472278479331	 	32
30289	324489	We're not aware of any possible changes at Stanford Stadium.	We're not aware of any possible changes at Stanford Stadium.	15404060	1472278478424	1472278478608	a	65
30289	324489	We're not aware of any possible changes at Stanford Stadium.	We're not aware of any possible changes at Stanford Stadium.	15404062	1472278478624	1472278478808	w	87
30289	324489	We're not aware of any possible changes at Stanford Stadium.	We're not aware of any possible changes at Stanford Stadium.	15404065	1472278478707	1472278478877	a	65
30289	324489	We're not aware of any possible changes at Stanford Stadium.	We're not aware of any possible changes at Stanford Stadium.	15404067	1472278478924	1472278479093	r	82
30289	324489	We're not aware of any possible changes at Stanford Stadium.	We're not aware of any possible changes at Stanford Stadium.	15404080	1472278479061	1472278479190	e	69
30289	324489	We're not aware of any possible changes at Stanford Stadium.	We're not aware of any possible changes at Stanford Stadium.	15404094	1472278479162	1472278479648	 	32
30289	324489	We're not aware of any possible changes at Stanford Stadium.	We're not aware of any possible changes at Stanford Stadium.	15404086	1472278479277	1472278479452	o	79
30289	324489	We're not aware of any possible changes at Stanford Stadium.	We're not aware of any possible changes at Stanford Stadium.	15404088	1472278479409	1472278479562	f	70
30289	324489	We're not aware of any possible changes at Stanford Stadium.	We're not aware of any possible changes at Stanford Stadium.	15404121	1472278479516	1472278480225	 	32
30289	324489	We're not aware of any possible changes at Stanford Stadium.	We're not aware of any possible changes at Stanford Stadium.	15404110	1472278479642	1472278479772	a	65
30289	324489	We're not aware of any possible changes at Stanford Stadium.	We're not aware of any possible changes at Stanford Stadium.	15404112	1472278479744	1472278479847	n	78
30289	324489	We're not aware of any possible changes at Stanford Stadium.	We're not aware of any possible changes at Stanford Stadium.	15404115	1472278479947	1472278480061	y	89
30289	324489	We're not aware of any possible changes at Stanford Stadium.	We're not aware of any possible changes at Stanford Stadium.	15404205	1472278480027	1472278481648	 	32
30289	324489	We're not aware of any possible changes at Stanford Stadium.	We're not aware of any possible changes at Stanford Stadium.	15404125	1472278480225	1472278480464	p	80
30289	324489	We're not aware of any possible changes at Stanford Stadium.	We're not aware of any possible changes at Stanford Stadium.	15404145	1472278480395	1472278480602	o	79
30289	324489	We're not aware of any possible changes at Stanford Stadium.	We're not aware of any possible changes at Stanford Stadium.	15404150	1472278480580	1472278480696	s	83
30289	324489	We're not aware of any possible changes at Stanford Stadium.	We're not aware of any possible changes at Stanford Stadium.	15404158	1472278480780	1472278480900	s	83
30289	324489	We're not aware of any possible changes at Stanford Stadium.	We're not aware of any possible changes at Stanford Stadium.	15404164	1472278480896	1472278481011	i	73
30289	324489	We're not aware of any possible changes at Stanford Stadium.	We're not aware of any possible changes at Stanford Stadium.	15404168	1472278481048	1472278481195	b	66
30289	324489	We're not aware of any possible changes at Stanford Stadium.	We're not aware of any possible changes at Stanford Stadium.	15404171	1472278481248	1472278481405	l	76
30289	324489	We're not aware of any possible changes at Stanford Stadium.	We're not aware of any possible changes at Stanford Stadium.	15404201	1472278481380	1472278481522	e	69
30289	324489	We're not aware of any possible changes at Stanford Stadium.	We're not aware of any possible changes at Stanford Stadium.	15404269	1472278481511	1472278484115	 	32
30289	324489	We're not aware of any possible changes at Stanford Stadium.	We're not aware of any possible changes at Stanford Stadium.	15404208	1472278481827	1472278481990	c	67
30289	324489	We're not aware of any possible changes at Stanford Stadium.	We're not aware of any possible changes at Stanford Stadium.	15404210	1472278481949	1472278482096	h	72
30289	324489	We're not aware of any possible changes at Stanford Stadium.	We're not aware of any possible changes at Stanford Stadium.	15404212	1472278482112	1472278482212	a	65
30289	324489	We're not aware of any possible changes at Stanford Stadium.	We're not aware of any possible changes at Stanford Stadium.	15404214	1472278482677	1472278482797	n	78
30289	324489	We're not aware of any possible changes at Stanford Stadium.	We're not aware of any possible changes at Stanford Stadium.	15404260	1472278483198	1472278483351	g	71
30289	324489	We're not aware of any possible changes at Stanford Stadium.	We're not aware of any possible changes at Stanford Stadium.	15404265	1472278483467	1472278483584	e	69
30289	324489	We're not aware of any possible changes at Stanford Stadium.	We're not aware of any possible changes at Stanford Stadium.	15404267	1472278483700	1472278483852	s	83
30289	324489	We're not aware of any possible changes at Stanford Stadium.	We're not aware of any possible changes at Stanford Stadium.	15404306	1472278483968	1472278484548	 	32
30289	324489	We're not aware of any possible changes at Stanford Stadium.	We're not aware of any possible changes at Stanford Stadium.	15404298	1472278484099	1472278484243	a	65
30289	324489	We're not aware of any possible changes at Stanford Stadium.	We're not aware of any possible changes at Stanford Stadium.	15404302	1472278484241	1472278484409	t	84
30289	324489	We're not aware of any possible changes at Stanford Stadium.	We're not aware of any possible changes at Stanford Stadium.	15404366	1472278484400	1472278486586	 	32
30289	324489	We're not aware of any possible changes at Stanford Stadium.	We're not aware of any possible changes at Stanford Stadium.	15404315	1472278484653	1472278484900	SHIFT	16
30289	324489	We're not aware of any possible changes at Stanford Stadium.	We're not aware of any possible changes at Stanford Stadium.	15404311	1472278484769	1472278484884	S	83
30289	324489	We're not aware of any possible changes at Stanford Stadium.	We're not aware of any possible changes at Stanford Stadium.	15404320	1472278484931	1472278485085	t	84
30289	324489	We're not aware of any possible changes at Stanford Stadium.	We're not aware of any possible changes at Stanford Stadium.	15404323	1472278485100	1472278485263	a	65
30289	324489	We're not aware of any possible changes at Stanford Stadium.	We're not aware of any possible changes at Stanford Stadium.	15404352	1472278485253	1472278485432	n	78
30289	324489	We're not aware of any possible changes at Stanford Stadium.	We're not aware of any possible changes at Stanford Stadium.	15404353	1472278485617	1472278485773	f	70
30289	324489	We're not aware of any possible changes at Stanford Stadium.	We're not aware of any possible changes at Stanford Stadium.	15404356	1472278485754	1472278485892	o	79
30289	324489	We're not aware of any possible changes at Stanford Stadium.	We're not aware of any possible changes at Stanford Stadium.	15404359	1472278485826	1472278485953	r	82
30289	324489	We're not aware of any possible changes at Stanford Stadium.	We're not aware of any possible changes at Stanford Stadium.	15404362	1472278486070	1472278486217	d	68
30289	324489	We're not aware of any possible changes at Stanford Stadium.	We're not aware of any possible changes at Stanford Stadium.	15404383	1472278486671	1472278486871	SHIFT	16
30289	324489	We're not aware of any possible changes at Stanford Stadium.	We're not aware of any possible changes at Stanford Stadium.	15404385	1472278486771	1472278486886	S	83
30289	324489	We're not aware of any possible changes at Stanford Stadium.	We're not aware of any possible changes at Stanford Stadium.	15404386	1472278486955	1472278487071	t	84
30289	324489	We're not aware of any possible changes at Stanford Stadium.	We're not aware of any possible changes at Stanford Stadium.	15404388	1472278487102	1472278487250	a	65
30289	324489	We're not aware of any possible changes at Stanford Stadium.	We're not aware of any possible changes at Stanford Stadium.	15404390	1472278487355	1472278487511	d	68
30289	324489	We're not aware of any possible changes at Stanford Stadium.	We're not aware of any possible changes at Stanford Stadium.	15404449	1472278487471	1472278487602	u	85
30289	324489	We're not aware of any possible changes at Stanford Stadium.	We're not aware of any possible changes at Stanford Stadium.	15404450	1472278487702	1472278487791	i	73
30289	324489	We're not aware of any possible changes at Stanford Stadium.	We're not aware of any possible changes at Stanford Stadium.	15404451	1472278488356	1472278488426	BKSP	8
30289	324489	We're not aware of any possible changes at Stanford Stadium.	We're not aware of any possible changes at Stanford Stadium.	15404452	1472278488487	1472278488572	BKSP	8
30289	324489	We're not aware of any possible changes at Stanford Stadium.	We're not aware of any possible changes at Stanford Stadium.	15404453	1472278488719	1472278488856	i	73
30289	324489	We're not aware of any possible changes at Stanford Stadium.	We're not aware of any possible changes at Stanford Stadium.	15404454	1472278488903	1472278489024	u	85
30289	324489	We're not aware of any possible changes at Stanford Stadium.	We're not aware of any possible changes at Stanford Stadium.	15404455	1472278489172	1472278489303	m	77
30289	324489	We're not aware of any possible changes at Stanford Stadium.	We're not aware of any possible changes at Stanford Stadium.	15404456	1472278489603	1472278489771	.	190
30289	324504	You have a lot of holes in your plan.	You have a lot of holes in your plan.	15404537	1472278492802	1472278492994	SHIFT	16
30289	324504	You have a lot of holes in your plan.	You have a lot of holes in your plan.	15404538	1472278492878	1472278493037	Y	89
30289	324504	You have a lot of holes in your plan.	You have a lot of holes in your plan.	15404540	1472278493025	1472278493224	o	79
30289	324504	You have a lot of holes in your plan.	You have a lot of holes in your plan.	15404543	1472278493125	1472278493251	u	85
30289	324504	You have a lot of holes in your plan.	You have a lot of holes in your plan.	15404564	1472278493240	1472278494064	 	32
30289	324504	You have a lot of holes in your plan.	You have a lot of holes in your plan.	15404549	1472278493441	1472278493593	h	72
30289	324504	You have a lot of holes in your plan.	You have a lot of holes in your plan.	15404553	1472278493540	1472278493694	a	65
30289	324504	You have a lot of holes in your plan.	You have a lot of holes in your plan.	15404557	1472278493663	1472278493779	v	86
30289	324504	You have a lot of holes in your plan.	You have a lot of holes in your plan.	15404561	1472278493826	1472278493946	e	69
30289	324504	You have a lot of holes in your plan.	You have a lot of holes in your plan.	15404571	1472278493942	1472278494387	 	32
30289	324504	You have a lot of holes in your plan.	You have a lot of holes in your plan.	15404565	1472278494124	1472278494264	a	65
30289	324504	You have a lot of holes in your plan.	You have a lot of holes in your plan.	15404576	1472278494211	1472278494906	 	32
30289	324504	You have a lot of holes in your plan.	You have a lot of holes in your plan.	15404572	1472278494359	1472278494464	l	76
30289	324504	You have a lot of holes in your plan.	You have a lot of holes in your plan.	15404573	1472278494542	1472278494663	o	79
30289	324504	You have a lot of holes in your plan.	You have a lot of holes in your plan.	15404574	1472278494641	1472278494775	t	84
30289	324504	You have a lot of holes in your plan.	You have a lot of holes in your plan.	15404605	1472278494756	1472278495243	 	32
30289	324504	You have a lot of holes in your plan.	You have a lot of holes in your plan.	15404599	1472278494880	1472278495045	o	79
30289	324504	You have a lot of holes in your plan.	You have a lot of holes in your plan.	15404602	1472278494995	1472278495133	f	70
30289	324504	You have a lot of holes in your plan.	You have a lot of holes in your plan.	15404613	1472278495096	1472278496209	 	32
30289	324504	You have a lot of holes in your plan.	You have a lot of holes in your plan.	15404606	1472278495295	1472278495467	h	72
30289	324504	You have a lot of holes in your plan.	You have a lot of holes in your plan.	15404608	1472278495427	1472278495564	o	79
30289	324504	You have a lot of holes in your plan.	You have a lot of holes in your plan.	15404610	1472278495611	1472278495764	l	76
30289	324504	You have a lot of holes in your plan.	You have a lot of holes in your plan.	15404611	1472278495708	1472278495826	e	69
30289	324504	You have a lot of holes in your plan.	You have a lot of holes in your plan.	15404612	1472278495927	1472278496064	s	83
30289	324504	You have a lot of holes in your plan.	You have a lot of holes in your plan.	15404651	1472278495993	1472278496509	 	32
30289	324504	You have a lot of holes in your plan.	You have a lot of holes in your plan.	15404614	1472278496152	1472278496364	i	73
30289	324504	You have a lot of holes in your plan.	You have a lot of holes in your plan.	15404615	1472278496264	1472278496428	n	78
30289	324504	You have a lot of holes in your plan.	You have a lot of holes in your plan.	15404661	1472278496395	1472278497064	 	32
30289	324504	You have a lot of holes in your plan.	You have a lot of holes in your plan.	15404654	1472278496561	1472278496714	y	89
30289	324504	You have a lot of holes in your plan.	You have a lot of holes in your plan.	15404658	1472278496696	1472278496895	o	79
30289	324504	You have a lot of holes in your plan.	You have a lot of holes in your plan.	15404659	1472278496795	1472278496970	u	85
30289	324504	You have a lot of holes in your plan.	You have a lot of holes in your plan.	15404680	1472278496927	1472278498011	 	32
30289	324504	You have a lot of holes in your plan.	You have a lot of holes in your plan.	15404662	1472278497343	1472278497425	BKSP	8
30289	324504	You have a lot of holes in your plan.	You have a lot of holes in your plan.	15404663	1472278497743	1472278497857	r	82
30289	324504	You have a lot of holes in your plan.	You have a lot of holes in your plan.	15404681	1472278498127	1472278498265	p	80
30289	324504	You have a lot of holes in your plan.	You have a lot of holes in your plan.	15404683	1472278498344	1472278498478	l	76
30289	324504	You have a lot of holes in your plan.	You have a lot of holes in your plan.	15404685	1472278498441	1472278498582	a	65
30289	324504	You have a lot of holes in your plan.	You have a lot of holes in your plan.	15404686	1472278498597	1472278498713	n	78
30289	324504	You have a lot of holes in your plan.	You have a lot of holes in your plan.	15404687	1472278498813	1472278498959	.	190
30289	324510	Call me if you have any questions.	Call me if you have any questions.	15404766	1472278501632	1472278501817	SHIFT	16
30289	324510	Call me if you have any questions.	Call me if you have any questions.	15404767	1472278501701	1472278501870	C	67
30289	324510	Call me if you have any questions.	Call me if you have any questions.	15404768	1472278501902	1472278502071	a	65
30289	324510	Call me if you have any questions.	Call me if you have any questions.	15404769	1472278501986	1472278502086	l	76
30289	324510	Call me if you have any questions.	Call me if you have any questions.	15404770	1472278502149	1472278502271	l	76
30289	324510	Call me if you have any questions.	Call me if you have any questions.	15404784	1472278502434	1472278503005	 	32
30289	324510	Call me if you have any questions.	Call me if you have any questions.	15404777	1472278502608	1472278502772	m	77
30289	324510	Call me if you have any questions.	Call me if you have any questions.	15404781	1472278502730	1472278502879	e	69
30289	324510	Call me if you have any questions.	Call me if you have any questions.	15404811	1472278502851	1472278503358	 	32
30289	324510	Call me if you have any questions.	Call me if you have any questions.	15404787	1472278502988	1472278503146	i	73
30289	324510	Call me if you have any questions.	Call me if you have any questions.	15404809	1472278503104	1472278503252	f	70
30289	324510	Call me if you have any questions.	Call me if you have any questions.	15404837	1472278503220	1472278503856	 	32
30289	324510	Call me if you have any questions.	Call me if you have any questions.	15404812	1472278503341	1472278503541	y	89
30289	324510	Call me if you have any questions.	Call me if you have any questions.	15404813	1472278503489	1472278503705	o	79
30289	324510	Call me if you have any questions.	Call me if you have any questions.	15404814	1472278503604	1472278503773	u	85
30289	324510	Call me if you have any questions.	Call me if you have any questions.	15404862	1472278503705	1472278504736	 	32
30289	324510	Call me if you have any questions.	Call me if you have any questions.	15404840	1472278504070	1472278504223	h	72
30289	324510	Call me if you have any questions.	Call me if you have any questions.	15404842	1472278504173	1472278504289	a	65
30289	324510	Call me if you have any questions.	Call me if you have any questions.	15404844	1472278504321	1472278504425	v	86
30289	324510	Call me if you have any questions.	Call me if you have any questions.	15404845	1472278504489	1472278504659	e	69
30289	324510	Call me if you have any questions.	Call me if you have any questions.	15404872	1472278504605	1472278505374	 	32
30289	324510	Call me if you have any questions.	Call me if you have any questions.	15404864	1472278504789	1472278504928	a	65
30289	324510	Call me if you have any questions.	Call me if you have any questions.	15404866	1472278504874	1472278504989	n	78
30289	324510	Call me if you have any questions.	Call me if you have any questions.	15404869	1472278505075	1472278505250	y	89
30289	324510	Call me if you have any questions.	Call me if you have any questions.	15404875	1472278505438	1472278505593	q	81
30289	324510	Call me if you have any questions.	Call me if you have any questions.	15404884	1472278505557	1472278505695	u	85
30289	324510	Call me if you have any questions.	Call me if you have any questions.	15404885	1472278505674	1472278505807	e	69
30289	324510	Call me if you have any questions.	Call me if you have any questions.	15404888	1472278505890	1472278506006	s	83
30289	324510	Call me if you have any questions.	Call me if you have any questions.	15404891	1472278506053	1472278506212	t	84
30289	324510	Call me if you have any questions.	Call me if you have any questions.	15404908	1472278506174	1472278506412	i	73
30289	324510	Call me if you have any questions.	Call me if you have any questions.	15404894	1472278506262	1472278506394	o	79
30289	324510	Call me if you have any questions.	Call me if you have any questions.	15404911	1472278506312	1472278506475	n	78
30289	324510	Call me if you have any questions.	Call me if you have any questions.	15404915	1472278506558	1472278506658	s	83
30289	324510	Call me if you have any questions.	Call me if you have any questions.	15404918	1472278506722	1472278506856	.	190
30289	324516	Song was vice minister of the geology and mineral resources minister.	Song was vice minister of the geology and mineral resources minster.	15405004	1472278509595	1472278509757	SHIFT	16
30289	324516	Song was vice minister of the geology and mineral resources minister.	Song was vice minister of the geology and mineral resources minster.	15405005	1472278509661	1472278509811	S	83
30289	324516	Song was vice minister of the geology and mineral resources minister.	Song was vice minister of the geology and mineral resources minster.	15405006	1472278509827	1472278510058	o	79
30289	324516	Song was vice minister of the geology and mineral resources minister.	Song was vice minister of the geology and mineral resources minster.	15405007	1472278509957	1472278510126	n	78
30289	324516	Song was vice minister of the geology and mineral resources minister.	Song was vice minister of the geology and mineral resources minster.	15405008	1472278510227	1472278510406	g	71
30289	324516	Song was vice minister of the geology and mineral resources minister.	Song was vice minister of the geology and mineral resources minster.	15405024	1472278510379	1472278511123	 	32
30289	324516	Song was vice minister of the geology and mineral resources minister.	Song was vice minister of the geology and mineral resources minster.	15405014	1472278510527	1472278510743	w	87
30289	324516	Song was vice minister of the geology and mineral resources minister.	Song was vice minister of the geology and mineral resources minster.	15405017	1472278510628	1472278510781	a	65
30289	324516	Song was vice minister of the geology and mineral resources minister.	Song was vice minister of the geology and mineral resources minster.	15405020	1472278510843	1472278510983	s	83
30289	324516	Song was vice minister of the geology and mineral resources minister.	Song was vice minister of the geology and mineral resources minster.	15405047	1472278510960	1472278511897	 	32
30289	324516	Song was vice minister of the geology and mineral resources minister.	Song was vice minister of the geology and mineral resources minster.	15405043	1472278511097	1472278511245	v	86
30289	324516	Song was vice minister of the geology and mineral resources minister.	Song was vice minister of the geology and mineral resources minster.	15405044	1472278511197	1472278511382	i	73
30289	324516	Song was vice minister of the geology and mineral resources minister.	Song was vice minister of the geology and mineral resources minster.	15405045	1472278511382	1472278511544	c	67
30289	324516	Song was vice minister of the geology and mineral resources minister.	Song was vice minister of the geology and mineral resources minster.	15405046	1472278511613	1472278511744	e	69
30289	324516	Song was vice minister of the geology and mineral resources minister.	Song was vice minister of the geology and mineral resources minster.	15405097	1472278511759	1472278513595	 	32
30289	324516	Song was vice minister of the geology and mineral resources minister.	Song was vice minister of the geology and mineral resources minster.	15405048	1472278512113	1472278512262	m	77
30289	324516	Song was vice minister of the geology and mineral resources minister.	Song was vice minister of the geology and mineral resources minster.	15405068	1472278512229	1472278512429	i	73
30289	324516	Song was vice minister of the geology and mineral resources minister.	Song was vice minister of the geology and mineral resources minster.	15405070	1472278512345	1472278512498	n	78
30289	324516	Song was vice minister of the geology and mineral resources minister.	Song was vice minister of the geology and mineral resources minster.	15405075	1472278512582	1472278512760	i	73
30289	324516	Song was vice minister of the geology and mineral resources minister.	Song was vice minister of the geology and mineral resources minster.	15405079	1472278512745	1472278512861	s	83
30289	324516	Song was vice minister of the geology and mineral resources minister.	Song was vice minister of the geology and mineral resources minster.	15405084	1472278512945	1472278513061	t	84
30289	324516	Song was vice minister of the geology and mineral resources minister.	Song was vice minister of the geology and mineral resources minster.	15405088	1472278513114	1472278513315	e	69
30289	324516	Song was vice minister of the geology and mineral resources minister.	Song was vice minister of the geology and mineral resources minster.	15405095	1472278513214	1472278513358	r	82
30289	324516	Song was vice minister of the geology and mineral resources minister.	Song was vice minister of the geology and mineral resources minster.	15405106	1472278513430	1472278513984	 	32
30289	324516	Song was vice minister of the geology and mineral resources minister.	Song was vice minister of the geology and mineral resources minster.	15405099	1472278513546	1472278513744	o	79
30289	324516	Song was vice minister of the geology and mineral resources minister.	Song was vice minister of the geology and mineral resources minster.	15405102	1472278513683	1472278513847	f	70
30289	324516	Song was vice minister of the geology and mineral resources minister.	Song was vice minister of the geology and mineral resources minster.	15405141	1472278513799	1472278514347	 	32
30289	324516	Song was vice minister of the geology and mineral resources minister.	Song was vice minister of the geology and mineral resources minster.	15405126	1472278513915	1472278514079	t	84
30289	324516	Song was vice minister of the geology and mineral resources minister.	Song was vice minister of the geology and mineral resources minster.	15405131	1472278514028	1472278514200	h	72
30289	324516	Song was vice minister of the geology and mineral resources minister.	Song was vice minister of the geology and mineral resources minster.	15405138	1472278514116	1472278514263	e	69
30289	324516	Song was vice minister of the geology and mineral resources minister.	Song was vice minister of the geology and mineral resources minster.	15405195	1472278514216	1472278516049	 	32
30289	324516	Song was vice minister of the geology and mineral resources minister.	Song was vice minister of the geology and mineral resources minster.	15405144	1472278514448	1472278514601	g	71
30289	324516	Song was vice minister of the geology and mineral resources minister.	Song was vice minister of the geology and mineral resources minster.	15405146	1472278514632	1472278514758	e	69
30289	324516	Song was vice minister of the geology and mineral resources minister.	Song was vice minister of the geology and mineral resources minster.	15405172	1472278514932	1472278515086	o	79
30289	324516	Song was vice minister of the geology and mineral resources minister.	Song was vice minister of the geology and mineral resources minster.	15405175	1472278515217	1472278515317	l	76
30289	324516	Song was vice minister of the geology and mineral resources minister.	Song was vice minister of the geology and mineral resources minster.	15405179	1472278515417	1472278515555	o	79
30289	324516	Song was vice minister of the geology and mineral resources minister.	Song was vice minister of the geology and mineral resources minster.	15405182	1472278515517	1472278515664	g	71
30289	324516	Song was vice minister of the geology and mineral resources minister.	Song was vice minister of the geology and mineral resources minster.	15405185	1472278515685	1472278515832	y	89
30289	324516	Song was vice minister of the geology and mineral resources minister.	Song was vice minister of the geology and mineral resources minster.	15405230	1472278515917	1472278516586	 	32
30289	324516	Song was vice minister of the geology and mineral resources minister.	Song was vice minister of the geology and mineral resources minster.	15405198	1472278516117	1472278516245	a	65
30289	324516	Song was vice minister of the geology and mineral resources minister.	Song was vice minister of the geology and mineral resources minster.	15405200	1472278516217	1472278516362	n	78
30289	324516	Song was vice minister of the geology and mineral resources minister.	Song was vice minister of the geology and mineral resources minster.	15405202	1472278516317	1472278516476	d	68
30289	324516	Song was vice minister of the geology and mineral resources minister.	Song was vice minister of the geology and mineral resources minster.	15405278	1472278516402	1472278517986	 	32
30289	324516	Song was vice minister of the geology and mineral resources minister.	Song was vice minister of the geology and mineral resources minster.	15405231	1472278516534	1472278516722	m	77
30289	324516	Song was vice minister of the geology and mineral resources minister.	Song was vice minister of the geology and mineral resources minster.	15405232	1472278516702	1472278516887	i	73
30289	324516	Song was vice minister of the geology and mineral resources minister.	Song was vice minister of the geology and mineral resources minster.	15405233	1472278516903	1472278517080	n	78
30289	324516	Song was vice minister of the geology and mineral resources minister.	Song was vice minister of the geology and mineral resources minster.	15405234	1472278517034	1472278517281	e	69
30289	324516	Song was vice minister of the geology and mineral resources minister.	Song was vice minister of the geology and mineral resources minster.	15405271	1472278517218	1472278517307	r	82
30289	324516	Song was vice minister of the geology and mineral resources minister.	Song was vice minister of the geology and mineral resources minster.	15405273	1472278517487	1472278517618	a	65
30289	324516	Song was vice minister of the geology and mineral resources minister.	Song was vice minister of the geology and mineral resources minster.	15405275	1472278517649	1472278517783	l	76
30289	324516	Song was vice minister of the geology and mineral resources minister.	Song was vice minister of the geology and mineral resources minster.	15405424	1472278517849	1472278519837	 	32
30289	324516	Song was vice minister of the geology and mineral resources minister.	Song was vice minister of the geology and mineral resources minster.	15405281	1472278518103	1472278518287	r	82
30289	324516	Song was vice minister of the geology and mineral resources minister.	Song was vice minister of the geology and mineral resources minster.	15405326	1472278518234	1472278518404	e	69
30289	324516	Song was vice minister of the geology and mineral resources minister.	Song was vice minister of the geology and mineral resources minster.	15405328	1472278518466	1472278518631	s	83
30289	324516	Song was vice minister of the geology and mineral resources minister.	Song was vice minister of the geology and mineral resources minster.	15405331	1472278518587	1472278518775	o	79
30289	324516	Song was vice minister of the geology and mineral resources minister.	Song was vice minister of the geology and mineral resources minster.	15405333	1472278518653	1472278518780	u	85
30289	324516	Song was vice minister of the geology and mineral resources minister.	Song was vice minister of the geology and mineral resources minster.	15405335	1472278518819	1472278518919	r	82
30289	324516	Song was vice minister of the geology and mineral resources minister.	Song was vice minister of the geology and mineral resources minster.	15405336	1472278519152	1472278519282	c	67
30289	324516	Song was vice minister of the geology and mineral resources minister.	Song was vice minister of the geology and mineral resources minster.	15405422	1472278519355	1472278519481	e	69
30289	324516	Song was vice minister of the geology and mineral resources minister.	Song was vice minister of the geology and mineral resources minster.	15405423	1472278519537	1472278519677	s	83
30289	324516	Song was vice minister of the geology and mineral resources minister.	Song was vice minister of the geology and mineral resources minster.	15405426	1472278520007	1472278520308	i	73
30289	324516	Song was vice minister of the geology and mineral resources minister.	Song was vice minister of the geology and mineral resources minster.	15405430	1472278520671	1472278520759	BKSP	8
30289	324516	Song was vice minister of the geology and mineral resources minister.	Song was vice minister of the geology and mineral resources minster.	15405434	1472278521141	1472278521314	m	77
30289	324516	Song was vice minister of the geology and mineral resources minister.	Song was vice minister of the geology and mineral resources minster.	15405484	1472278521257	1472278521478	i	73
30289	324516	Song was vice minister of the geology and mineral resources minister.	Song was vice minister of the geology and mineral resources minster.	15405485	1472278521410	1472278521557	n	78
30289	324516	Song was vice minister of the geology and mineral resources minister.	Song was vice minister of the geology and mineral resources minster.	15405486	1472278521573	1472278521677	s	83
30289	324516	Song was vice minister of the geology and mineral resources minister.	Song was vice minister of the geology and mineral resources minster.	15405487	1472278521874	1472278522011	t	84
30289	324516	Song was vice minister of the geology and mineral resources minister.	Song was vice minister of the geology and mineral resources minster.	15405488	1472278522058	1472278522242	e	69
30289	324516	Song was vice minister of the geology and mineral resources minister.	Song was vice minister of the geology and mineral resources minster.	15405517	1472278522145	1472278522295	r	82
30289	324516	Song was vice minister of the geology and mineral resources minister.	Song was vice minister of the geology and mineral resources minster.	15405520	1472278522995	1472278523142	.	190
30289	324527	Steve Gilbert is working on this.	Steve Gilbert is working on this.	15405668	1472278525588	1472278525794	SHIFT	16
30289	324527	Steve Gilbert is working on this.	Steve Gilbert is working on this.	15405672	1472278525667	1472278525821	S	83
30289	324527	Steve Gilbert is working on this.	Steve Gilbert is working on this.	15405675	1472278525906	1472278526038	t	84
30289	324527	Steve Gilbert is working on this.	Steve Gilbert is working on this.	15405681	1472278526069	1472278526207	e	69
30289	324527	Steve Gilbert is working on this.	Steve Gilbert is working on this.	15405685	1472278526307	1472278526406	v	86
30289	324527	Steve Gilbert is working on this.	Steve Gilbert is working on this.	15405691	1472278526454	1472278526570	e	69
30289	324527	Steve Gilbert is working on this.	Steve Gilbert is working on this.	15405749	1472278526587	1472278528547	 	32
30289	324527	Steve Gilbert is working on this.	Steve Gilbert is working on this.	15405715	1472278526923	1472278527139	SHIFT	16
30289	324527	Steve Gilbert is working on this.	Steve Gilbert is working on this.	15405717	1472278527039	1472278527215	G	71
30289	324527	Steve Gilbert is working on this.	Steve Gilbert is working on this.	15405719	1472278527207	1472278527340	i	73
30289	324527	Steve Gilbert is working on this.	Steve Gilbert is working on this.	15405722	1472278527405	1472278527541	l	76
30289	324527	Steve Gilbert is working on this.	Steve Gilbert is working on this.	15405725	1472278527573	1472278527710	b	66
30289	324527	Steve Gilbert is working on this.	Steve Gilbert is working on this.	15405745	1472278527792	1472278527992	e	69
30289	324527	Steve Gilbert is working on this.	Steve Gilbert is working on this.	15405746	1472278527877	1472278528042	r	82
30289	324527	Steve Gilbert is working on this.	Steve Gilbert is working on this.	15405747	1472278528158	1472278528277	t	84
30289	324527	Steve Gilbert is working on this.	Steve Gilbert is working on this.	15405763	1472278528359	1472278528845	 	32
30289	324527	Steve Gilbert is working on this.	Steve Gilbert is working on this.	15405761	1472278528494	1472278528676	i	73
30289	324527	Steve Gilbert is working on this.	Steve Gilbert is working on this.	15405762	1472278528596	1472278528724	s	83
30289	324527	Steve Gilbert is working on this.	Steve Gilbert is working on this.	15405862	1472278528692	1472278531745	 	32
30289	324527	Steve Gilbert is working on this.	Steve Gilbert is working on this.	15405764	1472278528828	1472278528979	w	87
30289	324527	Steve Gilbert is working on this.	Steve Gilbert is working on this.	15405765	1472278528928	1472278529064	o	79
30289	324527	Steve Gilbert is working on this.	Steve Gilbert is working on this.	15405787	1472278529044	1472278529174	r	82
30289	324527	Steve Gilbert is working on this.	Steve Gilbert is working on this.	15405788	1472278529190	1472278529294	k	75
30289	324527	Steve Gilbert is working on this.	Steve Gilbert is working on this.	15405789	1472278529376	1472278529576	i	73
30289	324527	Steve Gilbert is working on this.	Steve Gilbert is working on this.	15405790	1472278529460	1472278529646	n	78
30289	324527	Steve Gilbert is working on this.	Steve Gilbert is working on this.	15405791	1472278529589	1472278529730	g	71
30289	324527	Steve Gilbert is working on this.	Steve Gilbert is working on this.	15405855	1472278531347	1472278531547	o	79
30289	324527	Steve Gilbert is working on this.	Steve Gilbert is working on this.	15405858	1472278531462	1472278531616	n	78
30289	324527	Steve Gilbert is working on this.	Steve Gilbert is working on this.	15405865	1472278531732	1472278531898	t	84
30289	324527	Steve Gilbert is working on this.	Steve Gilbert is working on this.	15405867	1472278531848	1472278531995	h	72
30289	324527	Steve Gilbert is working on this.	Steve Gilbert is working on this.	15405871	1472278532063	1472278532216	s	83
30289	324527	Steve Gilbert is working on this.	Steve Gilbert is working on this.	15405915	1472278532817	1472278532911	BKSP	8
30289	324527	Steve Gilbert is working on this.	Steve Gilbert is working on this.	15405917	1472278533081	1472278533211	i	73
30289	324527	Steve Gilbert is working on this.	Steve Gilbert is working on this.	15405918	1472278533218	1472278533365	s	83
30289	324527	Steve Gilbert is working on this.	Steve Gilbert is working on this.	15405920	1472278533381	1472278533519	.	190
30289	324536	Lynn checked with Fran and she told her coordinator.	Lynn checked with Fran and she told her coordinator.	15406057	1472278536441	1472278536631	SHIFT	16
30289	324536	Lynn checked with Fran and she told her coordinator.	Lynn checked with Fran and she told her coordinator.	15406059	1472278536515	1472278536679	L	76
30289	324536	Lynn checked with Fran and she told her coordinator.	Lynn checked with Fran and she told her coordinator.	15406062	1472278536672	1472278536803	y	89
30289	324536	Lynn checked with Fran and she told her coordinator.	Lynn checked with Fran and she told her coordinator.	15406064	1472278536949	1472278537048	n	78
30289	324536	Lynn checked with Fran and she told her coordinator.	Lynn checked with Fran and she told her coordinator.	15406066	1472278537124	1472278537233	n	78
30289	324536	Lynn checked with Fran and she told her coordinator.	Lynn checked with Fran and she told her coordinator.	15406113	1472278537247	1472278538759	 	32
30289	324536	Lynn checked with Fran and she told her coordinator.	Lynn checked with Fran and she told her coordinator.	15406089	1472278537620	1472278537751	c	67
30289	324536	Lynn checked with Fran and she told her coordinator.	Lynn checked with Fran and she told her coordinator.	15406091	1472278537731	1472278537876	h	72
30289	324536	Lynn checked with Fran and she told her coordinator.	Lynn checked with Fran and she told her coordinator.	15406093	1472278537865	1472278537983	e	69
30289	324536	Lynn checked with Fran and she told her coordinator.	Lynn checked with Fran and she told her coordinator.	15406094	1472278538089	1472278538238	c	67
30289	324536	Lynn checked with Fran and she told her coordinator.	Lynn checked with Fran and she told her coordinator.	15406110	1472278538224	1472278538359	k	75
30289	324536	Lynn checked with Fran and she told her coordinator.	Lynn checked with Fran and she told her coordinator.	15406111	1472278538321	1472278538434	e	69
30289	324536	Lynn checked with Fran and she told her coordinator.	Lynn checked with Fran and she told her coordinator.	15406112	1472278538512	1472278538658	d	68
30289	324536	Lynn checked with Fran and she told her coordinator.	Lynn checked with Fran and she told her coordinator.	15406148	1472278538616	1472278539330	 	32
30289	324536	Lynn checked with Fran and she told her coordinator.	Lynn checked with Fran and she told her coordinator.	15406114	1472278538777	1472278538922	w	87
30289	324536	Lynn checked with Fran and she told her coordinator.	Lynn checked with Fran and she told her coordinator.	15406141	1472278538847	1472278539020	i	73
30289	324536	Lynn checked with Fran and she told her coordinator.	Lynn checked with Fran and she told her coordinator.	15406144	1472278538991	1472278539135	t	84
30289	324536	Lynn checked with Fran and she told her coordinator.	Lynn checked with Fran and she told her coordinator.	15406146	1472278539075	1472278539219	h	72
30289	324536	Lynn checked with Fran and she told her coordinator.	Lynn checked with Fran and she told her coordinator.	15406159	1472278539181	1472278540276	 	32
30289	324536	Lynn checked with Fran and she told her coordinator.	Lynn checked with Fran and she told her coordinator.	15406151	1472278539510	1472278539704	SHIFT	16
30289	324536	Lynn checked with Fran and she told her coordinator.	Lynn checked with Fran and she told her coordinator.	15406150	1472278539538	1472278539630	F	70
30289	324536	Lynn checked with Fran and she told her coordinator.	Lynn checked with Fran and she told her coordinator.	15406153	1472278539712	1472278539856	r	82
30289	324536	Lynn checked with Fran and she told her coordinator.	Lynn checked with Fran and she told her coordinator.	15406155	1472278539876	1472278540049	a	65
30289	324536	Lynn checked with Fran and she told her coordinator.	Lynn checked with Fran and she told her coordinator.	15406157	1472278539988	1472278540179	n	78
30289	324536	Lynn checked with Fran and she told her coordinator.	Lynn checked with Fran and she told her coordinator.	15406172	1472278540136	1472278540671	 	32
30289	324536	Lynn checked with Fran and she told her coordinator.	Lynn checked with Fran and she told her coordinator.	15406161	1472278540252	1472278540378	a	65
30289	324536	Lynn checked with Fran and she told her coordinator.	Lynn checked with Fran and she told her coordinator.	15406169	1472278540349	1472278540499	n	78
30289	324536	Lynn checked with Fran and she told her coordinator.	Lynn checked with Fran and she told her coordinator.	15406171	1472278540452	1472278540578	d	68
30289	324536	Lynn checked with Fran and she told her coordinator.	Lynn checked with Fran and she told her coordinator.	15406193	1472278540563	1472278541118	 	32
30289	324536	Lynn checked with Fran and she told her coordinator.	Lynn checked with Fran and she told her coordinator.	15406173	1472278540661	1472278540801	s	83
30289	324536	Lynn checked with Fran and she told her coordinator.	Lynn checked with Fran and she told her coordinator.	15406174	1472278540745	1472278540880	h	72
30289	324536	Lynn checked with Fran and she told her coordinator.	Lynn checked with Fran and she told her coordinator.	15406192	1472278540823	1472278540954	e	69
30289	324536	Lynn checked with Fran and she told her coordinator.	Lynn checked with Fran and she told her coordinator.	15406222	1472278540967	1472278541735	 	32
30289	324536	Lynn checked with Fran and she told her coordinator.	Lynn checked with Fran and she told her coordinator.	15406195	1472278541069	1472278541220	t	84
30289	324536	Lynn checked with Fran and she told her coordinator.	Lynn checked with Fran and she told her coordinator.	15406196	1472278541168	1472278541271	o	79
30289	324536	Lynn checked with Fran and she told her coordinator.	Lynn checked with Fran and she told her coordinator.	15406198	1472278541354	1472278541465	l	76
30289	324536	Lynn checked with Fran and she told her coordinator.	Lynn checked with Fran and she told her coordinator.	15406220	1472278541442	1472278541582	d	68
30289	324536	Lynn checked with Fran and she told her coordinator.	Lynn checked with Fran and she told her coordinator.	15406269	1472278541613	1472278542228	 	32
30289	324536	Lynn checked with Fran and she told her coordinator.	Lynn checked with Fran and she told her coordinator.	15406224	1472278541763	1472278541917	h	72
30289	324536	Lynn checked with Fran and she told her coordinator.	Lynn checked with Fran and she told her coordinator.	15406227	1472278541870	1472278542038	e	69
30289	324536	Lynn checked with Fran and she told her coordinator.	Lynn checked with Fran and she told her coordinator.	15406230	1472278541962	1472278542098	r	82
30289	324536	Lynn checked with Fran and she told her coordinator.	Lynn checked with Fran and she told her coordinator.	15406270	1472278542401	1472278542489	o	79
30289	324536	Lynn checked with Fran and she told her coordinator.	Lynn checked with Fran and she told her coordinator.	15406271	1472278542743	1472278542804	BKSP	8
30289	324536	Lynn checked with Fran and she told her coordinator.	Lynn checked with Fran and she told her coordinator.	15406272	1472278542868	1472278543014	c	67
30289	324536	Lynn checked with Fran and she told her coordinator.	Lynn checked with Fran and she told her coordinator.	15406273	1472278542987	1472278543094	o	79
30289	324536	Lynn checked with Fran and she told her coordinator.	Lynn checked with Fran and she told her coordinator.	15406274	1472278543204	1472278543295	o	79
30289	324536	Lynn checked with Fran and she told her coordinator.	Lynn checked with Fran and she told her coordinator.	15406275	1472278543761	1472278543895	r	82
30289	324536	Lynn checked with Fran and she told her coordinator.	Lynn checked with Fran and she told her coordinator.	15406287	1472278544061	1472278544201	d	68
30289	324536	Lynn checked with Fran and she told her coordinator.	Lynn checked with Fran and she told her coordinator.	15406289	1472278544191	1472278544419	i	73
30289	324536	Lynn checked with Fran and she told her coordinator.	Lynn checked with Fran and she told her coordinator.	15406291	1472278544331	1472278544485	n	78
30289	324536	Lynn checked with Fran and she told her coordinator.	Lynn checked with Fran and she told her coordinator.	15406294	1472278544465	1472278544610	a	65
30289	324536	Lynn checked with Fran and she told her coordinator.	Lynn checked with Fran and she told her coordinator.	15406296	1472278544816	1472278544945	t	84
30289	324536	Lynn checked with Fran and she told her coordinator.	Lynn checked with Fran and she told her coordinator.	15406305	1472278544988	1472278545124	o	79
30289	324536	Lynn checked with Fran and she told her coordinator.	Lynn checked with Fran and she told her coordinator.	15406306	1472278545092	1472278545216	r	82
30289	324536	Lynn checked with Fran and she told her coordinator.	Lynn checked with Fran and she told her coordinator.	15406307	1472278545298	1472278545411	.	190
30289	324543	You have 6 active players at position WR.	You have 6 active players at position WR.	15406346	1472278548864	1472278549060	SHIFT	16
30289	324543	You have 6 active players at position WR.	You have 6 active players at position WR.	15406348	1472278548942	1472278549083	Y	89
30289	324543	You have 6 active players at position WR.	You have 6 active players at position WR.	15406350	1472278549069	1472278549301	o	79
30289	324543	You have 6 active players at position WR.	You have 6 active players at position WR.	15406352	1472278549175	1472278549316	u	85
30289	324543	You have 6 active players at position WR.	You have 6 active players at position WR.	15406374	1472278549258	1472278550071	 	32
30289	324543	You have 6 active players at position WR.	You have 6 active players at position WR.	15406362	1472278549412	1472278549594	h	72
30289	324543	You have 6 active players at position WR.	You have 6 active players at position WR.	15406364	1472278549504	1472278549651	a	65
30289	324543	You have 6 active players at position WR.	You have 6 active players at position WR.	15406367	1472278549649	1472278549760	v	86
30289	324543	You have 6 active players at position WR.	You have 6 active players at position WR.	15406371	1472278549798	1472278549936	e	69
30289	324543	You have 6 active players at position WR.	You have 6 active players at position WR.	15406415	1472278549909	1472278551379	 	32
30289	324543	You have 6 active players at position WR.	You have 6 active players at position WR.	15406377	1472278550122	1472278550229	4	52
30289	324543	You have 6 active players at position WR.	You have 6 active players at position WR.	15406413	1472278550461	1472278550568	BKSP	8
30289	324543	You have 6 active players at position WR.	You have 6 active players at position WR.	15406414	1472278551022	1472278551125	6	54
30289	324543	You have 6 active players at position WR.	You have 6 active players at position WR.	15406442	1472278551247	1472278552608	 	32
30289	324543	You have 6 active players at position WR.	You have 6 active players at position WR.	15406416	1472278551470	1472278551600	a	65
30289	324543	You have 6 active players at position WR.	You have 6 active players at position WR.	15406417	1472278551698	1472278551856	c	67
30289	324543	You have 6 active players at position WR.	You have 6 active players at position WR.	15406418	1472278551951	1472278552073	t	84
30289	324543	You have 6 active players at position WR.	You have 6 active players at position WR.	15406437	1472278552071	1472278552248	i	73
30289	324543	You have 6 active players at position WR.	You have 6 active players at position WR.	15406439	1472278552201	1472278552314	v	86
30289	324543	You have 6 active players at position WR.	You have 6 active players at position WR.	15406441	1472278552359	1472278552487	e	69
30289	324543	You have 6 active players at position WR.	You have 6 active players at position WR.	15406509	1472278552462	1472278555049	 	32
30289	324543	You have 6 active players at position WR.	You have 6 active players at position WR.	15406443	1472278552573	1472278552743	p	80
30289	324543	You have 6 active players at position WR.	You have 6 active players at position WR.	15406444	1472278552766	1472278552928	l	76
30289	324543	You have 6 active players at position WR.	You have 6 active players at position WR.	15406478	1472278552900	1472278553055	a	65
30289	324543	You have 6 active players at position WR.	You have 6 active players at position WR.	15406479	1472278553030	1472278553175	y	89
30289	324543	You have 6 active players at position WR.	You have 6 active players at position WR.	15406480	1472278553568	1472278553740	e	69
30289	324543	You have 6 active players at position WR.	You have 6 active players at position WR.	15406481	1472278553666	1472278553829	r	82
30289	324543	You have 6 active players at position WR.	You have 6 active players at position WR.	15406482	1472278554022	1472278554157	s	83
30289	324543	You have 6 active players at position WR.	You have 6 active players at position WR.	15406483	1472278554398	1472278554518	a	65
30289	324543	You have 6 active players at position WR.	You have 6 active players at position WR.	15406508	1472278554745	1472278554872	BKSP	8
30289	324543	You have 6 active players at position WR.	You have 6 active players at position WR.	15406515	1472278554919	1472278555427	 	32
30289	324543	You have 6 active players at position WR.	You have 6 active players at position WR.	15406511	1472278555016	1472278555152	a	65
30289	324543	You have 6 active players at position WR.	You have 6 active players at position WR.	15406513	1472278555176	1472278555293	t	84
30289	324543	You have 6 active players at position WR.	You have 6 active players at position WR.	15406582	1472278555286	1472278556821	 	32
30289	324543	You have 6 active players at position WR.	You have 6 active players at position WR.	15406518	1472278555507	1472278555667	p	80
30289	324543	You have 6 active players at position WR.	You have 6 active players at position WR.	15406530	1472278555643	1472278555816	o	79
30289	324543	You have 6 active players at position WR.	You have 6 active players at position WR.	15406531	1472278555824	1472278555957	s	83
30289	324543	You have 6 active players at position WR.	You have 6 active players at position WR.	15406532	1472278555965	1472278556130	i	73
30289	324543	You have 6 active players at position WR.	You have 6 active players at position WR.	15406533	1472278556144	1472278556272	t	84
30289	324543	You have 6 active players at position WR.	You have 6 active players at position WR.	15406534	1472278556269	1472278556573	i	73
30289	324543	You have 6 active players at position WR.	You have 6 active players at position WR.	15406578	1472278556381	1472278556578	o	79
30289	324543	You have 6 active players at position WR.	You have 6 active players at position WR.	15406580	1472278556471	1472278556690	n	78
30289	324543	You have 6 active players at position WR.	You have 6 active players at position WR.	15406585	1472278556960	1472278557637	SHIFT	16
30289	324543	You have 6 active players at position WR.	You have 6 active players at position WR.	15406584	1472278557122	1472278557223	@	50
30289	324543	You have 6 active players at position WR.	You have 6 active players at position WR.	15406586	1472278557799	1472278557883	BKSP	8
30289	324543	You have 6 active players at position WR.	You have 6 active players at position WR.	15406588	1472278558212	1472278558658	SHIFT	16
30289	324543	You have 6 active players at position WR.	You have 6 active players at position WR.	15406587	1472278558317	1472278558457	W	87
30289	324543	You have 6 active players at position WR.	You have 6 active players at position WR.	15406589	1472278558544	1472278558691	R	82
30289	324543	You have 6 active players at position WR.	You have 6 active players at position WR.	15406590	1472278558878	1472278559016	.	190
30289	324549	The Philippines censorship board voted to cut certain scenes.	The Pillippines censorship board voted to cut certain scenes.	15406675	1472278563647	1472278563815	SHIFT	16
30289	324549	The Philippines censorship board voted to cut certain scenes.	The Pillippines censorship board voted to cut certain scenes.	15406677	1472278563740	1472278563893	T	84
30289	324549	The Philippines censorship board voted to cut certain scenes.	The Pillippines censorship board voted to cut certain scenes.	15406679	1472278563866	1472278564001	h	72
30289	324549	The Philippines censorship board voted to cut certain scenes.	The Pillippines censorship board voted to cut certain scenes.	15406681	1472278563968	1472278564075	e	69
30289	324549	The Philippines censorship board voted to cut certain scenes.	The Pillippines censorship board voted to cut certain scenes.	15406732	1472278564037	1472278566742	 	32
30289	324549	The Philippines censorship board voted to cut certain scenes.	The Pillippines censorship board voted to cut certain scenes.	15406683	1472278564474	1472278564678	SHIFT	16
30289	324549	The Philippines censorship board voted to cut certain scenes.	The Pillippines censorship board voted to cut certain scenes.	15406685	1472278564567	1472278564758	P	80
30289	324549	The Philippines censorship board voted to cut certain scenes.	The Pillippines censorship board voted to cut certain scenes.	15406687	1472278564723	1472278564881	i	73
30289	324549	The Philippines censorship board voted to cut certain scenes.	The Pillippines censorship board voted to cut certain scenes.	15406690	1472278564959	1472278565051	l	76
30289	324549	The Philippines censorship board voted to cut certain scenes.	The Pillippines censorship board voted to cut certain scenes.	15406693	1472278565112	1472278565256	l	76
30289	324549	The Philippines censorship board voted to cut certain scenes.	The Pillippines censorship board voted to cut certain scenes.	15406696	1472278565248	1472278565388	i	73
30289	324549	The Philippines censorship board voted to cut certain scenes.	The Pillippines censorship board voted to cut certain scenes.	15406699	1472278565449	1472278565597	p	80
30289	324549	The Philippines censorship board voted to cut certain scenes.	The Pillippines censorship board voted to cut certain scenes.	15406706	1472278565701	1472278565870	p	80
30289	324549	The Philippines censorship board voted to cut certain scenes.	The Pillippines censorship board voted to cut certain scenes.	15406707	1472278565919	1472278566103	i	73
30289	324549	The Philippines censorship board voted to cut certain scenes.	The Pillippines censorship board voted to cut certain scenes.	15406708	1472278566111	1472278566277	n	78
30289	324549	The Philippines censorship board voted to cut certain scenes.	The Pillippines censorship board voted to cut certain scenes.	15406709	1472278566245	1472278566375	e	69
30289	324549	The Philippines censorship board voted to cut certain scenes.	The Pillippines censorship board voted to cut certain scenes.	15406710	1472278566445	1472278566588	s	83
30289	324549	The Philippines censorship board voted to cut certain scenes.	The Pillippines censorship board voted to cut certain scenes.	15406808	1472278566597	1472278569480	 	32
30289	324549	The Philippines censorship board voted to cut certain scenes.	The Pillippines censorship board voted to cut certain scenes.	15406733	1472278566801	1472278566932	c	67
30289	324549	The Philippines censorship board voted to cut certain scenes.	The Pillippines censorship board voted to cut certain scenes.	15406734	1472278567002	1472278567135	e	69
30289	324549	The Philippines censorship board voted to cut certain scenes.	The Pillippines censorship board voted to cut certain scenes.	15406735	1472278567144	1472278567284	n	78
30289	324549	The Philippines censorship board voted to cut certain scenes.	The Pillippines censorship board voted to cut certain scenes.	15406736	1472278567299	1472278567446	s	83
30289	324549	The Philippines censorship board voted to cut certain scenes.	The Pillippines censorship board voted to cut certain scenes.	15406773	1472278567409	1472278567559	o	79
30289	324549	The Philippines censorship board voted to cut certain scenes.	The Pillippines censorship board voted to cut certain scenes.	15406774	1472278567572	1472278567711	r	82
30289	324549	The Philippines censorship board voted to cut certain scenes.	The Pillippines censorship board voted to cut certain scenes.	15406775	1472278568600	1472278568729	s	83
30289	324549	The Philippines censorship board voted to cut certain scenes.	The Pillippines censorship board voted to cut certain scenes.	15406776	1472278568712	1472278568863	h	72
30289	324549	The Philippines censorship board voted to cut certain scenes.	The Pillippines censorship board voted to cut certain scenes.	15406777	1472278568855	1472278568982	i	73
30289	324549	The Philippines censorship board voted to cut certain scenes.	The Pillippines censorship board voted to cut certain scenes.	15406778	1472278569119	1472278569318	p	80
30289	324549	The Philippines censorship board voted to cut certain scenes.	The Pillippines censorship board voted to cut certain scenes.	15406832	1472278569307	1472278570458	 	32
30289	324549	The Philippines censorship board voted to cut certain scenes.	The Pillippines censorship board voted to cut certain scenes.	15406810	1472278569525	1472278569702	b	66
30289	324549	The Philippines censorship board voted to cut certain scenes.	The Pillippines censorship board voted to cut certain scenes.	15406812	1472278569639	1472278569809	o	79
30289	324549	The Philippines censorship board voted to cut certain scenes.	The Pillippines censorship board voted to cut certain scenes.	15406814	1472278569715	1472278569893	a	65
30289	324549	The Philippines censorship board voted to cut certain scenes.	The Pillippines censorship board voted to cut certain scenes.	15406816	1472278569943	1472278570079	r	82
30289	324549	The Philippines censorship board voted to cut certain scenes.	The Pillippines censorship board voted to cut certain scenes.	15406818	1472278570166	1472278570425	d	68
30289	324549	The Philippines censorship board voted to cut certain scenes.	The Pillippines censorship board voted to cut certain scenes.	15406847	1472278570304	1472278571601	 	32
30289	324549	The Philippines censorship board voted to cut certain scenes.	The Pillippines censorship board voted to cut certain scenes.	15406834	1472278570513	1472278570647	v	86
30289	324549	The Philippines censorship board voted to cut certain scenes.	The Pillippines censorship board voted to cut certain scenes.	15406836	1472278570593	1472278570753	o	79
30289	324549	The Philippines censorship board voted to cut certain scenes.	The Pillippines censorship board voted to cut certain scenes.	15406840	1472278570843	1472278570993	t	84
30289	324549	The Philippines censorship board voted to cut certain scenes.	The Pillippines censorship board voted to cut certain scenes.	15406842	1472278571018	1472278571135	e	69
30289	324549	The Philippines censorship board voted to cut certain scenes.	The Pillippines censorship board voted to cut certain scenes.	15406844	1472278571217	1472278571339	d	68
30289	324549	The Philippines censorship board voted to cut certain scenes.	The Pillippines censorship board voted to cut certain scenes.	15406850	1472278571396	1472278571855	 	32
30289	324549	The Philippines censorship board voted to cut certain scenes.	The Pillippines censorship board voted to cut certain scenes.	15406848	1472278571466	1472278571627	t	84
30289	324549	The Philippines censorship board voted to cut certain scenes.	The Pillippines censorship board voted to cut certain scenes.	15406849	1472278571605	1472278571791	o	79
30289	324549	The Philippines censorship board voted to cut certain scenes.	The Pillippines censorship board voted to cut certain scenes.	15406873	1472278571693	1472278572407	 	32
30289	324549	The Philippines censorship board voted to cut certain scenes.	The Pillippines censorship board voted to cut certain scenes.	15406870	1472278571846	1472278572018	c	67
30289	324549	The Philippines censorship board voted to cut certain scenes.	The Pillippines censorship board voted to cut certain scenes.	15406871	1472278571954	1472278572136	u	85
30289	324549	The Philippines censorship board voted to cut certain scenes.	The Pillippines censorship board voted to cut certain scenes.	15406872	1472278572127	1472278572281	t	84
30289	324549	The Philippines censorship board voted to cut certain scenes.	The Pillippines censorship board voted to cut certain scenes.	15406916	1472278572232	1472278573692	 	32
30289	324549	The Philippines censorship board voted to cut certain scenes.	The Pillippines censorship board voted to cut certain scenes.	15406874	1472278572453	1472278572584	c	67
30289	324549	The Philippines censorship board voted to cut certain scenes.	The Pillippines censorship board voted to cut certain scenes.	15406875	1472278572658	1472278572855	e	69
30289	324549	The Philippines censorship board voted to cut certain scenes.	The Pillippines censorship board voted to cut certain scenes.	15406883	1472278572753	1472278572925	r	82
30289	324549	The Philippines censorship board voted to cut certain scenes.	The Pillippines censorship board voted to cut certain scenes.	15406886	1472278572999	1472278573167	t	84
30289	324549	The Philippines censorship board voted to cut certain scenes.	The Pillippines censorship board voted to cut certain scenes.	15406890	1472278573180	1472278573356	a	65
30289	324549	The Philippines censorship board voted to cut certain scenes.	The Pillippines censorship board voted to cut certain scenes.	15406893	1472278573309	1472278573527	i	73
30289	324549	The Philippines censorship board voted to cut certain scenes.	The Pillippines censorship board voted to cut certain scenes.	15406896	1472278573433	1472278573597	n	78
30289	324549	The Philippines censorship board voted to cut certain scenes.	The Pillippines censorship board voted to cut certain scenes.	15406918	1472278573752	1472278573878	s	83
30289	324549	The Philippines censorship board voted to cut certain scenes.	The Pillippines censorship board voted to cut certain scenes.	15406921	1472278573959	1472278574103	c	67
30289	324549	The Philippines censorship board voted to cut certain scenes.	The Pillippines censorship board voted to cut certain scenes.	15406923	1472278574174	1472278574276	e	69
30289	324549	The Philippines censorship board voted to cut certain scenes.	The Pillippines censorship board voted to cut certain scenes.	15406925	1472278574332	1472278574463	n	78
30289	324549	The Philippines censorship board voted to cut certain scenes.	The Pillippines censorship board voted to cut certain scenes.	15406939	1472278574408	1472278574524	e	69
30289	324549	The Philippines censorship board voted to cut certain scenes.	The Pillippines censorship board voted to cut certain scenes.	15406943	1472278574632	1472278574739	s	83
30289	324549	The Philippines censorship board voted to cut certain scenes.	The Pillippines censorship board voted to cut certain scenes.	15406947	1472278574797	1472278574903	.	190
30289	324559	I have a request.	I have a request.	15407035	1472278578025	1472278578237	SHIFT	16
30289	324559	I have a request.	I have a request.	15407037	1472278578134	1472278578292	I	73
30289	324559	I have a request.	I have a request.	15407062	1472278578228	1472278578945	 	32
30289	324559	I have a request.	I have a request.	15407044	1472278578386	1472278578547	h	72
30289	324559	I have a request.	I have a request.	15407047	1472278578437	1472278578580	a	65
30289	324559	I have a request.	I have a request.	15407055	1472278578574	1472278578686	v	86
30289	324559	I have a request.	I have a request.	15407058	1472278578712	1472278578862	e	69
30289	324559	I have a request.	I have a request.	15407070	1472278578805	1472278579861	 	32
30289	324559	I have a request.	I have a request.	15407066	1472278578992	1472278579095	a	65
30289	324559	I have a request.	I have a request.	15407100	1472278579805	1472278579986	r	82
30289	324559	I have a request.	I have a request.	15407102	1472278579935	1472278580107	e	69
30289	324559	I have a request.	I have a request.	15407104	1472278580300	1472278580469	q	81
30289	324559	I have a request.	I have a request.	15407107	1472278580421	1472278580569	u	85
30289	324559	I have a request.	I have a request.	15407111	1472278580559	1472278580670	e	69
30289	324559	I have a request.	I have a request.	15407114	1472278580780	1472278580883	s	83
30289	324559	I have a request.	I have a request.	15407120	1472278580975	1472278581123	t	84
30289	324559	I have a request.	I have a request.	15407123	1472278581163	1472278581270	.	190
30289	324561	How's the share price?	How's the share price?	15407206	1472278583638	1472278583804	SHIFT	16
30289	324561	How's the share price?	How's the share price?	15407208	1472278583707	1472278583858	H	72
30289	324561	How's the share price?	How's the share price?	15407211	1472278583827	1472278584054	o	79
30289	324561	How's the share price?	How's the share price?	15407215	1472278583982	1472278584123	w	87
30289	324561	How's the share price?	How's the share price?	15407220	1472278584382	1472278584579	'	222
30289	324561	How's the share price?	How's the share price?	15407224	1472278584534	1472278584663	s	83
30289	324561	How's the share price?	How's the share price?	15407259	1472278584679	1472278585242	 	32
30289	324561	How's the share price?	How's the share price?	15407230	1472278584823	1472278584985	t	84
30289	324561	How's the share price?	How's the share price?	15407232	1472278584948	1472278585096	h	72
30289	324561	How's the share price?	How's the share price?	15407234	1472278585015	1472278585137	e	69
30289	324561	How's the share price?	How's the share price?	15407276	1472278585100	1472278586398	 	32
30289	324561	How's the share price?	How's the share price?	15407261	1472278585271	1472278585400	s	83
30289	324561	How's the share price?	How's the share price?	15407264	1472278585414	1472278585564	h	72
30289	324561	How's the share price?	How's the share price?	15407267	1472278585763	1472278585921	a	65
30289	324561	How's the share price?	How's the share price?	15407268	1472278585952	1472278586074	r	82
30289	324561	How's the share price?	How's the share price?	15407274	1472278586036	1472278586180	e	69
30289	324561	How's the share price?	How's the share price?	15407280	1472278586408	1472278586586	p	80
30289	324561	How's the share price?	How's the share price?	15407283	1472278586525	1472278586674	r	82
30289	324561	How's the share price?	How's the share price?	15407285	1472278586664	1472278586833	i	73
30289	324561	How's the share price?	How's the share price?	15407333	1472278586808	1472278586941	c	67
30289	324561	How's the share price?	How's the share price?	15407335	1472278587014	1472278587144	e	69
30289	324561	How's the share price?	How's the share price?	15407338	1472278587703	1472278587967	SHIFT	16
30289	324561	How's the share price?	How's the share price?	15407337	1472278587808	1472278587953	?	191
30289	324567	Upon returning to the U.	Upon returning to the U.	15407441	1472278590930	1472278591147	SHIFT	16
30289	324567	Upon returning to the U.	Upon returning to the U.	15407442	1472278591059	1472278591209	U	85
30289	324567	Upon returning to the U.	Upon returning to the U.	15407443	1472278591246	1472278591387	p	80
30289	324567	Upon returning to the U.	Upon returning to the U.	15407445	1472278591455	1472278591609	o	79
30289	324567	Upon returning to the U.	Upon returning to the U.	15407447	1472278591667	1472278591888	n	78
30289	324567	Upon returning to the U.	Upon returning to the U.	15407595	1472278591817	1472278594694	 	32
30289	324567	Upon returning to the U.	Upon returning to the U.	15407462	1472278591985	1472278592158	r	82
30289	324567	Upon returning to the U.	Upon returning to the U.	15407465	1472278592127	1472278592253	e	69
30289	324567	Upon returning to the U.	Upon returning to the U.	15407466	1472278592300	1472278592447	t	84
30289	324567	Upon returning to the U.	Upon returning to the U.	15407468	1472278592442	1472278592583	u	85
30289	324567	Upon returning to the U.	Upon returning to the U.	15407512	1472278592550	1472278592700	r	82
30289	324567	Upon returning to the U.	Upon returning to the U.	15407514	1472278592807	1472278593070	i	73
30289	324567	Upon returning to the U.	Upon returning to the U.	15407516	1472278592942	1472278593106	n	78
30289	324567	Upon returning to the U.	Upon returning to the U.	15407518	1472278593580	1472278593659	BKSP	8
30289	324567	Upon returning to the U.	Upon returning to the U.	15407521	1472278593721	1472278593819	BKSP	8
30289	324567	Upon returning to the U.	Upon returning to the U.	15407524	1472278594049	1472278594175	n	78
30289	324567	Upon returning to the U.	Upon returning to the U.	15407526	1472278594147	1472278594374	i	73
30289	324567	Upon returning to the U.	Upon returning to the U.	15407584	1472278594271	1472278594458	n	78
30289	324567	Upon returning to the U.	Upon returning to the U.	15407590	1472278594417	1472278594545	g	71
30289	324567	Upon returning to the U.	Upon returning to the U.	15407618	1472278594554	1472278595942	 	32
30289	324567	Upon returning to the U.	Upon returning to the U.	15407598	1472278594680	1472278594827	t	84
30289	324567	Upon returning to the U.	Upon returning to the U.	15407601	1472278594785	1472278594929	h	72
30289	324567	Upon returning to the U.	Upon returning to the U.	15407603	1472278595417	1472278595499	BKSP	8
30289	324567	Upon returning to the U.	Upon returning to the U.	15407605	1472278595642	1472278595836	o	79
30289	324567	Upon returning to the U.	Upon returning to the U.	15407622	1472278595760	1472278596310	 	32
30289	324567	Upon returning to the U.	Upon returning to the U.	15407619	1472278595892	1472278596033	t	84
30289	324567	Upon returning to the U.	Upon returning to the U.	15407620	1472278595973	1472278596137	h	72
30289	324567	Upon returning to the U.	Upon returning to the U.	15407621	1472278596111	1472278596224	e	69
30289	324567	Upon returning to the U.	Upon returning to the U.	15407624	1472278596460	1472278596652	SHIFT	16
30289	324567	Upon returning to the U.	Upon returning to the U.	15407634	1472278596548	1472278596670	U	85
30289	324567	Upon returning to the U.	Upon returning to the U.	15407636	1472278596749	1472278596871	.	190
